ARM GAS  /tmp/ccgIClPy.s 			page 1


   1              		.cpu cortex-m7
   2              		.eabi_attribute 28, 1
   3              		.eabi_attribute 20, 1
   4              		.eabi_attribute 21, 1
   5              		.eabi_attribute 23, 3
   6              		.eabi_attribute 24, 1
   7              		.eabi_attribute 25, 1
   8              		.eabi_attribute 26, 1
   9              		.eabi_attribute 30, 2
  10              		.eabi_attribute 34, 1
  11              		.eabi_attribute 18, 4
  12              		.file	"PolyOsc.cpp"
  13              		.text
  14              	.Ltext0:
  15              		.cfi_sections	.debug_frame
  16              		.section	.text._ZN5daisy10DaisyPatchD2Ev,"axG",%progbits,_ZN5daisy10DaisyPatchD5Ev,comdat
  17              		.align	1
  18              		.p2align 2,,3
  19              		.weak	_ZN5daisy10DaisyPatchD2Ev
  20              		.arch armv7e-m
  21              		.syntax unified
  22              		.thumb
  23              		.thumb_func
  24              		.fpu fpv5-d16
  26              	_ZN5daisy10DaisyPatchD2Ev:
  27              	.LVL0:
  28              	.LFB4230:
  29              		.file 1 "../../libdaisy/src/daisy_patch.h"
   1:../../libdaisy/src/daisy_patch.h **** #pragma once
   2:../../libdaisy/src/daisy_patch.h **** #ifndef DSY_PATCH_BSP_H
   3:../../libdaisy/src/daisy_patch.h **** #define DSY_PATCH_BSP_H
   4:../../libdaisy/src/daisy_patch.h **** #include "daisy_seed.h"
   5:../../libdaisy/src/daisy_patch.h **** #include "dev/oled_ssd130x.h"
   6:../../libdaisy/src/daisy_patch.h **** 
   7:../../libdaisy/src/daisy_patch.h **** namespace daisy
   8:../../libdaisy/src/daisy_patch.h **** {
   9:../../libdaisy/src/daisy_patch.h **** /**
  10:../../libdaisy/src/daisy_patch.h ****     @brief Class that handles initializing all of the hardware specific to the Daisy Patch Board. \
  11:../../libdaisy/src/daisy_patch.h ****     Helper funtions are also in place to provide easy access to built-in controls and peripherals.
  12:../../libdaisy/src/daisy_patch.h ****     @author Stephen Hensley
  13:../../libdaisy/src/daisy_patch.h ****     @date November 2019
  14:../../libdaisy/src/daisy_patch.h ****     @ingroup boards
  15:../../libdaisy/src/daisy_patch.h **** */
  16:../../libdaisy/src/daisy_patch.h **** class DaisyPatch
  17:../../libdaisy/src/daisy_patch.h **** {
  18:../../libdaisy/src/daisy_patch.h ****   public:
  19:../../libdaisy/src/daisy_patch.h ****     /** Enum of Ctrls to represent the four CV/Knob combos on the Patch
  20:../../libdaisy/src/daisy_patch.h ****      */
  21:../../libdaisy/src/daisy_patch.h ****     enum Ctrl
  22:../../libdaisy/src/daisy_patch.h ****     {
  23:../../libdaisy/src/daisy_patch.h ****         CTRL_1,    /**< */
  24:../../libdaisy/src/daisy_patch.h ****         CTRL_2,    /**< */
  25:../../libdaisy/src/daisy_patch.h ****         CTRL_3,    /**< */
  26:../../libdaisy/src/daisy_patch.h ****         CTRL_4,    /**< */
  27:../../libdaisy/src/daisy_patch.h ****         CTRL_LAST, /**< */
  28:../../libdaisy/src/daisy_patch.h ****     };
  29:../../libdaisy/src/daisy_patch.h **** 
ARM GAS  /tmp/ccgIClPy.s 			page 2


  30:../../libdaisy/src/daisy_patch.h ****     /** Daisy patch gate inputs */
  31:../../libdaisy/src/daisy_patch.h ****     enum GateInput
  32:../../libdaisy/src/daisy_patch.h ****     {
  33:../../libdaisy/src/daisy_patch.h ****         GATE_IN_1,    /**< */
  34:../../libdaisy/src/daisy_patch.h ****         GATE_IN_2,    /** <*/
  35:../../libdaisy/src/daisy_patch.h ****         GATE_IN_LAST, /**< */
  36:../../libdaisy/src/daisy_patch.h ****     };
  37:../../libdaisy/src/daisy_patch.h **** 
  38:../../libdaisy/src/daisy_patch.h ****     /** Constructor */
  39:../../libdaisy/src/daisy_patch.h ****     DaisyPatch() {}
  40:../../libdaisy/src/daisy_patch.h ****     /** Destructor */
  41:../../libdaisy/src/daisy_patch.h ****     ~DaisyPatch() {}
  30              		.loc 1 41 5 view -0
  31              		.cfi_startproc
  32              		@ args = 0, pretend = 0, frame = 0
  33              		@ frame_needed = 0, uses_anonymous_args = 0
  34              		@ link register save eliminated.
  35              	.LBB770:
  36              	.LBI770:
  37              		.file 2 "../../libdaisy/src/hid/disp/oled_display.h"
   1:../../libdaisy/src/hid/disp/oled_display.h **** #pragma once
   2:../../libdaisy/src/hid/disp/oled_display.h **** #ifndef DSY_OLED_DISPLAY_H
   3:../../libdaisy/src/hid/disp/oled_display.h **** #define DSY_OLED_DISPLAY_H /**< Macro */
   4:../../libdaisy/src/hid/disp/oled_display.h **** 
   5:../../libdaisy/src/hid/disp/oled_display.h **** #include "display.h"
   6:../../libdaisy/src/hid/disp/oled_display.h **** 
   7:../../libdaisy/src/hid/disp/oled_display.h **** namespace daisy
   8:../../libdaisy/src/hid/disp/oled_display.h **** {
   9:../../libdaisy/src/hid/disp/oled_display.h **** /** 
  10:../../libdaisy/src/hid/disp/oled_display.h ****  * This class is for drawing to a monochrome OLED display. 
  11:../../libdaisy/src/hid/disp/oled_display.h **** */
  12:../../libdaisy/src/hid/disp/oled_display.h **** template <typename DisplayDriver>
  13:../../libdaisy/src/hid/disp/oled_display.h **** class OledDisplay : public OneBitGraphicsDisplayImpl<OledDisplay<DisplayDriver>>
  14:../../libdaisy/src/hid/disp/oled_display.h **** {
  15:../../libdaisy/src/hid/disp/oled_display.h ****   public:
  16:../../libdaisy/src/hid/disp/oled_display.h ****     OledDisplay() {}
  17:../../libdaisy/src/hid/disp/oled_display.h ****     virtual ~OledDisplay() {}
  38              		.loc 2 17 13 view .LVU1
  39              	.LBB771:
  40              	.LBI771:
  41              		.file 3 "../../libdaisy/src/hid/disp/display.h"
   1:../../libdaisy/src/hid/disp/display.h **** #pragma once
   2:../../libdaisy/src/hid/disp/display.h **** #ifndef DSY_DISPLAY_H
   3:../../libdaisy/src/hid/disp/display.h **** #define DSY_DISPLAY_H /**< Macro */
   4:../../libdaisy/src/hid/disp/display.h **** #include <cmath>
   5:../../libdaisy/src/hid/disp/display.h **** #include "util/oled_fonts.h"
   6:../../libdaisy/src/hid/disp/display.h **** #include "daisy_core.h"
   7:../../libdaisy/src/hid/disp/display.h **** #include "graphics_common.h"
   8:../../libdaisy/src/hid/disp/display.h **** 
   9:../../libdaisy/src/hid/disp/display.h **** #ifndef deg2rad
  10:../../libdaisy/src/hid/disp/display.h **** #define deg2rad(deg) ((deg)*3.141592 / 180.0)
  11:../../libdaisy/src/hid/disp/display.h **** #endif
  12:../../libdaisy/src/hid/disp/display.h **** 
  13:../../libdaisy/src/hid/disp/display.h **** namespace daisy
  14:../../libdaisy/src/hid/disp/display.h **** {
  15:../../libdaisy/src/hid/disp/display.h **** /** 
  16:../../libdaisy/src/hid/disp/display.h ****  * This interface is used as a base class for all types of 1bit-per-pixel
ARM GAS  /tmp/ccgIClPy.s 			page 3


  17:../../libdaisy/src/hid/disp/display.h ****  * graphics displays.
  18:../../libdaisy/src/hid/disp/display.h **** */
  19:../../libdaisy/src/hid/disp/display.h **** class OneBitGraphicsDisplay
  20:../../libdaisy/src/hid/disp/display.h **** {
  21:../../libdaisy/src/hid/disp/display.h ****   public:
  22:../../libdaisy/src/hid/disp/display.h ****     OneBitGraphicsDisplay() {}
  23:../../libdaisy/src/hid/disp/display.h ****     virtual ~OneBitGraphicsDisplay() {}
  24:../../libdaisy/src/hid/disp/display.h **** 
  25:../../libdaisy/src/hid/disp/display.h ****     virtual uint16_t Height() const = 0;
  26:../../libdaisy/src/hid/disp/display.h ****     virtual uint16_t Width() const  = 0;
  27:../../libdaisy/src/hid/disp/display.h **** 
  28:../../libdaisy/src/hid/disp/display.h ****     Rectangle GetBounds() const
  29:../../libdaisy/src/hid/disp/display.h ****     {
  30:../../libdaisy/src/hid/disp/display.h ****         return Rectangle(int16_t(Width()), int16_t(Height()));
  31:../../libdaisy/src/hid/disp/display.h ****     }
  32:../../libdaisy/src/hid/disp/display.h **** 
  33:../../libdaisy/src/hid/disp/display.h **** 
  34:../../libdaisy/src/hid/disp/display.h ****     size_t CurrentX() { return currentX_; };
  35:../../libdaisy/src/hid/disp/display.h ****     size_t CurrentY() { return currentY_; };
  36:../../libdaisy/src/hid/disp/display.h **** 
  37:../../libdaisy/src/hid/disp/display.h ****     /** 
  38:../../libdaisy/src/hid/disp/display.h ****     Fills the entire display with either on/off.
  39:../../libdaisy/src/hid/disp/display.h ****     \param on Sets on or off.
  40:../../libdaisy/src/hid/disp/display.h ****     */
  41:../../libdaisy/src/hid/disp/display.h ****     virtual void Fill(bool on) = 0;
  42:../../libdaisy/src/hid/disp/display.h **** 
  43:../../libdaisy/src/hid/disp/display.h ****     /**
  44:../../libdaisy/src/hid/disp/display.h ****     Sets the pixel at the specified coordinate to be on/off.
  45:../../libdaisy/src/hid/disp/display.h ****     \param x   x Coordinate
  46:../../libdaisy/src/hid/disp/display.h ****     \param y   y coordinate
  47:../../libdaisy/src/hid/disp/display.h ****     \param on  on or off
  48:../../libdaisy/src/hid/disp/display.h ****     */
  49:../../libdaisy/src/hid/disp/display.h ****     virtual void DrawPixel(uint_fast8_t x, uint_fast8_t y, bool on) = 0;
  50:../../libdaisy/src/hid/disp/display.h **** 
  51:../../libdaisy/src/hid/disp/display.h ****     /**
  52:../../libdaisy/src/hid/disp/display.h ****     Draws a line from (x1, y1) to (y1, y2)
  53:../../libdaisy/src/hid/disp/display.h ****     \param x1  x Coordinate of the starting point
  54:../../libdaisy/src/hid/disp/display.h ****     \param y1  y Coordinate of the starting point
  55:../../libdaisy/src/hid/disp/display.h ****     \param x2  x Coordinate of the ending point
  56:../../libdaisy/src/hid/disp/display.h ****     \param y2  y Coordinate of the ending point
  57:../../libdaisy/src/hid/disp/display.h ****     \param on  on or off
  58:../../libdaisy/src/hid/disp/display.h ****     */
  59:../../libdaisy/src/hid/disp/display.h ****     virtual void DrawLine(uint_fast8_t x1,
  60:../../libdaisy/src/hid/disp/display.h ****                           uint_fast8_t y1,
  61:../../libdaisy/src/hid/disp/display.h ****                           uint_fast8_t x2,
  62:../../libdaisy/src/hid/disp/display.h ****                           uint_fast8_t y2,
  63:../../libdaisy/src/hid/disp/display.h ****                           bool         on)
  64:../../libdaisy/src/hid/disp/display.h ****         = 0;
  65:../../libdaisy/src/hid/disp/display.h **** 
  66:../../libdaisy/src/hid/disp/display.h ****     /**
  67:../../libdaisy/src/hid/disp/display.h ****     Draws a rectangle based on two coordinates.
  68:../../libdaisy/src/hid/disp/display.h ****     \param x1 x Coordinate of the first point
  69:../../libdaisy/src/hid/disp/display.h ****     \param y1 y Coordinate of the first point
  70:../../libdaisy/src/hid/disp/display.h ****     \param x2 x Coordinate of the second point
  71:../../libdaisy/src/hid/disp/display.h ****     \param y2 y Coordinate of the second point
  72:../../libdaisy/src/hid/disp/display.h ****     \param on on or off
  73:../../libdaisy/src/hid/disp/display.h ****     \param fill fill the rectangle or draw only the outline
ARM GAS  /tmp/ccgIClPy.s 			page 4


  74:../../libdaisy/src/hid/disp/display.h ****     */
  75:../../libdaisy/src/hid/disp/display.h ****     virtual void DrawRect(uint_fast8_t x1,
  76:../../libdaisy/src/hid/disp/display.h ****                           uint_fast8_t y1,
  77:../../libdaisy/src/hid/disp/display.h ****                           uint_fast8_t x2,
  78:../../libdaisy/src/hid/disp/display.h ****                           uint_fast8_t y2,
  79:../../libdaisy/src/hid/disp/display.h ****                           bool         on,
  80:../../libdaisy/src/hid/disp/display.h ****                           bool         fill = false)
  81:../../libdaisy/src/hid/disp/display.h ****         = 0;
  82:../../libdaisy/src/hid/disp/display.h **** 
  83:../../libdaisy/src/hid/disp/display.h ****     /**
  84:../../libdaisy/src/hid/disp/display.h ****     Draws a rectangle.
  85:../../libdaisy/src/hid/disp/display.h ****     \param rect the rectangle
  86:../../libdaisy/src/hid/disp/display.h ****     \param on   on or off
  87:../../libdaisy/src/hid/disp/display.h ****     \param fill fill the rectangle or draw only the outline
  88:../../libdaisy/src/hid/disp/display.h ****     */
  89:../../libdaisy/src/hid/disp/display.h ****     void DrawRect(const Rectangle& rect, bool on, bool fill = false)
  90:../../libdaisy/src/hid/disp/display.h ****     {
  91:../../libdaisy/src/hid/disp/display.h ****         DrawRect(rect.GetX(),
  92:../../libdaisy/src/hid/disp/display.h ****                  rect.GetY(),
  93:../../libdaisy/src/hid/disp/display.h ****                  rect.GetRight(),
  94:../../libdaisy/src/hid/disp/display.h ****                  rect.GetBottom(),
  95:../../libdaisy/src/hid/disp/display.h ****                  on,
  96:../../libdaisy/src/hid/disp/display.h ****                  fill);
  97:../../libdaisy/src/hid/disp/display.h ****     }
  98:../../libdaisy/src/hid/disp/display.h **** 
  99:../../libdaisy/src/hid/disp/display.h ****     /**
 100:../../libdaisy/src/hid/disp/display.h ****     Draws an arc around the specified coordinate
 101:../../libdaisy/src/hid/disp/display.h ****     \param x           x Coordinate of the center of the arc
 102:../../libdaisy/src/hid/disp/display.h ****     \param y           y Coordinate of the center of the arc
 103:../../libdaisy/src/hid/disp/display.h ****     \param radius      radius of the arc
 104:../../libdaisy/src/hid/disp/display.h ****     \param start_angle angle where to start the arc
 105:../../libdaisy/src/hid/disp/display.h ****     \param sweep       total angle of the arc
 106:../../libdaisy/src/hid/disp/display.h ****     \param on  on or off
 107:../../libdaisy/src/hid/disp/display.h ****     */
 108:../../libdaisy/src/hid/disp/display.h ****     virtual void DrawArc(uint_fast8_t x,
 109:../../libdaisy/src/hid/disp/display.h ****                          uint_fast8_t y,
 110:../../libdaisy/src/hid/disp/display.h ****                          uint_fast8_t radius,
 111:../../libdaisy/src/hid/disp/display.h ****                          int_fast16_t start_angle,
 112:../../libdaisy/src/hid/disp/display.h ****                          int_fast16_t sweep,
 113:../../libdaisy/src/hid/disp/display.h ****                          bool         on)
 114:../../libdaisy/src/hid/disp/display.h ****         = 0;
 115:../../libdaisy/src/hid/disp/display.h **** 
 116:../../libdaisy/src/hid/disp/display.h ****     /**
 117:../../libdaisy/src/hid/disp/display.h ****     Draws a circle around the specified coordinate
 118:../../libdaisy/src/hid/disp/display.h ****     \param x           x Coordinate of the center of the circle
 119:../../libdaisy/src/hid/disp/display.h ****     \param y           y Coordinate of the center of the circle
 120:../../libdaisy/src/hid/disp/display.h ****     \param radius      radius of the circle
 121:../../libdaisy/src/hid/disp/display.h ****     \param on  on or off
 122:../../libdaisy/src/hid/disp/display.h ****     */
 123:../../libdaisy/src/hid/disp/display.h ****     void
 124:../../libdaisy/src/hid/disp/display.h ****     DrawCircle(uint_fast8_t x, uint_fast8_t y, uint_fast8_t radius, bool on)
 125:../../libdaisy/src/hid/disp/display.h ****     {
 126:../../libdaisy/src/hid/disp/display.h ****         DrawArc(x, y, radius, 0, 360, on);
 127:../../libdaisy/src/hid/disp/display.h ****     };
 128:../../libdaisy/src/hid/disp/display.h **** 
 129:../../libdaisy/src/hid/disp/display.h ****     /** 
 130:../../libdaisy/src/hid/disp/display.h ****     Writes the character with the specific FontDef
ARM GAS  /tmp/ccgIClPy.s 			page 5


 131:../../libdaisy/src/hid/disp/display.h ****     to the display buffer at the current Cursor position.
 132:../../libdaisy/src/hid/disp/display.h ****     \param ch character to be written
 133:../../libdaisy/src/hid/disp/display.h ****     \param font font to be written in
 134:../../libdaisy/src/hid/disp/display.h ****     \param on    on or off
 135:../../libdaisy/src/hid/disp/display.h ****     \return &
 136:../../libdaisy/src/hid/disp/display.h ****     */
 137:../../libdaisy/src/hid/disp/display.h ****     virtual char WriteChar(char ch, FontDef font, bool on) = 0;
 138:../../libdaisy/src/hid/disp/display.h **** 
 139:../../libdaisy/src/hid/disp/display.h ****     /** 
 140:../../libdaisy/src/hid/disp/display.h ****     Similar to WriteChar, except it will handle an entire String.
 141:../../libdaisy/src/hid/disp/display.h ****     Wrapping does not happen automatically, so the width
 142:../../libdaisy/src/hid/disp/display.h ****     of the string must be kept within the dimensions of the screen.
 143:../../libdaisy/src/hid/disp/display.h ****     \param str string to be written
 144:../../libdaisy/src/hid/disp/display.h ****     \param font font to use
 145:../../libdaisy/src/hid/disp/display.h ****     \param on  on or off
 146:../../libdaisy/src/hid/disp/display.h ****     \return &
 147:../../libdaisy/src/hid/disp/display.h ****     */
 148:../../libdaisy/src/hid/disp/display.h ****     virtual char WriteString(const char* str, FontDef font, bool on) = 0;
 149:../../libdaisy/src/hid/disp/display.h **** 
 150:../../libdaisy/src/hid/disp/display.h ****     /** 
 151:../../libdaisy/src/hid/disp/display.h ****     Similar to WriteString but justified within a bounding box.
 152:../../libdaisy/src/hid/disp/display.h ****     \param str          string to be written
 153:../../libdaisy/src/hid/disp/display.h ****     \param font         font to use
 154:../../libdaisy/src/hid/disp/display.h ****     \param boundingBox  the bounding box to draw the text in
 155:../../libdaisy/src/hid/disp/display.h ****     \param alignment    the alignment to use
 156:../../libdaisy/src/hid/disp/display.h ****     \param on           on or off
 157:../../libdaisy/src/hid/disp/display.h ****     \return The rectangle that was drawn to
 158:../../libdaisy/src/hid/disp/display.h ****     */
 159:../../libdaisy/src/hid/disp/display.h ****     virtual Rectangle WriteStringAligned(const char*    str,
 160:../../libdaisy/src/hid/disp/display.h ****                                          const FontDef& font,
 161:../../libdaisy/src/hid/disp/display.h ****                                          Rectangle      boundingBox,
 162:../../libdaisy/src/hid/disp/display.h ****                                          Alignment      alignment,
 163:../../libdaisy/src/hid/disp/display.h ****                                          bool           on)
 164:../../libdaisy/src/hid/disp/display.h ****         = 0;
 165:../../libdaisy/src/hid/disp/display.h **** 
 166:../../libdaisy/src/hid/disp/display.h ****     /** 
 167:../../libdaisy/src/hid/disp/display.h ****     Moves the 'Cursor' position used for WriteChar, and WriteStr to the specified coordinate.
 168:../../libdaisy/src/hid/disp/display.h ****     \param x x pos
 169:../../libdaisy/src/hid/disp/display.h ****     \param y y pos
 170:../../libdaisy/src/hid/disp/display.h ****     */
 171:../../libdaisy/src/hid/disp/display.h ****     void SetCursor(uint16_t x, uint16_t y)
 172:../../libdaisy/src/hid/disp/display.h ****     {
 173:../../libdaisy/src/hid/disp/display.h ****         currentX_ = (x >= Width()) ? Width() - 1 : x;
 174:../../libdaisy/src/hid/disp/display.h ****         currentY_ = (y >= Height()) ? Height() - 1 : y;
 175:../../libdaisy/src/hid/disp/display.h ****     }
 176:../../libdaisy/src/hid/disp/display.h **** 
 177:../../libdaisy/src/hid/disp/display.h ****     /** 
 178:../../libdaisy/src/hid/disp/display.h ****     Writes the current display buffer to the OLED device using SPI or I2C depending on 
 179:../../libdaisy/src/hid/disp/display.h ****     how the object was initialized.
 180:../../libdaisy/src/hid/disp/display.h ****     */
 181:../../libdaisy/src/hid/disp/display.h ****     virtual void Update() = 0;
 182:../../libdaisy/src/hid/disp/display.h **** 
 183:../../libdaisy/src/hid/disp/display.h ****   protected:
 184:../../libdaisy/src/hid/disp/display.h ****     uint16_t currentX_;
 185:../../libdaisy/src/hid/disp/display.h ****     uint16_t currentY_;
 186:../../libdaisy/src/hid/disp/display.h **** };
 187:../../libdaisy/src/hid/disp/display.h **** 
ARM GAS  /tmp/ccgIClPy.s 			page 6


 188:../../libdaisy/src/hid/disp/display.h **** /** This class is intended as a intermediary class for your actual implementation of the OneBitGrap
 189:../../libdaisy/src/hid/disp/display.h ****  *  interface. It uses the CRTP design pattern where the template argument is the child class. It p
 190:../../libdaisy/src/hid/disp/display.h ****  *  implementations for most of the functions, except DrawPixel(), Update() and Fill(), which you'l
 191:../../libdaisy/src/hid/disp/display.h ****  *  to provide in your child class.
 192:../../libdaisy/src/hid/disp/display.h ****  *  The main goal of this class is to provide common drawing functions without relying on massive a
 193:../../libdaisy/src/hid/disp/display.h ****  *  virtual function calls that would result in a performance loss. To achieve this, any drawing fu
 194:../../libdaisy/src/hid/disp/display.h ****  *  is implemented here and internally calls other drawing functions (e.g. DrawRect() which interna
 195:../../libdaisy/src/hid/disp/display.h ****  *  DrawPixel() and DrawLine()) makes these calls via the qualified name of these functions to expl
 196:../../libdaisy/src/hid/disp/display.h ****  *  suppress the virtual dispatch mechanism like this:
 197:../../libdaisy/src/hid/disp/display.h ****  * 
 198:../../libdaisy/src/hid/disp/display.h ****  *      ChildType::DrawPixel(...); // no virtual function call; direct call into the child class fu
 199:../../libdaisy/src/hid/disp/display.h ****  *  
 200:../../libdaisy/src/hid/disp/display.h ****  *  To create a custom OneBitGraphicsDisplay implementation, you can 
 201:../../libdaisy/src/hid/disp/display.h ****  *  A) inherit from OneBitGraphicsDisplay directly and provide all the drawing functions yourself
 202:../../libdaisy/src/hid/disp/display.h ****  *  B) Inherit from OneBitGraphicsDisplayImpl and only provide DrawPixel(), Fill() and Update()
 203:../../libdaisy/src/hid/disp/display.h ****  *     like this:
 204:../../libdaisy/src/hid/disp/display.h ****  *  
 205:../../libdaisy/src/hid/disp/display.h ****  *      class MyDisplayClass : public OneBitGraphicsDisplayImpl<MyDisplayClass> 
 206:../../libdaisy/src/hid/disp/display.h ****  *      {
 207:../../libdaisy/src/hid/disp/display.h ****  *      public:
 208:../../libdaisy/src/hid/disp/display.h ****  *          void Fill() override { ... };
 209:../../libdaisy/src/hid/disp/display.h ****  *          void DrawPixel(uint_fast8_t x, uint_fast8_t y, bool on) override { ... };
 210:../../libdaisy/src/hid/disp/display.h ****  *          void Update() override { ... }
 211:../../libdaisy/src/hid/disp/display.h ****  *      };
 212:../../libdaisy/src/hid/disp/display.h ****  *  
 213:../../libdaisy/src/hid/disp/display.h ****  */
 214:../../libdaisy/src/hid/disp/display.h **** template <class ChildType>
 215:../../libdaisy/src/hid/disp/display.h **** class OneBitGraphicsDisplayImpl : public OneBitGraphicsDisplay
 216:../../libdaisy/src/hid/disp/display.h **** {
 217:../../libdaisy/src/hid/disp/display.h ****   public:
 218:../../libdaisy/src/hid/disp/display.h ****     OneBitGraphicsDisplayImpl() {}
 219:../../libdaisy/src/hid/disp/display.h ****     virtual ~OneBitGraphicsDisplayImpl() {}
  42              		.loc 3 219 13 view .LVU2
  43              	.LBB772:
  44              	.LBI772:
  23:../../libdaisy/src/hid/disp/display.h **** 
  45              		.loc 3 23 13 view .LVU3
  23:../../libdaisy/src/hid/disp/display.h **** 
  46              		.loc 3 23 13 is_stmt 0 view .LVU4
  47              	.LBE772:
  48              	.LBE771:
  49              	.LBE770:
  50              	.LBB773:
  51              	.LBI773:
  52              		.file 4 "../../libdaisy/src/hid/midi.h"
   1:../../libdaisy/src/hid/midi.h **** #pragma once
   2:../../libdaisy/src/hid/midi.h **** #ifndef DSY_MIDI_H
   3:../../libdaisy/src/hid/midi.h **** #define DSY_MIDI_H
   4:../../libdaisy/src/hid/midi.h **** 
   5:../../libdaisy/src/hid/midi.h **** // TODO: make this adjustable
   6:../../libdaisy/src/hid/midi.h **** #define SYSEX_BUFFER_LEN 128
   7:../../libdaisy/src/hid/midi.h **** 
   8:../../libdaisy/src/hid/midi.h **** #include <stdint.h>
   9:../../libdaisy/src/hid/midi.h **** #include <stdlib.h>
  10:../../libdaisy/src/hid/midi.h **** #include "per/uart.h"
  11:../../libdaisy/src/hid/midi.h **** #include "util/ringbuffer.h"
  12:../../libdaisy/src/hid/midi.h **** #include "hid/MidiEvent.h"
ARM GAS  /tmp/ccgIClPy.s 			page 7


  13:../../libdaisy/src/hid/midi.h **** #include "sys/system.h"
  14:../../libdaisy/src/hid/midi.h **** 
  15:../../libdaisy/src/hid/midi.h **** namespace daisy
  16:../../libdaisy/src/hid/midi.h **** {
  17:../../libdaisy/src/hid/midi.h **** /** @addtogroup external 
  18:../../libdaisy/src/hid/midi.h ****     @{ 
  19:../../libdaisy/src/hid/midi.h **** */
  20:../../libdaisy/src/hid/midi.h **** 
  21:../../libdaisy/src/hid/midi.h **** class MidiUartTransport
  22:../../libdaisy/src/hid/midi.h **** {
  23:../../libdaisy/src/hid/midi.h ****   public:
  24:../../libdaisy/src/hid/midi.h ****     MidiUartTransport() {}
  25:../../libdaisy/src/hid/midi.h ****     ~MidiUartTransport() {}
  26:../../libdaisy/src/hid/midi.h **** 
  27:../../libdaisy/src/hid/midi.h ****     struct Config
  28:../../libdaisy/src/hid/midi.h ****     {
  29:../../libdaisy/src/hid/midi.h ****         UartHandler::Config::Peripheral periph;
  30:../../libdaisy/src/hid/midi.h ****         dsy_gpio_pin                    rx;
  31:../../libdaisy/src/hid/midi.h ****         dsy_gpio_pin                    tx;
  32:../../libdaisy/src/hid/midi.h **** 
  33:../../libdaisy/src/hid/midi.h ****         Config()
  34:../../libdaisy/src/hid/midi.h ****         {
  35:../../libdaisy/src/hid/midi.h ****             periph = UartHandler::Config::Peripheral::USART_1;
  36:../../libdaisy/src/hid/midi.h ****             rx     = {DSY_GPIOB, 7};
  37:../../libdaisy/src/hid/midi.h ****             tx     = {DSY_GPIOB, 6};
  38:../../libdaisy/src/hid/midi.h ****         }
  39:../../libdaisy/src/hid/midi.h ****     };
  40:../../libdaisy/src/hid/midi.h **** 
  41:../../libdaisy/src/hid/midi.h ****     inline void Init(Config config)
  42:../../libdaisy/src/hid/midi.h ****     {
  43:../../libdaisy/src/hid/midi.h ****         UartHandler::Config uart_config;
  44:../../libdaisy/src/hid/midi.h **** 
  45:../../libdaisy/src/hid/midi.h ****         //defaults
  46:../../libdaisy/src/hid/midi.h ****         uart_config.baudrate   = 31250;
  47:../../libdaisy/src/hid/midi.h ****         uart_config.stopbits   = UartHandler::Config::StopBits::BITS_1;
  48:../../libdaisy/src/hid/midi.h ****         uart_config.parity     = UartHandler::Config::Parity::NONE;
  49:../../libdaisy/src/hid/midi.h ****         uart_config.mode       = UartHandler::Config::Mode::TX_RX;
  50:../../libdaisy/src/hid/midi.h ****         uart_config.wordlength = UartHandler::Config::WordLength::BITS_8;
  51:../../libdaisy/src/hid/midi.h **** 
  52:../../libdaisy/src/hid/midi.h ****         //user settings
  53:../../libdaisy/src/hid/midi.h ****         uart_config.periph        = config.periph;
  54:../../libdaisy/src/hid/midi.h ****         uart_config.pin_config.rx = config.rx;
  55:../../libdaisy/src/hid/midi.h ****         uart_config.pin_config.tx = config.tx;
  56:../../libdaisy/src/hid/midi.h **** 
  57:../../libdaisy/src/hid/midi.h ****         uart_.Init(uart_config);
  58:../../libdaisy/src/hid/midi.h ****     }
  59:../../libdaisy/src/hid/midi.h **** 
  60:../../libdaisy/src/hid/midi.h ****     inline void    StartRx() { uart_.StartRx(); }
  61:../../libdaisy/src/hid/midi.h ****     inline size_t  Readable() { return uart_.Readable(); }
  62:../../libdaisy/src/hid/midi.h ****     inline uint8_t Rx() { return uart_.PopRx(); }
  63:../../libdaisy/src/hid/midi.h ****     inline bool    RxActive() { return uart_.RxActive(); }
  64:../../libdaisy/src/hid/midi.h ****     inline void    FlushRx() { uart_.FlushRx(); }
  65:../../libdaisy/src/hid/midi.h ****     inline void    Tx(uint8_t* buff, size_t size) { uart_.PollTx(buff, size); }
  66:../../libdaisy/src/hid/midi.h **** 
  67:../../libdaisy/src/hid/midi.h ****   private:
  68:../../libdaisy/src/hid/midi.h ****     UartHandler uart_;
  69:../../libdaisy/src/hid/midi.h **** };
ARM GAS  /tmp/ccgIClPy.s 			page 8


  70:../../libdaisy/src/hid/midi.h **** 
  71:../../libdaisy/src/hid/midi.h **** /** 
  72:../../libdaisy/src/hid/midi.h ****     @brief Simple MIDI Handler \n 
  73:../../libdaisy/src/hid/midi.h ****     Parses bytes from an input into valid MidiEvents. \n 
  74:../../libdaisy/src/hid/midi.h ****     The MidiEvents fill a FIFO queue that the user can pop messages from.
  75:../../libdaisy/src/hid/midi.h ****     @author shensley
  76:../../libdaisy/src/hid/midi.h ****     @date March 2020
  77:../../libdaisy/src/hid/midi.h **** */
  78:../../libdaisy/src/hid/midi.h **** template <typename Transport>
  79:../../libdaisy/src/hid/midi.h **** class MidiHandler
  80:../../libdaisy/src/hid/midi.h **** {
  81:../../libdaisy/src/hid/midi.h ****   public:
  82:../../libdaisy/src/hid/midi.h ****     MidiHandler() {}
  83:../../libdaisy/src/hid/midi.h ****     ~MidiHandler() {}
  53              		.loc 4 83 5 is_stmt 1 view .LVU5
  54              	.LBB774:
  55              	.LBI774:
  25:../../libdaisy/src/hid/midi.h **** 
  56              		.loc 4 25 5 view .LVU6
  25:../../libdaisy/src/hid/midi.h **** 
  57              		.loc 4 25 5 is_stmt 0 view .LVU7
  58              	.LBE774:
  59              	.LBE773:
  60              	.LBB775:
  61              	.LBI775:
  62              		.file 5 "../../libdaisy/src/hid/encoder.h"
   1:../../libdaisy/src/hid/encoder.h **** #pragma once
   2:../../libdaisy/src/hid/encoder.h **** #ifndef DSY_ENCODER_H
   3:../../libdaisy/src/hid/encoder.h **** #define DSY_ENCODER_H
   4:../../libdaisy/src/hid/encoder.h **** #include "daisy_core.h"
   5:../../libdaisy/src/hid/encoder.h **** #include "per/gpio.h"
   6:../../libdaisy/src/hid/encoder.h **** #include "hid/switch.h"
   7:../../libdaisy/src/hid/encoder.h **** 
   8:../../libdaisy/src/hid/encoder.h **** namespace daisy
   9:../../libdaisy/src/hid/encoder.h **** {
  10:../../libdaisy/src/hid/encoder.h **** /** 
  11:../../libdaisy/src/hid/encoder.h ****     @brief Generic Class for handling Quadrature Encoders \n 
  12:../../libdaisy/src/hid/encoder.h ****     Inspired/influenced by Mutable Instruments (pichenettes) Encoder classes
  13:../../libdaisy/src/hid/encoder.h ****     @author Stephen Hensley
  14:../../libdaisy/src/hid/encoder.h ****     @date December 2019
  15:../../libdaisy/src/hid/encoder.h ****     @ingroup controls
  16:../../libdaisy/src/hid/encoder.h **** */
  17:../../libdaisy/src/hid/encoder.h **** class Encoder
  18:../../libdaisy/src/hid/encoder.h **** {
  19:../../libdaisy/src/hid/encoder.h ****   public:
  20:../../libdaisy/src/hid/encoder.h ****     Encoder() {}
  21:../../libdaisy/src/hid/encoder.h ****     ~Encoder() {}
  63              		.loc 5 21 5 is_stmt 1 view .LVU8
  64              	.LBB776:
  65              	.LBI776:
  66              		.file 6 "../../libdaisy/src/hid/switch.h"
   1:../../libdaisy/src/hid/switch.h **** #pragma once
   2:../../libdaisy/src/hid/switch.h **** #ifndef DSY_SWITCH_H
   3:../../libdaisy/src/hid/switch.h **** #define DSY_SWITCH_H
   4:../../libdaisy/src/hid/switch.h **** #include "daisy_core.h"
   5:../../libdaisy/src/hid/switch.h **** #include "per/gpio.h"
   6:../../libdaisy/src/hid/switch.h **** 
ARM GAS  /tmp/ccgIClPy.s 			page 9


   7:../../libdaisy/src/hid/switch.h **** namespace daisy
   8:../../libdaisy/src/hid/switch.h **** {
   9:../../libdaisy/src/hid/switch.h **** /** 
  10:../../libdaisy/src/hid/switch.h ****     Generic Class for handling momentary/latching switches \n 
  11:../../libdaisy/src/hid/switch.h ****     Inspired/influenced by Mutable Instruments (pichenettes) Switch classes
  12:../../libdaisy/src/hid/switch.h ****     @author Stephen Hensley
  13:../../libdaisy/src/hid/switch.h ****     @date December 2019
  14:../../libdaisy/src/hid/switch.h ****     @ingroup controls
  15:../../libdaisy/src/hid/switch.h **** */
  16:../../libdaisy/src/hid/switch.h **** class Switch
  17:../../libdaisy/src/hid/switch.h **** {
  18:../../libdaisy/src/hid/switch.h ****   public:
  19:../../libdaisy/src/hid/switch.h ****     /** Specifies the expected behavior of the switch */
  20:../../libdaisy/src/hid/switch.h ****     enum Type
  21:../../libdaisy/src/hid/switch.h ****     {
  22:../../libdaisy/src/hid/switch.h ****         TYPE_TOGGLE,    /**< & */
  23:../../libdaisy/src/hid/switch.h ****         TYPE_MOMENTARY, /**< & */
  24:../../libdaisy/src/hid/switch.h ****     };
  25:../../libdaisy/src/hid/switch.h ****     /** Specifies whether the pressed is HIGH or LOW. */
  26:../../libdaisy/src/hid/switch.h ****     enum Polarity
  27:../../libdaisy/src/hid/switch.h ****     {
  28:../../libdaisy/src/hid/switch.h ****         POLARITY_NORMAL,   /**< & */
  29:../../libdaisy/src/hid/switch.h ****         POLARITY_INVERTED, /**< & */
  30:../../libdaisy/src/hid/switch.h ****     };
  31:../../libdaisy/src/hid/switch.h **** 
  32:../../libdaisy/src/hid/switch.h ****     /** Specifies whether to use built-in Pull Up/Down resistors to hold button at a given state wh
  33:../../libdaisy/src/hid/switch.h ****     enum Pull
  34:../../libdaisy/src/hid/switch.h ****     {
  35:../../libdaisy/src/hid/switch.h ****         PULL_UP,   /**< & */
  36:../../libdaisy/src/hid/switch.h ****         PULL_DOWN, /**< & */
  37:../../libdaisy/src/hid/switch.h ****         PULL_NONE, /**< & */
  38:../../libdaisy/src/hid/switch.h ****     };
  39:../../libdaisy/src/hid/switch.h **** 
  40:../../libdaisy/src/hid/switch.h ****     Switch() {}
  41:../../libdaisy/src/hid/switch.h ****     ~Switch() {}
  67              		.loc 6 41 5 view .LVU9
  68              		.loc 6 41 5 is_stmt 0 view .LVU10
  69              	.LBE776:
  70              	.LBE775:
  71              	.LBB777:
  72              	.LBI777:
  73              		.file 7 "../../libdaisy/src/daisy_seed.h"
   1:../../libdaisy/src/daisy_seed.h **** #pragma once
   2:../../libdaisy/src/daisy_seed.h **** #ifndef DSY_SEED_H
   3:../../libdaisy/src/daisy_seed.h **** #define DSY_SEED_H
   4:../../libdaisy/src/daisy_seed.h **** 
   5:../../libdaisy/src/daisy_seed.h **** #include "daisy.h"
   6:../../libdaisy/src/daisy_seed.h **** 
   7:../../libdaisy/src/daisy_seed.h **** //Uncomment this out if you're still using the rev2 hardware
   8:../../libdaisy/src/daisy_seed.h **** //#define SEED_REV2
   9:../../libdaisy/src/daisy_seed.h **** 
  10:../../libdaisy/src/daisy_seed.h **** namespace daisy
  11:../../libdaisy/src/daisy_seed.h **** {
  12:../../libdaisy/src/daisy_seed.h **** /**
  13:../../libdaisy/src/daisy_seed.h ****    @brief This is the higher-level interface for the Daisy board. \n 
  14:../../libdaisy/src/daisy_seed.h ****     All basic peripheral configuration/initialization is setup here. \n
  15:../../libdaisy/src/daisy_seed.h **** 
ARM GAS  /tmp/ccgIClPy.s 			page 10


  16:../../libdaisy/src/daisy_seed.h ****    @ingroup boards
  17:../../libdaisy/src/daisy_seed.h **** */
  18:../../libdaisy/src/daisy_seed.h **** class DaisySeed
  19:../../libdaisy/src/daisy_seed.h **** {
  20:../../libdaisy/src/daisy_seed.h ****   public:
  21:../../libdaisy/src/daisy_seed.h ****     DaisySeed() {}
  22:../../libdaisy/src/daisy_seed.h ****     ~DaisySeed() {}
  74              		.loc 7 22 5 is_stmt 1 view .LVU11
  75              	.LBB778:
  76              	.LBI778:
  77              		.file 8 "../../libdaisy/src/sys/system.h"
   1:../../libdaisy/src/sys/system.h **** #ifndef DSY_SYSTEM_H
   2:../../libdaisy/src/sys/system.h **** #define DSY_SYSTEM_H
   3:../../libdaisy/src/sys/system.h **** 
   4:../../libdaisy/src/sys/system.h **** #ifndef UNIT_TEST // for unit tests, a dummy implementation is provided below
   5:../../libdaisy/src/sys/system.h **** 
   6:../../libdaisy/src/sys/system.h **** #include <cstdint>
   7:../../libdaisy/src/sys/system.h **** #include "per/tim.h"
   8:../../libdaisy/src/sys/system.h **** 
   9:../../libdaisy/src/sys/system.h **** namespace daisy
  10:../../libdaisy/src/sys/system.h **** {
  11:../../libdaisy/src/sys/system.h **** /** A handle for interacting with the Core System. 
  12:../../libdaisy/src/sys/system.h ****  ** This includes the Clock tree, MPU, global DMA initialization,
  13:../../libdaisy/src/sys/system.h ****  ** cache handling, and any other necessary global initiailzation
  14:../../libdaisy/src/sys/system.h ****  **
  15:../../libdaisy/src/sys/system.h ****  ** @author shensley
  16:../../libdaisy/src/sys/system.h ****  ** @addtogroup system
  17:../../libdaisy/src/sys/system.h ****  */
  18:../../libdaisy/src/sys/system.h **** class System
  19:../../libdaisy/src/sys/system.h **** {
  20:../../libdaisy/src/sys/system.h ****   public:
  21:../../libdaisy/src/sys/system.h ****     /** Contains settings for initializing the System */
  22:../../libdaisy/src/sys/system.h ****     struct Config
  23:../../libdaisy/src/sys/system.h ****     {
  24:../../libdaisy/src/sys/system.h ****         /** Specifies the system clock frequency that feeds APB/AHB clocks, etc. */
  25:../../libdaisy/src/sys/system.h ****         enum class SysClkFreq
  26:../../libdaisy/src/sys/system.h ****         {
  27:../../libdaisy/src/sys/system.h ****             FREQ_400MHZ,
  28:../../libdaisy/src/sys/system.h ****             FREQ_480MHZ,
  29:../../libdaisy/src/sys/system.h ****         };
  30:../../libdaisy/src/sys/system.h **** 
  31:../../libdaisy/src/sys/system.h ****         /** Method to call on the struct to set to defaults
  32:../../libdaisy/src/sys/system.h ****          ** CPU Freq set to 400MHz
  33:../../libdaisy/src/sys/system.h ****          ** Cache Enabled 
  34:../../libdaisy/src/sys/system.h ****          ** */
  35:../../libdaisy/src/sys/system.h ****         void Defaults()
  36:../../libdaisy/src/sys/system.h ****         {
  37:../../libdaisy/src/sys/system.h ****             cpu_freq   = SysClkFreq::FREQ_400MHZ;
  38:../../libdaisy/src/sys/system.h ****             use_dcache = true;
  39:../../libdaisy/src/sys/system.h ****             use_icache = true;
  40:../../libdaisy/src/sys/system.h ****         }
  41:../../libdaisy/src/sys/system.h **** 
  42:../../libdaisy/src/sys/system.h ****         /** Method to call on the struct to set to boost mode:
  43:../../libdaisy/src/sys/system.h ****          ** CPU Freq set to 480MHz
  44:../../libdaisy/src/sys/system.h ****          ** Cache Enabled 
  45:../../libdaisy/src/sys/system.h ****          ** */
  46:../../libdaisy/src/sys/system.h ****         void Boost()
ARM GAS  /tmp/ccgIClPy.s 			page 11


  47:../../libdaisy/src/sys/system.h ****         {
  48:../../libdaisy/src/sys/system.h ****             cpu_freq   = SysClkFreq::FREQ_480MHZ;
  49:../../libdaisy/src/sys/system.h ****             use_dcache = true;
  50:../../libdaisy/src/sys/system.h ****             use_icache = true;
  51:../../libdaisy/src/sys/system.h ****         }
  52:../../libdaisy/src/sys/system.h **** 
  53:../../libdaisy/src/sys/system.h ****         SysClkFreq cpu_freq;
  54:../../libdaisy/src/sys/system.h ****         bool       use_dcache;
  55:../../libdaisy/src/sys/system.h ****         bool       use_icache;
  56:../../libdaisy/src/sys/system.h ****     };
  57:../../libdaisy/src/sys/system.h **** 
  58:../../libdaisy/src/sys/system.h ****     System() {}
  59:../../libdaisy/src/sys/system.h ****     ~System() {}
  78              		.loc 8 59 5 view .LVU12
  79              		.loc 8 59 5 is_stmt 0 view .LVU13
  80              	.LBE778:
  81              	.LBB779:
  82              	.LBI779:
  83              		.file 9 "../../libdaisy/src/hid/usb.h"
   1:../../libdaisy/src/hid/usb.h **** #pragma once
   2:../../libdaisy/src/hid/usb.h **** #ifndef DSY_HID_USB_H
   3:../../libdaisy/src/hid/usb.h **** #define DSY_HID_USB_H
   4:../../libdaisy/src/hid/usb.h **** #include <stdint.h>
   5:../../libdaisy/src/hid/usb.h **** #include <stdlib.h>
   6:../../libdaisy/src/hid/usb.h **** 
   7:../../libdaisy/src/hid/usb.h **** namespace daisy
   8:../../libdaisy/src/hid/usb.h **** /** @addtogroup externals
   9:../../libdaisy/src/hid/usb.h ****     @{
  10:../../libdaisy/src/hid/usb.h **** */
  11:../../libdaisy/src/hid/usb.h **** 
  12:../../libdaisy/src/hid/usb.h **** {
  13:../../libdaisy/src/hid/usb.h **** /** 
  14:../../libdaisy/src/hid/usb.h ****     @brief Interface for initializing and using the USB Peripherals on the daisy
  15:../../libdaisy/src/hid/usb.h ****     @author Stephen Hensley
  16:../../libdaisy/src/hid/usb.h ****     @date December 2019
  17:../../libdaisy/src/hid/usb.h **** */
  18:../../libdaisy/src/hid/usb.h **** class UsbHandle
  19:../../libdaisy/src/hid/usb.h **** {
  20:../../libdaisy/src/hid/usb.h ****   public:
  21:../../libdaisy/src/hid/usb.h ****     /** Return values for USBHandle Functions */
  22:../../libdaisy/src/hid/usb.h ****     enum class Result
  23:../../libdaisy/src/hid/usb.h ****     {
  24:../../libdaisy/src/hid/usb.h ****         OK,
  25:../../libdaisy/src/hid/usb.h ****         ERR,
  26:../../libdaisy/src/hid/usb.h ****     };
  27:../../libdaisy/src/hid/usb.h **** 
  28:../../libdaisy/src/hid/usb.h ****     /** Specified which of the two USB Peripherals to initialize. */
  29:../../libdaisy/src/hid/usb.h ****     enum UsbPeriph
  30:../../libdaisy/src/hid/usb.h ****     {
  31:../../libdaisy/src/hid/usb.h ****         FS_INTERNAL, /**< Internal pin */
  32:../../libdaisy/src/hid/usb.h ****         FS_EXTERNAL, /**< FS External D+ pin is Pin 38 (GPIO32). FS External D- pin is Pin 37 (GPIO
  33:../../libdaisy/src/hid/usb.h ****         FS_BOTH,     /**< Both */
  34:../../libdaisy/src/hid/usb.h ****     };
  35:../../libdaisy/src/hid/usb.h **** 
  36:../../libdaisy/src/hid/usb.h **** 
  37:../../libdaisy/src/hid/usb.h ****     /** Function called upon reception of a buffer */
  38:../../libdaisy/src/hid/usb.h ****     typedef void (*ReceiveCallback)(uint8_t* buff, uint32_t* len);
ARM GAS  /tmp/ccgIClPy.s 			page 12


  39:../../libdaisy/src/hid/usb.h **** 
  40:../../libdaisy/src/hid/usb.h ****     UsbHandle() {}
  41:../../libdaisy/src/hid/usb.h **** 
  42:../../libdaisy/src/hid/usb.h ****     ~UsbHandle() {}
  84              		.loc 9 42 5 is_stmt 1 view .LVU14
  85              		.loc 9 42 5 is_stmt 0 view .LVU15
  86              	.LBE779:
  87              	.LBB780:
  88              	.LBI780:
  89              		.file 10 "../../libdaisy/src/per/adc.h"
   1:../../libdaisy/src/per/adc.h **** #pragma once
   2:../../libdaisy/src/per/adc.h **** #ifndef DSY_ADC_H
   3:../../libdaisy/src/per/adc.h **** #define DSY_ADC_H /**< Macro */
   4:../../libdaisy/src/per/adc.h **** #include <stdint.h>
   5:../../libdaisy/src/per/adc.h **** #include <stdlib.h>
   6:../../libdaisy/src/per/adc.h **** #include "daisy_core.h"
   7:../../libdaisy/src/per/adc.h **** #include "per/gpio.h"
   8:../../libdaisy/src/per/adc.h **** 
   9:../../libdaisy/src/per/adc.h **** #define DSY_ADC_MAX_CHANNELS 14 /**< Maximum number of ADC channels */
  10:../../libdaisy/src/per/adc.h **** 
  11:../../libdaisy/src/per/adc.h **** namespace daisy
  12:../../libdaisy/src/per/adc.h **** {
  13:../../libdaisy/src/per/adc.h **** /** @addtogroup analog_digital_conversion
  14:../../libdaisy/src/per/adc.h ****     @{
  15:../../libdaisy/src/per/adc.h **** */
  16:../../libdaisy/src/per/adc.h **** 
  17:../../libdaisy/src/per/adc.h **** /* While there may not be many configuration options here,
  18:../../libdaisy/src/per/adc.h **** using a struct like this allows us to add more configuration
  19:../../libdaisy/src/per/adc.h **** later without breaking existing functionality.
  20:../../libdaisy/src/per/adc.h **** */
  21:../../libdaisy/src/per/adc.h **** 
  22:../../libdaisy/src/per/adc.h **** /** Configuration Structure for a given channel */
  23:../../libdaisy/src/per/adc.h **** struct AdcChannelConfig
  24:../../libdaisy/src/per/adc.h **** {
  25:../../libdaisy/src/per/adc.h ****     /** Which pin to use for multiplexing */
  26:../../libdaisy/src/per/adc.h ****     enum MuxPin
  27:../../libdaisy/src/per/adc.h ****     {
  28:../../libdaisy/src/per/adc.h ****         MUX_SEL_0,    /**< & */
  29:../../libdaisy/src/per/adc.h ****         MUX_SEL_1,    /**< & */
  30:../../libdaisy/src/per/adc.h ****         MUX_SEL_2,    /**< & */
  31:../../libdaisy/src/per/adc.h ****         MUX_SEL_LAST, /**< & */
  32:../../libdaisy/src/per/adc.h ****     };
  33:../../libdaisy/src/per/adc.h **** 
  34:../../libdaisy/src/per/adc.h ****     /** Initializes a single ADC pin as an ADC. 
  35:../../libdaisy/src/per/adc.h ****     \param pin Pin to init.
  36:../../libdaisy/src/per/adc.h ****      */
  37:../../libdaisy/src/per/adc.h ****     void InitSingle(dsy_gpio_pin pin);
  38:../../libdaisy/src/per/adc.h **** 
  39:../../libdaisy/src/per/adc.h ****     /** 
  40:../../libdaisy/src/per/adc.h ****     Initializes a single ADC pin as a Multiplexed ADC.
  41:../../libdaisy/src/per/adc.h ****     Requires a CD405X Multiplexer connected to the pin.
  42:../../libdaisy/src/per/adc.h ****     You only need to supply the mux pins that are required,
  43:../../libdaisy/src/per/adc.h ****     e.g. a 4052 mux would only require mux_0 and mux_1.
  44:../../libdaisy/src/per/adc.h ****     Internal Callbacks handle the pin addressing.
  45:../../libdaisy/src/per/adc.h ****     \param mux_channels must be 1-8
  46:../../libdaisy/src/per/adc.h ****     \param mux_0 First mux pin
  47:../../libdaisy/src/per/adc.h ****     \param mux_1 Second mux pin
ARM GAS  /tmp/ccgIClPy.s 			page 13


  48:../../libdaisy/src/per/adc.h ****     \param mux_2 Third mux pin
  49:../../libdaisy/src/per/adc.h ****     \param adc_pin &
  50:../../libdaisy/src/per/adc.h ****     */
  51:../../libdaisy/src/per/adc.h ****     void InitMux(dsy_gpio_pin adc_pin,
  52:../../libdaisy/src/per/adc.h ****                  size_t       mux_channels,
  53:../../libdaisy/src/per/adc.h ****                  dsy_gpio_pin mux_0,
  54:../../libdaisy/src/per/adc.h ****                  dsy_gpio_pin mux_1 = {DSY_GPIOX, 0},
  55:../../libdaisy/src/per/adc.h ****                  dsy_gpio_pin mux_2 = {DSY_GPIOX, 0});
  56:../../libdaisy/src/per/adc.h **** 
  57:../../libdaisy/src/per/adc.h ****     dsy_gpio pin_;                   /**< & */
  58:../../libdaisy/src/per/adc.h ****     dsy_gpio mux_pin_[MUX_SEL_LAST]; /**< & */
  59:../../libdaisy/src/per/adc.h ****     uint8_t  mux_channels_;          /**< & */
  60:../../libdaisy/src/per/adc.h **** };
  61:../../libdaisy/src/per/adc.h **** 
  62:../../libdaisy/src/per/adc.h **** /**
  63:../../libdaisy/src/per/adc.h ****    Handler for analog to digital conversion
  64:../../libdaisy/src/per/adc.h **** */
  65:../../libdaisy/src/per/adc.h **** class AdcHandle
  66:../../libdaisy/src/per/adc.h **** {
  67:../../libdaisy/src/per/adc.h ****   public:
  68:../../libdaisy/src/per/adc.h ****     /** Supported oversampling amounts */
  69:../../libdaisy/src/per/adc.h ****     enum OverSampling
  70:../../libdaisy/src/per/adc.h ****     {
  71:../../libdaisy/src/per/adc.h ****         OVS_NONE, /**< & */
  72:../../libdaisy/src/per/adc.h ****         OVS_4,    /**< & */
  73:../../libdaisy/src/per/adc.h ****         OVS_8,    /**< & */
  74:../../libdaisy/src/per/adc.h ****         OVS_16,   /**< & */
  75:../../libdaisy/src/per/adc.h ****         OVS_32,   /**< & */
  76:../../libdaisy/src/per/adc.h ****         OVS_64,   /**< & */
  77:../../libdaisy/src/per/adc.h ****         OVS_128,  /**< & */
  78:../../libdaisy/src/per/adc.h ****         OVS_256,  /**< & */
  79:../../libdaisy/src/per/adc.h ****         OVS_512,  /**< & */
  80:../../libdaisy/src/per/adc.h ****         OVS_1024, /**< & */
  81:../../libdaisy/src/per/adc.h ****         OVS_LAST, /**< & */
  82:../../libdaisy/src/per/adc.h ****     };
  83:../../libdaisy/src/per/adc.h **** 
  84:../../libdaisy/src/per/adc.h ****     AdcHandle() {}
  85:../../libdaisy/src/per/adc.h ****     ~AdcHandle() {}
  90              		.loc 10 85 5 is_stmt 1 view .LVU16
  91              		.loc 10 85 5 is_stmt 0 view .LVU17
  92              	.LBE780:
  93              	.LBB781:
  94              	.LBI781:
  95              		.file 11 "../../libdaisy/src/hid/audio.h"
   1:../../libdaisy/src/hid/audio.h **** #ifndef DSY_AUDIO_H
   2:../../libdaisy/src/hid/audio.h **** #define DSY_AUDIO_H /**< & */
   3:../../libdaisy/src/hid/audio.h **** 
   4:../../libdaisy/src/hid/audio.h **** #include "per/sai.h"
   5:../../libdaisy/src/hid/audio.h **** 
   6:../../libdaisy/src/hid/audio.h **** namespace daisy
   7:../../libdaisy/src/hid/audio.h **** {
   8:../../libdaisy/src/hid/audio.h **** class AudioHandle
   9:../../libdaisy/src/hid/audio.h **** {
  10:../../libdaisy/src/hid/audio.h ****   public:
  11:../../libdaisy/src/hid/audio.h ****     /** Manually configurable details about the Audio Engine */
  12:../../libdaisy/src/hid/audio.h ****     /** TODO: Figure out how to get samplerate in here. */
  13:../../libdaisy/src/hid/audio.h ****     struct Config
ARM GAS  /tmp/ccgIClPy.s 			page 14


  14:../../libdaisy/src/hid/audio.h ****     {
  15:../../libdaisy/src/hid/audio.h ****         size_t                        blocksize;
  16:../../libdaisy/src/hid/audio.h ****         SaiHandle::Config::SampleRate samplerate;
  17:../../libdaisy/src/hid/audio.h ****         float                         postgain;
  18:../../libdaisy/src/hid/audio.h ****     };
  19:../../libdaisy/src/hid/audio.h **** 
  20:../../libdaisy/src/hid/audio.h ****     enum class Result
  21:../../libdaisy/src/hid/audio.h ****     {
  22:../../libdaisy/src/hid/audio.h ****         OK,
  23:../../libdaisy/src/hid/audio.h ****         ERR,
  24:../../libdaisy/src/hid/audio.h ****     };
  25:../../libdaisy/src/hid/audio.h **** 
  26:../../libdaisy/src/hid/audio.h ****     /** Non-Interleaving input buffer
  27:../../libdaisy/src/hid/audio.h ****      * Buffer arranged by float[chn][sample] 
  28:../../libdaisy/src/hid/audio.h ****      * const so that the user can't modify the input
  29:../../libdaisy/src/hid/audio.h ****     */
  30:../../libdaisy/src/hid/audio.h ****     typedef const float* const* InputBuffer;
  31:../../libdaisy/src/hid/audio.h **** 
  32:../../libdaisy/src/hid/audio.h ****     /** Non-Interleaving output buffer
  33:../../libdaisy/src/hid/audio.h ****      * Arranged by float[chn][sample] 
  34:../../libdaisy/src/hid/audio.h ****     */
  35:../../libdaisy/src/hid/audio.h ****     typedef float** OutputBuffer;
  36:../../libdaisy/src/hid/audio.h **** 
  37:../../libdaisy/src/hid/audio.h ****     /** Type for a Non-Interleaving audio callback 
  38:../../libdaisy/src/hid/audio.h ****    * Non-Interleaving audio callbacks in daisy will be of this type
  39:../../libdaisy/src/hid/audio.h ****   */
  40:../../libdaisy/src/hid/audio.h ****     typedef void (*AudioCallback)(InputBuffer  in,
  41:../../libdaisy/src/hid/audio.h ****                                   OutputBuffer out,
  42:../../libdaisy/src/hid/audio.h ****                                   size_t       size);
  43:../../libdaisy/src/hid/audio.h **** 
  44:../../libdaisy/src/hid/audio.h ****     /** Interleaving Input buffer
  45:../../libdaisy/src/hid/audio.h ****      ** audio is prepared as { L0, R0, L1, R1, . . . LN, RN }]
  46:../../libdaisy/src/hid/audio.h ****      ** this is const, as the user shouldn't modify it
  47:../../libdaisy/src/hid/audio.h ****     */
  48:../../libdaisy/src/hid/audio.h ****     typedef const float* InterleavingInputBuffer;
  49:../../libdaisy/src/hid/audio.h **** 
  50:../../libdaisy/src/hid/audio.h ****     /** Interleaving Output buffer 
  51:../../libdaisy/src/hid/audio.h ****      ** audio is prepared as { L0, R0, L1, R1, . . . LN, RN }
  52:../../libdaisy/src/hid/audio.h ****     */
  53:../../libdaisy/src/hid/audio.h ****     typedef float* InterleavingOutputBuffer;
  54:../../libdaisy/src/hid/audio.h **** 
  55:../../libdaisy/src/hid/audio.h ****     /** Interleaving Audio Callback 
  56:../../libdaisy/src/hid/audio.h ****    * Interleaving audio callbacks in daisy must be of this type
  57:../../libdaisy/src/hid/audio.h ****   */
  58:../../libdaisy/src/hid/audio.h ****     typedef void (*InterleavingAudioCallback)(InterleavingInputBuffer  in,
  59:../../libdaisy/src/hid/audio.h ****                                               InterleavingOutputBuffer out,
  60:../../libdaisy/src/hid/audio.h ****                                               size_t                   size);
  61:../../libdaisy/src/hid/audio.h **** 
  62:../../libdaisy/src/hid/audio.h ****     AudioHandle() : pimpl_(nullptr) {}
  63:../../libdaisy/src/hid/audio.h ****     ~AudioHandle() {}
  96              		.loc 11 63 5 is_stmt 1 view .LVU18
  97              		.loc 11 63 5 is_stmt 0 view .LVU19
  98              	.LBE781:
  99              	.LBE777:
 100              		.loc 1 41 20 view .LVU20
 101 0000 7047     		bx	lr
 102              		.cfi_endproc
ARM GAS  /tmp/ccgIClPy.s 			page 15


 103              	.LFE4230:
 105              		.weak	_ZN5daisy10DaisyPatchD1Ev
 106              		.thumb_set _ZN5daisy10DaisyPatchD1Ev,_ZN5daisy10DaisyPatchD2Ev
 107 0002 00BF     		.section	.text._ZN5daisy11OledDisplayINS_13SSD130xDriverILj128ELj64ENS_24SSD130x4WireSpiTransportE
 108              		.align	1
 109              		.p2align 2,,3
 110              		.weak	_ZN5daisy11OledDisplayINS_13SSD130xDriverILj128ELj64ENS_24SSD130x4WireSpiTransportEEEED2Ev
 111              		.syntax unified
 112              		.thumb
 113              		.thumb_func
 114              		.fpu fpv5-d16
 116              	_ZN5daisy11OledDisplayINS_13SSD130xDriverILj128ELj64ENS_24SSD130x4WireSpiTransportEEEED2Ev:
 117              	.LVL1:
 118              	.LFB4553:
 119              		.loc 2 17 13 is_stmt 1 view -0
 120              		.cfi_startproc
 121              		@ args = 0, pretend = 0, frame = 0
 122              		@ frame_needed = 0, uses_anonymous_args = 0
 123              		@ link register save eliminated.
 124              	.LBB782:
 125              	.LBI782:
 126              		.loc 3 219 13 view .LVU22
 127              	.LBB783:
 128              	.LBI783:
  23:../../libdaisy/src/hid/disp/display.h **** 
 129              		.loc 3 23 13 view .LVU23
  23:../../libdaisy/src/hid/disp/display.h **** 
 130              		.loc 3 23 13 is_stmt 0 view .LVU24
 131              	.LBE783:
 132              	.LBE782:
 133              		.loc 2 17 29 view .LVU25
 134 0000 7047     		bx	lr
 135              		.cfi_endproc
 136              	.LFE4553:
 138              		.weak	_ZN5daisy11OledDisplayINS_13SSD130xDriverILj128ELj64ENS_24SSD130x4WireSpiTransportEEEED1Ev
 139              		.thumb_set _ZN5daisy11OledDisplayINS_13SSD130xDriverILj128ELj64ENS_24SSD130x4WireSpiTransportEEEED
 140 0002 00BF     		.section	.text._ZN5daisy11OledDisplayINS_13SSD130xDriverILj128ELj64ENS_24SSD130x4WireSpiTransportE
 141              		.align	1
 142              		.p2align 2,,3
 143              		.weak	_ZN5daisy11OledDisplayINS_13SSD130xDriverILj128ELj64ENS_24SSD130x4WireSpiTransportEEEE4FillE
 144              		.syntax unified
 145              		.thumb
 146              		.thumb_func
 147              		.fpu fpv5-d16
 149              	_ZN5daisy11OledDisplayINS_13SSD130xDriverILj128ELj64ENS_24SSD130x4WireSpiTransportEEEE4FillEb:
 150              	.LVL2:
 151              	.LFB4560:
  18:../../libdaisy/src/hid/disp/oled_display.h **** 
  19:../../libdaisy/src/hid/disp/oled_display.h ****     struct Config
  20:../../libdaisy/src/hid/disp/oled_display.h ****     {
  21:../../libdaisy/src/hid/disp/oled_display.h ****         typename DisplayDriver::Config driver_config;
  22:../../libdaisy/src/hid/disp/oled_display.h ****     };
  23:../../libdaisy/src/hid/disp/oled_display.h **** 
  24:../../libdaisy/src/hid/disp/oled_display.h ****     void Init(Config config) { driver_.Init(config.driver_config); }
  25:../../libdaisy/src/hid/disp/oled_display.h **** 
  26:../../libdaisy/src/hid/disp/oled_display.h ****     uint16_t Height() const override { return driver_.Height(); }
  27:../../libdaisy/src/hid/disp/oled_display.h ****     uint16_t Width() const override { return driver_.Width(); }
ARM GAS  /tmp/ccgIClPy.s 			page 16


  28:../../libdaisy/src/hid/disp/oled_display.h **** 
  29:../../libdaisy/src/hid/disp/oled_display.h ****     /** 
  30:../../libdaisy/src/hid/disp/oled_display.h ****     Fills the entire display with either on/off.
  31:../../libdaisy/src/hid/disp/oled_display.h ****     \param on Sets on or off.
  32:../../libdaisy/src/hid/disp/oled_display.h ****     */
  33:../../libdaisy/src/hid/disp/oled_display.h ****     void Fill(bool on) override { driver_.Fill(on); }
 152              		.loc 2 33 10 is_stmt 1 view -0
 153              		.cfi_startproc
 154              		@ args = 0, pretend = 0, frame = 0
 155              		@ frame_needed = 0, uses_anonymous_args = 0
 156              		@ link register save eliminated.
 157              	.LBB784:
 158              	.LBI784:
 159              		.file 12 "../../libdaisy/src/dev/oled_ssd130x.h"
   1:../../libdaisy/src/dev/oled_ssd130x.h **** #pragma once
   2:../../libdaisy/src/dev/oled_ssd130x.h **** #ifndef SA_OLED_SSD130X_H
   3:../../libdaisy/src/dev/oled_ssd130x.h **** #define SA_OLED_SSD130X_H /**< & */
   4:../../libdaisy/src/dev/oled_ssd130x.h **** 
   5:../../libdaisy/src/dev/oled_ssd130x.h **** #include "per/i2c.h"
   6:../../libdaisy/src/dev/oled_ssd130x.h **** #include "per/spi.h"
   7:../../libdaisy/src/dev/oled_ssd130x.h **** #include "per/gpio.h"
   8:../../libdaisy/src/dev/oled_ssd130x.h **** #include "sys/system.h"
   9:../../libdaisy/src/dev/oled_ssd130x.h **** 
  10:../../libdaisy/src/dev/oled_ssd130x.h **** namespace daisy
  11:../../libdaisy/src/dev/oled_ssd130x.h **** {
  12:../../libdaisy/src/dev/oled_ssd130x.h **** /**
  13:../../libdaisy/src/dev/oled_ssd130x.h ****  * I2C Transport for SSD1306 / SSD1309 OLED display devices
  14:../../libdaisy/src/dev/oled_ssd130x.h ****  */
  15:../../libdaisy/src/dev/oled_ssd130x.h **** class SSD130xI2CTransport
  16:../../libdaisy/src/dev/oled_ssd130x.h **** {
  17:../../libdaisy/src/dev/oled_ssd130x.h ****   public:
  18:../../libdaisy/src/dev/oled_ssd130x.h ****     struct Config
  19:../../libdaisy/src/dev/oled_ssd130x.h ****     {
  20:../../libdaisy/src/dev/oled_ssd130x.h ****         I2CHandle::Config i2c_config;
  21:../../libdaisy/src/dev/oled_ssd130x.h ****         uint8_t           i2c_address;
  22:../../libdaisy/src/dev/oled_ssd130x.h ****         void              Defaults()
  23:../../libdaisy/src/dev/oled_ssd130x.h ****         {
  24:../../libdaisy/src/dev/oled_ssd130x.h ****             i2c_config.periph         = I2CHandle::Config::Peripheral::I2C_1;
  25:../../libdaisy/src/dev/oled_ssd130x.h ****             i2c_config.speed          = I2CHandle::Config::Speed::I2C_1MHZ;
  26:../../libdaisy/src/dev/oled_ssd130x.h ****             i2c_config.mode           = I2CHandle::Config::Mode::I2C_MASTER;
  27:../../libdaisy/src/dev/oled_ssd130x.h ****             i2c_config.pin_config.scl = {DSY_GPIOB, 8};
  28:../../libdaisy/src/dev/oled_ssd130x.h ****             i2c_config.pin_config.sda = {DSY_GPIOB, 9};
  29:../../libdaisy/src/dev/oled_ssd130x.h ****             i2c_address               = 0x3C;
  30:../../libdaisy/src/dev/oled_ssd130x.h ****         }
  31:../../libdaisy/src/dev/oled_ssd130x.h ****     };
  32:../../libdaisy/src/dev/oled_ssd130x.h ****     void Init(const Config& config)
  33:../../libdaisy/src/dev/oled_ssd130x.h ****     {
  34:../../libdaisy/src/dev/oled_ssd130x.h ****         i2c_address_ = config.i2c_address;
  35:../../libdaisy/src/dev/oled_ssd130x.h ****         i2c_.Init(config.i2c_config);
  36:../../libdaisy/src/dev/oled_ssd130x.h ****     };
  37:../../libdaisy/src/dev/oled_ssd130x.h ****     void SendCommand(uint8_t cmd)
  38:../../libdaisy/src/dev/oled_ssd130x.h ****     {
  39:../../libdaisy/src/dev/oled_ssd130x.h ****         uint8_t buf[2] = {0X00, cmd};
  40:../../libdaisy/src/dev/oled_ssd130x.h ****         i2c_.TransmitBlocking(i2c_address_, buf, 2, 1000);
  41:../../libdaisy/src/dev/oled_ssd130x.h ****     };
  42:../../libdaisy/src/dev/oled_ssd130x.h **** 
  43:../../libdaisy/src/dev/oled_ssd130x.h ****     void SendData(uint8_t* buff, size_t size)
ARM GAS  /tmp/ccgIClPy.s 			page 17


  44:../../libdaisy/src/dev/oled_ssd130x.h ****     {
  45:../../libdaisy/src/dev/oled_ssd130x.h ****         for(size_t i = 0; i < size; i++)
  46:../../libdaisy/src/dev/oled_ssd130x.h ****         {
  47:../../libdaisy/src/dev/oled_ssd130x.h ****             uint8_t buf[2] = {0X40, buff[i]};
  48:../../libdaisy/src/dev/oled_ssd130x.h ****             i2c_.TransmitBlocking(i2c_address_, buf, 2, 1000);
  49:../../libdaisy/src/dev/oled_ssd130x.h ****         }
  50:../../libdaisy/src/dev/oled_ssd130x.h ****     };
  51:../../libdaisy/src/dev/oled_ssd130x.h **** 
  52:../../libdaisy/src/dev/oled_ssd130x.h ****   private:
  53:../../libdaisy/src/dev/oled_ssd130x.h ****     daisy::I2CHandle i2c_;
  54:../../libdaisy/src/dev/oled_ssd130x.h ****     uint8_t          i2c_address_;
  55:../../libdaisy/src/dev/oled_ssd130x.h **** };
  56:../../libdaisy/src/dev/oled_ssd130x.h **** 
  57:../../libdaisy/src/dev/oled_ssd130x.h **** /**
  58:../../libdaisy/src/dev/oled_ssd130x.h ****  * 4 Wire SPI Transport for SSD1306 / SSD1309 OLED display devices
  59:../../libdaisy/src/dev/oled_ssd130x.h ****  */
  60:../../libdaisy/src/dev/oled_ssd130x.h **** class SSD130x4WireSpiTransport
  61:../../libdaisy/src/dev/oled_ssd130x.h **** {
  62:../../libdaisy/src/dev/oled_ssd130x.h ****   public:
  63:../../libdaisy/src/dev/oled_ssd130x.h ****     struct Config
  64:../../libdaisy/src/dev/oled_ssd130x.h ****     {
  65:../../libdaisy/src/dev/oled_ssd130x.h ****         struct
  66:../../libdaisy/src/dev/oled_ssd130x.h ****         {
  67:../../libdaisy/src/dev/oled_ssd130x.h ****             dsy_gpio_pin dc;    /**< & */
  68:../../libdaisy/src/dev/oled_ssd130x.h ****             dsy_gpio_pin reset; /**< & */
  69:../../libdaisy/src/dev/oled_ssd130x.h ****         } pin_config;
  70:../../libdaisy/src/dev/oled_ssd130x.h ****         void Defaults()
  71:../../libdaisy/src/dev/oled_ssd130x.h ****         {
  72:../../libdaisy/src/dev/oled_ssd130x.h ****             pin_config.dc    = {DSY_GPIOB, 4};
  73:../../libdaisy/src/dev/oled_ssd130x.h ****             pin_config.reset = {DSY_GPIOB, 15};
  74:../../libdaisy/src/dev/oled_ssd130x.h ****         }
  75:../../libdaisy/src/dev/oled_ssd130x.h ****     };
  76:../../libdaisy/src/dev/oled_ssd130x.h ****     void Init(const Config& config)
  77:../../libdaisy/src/dev/oled_ssd130x.h ****     {
  78:../../libdaisy/src/dev/oled_ssd130x.h ****         // Initialize both GPIO
  79:../../libdaisy/src/dev/oled_ssd130x.h ****         pin_dc_.mode = DSY_GPIO_MODE_OUTPUT_PP;
  80:../../libdaisy/src/dev/oled_ssd130x.h ****         pin_dc_.pin  = config.pin_config.dc;
  81:../../libdaisy/src/dev/oled_ssd130x.h ****         dsy_gpio_init(&pin_dc_);
  82:../../libdaisy/src/dev/oled_ssd130x.h ****         pin_reset_.mode = DSY_GPIO_MODE_OUTPUT_PP;
  83:../../libdaisy/src/dev/oled_ssd130x.h ****         pin_reset_.pin  = config.pin_config.reset;
  84:../../libdaisy/src/dev/oled_ssd130x.h ****         dsy_gpio_init(&pin_reset_);
  85:../../libdaisy/src/dev/oled_ssd130x.h ****         // Initialize SPI
  86:../../libdaisy/src/dev/oled_ssd130x.h ****         SpiHandle::Config spi_config;
  87:../../libdaisy/src/dev/oled_ssd130x.h ****         spi_config.periph    = SpiHandle::Config::Peripheral::SPI_1;
  88:../../libdaisy/src/dev/oled_ssd130x.h ****         spi_config.mode      = SpiHandle::Config::Mode::MASTER;
  89:../../libdaisy/src/dev/oled_ssd130x.h ****         spi_config.direction = SpiHandle::Config::Direction::TWO_LINES_TX_ONLY;
  90:../../libdaisy/src/dev/oled_ssd130x.h ****         spi_config.datasize  = 8;
  91:../../libdaisy/src/dev/oled_ssd130x.h ****         spi_config.clock_polarity = SpiHandle::Config::ClockPolarity::LOW;
  92:../../libdaisy/src/dev/oled_ssd130x.h ****         spi_config.clock_phase    = SpiHandle::Config::ClockPhase::ONE_EDGE;
  93:../../libdaisy/src/dev/oled_ssd130x.h ****         spi_config.nss            = SpiHandle::Config::NSS::HARD_OUTPUT;
  94:../../libdaisy/src/dev/oled_ssd130x.h ****         spi_config.baud_prescaler = SpiHandle::Config::BaudPrescaler::PS_8;
  95:../../libdaisy/src/dev/oled_ssd130x.h **** 
  96:../../libdaisy/src/dev/oled_ssd130x.h ****         spi_config.pin_config.sclk = {DSY_GPIOG, 11};
  97:../../libdaisy/src/dev/oled_ssd130x.h ****         spi_config.pin_config.miso = {DSY_GPIOX, 0};
  98:../../libdaisy/src/dev/oled_ssd130x.h ****         spi_config.pin_config.mosi = {DSY_GPIOB, 5};
  99:../../libdaisy/src/dev/oled_ssd130x.h ****         spi_config.pin_config.nss  = {DSY_GPIOG, 10};
 100:../../libdaisy/src/dev/oled_ssd130x.h **** 
ARM GAS  /tmp/ccgIClPy.s 			page 18


 101:../../libdaisy/src/dev/oled_ssd130x.h ****         spi_.Init(spi_config);
 102:../../libdaisy/src/dev/oled_ssd130x.h **** 
 103:../../libdaisy/src/dev/oled_ssd130x.h ****         // Reset and Configure OLED.
 104:../../libdaisy/src/dev/oled_ssd130x.h ****         dsy_gpio_write(&pin_reset_, 0);
 105:../../libdaisy/src/dev/oled_ssd130x.h ****         System::Delay(10);
 106:../../libdaisy/src/dev/oled_ssd130x.h ****         dsy_gpio_write(&pin_reset_, 1);
 107:../../libdaisy/src/dev/oled_ssd130x.h ****         System::Delay(10);
 108:../../libdaisy/src/dev/oled_ssd130x.h ****     };
 109:../../libdaisy/src/dev/oled_ssd130x.h ****     void SendCommand(uint8_t cmd)
 110:../../libdaisy/src/dev/oled_ssd130x.h ****     {
 111:../../libdaisy/src/dev/oled_ssd130x.h ****         dsy_gpio_write(&pin_dc_, 0);
 112:../../libdaisy/src/dev/oled_ssd130x.h ****         spi_.BlockingTransmit(&cmd, 1);
 113:../../libdaisy/src/dev/oled_ssd130x.h ****     };
 114:../../libdaisy/src/dev/oled_ssd130x.h **** 
 115:../../libdaisy/src/dev/oled_ssd130x.h ****     void SendData(uint8_t* buff, size_t size)
 116:../../libdaisy/src/dev/oled_ssd130x.h ****     {
 117:../../libdaisy/src/dev/oled_ssd130x.h ****         dsy_gpio_write(&pin_dc_, 1);
 118:../../libdaisy/src/dev/oled_ssd130x.h ****         spi_.BlockingTransmit(buff, size);
 119:../../libdaisy/src/dev/oled_ssd130x.h ****     };
 120:../../libdaisy/src/dev/oled_ssd130x.h **** 
 121:../../libdaisy/src/dev/oled_ssd130x.h ****   private:
 122:../../libdaisy/src/dev/oled_ssd130x.h ****     SpiHandle spi_;
 123:../../libdaisy/src/dev/oled_ssd130x.h ****     dsy_gpio  pin_reset_;
 124:../../libdaisy/src/dev/oled_ssd130x.h ****     dsy_gpio  pin_dc_;
 125:../../libdaisy/src/dev/oled_ssd130x.h **** };
 126:../../libdaisy/src/dev/oled_ssd130x.h **** 
 127:../../libdaisy/src/dev/oled_ssd130x.h **** 
 128:../../libdaisy/src/dev/oled_ssd130x.h **** /**
 129:../../libdaisy/src/dev/oled_ssd130x.h ****  * A driver implementation for the SSD1306/SSD1309
 130:../../libdaisy/src/dev/oled_ssd130x.h ****  */
 131:../../libdaisy/src/dev/oled_ssd130x.h **** template <size_t width, size_t height, typename Transport>
 132:../../libdaisy/src/dev/oled_ssd130x.h **** class SSD130xDriver
 133:../../libdaisy/src/dev/oled_ssd130x.h **** {
 134:../../libdaisy/src/dev/oled_ssd130x.h ****   public:
 135:../../libdaisy/src/dev/oled_ssd130x.h ****     struct Config
 136:../../libdaisy/src/dev/oled_ssd130x.h ****     {
 137:../../libdaisy/src/dev/oled_ssd130x.h ****         typename Transport::Config transport_config;
 138:../../libdaisy/src/dev/oled_ssd130x.h ****     };
 139:../../libdaisy/src/dev/oled_ssd130x.h **** 
 140:../../libdaisy/src/dev/oled_ssd130x.h ****     void Init(Config config)
 141:../../libdaisy/src/dev/oled_ssd130x.h ****     {
 142:../../libdaisy/src/dev/oled_ssd130x.h ****         transport_.Init(config.transport_config);
 143:../../libdaisy/src/dev/oled_ssd130x.h **** 
 144:../../libdaisy/src/dev/oled_ssd130x.h ****         // Init routine...
 145:../../libdaisy/src/dev/oled_ssd130x.h **** 
 146:../../libdaisy/src/dev/oled_ssd130x.h ****         // Display Off
 147:../../libdaisy/src/dev/oled_ssd130x.h ****         transport_.SendCommand(0xaE);
 148:../../libdaisy/src/dev/oled_ssd130x.h ****         // Dimension dependent commands...
 149:../../libdaisy/src/dev/oled_ssd130x.h ****         switch(height)
 150:../../libdaisy/src/dev/oled_ssd130x.h ****         {
 151:../../libdaisy/src/dev/oled_ssd130x.h ****             case 16:
 152:../../libdaisy/src/dev/oled_ssd130x.h ****                 // Display Clock Divide Ratio
 153:../../libdaisy/src/dev/oled_ssd130x.h ****                 transport_.SendCommand(0xD5);
 154:../../libdaisy/src/dev/oled_ssd130x.h ****                 transport_.SendCommand(0x60);
 155:../../libdaisy/src/dev/oled_ssd130x.h ****                 // Multiplex Ratio
 156:../../libdaisy/src/dev/oled_ssd130x.h ****                 transport_.SendCommand(0xA8);
 157:../../libdaisy/src/dev/oled_ssd130x.h ****                 transport_.SendCommand(0x0F);
ARM GAS  /tmp/ccgIClPy.s 			page 19


 158:../../libdaisy/src/dev/oled_ssd130x.h ****                 // COM Pins
 159:../../libdaisy/src/dev/oled_ssd130x.h ****                 transport_.SendCommand(0xDA);
 160:../../libdaisy/src/dev/oled_ssd130x.h ****                 transport_.SendCommand(0x02);
 161:../../libdaisy/src/dev/oled_ssd130x.h ****                 break;
 162:../../libdaisy/src/dev/oled_ssd130x.h ****             case 32:
 163:../../libdaisy/src/dev/oled_ssd130x.h ****                 // Display Clock Divide Ratio
 164:../../libdaisy/src/dev/oled_ssd130x.h ****                 transport_.SendCommand(0xD5);
 165:../../libdaisy/src/dev/oled_ssd130x.h ****                 transport_.SendCommand(0x80);
 166:../../libdaisy/src/dev/oled_ssd130x.h ****                 // Multiplex Ratio
 167:../../libdaisy/src/dev/oled_ssd130x.h ****                 transport_.SendCommand(0xA8);
 168:../../libdaisy/src/dev/oled_ssd130x.h ****                 transport_.SendCommand(0x1F);
 169:../../libdaisy/src/dev/oled_ssd130x.h ****                 // COM Pins
 170:../../libdaisy/src/dev/oled_ssd130x.h ****                 transport_.SendCommand(0xDA);
 171:../../libdaisy/src/dev/oled_ssd130x.h ****                 if(width == 64)
 172:../../libdaisy/src/dev/oled_ssd130x.h ****                 {
 173:../../libdaisy/src/dev/oled_ssd130x.h ****                     transport_.SendCommand(0x12);
 174:../../libdaisy/src/dev/oled_ssd130x.h ****                 }
 175:../../libdaisy/src/dev/oled_ssd130x.h ****                 else
 176:../../libdaisy/src/dev/oled_ssd130x.h ****                 {
 177:../../libdaisy/src/dev/oled_ssd130x.h ****                     transport_.SendCommand(0x02);
 178:../../libdaisy/src/dev/oled_ssd130x.h ****                 }
 179:../../libdaisy/src/dev/oled_ssd130x.h **** 
 180:../../libdaisy/src/dev/oled_ssd130x.h ****                 break;
 181:../../libdaisy/src/dev/oled_ssd130x.h ****             case 48:
 182:../../libdaisy/src/dev/oled_ssd130x.h ****                 // Display Clock Divide Ratio
 183:../../libdaisy/src/dev/oled_ssd130x.h ****                 transport_.SendCommand(0xD5);
 184:../../libdaisy/src/dev/oled_ssd130x.h ****                 transport_.SendCommand(0x80);
 185:../../libdaisy/src/dev/oled_ssd130x.h ****                 // Multiplex Ratio
 186:../../libdaisy/src/dev/oled_ssd130x.h ****                 transport_.SendCommand(0xA8);
 187:../../libdaisy/src/dev/oled_ssd130x.h ****                 transport_.SendCommand(0x2F);
 188:../../libdaisy/src/dev/oled_ssd130x.h ****                 // COM Pins
 189:../../libdaisy/src/dev/oled_ssd130x.h ****                 transport_.SendCommand(0xDA);
 190:../../libdaisy/src/dev/oled_ssd130x.h ****                 transport_.SendCommand(0x12);
 191:../../libdaisy/src/dev/oled_ssd130x.h ****                 break;
 192:../../libdaisy/src/dev/oled_ssd130x.h ****             default: // 128
 193:../../libdaisy/src/dev/oled_ssd130x.h ****                 // Display Clock Divide Ratio
 194:../../libdaisy/src/dev/oled_ssd130x.h ****                 transport_.SendCommand(0xD5);
 195:../../libdaisy/src/dev/oled_ssd130x.h ****                 transport_.SendCommand(0x80);
 196:../../libdaisy/src/dev/oled_ssd130x.h ****                 // Multiplex Ratio
 197:../../libdaisy/src/dev/oled_ssd130x.h ****                 transport_.SendCommand(0xA8);
 198:../../libdaisy/src/dev/oled_ssd130x.h ****                 transport_.SendCommand(0x3F);
 199:../../libdaisy/src/dev/oled_ssd130x.h ****                 // COM Pins
 200:../../libdaisy/src/dev/oled_ssd130x.h ****                 transport_.SendCommand(0xDA);
 201:../../libdaisy/src/dev/oled_ssd130x.h ****                 transport_.SendCommand(0x12);
 202:../../libdaisy/src/dev/oled_ssd130x.h ****                 break;
 203:../../libdaisy/src/dev/oled_ssd130x.h ****         }
 204:../../libdaisy/src/dev/oled_ssd130x.h **** 
 205:../../libdaisy/src/dev/oled_ssd130x.h ****         // Display Offset
 206:../../libdaisy/src/dev/oled_ssd130x.h ****         transport_.SendCommand(0xD3);
 207:../../libdaisy/src/dev/oled_ssd130x.h ****         transport_.SendCommand(0x00);
 208:../../libdaisy/src/dev/oled_ssd130x.h ****         // Start Line Address
 209:../../libdaisy/src/dev/oled_ssd130x.h ****         transport_.SendCommand(0x40);
 210:../../libdaisy/src/dev/oled_ssd130x.h ****         // Normal Display
 211:../../libdaisy/src/dev/oled_ssd130x.h ****         transport_.SendCommand(0xA6);
 212:../../libdaisy/src/dev/oled_ssd130x.h ****         // All On Resume
 213:../../libdaisy/src/dev/oled_ssd130x.h ****         transport_.SendCommand(0xA4);
 214:../../libdaisy/src/dev/oled_ssd130x.h ****         // Charge Pump
ARM GAS  /tmp/ccgIClPy.s 			page 20


 215:../../libdaisy/src/dev/oled_ssd130x.h ****         transport_.SendCommand(0x8D);
 216:../../libdaisy/src/dev/oled_ssd130x.h ****         transport_.SendCommand(0x14);
 217:../../libdaisy/src/dev/oled_ssd130x.h ****         // Set Segment Remap
 218:../../libdaisy/src/dev/oled_ssd130x.h ****         transport_.SendCommand(0xA1);
 219:../../libdaisy/src/dev/oled_ssd130x.h ****         // COM Output Scan Direction
 220:../../libdaisy/src/dev/oled_ssd130x.h ****         transport_.SendCommand(0xC8);
 221:../../libdaisy/src/dev/oled_ssd130x.h ****         // Contrast Control
 222:../../libdaisy/src/dev/oled_ssd130x.h ****         transport_.SendCommand(0x81);
 223:../../libdaisy/src/dev/oled_ssd130x.h ****         transport_.SendCommand(0x8F);
 224:../../libdaisy/src/dev/oled_ssd130x.h ****         // Pre Charge
 225:../../libdaisy/src/dev/oled_ssd130x.h ****         transport_.SendCommand(0xD9);
 226:../../libdaisy/src/dev/oled_ssd130x.h ****         transport_.SendCommand(0x25);
 227:../../libdaisy/src/dev/oled_ssd130x.h ****         // VCOM Detect
 228:../../libdaisy/src/dev/oled_ssd130x.h ****         transport_.SendCommand(0xDB);
 229:../../libdaisy/src/dev/oled_ssd130x.h ****         transport_.SendCommand(0x34);
 230:../../libdaisy/src/dev/oled_ssd130x.h **** 
 231:../../libdaisy/src/dev/oled_ssd130x.h **** 
 232:../../libdaisy/src/dev/oled_ssd130x.h ****         // Display On
 233:../../libdaisy/src/dev/oled_ssd130x.h ****         transport_.SendCommand(0xAF); //--turn on oled panel
 234:../../libdaisy/src/dev/oled_ssd130x.h ****     };
 235:../../libdaisy/src/dev/oled_ssd130x.h **** 
 236:../../libdaisy/src/dev/oled_ssd130x.h ****     size_t Width() const { return width; };
 237:../../libdaisy/src/dev/oled_ssd130x.h ****     size_t Height() const { return height; };
 238:../../libdaisy/src/dev/oled_ssd130x.h **** 
 239:../../libdaisy/src/dev/oled_ssd130x.h ****     void DrawPixel(uint_fast8_t x, uint_fast8_t y, bool on)
 240:../../libdaisy/src/dev/oled_ssd130x.h ****     {
 241:../../libdaisy/src/dev/oled_ssd130x.h ****         if(x >= width || y >= height)
 242:../../libdaisy/src/dev/oled_ssd130x.h ****             return;
 243:../../libdaisy/src/dev/oled_ssd130x.h ****         if(on)
 244:../../libdaisy/src/dev/oled_ssd130x.h ****             buffer_[x + (y / 8) * width] |= (1 << (y % 8));
 245:../../libdaisy/src/dev/oled_ssd130x.h ****         else
 246:../../libdaisy/src/dev/oled_ssd130x.h ****             buffer_[x + (y / 8) * width] &= ~(1 << (y % 8));
 247:../../libdaisy/src/dev/oled_ssd130x.h ****     }
 248:../../libdaisy/src/dev/oled_ssd130x.h **** 
 249:../../libdaisy/src/dev/oled_ssd130x.h ****     void Fill(bool on)
 160              		.loc 12 249 10 view .LVU27
 161              	.LBB785:
 250:../../libdaisy/src/dev/oled_ssd130x.h ****     {
 251:../../libdaisy/src/dev/oled_ssd130x.h ****         for(size_t i = 0; i < sizeof(buffer_); i++)
 162              		.loc 12 251 29 view .LVU28
 163 0000 4942     		rsbs	r1, r1, #0
 164              	.LVL3:
 165              		.loc 12 251 29 is_stmt 0 view .LVU29
 166 0002 00F11303 		add	r3, r0, #19
 167 0006 00F21342 		addw	r2, r0, #1043
 168 000a C9B2     		uxtb	r1, r1
 169              	.LVL4:
 170              	.L5:
 252:../../libdaisy/src/dev/oled_ssd130x.h ****         {
 253:../../libdaisy/src/dev/oled_ssd130x.h ****             buffer_[i] = on ? 0xff : 0x00;
 171              		.loc 12 253 13 view .LVU30
 172 000c 03F8011F 		strb	r1, [r3, #1]!
 173              	.LVL5:
 251:../../libdaisy/src/dev/oled_ssd130x.h ****         {
 174              		.loc 12 251 9 is_stmt 1 view .LVU31
 251:../../libdaisy/src/dev/oled_ssd130x.h ****         {
 175              		.loc 12 251 29 view .LVU32
ARM GAS  /tmp/ccgIClPy.s 			page 21


 176 0010 9342     		cmp	r3, r2
 177 0012 FBD1     		bne	.L5
 178              	.LBE785:
 179              	.LBE784:
 180              		.loc 2 33 53 is_stmt 0 view .LVU33
 181 0014 7047     		bx	lr
 182              		.cfi_endproc
 183              	.LFE4560:
 185 0016 00BF     		.section	.text.__tcf_0,"ax",%progbits
 186              		.align	1
 187              		.p2align 2,,3
 188              		.syntax unified
 189              		.thumb
 190              		.thumb_func
 191              		.fpu fpv5-d16
 193              	__tcf_0:
 194              	.LFB4831:
 195              		.file 13 "PolyOsc.cpp"
   1:PolyOsc.cpp   **** #include "daisysp.h"
   2:PolyOsc.cpp   **** #include "daisy_patch.h"
   3:PolyOsc.cpp   **** #include <string>
   4:PolyOsc.cpp   **** 
   5:PolyOsc.cpp   **** using namespace daisy;
   6:PolyOsc.cpp   **** using namespace daisysp;
   7:PolyOsc.cpp   **** 
   8:PolyOsc.cpp   **** DaisyPatch patch;
   9:PolyOsc.cpp   **** 
  10:PolyOsc.cpp   **** Oscillator osc[3];
 196              		.loc 13 10 12 is_stmt 1 view -0
 197              		.cfi_startproc
 198              		@ args = 0, pretend = 0, frame = 0
 199              		@ frame_needed = 0, uses_anonymous_args = 0
 200              		@ link register save eliminated.
 201              		.loc 13 10 12 is_stmt 0 view .LVU35
 202 0000 7047     		bx	lr
 203              		.cfi_endproc
 204              	.LFE4831:
 206 0002 00BF     		.section	.text._ZNK5daisy11OledDisplayINS_13SSD130xDriverILj128ELj64ENS_24SSD130x4WireSpiTransport
 207              		.align	1
 208              		.p2align 2,,3
 209              		.weak	_ZNK5daisy11OledDisplayINS_13SSD130xDriverILj128ELj64ENS_24SSD130x4WireSpiTransportEEEE6Heig
 210              		.syntax unified
 211              		.thumb
 212              		.thumb_func
 213              		.fpu fpv5-d16
 215              	_ZNK5daisy11OledDisplayINS_13SSD130xDriverILj128ELj64ENS_24SSD130x4WireSpiTransportEEEE6HeightEv:
 216              	.LVL6:
 217              	.LFB4833:
  26:../../libdaisy/src/hid/disp/oled_display.h ****     uint16_t Width() const override { return driver_.Width(); }
 218              		.loc 2 26 14 is_stmt 1 view -0
 219              		.cfi_startproc
 220              		@ args = 0, pretend = 0, frame = 0
 221              		@ frame_needed = 0, uses_anonymous_args = 0
 222              		@ link register save eliminated.
  26:../../libdaisy/src/hid/disp/oled_display.h ****     uint16_t Width() const override { return driver_.Width(); }
 223              		.loc 2 26 65 is_stmt 0 view .LVU37
 224 0000 4020     		movs	r0, #64
ARM GAS  /tmp/ccgIClPy.s 			page 22


 225              	.LVL7:
  26:../../libdaisy/src/hid/disp/oled_display.h ****     uint16_t Width() const override { return driver_.Width(); }
 226              		.loc 2 26 65 view .LVU38
 227 0002 7047     		bx	lr
 228              		.cfi_endproc
 229              	.LFE4833:
 231              		.section	.text._ZNK5daisy11OledDisplayINS_13SSD130xDriverILj128ELj64ENS_24SSD130x4WireSpiTransport
 232              		.align	1
 233              		.p2align 2,,3
 234              		.weak	_ZNK5daisy11OledDisplayINS_13SSD130xDriverILj128ELj64ENS_24SSD130x4WireSpiTransportEEEE5Widt
 235              		.syntax unified
 236              		.thumb
 237              		.thumb_func
 238              		.fpu fpv5-d16
 240              	_ZNK5daisy11OledDisplayINS_13SSD130xDriverILj128ELj64ENS_24SSD130x4WireSpiTransportEEEE5WidthEv:
 241              	.LVL8:
 242              	.LFB4834:
  27:../../libdaisy/src/hid/disp/oled_display.h **** 
 243              		.loc 2 27 14 is_stmt 1 view -0
 244              		.cfi_startproc
 245              		@ args = 0, pretend = 0, frame = 0
 246              		@ frame_needed = 0, uses_anonymous_args = 0
 247              		@ link register save eliminated.
  27:../../libdaisy/src/hid/disp/oled_display.h **** 
 248              		.loc 2 27 63 is_stmt 0 view .LVU40
 249 0000 8020     		movs	r0, #128
 250              	.LVL9:
  27:../../libdaisy/src/hid/disp/oled_display.h **** 
 251              		.loc 2 27 63 view .LVU41
 252 0002 7047     		bx	lr
 253              		.cfi_endproc
 254              	.LFE4834:
 256              		.section	.text.__tcf_1,"ax",%progbits
 257              		.align	1
 258              		.p2align 2,,3
 259              		.syntax unified
 260              		.thumb
 261              		.thumb_func
 262              		.fpu fpv5-d16
 264              	__tcf_1:
 265              	.LFB4832:
  11:PolyOsc.cpp   **** 
  12:PolyOsc.cpp   **** std::string waveNames[5];
 266              		.loc 13 12 13 is_stmt 1 view -0
 267              		.cfi_startproc
 268              		@ args = 0, pretend = 0, frame = 0
 269              		@ frame_needed = 0, uses_anonymous_args = 0
 270 0000 38B5     		push	{r3, r4, r5, lr}
 271              		.cfi_def_cfa_offset 16
 272              		.cfi_offset 3, -16
 273              		.cfi_offset 4, -12
 274              		.cfi_offset 5, -8
 275              		.cfi_offset 14, -4
 276 0002 074C     		ldr	r4, .L15
 277 0004 A4F17805 		sub	r5, r4, #120
 278              	.L12:
 279              	.LVL10:
ARM GAS  /tmp/ccgIClPy.s 			page 23


 280              	.LBB786:
 281              	.LBI786:
 282              		.file 14 "/usr/include/newlib/c++/9.2.1/bits/basic_string.h"
   1:/usr/include/newlib/c++/9.2.1/bits/basic_string.h **** // Components for manipulating sequences of characters -*- C++ -*-
   2:/usr/include/newlib/c++/9.2.1/bits/basic_string.h **** 
   3:/usr/include/newlib/c++/9.2.1/bits/basic_string.h **** // Copyright (C) 1997-2019 Free Software Foundation, Inc.
   4:/usr/include/newlib/c++/9.2.1/bits/basic_string.h **** //
   5:/usr/include/newlib/c++/9.2.1/bits/basic_string.h **** // This file is part of the GNU ISO C++ Library.  This library is free
   6:/usr/include/newlib/c++/9.2.1/bits/basic_string.h **** // software; you can redistribute it and/or modify it under the
   7:/usr/include/newlib/c++/9.2.1/bits/basic_string.h **** // terms of the GNU General Public License as published by the
   8:/usr/include/newlib/c++/9.2.1/bits/basic_string.h **** // Free Software Foundation; either version 3, or (at your option)
   9:/usr/include/newlib/c++/9.2.1/bits/basic_string.h **** // any later version.
  10:/usr/include/newlib/c++/9.2.1/bits/basic_string.h **** 
  11:/usr/include/newlib/c++/9.2.1/bits/basic_string.h **** // This library is distributed in the hope that it will be useful,
  12:/usr/include/newlib/c++/9.2.1/bits/basic_string.h **** // but WITHOUT ANY WARRANTY; without even the implied warranty of
  13:/usr/include/newlib/c++/9.2.1/bits/basic_string.h **** // MERCHANTABILITY or FITNESS FOR A PARTICULAR PURPOSE.  See the
  14:/usr/include/newlib/c++/9.2.1/bits/basic_string.h **** // GNU General Public License for more details.
  15:/usr/include/newlib/c++/9.2.1/bits/basic_string.h **** 
  16:/usr/include/newlib/c++/9.2.1/bits/basic_string.h **** // Under Section 7 of GPL version 3, you are granted additional
  17:/usr/include/newlib/c++/9.2.1/bits/basic_string.h **** // permissions described in the GCC Runtime Library Exception, version
  18:/usr/include/newlib/c++/9.2.1/bits/basic_string.h **** // 3.1, as published by the Free Software Foundation.
  19:/usr/include/newlib/c++/9.2.1/bits/basic_string.h **** 
  20:/usr/include/newlib/c++/9.2.1/bits/basic_string.h **** // You should have received a copy of the GNU General Public License and
  21:/usr/include/newlib/c++/9.2.1/bits/basic_string.h **** // a copy of the GCC Runtime Library Exception along with this program;
  22:/usr/include/newlib/c++/9.2.1/bits/basic_string.h **** // see the files COPYING3 and COPYING.RUNTIME respectively.  If not, see
  23:/usr/include/newlib/c++/9.2.1/bits/basic_string.h **** // <http://www.gnu.org/licenses/>.
  24:/usr/include/newlib/c++/9.2.1/bits/basic_string.h **** 
  25:/usr/include/newlib/c++/9.2.1/bits/basic_string.h **** /** @file bits/basic_string.h
  26:/usr/include/newlib/c++/9.2.1/bits/basic_string.h ****  *  This is an internal header file, included by other library headers.
  27:/usr/include/newlib/c++/9.2.1/bits/basic_string.h ****  *  Do not attempt to use it directly. @headername{string}
  28:/usr/include/newlib/c++/9.2.1/bits/basic_string.h ****  */
  29:/usr/include/newlib/c++/9.2.1/bits/basic_string.h **** 
  30:/usr/include/newlib/c++/9.2.1/bits/basic_string.h **** //
  31:/usr/include/newlib/c++/9.2.1/bits/basic_string.h **** // ISO C++ 14882: 21 Strings library
  32:/usr/include/newlib/c++/9.2.1/bits/basic_string.h **** //
  33:/usr/include/newlib/c++/9.2.1/bits/basic_string.h **** 
  34:/usr/include/newlib/c++/9.2.1/bits/basic_string.h **** #ifndef _BASIC_STRING_H
  35:/usr/include/newlib/c++/9.2.1/bits/basic_string.h **** #define _BASIC_STRING_H 1
  36:/usr/include/newlib/c++/9.2.1/bits/basic_string.h **** 
  37:/usr/include/newlib/c++/9.2.1/bits/basic_string.h **** #pragma GCC system_header
  38:/usr/include/newlib/c++/9.2.1/bits/basic_string.h **** 
  39:/usr/include/newlib/c++/9.2.1/bits/basic_string.h **** #include <ext/atomicity.h>
  40:/usr/include/newlib/c++/9.2.1/bits/basic_string.h **** #include <ext/alloc_traits.h>
  41:/usr/include/newlib/c++/9.2.1/bits/basic_string.h **** #include <debug/debug.h>
  42:/usr/include/newlib/c++/9.2.1/bits/basic_string.h **** 
  43:/usr/include/newlib/c++/9.2.1/bits/basic_string.h **** #if __cplusplus >= 201103L
  44:/usr/include/newlib/c++/9.2.1/bits/basic_string.h **** #include <initializer_list>
  45:/usr/include/newlib/c++/9.2.1/bits/basic_string.h **** #endif
  46:/usr/include/newlib/c++/9.2.1/bits/basic_string.h **** 
  47:/usr/include/newlib/c++/9.2.1/bits/basic_string.h **** #if __cplusplus >= 201703L
  48:/usr/include/newlib/c++/9.2.1/bits/basic_string.h **** # include <string_view>
  49:/usr/include/newlib/c++/9.2.1/bits/basic_string.h **** #endif
  50:/usr/include/newlib/c++/9.2.1/bits/basic_string.h **** 
  51:/usr/include/newlib/c++/9.2.1/bits/basic_string.h **** 
  52:/usr/include/newlib/c++/9.2.1/bits/basic_string.h **** namespace std _GLIBCXX_VISIBILITY(default)
  53:/usr/include/newlib/c++/9.2.1/bits/basic_string.h **** {
  54:/usr/include/newlib/c++/9.2.1/bits/basic_string.h **** _GLIBCXX_BEGIN_NAMESPACE_VERSION
ARM GAS  /tmp/ccgIClPy.s 			page 24


  55:/usr/include/newlib/c++/9.2.1/bits/basic_string.h **** 
  56:/usr/include/newlib/c++/9.2.1/bits/basic_string.h **** #if _GLIBCXX_USE_CXX11_ABI
  57:/usr/include/newlib/c++/9.2.1/bits/basic_string.h **** _GLIBCXX_BEGIN_NAMESPACE_CXX11
  58:/usr/include/newlib/c++/9.2.1/bits/basic_string.h ****   /**
  59:/usr/include/newlib/c++/9.2.1/bits/basic_string.h ****    *  @class basic_string basic_string.h <string>
  60:/usr/include/newlib/c++/9.2.1/bits/basic_string.h ****    *  @brief  Managing sequences of characters and character-like objects.
  61:/usr/include/newlib/c++/9.2.1/bits/basic_string.h ****    *
  62:/usr/include/newlib/c++/9.2.1/bits/basic_string.h ****    *  @ingroup strings
  63:/usr/include/newlib/c++/9.2.1/bits/basic_string.h ****    *  @ingroup sequences
  64:/usr/include/newlib/c++/9.2.1/bits/basic_string.h ****    *
  65:/usr/include/newlib/c++/9.2.1/bits/basic_string.h ****    *  @tparam _CharT  Type of character
  66:/usr/include/newlib/c++/9.2.1/bits/basic_string.h ****    *  @tparam _Traits  Traits for character type, defaults to
  67:/usr/include/newlib/c++/9.2.1/bits/basic_string.h ****    *                   char_traits<_CharT>.
  68:/usr/include/newlib/c++/9.2.1/bits/basic_string.h ****    *  @tparam _Alloc  Allocator type, defaults to allocator<_CharT>.
  69:/usr/include/newlib/c++/9.2.1/bits/basic_string.h ****    *
  70:/usr/include/newlib/c++/9.2.1/bits/basic_string.h ****    *  Meets the requirements of a <a href="tables.html#65">container</a>, a
  71:/usr/include/newlib/c++/9.2.1/bits/basic_string.h ****    *  <a href="tables.html#66">reversible container</a>, and a
  72:/usr/include/newlib/c++/9.2.1/bits/basic_string.h ****    *  <a href="tables.html#67">sequence</a>.  Of the
  73:/usr/include/newlib/c++/9.2.1/bits/basic_string.h ****    *  <a href="tables.html#68">optional sequence requirements</a>, only
  74:/usr/include/newlib/c++/9.2.1/bits/basic_string.h ****    *  @c push_back, @c at, and @c %array access are supported.
  75:/usr/include/newlib/c++/9.2.1/bits/basic_string.h ****    */
  76:/usr/include/newlib/c++/9.2.1/bits/basic_string.h ****   template<typename _CharT, typename _Traits, typename _Alloc>
  77:/usr/include/newlib/c++/9.2.1/bits/basic_string.h ****     class basic_string
  78:/usr/include/newlib/c++/9.2.1/bits/basic_string.h ****     {
  79:/usr/include/newlib/c++/9.2.1/bits/basic_string.h ****       typedef typename __gnu_cxx::__alloc_traits<_Alloc>::template
  80:/usr/include/newlib/c++/9.2.1/bits/basic_string.h **** 	rebind<_CharT>::other _Char_alloc_type;
  81:/usr/include/newlib/c++/9.2.1/bits/basic_string.h ****       typedef __gnu_cxx::__alloc_traits<_Char_alloc_type> _Alloc_traits;
  82:/usr/include/newlib/c++/9.2.1/bits/basic_string.h **** 
  83:/usr/include/newlib/c++/9.2.1/bits/basic_string.h ****       // Types:
  84:/usr/include/newlib/c++/9.2.1/bits/basic_string.h ****     public:
  85:/usr/include/newlib/c++/9.2.1/bits/basic_string.h ****       typedef _Traits					traits_type;
  86:/usr/include/newlib/c++/9.2.1/bits/basic_string.h ****       typedef typename _Traits::char_type		value_type;
  87:/usr/include/newlib/c++/9.2.1/bits/basic_string.h ****       typedef _Char_alloc_type				allocator_type;
  88:/usr/include/newlib/c++/9.2.1/bits/basic_string.h ****       typedef typename _Alloc_traits::size_type		size_type;
  89:/usr/include/newlib/c++/9.2.1/bits/basic_string.h ****       typedef typename _Alloc_traits::difference_type	difference_type;
  90:/usr/include/newlib/c++/9.2.1/bits/basic_string.h ****       typedef typename _Alloc_traits::reference		reference;
  91:/usr/include/newlib/c++/9.2.1/bits/basic_string.h ****       typedef typename _Alloc_traits::const_reference	const_reference;
  92:/usr/include/newlib/c++/9.2.1/bits/basic_string.h ****       typedef typename _Alloc_traits::pointer		pointer;
  93:/usr/include/newlib/c++/9.2.1/bits/basic_string.h ****       typedef typename _Alloc_traits::const_pointer	const_pointer;
  94:/usr/include/newlib/c++/9.2.1/bits/basic_string.h ****       typedef __gnu_cxx::__normal_iterator<pointer, basic_string>  iterator;
  95:/usr/include/newlib/c++/9.2.1/bits/basic_string.h ****       typedef __gnu_cxx::__normal_iterator<const_pointer, basic_string>
  96:/usr/include/newlib/c++/9.2.1/bits/basic_string.h **** 							const_iterator;
  97:/usr/include/newlib/c++/9.2.1/bits/basic_string.h ****       typedef std::reverse_iterator<const_iterator>	const_reverse_iterator;
  98:/usr/include/newlib/c++/9.2.1/bits/basic_string.h ****       typedef std::reverse_iterator<iterator>		reverse_iterator;
  99:/usr/include/newlib/c++/9.2.1/bits/basic_string.h **** 
 100:/usr/include/newlib/c++/9.2.1/bits/basic_string.h ****       ///  Value returned by various member functions when they fail.
 101:/usr/include/newlib/c++/9.2.1/bits/basic_string.h ****       static const size_type	npos = static_cast<size_type>(-1);
 102:/usr/include/newlib/c++/9.2.1/bits/basic_string.h **** 
 103:/usr/include/newlib/c++/9.2.1/bits/basic_string.h ****     protected:
 104:/usr/include/newlib/c++/9.2.1/bits/basic_string.h ****       // type used for positions in insert, erase etc.
 105:/usr/include/newlib/c++/9.2.1/bits/basic_string.h **** #if __cplusplus < 201103L
 106:/usr/include/newlib/c++/9.2.1/bits/basic_string.h ****       typedef iterator __const_iterator;
 107:/usr/include/newlib/c++/9.2.1/bits/basic_string.h **** #else
 108:/usr/include/newlib/c++/9.2.1/bits/basic_string.h ****       typedef const_iterator __const_iterator;
 109:/usr/include/newlib/c++/9.2.1/bits/basic_string.h **** #endif
 110:/usr/include/newlib/c++/9.2.1/bits/basic_string.h **** 
 111:/usr/include/newlib/c++/9.2.1/bits/basic_string.h ****     private:
ARM GAS  /tmp/ccgIClPy.s 			page 25


 112:/usr/include/newlib/c++/9.2.1/bits/basic_string.h **** #if __cplusplus >= 201703L
 113:/usr/include/newlib/c++/9.2.1/bits/basic_string.h ****       // A helper type for avoiding boiler-plate.
 114:/usr/include/newlib/c++/9.2.1/bits/basic_string.h ****       typedef basic_string_view<_CharT, _Traits> __sv_type;
 115:/usr/include/newlib/c++/9.2.1/bits/basic_string.h **** 
 116:/usr/include/newlib/c++/9.2.1/bits/basic_string.h ****       template<typename _Tp, typename _Res>
 117:/usr/include/newlib/c++/9.2.1/bits/basic_string.h **** 	using _If_sv = enable_if_t<
 118:/usr/include/newlib/c++/9.2.1/bits/basic_string.h **** 	  __and_<is_convertible<const _Tp&, __sv_type>,
 119:/usr/include/newlib/c++/9.2.1/bits/basic_string.h **** 		 __not_<is_convertible<const _Tp*, const basic_string*>>,
 120:/usr/include/newlib/c++/9.2.1/bits/basic_string.h **** 		 __not_<is_convertible<const _Tp&, const _CharT*>>>::value,
 121:/usr/include/newlib/c++/9.2.1/bits/basic_string.h **** 	  _Res>;
 122:/usr/include/newlib/c++/9.2.1/bits/basic_string.h **** 
 123:/usr/include/newlib/c++/9.2.1/bits/basic_string.h ****       // Allows an implicit conversion to __sv_type.
 124:/usr/include/newlib/c++/9.2.1/bits/basic_string.h ****       static __sv_type
 125:/usr/include/newlib/c++/9.2.1/bits/basic_string.h ****       _S_to_string_view(__sv_type __svt) noexcept
 126:/usr/include/newlib/c++/9.2.1/bits/basic_string.h ****       { return __svt; }
 127:/usr/include/newlib/c++/9.2.1/bits/basic_string.h **** 
 128:/usr/include/newlib/c++/9.2.1/bits/basic_string.h ****       // Wraps a string_view by explicit conversion and thus
 129:/usr/include/newlib/c++/9.2.1/bits/basic_string.h ****       // allows to add an internal constructor that does not
 130:/usr/include/newlib/c++/9.2.1/bits/basic_string.h ****       // participate in overload resolution when a string_view
 131:/usr/include/newlib/c++/9.2.1/bits/basic_string.h ****       // is provided.
 132:/usr/include/newlib/c++/9.2.1/bits/basic_string.h ****       struct __sv_wrapper
 133:/usr/include/newlib/c++/9.2.1/bits/basic_string.h ****       {
 134:/usr/include/newlib/c++/9.2.1/bits/basic_string.h **** 	explicit __sv_wrapper(__sv_type __sv) noexcept : _M_sv(__sv) { }
 135:/usr/include/newlib/c++/9.2.1/bits/basic_string.h **** 	__sv_type _M_sv;
 136:/usr/include/newlib/c++/9.2.1/bits/basic_string.h ****       };
 137:/usr/include/newlib/c++/9.2.1/bits/basic_string.h **** 
 138:/usr/include/newlib/c++/9.2.1/bits/basic_string.h ****       /**
 139:/usr/include/newlib/c++/9.2.1/bits/basic_string.h ****        *  @brief  Only internally used: Construct string from a string view
 140:/usr/include/newlib/c++/9.2.1/bits/basic_string.h ****        *          wrapper.
 141:/usr/include/newlib/c++/9.2.1/bits/basic_string.h ****        *  @param  __svw  string view wrapper.
 142:/usr/include/newlib/c++/9.2.1/bits/basic_string.h ****        *  @param  __a  Allocator to use.
 143:/usr/include/newlib/c++/9.2.1/bits/basic_string.h ****        */
 144:/usr/include/newlib/c++/9.2.1/bits/basic_string.h ****       explicit
 145:/usr/include/newlib/c++/9.2.1/bits/basic_string.h ****       basic_string(__sv_wrapper __svw, const _Alloc& __a)
 146:/usr/include/newlib/c++/9.2.1/bits/basic_string.h ****       : basic_string(__svw._M_sv.data(), __svw._M_sv.size(), __a) { }
 147:/usr/include/newlib/c++/9.2.1/bits/basic_string.h **** #endif
 148:/usr/include/newlib/c++/9.2.1/bits/basic_string.h **** 
 149:/usr/include/newlib/c++/9.2.1/bits/basic_string.h ****       // Use empty-base optimization: http://www.cantrip.org/emptyopt.html
 150:/usr/include/newlib/c++/9.2.1/bits/basic_string.h ****       struct _Alloc_hider : allocator_type // TODO check __is_final
 151:/usr/include/newlib/c++/9.2.1/bits/basic_string.h ****       {
 152:/usr/include/newlib/c++/9.2.1/bits/basic_string.h **** #if __cplusplus < 201103L
 153:/usr/include/newlib/c++/9.2.1/bits/basic_string.h **** 	_Alloc_hider(pointer __dat, const _Alloc& __a = _Alloc())
 154:/usr/include/newlib/c++/9.2.1/bits/basic_string.h **** 	: allocator_type(__a), _M_p(__dat) { }
 155:/usr/include/newlib/c++/9.2.1/bits/basic_string.h **** #else
 156:/usr/include/newlib/c++/9.2.1/bits/basic_string.h **** 	_Alloc_hider(pointer __dat, const _Alloc& __a)
 157:/usr/include/newlib/c++/9.2.1/bits/basic_string.h **** 	: allocator_type(__a), _M_p(__dat) { }
 158:/usr/include/newlib/c++/9.2.1/bits/basic_string.h **** 
 159:/usr/include/newlib/c++/9.2.1/bits/basic_string.h **** 	_Alloc_hider(pointer __dat, _Alloc&& __a = _Alloc())
 160:/usr/include/newlib/c++/9.2.1/bits/basic_string.h **** 	: allocator_type(std::move(__a)), _M_p(__dat) { }
 161:/usr/include/newlib/c++/9.2.1/bits/basic_string.h **** #endif
 162:/usr/include/newlib/c++/9.2.1/bits/basic_string.h **** 
 163:/usr/include/newlib/c++/9.2.1/bits/basic_string.h **** 	pointer _M_p; // The actual data.
 164:/usr/include/newlib/c++/9.2.1/bits/basic_string.h ****       };
 165:/usr/include/newlib/c++/9.2.1/bits/basic_string.h **** 
 166:/usr/include/newlib/c++/9.2.1/bits/basic_string.h ****       _Alloc_hider	_M_dataplus;
 167:/usr/include/newlib/c++/9.2.1/bits/basic_string.h ****       size_type		_M_string_length;
 168:/usr/include/newlib/c++/9.2.1/bits/basic_string.h **** 
ARM GAS  /tmp/ccgIClPy.s 			page 26


 169:/usr/include/newlib/c++/9.2.1/bits/basic_string.h ****       enum { _S_local_capacity = 15 / sizeof(_CharT) };
 170:/usr/include/newlib/c++/9.2.1/bits/basic_string.h **** 
 171:/usr/include/newlib/c++/9.2.1/bits/basic_string.h ****       union
 172:/usr/include/newlib/c++/9.2.1/bits/basic_string.h ****       {
 173:/usr/include/newlib/c++/9.2.1/bits/basic_string.h **** 	_CharT           _M_local_buf[_S_local_capacity + 1];
 174:/usr/include/newlib/c++/9.2.1/bits/basic_string.h **** 	size_type        _M_allocated_capacity;
 175:/usr/include/newlib/c++/9.2.1/bits/basic_string.h ****       };
 176:/usr/include/newlib/c++/9.2.1/bits/basic_string.h **** 
 177:/usr/include/newlib/c++/9.2.1/bits/basic_string.h ****       void
 178:/usr/include/newlib/c++/9.2.1/bits/basic_string.h ****       _M_data(pointer __p)
 179:/usr/include/newlib/c++/9.2.1/bits/basic_string.h ****       { _M_dataplus._M_p = __p; }
 180:/usr/include/newlib/c++/9.2.1/bits/basic_string.h **** 
 181:/usr/include/newlib/c++/9.2.1/bits/basic_string.h ****       void
 182:/usr/include/newlib/c++/9.2.1/bits/basic_string.h ****       _M_length(size_type __length)
 183:/usr/include/newlib/c++/9.2.1/bits/basic_string.h ****       { _M_string_length = __length; }
 184:/usr/include/newlib/c++/9.2.1/bits/basic_string.h **** 
 185:/usr/include/newlib/c++/9.2.1/bits/basic_string.h ****       pointer
 186:/usr/include/newlib/c++/9.2.1/bits/basic_string.h ****       _M_data() const
 187:/usr/include/newlib/c++/9.2.1/bits/basic_string.h ****       { return _M_dataplus._M_p; }
 188:/usr/include/newlib/c++/9.2.1/bits/basic_string.h **** 
 189:/usr/include/newlib/c++/9.2.1/bits/basic_string.h ****       pointer
 190:/usr/include/newlib/c++/9.2.1/bits/basic_string.h ****       _M_local_data()
 191:/usr/include/newlib/c++/9.2.1/bits/basic_string.h ****       {
 192:/usr/include/newlib/c++/9.2.1/bits/basic_string.h **** #if __cplusplus >= 201103L
 193:/usr/include/newlib/c++/9.2.1/bits/basic_string.h **** 	return std::pointer_traits<pointer>::pointer_to(*_M_local_buf);
 194:/usr/include/newlib/c++/9.2.1/bits/basic_string.h **** #else
 195:/usr/include/newlib/c++/9.2.1/bits/basic_string.h **** 	return pointer(_M_local_buf);
 196:/usr/include/newlib/c++/9.2.1/bits/basic_string.h **** #endif
 197:/usr/include/newlib/c++/9.2.1/bits/basic_string.h ****       }
 198:/usr/include/newlib/c++/9.2.1/bits/basic_string.h **** 
 199:/usr/include/newlib/c++/9.2.1/bits/basic_string.h ****       const_pointer
 200:/usr/include/newlib/c++/9.2.1/bits/basic_string.h ****       _M_local_data() const
 201:/usr/include/newlib/c++/9.2.1/bits/basic_string.h ****       {
 202:/usr/include/newlib/c++/9.2.1/bits/basic_string.h **** #if __cplusplus >= 201103L
 203:/usr/include/newlib/c++/9.2.1/bits/basic_string.h **** 	return std::pointer_traits<const_pointer>::pointer_to(*_M_local_buf);
 204:/usr/include/newlib/c++/9.2.1/bits/basic_string.h **** #else
 205:/usr/include/newlib/c++/9.2.1/bits/basic_string.h **** 	return const_pointer(_M_local_buf);
 206:/usr/include/newlib/c++/9.2.1/bits/basic_string.h **** #endif
 207:/usr/include/newlib/c++/9.2.1/bits/basic_string.h ****       }
 208:/usr/include/newlib/c++/9.2.1/bits/basic_string.h **** 
 209:/usr/include/newlib/c++/9.2.1/bits/basic_string.h ****       void
 210:/usr/include/newlib/c++/9.2.1/bits/basic_string.h ****       _M_capacity(size_type __capacity)
 211:/usr/include/newlib/c++/9.2.1/bits/basic_string.h ****       { _M_allocated_capacity = __capacity; }
 212:/usr/include/newlib/c++/9.2.1/bits/basic_string.h **** 
 213:/usr/include/newlib/c++/9.2.1/bits/basic_string.h ****       void
 214:/usr/include/newlib/c++/9.2.1/bits/basic_string.h ****       _M_set_length(size_type __n)
 215:/usr/include/newlib/c++/9.2.1/bits/basic_string.h ****       {
 216:/usr/include/newlib/c++/9.2.1/bits/basic_string.h **** 	_M_length(__n);
 217:/usr/include/newlib/c++/9.2.1/bits/basic_string.h **** 	traits_type::assign(_M_data()[__n], _CharT());
 218:/usr/include/newlib/c++/9.2.1/bits/basic_string.h ****       }
 219:/usr/include/newlib/c++/9.2.1/bits/basic_string.h **** 
 220:/usr/include/newlib/c++/9.2.1/bits/basic_string.h ****       bool
 221:/usr/include/newlib/c++/9.2.1/bits/basic_string.h ****       _M_is_local() const
 222:/usr/include/newlib/c++/9.2.1/bits/basic_string.h ****       { return _M_data() == _M_local_data(); }
 223:/usr/include/newlib/c++/9.2.1/bits/basic_string.h **** 
 224:/usr/include/newlib/c++/9.2.1/bits/basic_string.h ****       // Create & Destroy
 225:/usr/include/newlib/c++/9.2.1/bits/basic_string.h ****       pointer
ARM GAS  /tmp/ccgIClPy.s 			page 27


 226:/usr/include/newlib/c++/9.2.1/bits/basic_string.h ****       _M_create(size_type&, size_type);
 227:/usr/include/newlib/c++/9.2.1/bits/basic_string.h **** 
 228:/usr/include/newlib/c++/9.2.1/bits/basic_string.h ****       void
 229:/usr/include/newlib/c++/9.2.1/bits/basic_string.h ****       _M_dispose()
 230:/usr/include/newlib/c++/9.2.1/bits/basic_string.h ****       {
 231:/usr/include/newlib/c++/9.2.1/bits/basic_string.h **** 	if (!_M_is_local())
 232:/usr/include/newlib/c++/9.2.1/bits/basic_string.h **** 	  _M_destroy(_M_allocated_capacity);
 233:/usr/include/newlib/c++/9.2.1/bits/basic_string.h ****       }
 234:/usr/include/newlib/c++/9.2.1/bits/basic_string.h **** 
 235:/usr/include/newlib/c++/9.2.1/bits/basic_string.h ****       void
 236:/usr/include/newlib/c++/9.2.1/bits/basic_string.h ****       _M_destroy(size_type __size) throw()
 237:/usr/include/newlib/c++/9.2.1/bits/basic_string.h ****       { _Alloc_traits::deallocate(_M_get_allocator(), _M_data(), __size + 1); }
 238:/usr/include/newlib/c++/9.2.1/bits/basic_string.h **** 
 239:/usr/include/newlib/c++/9.2.1/bits/basic_string.h ****       // _M_construct_aux is used to implement the 21.3.1 para 15 which
 240:/usr/include/newlib/c++/9.2.1/bits/basic_string.h ****       // requires special behaviour if _InIterator is an integral type
 241:/usr/include/newlib/c++/9.2.1/bits/basic_string.h ****       template<typename _InIterator>
 242:/usr/include/newlib/c++/9.2.1/bits/basic_string.h ****         void
 243:/usr/include/newlib/c++/9.2.1/bits/basic_string.h ****         _M_construct_aux(_InIterator __beg, _InIterator __end,
 244:/usr/include/newlib/c++/9.2.1/bits/basic_string.h **** 			 std::__false_type)
 245:/usr/include/newlib/c++/9.2.1/bits/basic_string.h **** 	{
 246:/usr/include/newlib/c++/9.2.1/bits/basic_string.h ****           typedef typename iterator_traits<_InIterator>::iterator_category _Tag;
 247:/usr/include/newlib/c++/9.2.1/bits/basic_string.h ****           _M_construct(__beg, __end, _Tag());
 248:/usr/include/newlib/c++/9.2.1/bits/basic_string.h **** 	}
 249:/usr/include/newlib/c++/9.2.1/bits/basic_string.h **** 
 250:/usr/include/newlib/c++/9.2.1/bits/basic_string.h ****       // _GLIBCXX_RESOLVE_LIB_DEFECTS
 251:/usr/include/newlib/c++/9.2.1/bits/basic_string.h ****       // 438. Ambiguity in the "do the right thing" clause
 252:/usr/include/newlib/c++/9.2.1/bits/basic_string.h ****       template<typename _Integer>
 253:/usr/include/newlib/c++/9.2.1/bits/basic_string.h ****         void
 254:/usr/include/newlib/c++/9.2.1/bits/basic_string.h ****         _M_construct_aux(_Integer __beg, _Integer __end, std::__true_type)
 255:/usr/include/newlib/c++/9.2.1/bits/basic_string.h **** 	{ _M_construct_aux_2(static_cast<size_type>(__beg), __end); }
 256:/usr/include/newlib/c++/9.2.1/bits/basic_string.h **** 
 257:/usr/include/newlib/c++/9.2.1/bits/basic_string.h ****       void
 258:/usr/include/newlib/c++/9.2.1/bits/basic_string.h ****       _M_construct_aux_2(size_type __req, _CharT __c)
 259:/usr/include/newlib/c++/9.2.1/bits/basic_string.h ****       { _M_construct(__req, __c); }
 260:/usr/include/newlib/c++/9.2.1/bits/basic_string.h **** 
 261:/usr/include/newlib/c++/9.2.1/bits/basic_string.h ****       template<typename _InIterator>
 262:/usr/include/newlib/c++/9.2.1/bits/basic_string.h ****         void
 263:/usr/include/newlib/c++/9.2.1/bits/basic_string.h ****         _M_construct(_InIterator __beg, _InIterator __end)
 264:/usr/include/newlib/c++/9.2.1/bits/basic_string.h **** 	{
 265:/usr/include/newlib/c++/9.2.1/bits/basic_string.h **** 	  typedef typename std::__is_integer<_InIterator>::__type _Integral;
 266:/usr/include/newlib/c++/9.2.1/bits/basic_string.h **** 	  _M_construct_aux(__beg, __end, _Integral());
 267:/usr/include/newlib/c++/9.2.1/bits/basic_string.h ****         }
 268:/usr/include/newlib/c++/9.2.1/bits/basic_string.h **** 
 269:/usr/include/newlib/c++/9.2.1/bits/basic_string.h ****       // For Input Iterators, used in istreambuf_iterators, etc.
 270:/usr/include/newlib/c++/9.2.1/bits/basic_string.h ****       template<typename _InIterator>
 271:/usr/include/newlib/c++/9.2.1/bits/basic_string.h ****         void
 272:/usr/include/newlib/c++/9.2.1/bits/basic_string.h ****         _M_construct(_InIterator __beg, _InIterator __end,
 273:/usr/include/newlib/c++/9.2.1/bits/basic_string.h **** 		     std::input_iterator_tag);
 274:/usr/include/newlib/c++/9.2.1/bits/basic_string.h **** 
 275:/usr/include/newlib/c++/9.2.1/bits/basic_string.h ****       // For forward_iterators up to random_access_iterators, used for
 276:/usr/include/newlib/c++/9.2.1/bits/basic_string.h ****       // string::iterator, _CharT*, etc.
 277:/usr/include/newlib/c++/9.2.1/bits/basic_string.h ****       template<typename _FwdIterator>
 278:/usr/include/newlib/c++/9.2.1/bits/basic_string.h ****         void
 279:/usr/include/newlib/c++/9.2.1/bits/basic_string.h ****         _M_construct(_FwdIterator __beg, _FwdIterator __end,
 280:/usr/include/newlib/c++/9.2.1/bits/basic_string.h **** 		     std::forward_iterator_tag);
 281:/usr/include/newlib/c++/9.2.1/bits/basic_string.h **** 
 282:/usr/include/newlib/c++/9.2.1/bits/basic_string.h ****       void
ARM GAS  /tmp/ccgIClPy.s 			page 28


 283:/usr/include/newlib/c++/9.2.1/bits/basic_string.h ****       _M_construct(size_type __req, _CharT __c);
 284:/usr/include/newlib/c++/9.2.1/bits/basic_string.h **** 
 285:/usr/include/newlib/c++/9.2.1/bits/basic_string.h ****       allocator_type&
 286:/usr/include/newlib/c++/9.2.1/bits/basic_string.h ****       _M_get_allocator()
 287:/usr/include/newlib/c++/9.2.1/bits/basic_string.h ****       { return _M_dataplus; }
 288:/usr/include/newlib/c++/9.2.1/bits/basic_string.h **** 
 289:/usr/include/newlib/c++/9.2.1/bits/basic_string.h ****       const allocator_type&
 290:/usr/include/newlib/c++/9.2.1/bits/basic_string.h ****       _M_get_allocator() const
 291:/usr/include/newlib/c++/9.2.1/bits/basic_string.h ****       { return _M_dataplus; }
 292:/usr/include/newlib/c++/9.2.1/bits/basic_string.h **** 
 293:/usr/include/newlib/c++/9.2.1/bits/basic_string.h ****     private:
 294:/usr/include/newlib/c++/9.2.1/bits/basic_string.h **** 
 295:/usr/include/newlib/c++/9.2.1/bits/basic_string.h **** #ifdef _GLIBCXX_DISAMBIGUATE_REPLACE_INST
 296:/usr/include/newlib/c++/9.2.1/bits/basic_string.h ****       // The explicit instantiations in misc-inst.cc require this due to
 297:/usr/include/newlib/c++/9.2.1/bits/basic_string.h ****       // https://gcc.gnu.org/bugzilla/show_bug.cgi?id=64063
 298:/usr/include/newlib/c++/9.2.1/bits/basic_string.h ****       template<typename _Tp, bool _Requires =
 299:/usr/include/newlib/c++/9.2.1/bits/basic_string.h **** 	       !__are_same<_Tp, _CharT*>::__value
 300:/usr/include/newlib/c++/9.2.1/bits/basic_string.h **** 	       && !__are_same<_Tp, const _CharT*>::__value
 301:/usr/include/newlib/c++/9.2.1/bits/basic_string.h **** 	       && !__are_same<_Tp, iterator>::__value
 302:/usr/include/newlib/c++/9.2.1/bits/basic_string.h **** 	       && !__are_same<_Tp, const_iterator>::__value>
 303:/usr/include/newlib/c++/9.2.1/bits/basic_string.h **** 	struct __enable_if_not_native_iterator
 304:/usr/include/newlib/c++/9.2.1/bits/basic_string.h **** 	{ typedef basic_string& __type; };
 305:/usr/include/newlib/c++/9.2.1/bits/basic_string.h ****       template<typename _Tp>
 306:/usr/include/newlib/c++/9.2.1/bits/basic_string.h **** 	struct __enable_if_not_native_iterator<_Tp, false> { };
 307:/usr/include/newlib/c++/9.2.1/bits/basic_string.h **** #endif
 308:/usr/include/newlib/c++/9.2.1/bits/basic_string.h **** 
 309:/usr/include/newlib/c++/9.2.1/bits/basic_string.h ****       size_type
 310:/usr/include/newlib/c++/9.2.1/bits/basic_string.h ****       _M_check(size_type __pos, const char* __s) const
 311:/usr/include/newlib/c++/9.2.1/bits/basic_string.h ****       {
 312:/usr/include/newlib/c++/9.2.1/bits/basic_string.h **** 	if (__pos > this->size())
 313:/usr/include/newlib/c++/9.2.1/bits/basic_string.h **** 	  __throw_out_of_range_fmt(__N("%s: __pos (which is %zu) > "
 314:/usr/include/newlib/c++/9.2.1/bits/basic_string.h **** 				       "this->size() (which is %zu)"),
 315:/usr/include/newlib/c++/9.2.1/bits/basic_string.h **** 				   __s, __pos, this->size());
 316:/usr/include/newlib/c++/9.2.1/bits/basic_string.h **** 	return __pos;
 317:/usr/include/newlib/c++/9.2.1/bits/basic_string.h ****       }
 318:/usr/include/newlib/c++/9.2.1/bits/basic_string.h **** 
 319:/usr/include/newlib/c++/9.2.1/bits/basic_string.h ****       void
 320:/usr/include/newlib/c++/9.2.1/bits/basic_string.h ****       _M_check_length(size_type __n1, size_type __n2, const char* __s) const
 321:/usr/include/newlib/c++/9.2.1/bits/basic_string.h ****       {
 322:/usr/include/newlib/c++/9.2.1/bits/basic_string.h **** 	if (this->max_size() - (this->size() - __n1) < __n2)
 323:/usr/include/newlib/c++/9.2.1/bits/basic_string.h **** 	  __throw_length_error(__N(__s));
 324:/usr/include/newlib/c++/9.2.1/bits/basic_string.h ****       }
 325:/usr/include/newlib/c++/9.2.1/bits/basic_string.h **** 
 326:/usr/include/newlib/c++/9.2.1/bits/basic_string.h **** 
 327:/usr/include/newlib/c++/9.2.1/bits/basic_string.h ****       // NB: _M_limit doesn't check for a bad __pos value.
 328:/usr/include/newlib/c++/9.2.1/bits/basic_string.h ****       size_type
 329:/usr/include/newlib/c++/9.2.1/bits/basic_string.h ****       _M_limit(size_type __pos, size_type __off) const _GLIBCXX_NOEXCEPT
 330:/usr/include/newlib/c++/9.2.1/bits/basic_string.h ****       {
 331:/usr/include/newlib/c++/9.2.1/bits/basic_string.h **** 	const bool __testoff =  __off < this->size() - __pos;
 332:/usr/include/newlib/c++/9.2.1/bits/basic_string.h **** 	return __testoff ? __off : this->size() - __pos;
 333:/usr/include/newlib/c++/9.2.1/bits/basic_string.h ****       }
 334:/usr/include/newlib/c++/9.2.1/bits/basic_string.h **** 
 335:/usr/include/newlib/c++/9.2.1/bits/basic_string.h ****       // True if _Rep and source do not overlap.
 336:/usr/include/newlib/c++/9.2.1/bits/basic_string.h ****       bool
 337:/usr/include/newlib/c++/9.2.1/bits/basic_string.h ****       _M_disjunct(const _CharT* __s) const _GLIBCXX_NOEXCEPT
 338:/usr/include/newlib/c++/9.2.1/bits/basic_string.h ****       {
 339:/usr/include/newlib/c++/9.2.1/bits/basic_string.h **** 	return (less<const _CharT*>()(__s, _M_data())
ARM GAS  /tmp/ccgIClPy.s 			page 29


 340:/usr/include/newlib/c++/9.2.1/bits/basic_string.h **** 		|| less<const _CharT*>()(_M_data() + this->size(), __s));
 341:/usr/include/newlib/c++/9.2.1/bits/basic_string.h ****       }
 342:/usr/include/newlib/c++/9.2.1/bits/basic_string.h **** 
 343:/usr/include/newlib/c++/9.2.1/bits/basic_string.h ****       // When __n = 1 way faster than the general multichar
 344:/usr/include/newlib/c++/9.2.1/bits/basic_string.h ****       // traits_type::copy/move/assign.
 345:/usr/include/newlib/c++/9.2.1/bits/basic_string.h ****       static void
 346:/usr/include/newlib/c++/9.2.1/bits/basic_string.h ****       _S_copy(_CharT* __d, const _CharT* __s, size_type __n)
 347:/usr/include/newlib/c++/9.2.1/bits/basic_string.h ****       {
 348:/usr/include/newlib/c++/9.2.1/bits/basic_string.h **** 	if (__n == 1)
 349:/usr/include/newlib/c++/9.2.1/bits/basic_string.h **** 	  traits_type::assign(*__d, *__s);
 350:/usr/include/newlib/c++/9.2.1/bits/basic_string.h **** 	else
 351:/usr/include/newlib/c++/9.2.1/bits/basic_string.h **** 	  traits_type::copy(__d, __s, __n);
 352:/usr/include/newlib/c++/9.2.1/bits/basic_string.h ****       }
 353:/usr/include/newlib/c++/9.2.1/bits/basic_string.h **** 
 354:/usr/include/newlib/c++/9.2.1/bits/basic_string.h ****       static void
 355:/usr/include/newlib/c++/9.2.1/bits/basic_string.h ****       _S_move(_CharT* __d, const _CharT* __s, size_type __n)
 356:/usr/include/newlib/c++/9.2.1/bits/basic_string.h ****       {
 357:/usr/include/newlib/c++/9.2.1/bits/basic_string.h **** 	if (__n == 1)
 358:/usr/include/newlib/c++/9.2.1/bits/basic_string.h **** 	  traits_type::assign(*__d, *__s);
 359:/usr/include/newlib/c++/9.2.1/bits/basic_string.h **** 	else
 360:/usr/include/newlib/c++/9.2.1/bits/basic_string.h **** 	  traits_type::move(__d, __s, __n);
 361:/usr/include/newlib/c++/9.2.1/bits/basic_string.h ****       }
 362:/usr/include/newlib/c++/9.2.1/bits/basic_string.h **** 
 363:/usr/include/newlib/c++/9.2.1/bits/basic_string.h ****       static void
 364:/usr/include/newlib/c++/9.2.1/bits/basic_string.h ****       _S_assign(_CharT* __d, size_type __n, _CharT __c)
 365:/usr/include/newlib/c++/9.2.1/bits/basic_string.h ****       {
 366:/usr/include/newlib/c++/9.2.1/bits/basic_string.h **** 	if (__n == 1)
 367:/usr/include/newlib/c++/9.2.1/bits/basic_string.h **** 	  traits_type::assign(*__d, __c);
 368:/usr/include/newlib/c++/9.2.1/bits/basic_string.h **** 	else
 369:/usr/include/newlib/c++/9.2.1/bits/basic_string.h **** 	  traits_type::assign(__d, __n, __c);
 370:/usr/include/newlib/c++/9.2.1/bits/basic_string.h ****       }
 371:/usr/include/newlib/c++/9.2.1/bits/basic_string.h **** 
 372:/usr/include/newlib/c++/9.2.1/bits/basic_string.h ****       // _S_copy_chars is a separate template to permit specialization
 373:/usr/include/newlib/c++/9.2.1/bits/basic_string.h ****       // to optimize for the common case of pointers as iterators.
 374:/usr/include/newlib/c++/9.2.1/bits/basic_string.h ****       template<class _Iterator>
 375:/usr/include/newlib/c++/9.2.1/bits/basic_string.h ****         static void
 376:/usr/include/newlib/c++/9.2.1/bits/basic_string.h ****         _S_copy_chars(_CharT* __p, _Iterator __k1, _Iterator __k2)
 377:/usr/include/newlib/c++/9.2.1/bits/basic_string.h ****         {
 378:/usr/include/newlib/c++/9.2.1/bits/basic_string.h **** 	  for (; __k1 != __k2; ++__k1, (void)++__p)
 379:/usr/include/newlib/c++/9.2.1/bits/basic_string.h **** 	    traits_type::assign(*__p, *__k1); // These types are off.
 380:/usr/include/newlib/c++/9.2.1/bits/basic_string.h **** 	}
 381:/usr/include/newlib/c++/9.2.1/bits/basic_string.h **** 
 382:/usr/include/newlib/c++/9.2.1/bits/basic_string.h ****       static void
 383:/usr/include/newlib/c++/9.2.1/bits/basic_string.h ****       _S_copy_chars(_CharT* __p, iterator __k1, iterator __k2) _GLIBCXX_NOEXCEPT
 384:/usr/include/newlib/c++/9.2.1/bits/basic_string.h ****       { _S_copy_chars(__p, __k1.base(), __k2.base()); }
 385:/usr/include/newlib/c++/9.2.1/bits/basic_string.h **** 
 386:/usr/include/newlib/c++/9.2.1/bits/basic_string.h ****       static void
 387:/usr/include/newlib/c++/9.2.1/bits/basic_string.h ****       _S_copy_chars(_CharT* __p, const_iterator __k1, const_iterator __k2)
 388:/usr/include/newlib/c++/9.2.1/bits/basic_string.h ****       _GLIBCXX_NOEXCEPT
 389:/usr/include/newlib/c++/9.2.1/bits/basic_string.h ****       { _S_copy_chars(__p, __k1.base(), __k2.base()); }
 390:/usr/include/newlib/c++/9.2.1/bits/basic_string.h **** 
 391:/usr/include/newlib/c++/9.2.1/bits/basic_string.h ****       static void
 392:/usr/include/newlib/c++/9.2.1/bits/basic_string.h ****       _S_copy_chars(_CharT* __p, _CharT* __k1, _CharT* __k2) _GLIBCXX_NOEXCEPT
 393:/usr/include/newlib/c++/9.2.1/bits/basic_string.h ****       { _S_copy(__p, __k1, __k2 - __k1); }
 394:/usr/include/newlib/c++/9.2.1/bits/basic_string.h **** 
 395:/usr/include/newlib/c++/9.2.1/bits/basic_string.h ****       static void
 396:/usr/include/newlib/c++/9.2.1/bits/basic_string.h ****       _S_copy_chars(_CharT* __p, const _CharT* __k1, const _CharT* __k2)
ARM GAS  /tmp/ccgIClPy.s 			page 30


 397:/usr/include/newlib/c++/9.2.1/bits/basic_string.h ****       _GLIBCXX_NOEXCEPT
 398:/usr/include/newlib/c++/9.2.1/bits/basic_string.h ****       { _S_copy(__p, __k1, __k2 - __k1); }
 399:/usr/include/newlib/c++/9.2.1/bits/basic_string.h **** 
 400:/usr/include/newlib/c++/9.2.1/bits/basic_string.h ****       static int
 401:/usr/include/newlib/c++/9.2.1/bits/basic_string.h ****       _S_compare(size_type __n1, size_type __n2) _GLIBCXX_NOEXCEPT
 402:/usr/include/newlib/c++/9.2.1/bits/basic_string.h ****       {
 403:/usr/include/newlib/c++/9.2.1/bits/basic_string.h **** 	const difference_type __d = difference_type(__n1 - __n2);
 404:/usr/include/newlib/c++/9.2.1/bits/basic_string.h **** 
 405:/usr/include/newlib/c++/9.2.1/bits/basic_string.h **** 	if (__d > __gnu_cxx::__numeric_traits<int>::__max)
 406:/usr/include/newlib/c++/9.2.1/bits/basic_string.h **** 	  return __gnu_cxx::__numeric_traits<int>::__max;
 407:/usr/include/newlib/c++/9.2.1/bits/basic_string.h **** 	else if (__d < __gnu_cxx::__numeric_traits<int>::__min)
 408:/usr/include/newlib/c++/9.2.1/bits/basic_string.h **** 	  return __gnu_cxx::__numeric_traits<int>::__min;
 409:/usr/include/newlib/c++/9.2.1/bits/basic_string.h **** 	else
 410:/usr/include/newlib/c++/9.2.1/bits/basic_string.h **** 	  return int(__d);
 411:/usr/include/newlib/c++/9.2.1/bits/basic_string.h ****       }
 412:/usr/include/newlib/c++/9.2.1/bits/basic_string.h **** 
 413:/usr/include/newlib/c++/9.2.1/bits/basic_string.h ****       void
 414:/usr/include/newlib/c++/9.2.1/bits/basic_string.h ****       _M_assign(const basic_string&);
 415:/usr/include/newlib/c++/9.2.1/bits/basic_string.h **** 
 416:/usr/include/newlib/c++/9.2.1/bits/basic_string.h ****       void
 417:/usr/include/newlib/c++/9.2.1/bits/basic_string.h ****       _M_mutate(size_type __pos, size_type __len1, const _CharT* __s,
 418:/usr/include/newlib/c++/9.2.1/bits/basic_string.h **** 		size_type __len2);
 419:/usr/include/newlib/c++/9.2.1/bits/basic_string.h **** 
 420:/usr/include/newlib/c++/9.2.1/bits/basic_string.h ****       void
 421:/usr/include/newlib/c++/9.2.1/bits/basic_string.h ****       _M_erase(size_type __pos, size_type __n);
 422:/usr/include/newlib/c++/9.2.1/bits/basic_string.h **** 
 423:/usr/include/newlib/c++/9.2.1/bits/basic_string.h ****     public:
 424:/usr/include/newlib/c++/9.2.1/bits/basic_string.h ****       // Construct/copy/destroy:
 425:/usr/include/newlib/c++/9.2.1/bits/basic_string.h ****       // NB: We overload ctors in some cases instead of using default
 426:/usr/include/newlib/c++/9.2.1/bits/basic_string.h ****       // arguments, per 17.4.4.4 para. 2 item 2.
 427:/usr/include/newlib/c++/9.2.1/bits/basic_string.h **** 
 428:/usr/include/newlib/c++/9.2.1/bits/basic_string.h ****       /**
 429:/usr/include/newlib/c++/9.2.1/bits/basic_string.h ****        *  @brief  Default constructor creates an empty string.
 430:/usr/include/newlib/c++/9.2.1/bits/basic_string.h ****        */
 431:/usr/include/newlib/c++/9.2.1/bits/basic_string.h ****       basic_string()
 432:/usr/include/newlib/c++/9.2.1/bits/basic_string.h ****       _GLIBCXX_NOEXCEPT_IF(is_nothrow_default_constructible<_Alloc>::value)
 433:/usr/include/newlib/c++/9.2.1/bits/basic_string.h ****       : _M_dataplus(_M_local_data())
 434:/usr/include/newlib/c++/9.2.1/bits/basic_string.h ****       { _M_set_length(0); }
 435:/usr/include/newlib/c++/9.2.1/bits/basic_string.h **** 
 436:/usr/include/newlib/c++/9.2.1/bits/basic_string.h ****       /**
 437:/usr/include/newlib/c++/9.2.1/bits/basic_string.h ****        *  @brief  Construct an empty string using allocator @a a.
 438:/usr/include/newlib/c++/9.2.1/bits/basic_string.h ****        */
 439:/usr/include/newlib/c++/9.2.1/bits/basic_string.h ****       explicit
 440:/usr/include/newlib/c++/9.2.1/bits/basic_string.h ****       basic_string(const _Alloc& __a) _GLIBCXX_NOEXCEPT
 441:/usr/include/newlib/c++/9.2.1/bits/basic_string.h ****       : _M_dataplus(_M_local_data(), __a)
 442:/usr/include/newlib/c++/9.2.1/bits/basic_string.h ****       { _M_set_length(0); }
 443:/usr/include/newlib/c++/9.2.1/bits/basic_string.h **** 
 444:/usr/include/newlib/c++/9.2.1/bits/basic_string.h ****       /**
 445:/usr/include/newlib/c++/9.2.1/bits/basic_string.h ****        *  @brief  Construct string with copy of value of @a __str.
 446:/usr/include/newlib/c++/9.2.1/bits/basic_string.h ****        *  @param  __str  Source string.
 447:/usr/include/newlib/c++/9.2.1/bits/basic_string.h ****        */
 448:/usr/include/newlib/c++/9.2.1/bits/basic_string.h ****       basic_string(const basic_string& __str)
 449:/usr/include/newlib/c++/9.2.1/bits/basic_string.h ****       : _M_dataplus(_M_local_data(),
 450:/usr/include/newlib/c++/9.2.1/bits/basic_string.h **** 		    _Alloc_traits::_S_select_on_copy(__str._M_get_allocator()))
 451:/usr/include/newlib/c++/9.2.1/bits/basic_string.h ****       { _M_construct(__str._M_data(), __str._M_data() + __str.length()); }
 452:/usr/include/newlib/c++/9.2.1/bits/basic_string.h **** 
 453:/usr/include/newlib/c++/9.2.1/bits/basic_string.h ****       // _GLIBCXX_RESOLVE_LIB_DEFECTS
ARM GAS  /tmp/ccgIClPy.s 			page 31


 454:/usr/include/newlib/c++/9.2.1/bits/basic_string.h ****       // 2583. no way to supply an allocator for basic_string(str, pos)
 455:/usr/include/newlib/c++/9.2.1/bits/basic_string.h ****       /**
 456:/usr/include/newlib/c++/9.2.1/bits/basic_string.h ****        *  @brief  Construct string as copy of a substring.
 457:/usr/include/newlib/c++/9.2.1/bits/basic_string.h ****        *  @param  __str  Source string.
 458:/usr/include/newlib/c++/9.2.1/bits/basic_string.h ****        *  @param  __pos  Index of first character to copy from.
 459:/usr/include/newlib/c++/9.2.1/bits/basic_string.h ****        *  @param  __a  Allocator to use.
 460:/usr/include/newlib/c++/9.2.1/bits/basic_string.h ****        */
 461:/usr/include/newlib/c++/9.2.1/bits/basic_string.h ****       basic_string(const basic_string& __str, size_type __pos,
 462:/usr/include/newlib/c++/9.2.1/bits/basic_string.h **** 		   const _Alloc& __a = _Alloc())
 463:/usr/include/newlib/c++/9.2.1/bits/basic_string.h ****       : _M_dataplus(_M_local_data(), __a)
 464:/usr/include/newlib/c++/9.2.1/bits/basic_string.h ****       {
 465:/usr/include/newlib/c++/9.2.1/bits/basic_string.h **** 	const _CharT* __start = __str._M_data()
 466:/usr/include/newlib/c++/9.2.1/bits/basic_string.h **** 	  + __str._M_check(__pos, "basic_string::basic_string");
 467:/usr/include/newlib/c++/9.2.1/bits/basic_string.h **** 	_M_construct(__start, __start + __str._M_limit(__pos, npos));
 468:/usr/include/newlib/c++/9.2.1/bits/basic_string.h ****       }
 469:/usr/include/newlib/c++/9.2.1/bits/basic_string.h **** 
 470:/usr/include/newlib/c++/9.2.1/bits/basic_string.h ****       /**
 471:/usr/include/newlib/c++/9.2.1/bits/basic_string.h ****        *  @brief  Construct string as copy of a substring.
 472:/usr/include/newlib/c++/9.2.1/bits/basic_string.h ****        *  @param  __str  Source string.
 473:/usr/include/newlib/c++/9.2.1/bits/basic_string.h ****        *  @param  __pos  Index of first character to copy from.
 474:/usr/include/newlib/c++/9.2.1/bits/basic_string.h ****        *  @param  __n  Number of characters to copy.
 475:/usr/include/newlib/c++/9.2.1/bits/basic_string.h ****        */
 476:/usr/include/newlib/c++/9.2.1/bits/basic_string.h ****       basic_string(const basic_string& __str, size_type __pos,
 477:/usr/include/newlib/c++/9.2.1/bits/basic_string.h **** 		   size_type __n)
 478:/usr/include/newlib/c++/9.2.1/bits/basic_string.h ****       : _M_dataplus(_M_local_data())
 479:/usr/include/newlib/c++/9.2.1/bits/basic_string.h ****       {
 480:/usr/include/newlib/c++/9.2.1/bits/basic_string.h **** 	const _CharT* __start = __str._M_data()
 481:/usr/include/newlib/c++/9.2.1/bits/basic_string.h **** 	  + __str._M_check(__pos, "basic_string::basic_string");
 482:/usr/include/newlib/c++/9.2.1/bits/basic_string.h **** 	_M_construct(__start, __start + __str._M_limit(__pos, __n));
 483:/usr/include/newlib/c++/9.2.1/bits/basic_string.h ****       }
 484:/usr/include/newlib/c++/9.2.1/bits/basic_string.h **** 
 485:/usr/include/newlib/c++/9.2.1/bits/basic_string.h ****       /**
 486:/usr/include/newlib/c++/9.2.1/bits/basic_string.h ****        *  @brief  Construct string as copy of a substring.
 487:/usr/include/newlib/c++/9.2.1/bits/basic_string.h ****        *  @param  __str  Source string.
 488:/usr/include/newlib/c++/9.2.1/bits/basic_string.h ****        *  @param  __pos  Index of first character to copy from.
 489:/usr/include/newlib/c++/9.2.1/bits/basic_string.h ****        *  @param  __n  Number of characters to copy.
 490:/usr/include/newlib/c++/9.2.1/bits/basic_string.h ****        *  @param  __a  Allocator to use.
 491:/usr/include/newlib/c++/9.2.1/bits/basic_string.h ****        */
 492:/usr/include/newlib/c++/9.2.1/bits/basic_string.h ****       basic_string(const basic_string& __str, size_type __pos,
 493:/usr/include/newlib/c++/9.2.1/bits/basic_string.h **** 		   size_type __n, const _Alloc& __a)
 494:/usr/include/newlib/c++/9.2.1/bits/basic_string.h ****       : _M_dataplus(_M_local_data(), __a)
 495:/usr/include/newlib/c++/9.2.1/bits/basic_string.h ****       {
 496:/usr/include/newlib/c++/9.2.1/bits/basic_string.h **** 	const _CharT* __start
 497:/usr/include/newlib/c++/9.2.1/bits/basic_string.h **** 	  = __str._M_data() + __str._M_check(__pos, "string::string");
 498:/usr/include/newlib/c++/9.2.1/bits/basic_string.h **** 	_M_construct(__start, __start + __str._M_limit(__pos, __n));
 499:/usr/include/newlib/c++/9.2.1/bits/basic_string.h ****       }
 500:/usr/include/newlib/c++/9.2.1/bits/basic_string.h **** 
 501:/usr/include/newlib/c++/9.2.1/bits/basic_string.h ****       /**
 502:/usr/include/newlib/c++/9.2.1/bits/basic_string.h ****        *  @brief  Construct string initialized by a character %array.
 503:/usr/include/newlib/c++/9.2.1/bits/basic_string.h ****        *  @param  __s  Source character %array.
 504:/usr/include/newlib/c++/9.2.1/bits/basic_string.h ****        *  @param  __n  Number of characters to copy.
 505:/usr/include/newlib/c++/9.2.1/bits/basic_string.h ****        *  @param  __a  Allocator to use (default is default allocator).
 506:/usr/include/newlib/c++/9.2.1/bits/basic_string.h ****        *
 507:/usr/include/newlib/c++/9.2.1/bits/basic_string.h ****        *  NB: @a __s must have at least @a __n characters, &apos;\\0&apos;
 508:/usr/include/newlib/c++/9.2.1/bits/basic_string.h ****        *  has no special meaning.
 509:/usr/include/newlib/c++/9.2.1/bits/basic_string.h ****        */
 510:/usr/include/newlib/c++/9.2.1/bits/basic_string.h ****       basic_string(const _CharT* __s, size_type __n,
ARM GAS  /tmp/ccgIClPy.s 			page 32


 511:/usr/include/newlib/c++/9.2.1/bits/basic_string.h **** 		   const _Alloc& __a = _Alloc())
 512:/usr/include/newlib/c++/9.2.1/bits/basic_string.h ****       : _M_dataplus(_M_local_data(), __a)
 513:/usr/include/newlib/c++/9.2.1/bits/basic_string.h ****       { _M_construct(__s, __s + __n); }
 514:/usr/include/newlib/c++/9.2.1/bits/basic_string.h **** 
 515:/usr/include/newlib/c++/9.2.1/bits/basic_string.h ****       /**
 516:/usr/include/newlib/c++/9.2.1/bits/basic_string.h ****        *  @brief  Construct string as copy of a C string.
 517:/usr/include/newlib/c++/9.2.1/bits/basic_string.h ****        *  @param  __s  Source C string.
 518:/usr/include/newlib/c++/9.2.1/bits/basic_string.h ****        *  @param  __a  Allocator to use (default is default allocator).
 519:/usr/include/newlib/c++/9.2.1/bits/basic_string.h ****        */
 520:/usr/include/newlib/c++/9.2.1/bits/basic_string.h **** #if __cpp_deduction_guides && ! defined _GLIBCXX_DEFINING_STRING_INSTANTIATIONS
 521:/usr/include/newlib/c++/9.2.1/bits/basic_string.h ****       // _GLIBCXX_RESOLVE_LIB_DEFECTS
 522:/usr/include/newlib/c++/9.2.1/bits/basic_string.h ****       // 3076. basic_string CTAD ambiguity
 523:/usr/include/newlib/c++/9.2.1/bits/basic_string.h ****       template<typename = _RequireAllocator<_Alloc>>
 524:/usr/include/newlib/c++/9.2.1/bits/basic_string.h **** #endif
 525:/usr/include/newlib/c++/9.2.1/bits/basic_string.h ****       basic_string(const _CharT* __s, const _Alloc& __a = _Alloc())
 526:/usr/include/newlib/c++/9.2.1/bits/basic_string.h ****       : _M_dataplus(_M_local_data(), __a)
 527:/usr/include/newlib/c++/9.2.1/bits/basic_string.h ****       { _M_construct(__s, __s ? __s + traits_type::length(__s) : __s+npos); }
 528:/usr/include/newlib/c++/9.2.1/bits/basic_string.h **** 
 529:/usr/include/newlib/c++/9.2.1/bits/basic_string.h ****       /**
 530:/usr/include/newlib/c++/9.2.1/bits/basic_string.h ****        *  @brief  Construct string as multiple characters.
 531:/usr/include/newlib/c++/9.2.1/bits/basic_string.h ****        *  @param  __n  Number of characters.
 532:/usr/include/newlib/c++/9.2.1/bits/basic_string.h ****        *  @param  __c  Character to use.
 533:/usr/include/newlib/c++/9.2.1/bits/basic_string.h ****        *  @param  __a  Allocator to use (default is default allocator).
 534:/usr/include/newlib/c++/9.2.1/bits/basic_string.h ****        */
 535:/usr/include/newlib/c++/9.2.1/bits/basic_string.h **** #if __cpp_deduction_guides && ! defined _GLIBCXX_DEFINING_STRING_INSTANTIATIONS
 536:/usr/include/newlib/c++/9.2.1/bits/basic_string.h ****       // _GLIBCXX_RESOLVE_LIB_DEFECTS
 537:/usr/include/newlib/c++/9.2.1/bits/basic_string.h ****       // 3076. basic_string CTAD ambiguity
 538:/usr/include/newlib/c++/9.2.1/bits/basic_string.h ****       template<typename = _RequireAllocator<_Alloc>>
 539:/usr/include/newlib/c++/9.2.1/bits/basic_string.h **** #endif
 540:/usr/include/newlib/c++/9.2.1/bits/basic_string.h ****       basic_string(size_type __n, _CharT __c, const _Alloc& __a = _Alloc())
 541:/usr/include/newlib/c++/9.2.1/bits/basic_string.h ****       : _M_dataplus(_M_local_data(), __a)
 542:/usr/include/newlib/c++/9.2.1/bits/basic_string.h ****       { _M_construct(__n, __c); }
 543:/usr/include/newlib/c++/9.2.1/bits/basic_string.h **** 
 544:/usr/include/newlib/c++/9.2.1/bits/basic_string.h **** #if __cplusplus >= 201103L
 545:/usr/include/newlib/c++/9.2.1/bits/basic_string.h ****       /**
 546:/usr/include/newlib/c++/9.2.1/bits/basic_string.h ****        *  @brief  Move construct string.
 547:/usr/include/newlib/c++/9.2.1/bits/basic_string.h ****        *  @param  __str  Source string.
 548:/usr/include/newlib/c++/9.2.1/bits/basic_string.h ****        *
 549:/usr/include/newlib/c++/9.2.1/bits/basic_string.h ****        *  The newly-created string contains the exact contents of @a __str.
 550:/usr/include/newlib/c++/9.2.1/bits/basic_string.h ****        *  @a __str is a valid, but unspecified string.
 551:/usr/include/newlib/c++/9.2.1/bits/basic_string.h ****        **/
 552:/usr/include/newlib/c++/9.2.1/bits/basic_string.h ****       basic_string(basic_string&& __str) noexcept
 553:/usr/include/newlib/c++/9.2.1/bits/basic_string.h ****       : _M_dataplus(_M_local_data(), std::move(__str._M_get_allocator()))
 554:/usr/include/newlib/c++/9.2.1/bits/basic_string.h ****       {
 555:/usr/include/newlib/c++/9.2.1/bits/basic_string.h **** 	if (__str._M_is_local())
 556:/usr/include/newlib/c++/9.2.1/bits/basic_string.h **** 	  {
 557:/usr/include/newlib/c++/9.2.1/bits/basic_string.h **** 	    traits_type::copy(_M_local_buf, __str._M_local_buf,
 558:/usr/include/newlib/c++/9.2.1/bits/basic_string.h **** 			      _S_local_capacity + 1);
 559:/usr/include/newlib/c++/9.2.1/bits/basic_string.h **** 	  }
 560:/usr/include/newlib/c++/9.2.1/bits/basic_string.h **** 	else
 561:/usr/include/newlib/c++/9.2.1/bits/basic_string.h **** 	  {
 562:/usr/include/newlib/c++/9.2.1/bits/basic_string.h **** 	    _M_data(__str._M_data());
 563:/usr/include/newlib/c++/9.2.1/bits/basic_string.h **** 	    _M_capacity(__str._M_allocated_capacity);
 564:/usr/include/newlib/c++/9.2.1/bits/basic_string.h **** 	  }
 565:/usr/include/newlib/c++/9.2.1/bits/basic_string.h **** 
 566:/usr/include/newlib/c++/9.2.1/bits/basic_string.h **** 	// Must use _M_length() here not _M_set_length() because
 567:/usr/include/newlib/c++/9.2.1/bits/basic_string.h **** 	// basic_stringbuf relies on writing into unallocated capacity so
ARM GAS  /tmp/ccgIClPy.s 			page 33


 568:/usr/include/newlib/c++/9.2.1/bits/basic_string.h **** 	// we mess up the contents if we put a '\0' in the string.
 569:/usr/include/newlib/c++/9.2.1/bits/basic_string.h **** 	_M_length(__str.length());
 570:/usr/include/newlib/c++/9.2.1/bits/basic_string.h **** 	__str._M_data(__str._M_local_data());
 571:/usr/include/newlib/c++/9.2.1/bits/basic_string.h **** 	__str._M_set_length(0);
 572:/usr/include/newlib/c++/9.2.1/bits/basic_string.h ****       }
 573:/usr/include/newlib/c++/9.2.1/bits/basic_string.h **** 
 574:/usr/include/newlib/c++/9.2.1/bits/basic_string.h ****       /**
 575:/usr/include/newlib/c++/9.2.1/bits/basic_string.h ****        *  @brief  Construct string from an initializer %list.
 576:/usr/include/newlib/c++/9.2.1/bits/basic_string.h ****        *  @param  __l  std::initializer_list of characters.
 577:/usr/include/newlib/c++/9.2.1/bits/basic_string.h ****        *  @param  __a  Allocator to use (default is default allocator).
 578:/usr/include/newlib/c++/9.2.1/bits/basic_string.h ****        */
 579:/usr/include/newlib/c++/9.2.1/bits/basic_string.h ****       basic_string(initializer_list<_CharT> __l, const _Alloc& __a = _Alloc())
 580:/usr/include/newlib/c++/9.2.1/bits/basic_string.h ****       : _M_dataplus(_M_local_data(), __a)
 581:/usr/include/newlib/c++/9.2.1/bits/basic_string.h ****       { _M_construct(__l.begin(), __l.end()); }
 582:/usr/include/newlib/c++/9.2.1/bits/basic_string.h **** 
 583:/usr/include/newlib/c++/9.2.1/bits/basic_string.h ****       basic_string(const basic_string& __str, const _Alloc& __a)
 584:/usr/include/newlib/c++/9.2.1/bits/basic_string.h ****       : _M_dataplus(_M_local_data(), __a)
 585:/usr/include/newlib/c++/9.2.1/bits/basic_string.h ****       { _M_construct(__str.begin(), __str.end()); }
 586:/usr/include/newlib/c++/9.2.1/bits/basic_string.h **** 
 587:/usr/include/newlib/c++/9.2.1/bits/basic_string.h ****       basic_string(basic_string&& __str, const _Alloc& __a)
 588:/usr/include/newlib/c++/9.2.1/bits/basic_string.h ****       noexcept(_Alloc_traits::_S_always_equal())
 589:/usr/include/newlib/c++/9.2.1/bits/basic_string.h ****       : _M_dataplus(_M_local_data(), __a)
 590:/usr/include/newlib/c++/9.2.1/bits/basic_string.h ****       {
 591:/usr/include/newlib/c++/9.2.1/bits/basic_string.h **** 	if (__str._M_is_local())
 592:/usr/include/newlib/c++/9.2.1/bits/basic_string.h **** 	  {
 593:/usr/include/newlib/c++/9.2.1/bits/basic_string.h **** 	    traits_type::copy(_M_local_buf, __str._M_local_buf,
 594:/usr/include/newlib/c++/9.2.1/bits/basic_string.h **** 			      _S_local_capacity + 1);
 595:/usr/include/newlib/c++/9.2.1/bits/basic_string.h **** 	    _M_length(__str.length());
 596:/usr/include/newlib/c++/9.2.1/bits/basic_string.h **** 	    __str._M_set_length(0);
 597:/usr/include/newlib/c++/9.2.1/bits/basic_string.h **** 	  }
 598:/usr/include/newlib/c++/9.2.1/bits/basic_string.h **** 	else if (_Alloc_traits::_S_always_equal()
 599:/usr/include/newlib/c++/9.2.1/bits/basic_string.h **** 	    || __str.get_allocator() == __a)
 600:/usr/include/newlib/c++/9.2.1/bits/basic_string.h **** 	  {
 601:/usr/include/newlib/c++/9.2.1/bits/basic_string.h **** 	    _M_data(__str._M_data());
 602:/usr/include/newlib/c++/9.2.1/bits/basic_string.h **** 	    _M_length(__str.length());
 603:/usr/include/newlib/c++/9.2.1/bits/basic_string.h **** 	    _M_capacity(__str._M_allocated_capacity);
 604:/usr/include/newlib/c++/9.2.1/bits/basic_string.h **** 	    __str._M_data(__str._M_local_buf);
 605:/usr/include/newlib/c++/9.2.1/bits/basic_string.h **** 	    __str._M_set_length(0);
 606:/usr/include/newlib/c++/9.2.1/bits/basic_string.h **** 	  }
 607:/usr/include/newlib/c++/9.2.1/bits/basic_string.h **** 	else
 608:/usr/include/newlib/c++/9.2.1/bits/basic_string.h **** 	  _M_construct(__str.begin(), __str.end());
 609:/usr/include/newlib/c++/9.2.1/bits/basic_string.h ****       }
 610:/usr/include/newlib/c++/9.2.1/bits/basic_string.h **** 
 611:/usr/include/newlib/c++/9.2.1/bits/basic_string.h **** #endif // C++11
 612:/usr/include/newlib/c++/9.2.1/bits/basic_string.h **** 
 613:/usr/include/newlib/c++/9.2.1/bits/basic_string.h ****       /**
 614:/usr/include/newlib/c++/9.2.1/bits/basic_string.h ****        *  @brief  Construct string as copy of a range.
 615:/usr/include/newlib/c++/9.2.1/bits/basic_string.h ****        *  @param  __beg  Start of range.
 616:/usr/include/newlib/c++/9.2.1/bits/basic_string.h ****        *  @param  __end  End of range.
 617:/usr/include/newlib/c++/9.2.1/bits/basic_string.h ****        *  @param  __a  Allocator to use (default is default allocator).
 618:/usr/include/newlib/c++/9.2.1/bits/basic_string.h ****        */
 619:/usr/include/newlib/c++/9.2.1/bits/basic_string.h **** #if __cplusplus >= 201103L
 620:/usr/include/newlib/c++/9.2.1/bits/basic_string.h ****       template<typename _InputIterator,
 621:/usr/include/newlib/c++/9.2.1/bits/basic_string.h **** 	       typename = std::_RequireInputIter<_InputIterator>>
 622:/usr/include/newlib/c++/9.2.1/bits/basic_string.h **** #else
 623:/usr/include/newlib/c++/9.2.1/bits/basic_string.h ****       template<typename _InputIterator>
 624:/usr/include/newlib/c++/9.2.1/bits/basic_string.h **** #endif
ARM GAS  /tmp/ccgIClPy.s 			page 34


 625:/usr/include/newlib/c++/9.2.1/bits/basic_string.h ****         basic_string(_InputIterator __beg, _InputIterator __end,
 626:/usr/include/newlib/c++/9.2.1/bits/basic_string.h **** 		     const _Alloc& __a = _Alloc())
 627:/usr/include/newlib/c++/9.2.1/bits/basic_string.h **** 	: _M_dataplus(_M_local_data(), __a)
 628:/usr/include/newlib/c++/9.2.1/bits/basic_string.h **** 	{ _M_construct(__beg, __end); }
 629:/usr/include/newlib/c++/9.2.1/bits/basic_string.h **** 
 630:/usr/include/newlib/c++/9.2.1/bits/basic_string.h **** #if __cplusplus >= 201703L
 631:/usr/include/newlib/c++/9.2.1/bits/basic_string.h ****       /**
 632:/usr/include/newlib/c++/9.2.1/bits/basic_string.h ****        *  @brief  Construct string from a substring of a string_view.
 633:/usr/include/newlib/c++/9.2.1/bits/basic_string.h ****        *  @param  __t   Source object convertible to string view.
 634:/usr/include/newlib/c++/9.2.1/bits/basic_string.h ****        *  @param  __pos The index of the first character to copy from __t.
 635:/usr/include/newlib/c++/9.2.1/bits/basic_string.h ****        *  @param  __n   The number of characters to copy from __t.
 636:/usr/include/newlib/c++/9.2.1/bits/basic_string.h ****        *  @param  __a   Allocator to use.
 637:/usr/include/newlib/c++/9.2.1/bits/basic_string.h ****        */
 638:/usr/include/newlib/c++/9.2.1/bits/basic_string.h ****       template<typename _Tp, typename = _If_sv<_Tp, void>>
 639:/usr/include/newlib/c++/9.2.1/bits/basic_string.h **** 	basic_string(const _Tp& __t, size_type __pos, size_type __n,
 640:/usr/include/newlib/c++/9.2.1/bits/basic_string.h **** 		     const _Alloc& __a = _Alloc())
 641:/usr/include/newlib/c++/9.2.1/bits/basic_string.h **** 	: basic_string(_S_to_string_view(__t).substr(__pos, __n), __a) { }
 642:/usr/include/newlib/c++/9.2.1/bits/basic_string.h **** 
 643:/usr/include/newlib/c++/9.2.1/bits/basic_string.h ****       /**
 644:/usr/include/newlib/c++/9.2.1/bits/basic_string.h ****        *  @brief  Construct string from a string_view.
 645:/usr/include/newlib/c++/9.2.1/bits/basic_string.h ****        *  @param  __t  Source object convertible to string view.
 646:/usr/include/newlib/c++/9.2.1/bits/basic_string.h ****        *  @param  __a  Allocator to use (default is default allocator).
 647:/usr/include/newlib/c++/9.2.1/bits/basic_string.h ****        */
 648:/usr/include/newlib/c++/9.2.1/bits/basic_string.h ****       template<typename _Tp, typename = _If_sv<_Tp, void>>
 649:/usr/include/newlib/c++/9.2.1/bits/basic_string.h **** 	explicit
 650:/usr/include/newlib/c++/9.2.1/bits/basic_string.h **** 	basic_string(const _Tp& __t, const _Alloc& __a = _Alloc())
 651:/usr/include/newlib/c++/9.2.1/bits/basic_string.h **** 	: basic_string(__sv_wrapper(_S_to_string_view(__t)), __a) { }
 652:/usr/include/newlib/c++/9.2.1/bits/basic_string.h **** #endif // C++17
 653:/usr/include/newlib/c++/9.2.1/bits/basic_string.h **** 
 654:/usr/include/newlib/c++/9.2.1/bits/basic_string.h ****       /**
 655:/usr/include/newlib/c++/9.2.1/bits/basic_string.h ****        *  @brief  Destroy the string instance.
 656:/usr/include/newlib/c++/9.2.1/bits/basic_string.h ****        */
 657:/usr/include/newlib/c++/9.2.1/bits/basic_string.h ****       ~basic_string()
 283              		.loc 14 657 7 discriminator 3 view .LVU43
 284              	.LBB787:
 285              	.LBI787:
 229:/usr/include/newlib/c++/9.2.1/bits/basic_string.h ****       {
 286              		.loc 14 229 7 discriminator 3 view .LVU44
 287              	.LBB788:
 288              	.LBB789:
 289              	.LBI789:
 221:/usr/include/newlib/c++/9.2.1/bits/basic_string.h ****       { return _M_data() == _M_local_data(); }
 290              		.loc 14 221 7 discriminator 3 view .LVU45
 221:/usr/include/newlib/c++/9.2.1/bits/basic_string.h ****       { return _M_data() == _M_local_data(); }
 291              		.loc 14 221 7 is_stmt 0 discriminator 3 view .LVU46
 292              	.LBE789:
 293              	.LBB791:
 294              	.LBI791:
 236:/usr/include/newlib/c++/9.2.1/bits/basic_string.h ****       { _Alloc_traits::deallocate(_M_get_allocator(), _M_data(), __size + 1); }
 295              		.loc 14 236 7 is_stmt 1 discriminator 3 view .LVU47
 236:/usr/include/newlib/c++/9.2.1/bits/basic_string.h ****       { _Alloc_traits::deallocate(_M_get_allocator(), _M_data(), __size + 1); }
 296              		.loc 14 236 7 is_stmt 0 discriminator 3 view .LVU48
 297              	.LBE791:
 298              	.LBB799:
 299              	.LBB790:
 222:/usr/include/newlib/c++/9.2.1/bits/basic_string.h **** 
 300              		.loc 14 222 26 discriminator 3 view .LVU49
ARM GAS  /tmp/ccgIClPy.s 			page 35


 301 0008 54F8080C 		ldr	r0, [r4, #-8]
 302              	.LVL11:
 222:/usr/include/newlib/c++/9.2.1/bits/basic_string.h **** 
 303              		.loc 14 222 26 discriminator 3 view .LVU50
 304              	.LBE790:
 305              	.LBE799:
 306              	.LBB800:
 307              	.LBB792:
 308              	.LBB793:
 309              	.LBI793:
 310              		.file 15 "/usr/include/newlib/c++/9.2.1/bits/alloc_traits.h"
   1:/usr/include/newlib/c++/9.2.1/bits/alloc_traits.h **** // Allocator traits -*- C++ -*-
   2:/usr/include/newlib/c++/9.2.1/bits/alloc_traits.h **** 
   3:/usr/include/newlib/c++/9.2.1/bits/alloc_traits.h **** // Copyright (C) 2011-2019 Free Software Foundation, Inc.
   4:/usr/include/newlib/c++/9.2.1/bits/alloc_traits.h **** //
   5:/usr/include/newlib/c++/9.2.1/bits/alloc_traits.h **** // This file is part of the GNU ISO C++ Library.  This library is free
   6:/usr/include/newlib/c++/9.2.1/bits/alloc_traits.h **** // software; you can redistribute it and/or modify it under the
   7:/usr/include/newlib/c++/9.2.1/bits/alloc_traits.h **** // terms of the GNU General Public License as published by the
   8:/usr/include/newlib/c++/9.2.1/bits/alloc_traits.h **** // Free Software Foundation; either version 3, or (at your option)
   9:/usr/include/newlib/c++/9.2.1/bits/alloc_traits.h **** // any later version.
  10:/usr/include/newlib/c++/9.2.1/bits/alloc_traits.h **** 
  11:/usr/include/newlib/c++/9.2.1/bits/alloc_traits.h **** // This library is distributed in the hope that it will be useful,
  12:/usr/include/newlib/c++/9.2.1/bits/alloc_traits.h **** // but WITHOUT ANY WARRANTY; without even the implied warranty of
  13:/usr/include/newlib/c++/9.2.1/bits/alloc_traits.h **** // MERCHANTABILITY or FITNESS FOR A PARTICULAR PURPOSE.  See the
  14:/usr/include/newlib/c++/9.2.1/bits/alloc_traits.h **** // GNU General Public License for more details.
  15:/usr/include/newlib/c++/9.2.1/bits/alloc_traits.h **** 
  16:/usr/include/newlib/c++/9.2.1/bits/alloc_traits.h **** // Under Section 7 of GPL version 3, you are granted additional
  17:/usr/include/newlib/c++/9.2.1/bits/alloc_traits.h **** // permissions described in the GCC Runtime Library Exception, version
  18:/usr/include/newlib/c++/9.2.1/bits/alloc_traits.h **** // 3.1, as published by the Free Software Foundation.
  19:/usr/include/newlib/c++/9.2.1/bits/alloc_traits.h **** 
  20:/usr/include/newlib/c++/9.2.1/bits/alloc_traits.h **** // You should have received a copy of the GNU General Public License and
  21:/usr/include/newlib/c++/9.2.1/bits/alloc_traits.h **** // a copy of the GCC Runtime Library Exception along with this program;
  22:/usr/include/newlib/c++/9.2.1/bits/alloc_traits.h **** // see the files COPYING3 and COPYING.RUNTIME respectively.  If not, see
  23:/usr/include/newlib/c++/9.2.1/bits/alloc_traits.h **** // <http://www.gnu.org/licenses/>.
  24:/usr/include/newlib/c++/9.2.1/bits/alloc_traits.h **** 
  25:/usr/include/newlib/c++/9.2.1/bits/alloc_traits.h **** /** @file bits/alloc_traits.h
  26:/usr/include/newlib/c++/9.2.1/bits/alloc_traits.h ****  *  This is an internal header file, included by other library headers.
  27:/usr/include/newlib/c++/9.2.1/bits/alloc_traits.h ****  *  Do not attempt to use it directly. @headername{memory}
  28:/usr/include/newlib/c++/9.2.1/bits/alloc_traits.h ****  */
  29:/usr/include/newlib/c++/9.2.1/bits/alloc_traits.h **** 
  30:/usr/include/newlib/c++/9.2.1/bits/alloc_traits.h **** #ifndef _ALLOC_TRAITS_H
  31:/usr/include/newlib/c++/9.2.1/bits/alloc_traits.h **** #define _ALLOC_TRAITS_H 1
  32:/usr/include/newlib/c++/9.2.1/bits/alloc_traits.h **** 
  33:/usr/include/newlib/c++/9.2.1/bits/alloc_traits.h **** #if __cplusplus >= 201103L
  34:/usr/include/newlib/c++/9.2.1/bits/alloc_traits.h **** 
  35:/usr/include/newlib/c++/9.2.1/bits/alloc_traits.h **** #include <bits/memoryfwd.h>
  36:/usr/include/newlib/c++/9.2.1/bits/alloc_traits.h **** #include <bits/ptr_traits.h>
  37:/usr/include/newlib/c++/9.2.1/bits/alloc_traits.h **** #include <ext/numeric_traits.h>
  38:/usr/include/newlib/c++/9.2.1/bits/alloc_traits.h **** 
  39:/usr/include/newlib/c++/9.2.1/bits/alloc_traits.h **** #define __cpp_lib_allocator_traits_is_always_equal 201411
  40:/usr/include/newlib/c++/9.2.1/bits/alloc_traits.h **** 
  41:/usr/include/newlib/c++/9.2.1/bits/alloc_traits.h **** namespace std _GLIBCXX_VISIBILITY(default)
  42:/usr/include/newlib/c++/9.2.1/bits/alloc_traits.h **** {
  43:/usr/include/newlib/c++/9.2.1/bits/alloc_traits.h **** _GLIBCXX_BEGIN_NAMESPACE_VERSION
  44:/usr/include/newlib/c++/9.2.1/bits/alloc_traits.h **** 
  45:/usr/include/newlib/c++/9.2.1/bits/alloc_traits.h ****   struct __allocator_traits_base
  46:/usr/include/newlib/c++/9.2.1/bits/alloc_traits.h ****   {
ARM GAS  /tmp/ccgIClPy.s 			page 36


  47:/usr/include/newlib/c++/9.2.1/bits/alloc_traits.h ****     template<typename _Tp, typename _Up, typename = void>
  48:/usr/include/newlib/c++/9.2.1/bits/alloc_traits.h ****       struct __rebind : __replace_first_arg<_Tp, _Up> { };
  49:/usr/include/newlib/c++/9.2.1/bits/alloc_traits.h **** 
  50:/usr/include/newlib/c++/9.2.1/bits/alloc_traits.h ****     template<typename _Tp, typename _Up>
  51:/usr/include/newlib/c++/9.2.1/bits/alloc_traits.h ****       struct __rebind<_Tp, _Up,
  52:/usr/include/newlib/c++/9.2.1/bits/alloc_traits.h **** 		      __void_t<typename _Tp::template rebind<_Up>::other>>
  53:/usr/include/newlib/c++/9.2.1/bits/alloc_traits.h ****       { using type = typename _Tp::template rebind<_Up>::other; };
  54:/usr/include/newlib/c++/9.2.1/bits/alloc_traits.h **** 
  55:/usr/include/newlib/c++/9.2.1/bits/alloc_traits.h ****   protected:
  56:/usr/include/newlib/c++/9.2.1/bits/alloc_traits.h ****     template<typename _Tp>
  57:/usr/include/newlib/c++/9.2.1/bits/alloc_traits.h ****       using __pointer = typename _Tp::pointer;
  58:/usr/include/newlib/c++/9.2.1/bits/alloc_traits.h ****     template<typename _Tp>
  59:/usr/include/newlib/c++/9.2.1/bits/alloc_traits.h ****       using __c_pointer = typename _Tp::const_pointer;
  60:/usr/include/newlib/c++/9.2.1/bits/alloc_traits.h ****     template<typename _Tp>
  61:/usr/include/newlib/c++/9.2.1/bits/alloc_traits.h ****       using __v_pointer = typename _Tp::void_pointer;
  62:/usr/include/newlib/c++/9.2.1/bits/alloc_traits.h ****     template<typename _Tp>
  63:/usr/include/newlib/c++/9.2.1/bits/alloc_traits.h ****       using __cv_pointer = typename _Tp::const_void_pointer;
  64:/usr/include/newlib/c++/9.2.1/bits/alloc_traits.h ****     template<typename _Tp>
  65:/usr/include/newlib/c++/9.2.1/bits/alloc_traits.h ****       using __pocca = typename _Tp::propagate_on_container_copy_assignment;
  66:/usr/include/newlib/c++/9.2.1/bits/alloc_traits.h ****     template<typename _Tp>
  67:/usr/include/newlib/c++/9.2.1/bits/alloc_traits.h ****       using __pocma = typename _Tp::propagate_on_container_move_assignment;
  68:/usr/include/newlib/c++/9.2.1/bits/alloc_traits.h ****     template<typename _Tp>
  69:/usr/include/newlib/c++/9.2.1/bits/alloc_traits.h ****       using __pocs = typename _Tp::propagate_on_container_swap;
  70:/usr/include/newlib/c++/9.2.1/bits/alloc_traits.h ****     template<typename _Tp>
  71:/usr/include/newlib/c++/9.2.1/bits/alloc_traits.h ****       using __equal = typename _Tp::is_always_equal;
  72:/usr/include/newlib/c++/9.2.1/bits/alloc_traits.h ****   };
  73:/usr/include/newlib/c++/9.2.1/bits/alloc_traits.h **** 
  74:/usr/include/newlib/c++/9.2.1/bits/alloc_traits.h ****   template<typename _Alloc, typename _Up>
  75:/usr/include/newlib/c++/9.2.1/bits/alloc_traits.h ****     using __alloc_rebind
  76:/usr/include/newlib/c++/9.2.1/bits/alloc_traits.h ****       = typename __allocator_traits_base::template __rebind<_Alloc, _Up>::type;
  77:/usr/include/newlib/c++/9.2.1/bits/alloc_traits.h **** 
  78:/usr/include/newlib/c++/9.2.1/bits/alloc_traits.h ****   /**
  79:/usr/include/newlib/c++/9.2.1/bits/alloc_traits.h ****    * @brief  Uniform interface to all allocator types.
  80:/usr/include/newlib/c++/9.2.1/bits/alloc_traits.h ****    * @ingroup allocators
  81:/usr/include/newlib/c++/9.2.1/bits/alloc_traits.h ****   */
  82:/usr/include/newlib/c++/9.2.1/bits/alloc_traits.h ****   template<typename _Alloc>
  83:/usr/include/newlib/c++/9.2.1/bits/alloc_traits.h ****     struct allocator_traits : __allocator_traits_base
  84:/usr/include/newlib/c++/9.2.1/bits/alloc_traits.h ****     {
  85:/usr/include/newlib/c++/9.2.1/bits/alloc_traits.h ****       /// The allocator type
  86:/usr/include/newlib/c++/9.2.1/bits/alloc_traits.h ****       typedef _Alloc allocator_type;
  87:/usr/include/newlib/c++/9.2.1/bits/alloc_traits.h ****       /// The allocated type
  88:/usr/include/newlib/c++/9.2.1/bits/alloc_traits.h ****       typedef typename _Alloc::value_type value_type;
  89:/usr/include/newlib/c++/9.2.1/bits/alloc_traits.h **** 
  90:/usr/include/newlib/c++/9.2.1/bits/alloc_traits.h ****       /**
  91:/usr/include/newlib/c++/9.2.1/bits/alloc_traits.h ****        * @brief   The allocator's pointer type.
  92:/usr/include/newlib/c++/9.2.1/bits/alloc_traits.h ****        *
  93:/usr/include/newlib/c++/9.2.1/bits/alloc_traits.h ****        * @c Alloc::pointer if that type exists, otherwise @c value_type*
  94:/usr/include/newlib/c++/9.2.1/bits/alloc_traits.h ****       */
  95:/usr/include/newlib/c++/9.2.1/bits/alloc_traits.h ****       using pointer = __detected_or_t<value_type*, __pointer, _Alloc>;
  96:/usr/include/newlib/c++/9.2.1/bits/alloc_traits.h **** 
  97:/usr/include/newlib/c++/9.2.1/bits/alloc_traits.h ****     private:
  98:/usr/include/newlib/c++/9.2.1/bits/alloc_traits.h ****       // Select _Func<_Alloc> or pointer_traits<pointer>::rebind<_Tp>
  99:/usr/include/newlib/c++/9.2.1/bits/alloc_traits.h ****       template<template<typename> class _Func, typename _Tp, typename = void>
 100:/usr/include/newlib/c++/9.2.1/bits/alloc_traits.h **** 	struct _Ptr
 101:/usr/include/newlib/c++/9.2.1/bits/alloc_traits.h **** 	{
 102:/usr/include/newlib/c++/9.2.1/bits/alloc_traits.h **** 	  using type = typename pointer_traits<pointer>::template rebind<_Tp>;
 103:/usr/include/newlib/c++/9.2.1/bits/alloc_traits.h **** 	};
ARM GAS  /tmp/ccgIClPy.s 			page 37


 104:/usr/include/newlib/c++/9.2.1/bits/alloc_traits.h **** 
 105:/usr/include/newlib/c++/9.2.1/bits/alloc_traits.h ****       template<template<typename> class _Func, typename _Tp>
 106:/usr/include/newlib/c++/9.2.1/bits/alloc_traits.h **** 	struct _Ptr<_Func, _Tp, __void_t<_Func<_Alloc>>>
 107:/usr/include/newlib/c++/9.2.1/bits/alloc_traits.h **** 	{
 108:/usr/include/newlib/c++/9.2.1/bits/alloc_traits.h **** 	  using type = _Func<_Alloc>;
 109:/usr/include/newlib/c++/9.2.1/bits/alloc_traits.h **** 	};
 110:/usr/include/newlib/c++/9.2.1/bits/alloc_traits.h **** 
 111:/usr/include/newlib/c++/9.2.1/bits/alloc_traits.h ****       // Select _A2::difference_type or pointer_traits<_Ptr>::difference_type
 112:/usr/include/newlib/c++/9.2.1/bits/alloc_traits.h ****       template<typename _A2, typename _PtrT, typename = void>
 113:/usr/include/newlib/c++/9.2.1/bits/alloc_traits.h **** 	struct _Diff
 114:/usr/include/newlib/c++/9.2.1/bits/alloc_traits.h **** 	{ using type = typename pointer_traits<_PtrT>::difference_type; };
 115:/usr/include/newlib/c++/9.2.1/bits/alloc_traits.h **** 
 116:/usr/include/newlib/c++/9.2.1/bits/alloc_traits.h ****       template<typename _A2, typename _PtrT>
 117:/usr/include/newlib/c++/9.2.1/bits/alloc_traits.h **** 	struct _Diff<_A2, _PtrT, __void_t<typename _A2::difference_type>>
 118:/usr/include/newlib/c++/9.2.1/bits/alloc_traits.h **** 	{ using type = typename _A2::difference_type; };
 119:/usr/include/newlib/c++/9.2.1/bits/alloc_traits.h **** 
 120:/usr/include/newlib/c++/9.2.1/bits/alloc_traits.h ****       // Select _A2::size_type or make_unsigned<_DiffT>::type
 121:/usr/include/newlib/c++/9.2.1/bits/alloc_traits.h ****       template<typename _A2, typename _DiffT, typename = void>
 122:/usr/include/newlib/c++/9.2.1/bits/alloc_traits.h **** 	struct _Size : make_unsigned<_DiffT> { };
 123:/usr/include/newlib/c++/9.2.1/bits/alloc_traits.h **** 
 124:/usr/include/newlib/c++/9.2.1/bits/alloc_traits.h ****       template<typename _A2, typename _DiffT>
 125:/usr/include/newlib/c++/9.2.1/bits/alloc_traits.h **** 	struct _Size<_A2, _DiffT, __void_t<typename _A2::size_type>>
 126:/usr/include/newlib/c++/9.2.1/bits/alloc_traits.h **** 	{ using type = typename _A2::size_type; };
 127:/usr/include/newlib/c++/9.2.1/bits/alloc_traits.h **** 
 128:/usr/include/newlib/c++/9.2.1/bits/alloc_traits.h ****     public:
 129:/usr/include/newlib/c++/9.2.1/bits/alloc_traits.h ****       /**
 130:/usr/include/newlib/c++/9.2.1/bits/alloc_traits.h ****        * @brief   The allocator's const pointer type.
 131:/usr/include/newlib/c++/9.2.1/bits/alloc_traits.h ****        *
 132:/usr/include/newlib/c++/9.2.1/bits/alloc_traits.h ****        * @c Alloc::const_pointer if that type exists, otherwise
 133:/usr/include/newlib/c++/9.2.1/bits/alloc_traits.h ****        * <tt> pointer_traits<pointer>::rebind<const value_type> </tt>
 134:/usr/include/newlib/c++/9.2.1/bits/alloc_traits.h ****       */
 135:/usr/include/newlib/c++/9.2.1/bits/alloc_traits.h ****       using const_pointer = typename _Ptr<__c_pointer, const value_type>::type;
 136:/usr/include/newlib/c++/9.2.1/bits/alloc_traits.h **** 
 137:/usr/include/newlib/c++/9.2.1/bits/alloc_traits.h ****       /**
 138:/usr/include/newlib/c++/9.2.1/bits/alloc_traits.h ****        * @brief   The allocator's void pointer type.
 139:/usr/include/newlib/c++/9.2.1/bits/alloc_traits.h ****        *
 140:/usr/include/newlib/c++/9.2.1/bits/alloc_traits.h ****        * @c Alloc::void_pointer if that type exists, otherwise
 141:/usr/include/newlib/c++/9.2.1/bits/alloc_traits.h ****        * <tt> pointer_traits<pointer>::rebind<void> </tt>
 142:/usr/include/newlib/c++/9.2.1/bits/alloc_traits.h ****       */
 143:/usr/include/newlib/c++/9.2.1/bits/alloc_traits.h ****       using void_pointer = typename _Ptr<__v_pointer, void>::type;
 144:/usr/include/newlib/c++/9.2.1/bits/alloc_traits.h **** 
 145:/usr/include/newlib/c++/9.2.1/bits/alloc_traits.h ****       /**
 146:/usr/include/newlib/c++/9.2.1/bits/alloc_traits.h ****        * @brief   The allocator's const void pointer type.
 147:/usr/include/newlib/c++/9.2.1/bits/alloc_traits.h ****        *
 148:/usr/include/newlib/c++/9.2.1/bits/alloc_traits.h ****        * @c Alloc::const_void_pointer if that type exists, otherwise
 149:/usr/include/newlib/c++/9.2.1/bits/alloc_traits.h ****        * <tt> pointer_traits<pointer>::rebind<const void> </tt>
 150:/usr/include/newlib/c++/9.2.1/bits/alloc_traits.h ****       */
 151:/usr/include/newlib/c++/9.2.1/bits/alloc_traits.h ****       using const_void_pointer = typename _Ptr<__cv_pointer, const void>::type;
 152:/usr/include/newlib/c++/9.2.1/bits/alloc_traits.h **** 
 153:/usr/include/newlib/c++/9.2.1/bits/alloc_traits.h ****       /**
 154:/usr/include/newlib/c++/9.2.1/bits/alloc_traits.h ****        * @brief   The allocator's difference type
 155:/usr/include/newlib/c++/9.2.1/bits/alloc_traits.h ****        *
 156:/usr/include/newlib/c++/9.2.1/bits/alloc_traits.h ****        * @c Alloc::difference_type if that type exists, otherwise
 157:/usr/include/newlib/c++/9.2.1/bits/alloc_traits.h ****        * <tt> pointer_traits<pointer>::difference_type </tt>
 158:/usr/include/newlib/c++/9.2.1/bits/alloc_traits.h ****       */
 159:/usr/include/newlib/c++/9.2.1/bits/alloc_traits.h ****       using difference_type = typename _Diff<_Alloc, pointer>::type;
 160:/usr/include/newlib/c++/9.2.1/bits/alloc_traits.h **** 
ARM GAS  /tmp/ccgIClPy.s 			page 38


 161:/usr/include/newlib/c++/9.2.1/bits/alloc_traits.h ****       /**
 162:/usr/include/newlib/c++/9.2.1/bits/alloc_traits.h ****        * @brief   The allocator's size type
 163:/usr/include/newlib/c++/9.2.1/bits/alloc_traits.h ****        *
 164:/usr/include/newlib/c++/9.2.1/bits/alloc_traits.h ****        * @c Alloc::size_type if that type exists, otherwise
 165:/usr/include/newlib/c++/9.2.1/bits/alloc_traits.h ****        * <tt> make_unsigned<difference_type>::type </tt>
 166:/usr/include/newlib/c++/9.2.1/bits/alloc_traits.h ****       */
 167:/usr/include/newlib/c++/9.2.1/bits/alloc_traits.h ****       using size_type = typename _Size<_Alloc, difference_type>::type;
 168:/usr/include/newlib/c++/9.2.1/bits/alloc_traits.h **** 
 169:/usr/include/newlib/c++/9.2.1/bits/alloc_traits.h ****       /**
 170:/usr/include/newlib/c++/9.2.1/bits/alloc_traits.h ****        * @brief   How the allocator is propagated on copy assignment
 171:/usr/include/newlib/c++/9.2.1/bits/alloc_traits.h ****        *
 172:/usr/include/newlib/c++/9.2.1/bits/alloc_traits.h ****        * @c Alloc::propagate_on_container_copy_assignment if that type exists,
 173:/usr/include/newlib/c++/9.2.1/bits/alloc_traits.h ****        * otherwise @c false_type
 174:/usr/include/newlib/c++/9.2.1/bits/alloc_traits.h ****       */
 175:/usr/include/newlib/c++/9.2.1/bits/alloc_traits.h ****       using propagate_on_container_copy_assignment
 176:/usr/include/newlib/c++/9.2.1/bits/alloc_traits.h **** 	= __detected_or_t<false_type, __pocca, _Alloc>;
 177:/usr/include/newlib/c++/9.2.1/bits/alloc_traits.h **** 
 178:/usr/include/newlib/c++/9.2.1/bits/alloc_traits.h ****       /**
 179:/usr/include/newlib/c++/9.2.1/bits/alloc_traits.h ****        * @brief   How the allocator is propagated on move assignment
 180:/usr/include/newlib/c++/9.2.1/bits/alloc_traits.h ****        *
 181:/usr/include/newlib/c++/9.2.1/bits/alloc_traits.h ****        * @c Alloc::propagate_on_container_move_assignment if that type exists,
 182:/usr/include/newlib/c++/9.2.1/bits/alloc_traits.h ****        * otherwise @c false_type
 183:/usr/include/newlib/c++/9.2.1/bits/alloc_traits.h ****       */
 184:/usr/include/newlib/c++/9.2.1/bits/alloc_traits.h ****       using propagate_on_container_move_assignment
 185:/usr/include/newlib/c++/9.2.1/bits/alloc_traits.h **** 	= __detected_or_t<false_type, __pocma, _Alloc>;
 186:/usr/include/newlib/c++/9.2.1/bits/alloc_traits.h **** 
 187:/usr/include/newlib/c++/9.2.1/bits/alloc_traits.h ****       /**
 188:/usr/include/newlib/c++/9.2.1/bits/alloc_traits.h ****        * @brief   How the allocator is propagated on swap
 189:/usr/include/newlib/c++/9.2.1/bits/alloc_traits.h ****        *
 190:/usr/include/newlib/c++/9.2.1/bits/alloc_traits.h ****        * @c Alloc::propagate_on_container_swap if that type exists,
 191:/usr/include/newlib/c++/9.2.1/bits/alloc_traits.h ****        * otherwise @c false_type
 192:/usr/include/newlib/c++/9.2.1/bits/alloc_traits.h ****       */
 193:/usr/include/newlib/c++/9.2.1/bits/alloc_traits.h ****       using propagate_on_container_swap
 194:/usr/include/newlib/c++/9.2.1/bits/alloc_traits.h **** 	= __detected_or_t<false_type, __pocs, _Alloc>;
 195:/usr/include/newlib/c++/9.2.1/bits/alloc_traits.h **** 
 196:/usr/include/newlib/c++/9.2.1/bits/alloc_traits.h ****       /**
 197:/usr/include/newlib/c++/9.2.1/bits/alloc_traits.h ****        * @brief   Whether all instances of the allocator type compare equal.
 198:/usr/include/newlib/c++/9.2.1/bits/alloc_traits.h ****        *
 199:/usr/include/newlib/c++/9.2.1/bits/alloc_traits.h ****        * @c Alloc::is_always_equal if that type exists,
 200:/usr/include/newlib/c++/9.2.1/bits/alloc_traits.h ****        * otherwise @c is_empty<Alloc>::type
 201:/usr/include/newlib/c++/9.2.1/bits/alloc_traits.h ****       */
 202:/usr/include/newlib/c++/9.2.1/bits/alloc_traits.h ****       using is_always_equal
 203:/usr/include/newlib/c++/9.2.1/bits/alloc_traits.h **** 	= __detected_or_t<typename is_empty<_Alloc>::type, __equal, _Alloc>;
 204:/usr/include/newlib/c++/9.2.1/bits/alloc_traits.h **** 
 205:/usr/include/newlib/c++/9.2.1/bits/alloc_traits.h ****       template<typename _Tp>
 206:/usr/include/newlib/c++/9.2.1/bits/alloc_traits.h **** 	using rebind_alloc = __alloc_rebind<_Alloc, _Tp>;
 207:/usr/include/newlib/c++/9.2.1/bits/alloc_traits.h ****       template<typename _Tp>
 208:/usr/include/newlib/c++/9.2.1/bits/alloc_traits.h **** 	using rebind_traits = allocator_traits<rebind_alloc<_Tp>>;
 209:/usr/include/newlib/c++/9.2.1/bits/alloc_traits.h **** 
 210:/usr/include/newlib/c++/9.2.1/bits/alloc_traits.h ****     private:
 211:/usr/include/newlib/c++/9.2.1/bits/alloc_traits.h ****       template<typename _Alloc2>
 212:/usr/include/newlib/c++/9.2.1/bits/alloc_traits.h **** 	static auto
 213:/usr/include/newlib/c++/9.2.1/bits/alloc_traits.h **** 	_S_allocate(_Alloc2& __a, size_type __n, const_void_pointer __hint, int)
 214:/usr/include/newlib/c++/9.2.1/bits/alloc_traits.h **** 	-> decltype(__a.allocate(__n, __hint))
 215:/usr/include/newlib/c++/9.2.1/bits/alloc_traits.h **** 	{ return __a.allocate(__n, __hint); }
 216:/usr/include/newlib/c++/9.2.1/bits/alloc_traits.h **** 
 217:/usr/include/newlib/c++/9.2.1/bits/alloc_traits.h ****       template<typename _Alloc2>
ARM GAS  /tmp/ccgIClPy.s 			page 39


 218:/usr/include/newlib/c++/9.2.1/bits/alloc_traits.h **** 	static pointer
 219:/usr/include/newlib/c++/9.2.1/bits/alloc_traits.h **** 	_S_allocate(_Alloc2& __a, size_type __n, const_void_pointer, ...)
 220:/usr/include/newlib/c++/9.2.1/bits/alloc_traits.h **** 	{ return __a.allocate(__n); }
 221:/usr/include/newlib/c++/9.2.1/bits/alloc_traits.h **** 
 222:/usr/include/newlib/c++/9.2.1/bits/alloc_traits.h ****       template<typename _Tp, typename... _Args>
 223:/usr/include/newlib/c++/9.2.1/bits/alloc_traits.h **** 	struct __construct_helper
 224:/usr/include/newlib/c++/9.2.1/bits/alloc_traits.h **** 	{
 225:/usr/include/newlib/c++/9.2.1/bits/alloc_traits.h **** 	  template<typename _Alloc2,
 226:/usr/include/newlib/c++/9.2.1/bits/alloc_traits.h **** 	    typename = decltype(std::declval<_Alloc2*>()->construct(
 227:/usr/include/newlib/c++/9.2.1/bits/alloc_traits.h **** 		  std::declval<_Tp*>(), std::declval<_Args>()...))>
 228:/usr/include/newlib/c++/9.2.1/bits/alloc_traits.h **** 	    static true_type __test(int);
 229:/usr/include/newlib/c++/9.2.1/bits/alloc_traits.h **** 
 230:/usr/include/newlib/c++/9.2.1/bits/alloc_traits.h **** 	  template<typename>
 231:/usr/include/newlib/c++/9.2.1/bits/alloc_traits.h **** 	    static false_type __test(...);
 232:/usr/include/newlib/c++/9.2.1/bits/alloc_traits.h **** 
 233:/usr/include/newlib/c++/9.2.1/bits/alloc_traits.h **** 	  using type = decltype(__test<_Alloc>(0));
 234:/usr/include/newlib/c++/9.2.1/bits/alloc_traits.h **** 	};
 235:/usr/include/newlib/c++/9.2.1/bits/alloc_traits.h **** 
 236:/usr/include/newlib/c++/9.2.1/bits/alloc_traits.h ****       template<typename _Tp, typename... _Args>
 237:/usr/include/newlib/c++/9.2.1/bits/alloc_traits.h **** 	using __has_construct
 238:/usr/include/newlib/c++/9.2.1/bits/alloc_traits.h **** 	  = typename __construct_helper<_Tp, _Args...>::type;
 239:/usr/include/newlib/c++/9.2.1/bits/alloc_traits.h **** 
 240:/usr/include/newlib/c++/9.2.1/bits/alloc_traits.h ****       template<typename _Tp, typename... _Args>
 241:/usr/include/newlib/c++/9.2.1/bits/alloc_traits.h **** 	static _Require<__has_construct<_Tp, _Args...>>
 242:/usr/include/newlib/c++/9.2.1/bits/alloc_traits.h **** 	_S_construct(_Alloc& __a, _Tp* __p, _Args&&... __args)
 243:/usr/include/newlib/c++/9.2.1/bits/alloc_traits.h **** 	noexcept(noexcept(__a.construct(__p, std::forward<_Args>(__args)...)))
 244:/usr/include/newlib/c++/9.2.1/bits/alloc_traits.h **** 	{ __a.construct(__p, std::forward<_Args>(__args)...); }
 245:/usr/include/newlib/c++/9.2.1/bits/alloc_traits.h **** 
 246:/usr/include/newlib/c++/9.2.1/bits/alloc_traits.h ****       template<typename _Tp, typename... _Args>
 247:/usr/include/newlib/c++/9.2.1/bits/alloc_traits.h **** 	static
 248:/usr/include/newlib/c++/9.2.1/bits/alloc_traits.h **** 	_Require<__and_<__not_<__has_construct<_Tp, _Args...>>,
 249:/usr/include/newlib/c++/9.2.1/bits/alloc_traits.h **** 			       is_constructible<_Tp, _Args...>>>
 250:/usr/include/newlib/c++/9.2.1/bits/alloc_traits.h **** 	_S_construct(_Alloc&, _Tp* __p, _Args&&... __args)
 251:/usr/include/newlib/c++/9.2.1/bits/alloc_traits.h **** 	noexcept(noexcept(::new((void*)__p)
 252:/usr/include/newlib/c++/9.2.1/bits/alloc_traits.h **** 			  _Tp(std::forward<_Args>(__args)...)))
 253:/usr/include/newlib/c++/9.2.1/bits/alloc_traits.h **** 	{ ::new((void*)__p) _Tp(std::forward<_Args>(__args)...); }
 254:/usr/include/newlib/c++/9.2.1/bits/alloc_traits.h **** 
 255:/usr/include/newlib/c++/9.2.1/bits/alloc_traits.h ****       template<typename _Alloc2, typename _Tp>
 256:/usr/include/newlib/c++/9.2.1/bits/alloc_traits.h **** 	static auto
 257:/usr/include/newlib/c++/9.2.1/bits/alloc_traits.h **** 	_S_destroy(_Alloc2& __a, _Tp* __p, int)
 258:/usr/include/newlib/c++/9.2.1/bits/alloc_traits.h **** 	noexcept(noexcept(__a.destroy(__p)))
 259:/usr/include/newlib/c++/9.2.1/bits/alloc_traits.h **** 	-> decltype(__a.destroy(__p))
 260:/usr/include/newlib/c++/9.2.1/bits/alloc_traits.h **** 	{ __a.destroy(__p); }
 261:/usr/include/newlib/c++/9.2.1/bits/alloc_traits.h **** 
 262:/usr/include/newlib/c++/9.2.1/bits/alloc_traits.h ****       template<typename _Alloc2, typename _Tp>
 263:/usr/include/newlib/c++/9.2.1/bits/alloc_traits.h **** 	static void
 264:/usr/include/newlib/c++/9.2.1/bits/alloc_traits.h **** 	_S_destroy(_Alloc2&, _Tp* __p, ...)
 265:/usr/include/newlib/c++/9.2.1/bits/alloc_traits.h **** 	noexcept(noexcept(__p->~_Tp()))
 266:/usr/include/newlib/c++/9.2.1/bits/alloc_traits.h **** 	{ __p->~_Tp(); }
 267:/usr/include/newlib/c++/9.2.1/bits/alloc_traits.h **** 
 268:/usr/include/newlib/c++/9.2.1/bits/alloc_traits.h ****       template<typename _Alloc2>
 269:/usr/include/newlib/c++/9.2.1/bits/alloc_traits.h **** 	static auto
 270:/usr/include/newlib/c++/9.2.1/bits/alloc_traits.h **** 	_S_max_size(_Alloc2& __a, int)
 271:/usr/include/newlib/c++/9.2.1/bits/alloc_traits.h **** 	-> decltype(__a.max_size())
 272:/usr/include/newlib/c++/9.2.1/bits/alloc_traits.h **** 	{ return __a.max_size(); }
 273:/usr/include/newlib/c++/9.2.1/bits/alloc_traits.h **** 
 274:/usr/include/newlib/c++/9.2.1/bits/alloc_traits.h ****       template<typename _Alloc2>
ARM GAS  /tmp/ccgIClPy.s 			page 40


 275:/usr/include/newlib/c++/9.2.1/bits/alloc_traits.h **** 	static size_type
 276:/usr/include/newlib/c++/9.2.1/bits/alloc_traits.h **** 	_S_max_size(_Alloc2&, ...)
 277:/usr/include/newlib/c++/9.2.1/bits/alloc_traits.h **** 	{
 278:/usr/include/newlib/c++/9.2.1/bits/alloc_traits.h **** 	  // _GLIBCXX_RESOLVE_LIB_DEFECTS
 279:/usr/include/newlib/c++/9.2.1/bits/alloc_traits.h **** 	  // 2466. allocator_traits::max_size() default behavior is incorrect
 280:/usr/include/newlib/c++/9.2.1/bits/alloc_traits.h **** 	  return __gnu_cxx::__numeric_traits<size_type>::__max
 281:/usr/include/newlib/c++/9.2.1/bits/alloc_traits.h **** 	    / sizeof(value_type);
 282:/usr/include/newlib/c++/9.2.1/bits/alloc_traits.h **** 	}
 283:/usr/include/newlib/c++/9.2.1/bits/alloc_traits.h **** 
 284:/usr/include/newlib/c++/9.2.1/bits/alloc_traits.h ****       template<typename _Alloc2>
 285:/usr/include/newlib/c++/9.2.1/bits/alloc_traits.h **** 	static auto
 286:/usr/include/newlib/c++/9.2.1/bits/alloc_traits.h **** 	_S_select(_Alloc2& __a, int)
 287:/usr/include/newlib/c++/9.2.1/bits/alloc_traits.h **** 	-> decltype(__a.select_on_container_copy_construction())
 288:/usr/include/newlib/c++/9.2.1/bits/alloc_traits.h **** 	{ return __a.select_on_container_copy_construction(); }
 289:/usr/include/newlib/c++/9.2.1/bits/alloc_traits.h **** 
 290:/usr/include/newlib/c++/9.2.1/bits/alloc_traits.h ****       template<typename _Alloc2>
 291:/usr/include/newlib/c++/9.2.1/bits/alloc_traits.h **** 	static _Alloc2
 292:/usr/include/newlib/c++/9.2.1/bits/alloc_traits.h **** 	_S_select(_Alloc2& __a, ...)
 293:/usr/include/newlib/c++/9.2.1/bits/alloc_traits.h **** 	{ return __a; }
 294:/usr/include/newlib/c++/9.2.1/bits/alloc_traits.h **** 
 295:/usr/include/newlib/c++/9.2.1/bits/alloc_traits.h ****     public:
 296:/usr/include/newlib/c++/9.2.1/bits/alloc_traits.h **** 
 297:/usr/include/newlib/c++/9.2.1/bits/alloc_traits.h ****       /**
 298:/usr/include/newlib/c++/9.2.1/bits/alloc_traits.h ****        *  @brief  Allocate memory.
 299:/usr/include/newlib/c++/9.2.1/bits/alloc_traits.h ****        *  @param  __a  An allocator.
 300:/usr/include/newlib/c++/9.2.1/bits/alloc_traits.h ****        *  @param  __n  The number of objects to allocate space for.
 301:/usr/include/newlib/c++/9.2.1/bits/alloc_traits.h ****        *
 302:/usr/include/newlib/c++/9.2.1/bits/alloc_traits.h ****        *  Calls @c a.allocate(n)
 303:/usr/include/newlib/c++/9.2.1/bits/alloc_traits.h ****       */
 304:/usr/include/newlib/c++/9.2.1/bits/alloc_traits.h ****       _GLIBCXX_NODISCARD static pointer
 305:/usr/include/newlib/c++/9.2.1/bits/alloc_traits.h ****       allocate(_Alloc& __a, size_type __n)
 306:/usr/include/newlib/c++/9.2.1/bits/alloc_traits.h ****       { return __a.allocate(__n); }
 307:/usr/include/newlib/c++/9.2.1/bits/alloc_traits.h **** 
 308:/usr/include/newlib/c++/9.2.1/bits/alloc_traits.h ****       /**
 309:/usr/include/newlib/c++/9.2.1/bits/alloc_traits.h ****        *  @brief  Allocate memory.
 310:/usr/include/newlib/c++/9.2.1/bits/alloc_traits.h ****        *  @param  __a  An allocator.
 311:/usr/include/newlib/c++/9.2.1/bits/alloc_traits.h ****        *  @param  __n  The number of objects to allocate space for.
 312:/usr/include/newlib/c++/9.2.1/bits/alloc_traits.h ****        *  @param  __hint Aid to locality.
 313:/usr/include/newlib/c++/9.2.1/bits/alloc_traits.h ****        *  @return Memory of suitable size and alignment for @a n objects
 314:/usr/include/newlib/c++/9.2.1/bits/alloc_traits.h ****        *          of type @c value_type
 315:/usr/include/newlib/c++/9.2.1/bits/alloc_traits.h ****        *
 316:/usr/include/newlib/c++/9.2.1/bits/alloc_traits.h ****        *  Returns <tt> a.allocate(n, hint) </tt> if that expression is
 317:/usr/include/newlib/c++/9.2.1/bits/alloc_traits.h ****        *  well-formed, otherwise returns @c a.allocate(n)
 318:/usr/include/newlib/c++/9.2.1/bits/alloc_traits.h ****       */
 319:/usr/include/newlib/c++/9.2.1/bits/alloc_traits.h ****       _GLIBCXX_NODISCARD static pointer
 320:/usr/include/newlib/c++/9.2.1/bits/alloc_traits.h ****       allocate(_Alloc& __a, size_type __n, const_void_pointer __hint)
 321:/usr/include/newlib/c++/9.2.1/bits/alloc_traits.h ****       { return _S_allocate(__a, __n, __hint, 0); }
 322:/usr/include/newlib/c++/9.2.1/bits/alloc_traits.h **** 
 323:/usr/include/newlib/c++/9.2.1/bits/alloc_traits.h ****       /**
 324:/usr/include/newlib/c++/9.2.1/bits/alloc_traits.h ****        *  @brief  Deallocate memory.
 325:/usr/include/newlib/c++/9.2.1/bits/alloc_traits.h ****        *  @param  __a  An allocator.
 326:/usr/include/newlib/c++/9.2.1/bits/alloc_traits.h ****        *  @param  __p  Pointer to the memory to deallocate.
 327:/usr/include/newlib/c++/9.2.1/bits/alloc_traits.h ****        *  @param  __n  The number of objects space was allocated for.
 328:/usr/include/newlib/c++/9.2.1/bits/alloc_traits.h ****        *
 329:/usr/include/newlib/c++/9.2.1/bits/alloc_traits.h ****        *  Calls <tt> a.deallocate(p, n) </tt>
 330:/usr/include/newlib/c++/9.2.1/bits/alloc_traits.h ****       */
 331:/usr/include/newlib/c++/9.2.1/bits/alloc_traits.h ****       static void
ARM GAS  /tmp/ccgIClPy.s 			page 41


 332:/usr/include/newlib/c++/9.2.1/bits/alloc_traits.h ****       deallocate(_Alloc& __a, pointer __p, size_type __n)
 333:/usr/include/newlib/c++/9.2.1/bits/alloc_traits.h ****       { __a.deallocate(__p, __n); }
 334:/usr/include/newlib/c++/9.2.1/bits/alloc_traits.h **** 
 335:/usr/include/newlib/c++/9.2.1/bits/alloc_traits.h ****       /**
 336:/usr/include/newlib/c++/9.2.1/bits/alloc_traits.h ****        *  @brief  Construct an object of type @a _Tp
 337:/usr/include/newlib/c++/9.2.1/bits/alloc_traits.h ****        *  @param  __a  An allocator.
 338:/usr/include/newlib/c++/9.2.1/bits/alloc_traits.h ****        *  @param  __p  Pointer to memory of suitable size and alignment for Tp
 339:/usr/include/newlib/c++/9.2.1/bits/alloc_traits.h ****        *  @param  __args Constructor arguments.
 340:/usr/include/newlib/c++/9.2.1/bits/alloc_traits.h ****        *
 341:/usr/include/newlib/c++/9.2.1/bits/alloc_traits.h ****        *  Calls <tt> __a.construct(__p, std::forward<Args>(__args)...) </tt>
 342:/usr/include/newlib/c++/9.2.1/bits/alloc_traits.h ****        *  if that expression is well-formed, otherwise uses placement-new
 343:/usr/include/newlib/c++/9.2.1/bits/alloc_traits.h ****        *  to construct an object of type @a _Tp at location @a __p from the
 344:/usr/include/newlib/c++/9.2.1/bits/alloc_traits.h ****        *  arguments @a __args...
 345:/usr/include/newlib/c++/9.2.1/bits/alloc_traits.h ****       */
 346:/usr/include/newlib/c++/9.2.1/bits/alloc_traits.h ****       template<typename _Tp, typename... _Args>
 347:/usr/include/newlib/c++/9.2.1/bits/alloc_traits.h **** 	static auto construct(_Alloc& __a, _Tp* __p, _Args&&... __args)
 348:/usr/include/newlib/c++/9.2.1/bits/alloc_traits.h **** 	noexcept(noexcept(_S_construct(__a, __p,
 349:/usr/include/newlib/c++/9.2.1/bits/alloc_traits.h **** 				       std::forward<_Args>(__args)...)))
 350:/usr/include/newlib/c++/9.2.1/bits/alloc_traits.h **** 	-> decltype(_S_construct(__a, __p, std::forward<_Args>(__args)...))
 351:/usr/include/newlib/c++/9.2.1/bits/alloc_traits.h **** 	{ _S_construct(__a, __p, std::forward<_Args>(__args)...); }
 352:/usr/include/newlib/c++/9.2.1/bits/alloc_traits.h **** 
 353:/usr/include/newlib/c++/9.2.1/bits/alloc_traits.h ****       /**
 354:/usr/include/newlib/c++/9.2.1/bits/alloc_traits.h ****        *  @brief  Destroy an object of type @a _Tp
 355:/usr/include/newlib/c++/9.2.1/bits/alloc_traits.h ****        *  @param  __a  An allocator.
 356:/usr/include/newlib/c++/9.2.1/bits/alloc_traits.h ****        *  @param  __p  Pointer to the object to destroy
 357:/usr/include/newlib/c++/9.2.1/bits/alloc_traits.h ****        *
 358:/usr/include/newlib/c++/9.2.1/bits/alloc_traits.h ****        *  Calls @c __a.destroy(__p) if that expression is well-formed,
 359:/usr/include/newlib/c++/9.2.1/bits/alloc_traits.h ****        *  otherwise calls @c __p->~_Tp()
 360:/usr/include/newlib/c++/9.2.1/bits/alloc_traits.h ****       */
 361:/usr/include/newlib/c++/9.2.1/bits/alloc_traits.h ****       template<typename _Tp>
 362:/usr/include/newlib/c++/9.2.1/bits/alloc_traits.h **** 	static void destroy(_Alloc& __a, _Tp* __p)
 363:/usr/include/newlib/c++/9.2.1/bits/alloc_traits.h **** 	noexcept(noexcept(_S_destroy(__a, __p, 0)))
 364:/usr/include/newlib/c++/9.2.1/bits/alloc_traits.h **** 	{ _S_destroy(__a, __p, 0); }
 365:/usr/include/newlib/c++/9.2.1/bits/alloc_traits.h **** 
 366:/usr/include/newlib/c++/9.2.1/bits/alloc_traits.h ****       /**
 367:/usr/include/newlib/c++/9.2.1/bits/alloc_traits.h ****        *  @brief  The maximum supported allocation size
 368:/usr/include/newlib/c++/9.2.1/bits/alloc_traits.h ****        *  @param  __a  An allocator.
 369:/usr/include/newlib/c++/9.2.1/bits/alloc_traits.h ****        *  @return @c __a.max_size() or @c numeric_limits<size_type>::max()
 370:/usr/include/newlib/c++/9.2.1/bits/alloc_traits.h ****        *
 371:/usr/include/newlib/c++/9.2.1/bits/alloc_traits.h ****        *  Returns @c __a.max_size() if that expression is well-formed,
 372:/usr/include/newlib/c++/9.2.1/bits/alloc_traits.h ****        *  otherwise returns @c numeric_limits<size_type>::max()
 373:/usr/include/newlib/c++/9.2.1/bits/alloc_traits.h ****       */
 374:/usr/include/newlib/c++/9.2.1/bits/alloc_traits.h ****       static size_type max_size(const _Alloc& __a) noexcept
 375:/usr/include/newlib/c++/9.2.1/bits/alloc_traits.h ****       { return _S_max_size(__a, 0); }
 376:/usr/include/newlib/c++/9.2.1/bits/alloc_traits.h **** 
 377:/usr/include/newlib/c++/9.2.1/bits/alloc_traits.h ****       /**
 378:/usr/include/newlib/c++/9.2.1/bits/alloc_traits.h ****        *  @brief  Obtain an allocator to use when copying a container.
 379:/usr/include/newlib/c++/9.2.1/bits/alloc_traits.h ****        *  @param  __rhs  An allocator.
 380:/usr/include/newlib/c++/9.2.1/bits/alloc_traits.h ****        *  @return @c __rhs.select_on_container_copy_construction() or @a __rhs
 381:/usr/include/newlib/c++/9.2.1/bits/alloc_traits.h ****        *
 382:/usr/include/newlib/c++/9.2.1/bits/alloc_traits.h ****        *  Returns @c __rhs.select_on_container_copy_construction() if that
 383:/usr/include/newlib/c++/9.2.1/bits/alloc_traits.h ****        *  expression is well-formed, otherwise returns @a __rhs
 384:/usr/include/newlib/c++/9.2.1/bits/alloc_traits.h ****       */
 385:/usr/include/newlib/c++/9.2.1/bits/alloc_traits.h ****       static _Alloc
 386:/usr/include/newlib/c++/9.2.1/bits/alloc_traits.h ****       select_on_container_copy_construction(const _Alloc& __rhs)
 387:/usr/include/newlib/c++/9.2.1/bits/alloc_traits.h ****       { return _S_select(__rhs, 0); }
 388:/usr/include/newlib/c++/9.2.1/bits/alloc_traits.h ****     };
ARM GAS  /tmp/ccgIClPy.s 			page 42


 389:/usr/include/newlib/c++/9.2.1/bits/alloc_traits.h **** 
 390:/usr/include/newlib/c++/9.2.1/bits/alloc_traits.h ****   /// Partial specialization for std::allocator.
 391:/usr/include/newlib/c++/9.2.1/bits/alloc_traits.h ****   template<typename _Tp>
 392:/usr/include/newlib/c++/9.2.1/bits/alloc_traits.h ****     struct allocator_traits<allocator<_Tp>>
 393:/usr/include/newlib/c++/9.2.1/bits/alloc_traits.h ****     {
 394:/usr/include/newlib/c++/9.2.1/bits/alloc_traits.h ****       /// The allocator type
 395:/usr/include/newlib/c++/9.2.1/bits/alloc_traits.h ****       using allocator_type = allocator<_Tp>;
 396:/usr/include/newlib/c++/9.2.1/bits/alloc_traits.h ****       /// The allocated type
 397:/usr/include/newlib/c++/9.2.1/bits/alloc_traits.h ****       using value_type = _Tp;
 398:/usr/include/newlib/c++/9.2.1/bits/alloc_traits.h **** 
 399:/usr/include/newlib/c++/9.2.1/bits/alloc_traits.h ****       /// The allocator's pointer type.
 400:/usr/include/newlib/c++/9.2.1/bits/alloc_traits.h ****       using pointer = _Tp*;
 401:/usr/include/newlib/c++/9.2.1/bits/alloc_traits.h **** 
 402:/usr/include/newlib/c++/9.2.1/bits/alloc_traits.h ****       /// The allocator's const pointer type.
 403:/usr/include/newlib/c++/9.2.1/bits/alloc_traits.h ****       using const_pointer = const _Tp*;
 404:/usr/include/newlib/c++/9.2.1/bits/alloc_traits.h **** 
 405:/usr/include/newlib/c++/9.2.1/bits/alloc_traits.h ****       /// The allocator's void pointer type.
 406:/usr/include/newlib/c++/9.2.1/bits/alloc_traits.h ****       using void_pointer = void*;
 407:/usr/include/newlib/c++/9.2.1/bits/alloc_traits.h **** 
 408:/usr/include/newlib/c++/9.2.1/bits/alloc_traits.h ****       /// The allocator's const void pointer type.
 409:/usr/include/newlib/c++/9.2.1/bits/alloc_traits.h ****       using const_void_pointer = const void*;
 410:/usr/include/newlib/c++/9.2.1/bits/alloc_traits.h **** 
 411:/usr/include/newlib/c++/9.2.1/bits/alloc_traits.h ****       /// The allocator's difference type
 412:/usr/include/newlib/c++/9.2.1/bits/alloc_traits.h ****       using difference_type = std::ptrdiff_t;
 413:/usr/include/newlib/c++/9.2.1/bits/alloc_traits.h **** 
 414:/usr/include/newlib/c++/9.2.1/bits/alloc_traits.h ****       /// The allocator's size type
 415:/usr/include/newlib/c++/9.2.1/bits/alloc_traits.h ****       using size_type = std::size_t;
 416:/usr/include/newlib/c++/9.2.1/bits/alloc_traits.h **** 
 417:/usr/include/newlib/c++/9.2.1/bits/alloc_traits.h ****       /// How the allocator is propagated on copy assignment
 418:/usr/include/newlib/c++/9.2.1/bits/alloc_traits.h ****       using propagate_on_container_copy_assignment = false_type;
 419:/usr/include/newlib/c++/9.2.1/bits/alloc_traits.h **** 
 420:/usr/include/newlib/c++/9.2.1/bits/alloc_traits.h ****       /// How the allocator is propagated on move assignment
 421:/usr/include/newlib/c++/9.2.1/bits/alloc_traits.h ****       using propagate_on_container_move_assignment = true_type;
 422:/usr/include/newlib/c++/9.2.1/bits/alloc_traits.h **** 
 423:/usr/include/newlib/c++/9.2.1/bits/alloc_traits.h ****       /// How the allocator is propagated on swap
 424:/usr/include/newlib/c++/9.2.1/bits/alloc_traits.h ****       using propagate_on_container_swap = false_type;
 425:/usr/include/newlib/c++/9.2.1/bits/alloc_traits.h **** 
 426:/usr/include/newlib/c++/9.2.1/bits/alloc_traits.h ****       /// Whether all instances of the allocator type compare equal.
 427:/usr/include/newlib/c++/9.2.1/bits/alloc_traits.h ****       using is_always_equal = true_type;
 428:/usr/include/newlib/c++/9.2.1/bits/alloc_traits.h **** 
 429:/usr/include/newlib/c++/9.2.1/bits/alloc_traits.h ****       template<typename _Up>
 430:/usr/include/newlib/c++/9.2.1/bits/alloc_traits.h **** 	using rebind_alloc = allocator<_Up>;
 431:/usr/include/newlib/c++/9.2.1/bits/alloc_traits.h **** 
 432:/usr/include/newlib/c++/9.2.1/bits/alloc_traits.h ****       template<typename _Up>
 433:/usr/include/newlib/c++/9.2.1/bits/alloc_traits.h **** 	using rebind_traits = allocator_traits<allocator<_Up>>;
 434:/usr/include/newlib/c++/9.2.1/bits/alloc_traits.h **** 
 435:/usr/include/newlib/c++/9.2.1/bits/alloc_traits.h ****       /**
 436:/usr/include/newlib/c++/9.2.1/bits/alloc_traits.h ****        *  @brief  Allocate memory.
 437:/usr/include/newlib/c++/9.2.1/bits/alloc_traits.h ****        *  @param  __a  An allocator.
 438:/usr/include/newlib/c++/9.2.1/bits/alloc_traits.h ****        *  @param  __n  The number of objects to allocate space for.
 439:/usr/include/newlib/c++/9.2.1/bits/alloc_traits.h ****        *
 440:/usr/include/newlib/c++/9.2.1/bits/alloc_traits.h ****        *  Calls @c a.allocate(n)
 441:/usr/include/newlib/c++/9.2.1/bits/alloc_traits.h ****       */
 442:/usr/include/newlib/c++/9.2.1/bits/alloc_traits.h ****       _GLIBCXX_NODISCARD static pointer
 443:/usr/include/newlib/c++/9.2.1/bits/alloc_traits.h ****       allocate(allocator_type& __a, size_type __n)
 444:/usr/include/newlib/c++/9.2.1/bits/alloc_traits.h ****       { return __a.allocate(__n); }
 445:/usr/include/newlib/c++/9.2.1/bits/alloc_traits.h **** 
ARM GAS  /tmp/ccgIClPy.s 			page 43


 446:/usr/include/newlib/c++/9.2.1/bits/alloc_traits.h ****       /**
 447:/usr/include/newlib/c++/9.2.1/bits/alloc_traits.h ****        *  @brief  Allocate memory.
 448:/usr/include/newlib/c++/9.2.1/bits/alloc_traits.h ****        *  @param  __a  An allocator.
 449:/usr/include/newlib/c++/9.2.1/bits/alloc_traits.h ****        *  @param  __n  The number of objects to allocate space for.
 450:/usr/include/newlib/c++/9.2.1/bits/alloc_traits.h ****        *  @param  __hint Aid to locality.
 451:/usr/include/newlib/c++/9.2.1/bits/alloc_traits.h ****        *  @return Memory of suitable size and alignment for @a n objects
 452:/usr/include/newlib/c++/9.2.1/bits/alloc_traits.h ****        *          of type @c value_type
 453:/usr/include/newlib/c++/9.2.1/bits/alloc_traits.h ****        *
 454:/usr/include/newlib/c++/9.2.1/bits/alloc_traits.h ****        *  Returns <tt> a.allocate(n, hint) </tt>
 455:/usr/include/newlib/c++/9.2.1/bits/alloc_traits.h ****       */
 456:/usr/include/newlib/c++/9.2.1/bits/alloc_traits.h ****       _GLIBCXX_NODISCARD static pointer
 457:/usr/include/newlib/c++/9.2.1/bits/alloc_traits.h ****       allocate(allocator_type& __a, size_type __n, const_void_pointer __hint)
 458:/usr/include/newlib/c++/9.2.1/bits/alloc_traits.h ****       { return __a.allocate(__n, __hint); }
 459:/usr/include/newlib/c++/9.2.1/bits/alloc_traits.h **** 
 460:/usr/include/newlib/c++/9.2.1/bits/alloc_traits.h ****       /**
 461:/usr/include/newlib/c++/9.2.1/bits/alloc_traits.h ****        *  @brief  Deallocate memory.
 462:/usr/include/newlib/c++/9.2.1/bits/alloc_traits.h ****        *  @param  __a  An allocator.
 463:/usr/include/newlib/c++/9.2.1/bits/alloc_traits.h ****        *  @param  __p  Pointer to the memory to deallocate.
 464:/usr/include/newlib/c++/9.2.1/bits/alloc_traits.h ****        *  @param  __n  The number of objects space was allocated for.
 465:/usr/include/newlib/c++/9.2.1/bits/alloc_traits.h ****        *
 466:/usr/include/newlib/c++/9.2.1/bits/alloc_traits.h ****        *  Calls <tt> a.deallocate(p, n) </tt>
 467:/usr/include/newlib/c++/9.2.1/bits/alloc_traits.h ****       */
 468:/usr/include/newlib/c++/9.2.1/bits/alloc_traits.h ****       static void
 469:/usr/include/newlib/c++/9.2.1/bits/alloc_traits.h ****       deallocate(allocator_type& __a, pointer __p, size_type __n)
 311              		.loc 15 469 7 is_stmt 1 discriminator 3 view .LVU51
 312              	.LBB794:
 313              	.LBI794:
 314              		.file 16 "/usr/include/newlib/c++/9.2.1/ext/new_allocator.h"
   1:/usr/include/newlib/c++/9.2.1/ext/new_allocator.h **** // Allocator that wraps operator new -*- C++ -*-
   2:/usr/include/newlib/c++/9.2.1/ext/new_allocator.h **** 
   3:/usr/include/newlib/c++/9.2.1/ext/new_allocator.h **** // Copyright (C) 2001-2019 Free Software Foundation, Inc.
   4:/usr/include/newlib/c++/9.2.1/ext/new_allocator.h **** //
   5:/usr/include/newlib/c++/9.2.1/ext/new_allocator.h **** // This file is part of the GNU ISO C++ Library.  This library is free
   6:/usr/include/newlib/c++/9.2.1/ext/new_allocator.h **** // software; you can redistribute it and/or modify it under the
   7:/usr/include/newlib/c++/9.2.1/ext/new_allocator.h **** // terms of the GNU General Public License as published by the
   8:/usr/include/newlib/c++/9.2.1/ext/new_allocator.h **** // Free Software Foundation; either version 3, or (at your option)
   9:/usr/include/newlib/c++/9.2.1/ext/new_allocator.h **** // any later version.
  10:/usr/include/newlib/c++/9.2.1/ext/new_allocator.h **** 
  11:/usr/include/newlib/c++/9.2.1/ext/new_allocator.h **** // This library is distributed in the hope that it will be useful,
  12:/usr/include/newlib/c++/9.2.1/ext/new_allocator.h **** // but WITHOUT ANY WARRANTY; without even the implied warranty of
  13:/usr/include/newlib/c++/9.2.1/ext/new_allocator.h **** // MERCHANTABILITY or FITNESS FOR A PARTICULAR PURPOSE.  See the
  14:/usr/include/newlib/c++/9.2.1/ext/new_allocator.h **** // GNU General Public License for more details.
  15:/usr/include/newlib/c++/9.2.1/ext/new_allocator.h **** 
  16:/usr/include/newlib/c++/9.2.1/ext/new_allocator.h **** // Under Section 7 of GPL version 3, you are granted additional
  17:/usr/include/newlib/c++/9.2.1/ext/new_allocator.h **** // permissions described in the GCC Runtime Library Exception, version
  18:/usr/include/newlib/c++/9.2.1/ext/new_allocator.h **** // 3.1, as published by the Free Software Foundation.
  19:/usr/include/newlib/c++/9.2.1/ext/new_allocator.h **** 
  20:/usr/include/newlib/c++/9.2.1/ext/new_allocator.h **** // You should have received a copy of the GNU General Public License and
  21:/usr/include/newlib/c++/9.2.1/ext/new_allocator.h **** // a copy of the GCC Runtime Library Exception along with this program;
  22:/usr/include/newlib/c++/9.2.1/ext/new_allocator.h **** // see the files COPYING3 and COPYING.RUNTIME respectively.  If not, see
  23:/usr/include/newlib/c++/9.2.1/ext/new_allocator.h **** // <http://www.gnu.org/licenses/>.
  24:/usr/include/newlib/c++/9.2.1/ext/new_allocator.h **** 
  25:/usr/include/newlib/c++/9.2.1/ext/new_allocator.h **** /** @file ext/new_allocator.h
  26:/usr/include/newlib/c++/9.2.1/ext/new_allocator.h ****  *  This file is a GNU extension to the Standard C++ Library.
  27:/usr/include/newlib/c++/9.2.1/ext/new_allocator.h ****  */
  28:/usr/include/newlib/c++/9.2.1/ext/new_allocator.h **** 
  29:/usr/include/newlib/c++/9.2.1/ext/new_allocator.h **** #ifndef _NEW_ALLOCATOR_H
ARM GAS  /tmp/ccgIClPy.s 			page 44


  30:/usr/include/newlib/c++/9.2.1/ext/new_allocator.h **** #define _NEW_ALLOCATOR_H 1
  31:/usr/include/newlib/c++/9.2.1/ext/new_allocator.h **** 
  32:/usr/include/newlib/c++/9.2.1/ext/new_allocator.h **** #include <bits/c++config.h>
  33:/usr/include/newlib/c++/9.2.1/ext/new_allocator.h **** #include <new>
  34:/usr/include/newlib/c++/9.2.1/ext/new_allocator.h **** #include <bits/functexcept.h>
  35:/usr/include/newlib/c++/9.2.1/ext/new_allocator.h **** #include <bits/move.h>
  36:/usr/include/newlib/c++/9.2.1/ext/new_allocator.h **** #if __cplusplus >= 201103L
  37:/usr/include/newlib/c++/9.2.1/ext/new_allocator.h **** #include <type_traits>
  38:/usr/include/newlib/c++/9.2.1/ext/new_allocator.h **** #endif
  39:/usr/include/newlib/c++/9.2.1/ext/new_allocator.h **** 
  40:/usr/include/newlib/c++/9.2.1/ext/new_allocator.h **** namespace __gnu_cxx _GLIBCXX_VISIBILITY(default)
  41:/usr/include/newlib/c++/9.2.1/ext/new_allocator.h **** {
  42:/usr/include/newlib/c++/9.2.1/ext/new_allocator.h **** _GLIBCXX_BEGIN_NAMESPACE_VERSION
  43:/usr/include/newlib/c++/9.2.1/ext/new_allocator.h **** 
  44:/usr/include/newlib/c++/9.2.1/ext/new_allocator.h ****   using std::size_t;
  45:/usr/include/newlib/c++/9.2.1/ext/new_allocator.h ****   using std::ptrdiff_t;
  46:/usr/include/newlib/c++/9.2.1/ext/new_allocator.h **** 
  47:/usr/include/newlib/c++/9.2.1/ext/new_allocator.h ****   /**
  48:/usr/include/newlib/c++/9.2.1/ext/new_allocator.h ****    *  @brief  An allocator that uses global new, as per [20.4].
  49:/usr/include/newlib/c++/9.2.1/ext/new_allocator.h ****    *  @ingroup allocators
  50:/usr/include/newlib/c++/9.2.1/ext/new_allocator.h ****    *
  51:/usr/include/newlib/c++/9.2.1/ext/new_allocator.h ****    *  This is precisely the allocator defined in the C++ Standard.
  52:/usr/include/newlib/c++/9.2.1/ext/new_allocator.h ****    *    - all allocation calls operator new
  53:/usr/include/newlib/c++/9.2.1/ext/new_allocator.h ****    *    - all deallocation calls operator delete
  54:/usr/include/newlib/c++/9.2.1/ext/new_allocator.h ****    *
  55:/usr/include/newlib/c++/9.2.1/ext/new_allocator.h ****    *  @tparam  _Tp  Type of allocated object.
  56:/usr/include/newlib/c++/9.2.1/ext/new_allocator.h ****    */
  57:/usr/include/newlib/c++/9.2.1/ext/new_allocator.h ****   template<typename _Tp>
  58:/usr/include/newlib/c++/9.2.1/ext/new_allocator.h ****     class new_allocator
  59:/usr/include/newlib/c++/9.2.1/ext/new_allocator.h ****     {
  60:/usr/include/newlib/c++/9.2.1/ext/new_allocator.h ****     public:
  61:/usr/include/newlib/c++/9.2.1/ext/new_allocator.h ****       typedef size_t     size_type;
  62:/usr/include/newlib/c++/9.2.1/ext/new_allocator.h ****       typedef ptrdiff_t  difference_type;
  63:/usr/include/newlib/c++/9.2.1/ext/new_allocator.h ****       typedef _Tp*       pointer;
  64:/usr/include/newlib/c++/9.2.1/ext/new_allocator.h ****       typedef const _Tp* const_pointer;
  65:/usr/include/newlib/c++/9.2.1/ext/new_allocator.h ****       typedef _Tp&       reference;
  66:/usr/include/newlib/c++/9.2.1/ext/new_allocator.h ****       typedef const _Tp& const_reference;
  67:/usr/include/newlib/c++/9.2.1/ext/new_allocator.h ****       typedef _Tp        value_type;
  68:/usr/include/newlib/c++/9.2.1/ext/new_allocator.h **** 
  69:/usr/include/newlib/c++/9.2.1/ext/new_allocator.h ****       template<typename _Tp1>
  70:/usr/include/newlib/c++/9.2.1/ext/new_allocator.h **** 	struct rebind
  71:/usr/include/newlib/c++/9.2.1/ext/new_allocator.h **** 	{ typedef new_allocator<_Tp1> other; };
  72:/usr/include/newlib/c++/9.2.1/ext/new_allocator.h **** 
  73:/usr/include/newlib/c++/9.2.1/ext/new_allocator.h **** #if __cplusplus >= 201103L
  74:/usr/include/newlib/c++/9.2.1/ext/new_allocator.h ****       // _GLIBCXX_RESOLVE_LIB_DEFECTS
  75:/usr/include/newlib/c++/9.2.1/ext/new_allocator.h ****       // 2103. propagate_on_container_move_assignment
  76:/usr/include/newlib/c++/9.2.1/ext/new_allocator.h ****       typedef std::true_type propagate_on_container_move_assignment;
  77:/usr/include/newlib/c++/9.2.1/ext/new_allocator.h **** #endif
  78:/usr/include/newlib/c++/9.2.1/ext/new_allocator.h **** 
  79:/usr/include/newlib/c++/9.2.1/ext/new_allocator.h ****       _GLIBCXX20_CONSTEXPR
  80:/usr/include/newlib/c++/9.2.1/ext/new_allocator.h ****       new_allocator() _GLIBCXX_USE_NOEXCEPT { }
  81:/usr/include/newlib/c++/9.2.1/ext/new_allocator.h **** 
  82:/usr/include/newlib/c++/9.2.1/ext/new_allocator.h ****       _GLIBCXX20_CONSTEXPR
  83:/usr/include/newlib/c++/9.2.1/ext/new_allocator.h ****       new_allocator(const new_allocator&) _GLIBCXX_USE_NOEXCEPT { }
  84:/usr/include/newlib/c++/9.2.1/ext/new_allocator.h **** 
  85:/usr/include/newlib/c++/9.2.1/ext/new_allocator.h ****       template<typename _Tp1>
  86:/usr/include/newlib/c++/9.2.1/ext/new_allocator.h **** 	_GLIBCXX20_CONSTEXPR
ARM GAS  /tmp/ccgIClPy.s 			page 45


  87:/usr/include/newlib/c++/9.2.1/ext/new_allocator.h **** 	new_allocator(const new_allocator<_Tp1>&) _GLIBCXX_USE_NOEXCEPT { }
  88:/usr/include/newlib/c++/9.2.1/ext/new_allocator.h **** 
  89:/usr/include/newlib/c++/9.2.1/ext/new_allocator.h ****       ~new_allocator() _GLIBCXX_USE_NOEXCEPT { }
  90:/usr/include/newlib/c++/9.2.1/ext/new_allocator.h **** 
  91:/usr/include/newlib/c++/9.2.1/ext/new_allocator.h ****       pointer
  92:/usr/include/newlib/c++/9.2.1/ext/new_allocator.h ****       address(reference __x) const _GLIBCXX_NOEXCEPT
  93:/usr/include/newlib/c++/9.2.1/ext/new_allocator.h ****       { return std::__addressof(__x); }
  94:/usr/include/newlib/c++/9.2.1/ext/new_allocator.h **** 
  95:/usr/include/newlib/c++/9.2.1/ext/new_allocator.h ****       const_pointer
  96:/usr/include/newlib/c++/9.2.1/ext/new_allocator.h ****       address(const_reference __x) const _GLIBCXX_NOEXCEPT
  97:/usr/include/newlib/c++/9.2.1/ext/new_allocator.h ****       { return std::__addressof(__x); }
  98:/usr/include/newlib/c++/9.2.1/ext/new_allocator.h **** 
  99:/usr/include/newlib/c++/9.2.1/ext/new_allocator.h ****       // NB: __n is permitted to be 0.  The C++ standard says nothing
 100:/usr/include/newlib/c++/9.2.1/ext/new_allocator.h ****       // about what the return value is when __n == 0.
 101:/usr/include/newlib/c++/9.2.1/ext/new_allocator.h ****       _GLIBCXX_NODISCARD pointer
 102:/usr/include/newlib/c++/9.2.1/ext/new_allocator.h ****       allocate(size_type __n, const void* = static_cast<const void*>(0))
 103:/usr/include/newlib/c++/9.2.1/ext/new_allocator.h ****       {
 104:/usr/include/newlib/c++/9.2.1/ext/new_allocator.h **** 	if (__n > this->max_size())
 105:/usr/include/newlib/c++/9.2.1/ext/new_allocator.h **** 	  std::__throw_bad_alloc();
 106:/usr/include/newlib/c++/9.2.1/ext/new_allocator.h **** 
 107:/usr/include/newlib/c++/9.2.1/ext/new_allocator.h **** #if __cpp_aligned_new
 108:/usr/include/newlib/c++/9.2.1/ext/new_allocator.h **** 	if (alignof(_Tp) > __STDCPP_DEFAULT_NEW_ALIGNMENT__)
 109:/usr/include/newlib/c++/9.2.1/ext/new_allocator.h **** 	  {
 110:/usr/include/newlib/c++/9.2.1/ext/new_allocator.h **** 	    std::align_val_t __al = std::align_val_t(alignof(_Tp));
 111:/usr/include/newlib/c++/9.2.1/ext/new_allocator.h **** 	    return static_cast<_Tp*>(::operator new(__n * sizeof(_Tp), __al));
 112:/usr/include/newlib/c++/9.2.1/ext/new_allocator.h **** 	  }
 113:/usr/include/newlib/c++/9.2.1/ext/new_allocator.h **** #endif
 114:/usr/include/newlib/c++/9.2.1/ext/new_allocator.h **** 	return static_cast<_Tp*>(::operator new(__n * sizeof(_Tp)));
 115:/usr/include/newlib/c++/9.2.1/ext/new_allocator.h ****       }
 116:/usr/include/newlib/c++/9.2.1/ext/new_allocator.h **** 
 117:/usr/include/newlib/c++/9.2.1/ext/new_allocator.h ****       // __p is not permitted to be a null pointer.
 118:/usr/include/newlib/c++/9.2.1/ext/new_allocator.h ****       void
 119:/usr/include/newlib/c++/9.2.1/ext/new_allocator.h ****       deallocate(pointer __p, size_type)
 315              		.loc 16 119 7 discriminator 3 view .LVU52
 316              		.loc 16 119 7 is_stmt 0 discriminator 3 view .LVU53
 317              	.LBE794:
 318              	.LBE793:
 319              	.LBE792:
 320              	.LBE800:
 231:/usr/include/newlib/c++/9.2.1/bits/basic_string.h **** 	  _M_destroy(_M_allocated_capacity);
 321              		.loc 14 231 2 discriminator 3 view .LVU54
 322 000c A042     		cmp	r0, r4
 323 000e A4F11804 		sub	r4, r4, #24
 324              	.LVL12:
 231:/usr/include/newlib/c++/9.2.1/bits/basic_string.h **** 	  _M_destroy(_M_allocated_capacity);
 325              		.loc 14 231 2 discriminator 3 view .LVU55
 326 0012 01D0     		beq	.L11
 327              	.LBB801:
 328              	.LBB798:
 329              	.LBB797:
 330              	.LBB796:
 331              	.LBB795:
 120:/usr/include/newlib/c++/9.2.1/ext/new_allocator.h ****       {
 121:/usr/include/newlib/c++/9.2.1/ext/new_allocator.h **** #if __cpp_aligned_new
 122:/usr/include/newlib/c++/9.2.1/ext/new_allocator.h **** 	if (alignof(_Tp) > __STDCPP_DEFAULT_NEW_ALIGNMENT__)
 123:/usr/include/newlib/c++/9.2.1/ext/new_allocator.h **** 	  {
 124:/usr/include/newlib/c++/9.2.1/ext/new_allocator.h **** 	    ::operator delete(__p, std::align_val_t(alignof(_Tp)));
ARM GAS  /tmp/ccgIClPy.s 			page 46


 125:/usr/include/newlib/c++/9.2.1/ext/new_allocator.h **** 	    return;
 126:/usr/include/newlib/c++/9.2.1/ext/new_allocator.h **** 	  }
 127:/usr/include/newlib/c++/9.2.1/ext/new_allocator.h **** #endif
 128:/usr/include/newlib/c++/9.2.1/ext/new_allocator.h **** 	::operator delete(__p);
 332              		.loc 16 128 19 view .LVU56
 333 0014 FFF7FEFF 		bl	_ZdlPv
 334              	.LVL13:
 335              	.L11:
 336              		.loc 16 128 19 view .LVU57
 337              	.LBE795:
 338              	.LBE796:
 339              	.LBE797:
 340              	.LBE798:
 341              	.LBE801:
 342              	.LBE788:
 343              	.LBE787:
 344              	.LBB802:
 345              	.LBI802:
 150:/usr/include/newlib/c++/9.2.1/bits/basic_string.h ****       {
 346              		.loc 14 150 14 is_stmt 1 view .LVU58
 347              	.LBB803:
 348              	.LBI803:
 349              		.file 17 "/usr/include/newlib/c++/9.2.1/bits/allocator.h"
   1:/usr/include/newlib/c++/9.2.1/bits/allocator.h **** // Allocators -*- C++ -*-
   2:/usr/include/newlib/c++/9.2.1/bits/allocator.h **** 
   3:/usr/include/newlib/c++/9.2.1/bits/allocator.h **** // Copyright (C) 2001-2019 Free Software Foundation, Inc.
   4:/usr/include/newlib/c++/9.2.1/bits/allocator.h **** //
   5:/usr/include/newlib/c++/9.2.1/bits/allocator.h **** // This file is part of the GNU ISO C++ Library.  This library is free
   6:/usr/include/newlib/c++/9.2.1/bits/allocator.h **** // software; you can redistribute it and/or modify it under the
   7:/usr/include/newlib/c++/9.2.1/bits/allocator.h **** // terms of the GNU General Public License as published by the
   8:/usr/include/newlib/c++/9.2.1/bits/allocator.h **** // Free Software Foundation; either version 3, or (at your option)
   9:/usr/include/newlib/c++/9.2.1/bits/allocator.h **** // any later version.
  10:/usr/include/newlib/c++/9.2.1/bits/allocator.h **** 
  11:/usr/include/newlib/c++/9.2.1/bits/allocator.h **** // This library is distributed in the hope that it will be useful,
  12:/usr/include/newlib/c++/9.2.1/bits/allocator.h **** // but WITHOUT ANY WARRANTY; without even the implied warranty of
  13:/usr/include/newlib/c++/9.2.1/bits/allocator.h **** // MERCHANTABILITY or FITNESS FOR A PARTICULAR PURPOSE.  See the
  14:/usr/include/newlib/c++/9.2.1/bits/allocator.h **** // GNU General Public License for more details.
  15:/usr/include/newlib/c++/9.2.1/bits/allocator.h **** 
  16:/usr/include/newlib/c++/9.2.1/bits/allocator.h **** // Under Section 7 of GPL version 3, you are granted additional
  17:/usr/include/newlib/c++/9.2.1/bits/allocator.h **** // permissions described in the GCC Runtime Library Exception, version
  18:/usr/include/newlib/c++/9.2.1/bits/allocator.h **** // 3.1, as published by the Free Software Foundation.
  19:/usr/include/newlib/c++/9.2.1/bits/allocator.h **** 
  20:/usr/include/newlib/c++/9.2.1/bits/allocator.h **** // You should have received a copy of the GNU General Public License and
  21:/usr/include/newlib/c++/9.2.1/bits/allocator.h **** // a copy of the GCC Runtime Library Exception along with this program;
  22:/usr/include/newlib/c++/9.2.1/bits/allocator.h **** // see the files COPYING3 and COPYING.RUNTIME respectively.  If not, see
  23:/usr/include/newlib/c++/9.2.1/bits/allocator.h **** // <http://www.gnu.org/licenses/>.
  24:/usr/include/newlib/c++/9.2.1/bits/allocator.h **** 
  25:/usr/include/newlib/c++/9.2.1/bits/allocator.h **** /*
  26:/usr/include/newlib/c++/9.2.1/bits/allocator.h ****  * Copyright (c) 1996-1997
  27:/usr/include/newlib/c++/9.2.1/bits/allocator.h ****  * Silicon Graphics Computer Systems, Inc.
  28:/usr/include/newlib/c++/9.2.1/bits/allocator.h ****  *
  29:/usr/include/newlib/c++/9.2.1/bits/allocator.h ****  * Permission to use, copy, modify, distribute and sell this software
  30:/usr/include/newlib/c++/9.2.1/bits/allocator.h ****  * and its documentation for any purpose is hereby granted without fee,
  31:/usr/include/newlib/c++/9.2.1/bits/allocator.h ****  * provided that the above copyright notice appear in all copies and
  32:/usr/include/newlib/c++/9.2.1/bits/allocator.h ****  * that both that copyright notice and this permission notice appear
  33:/usr/include/newlib/c++/9.2.1/bits/allocator.h ****  * in supporting documentation.  Silicon Graphics makes no
  34:/usr/include/newlib/c++/9.2.1/bits/allocator.h ****  * representations about the suitability of this software for any
ARM GAS  /tmp/ccgIClPy.s 			page 47


  35:/usr/include/newlib/c++/9.2.1/bits/allocator.h ****  * purpose.  It is provided "as is" without express or implied warranty.
  36:/usr/include/newlib/c++/9.2.1/bits/allocator.h ****  */
  37:/usr/include/newlib/c++/9.2.1/bits/allocator.h **** 
  38:/usr/include/newlib/c++/9.2.1/bits/allocator.h **** /** @file bits/allocator.h
  39:/usr/include/newlib/c++/9.2.1/bits/allocator.h ****  *  This is an internal header file, included by other library headers.
  40:/usr/include/newlib/c++/9.2.1/bits/allocator.h ****  *  Do not attempt to use it directly. @headername{memory}
  41:/usr/include/newlib/c++/9.2.1/bits/allocator.h ****  */
  42:/usr/include/newlib/c++/9.2.1/bits/allocator.h **** 
  43:/usr/include/newlib/c++/9.2.1/bits/allocator.h **** #ifndef _ALLOCATOR_H
  44:/usr/include/newlib/c++/9.2.1/bits/allocator.h **** #define _ALLOCATOR_H 1
  45:/usr/include/newlib/c++/9.2.1/bits/allocator.h **** 
  46:/usr/include/newlib/c++/9.2.1/bits/allocator.h **** #include <bits/c++allocator.h> // Define the base class to std::allocator.
  47:/usr/include/newlib/c++/9.2.1/bits/allocator.h **** #include <bits/memoryfwd.h>
  48:/usr/include/newlib/c++/9.2.1/bits/allocator.h **** #if __cplusplus >= 201103L
  49:/usr/include/newlib/c++/9.2.1/bits/allocator.h **** #include <type_traits>
  50:/usr/include/newlib/c++/9.2.1/bits/allocator.h **** #endif
  51:/usr/include/newlib/c++/9.2.1/bits/allocator.h **** 
  52:/usr/include/newlib/c++/9.2.1/bits/allocator.h **** #define __cpp_lib_incomplete_container_elements 201505
  53:/usr/include/newlib/c++/9.2.1/bits/allocator.h **** #if __cplusplus >= 201103L
  54:/usr/include/newlib/c++/9.2.1/bits/allocator.h **** # define __cpp_lib_allocator_is_always_equal 201411
  55:/usr/include/newlib/c++/9.2.1/bits/allocator.h **** #endif
  56:/usr/include/newlib/c++/9.2.1/bits/allocator.h **** 
  57:/usr/include/newlib/c++/9.2.1/bits/allocator.h **** namespace std _GLIBCXX_VISIBILITY(default)
  58:/usr/include/newlib/c++/9.2.1/bits/allocator.h **** {
  59:/usr/include/newlib/c++/9.2.1/bits/allocator.h **** _GLIBCXX_BEGIN_NAMESPACE_VERSION
  60:/usr/include/newlib/c++/9.2.1/bits/allocator.h **** 
  61:/usr/include/newlib/c++/9.2.1/bits/allocator.h ****   /**
  62:/usr/include/newlib/c++/9.2.1/bits/allocator.h ****    *  @addtogroup allocators
  63:/usr/include/newlib/c++/9.2.1/bits/allocator.h ****    *  @{
  64:/usr/include/newlib/c++/9.2.1/bits/allocator.h ****    */
  65:/usr/include/newlib/c++/9.2.1/bits/allocator.h **** 
  66:/usr/include/newlib/c++/9.2.1/bits/allocator.h ****   /// allocator<void> specialization.
  67:/usr/include/newlib/c++/9.2.1/bits/allocator.h ****   template<>
  68:/usr/include/newlib/c++/9.2.1/bits/allocator.h ****     class allocator<void>
  69:/usr/include/newlib/c++/9.2.1/bits/allocator.h ****     {
  70:/usr/include/newlib/c++/9.2.1/bits/allocator.h ****     public:
  71:/usr/include/newlib/c++/9.2.1/bits/allocator.h ****       typedef size_t      size_type;
  72:/usr/include/newlib/c++/9.2.1/bits/allocator.h ****       typedef ptrdiff_t   difference_type;
  73:/usr/include/newlib/c++/9.2.1/bits/allocator.h ****       typedef void*       pointer;
  74:/usr/include/newlib/c++/9.2.1/bits/allocator.h ****       typedef const void* const_pointer;
  75:/usr/include/newlib/c++/9.2.1/bits/allocator.h ****       typedef void        value_type;
  76:/usr/include/newlib/c++/9.2.1/bits/allocator.h **** 
  77:/usr/include/newlib/c++/9.2.1/bits/allocator.h ****       template<typename _Tp1>
  78:/usr/include/newlib/c++/9.2.1/bits/allocator.h **** 	struct rebind
  79:/usr/include/newlib/c++/9.2.1/bits/allocator.h **** 	{ typedef allocator<_Tp1> other; };
  80:/usr/include/newlib/c++/9.2.1/bits/allocator.h **** 
  81:/usr/include/newlib/c++/9.2.1/bits/allocator.h **** #if __cplusplus >= 201103L
  82:/usr/include/newlib/c++/9.2.1/bits/allocator.h ****       // _GLIBCXX_RESOLVE_LIB_DEFECTS
  83:/usr/include/newlib/c++/9.2.1/bits/allocator.h ****       // 2103. std::allocator propagate_on_container_move_assignment
  84:/usr/include/newlib/c++/9.2.1/bits/allocator.h ****       typedef true_type propagate_on_container_move_assignment;
  85:/usr/include/newlib/c++/9.2.1/bits/allocator.h **** 
  86:/usr/include/newlib/c++/9.2.1/bits/allocator.h ****       typedef true_type is_always_equal;
  87:/usr/include/newlib/c++/9.2.1/bits/allocator.h **** 
  88:/usr/include/newlib/c++/9.2.1/bits/allocator.h ****       template<typename _Up, typename... _Args>
  89:/usr/include/newlib/c++/9.2.1/bits/allocator.h **** 	void
  90:/usr/include/newlib/c++/9.2.1/bits/allocator.h **** 	construct(_Up* __p, _Args&&... __args)
  91:/usr/include/newlib/c++/9.2.1/bits/allocator.h **** 	noexcept(noexcept(::new((void *)__p)
ARM GAS  /tmp/ccgIClPy.s 			page 48


  92:/usr/include/newlib/c++/9.2.1/bits/allocator.h **** 			    _Up(std::forward<_Args>(__args)...)))
  93:/usr/include/newlib/c++/9.2.1/bits/allocator.h **** 	{ ::new((void *)__p) _Up(std::forward<_Args>(__args)...); }
  94:/usr/include/newlib/c++/9.2.1/bits/allocator.h **** 
  95:/usr/include/newlib/c++/9.2.1/bits/allocator.h ****       template<typename _Up>
  96:/usr/include/newlib/c++/9.2.1/bits/allocator.h **** 	void
  97:/usr/include/newlib/c++/9.2.1/bits/allocator.h **** 	destroy(_Up* __p)
  98:/usr/include/newlib/c++/9.2.1/bits/allocator.h **** 	noexcept(noexcept(__p->~_Up()))
  99:/usr/include/newlib/c++/9.2.1/bits/allocator.h **** 	{ __p->~_Up(); }
 100:/usr/include/newlib/c++/9.2.1/bits/allocator.h **** #endif
 101:/usr/include/newlib/c++/9.2.1/bits/allocator.h ****     };
 102:/usr/include/newlib/c++/9.2.1/bits/allocator.h **** 
 103:/usr/include/newlib/c++/9.2.1/bits/allocator.h ****   /**
 104:/usr/include/newlib/c++/9.2.1/bits/allocator.h ****    * @brief  The @a standard allocator, as per [20.4].
 105:/usr/include/newlib/c++/9.2.1/bits/allocator.h ****    *
 106:/usr/include/newlib/c++/9.2.1/bits/allocator.h ****    *  See https://gcc.gnu.org/onlinedocs/libstdc++/manual/memory.html#std.util.memory.allocator
 107:/usr/include/newlib/c++/9.2.1/bits/allocator.h ****    *  for further details.
 108:/usr/include/newlib/c++/9.2.1/bits/allocator.h ****    *
 109:/usr/include/newlib/c++/9.2.1/bits/allocator.h ****    *  @tparam  _Tp  Type of allocated object.
 110:/usr/include/newlib/c++/9.2.1/bits/allocator.h ****    */
 111:/usr/include/newlib/c++/9.2.1/bits/allocator.h ****   template<typename _Tp>
 112:/usr/include/newlib/c++/9.2.1/bits/allocator.h ****     class allocator : public __allocator_base<_Tp>
 113:/usr/include/newlib/c++/9.2.1/bits/allocator.h ****     {
 114:/usr/include/newlib/c++/9.2.1/bits/allocator.h ****    public:
 115:/usr/include/newlib/c++/9.2.1/bits/allocator.h ****       typedef size_t     size_type;
 116:/usr/include/newlib/c++/9.2.1/bits/allocator.h ****       typedef ptrdiff_t  difference_type;
 117:/usr/include/newlib/c++/9.2.1/bits/allocator.h ****       typedef _Tp*       pointer;
 118:/usr/include/newlib/c++/9.2.1/bits/allocator.h ****       typedef const _Tp* const_pointer;
 119:/usr/include/newlib/c++/9.2.1/bits/allocator.h ****       typedef _Tp&       reference;
 120:/usr/include/newlib/c++/9.2.1/bits/allocator.h ****       typedef const _Tp& const_reference;
 121:/usr/include/newlib/c++/9.2.1/bits/allocator.h ****       typedef _Tp        value_type;
 122:/usr/include/newlib/c++/9.2.1/bits/allocator.h **** 
 123:/usr/include/newlib/c++/9.2.1/bits/allocator.h ****       template<typename _Tp1>
 124:/usr/include/newlib/c++/9.2.1/bits/allocator.h **** 	struct rebind
 125:/usr/include/newlib/c++/9.2.1/bits/allocator.h **** 	{ typedef allocator<_Tp1> other; };
 126:/usr/include/newlib/c++/9.2.1/bits/allocator.h **** 
 127:/usr/include/newlib/c++/9.2.1/bits/allocator.h **** #if __cplusplus >= 201103L
 128:/usr/include/newlib/c++/9.2.1/bits/allocator.h ****       // _GLIBCXX_RESOLVE_LIB_DEFECTS
 129:/usr/include/newlib/c++/9.2.1/bits/allocator.h ****       // 2103. std::allocator propagate_on_container_move_assignment
 130:/usr/include/newlib/c++/9.2.1/bits/allocator.h ****       typedef true_type propagate_on_container_move_assignment;
 131:/usr/include/newlib/c++/9.2.1/bits/allocator.h **** 
 132:/usr/include/newlib/c++/9.2.1/bits/allocator.h ****       typedef true_type is_always_equal;
 133:/usr/include/newlib/c++/9.2.1/bits/allocator.h **** #endif
 134:/usr/include/newlib/c++/9.2.1/bits/allocator.h **** 
 135:/usr/include/newlib/c++/9.2.1/bits/allocator.h ****       // _GLIBCXX_RESOLVE_LIB_DEFECTS
 136:/usr/include/newlib/c++/9.2.1/bits/allocator.h ****       // 3035. std::allocator's constructors should be constexpr
 137:/usr/include/newlib/c++/9.2.1/bits/allocator.h ****       _GLIBCXX20_CONSTEXPR
 138:/usr/include/newlib/c++/9.2.1/bits/allocator.h ****       allocator() _GLIBCXX_NOTHROW { }
 139:/usr/include/newlib/c++/9.2.1/bits/allocator.h **** 
 140:/usr/include/newlib/c++/9.2.1/bits/allocator.h ****       _GLIBCXX20_CONSTEXPR
 141:/usr/include/newlib/c++/9.2.1/bits/allocator.h ****       allocator(const allocator& __a) _GLIBCXX_NOTHROW
 142:/usr/include/newlib/c++/9.2.1/bits/allocator.h ****       : __allocator_base<_Tp>(__a) { }
 143:/usr/include/newlib/c++/9.2.1/bits/allocator.h **** 
 144:/usr/include/newlib/c++/9.2.1/bits/allocator.h **** #if __cplusplus >= 201103L
 145:/usr/include/newlib/c++/9.2.1/bits/allocator.h ****       // Avoid implicit deprecation.
 146:/usr/include/newlib/c++/9.2.1/bits/allocator.h ****       allocator& operator=(const allocator&) = default;
 147:/usr/include/newlib/c++/9.2.1/bits/allocator.h **** #endif
 148:/usr/include/newlib/c++/9.2.1/bits/allocator.h **** 
ARM GAS  /tmp/ccgIClPy.s 			page 49


 149:/usr/include/newlib/c++/9.2.1/bits/allocator.h ****       template<typename _Tp1>
 150:/usr/include/newlib/c++/9.2.1/bits/allocator.h **** 	_GLIBCXX20_CONSTEXPR
 151:/usr/include/newlib/c++/9.2.1/bits/allocator.h **** 	allocator(const allocator<_Tp1>&) _GLIBCXX_NOTHROW { }
 152:/usr/include/newlib/c++/9.2.1/bits/allocator.h **** 
 153:/usr/include/newlib/c++/9.2.1/bits/allocator.h ****       ~allocator() _GLIBCXX_NOTHROW { }
 350              		.loc 17 153 7 view .LVU59
 351              	.LBB804:
 352              	.LBI804:
  89:/usr/include/newlib/c++/9.2.1/ext/new_allocator.h **** 
 353              		.loc 16 89 7 view .LVU60
  89:/usr/include/newlib/c++/9.2.1/ext/new_allocator.h **** 
 354              		.loc 16 89 7 is_stmt 0 view .LVU61
 355              	.LBE804:
 356              	.LBE803:
 357              	.LBE802:
 358              	.LBE786:
 359              		.loc 13 12 13 view .LVU62
 360 0018 AC42     		cmp	r4, r5
 361 001a F5D1     		bne	.L12
 362 001c 38BD     		pop	{r3, r4, r5, pc}
 363              	.LVL14:
 364              	.L16:
 365              		.loc 13 12 13 view .LVU63
 366 001e 00BF     		.align	2
 367              	.L15:
 368 0020 68000000 		.word	.LANCHOR0+104
 369              		.cfi_endproc
 370              	.LFE4832:
 372              		.section	.text._ZN5daisy11OledDisplayINS_13SSD130xDriverILj128ELj64ENS_24SSD130x4WireSpiTransportE
 373              		.align	1
 374              		.p2align 2,,3
 375              		.weak	_ZN5daisy11OledDisplayINS_13SSD130xDriverILj128ELj64ENS_24SSD130x4WireSpiTransportEEEED0Ev
 376              		.syntax unified
 377              		.thumb
 378              		.thumb_func
 379              		.fpu fpv5-d16
 381              	_ZN5daisy11OledDisplayINS_13SSD130xDriverILj128ELj64ENS_24SSD130x4WireSpiTransportEEEED0Ev:
 382              	.LVL15:
 383              	.LFB4555:
  17:../../libdaisy/src/hid/disp/oled_display.h **** 
 384              		.loc 2 17 13 is_stmt 1 view -0
 385              		.cfi_startproc
 386              		@ args = 0, pretend = 0, frame = 0
 387              		@ frame_needed = 0, uses_anonymous_args = 0
  17:../../libdaisy/src/hid/disp/oled_display.h **** 
 388              		.loc 2 17 13 is_stmt 0 view .LVU65
 389 0000 10B5     		push	{r4, lr}
 390              		.cfi_def_cfa_offset 8
 391              		.cfi_offset 4, -8
 392              		.cfi_offset 14, -4
  17:../../libdaisy/src/hid/disp/oled_display.h **** 
 393              		.loc 2 17 13 view .LVU66
 394 0002 0446     		mov	r4, r0
 395              	.LVL16:
 396              	.LBB805:
 397              	.LBI805:
  17:../../libdaisy/src/hid/disp/oled_display.h **** 
ARM GAS  /tmp/ccgIClPy.s 			page 50


 398              		.loc 2 17 13 is_stmt 1 view .LVU67
 399              	.LBB806:
 400              	.LBI806:
 401              		.loc 3 219 13 view .LVU68
 402              	.LBB807:
 403              	.LBI807:
  23:../../libdaisy/src/hid/disp/display.h **** 
 404              		.loc 3 23 13 view .LVU69
  23:../../libdaisy/src/hid/disp/display.h **** 
 405              		.loc 3 23 13 is_stmt 0 view .LVU70
 406              	.LBE807:
 407              	.LBE806:
 408              	.LBE805:
  17:../../libdaisy/src/hid/disp/oled_display.h **** 
 409              		.loc 2 17 29 view .LVU71
 410 0004 40F21441 		movw	r1, #1044
 411 0008 FFF7FEFF 		bl	_ZdlPvj
 412              	.LVL17:
  17:../../libdaisy/src/hid/disp/oled_display.h **** 
 413              		.loc 2 17 29 view .LVU72
 414 000c 2046     		mov	r0, r4
 415 000e 10BD     		pop	{r4, pc}
  17:../../libdaisy/src/hid/disp/oled_display.h **** 
 416              		.loc 2 17 29 view .LVU73
 417              		.cfi_endproc
 418              	.LFE4555:
 420              		.section	.text._ZN5daisy11OledDisplayINS_13SSD130xDriverILj128ELj64ENS_24SSD130x4WireSpiTransportE
 421              		.align	1
 422              		.p2align 2,,3
 423              		.weak	_ZN5daisy11OledDisplayINS_13SSD130xDriverILj128ELj64ENS_24SSD130x4WireSpiTransportEEEE6Updat
 424              		.syntax unified
 425              		.thumb
 426              		.thumb_func
 427              		.fpu fpv5-d16
 429              	_ZN5daisy11OledDisplayINS_13SSD130xDriverILj128ELj64ENS_24SSD130x4WireSpiTransportEEEE6UpdateEv:
 430              	.LVL18:
 431              	.LFB4563:
  34:../../libdaisy/src/hid/disp/oled_display.h **** 
  35:../../libdaisy/src/hid/disp/oled_display.h ****     /**
  36:../../libdaisy/src/hid/disp/oled_display.h ****     Sets the pixel at the specified coordinate to be on/off.
  37:../../libdaisy/src/hid/disp/oled_display.h ****     \param x   x Coordinate
  38:../../libdaisy/src/hid/disp/oled_display.h ****     \param y   y coordinate
  39:../../libdaisy/src/hid/disp/oled_display.h ****     \param on  on or off
  40:../../libdaisy/src/hid/disp/oled_display.h ****     */
  41:../../libdaisy/src/hid/disp/oled_display.h ****     void DrawPixel(uint_fast8_t x, uint_fast8_t y, bool on) override
  42:../../libdaisy/src/hid/disp/oled_display.h ****     {
  43:../../libdaisy/src/hid/disp/oled_display.h ****         driver_.DrawPixel(x, y, on);
  44:../../libdaisy/src/hid/disp/oled_display.h ****     }
  45:../../libdaisy/src/hid/disp/oled_display.h **** 
  46:../../libdaisy/src/hid/disp/oled_display.h ****     /** 
  47:../../libdaisy/src/hid/disp/oled_display.h ****     Writes the current display buffer to the OLED device using SPI or I2C depending on 
  48:../../libdaisy/src/hid/disp/oled_display.h ****     how the object was initialized.
  49:../../libdaisy/src/hid/disp/oled_display.h ****     */
  50:../../libdaisy/src/hid/disp/oled_display.h ****     void Update() override { driver_.Update(); }
 432              		.loc 2 50 10 is_stmt 1 view -0
 433              		.cfi_startproc
 434              		@ args = 0, pretend = 0, frame = 8
ARM GAS  /tmp/ccgIClPy.s 			page 51


 435              		@ frame_needed = 0, uses_anonymous_args = 0
 436              	.LBB818:
 437              	.LBI818:
 254:../../libdaisy/src/dev/oled_ssd130x.h ****         }
 255:../../libdaisy/src/dev/oled_ssd130x.h ****     };
 256:../../libdaisy/src/dev/oled_ssd130x.h **** 
 257:../../libdaisy/src/dev/oled_ssd130x.h ****     /**
 258:../../libdaisy/src/dev/oled_ssd130x.h ****      * Update the display 
 259:../../libdaisy/src/dev/oled_ssd130x.h ****     */
 260:../../libdaisy/src/dev/oled_ssd130x.h ****     void Update()
 438              		.loc 12 260 10 view .LVU75
 439              	.LBB819:
 261:../../libdaisy/src/dev/oled_ssd130x.h ****     {
 262:../../libdaisy/src/dev/oled_ssd130x.h ****         uint8_t i;
 263:../../libdaisy/src/dev/oled_ssd130x.h ****         uint8_t high_column_addr;
 264:../../libdaisy/src/dev/oled_ssd130x.h ****         switch(height)
 265:../../libdaisy/src/dev/oled_ssd130x.h ****         {
 266:../../libdaisy/src/dev/oled_ssd130x.h ****             case 32: high_column_addr = 0x12; break;
 267:../../libdaisy/src/dev/oled_ssd130x.h **** 
 268:../../libdaisy/src/dev/oled_ssd130x.h ****             default: high_column_addr = 0x10; break;
 269:../../libdaisy/src/dev/oled_ssd130x.h ****         }
 270:../../libdaisy/src/dev/oled_ssd130x.h ****         for(i = 0; i < (height / 8); i++)
 440              		.loc 12 270 22 view .LVU76
 441              	.LBE819:
 442              	.LBE818:
 443              		.loc 2 50 10 is_stmt 0 view .LVU77
 444 0000 2DE9F041 		push	{r4, r5, r6, r7, r8, lr}
 445              		.cfi_def_cfa_offset 24
 446              		.cfi_offset 4, -24
 447              		.cfi_offset 5, -20
 448              		.cfi_offset 6, -16
 449              		.cfi_offset 7, -12
 450              		.cfi_offset 8, -8
 451              		.cfi_offset 14, -4
 452 0004 B025     		movs	r5, #176
 453 0006 82B0     		sub	sp, sp, #8
 454              		.cfi_def_cfa_offset 32
 455 0008 00F10807 		add	r7, r0, #8
 456 000c 00F11006 		add	r6, r0, #16
 457 0010 00F11404 		add	r4, r0, #20
 458              	.LVL19:
 459              	.L20:
 460              	.LBB832:
 461              	.LBB831:
 462              	.LBB820:
 463              	.LBB821:
 111:../../libdaisy/src/dev/oled_ssd130x.h ****         spi_.BlockingTransmit(&cmd, 1);
 464              		.loc 12 111 23 view .LVU78
 465 0014 0021     		movs	r1, #0
 466 0016 3046     		mov	r0, r6
 467 0018 8DF80750 		strb	r5, [sp, #7]
 468              	.LVL20:
 111:../../libdaisy/src/dev/oled_ssd130x.h ****         spi_.BlockingTransmit(&cmd, 1);
 469              		.loc 12 111 23 view .LVU79
 470              	.LBE821:
 471              	.LBI820:
 109:../../libdaisy/src/dev/oled_ssd130x.h ****     {
ARM GAS  /tmp/ccgIClPy.s 			page 52


 472              		.loc 12 109 10 is_stmt 1 view .LVU80
 473              	.LBB822:
 111:../../libdaisy/src/dev/oled_ssd130x.h ****         spi_.BlockingTransmit(&cmd, 1);
 474              		.loc 12 111 9 view .LVU81
 475 001c 0135     		adds	r5, r5, #1
 476              	.LVL21:
 111:../../libdaisy/src/dev/oled_ssd130x.h ****         spi_.BlockingTransmit(&cmd, 1);
 477              		.loc 12 111 9 is_stmt 0 view .LVU82
 478 001e 8846     		mov	r8, r1
 111:../../libdaisy/src/dev/oled_ssd130x.h ****         spi_.BlockingTransmit(&cmd, 1);
 479              		.loc 12 111 23 view .LVU83
 480 0020 FFF7FEFF 		bl	dsy_gpio_write
 481              	.LVL22:
 112:../../libdaisy/src/dev/oled_ssd130x.h ****     };
 482              		.loc 12 112 9 is_stmt 1 view .LVU84
 112:../../libdaisy/src/dev/oled_ssd130x.h ****     };
 483              		.loc 12 112 30 is_stmt 0 view .LVU85
 484 0024 6423     		movs	r3, #100
 485 0026 0122     		movs	r2, #1
 486 0028 0DF10701 		add	r1, sp, #7
 487 002c 3846     		mov	r0, r7
 488 002e FFF7FEFF 		bl	_ZN5daisy9SpiHandle16BlockingTransmitEPhjm
 489              	.LVL23:
 112:../../libdaisy/src/dev/oled_ssd130x.h ****     };
 490              		.loc 12 112 30 view .LVU86
 491              	.LBE822:
 492              	.LBE820:
 493              	.LBB823:
 494              	.LBB824:
 111:../../libdaisy/src/dev/oled_ssd130x.h ****         spi_.BlockingTransmit(&cmd, 1);
 495              		.loc 12 111 23 view .LVU87
 496 0032 4146     		mov	r1, r8
 497 0034 3046     		mov	r0, r6
 498 0036 8DF80780 		strb	r8, [sp, #7]
 499              	.LVL24:
 111:../../libdaisy/src/dev/oled_ssd130x.h ****         spi_.BlockingTransmit(&cmd, 1);
 500              		.loc 12 111 23 view .LVU88
 501              	.LBE824:
 502              	.LBI823:
 109:../../libdaisy/src/dev/oled_ssd130x.h ****     {
 503              		.loc 12 109 10 is_stmt 1 view .LVU89
 504              	.LBB825:
 111:../../libdaisy/src/dev/oled_ssd130x.h ****         spi_.BlockingTransmit(&cmd, 1);
 505              		.loc 12 111 9 view .LVU90
 111:../../libdaisy/src/dev/oled_ssd130x.h ****         spi_.BlockingTransmit(&cmd, 1);
 506              		.loc 12 111 23 is_stmt 0 view .LVU91
 507 003a FFF7FEFF 		bl	dsy_gpio_write
 508              	.LVL25:
 112:../../libdaisy/src/dev/oled_ssd130x.h ****     };
 509              		.loc 12 112 9 is_stmt 1 view .LVU92
 112:../../libdaisy/src/dev/oled_ssd130x.h ****     };
 510              		.loc 12 112 30 is_stmt 0 view .LVU93
 511 003e 0122     		movs	r2, #1
 512 0040 6423     		movs	r3, #100
 513 0042 0DF10701 		add	r1, sp, #7
 514 0046 3846     		mov	r0, r7
 515 0048 EDB2     		uxtb	r5, r5
ARM GAS  /tmp/ccgIClPy.s 			page 53


 516 004a FFF7FEFF 		bl	_ZN5daisy9SpiHandle16BlockingTransmitEPhjm
 517              	.LVL26:
 112:../../libdaisy/src/dev/oled_ssd130x.h ****     };
 518              		.loc 12 112 30 view .LVU94
 519 004e 1023     		movs	r3, #16
 520              	.LBE825:
 521              	.LBE823:
 522              	.LBB826:
 523              	.LBB827:
 111:../../libdaisy/src/dev/oled_ssd130x.h ****         spi_.BlockingTransmit(&cmd, 1);
 524              		.loc 12 111 23 view .LVU95
 525 0050 4146     		mov	r1, r8
 526 0052 3046     		mov	r0, r6
 527 0054 8DF80730 		strb	r3, [sp, #7]
 528              	.LVL27:
 111:../../libdaisy/src/dev/oled_ssd130x.h ****         spi_.BlockingTransmit(&cmd, 1);
 529              		.loc 12 111 23 view .LVU96
 530              	.LBE827:
 531              	.LBI826:
 109:../../libdaisy/src/dev/oled_ssd130x.h ****     {
 532              		.loc 12 109 10 is_stmt 1 view .LVU97
 533              	.LBB828:
 111:../../libdaisy/src/dev/oled_ssd130x.h ****         spi_.BlockingTransmit(&cmd, 1);
 534              		.loc 12 111 9 view .LVU98
 111:../../libdaisy/src/dev/oled_ssd130x.h ****         spi_.BlockingTransmit(&cmd, 1);
 535              		.loc 12 111 23 is_stmt 0 view .LVU99
 536 0058 FFF7FEFF 		bl	dsy_gpio_write
 537              	.LVL28:
 112:../../libdaisy/src/dev/oled_ssd130x.h ****     };
 538              		.loc 12 112 9 is_stmt 1 view .LVU100
 112:../../libdaisy/src/dev/oled_ssd130x.h ****     };
 539              		.loc 12 112 30 is_stmt 0 view .LVU101
 540 005c 6423     		movs	r3, #100
 541 005e 0122     		movs	r2, #1
 542 0060 0DF10701 		add	r1, sp, #7
 543 0064 3846     		mov	r0, r7
 544 0066 FFF7FEFF 		bl	_ZN5daisy9SpiHandle16BlockingTransmitEPhjm
 545              	.LVL29:
 112:../../libdaisy/src/dev/oled_ssd130x.h ****     };
 546              		.loc 12 112 30 view .LVU102
 547              	.LBE828:
 548              	.LBE826:
 549              	.LBB829:
 550              	.LBI829:
 115:../../libdaisy/src/dev/oled_ssd130x.h ****     {
 551              		.loc 12 115 10 is_stmt 1 view .LVU103
 552              	.LBB830:
 117:../../libdaisy/src/dev/oled_ssd130x.h ****         spi_.BlockingTransmit(buff, size);
 553              		.loc 12 117 9 view .LVU104
 117:../../libdaisy/src/dev/oled_ssd130x.h ****         spi_.BlockingTransmit(buff, size);
 554              		.loc 12 117 23 is_stmt 0 view .LVU105
 555 006a 0121     		movs	r1, #1
 556 006c 3046     		mov	r0, r6
 557 006e FFF7FEFF 		bl	dsy_gpio_write
 558              	.LVL30:
 118:../../libdaisy/src/dev/oled_ssd130x.h ****     };
 559              		.loc 12 118 9 is_stmt 1 view .LVU106
ARM GAS  /tmp/ccgIClPy.s 			page 54


 118:../../libdaisy/src/dev/oled_ssd130x.h ****     };
 560              		.loc 12 118 30 is_stmt 0 view .LVU107
 561 0072 8022     		movs	r2, #128
 562 0074 2146     		mov	r1, r4
 563 0076 6423     		movs	r3, #100
 564 0078 3846     		mov	r0, r7
 565 007a 1444     		add	r4, r4, r2
 566              	.LVL31:
 118:../../libdaisy/src/dev/oled_ssd130x.h ****     };
 567              		.loc 12 118 30 view .LVU108
 568 007c FFF7FEFF 		bl	_ZN5daisy9SpiHandle16BlockingTransmitEPhjm
 569              	.LVL32:
 118:../../libdaisy/src/dev/oled_ssd130x.h ****     };
 570              		.loc 12 118 30 view .LVU109
 571              	.LBE830:
 572              	.LBE829:
 573              		.loc 12 270 9 is_stmt 1 view .LVU110
 574              		.loc 12 270 22 view .LVU111
 575 0080 B82D     		cmp	r5, #184
 576 0082 C7D1     		bne	.L20
 577              	.LBE831:
 578              	.LBE832:
 579              		.loc 2 50 48 is_stmt 0 view .LVU112
 580 0084 02B0     		add	sp, sp, #8
 581              		.cfi_def_cfa_offset 24
 582              		@ sp needed
 583 0086 BDE8F081 		pop	{r4, r5, r6, r7, r8, pc}
 584              		.loc 2 50 48 view .LVU113
 585              		.cfi_endproc
 586              	.LFE4563:
 588 008a 00BF     		.section	.text._ZN5daisy25OneBitGraphicsDisplayImplINS_11OledDisplayINS_13SSD130xDriverILj128ELj64
 589              		.align	1
 590              		.p2align 2,,3
 591              		.weak	_ZN5daisy25OneBitGraphicsDisplayImplINS_11OledDisplayINS_13SSD130xDriverILj128ELj64ENS_24SSD
 592              		.syntax unified
 593              		.thumb
 594              		.thumb_func
 595              		.fpu fpv5-d16
 597              	_ZN5daisy25OneBitGraphicsDisplayImplINS_11OledDisplayINS_13SSD130xDriverILj128ELj64ENS_24SSD130x4Wi
 598              	.LVL33:
 599              	.LFB4691:
 220:../../libdaisy/src/hid/disp/display.h **** 
 221:../../libdaisy/src/hid/disp/display.h ****     void DrawLine(uint_fast8_t x1,
 222:../../libdaisy/src/hid/disp/display.h ****                   uint_fast8_t y1,
 223:../../libdaisy/src/hid/disp/display.h ****                   uint_fast8_t x2,
 224:../../libdaisy/src/hid/disp/display.h ****                   uint_fast8_t y2,
 225:../../libdaisy/src/hid/disp/display.h ****                   bool         on) override
 226:../../libdaisy/src/hid/disp/display.h ****     {
 227:../../libdaisy/src/hid/disp/display.h ****         int_fast16_t deltaX = abs((int_fast16_t)x2 - (int_fast16_t)x1);
 228:../../libdaisy/src/hid/disp/display.h ****         int_fast16_t deltaY = abs((int_fast16_t)y2 - (int_fast16_t)y1);
 229:../../libdaisy/src/hid/disp/display.h ****         int_fast16_t signX  = ((x1 < x2) ? 1 : -1);
 230:../../libdaisy/src/hid/disp/display.h ****         int_fast16_t signY  = ((y1 < y2) ? 1 : -1);
 231:../../libdaisy/src/hid/disp/display.h ****         int_fast16_t error  = deltaX - deltaY;
 232:../../libdaisy/src/hid/disp/display.h ****         int_fast16_t error2;
 233:../../libdaisy/src/hid/disp/display.h **** 
 234:../../libdaisy/src/hid/disp/display.h ****         // If we write "ChildType::DrawPixel(x2, y2, on);", we end up with
 235:../../libdaisy/src/hid/disp/display.h ****         // all sorts of weird compiler errors when the Child class is a template
ARM GAS  /tmp/ccgIClPy.s 			page 55


 236:../../libdaisy/src/hid/disp/display.h ****         // class. The only way around this is to use this very verbose syntax:
 237:../../libdaisy/src/hid/disp/display.h ****         ((ChildType*)(this))->ChildType::DrawPixel(x2, y2, on);
 238:../../libdaisy/src/hid/disp/display.h **** 
 239:../../libdaisy/src/hid/disp/display.h ****         while((x1 != x2) || (y1 != y2))
 240:../../libdaisy/src/hid/disp/display.h ****         {
 241:../../libdaisy/src/hid/disp/display.h ****             ((ChildType*)(this))->ChildType::DrawPixel(x1, y1, on);
 242:../../libdaisy/src/hid/disp/display.h ****             error2 = error * 2;
 243:../../libdaisy/src/hid/disp/display.h ****             if(error2 > -deltaY)
 244:../../libdaisy/src/hid/disp/display.h ****             {
 245:../../libdaisy/src/hid/disp/display.h ****                 error -= deltaY;
 246:../../libdaisy/src/hid/disp/display.h ****                 x1 += signX;
 247:../../libdaisy/src/hid/disp/display.h ****             }
 248:../../libdaisy/src/hid/disp/display.h **** 
 249:../../libdaisy/src/hid/disp/display.h ****             if(error2 < deltaX)
 250:../../libdaisy/src/hid/disp/display.h ****             {
 251:../../libdaisy/src/hid/disp/display.h ****                 error += deltaX;
 252:../../libdaisy/src/hid/disp/display.h ****                 y1 += signY;
 253:../../libdaisy/src/hid/disp/display.h ****             }
 254:../../libdaisy/src/hid/disp/display.h ****         }
 255:../../libdaisy/src/hid/disp/display.h ****     }
 256:../../libdaisy/src/hid/disp/display.h **** 
 257:../../libdaisy/src/hid/disp/display.h ****     void DrawRect(uint_fast8_t x1,
 258:../../libdaisy/src/hid/disp/display.h ****                   uint_fast8_t y1,
 259:../../libdaisy/src/hid/disp/display.h ****                   uint_fast8_t x2,
 260:../../libdaisy/src/hid/disp/display.h ****                   uint_fast8_t y2,
 261:../../libdaisy/src/hid/disp/display.h ****                   bool         on,
 262:../../libdaisy/src/hid/disp/display.h ****                   bool         fill = false) override
 263:../../libdaisy/src/hid/disp/display.h ****     {
 264:../../libdaisy/src/hid/disp/display.h ****         if(fill)
 265:../../libdaisy/src/hid/disp/display.h ****         {
 266:../../libdaisy/src/hid/disp/display.h ****             for(uint_fast8_t x = x1; x <= x2; x++)
 267:../../libdaisy/src/hid/disp/display.h ****             {
 268:../../libdaisy/src/hid/disp/display.h ****                 for(uint_fast8_t y = y1; y <= y2; y++)
 269:../../libdaisy/src/hid/disp/display.h ****                 {
 270:../../libdaisy/src/hid/disp/display.h ****                     ((ChildType*)(this))->ChildType::DrawPixel(x, y, on);
 271:../../libdaisy/src/hid/disp/display.h ****                 }
 272:../../libdaisy/src/hid/disp/display.h ****             }
 273:../../libdaisy/src/hid/disp/display.h ****         }
 274:../../libdaisy/src/hid/disp/display.h ****         else
 275:../../libdaisy/src/hid/disp/display.h ****         {
 276:../../libdaisy/src/hid/disp/display.h ****             ((ChildType*)(this))->ChildType::DrawLine(x1, y1, x2, y1, on);
 277:../../libdaisy/src/hid/disp/display.h ****             ((ChildType*)(this))->ChildType::DrawLine(x2, y1, x2, y2, on);
 278:../../libdaisy/src/hid/disp/display.h ****             ((ChildType*)(this))->ChildType::DrawLine(x2, y2, x1, y2, on);
 279:../../libdaisy/src/hid/disp/display.h ****             ((ChildType*)(this))->ChildType::DrawLine(x1, y2, x1, y1, on);
 280:../../libdaisy/src/hid/disp/display.h ****         }
 281:../../libdaisy/src/hid/disp/display.h ****     }
 282:../../libdaisy/src/hid/disp/display.h **** 
 283:../../libdaisy/src/hid/disp/display.h ****     void DrawArc(uint_fast8_t x,
 284:../../libdaisy/src/hid/disp/display.h ****                  uint_fast8_t y,
 285:../../libdaisy/src/hid/disp/display.h ****                  uint_fast8_t radius,
 286:../../libdaisy/src/hid/disp/display.h ****                  int_fast16_t start_angle,
 287:../../libdaisy/src/hid/disp/display.h ****                  int_fast16_t sweep,
 288:../../libdaisy/src/hid/disp/display.h ****                  bool         on) override
 289:../../libdaisy/src/hid/disp/display.h ****     {
 290:../../libdaisy/src/hid/disp/display.h ****         // Values to calculate the circle
 291:../../libdaisy/src/hid/disp/display.h ****         int_fast16_t t_x, t_y, err, e2;
 292:../../libdaisy/src/hid/disp/display.h **** 
ARM GAS  /tmp/ccgIClPy.s 			page 56


 293:../../libdaisy/src/hid/disp/display.h ****         // Temporary values to speed up comparisons
 294:../../libdaisy/src/hid/disp/display.h ****         float t_sxy, t_syx, t_sxny, t_synx;
 295:../../libdaisy/src/hid/disp/display.h ****         float t_exy, t_eyx, t_exny, t_eynx;
 296:../../libdaisy/src/hid/disp/display.h **** 
 297:../../libdaisy/src/hid/disp/display.h ****         float start_angle_rad, end_angle_rad;
 298:../../libdaisy/src/hid/disp/display.h ****         float start_x, start_y, end_x, end_y;
 299:../../libdaisy/src/hid/disp/display.h **** 
 300:../../libdaisy/src/hid/disp/display.h ****         bool d1, d2, d3, d4;
 301:../../libdaisy/src/hid/disp/display.h **** 
 302:../../libdaisy/src/hid/disp/display.h ****         d1 = d2 = d3 = d4 = true;
 303:../../libdaisy/src/hid/disp/display.h **** 
 304:../../libdaisy/src/hid/disp/display.h ****         bool circle = false;
 305:../../libdaisy/src/hid/disp/display.h **** 
 306:../../libdaisy/src/hid/disp/display.h ****         if(sweep < 0)
 307:../../libdaisy/src/hid/disp/display.h ****         {
 308:../../libdaisy/src/hid/disp/display.h ****             start_angle += sweep;
 309:../../libdaisy/src/hid/disp/display.h ****             sweep = -sweep;
 310:../../libdaisy/src/hid/disp/display.h ****         }
 311:../../libdaisy/src/hid/disp/display.h **** 
 312:../../libdaisy/src/hid/disp/display.h ****         start_angle_rad = deg2rad(start_angle);
 313:../../libdaisy/src/hid/disp/display.h ****         end_angle_rad   = deg2rad(start_angle + sweep);
 314:../../libdaisy/src/hid/disp/display.h **** 
 315:../../libdaisy/src/hid/disp/display.h ****         start_x = cos(start_angle_rad) * radius;
 316:../../libdaisy/src/hid/disp/display.h ****         start_y = -sin(start_angle_rad) * radius;
 317:../../libdaisy/src/hid/disp/display.h ****         end_x   = cos(end_angle_rad) * radius;
 318:../../libdaisy/src/hid/disp/display.h ****         end_y   = -sin(end_angle_rad) * radius;
 319:../../libdaisy/src/hid/disp/display.h **** 
 320:../../libdaisy/src/hid/disp/display.h ****         // Check if start and endpoint are very near
 321:../../libdaisy/src/hid/disp/display.h ****         if((end_x - start_x) * (end_x - start_x)
 322:../../libdaisy/src/hid/disp/display.h ****                + (end_y - start_y) * (end_y - start_y)
 323:../../libdaisy/src/hid/disp/display.h ****            < 2.0f)
 324:../../libdaisy/src/hid/disp/display.h ****         {
 325:../../libdaisy/src/hid/disp/display.h ****             if(sweep > 180)
 326:../../libdaisy/src/hid/disp/display.h ****                 circle = true;
 327:../../libdaisy/src/hid/disp/display.h ****             else
 328:../../libdaisy/src/hid/disp/display.h ****                 // Nothing to draw
 329:../../libdaisy/src/hid/disp/display.h ****                 return;
 330:../../libdaisy/src/hid/disp/display.h ****         }
 331:../../libdaisy/src/hid/disp/display.h **** 
 332:../../libdaisy/src/hid/disp/display.h ****         t_x = -radius;
 333:../../libdaisy/src/hid/disp/display.h ****         t_y = 0;
 334:../../libdaisy/src/hid/disp/display.h ****         err = 2 - 2 * radius;
 335:../../libdaisy/src/hid/disp/display.h **** 
 336:../../libdaisy/src/hid/disp/display.h ****         do
 337:../../libdaisy/src/hid/disp/display.h ****         {
 338:../../libdaisy/src/hid/disp/display.h ****             if(!circle)
 339:../../libdaisy/src/hid/disp/display.h ****             {
 340:../../libdaisy/src/hid/disp/display.h ****                 t_sxy  = start_x * t_y;
 341:../../libdaisy/src/hid/disp/display.h ****                 t_syx  = start_y * t_x;
 342:../../libdaisy/src/hid/disp/display.h ****                 t_sxny = start_x * -t_y;
 343:../../libdaisy/src/hid/disp/display.h ****                 t_synx = start_y * -t_x;
 344:../../libdaisy/src/hid/disp/display.h ****                 t_exy  = end_x * t_y;
 345:../../libdaisy/src/hid/disp/display.h ****                 t_eyx  = end_y * t_x;
 346:../../libdaisy/src/hid/disp/display.h ****                 t_exny = end_x * -t_y;
 347:../../libdaisy/src/hid/disp/display.h ****                 t_eynx = end_y * -t_x;
 348:../../libdaisy/src/hid/disp/display.h **** 
 349:../../libdaisy/src/hid/disp/display.h ****                 if(sweep > 180)
ARM GAS  /tmp/ccgIClPy.s 			page 57


 350:../../libdaisy/src/hid/disp/display.h ****                 {
 351:../../libdaisy/src/hid/disp/display.h ****                     d1 = (t_sxy - t_synx < 0 || t_exy - t_eynx > 0);
 352:../../libdaisy/src/hid/disp/display.h ****                     d2 = (t_sxy - t_syx < 0 || t_exy - t_eyx > 0);
 353:../../libdaisy/src/hid/disp/display.h ****                     d3 = (t_sxny - t_syx < 0 || t_exny - t_eyx > 0);
 354:../../libdaisy/src/hid/disp/display.h ****                     d4 = (t_sxny - t_synx < 0 || t_exny - t_eynx > 0);
 355:../../libdaisy/src/hid/disp/display.h ****                 }
 356:../../libdaisy/src/hid/disp/display.h ****                 else
 357:../../libdaisy/src/hid/disp/display.h ****                 {
 358:../../libdaisy/src/hid/disp/display.h ****                     d1 = (t_sxy - t_synx < 0 && t_exy - t_eynx > 0);
 359:../../libdaisy/src/hid/disp/display.h ****                     d2 = (t_sxy - t_syx < 0 && t_exy - t_eyx > 0);
 360:../../libdaisy/src/hid/disp/display.h ****                     d3 = (t_sxny - t_syx < 0 && t_exny - t_eyx > 0);
 361:../../libdaisy/src/hid/disp/display.h ****                     d4 = (t_sxny - t_synx < 0 && t_exny - t_eynx > 0);
 362:../../libdaisy/src/hid/disp/display.h ****                 }
 363:../../libdaisy/src/hid/disp/display.h ****             }
 364:../../libdaisy/src/hid/disp/display.h **** 
 365:../../libdaisy/src/hid/disp/display.h ****             if(d1)
 366:../../libdaisy/src/hid/disp/display.h ****                 ((ChildType*)(this))
 367:../../libdaisy/src/hid/disp/display.h ****                     ->ChildType::DrawPixel(x - t_x, y + t_y, on);
 368:../../libdaisy/src/hid/disp/display.h ****             if(d2)
 369:../../libdaisy/src/hid/disp/display.h ****                 ((ChildType*)(this))
 370:../../libdaisy/src/hid/disp/display.h ****                     ->ChildType::DrawPixel(x + t_x, y + t_y, on);
 371:../../libdaisy/src/hid/disp/display.h ****             if(d3)
 372:../../libdaisy/src/hid/disp/display.h ****                 ((ChildType*)(this))
 373:../../libdaisy/src/hid/disp/display.h ****                     ->ChildType::DrawPixel(x + t_x, y - t_y, on);
 374:../../libdaisy/src/hid/disp/display.h ****             if(d4)
 375:../../libdaisy/src/hid/disp/display.h ****                 ((ChildType*)(this))
 376:../../libdaisy/src/hid/disp/display.h ****                     ->ChildType::DrawPixel(x - t_x, y - t_y, on);
 377:../../libdaisy/src/hid/disp/display.h **** 
 378:../../libdaisy/src/hid/disp/display.h ****             e2 = err;
 379:../../libdaisy/src/hid/disp/display.h ****             if(e2 <= t_y)
 380:../../libdaisy/src/hid/disp/display.h ****             {
 381:../../libdaisy/src/hid/disp/display.h ****                 t_y++;
 382:../../libdaisy/src/hid/disp/display.h ****                 err = err + (t_y * 2 + 1);
 383:../../libdaisy/src/hid/disp/display.h ****                 if(-t_x == t_y && e2 <= t_x)
 384:../../libdaisy/src/hid/disp/display.h ****                 {
 385:../../libdaisy/src/hid/disp/display.h ****                     e2 = 0;
 386:../../libdaisy/src/hid/disp/display.h ****                 }
 387:../../libdaisy/src/hid/disp/display.h ****             }
 388:../../libdaisy/src/hid/disp/display.h ****             if(e2 > t_x)
 389:../../libdaisy/src/hid/disp/display.h ****             {
 390:../../libdaisy/src/hid/disp/display.h ****                 t_x++;
 391:../../libdaisy/src/hid/disp/display.h ****                 err = err + (t_x * 2 + 1);
 392:../../libdaisy/src/hid/disp/display.h ****             }
 393:../../libdaisy/src/hid/disp/display.h ****         } while(t_x <= 0);
 394:../../libdaisy/src/hid/disp/display.h ****     }
 395:../../libdaisy/src/hid/disp/display.h **** 
 396:../../libdaisy/src/hid/disp/display.h ****     char WriteChar(char ch, FontDef font, bool on) override
 600              		.loc 3 396 10 is_stmt 1 view -0
 601              		.cfi_startproc
 602              		@ args = 4, pretend = 0, frame = 16
 603              		@ frame_needed = 0, uses_anonymous_args = 0
 604              		.loc 3 396 10 is_stmt 0 view .LVU115
 605 0000 2DE9F04F 		push	{r4, r5, r6, r7, r8, r9, r10, fp, lr}
 606              		.cfi_def_cfa_offset 36
 607              		.cfi_offset 4, -36
 608              		.cfi_offset 5, -32
 609              		.cfi_offset 6, -28
ARM GAS  /tmp/ccgIClPy.s 			page 58


 610              		.cfi_offset 7, -24
 611              		.cfi_offset 8, -20
 612              		.cfi_offset 9, -16
 613              		.cfi_offset 10, -12
 614              		.cfi_offset 11, -8
 615              		.cfi_offset 14, -4
 616 0004 85B0     		sub	sp, sp, #20
 617              		.cfi_def_cfa_offset 56
 618              	.LVL34:
 397:../../libdaisy/src/hid/disp/display.h ****     {
 398:../../libdaisy/src/hid/disp/display.h ****         uint32_t i, b, j;
 399:../../libdaisy/src/hid/disp/display.h **** 
 400:../../libdaisy/src/hid/disp/display.h ****         // Check if character is valid
 401:../../libdaisy/src/hid/disp/display.h ****         if(ch < 32 || ch > 126)
 619              		.loc 3 401 20 view .LVU116
 620 0006 A1F12004 		sub	r4, r1, #32
 396:../../libdaisy/src/hid/disp/display.h ****     {
 621              		.loc 3 396 10 view .LVU117
 622 000a 0091     		str	r1, [sp]
 623 000c 04A9     		add	r1, sp, #16
 624              	.LVL35:
 396:../../libdaisy/src/hid/disp/display.h ****     {
 625              		.loc 3 396 10 view .LVU118
 626 000e 9DF83880 		ldrb	r8, [sp, #56]	@ zero_extendqisi2
 627 0012 01E90C00 		stmdb	r1, {r2, r3}
 628              	.LVL36:
 629              		.loc 3 401 9 view .LVU119
 630 0016 E3B2     		uxtb	r3, r4
 631 0018 5E2B     		cmp	r3, #94
 632 001a 00F29480 		bhi	.L27
 402:../../libdaisy/src/hid/disp/display.h ****             return 0;
 403:../../libdaisy/src/hid/disp/display.h **** 
 404:../../libdaisy/src/hid/disp/display.h ****         // Check remaining space on current line
 405:../../libdaisy/src/hid/disp/display.h ****         if(Width() < (currentX_ + font.FontWidth)
 633              		.loc 3 405 17 view .LVU120
 634 001e 0368     		ldr	r3, [r0]
 635 0020 8146     		mov	r9, r0
 636 0022 5C4A     		ldr	r2, .L63
 637 0024 DB68     		ldr	r3, [r3, #12]
 638 0026 9DF80860 		ldrb	r6, [sp, #8]	@ zero_extendqisi2
 639 002a 9342     		cmp	r3, r2
 640 002c 9DF80950 		ldrb	r5, [sp, #9]	@ zero_extendqisi2
 641 0030 40F09380 		bne	.L54
