ARM GAS  /tmp/ccunrK7J.s 			page 1


   1              		.cpu cortex-m7
   2              		.eabi_attribute 28, 1
   3              		.eabi_attribute 20, 1
   4              		.eabi_attribute 21, 1
   5              		.eabi_attribute 23, 3
   6              		.eabi_attribute 24, 1
   7              		.eabi_attribute 25, 1
   8              		.eabi_attribute 26, 1
   9              		.eabi_attribute 30, 2
  10              		.eabi_attribute 34, 1
  11              		.eabi_attribute 18, 4
  12              		.file	"line.cpp"
  13              		.text
  14              	.Ltext0:
  15              		.cfi_sections	.debug_frame
  16              		.section	.text._ZN7daisysp4LineD2Ev,"axG",%progbits,_ZN7daisysp4LineD5Ev,comdat
  17              		.align	1
  18              		.p2align 2,,3
  19              		.weak	_ZN7daisysp4LineD2Ev
  20              		.arch armv7e-m
  21              		.syntax unified
  22              		.thumb
  23              		.thumb_func
  24              		.fpu fpv5-d16
  26              	_ZN7daisysp4LineD2Ev:
  27              	.LVL0:
  28              	.LFB572:
  29              		.file 1 "../../DaisySP/Source/Control/line.h"
   1:../../DaisySP/Source/Control/line.h **** #pragma once
   2:../../DaisySP/Source/Control/line.h **** #ifndef LINE_H
   3:../../DaisySP/Source/Control/line.h **** #define LINE_H
   4:../../DaisySP/Source/Control/line.h **** #include <stdint.h>
   5:../../DaisySP/Source/Control/line.h **** #ifdef __cplusplus
   6:../../DaisySP/Source/Control/line.h **** 
   7:../../DaisySP/Source/Control/line.h **** namespace daisysp
   8:../../DaisySP/Source/Control/line.h **** {
   9:../../DaisySP/Source/Control/line.h **** /** creates a Line segment signal
  10:../../DaisySP/Source/Control/line.h ****     */
  11:../../DaisySP/Source/Control/line.h **** class Line
  12:../../DaisySP/Source/Control/line.h **** {
  13:../../DaisySP/Source/Control/line.h ****   public:
  14:../../DaisySP/Source/Control/line.h ****     Line() {}
  15:../../DaisySP/Source/Control/line.h ****     ~Line() {}
  30              		.loc 1 15 5 view -0
  31              		.cfi_startproc
  32              		@ args = 0, pretend = 0, frame = 0
  33              		@ frame_needed = 0, uses_anonymous_args = 0
  34              		@ link register save eliminated.
  35              		.loc 1 15 14 is_stmt 0 view .LVU1
  36 0000 7047     		bx	lr
  37              		.cfi_endproc
  38              	.LFE572:
  40              		.weak	_ZN7daisysp4LineD1Ev
  41              		.thumb_set _ZN7daisysp4LineD1Ev,_ZN7daisysp4LineD2Ev
  42 0002 00BF     		.section	.text._ZN7daisysp10OscillatorD2Ev,"axG",%progbits,_ZN7daisysp10OscillatorD5Ev,comdat
  43              		.align	1
  44              		.p2align 2,,3
ARM GAS  /tmp/ccunrK7J.s 			page 2


  45              		.weak	_ZN7daisysp10OscillatorD2Ev
  46              		.syntax unified
  47              		.thumb
  48              		.thumb_func
  49              		.fpu fpv5-d16
  51              	_ZN7daisysp10OscillatorD2Ev:
  52              	.LVL1:
  53              	.LFB2797:
  54              		.file 2 "../../DaisySP/Source/Synthesis/oscillator.h"
   1:../../DaisySP/Source/Synthesis/oscillator.h **** #pragma once
   2:../../DaisySP/Source/Synthesis/oscillator.h **** #ifndef DSY_OSCILLATOR_H
   3:../../DaisySP/Source/Synthesis/oscillator.h **** #define DSY_OSCILLATOR_H
   4:../../DaisySP/Source/Synthesis/oscillator.h **** #include <stdint.h>
   5:../../DaisySP/Source/Synthesis/oscillator.h **** #include "Utility/dsp.h"
   6:../../DaisySP/Source/Synthesis/oscillator.h **** #ifdef __cplusplus
   7:../../DaisySP/Source/Synthesis/oscillator.h **** 
   8:../../DaisySP/Source/Synthesis/oscillator.h **** namespace daisysp
   9:../../DaisySP/Source/Synthesis/oscillator.h **** {
  10:../../DaisySP/Source/Synthesis/oscillator.h **** /** Synthesis of several waveforms, including polyBLEP bandlimited waveforms.
  11:../../DaisySP/Source/Synthesis/oscillator.h **** */
  12:../../DaisySP/Source/Synthesis/oscillator.h **** class Oscillator
  13:../../DaisySP/Source/Synthesis/oscillator.h **** {
  14:../../DaisySP/Source/Synthesis/oscillator.h ****   public:
  15:../../DaisySP/Source/Synthesis/oscillator.h ****     Oscillator() {}
  16:../../DaisySP/Source/Synthesis/oscillator.h ****     ~Oscillator() {}
  55              		.loc 2 16 5 is_stmt 1 view -0
  56              		.cfi_startproc
  57              		@ args = 0, pretend = 0, frame = 0
  58              		@ frame_needed = 0, uses_anonymous_args = 0
  59              		@ link register save eliminated.
  60              		.loc 2 16 20 is_stmt 0 view .LVU3
  61 0000 7047     		bx	lr
  62              		.cfi_endproc
  63              	.LFE2797:
  65              		.weak	_ZN7daisysp10OscillatorD1Ev
  66              		.thumb_set _ZN7daisysp10OscillatorD1Ev,_ZN7daisysp10OscillatorD2Ev
  67 0002 00BF     		.section	.text._ZN5daisy9DaisySeedD2Ev,"axG",%progbits,_ZN5daisy9DaisySeedD5Ev,comdat
  68              		.align	1
  69              		.p2align 2,,3
  70              		.weak	_ZN5daisy9DaisySeedD2Ev
  71              		.syntax unified
  72              		.thumb
  73              		.thumb_func
  74              		.fpu fpv5-d16
  76              	_ZN5daisy9DaisySeedD2Ev:
  77              	.LVL2:
  78              	.LFB4207:
  79              		.file 3 "../../libdaisy/src/daisy_seed.h"
   1:../../libdaisy/src/daisy_seed.h **** #pragma once
   2:../../libdaisy/src/daisy_seed.h **** #ifndef DSY_SEED_H
   3:../../libdaisy/src/daisy_seed.h **** #define DSY_SEED_H
   4:../../libdaisy/src/daisy_seed.h **** 
   5:../../libdaisy/src/daisy_seed.h **** #include "daisy.h"
   6:../../libdaisy/src/daisy_seed.h **** 
   7:../../libdaisy/src/daisy_seed.h **** //Uncomment this out if you're still using the rev2 hardware
   8:../../libdaisy/src/daisy_seed.h **** //#define SEED_REV2
   9:../../libdaisy/src/daisy_seed.h **** 
ARM GAS  /tmp/ccunrK7J.s 			page 3


  10:../../libdaisy/src/daisy_seed.h **** namespace daisy
  11:../../libdaisy/src/daisy_seed.h **** {
  12:../../libdaisy/src/daisy_seed.h **** /**
  13:../../libdaisy/src/daisy_seed.h ****    @brief This is the higher-level interface for the Daisy board. \n 
  14:../../libdaisy/src/daisy_seed.h ****     All basic peripheral configuration/initialization is setup here. \n
  15:../../libdaisy/src/daisy_seed.h **** 
  16:../../libdaisy/src/daisy_seed.h ****    @ingroup boards
  17:../../libdaisy/src/daisy_seed.h **** */
  18:../../libdaisy/src/daisy_seed.h **** class DaisySeed
  19:../../libdaisy/src/daisy_seed.h **** {
  20:../../libdaisy/src/daisy_seed.h ****   public:
  21:../../libdaisy/src/daisy_seed.h ****     DaisySeed() {}
  22:../../libdaisy/src/daisy_seed.h ****     ~DaisySeed() {}
  80              		.loc 3 22 5 is_stmt 1 view -0
  81              		.cfi_startproc
  82              		@ args = 0, pretend = 0, frame = 0
  83              		@ frame_needed = 0, uses_anonymous_args = 0
  84              		@ link register save eliminated.
  85              	.LBB72:
  86              	.LBI72:
  87              		.file 4 "../../libdaisy/src/sys/system.h"
   1:../../libdaisy/src/sys/system.h **** #ifndef DSY_SYSTEM_H
   2:../../libdaisy/src/sys/system.h **** #define DSY_SYSTEM_H
   3:../../libdaisy/src/sys/system.h **** 
   4:../../libdaisy/src/sys/system.h **** #ifndef UNIT_TEST // for unit tests, a dummy implementation is provided below
   5:../../libdaisy/src/sys/system.h **** 
   6:../../libdaisy/src/sys/system.h **** #include <cstdint>
   7:../../libdaisy/src/sys/system.h **** #include "per/tim.h"
   8:../../libdaisy/src/sys/system.h **** 
   9:../../libdaisy/src/sys/system.h **** namespace daisy
  10:../../libdaisy/src/sys/system.h **** {
  11:../../libdaisy/src/sys/system.h **** /** A handle for interacting with the Core System. 
  12:../../libdaisy/src/sys/system.h ****  ** This includes the Clock tree, MPU, global DMA initialization,
  13:../../libdaisy/src/sys/system.h ****  ** cache handling, and any other necessary global initiailzation
  14:../../libdaisy/src/sys/system.h ****  **
  15:../../libdaisy/src/sys/system.h ****  ** @author shensley
  16:../../libdaisy/src/sys/system.h ****  ** @addtogroup system
  17:../../libdaisy/src/sys/system.h ****  */
  18:../../libdaisy/src/sys/system.h **** class System
  19:../../libdaisy/src/sys/system.h **** {
  20:../../libdaisy/src/sys/system.h ****   public:
  21:../../libdaisy/src/sys/system.h ****     /** Contains settings for initializing the System */
  22:../../libdaisy/src/sys/system.h ****     struct Config
  23:../../libdaisy/src/sys/system.h ****     {
  24:../../libdaisy/src/sys/system.h ****         /** Specifies the system clock frequency that feeds APB/AHB clocks, etc. */
  25:../../libdaisy/src/sys/system.h ****         enum class SysClkFreq
  26:../../libdaisy/src/sys/system.h ****         {
  27:../../libdaisy/src/sys/system.h ****             FREQ_400MHZ,
  28:../../libdaisy/src/sys/system.h ****             FREQ_480MHZ,
  29:../../libdaisy/src/sys/system.h ****         };
  30:../../libdaisy/src/sys/system.h **** 
  31:../../libdaisy/src/sys/system.h ****         /** Method to call on the struct to set to defaults
  32:../../libdaisy/src/sys/system.h ****          ** CPU Freq set to 400MHz
  33:../../libdaisy/src/sys/system.h ****          ** Cache Enabled 
  34:../../libdaisy/src/sys/system.h ****          ** */
  35:../../libdaisy/src/sys/system.h ****         void Defaults()
  36:../../libdaisy/src/sys/system.h ****         {
ARM GAS  /tmp/ccunrK7J.s 			page 4


  37:../../libdaisy/src/sys/system.h ****             cpu_freq   = SysClkFreq::FREQ_400MHZ;
  38:../../libdaisy/src/sys/system.h ****             use_dcache = true;
  39:../../libdaisy/src/sys/system.h ****             use_icache = true;
  40:../../libdaisy/src/sys/system.h ****         }
  41:../../libdaisy/src/sys/system.h **** 
  42:../../libdaisy/src/sys/system.h ****         /** Method to call on the struct to set to boost mode:
  43:../../libdaisy/src/sys/system.h ****          ** CPU Freq set to 480MHz
  44:../../libdaisy/src/sys/system.h ****          ** Cache Enabled 
  45:../../libdaisy/src/sys/system.h ****          ** */
  46:../../libdaisy/src/sys/system.h ****         void Boost()
  47:../../libdaisy/src/sys/system.h ****         {
  48:../../libdaisy/src/sys/system.h ****             cpu_freq   = SysClkFreq::FREQ_480MHZ;
  49:../../libdaisy/src/sys/system.h ****             use_dcache = true;
  50:../../libdaisy/src/sys/system.h ****             use_icache = true;
  51:../../libdaisy/src/sys/system.h ****         }
  52:../../libdaisy/src/sys/system.h **** 
  53:../../libdaisy/src/sys/system.h ****         SysClkFreq cpu_freq;
  54:../../libdaisy/src/sys/system.h ****         bool       use_dcache;
  55:../../libdaisy/src/sys/system.h ****         bool       use_icache;
  56:../../libdaisy/src/sys/system.h ****     };
  57:../../libdaisy/src/sys/system.h **** 
  58:../../libdaisy/src/sys/system.h ****     System() {}
  59:../../libdaisy/src/sys/system.h ****     ~System() {}
  88              		.loc 4 59 5 view .LVU5
  89              		.loc 4 59 5 is_stmt 0 view .LVU6
  90              	.LBE72:
  91              	.LBB73:
  92              	.LBI73:
  93              		.file 5 "../../libdaisy/src/hid/usb.h"
   1:../../libdaisy/src/hid/usb.h **** #pragma once
   2:../../libdaisy/src/hid/usb.h **** #ifndef DSY_HID_USB_H
   3:../../libdaisy/src/hid/usb.h **** #define DSY_HID_USB_H
   4:../../libdaisy/src/hid/usb.h **** #include <stdint.h>
   5:../../libdaisy/src/hid/usb.h **** #include <stdlib.h>
   6:../../libdaisy/src/hid/usb.h **** 
   7:../../libdaisy/src/hid/usb.h **** namespace daisy
   8:../../libdaisy/src/hid/usb.h **** /** @addtogroup externals
   9:../../libdaisy/src/hid/usb.h ****     @{
  10:../../libdaisy/src/hid/usb.h **** */
  11:../../libdaisy/src/hid/usb.h **** 
  12:../../libdaisy/src/hid/usb.h **** {
  13:../../libdaisy/src/hid/usb.h **** /** 
  14:../../libdaisy/src/hid/usb.h ****     @brief Interface for initializing and using the USB Peripherals on the daisy
  15:../../libdaisy/src/hid/usb.h ****     @author Stephen Hensley
  16:../../libdaisy/src/hid/usb.h ****     @date December 2019
  17:../../libdaisy/src/hid/usb.h **** */
  18:../../libdaisy/src/hid/usb.h **** class UsbHandle
  19:../../libdaisy/src/hid/usb.h **** {
  20:../../libdaisy/src/hid/usb.h ****   public:
  21:../../libdaisy/src/hid/usb.h ****     /** Return values for USBHandle Functions */
  22:../../libdaisy/src/hid/usb.h ****     enum class Result
  23:../../libdaisy/src/hid/usb.h ****     {
  24:../../libdaisy/src/hid/usb.h ****         OK,
  25:../../libdaisy/src/hid/usb.h ****         ERR,
  26:../../libdaisy/src/hid/usb.h ****     };
  27:../../libdaisy/src/hid/usb.h **** 
  28:../../libdaisy/src/hid/usb.h ****     /** Specified which of the two USB Peripherals to initialize. */
ARM GAS  /tmp/ccunrK7J.s 			page 5


  29:../../libdaisy/src/hid/usb.h ****     enum UsbPeriph
  30:../../libdaisy/src/hid/usb.h ****     {
  31:../../libdaisy/src/hid/usb.h ****         FS_INTERNAL, /**< Internal pin */
  32:../../libdaisy/src/hid/usb.h ****         FS_EXTERNAL, /**< FS External D+ pin is Pin 38 (GPIO32). FS External D- pin is Pin 37 (GPIO
  33:../../libdaisy/src/hid/usb.h ****         FS_BOTH,     /**< Both */
  34:../../libdaisy/src/hid/usb.h ****     };
  35:../../libdaisy/src/hid/usb.h **** 
  36:../../libdaisy/src/hid/usb.h **** 
  37:../../libdaisy/src/hid/usb.h ****     /** Function called upon reception of a buffer */
  38:../../libdaisy/src/hid/usb.h ****     typedef void (*ReceiveCallback)(uint8_t* buff, uint32_t* len);
  39:../../libdaisy/src/hid/usb.h **** 
  40:../../libdaisy/src/hid/usb.h ****     UsbHandle() {}
  41:../../libdaisy/src/hid/usb.h **** 
  42:../../libdaisy/src/hid/usb.h ****     ~UsbHandle() {}
  94              		.loc 5 42 5 is_stmt 1 view .LVU7
  95              		.loc 5 42 5 is_stmt 0 view .LVU8
  96              	.LBE73:
  97              	.LBB74:
  98              	.LBI74:
  99              		.file 6 "../../libdaisy/src/per/adc.h"
   1:../../libdaisy/src/per/adc.h **** #pragma once
   2:../../libdaisy/src/per/adc.h **** #ifndef DSY_ADC_H
   3:../../libdaisy/src/per/adc.h **** #define DSY_ADC_H /**< Macro */
   4:../../libdaisy/src/per/adc.h **** #include <stdint.h>
   5:../../libdaisy/src/per/adc.h **** #include <stdlib.h>
   6:../../libdaisy/src/per/adc.h **** #include "daisy_core.h"
   7:../../libdaisy/src/per/adc.h **** #include "per/gpio.h"
   8:../../libdaisy/src/per/adc.h **** 
   9:../../libdaisy/src/per/adc.h **** #define DSY_ADC_MAX_CHANNELS 14 /**< Maximum number of ADC channels */
  10:../../libdaisy/src/per/adc.h **** 
  11:../../libdaisy/src/per/adc.h **** namespace daisy
  12:../../libdaisy/src/per/adc.h **** {
  13:../../libdaisy/src/per/adc.h **** /** @addtogroup analog_digital_conversion
  14:../../libdaisy/src/per/adc.h ****     @{
  15:../../libdaisy/src/per/adc.h **** */
  16:../../libdaisy/src/per/adc.h **** 
  17:../../libdaisy/src/per/adc.h **** /* While there may not be many configuration options here,
  18:../../libdaisy/src/per/adc.h **** using a struct like this allows us to add more configuration
  19:../../libdaisy/src/per/adc.h **** later without breaking existing functionality.
  20:../../libdaisy/src/per/adc.h **** */
  21:../../libdaisy/src/per/adc.h **** 
  22:../../libdaisy/src/per/adc.h **** /** Configuration Structure for a given channel */
  23:../../libdaisy/src/per/adc.h **** struct AdcChannelConfig
  24:../../libdaisy/src/per/adc.h **** {
  25:../../libdaisy/src/per/adc.h ****     /** Which pin to use for multiplexing */
  26:../../libdaisy/src/per/adc.h ****     enum MuxPin
  27:../../libdaisy/src/per/adc.h ****     {
  28:../../libdaisy/src/per/adc.h ****         MUX_SEL_0,    /**< & */
  29:../../libdaisy/src/per/adc.h ****         MUX_SEL_1,    /**< & */
  30:../../libdaisy/src/per/adc.h ****         MUX_SEL_2,    /**< & */
  31:../../libdaisy/src/per/adc.h ****         MUX_SEL_LAST, /**< & */
  32:../../libdaisy/src/per/adc.h ****     };
  33:../../libdaisy/src/per/adc.h **** 
  34:../../libdaisy/src/per/adc.h ****     /** Initializes a single ADC pin as an ADC. 
  35:../../libdaisy/src/per/adc.h ****     \param pin Pin to init.
  36:../../libdaisy/src/per/adc.h ****      */
  37:../../libdaisy/src/per/adc.h ****     void InitSingle(dsy_gpio_pin pin);
ARM GAS  /tmp/ccunrK7J.s 			page 6


  38:../../libdaisy/src/per/adc.h **** 
  39:../../libdaisy/src/per/adc.h ****     /** 
  40:../../libdaisy/src/per/adc.h ****     Initializes a single ADC pin as a Multiplexed ADC.
  41:../../libdaisy/src/per/adc.h ****     Requires a CD405X Multiplexer connected to the pin.
  42:../../libdaisy/src/per/adc.h ****     You only need to supply the mux pins that are required,
  43:../../libdaisy/src/per/adc.h ****     e.g. a 4052 mux would only require mux_0 and mux_1.
  44:../../libdaisy/src/per/adc.h ****     Internal Callbacks handle the pin addressing.
  45:../../libdaisy/src/per/adc.h ****     \param mux_channels must be 1-8
  46:../../libdaisy/src/per/adc.h ****     \param mux_0 First mux pin
  47:../../libdaisy/src/per/adc.h ****     \param mux_1 Second mux pin
  48:../../libdaisy/src/per/adc.h ****     \param mux_2 Third mux pin
  49:../../libdaisy/src/per/adc.h ****     \param adc_pin &
  50:../../libdaisy/src/per/adc.h ****     */
  51:../../libdaisy/src/per/adc.h ****     void InitMux(dsy_gpio_pin adc_pin,
  52:../../libdaisy/src/per/adc.h ****                  size_t       mux_channels,
  53:../../libdaisy/src/per/adc.h ****                  dsy_gpio_pin mux_0,
  54:../../libdaisy/src/per/adc.h ****                  dsy_gpio_pin mux_1 = {DSY_GPIOX, 0},
  55:../../libdaisy/src/per/adc.h ****                  dsy_gpio_pin mux_2 = {DSY_GPIOX, 0});
  56:../../libdaisy/src/per/adc.h **** 
  57:../../libdaisy/src/per/adc.h ****     dsy_gpio pin_;                   /**< & */
  58:../../libdaisy/src/per/adc.h ****     dsy_gpio mux_pin_[MUX_SEL_LAST]; /**< & */
  59:../../libdaisy/src/per/adc.h ****     uint8_t  mux_channels_;          /**< & */
  60:../../libdaisy/src/per/adc.h **** };
  61:../../libdaisy/src/per/adc.h **** 
  62:../../libdaisy/src/per/adc.h **** /**
  63:../../libdaisy/src/per/adc.h ****    Handler for analog to digital conversion
  64:../../libdaisy/src/per/adc.h **** */
  65:../../libdaisy/src/per/adc.h **** class AdcHandle
  66:../../libdaisy/src/per/adc.h **** {
  67:../../libdaisy/src/per/adc.h ****   public:
  68:../../libdaisy/src/per/adc.h ****     /** Supported oversampling amounts */
  69:../../libdaisy/src/per/adc.h ****     enum OverSampling
  70:../../libdaisy/src/per/adc.h ****     {
  71:../../libdaisy/src/per/adc.h ****         OVS_NONE, /**< & */
  72:../../libdaisy/src/per/adc.h ****         OVS_4,    /**< & */
  73:../../libdaisy/src/per/adc.h ****         OVS_8,    /**< & */
  74:../../libdaisy/src/per/adc.h ****         OVS_16,   /**< & */
  75:../../libdaisy/src/per/adc.h ****         OVS_32,   /**< & */
  76:../../libdaisy/src/per/adc.h ****         OVS_64,   /**< & */
  77:../../libdaisy/src/per/adc.h ****         OVS_128,  /**< & */
  78:../../libdaisy/src/per/adc.h ****         OVS_256,  /**< & */
  79:../../libdaisy/src/per/adc.h ****         OVS_512,  /**< & */
  80:../../libdaisy/src/per/adc.h ****         OVS_1024, /**< & */
  81:../../libdaisy/src/per/adc.h ****         OVS_LAST, /**< & */
  82:../../libdaisy/src/per/adc.h ****     };
  83:../../libdaisy/src/per/adc.h **** 
  84:../../libdaisy/src/per/adc.h ****     AdcHandle() {}
  85:../../libdaisy/src/per/adc.h ****     ~AdcHandle() {}
 100              		.loc 6 85 5 is_stmt 1 view .LVU9
 101              		.loc 6 85 5 is_stmt 0 view .LVU10
 102              	.LBE74:
 103              	.LBB75:
 104              	.LBI75:
 105              		.file 7 "../../libdaisy/src/hid/audio.h"
   1:../../libdaisy/src/hid/audio.h **** #ifndef DSY_AUDIO_H
   2:../../libdaisy/src/hid/audio.h **** #define DSY_AUDIO_H /**< & */
   3:../../libdaisy/src/hid/audio.h **** 
ARM GAS  /tmp/ccunrK7J.s 			page 7


   4:../../libdaisy/src/hid/audio.h **** #include "per/sai.h"
   5:../../libdaisy/src/hid/audio.h **** 
   6:../../libdaisy/src/hid/audio.h **** namespace daisy
   7:../../libdaisy/src/hid/audio.h **** {
   8:../../libdaisy/src/hid/audio.h **** class AudioHandle
   9:../../libdaisy/src/hid/audio.h **** {
  10:../../libdaisy/src/hid/audio.h ****   public:
  11:../../libdaisy/src/hid/audio.h ****     /** Manually configurable details about the Audio Engine */
  12:../../libdaisy/src/hid/audio.h ****     /** TODO: Figure out how to get samplerate in here. */
  13:../../libdaisy/src/hid/audio.h ****     struct Config
  14:../../libdaisy/src/hid/audio.h ****     {
  15:../../libdaisy/src/hid/audio.h ****         size_t                        blocksize;
  16:../../libdaisy/src/hid/audio.h ****         SaiHandle::Config::SampleRate samplerate;
  17:../../libdaisy/src/hid/audio.h ****         float                         postgain;
  18:../../libdaisy/src/hid/audio.h ****     };
  19:../../libdaisy/src/hid/audio.h **** 
  20:../../libdaisy/src/hid/audio.h ****     enum class Result
  21:../../libdaisy/src/hid/audio.h ****     {
  22:../../libdaisy/src/hid/audio.h ****         OK,
  23:../../libdaisy/src/hid/audio.h ****         ERR,
  24:../../libdaisy/src/hid/audio.h ****     };
  25:../../libdaisy/src/hid/audio.h **** 
  26:../../libdaisy/src/hid/audio.h ****     /** Non-Interleaving input buffer
  27:../../libdaisy/src/hid/audio.h ****      * Buffer arranged by float[chn][sample] 
  28:../../libdaisy/src/hid/audio.h ****      * const so that the user can't modify the input
  29:../../libdaisy/src/hid/audio.h ****     */
  30:../../libdaisy/src/hid/audio.h ****     typedef const float* const* InputBuffer;
  31:../../libdaisy/src/hid/audio.h **** 
  32:../../libdaisy/src/hid/audio.h ****     /** Non-Interleaving output buffer
  33:../../libdaisy/src/hid/audio.h ****      * Arranged by float[chn][sample] 
  34:../../libdaisy/src/hid/audio.h ****     */
  35:../../libdaisy/src/hid/audio.h ****     typedef float** OutputBuffer;
  36:../../libdaisy/src/hid/audio.h **** 
  37:../../libdaisy/src/hid/audio.h ****     /** Type for a Non-Interleaving audio callback 
  38:../../libdaisy/src/hid/audio.h ****    * Non-Interleaving audio callbacks in daisy will be of this type
  39:../../libdaisy/src/hid/audio.h ****   */
  40:../../libdaisy/src/hid/audio.h ****     typedef void (*AudioCallback)(InputBuffer  in,
  41:../../libdaisy/src/hid/audio.h ****                                   OutputBuffer out,
  42:../../libdaisy/src/hid/audio.h ****                                   size_t       size);
  43:../../libdaisy/src/hid/audio.h **** 
  44:../../libdaisy/src/hid/audio.h ****     /** Interleaving Input buffer
  45:../../libdaisy/src/hid/audio.h ****      ** audio is prepared as { L0, R0, L1, R1, . . . LN, RN }]
  46:../../libdaisy/src/hid/audio.h ****      ** this is const, as the user shouldn't modify it
  47:../../libdaisy/src/hid/audio.h ****     */
  48:../../libdaisy/src/hid/audio.h ****     typedef const float* InterleavingInputBuffer;
  49:../../libdaisy/src/hid/audio.h **** 
  50:../../libdaisy/src/hid/audio.h ****     /** Interleaving Output buffer 
  51:../../libdaisy/src/hid/audio.h ****      ** audio is prepared as { L0, R0, L1, R1, . . . LN, RN }
  52:../../libdaisy/src/hid/audio.h ****     */
  53:../../libdaisy/src/hid/audio.h ****     typedef float* InterleavingOutputBuffer;
  54:../../libdaisy/src/hid/audio.h **** 
  55:../../libdaisy/src/hid/audio.h ****     /** Interleaving Audio Callback 
  56:../../libdaisy/src/hid/audio.h ****    * Interleaving audio callbacks in daisy must be of this type
  57:../../libdaisy/src/hid/audio.h ****   */
  58:../../libdaisy/src/hid/audio.h ****     typedef void (*InterleavingAudioCallback)(InterleavingInputBuffer  in,
  59:../../libdaisy/src/hid/audio.h ****                                               InterleavingOutputBuffer out,
  60:../../libdaisy/src/hid/audio.h ****                                               size_t                   size);
ARM GAS  /tmp/ccunrK7J.s 			page 8


  61:../../libdaisy/src/hid/audio.h **** 
  62:../../libdaisy/src/hid/audio.h ****     AudioHandle() : pimpl_(nullptr) {}
  63:../../libdaisy/src/hid/audio.h ****     ~AudioHandle() {}
 106              		.loc 7 63 5 is_stmt 1 view .LVU11
 107              		.loc 7 63 5 is_stmt 0 view .LVU12
 108              	.LBE75:
 109              		.loc 3 22 19 view .LVU13
 110 0000 7047     		bx	lr
 111              		.cfi_endproc
 112              	.LFE4207:
 114              		.weak	_ZN5daisy9DaisySeedD1Ev
 115              		.thumb_set _ZN5daisy9DaisySeedD1Ev,_ZN5daisy9DaisySeedD2Ev
 116 0002 00BF     		.section	.text._ZL13AudioCallbackPKfPfj,"ax",%progbits
 117              		.align	1
 118              		.p2align 2,,3
 119              		.syntax unified
 120              		.thumb
 121              		.thumb_func
 122              		.fpu fpv5-d16
 124              	_ZL13AudioCallbackPKfPfj:
 125              	.LVL3:
 126              	.LFB4212:
 127              		.file 8 "line.cpp"
   1:line.cpp      **** #include "daisysp.h"
   2:line.cpp      **** #include "daisy_seed.h"
   3:line.cpp      **** 
   4:line.cpp      **** using namespace daisysp;
   5:line.cpp      **** using namespace daisy;
   6:line.cpp      **** 
   7:line.cpp      **** static DaisySeed  seed;
   8:line.cpp      **** static Line       line_seg;
   9:line.cpp      **** static Oscillator osc_sine;
  10:line.cpp      **** 
  11:line.cpp      **** uint8_t finished;
  12:line.cpp      **** 
  13:line.cpp      **** static void AudioCallback(AudioHandle::InterleavingInputBuffer  in,
  14:line.cpp      ****                           AudioHandle::InterleavingOutputBuffer out,
  15:line.cpp      ****                           size_t                                size)
  16:line.cpp      **** {
 128              		.loc 8 16 1 is_stmt 1 view -0
 129              		.cfi_startproc
 130              		@ args = 0, pretend = 0, frame = 0
 131              		@ frame_needed = 0, uses_anonymous_args = 0
  17:line.cpp      ****     float sine, freq;
 132              		.loc 8 17 5 view .LVU15
  18:line.cpp      ****     for(size_t i = 0; i < size; i += 2)
 133              		.loc 8 18 5 view .LVU16
 134              	.LBB76:
 135              		.loc 8 18 25 view .LVU17
 136 0000 8AB3     		cbz	r2, .L17
 137 0002 013A     		subs	r2, r2, #1
 138              	.LVL4:
 139              		.loc 8 18 25 is_stmt 0 view .LVU18
 140              	.LBE76:
  16:line.cpp      ****     float sine, freq;
 141              		.loc 8 16 1 view .LVU19
 142 0004 2DE9F041 		push	{r4, r5, r6, r7, r8, lr}
ARM GAS  /tmp/ccunrK7J.s 			page 9


 143              		.cfi_def_cfa_offset 24
 144              		.cfi_offset 4, -24
 145              		.cfi_offset 5, -20
 146              		.cfi_offset 6, -16
 147              		.cfi_offset 7, -12
 148              		.cfi_offset 8, -8
 149              		.cfi_offset 14, -4
 150 0008 0C46     		mov	r4, r1
 151              	.LBB81:
 152              		.loc 8 18 16 view .LVU20
 153 000a 0025     		movs	r5, #0
 154 000c DFF85C80 		ldr	r8, .L21+4
 155 0010 22F00107 		bic	r7, r2, #1
 156 0014 144E     		ldr	r6, .L21
 157 0016 16E0     		b	.L8
 158              	.LVL5:
 159              	.L7:
  19:line.cpp      ****     {
  20:line.cpp      ****         if(finished)
  21:line.cpp      ****         {
  22:line.cpp      ****             // Start creating a Line segment from 100 to 500 in 1 seconds
  23:line.cpp      ****             line_seg.Start(100, 500, 1);
  24:line.cpp      ****         }
  25:line.cpp      **** 
  26:line.cpp      ****         freq = line_seg.Process(&finished);
 160              		.loc 8 26 9 is_stmt 1 discriminator 2 view .LVU21
 161              		.loc 8 26 32 is_stmt 0 discriminator 2 view .LVU22
 162 0018 1449     		ldr	r1, .L21+4
 163 001a 0834     		adds	r4, r4, #8
 164 001c 1448     		ldr	r0, .L21+8
 165 001e FFF7FEFF 		bl	_ZN7daisysp4Line7ProcessEPh
 166              	.LVL6:
  27:line.cpp      ****         osc_sine.SetFreq(freq);
 167              		.loc 8 27 9 is_stmt 1 discriminator 2 view .LVU23
 168              	.LBB77:
 169              	.LBI77:
  17:../../DaisySP/Source/Synthesis/oscillator.h ****     /** Choices for output waveforms, POLYBLEP are appropriately labeled. Others are naive forms.
  18:../../DaisySP/Source/Synthesis/oscillator.h ****     */
  19:../../DaisySP/Source/Synthesis/oscillator.h ****     enum
  20:../../DaisySP/Source/Synthesis/oscillator.h ****     {
  21:../../DaisySP/Source/Synthesis/oscillator.h ****         WAVE_SIN,
  22:../../DaisySP/Source/Synthesis/oscillator.h ****         WAVE_TRI,
  23:../../DaisySP/Source/Synthesis/oscillator.h ****         WAVE_SAW,
  24:../../DaisySP/Source/Synthesis/oscillator.h ****         WAVE_RAMP,
  25:../../DaisySP/Source/Synthesis/oscillator.h ****         WAVE_SQUARE,
  26:../../DaisySP/Source/Synthesis/oscillator.h ****         WAVE_POLYBLEP_TRI,
  27:../../DaisySP/Source/Synthesis/oscillator.h ****         WAVE_POLYBLEP_SAW,
  28:../../DaisySP/Source/Synthesis/oscillator.h ****         WAVE_POLYBLEP_SQUARE,
  29:../../DaisySP/Source/Synthesis/oscillator.h ****         WAVE_LAST,
  30:../../DaisySP/Source/Synthesis/oscillator.h ****     };
  31:../../DaisySP/Source/Synthesis/oscillator.h **** 
  32:../../DaisySP/Source/Synthesis/oscillator.h **** 
  33:../../DaisySP/Source/Synthesis/oscillator.h ****     /** Initializes the Oscillator
  34:../../DaisySP/Source/Synthesis/oscillator.h **** 
  35:../../DaisySP/Source/Synthesis/oscillator.h ****         \param sample_rate - sample rate of the audio engine being run, and the frequency that the 
  36:../../DaisySP/Source/Synthesis/oscillator.h **** 
  37:../../DaisySP/Source/Synthesis/oscillator.h ****         Defaults:
ARM GAS  /tmp/ccunrK7J.s 			page 10


  38:../../DaisySP/Source/Synthesis/oscillator.h ****         - freq_ = 100 Hz
  39:../../DaisySP/Source/Synthesis/oscillator.h ****         - amp_ = 0.5
  40:../../DaisySP/Source/Synthesis/oscillator.h ****         - waveform_ = sine wave.
  41:../../DaisySP/Source/Synthesis/oscillator.h ****     */
  42:../../DaisySP/Source/Synthesis/oscillator.h ****     void Init(float sample_rate)
  43:../../DaisySP/Source/Synthesis/oscillator.h ****     {
  44:../../DaisySP/Source/Synthesis/oscillator.h ****         sr_        = sample_rate;
  45:../../DaisySP/Source/Synthesis/oscillator.h ****         sr_recip_  = 1.0f / sample_rate;
  46:../../DaisySP/Source/Synthesis/oscillator.h ****         freq_      = 100.0f;
  47:../../DaisySP/Source/Synthesis/oscillator.h ****         amp_       = 0.5f;
  48:../../DaisySP/Source/Synthesis/oscillator.h ****         phase_     = 0.0f;
  49:../../DaisySP/Source/Synthesis/oscillator.h ****         phase_inc_ = CalcPhaseInc(freq_);
  50:../../DaisySP/Source/Synthesis/oscillator.h ****         waveform_  = WAVE_SIN;
  51:../../DaisySP/Source/Synthesis/oscillator.h ****         eoc_       = true;
  52:../../DaisySP/Source/Synthesis/oscillator.h ****         eor_       = true;
  53:../../DaisySP/Source/Synthesis/oscillator.h ****     }
  54:../../DaisySP/Source/Synthesis/oscillator.h **** 
  55:../../DaisySP/Source/Synthesis/oscillator.h **** 
  56:../../DaisySP/Source/Synthesis/oscillator.h ****     /** Changes the frequency of the Oscillator, and recalculates phase increment.
  57:../../DaisySP/Source/Synthesis/oscillator.h ****     */
  58:../../DaisySP/Source/Synthesis/oscillator.h ****     inline void SetFreq(const float f)
 170              		.loc 2 58 17 discriminator 2 view .LVU24
 171              	.LBB78:
  59:../../DaisySP/Source/Synthesis/oscillator.h ****     {
  60:../../DaisySP/Source/Synthesis/oscillator.h ****         freq_      = f;
 172              		.loc 2 60 9 discriminator 2 view .LVU25
  61:../../DaisySP/Source/Synthesis/oscillator.h ****         phase_inc_ = CalcPhaseInc(f);
 173              		.loc 2 61 34 is_stmt 0 discriminator 2 view .LVU26
 174 0022 1148     		ldr	r0, .L21
  60:../../DaisySP/Source/Synthesis/oscillator.h ****         phase_inc_ = CalcPhaseInc(f);
 175              		.loc 2 60 20 discriminator 2 view .LVU27
 176 0024 86ED020A 		vstr.32	s0, [r6, #8]
 177              		.loc 2 61 9 is_stmt 1 discriminator 2 view .LVU28
 178              		.loc 2 61 34 is_stmt 0 discriminator 2 view .LVU29
 179 0028 FFF7FEFF 		bl	_ZN7daisysp10Oscillator12CalcPhaseIncEf
 180              	.LVL7:
 181              		.loc 2 61 34 discriminator 2 view .LVU30
 182              	.LBE78:
 183              	.LBE77:
  28:line.cpp      ****         sine = osc_sine.Process();
 184              		.loc 8 28 32 discriminator 2 view .LVU31
 185 002c 0E48     		ldr	r0, .L21
 186              	.LBB80:
 187              	.LBB79:
 188              		.loc 2 61 20 discriminator 2 view .LVU32
 189 002e 86ED060A 		vstr.32	s0, [r6, #24]
 190              	.LVL8:
 191              		.loc 2 61 20 discriminator 2 view .LVU33
 192              	.LBE79:
 193              	.LBE80:
 194              		.loc 8 28 9 is_stmt 1 discriminator 2 view .LVU34
 195              		.loc 8 28 32 is_stmt 0 discriminator 2 view .LVU35
 196 0032 FFF7FEFF 		bl	_ZN7daisysp10Oscillator7ProcessEv
 197              	.LVL9:
  18:line.cpp      ****     {
 198              		.loc 8 18 35 discriminator 2 view .LVU36
 199 0036 AB1C     		adds	r3, r5, #2
ARM GAS  /tmp/ccunrK7J.s 			page 11


 200              	.LVL10:
  29:line.cpp      **** 
  30:line.cpp      ****         // left out
  31:line.cpp      ****         out[i] = sine;
 201              		.loc 8 31 9 is_stmt 1 discriminator 2 view .LVU37
  18:line.cpp      ****     {
 202              		.loc 8 18 25 is_stmt 0 discriminator 2 view .LVU38
 203 0038 BD42     		cmp	r5, r7
 204              		.loc 8 31 16 discriminator 2 view .LVU39
 205 003a 04ED020A 		vstr.32	s0, [r4, #-8]
  32:line.cpp      **** 
  33:line.cpp      ****         // right out
  34:line.cpp      ****         out[i + 1] = sine;
 206              		.loc 8 34 9 is_stmt 1 discriminator 2 view .LVU40
 207              		.loc 8 34 20 is_stmt 0 discriminator 2 view .LVU41
 208 003e 04ED010A 		vstr.32	s0, [r4, #-4]
  18:line.cpp      ****     {
 209              		.loc 8 18 5 is_stmt 1 discriminator 2 view .LVU42
 210              	.LVL11:
  18:line.cpp      ****     {
 211              		.loc 8 18 25 discriminator 2 view .LVU43
 212 0042 1D46     		mov	r5, r3
 213 0044 0DD0     		beq	.L20
 214              	.LVL12:
 215              	.L8:
  20:line.cpp      ****         {
 216              		.loc 8 20 9 view .LVU44
 217 0046 98F80030 		ldrb	r3, [r8]	@ zero_extendqisi2
 218 004a 002B     		cmp	r3, #0
 219 004c E4D0     		beq	.L7
  23:line.cpp      ****         }
 220              		.loc 8 23 13 view .LVU45
  23:line.cpp      ****         }
 221              		.loc 8 23 27 is_stmt 0 view .LVU46
 222 004e B7EE001A 		vmov.f32	s2, #1.0e+0
 223 0052 DFED080A 		vldr.32	s1, .L21+12
 224 0056 9FED080A 		vldr.32	s0, .L21+16
 225 005a 0548     		ldr	r0, .L21+8
 226 005c FFF7FEFF 		bl	_ZN7daisysp4Line5StartEfff
 227              	.LVL13:
 228 0060 DAE7     		b	.L7
 229              	.LVL14:
 230              	.L20:
  23:line.cpp      ****         }
 231              		.loc 8 23 27 view .LVU47
 232              	.LBE81:
  35:line.cpp      ****     }
  36:line.cpp      **** }
 233              		.loc 8 36 1 view .LVU48
 234 0062 BDE8F081 		pop	{r4, r5, r6, r7, r8, pc}
 235              	.LVL15:
 236              	.L17:
 237              		.cfi_def_cfa_offset 0
 238              		.cfi_restore 4
 239              		.cfi_restore 5
 240              		.cfi_restore 6
 241              		.cfi_restore 7
ARM GAS  /tmp/ccunrK7J.s 			page 12


 242              		.cfi_restore 8
 243              		.cfi_restore 14
 244              		.loc 8 36 1 view .LVU49
 245 0066 7047     		bx	lr
 246              	.L22:
 247              		.align	2
 248              	.L21:
 249 0068 00000000 		.word	.LANCHOR2
 250 006c 00000000 		.word	.LANCHOR0
 251 0070 00000000 		.word	.LANCHOR1
 252 0074 0000FA43 		.word	1140457472
 253 0078 0000C842 		.word	1120403456
 254              		.cfi_endproc
 255              	.LFE4212:
 257              		.section	.text.startup.main,"ax",%progbits
 258              		.align	1
 259              		.p2align 2,,3
 260              		.global	main
 261              		.syntax unified
 262              		.thumb
 263              		.thumb_func
 264              		.fpu fpv5-d16
 266              	main:
 267              	.LFB4213:
  37:line.cpp      **** 
  38:line.cpp      **** int main(void)
  39:line.cpp      **** {
 268              		.loc 8 39 1 is_stmt 1 view -0
 269              		.cfi_startproc
 270              		@ args = 0, pretend = 0, frame = 0
 271              		@ frame_needed = 0, uses_anonymous_args = 0
  40:line.cpp      ****     // initialize seed hardware and daisysp modules
  41:line.cpp      ****     float sample_rate;
 272              		.loc 8 41 5 view .LVU51
  42:line.cpp      ****     seed.Configure();
 273              		.loc 8 42 5 view .LVU52
  39:line.cpp      ****     // initialize seed hardware and daisysp modules
 274              		.loc 8 39 1 is_stmt 0 view .LVU53
 275 0000 38B5     		push	{r3, r4, r5, lr}
 276              		.cfi_def_cfa_offset 16
 277              		.cfi_offset 3, -16
 278              		.cfi_offset 4, -12
 279              		.cfi_offset 5, -8
 280              		.cfi_offset 14, -4
 281              		.loc 8 42 19 view .LVU54
 282 0002 2248     		ldr	r0, .L26
 283              	.LBB82:
 284              	.LBB83:
  47:../../DaisySP/Source/Synthesis/oscillator.h ****         phase_     = 0.0f;
 285              		.loc 2 47 20 view .LVU55
 286 0004 4FF07C55 		mov	r5, #1056964608
  44:../../DaisySP/Source/Synthesis/oscillator.h ****         sr_recip_  = 1.0f / sample_rate;
 287              		.loc 2 44 20 view .LVU56
 288 0008 214C     		ldr	r4, .L26+4
 289              	.LBE83:
 290              	.LBE82:
  39:line.cpp      ****     // initialize seed hardware and daisysp modules
ARM GAS  /tmp/ccunrK7J.s 			page 13


 291              		.loc 8 39 1 view .LVU57
 292 000a 2DED028B 		vpush.64	{d8}
 293              		.cfi_def_cfa_offset 24
 294              		.cfi_offset 80, -24
 295              		.cfi_offset 81, -20
 296              		.loc 8 42 19 view .LVU58
 297 000e FFF7FEFF 		bl	_ZN5daisy9DaisySeed9ConfigureEv
 298              	.LVL16:
  43:line.cpp      ****     seed.Init();
 299              		.loc 8 43 5 is_stmt 1 view .LVU59
 300              		.loc 8 43 14 is_stmt 0 view .LVU60
 301 0012 0021     		movs	r1, #0
 302 0014 1D48     		ldr	r0, .L26
 303 0016 FFF7FEFF 		bl	_ZN5daisy9DaisySeed4InitEb
 304              	.LVL17:
  44:line.cpp      ****     sample_rate = seed.AudioSampleRate();
 305              		.loc 8 44 5 is_stmt 1 view .LVU61
 306              		.loc 8 44 39 is_stmt 0 view .LVU62
 307 001a 1C48     		ldr	r0, .L26
 308 001c FFF7FEFF 		bl	_ZN5daisy9DaisySeed15AudioSampleRateEv
 309              	.LVL18:
  45:line.cpp      **** 
  46:line.cpp      ****     // initialize Line module
  47:line.cpp      ****     line_seg.Init(sample_rate);
 310              		.loc 8 47 18 view .LVU63
 311 0020 1C48     		ldr	r0, .L26+8
  44:line.cpp      ****     sample_rate = seed.AudioSampleRate();
 312              		.loc 8 44 39 view .LVU64
 313 0022 F0EE408A 		vmov.f32	s17, s0
 314              	.LVL19:
 315              		.loc 8 47 5 is_stmt 1 view .LVU65
 316              		.loc 8 47 18 is_stmt 0 view .LVU66
 317 0026 FFF7FEFF 		bl	_ZN7daisysp4Line4InitEf
 318              	.LVL20:
  48:line.cpp      ****     finished = 1;
 319              		.loc 8 48 5 is_stmt 1 view .LVU67
 320              	.LBB89:
 321              	.LBB84:
  45:../../DaisySP/Source/Synthesis/oscillator.h ****         freq_      = 100.0f;
 322              		.loc 2 45 27 is_stmt 0 view .LVU68
 323 002a B7EE007A 		vmov.f32	s14, #1.0e+0
  46:../../DaisySP/Source/Synthesis/oscillator.h ****         amp_       = 0.5f;
 324              		.loc 2 46 20 view .LVU69
 325 002e 9FED1A8A 		vldr.32	s16, .L26+12
  48:../../DaisySP/Source/Synthesis/oscillator.h ****         phase_inc_ = CalcPhaseInc(freq_);
 326              		.loc 2 48 20 view .LVU70
 327 0032 0021     		movs	r1, #0
 328              	.LBE84:
 329              	.LBE89:
 330              		.loc 8 48 14 view .LVU71
 331 0034 0122     		movs	r2, #1
 332 0036 194B     		ldr	r3, .L26+16
 333              	.LBB90:
 334              	.LBB85:
  49:../../DaisySP/Source/Synthesis/oscillator.h ****         waveform_  = WAVE_SIN;
 335              		.loc 2 49 34 view .LVU72
 336 0038 2046     		mov	r0, r4
ARM GAS  /tmp/ccunrK7J.s 			page 14


  45:../../DaisySP/Source/Synthesis/oscillator.h ****         freq_      = 100.0f;
 337              		.loc 2 45 27 view .LVU73
 338 003a C7EE287A 		vdiv.f32	s15, s14, s17
  48:../../DaisySP/Source/Synthesis/oscillator.h ****         phase_inc_ = CalcPhaseInc(freq_);
 339              		.loc 2 48 20 view .LVU74
 340 003e 6161     		str	r1, [r4, #20]	@ float
 341              	.LBE85:
 342              	.LBE90:
 343              		.loc 8 48 14 view .LVU75
 344 0040 1A70     		strb	r2, [r3]
  49:line.cpp      **** 
  50:line.cpp      ****     // set parameters for sine oscillator object
  51:line.cpp      ****     osc_sine.Init(sample_rate);
 345              		.loc 8 51 5 is_stmt 1 view .LVU76
 346              	.LVL21:
 347              	.LBB91:
 348              	.LBI82:
  42:../../DaisySP/Source/Synthesis/oscillator.h ****     {
 349              		.loc 2 42 10 view .LVU77
 350              	.LBB86:
  44:../../DaisySP/Source/Synthesis/oscillator.h ****         sr_recip_  = 1.0f / sample_rate;
 351              		.loc 2 44 9 view .LVU78
  45:../../DaisySP/Source/Synthesis/oscillator.h ****         freq_      = 100.0f;
 352              		.loc 2 45 9 view .LVU79
  44:../../DaisySP/Source/Synthesis/oscillator.h ****         sr_recip_  = 1.0f / sample_rate;
 353              		.loc 2 44 20 is_stmt 0 view .LVU80
 354 0042 C4ED038A 		vstr.32	s17, [r4, #12]
  47:../../DaisySP/Source/Synthesis/oscillator.h ****         phase_     = 0.0f;
 355              		.loc 2 47 20 view .LVU81
 356 0046 6560     		str	r5, [r4, #4]	@ float
  46:../../DaisySP/Source/Synthesis/oscillator.h ****         amp_       = 0.5f;
 357              		.loc 2 46 20 view .LVU82
 358 0048 84ED028A 		vstr.32	s16, [r4, #8]
  49:../../DaisySP/Source/Synthesis/oscillator.h ****         waveform_  = WAVE_SIN;
 359              		.loc 2 49 34 view .LVU83
 360 004c B0EE480A 		vmov.f32	s0, s16
  45:../../DaisySP/Source/Synthesis/oscillator.h ****         freq_      = 100.0f;
 361              		.loc 2 45 20 view .LVU84
 362 0050 C4ED047A 		vstr.32	s15, [r4, #16]
  46:../../DaisySP/Source/Synthesis/oscillator.h ****         amp_       = 0.5f;
 363              		.loc 2 46 9 is_stmt 1 view .LVU85
  47:../../DaisySP/Source/Synthesis/oscillator.h ****         phase_     = 0.0f;
 364              		.loc 2 47 9 view .LVU86
  48:../../DaisySP/Source/Synthesis/oscillator.h ****         phase_inc_ = CalcPhaseInc(freq_);
 365              		.loc 2 48 9 view .LVU87
  49:../../DaisySP/Source/Synthesis/oscillator.h ****         waveform_  = WAVE_SIN;
 366              		.loc 2 49 9 view .LVU88
  49:../../DaisySP/Source/Synthesis/oscillator.h ****         waveform_  = WAVE_SIN;
 367              		.loc 2 49 34 is_stmt 0 view .LVU89
 368 0054 FFF7FEFF 		bl	_ZN7daisysp10Oscillator12CalcPhaseIncEf
 369              	.LVL22:
 370 0058 F0EE407A 		vmov.f32	s15, s0
  52:../../DaisySP/Source/Synthesis/oscillator.h ****     }
 371              		.loc 2 52 20 view .LVU90
 372 005c 40F20113 		movw	r3, #257
  50:../../DaisySP/Source/Synthesis/oscillator.h ****         eoc_       = true;
 373              		.loc 2 50 20 view .LVU91
ARM GAS  /tmp/ccunrK7J.s 			page 15


 374 0060 0022     		movs	r2, #0
 375              	.LBE86:
 376              	.LBE91:
 377              	.LBB92:
 378              	.LBB93:
 379              		.loc 2 61 34 view .LVU92
 380 0062 2046     		mov	r0, r4
 381 0064 B0EE480A 		vmov.f32	s0, s16
 382              	.LBE93:
 383              	.LBE92:
 384              	.LBB97:
 385              	.LBB87:
  52:../../DaisySP/Source/Synthesis/oscillator.h ****     }
 386              		.loc 2 52 20 view .LVU93
 387 0068 A384     		strh	r3, [r4, #36]	@ movhi
 388              	.LBE87:
 389              	.LBE97:
 390              	.LBB98:
 391              	.LBB94:
  60:../../DaisySP/Source/Synthesis/oscillator.h ****         phase_inc_ = CalcPhaseInc(f);
 392              		.loc 2 60 20 view .LVU94
 393 006a 84ED028A 		vstr.32	s16, [r4, #8]
 394              	.LBE94:
 395              	.LBE98:
 396              	.LBB99:
 397              	.LBB88:
  49:../../DaisySP/Source/Synthesis/oscillator.h ****         waveform_  = WAVE_SIN;
 398              		.loc 2 49 20 view .LVU95
 399 006e C4ED067A 		vstr.32	s15, [r4, #24]
  50:../../DaisySP/Source/Synthesis/oscillator.h ****         eoc_       = true;
 400              		.loc 2 50 9 is_stmt 1 view .LVU96
  50:../../DaisySP/Source/Synthesis/oscillator.h ****         eoc_       = true;
 401              		.loc 2 50 20 is_stmt 0 view .LVU97
 402 0072 2270     		strb	r2, [r4]
  51:../../DaisySP/Source/Synthesis/oscillator.h ****         eor_       = true;
 403              		.loc 2 51 9 is_stmt 1 view .LVU98
  52:../../DaisySP/Source/Synthesis/oscillator.h ****     }
 404              		.loc 2 52 9 view .LVU99
 405              	.LVL23:
  52:../../DaisySP/Source/Synthesis/oscillator.h ****     }
 406              		.loc 2 52 9 is_stmt 0 view .LVU100
 407              	.LBE88:
 408              	.LBE99:
  52:line.cpp      ****     osc_sine.SetWaveform(Oscillator::WAVE_SIN);
 409              		.loc 8 52 5 is_stmt 1 view .LVU101
  62:../../DaisySP/Source/Synthesis/oscillator.h ****     }
  63:../../DaisySP/Source/Synthesis/oscillator.h **** 
  64:../../DaisySP/Source/Synthesis/oscillator.h **** 
  65:../../DaisySP/Source/Synthesis/oscillator.h ****     /** Sets the amplitude of the waveform.
  66:../../DaisySP/Source/Synthesis/oscillator.h ****     */
  67:../../DaisySP/Source/Synthesis/oscillator.h ****     inline void SetAmp(const float a) { amp_ = a; }
  68:../../DaisySP/Source/Synthesis/oscillator.h ****     /** Sets the waveform to be synthesized by the Process() function.
  69:../../DaisySP/Source/Synthesis/oscillator.h ****     */
  70:../../DaisySP/Source/Synthesis/oscillator.h ****     inline void SetWaveform(const uint8_t wf)
  71:../../DaisySP/Source/Synthesis/oscillator.h ****     {
  72:../../DaisySP/Source/Synthesis/oscillator.h ****         waveform_ = wf < WAVE_LAST ? wf : WAVE_SIN;
 410              		.loc 2 72 9 view .LVU102
ARM GAS  /tmp/ccunrK7J.s 			page 16


  53:line.cpp      ****     osc_sine.SetFreq(100);
 411              		.loc 8 53 5 view .LVU103
 412              	.LBB100:
 413              	.LBI92:
  58:../../DaisySP/Source/Synthesis/oscillator.h ****     {
 414              		.loc 2 58 17 view .LVU104
 415              	.LBB95:
  60:../../DaisySP/Source/Synthesis/oscillator.h ****         phase_inc_ = CalcPhaseInc(f);
 416              		.loc 2 60 9 view .LVU105
  61:../../DaisySP/Source/Synthesis/oscillator.h ****     }
 417              		.loc 2 61 9 view .LVU106
  61:../../DaisySP/Source/Synthesis/oscillator.h ****     }
 418              		.loc 2 61 34 is_stmt 0 view .LVU107
 419 0074 FFF7FEFF 		bl	_ZN7daisysp10Oscillator12CalcPhaseIncEf
 420              	.LVL24:
 421              	.LBE95:
 422              	.LBE100:
 423              	.LBB101:
 424              	.LBB102:
  67:../../DaisySP/Source/Synthesis/oscillator.h ****     /** Sets the waveform to be synthesized by the Process() function.
 425              		.loc 2 67 46 view .LVU108
 426 0078 4FF07A53 		mov	r3, #1048576000
 427              	.LBE102:
 428              	.LBE101:
  54:line.cpp      ****     osc_sine.SetAmp(0.25);
  55:line.cpp      **** 
  56:line.cpp      ****     // Start callback
  57:line.cpp      ****     seed.StartAudio(AudioCallback);
 429              		.loc 8 57 20 view .LVU109
 430 007c 0849     		ldr	r1, .L26+20
 431 007e 0348     		ldr	r0, .L26
 432              	.LBB104:
 433              	.LBB96:
  61:../../DaisySP/Source/Synthesis/oscillator.h ****     }
 434              		.loc 2 61 20 view .LVU110
 435 0080 84ED060A 		vstr.32	s0, [r4, #24]
 436              	.LVL25:
  61:../../DaisySP/Source/Synthesis/oscillator.h ****     }
 437              		.loc 2 61 20 view .LVU111
 438              	.LBE96:
 439              	.LBE104:
  54:line.cpp      ****     osc_sine.SetAmp(0.25);
 440              		.loc 8 54 5 is_stmt 1 view .LVU112
 441              	.LBB105:
 442              	.LBI101:
  67:../../DaisySP/Source/Synthesis/oscillator.h ****     /** Sets the waveform to be synthesized by the Process() function.
 443              		.loc 2 67 17 view .LVU113
 444              	.LBB103:
  67:../../DaisySP/Source/Synthesis/oscillator.h ****     /** Sets the waveform to be synthesized by the Process() function.
 445              		.loc 2 67 41 view .LVU114
  67:../../DaisySP/Source/Synthesis/oscillator.h ****     /** Sets the waveform to be synthesized by the Process() function.
 446              		.loc 2 67 46 is_stmt 0 view .LVU115
 447 0084 6360     		str	r3, [r4, #4]	@ float
 448              	.LVL26:
  67:../../DaisySP/Source/Synthesis/oscillator.h ****     /** Sets the waveform to be synthesized by the Process() function.
 449              		.loc 2 67 46 view .LVU116
 450              	.LBE103:
ARM GAS  /tmp/ccunrK7J.s 			page 17


 451              	.LBE105:
 452              		.loc 8 57 5 is_stmt 1 view .LVU117
 453              		.loc 8 57 20 is_stmt 0 view .LVU118
 454 0086 FFF7FEFF 		bl	_ZN5daisy9DaisySeed10StartAudioEPFvPKfPfjE
 455              	.LVL27:
 456              	.L24:
  58:line.cpp      **** 
  59:line.cpp      ****     while(1) {}
 457              		.loc 8 59 5 is_stmt 1 discriminator 1 view .LVU119
 458              		.loc 8 59 5 discriminator 1 view .LVU120
 459              		.loc 8 59 5 discriminator 1 view .LVU121
 460              		.loc 8 59 5 discriminator 1 view .LVU122
 461 008a FEE7     		b	.L24
 462              	.L27:
 463              		.align	2
 464              	.L26:
 465 008c 00000000 		.word	.LANCHOR3
 466 0090 00000000 		.word	.LANCHOR2
 467 0094 00000000 		.word	.LANCHOR1
 468 0098 0000C842 		.word	1120403456
 469 009c 00000000 		.word	.LANCHOR0
 470 00a0 00000000 		.word	_ZL13AudioCallbackPKfPfj
 471              		.cfi_endproc
 472              	.LFE4213:
 474              		.section	.text.startup._GLOBAL__sub_I_finished,"ax",%progbits
 475              		.align	1
 476              		.p2align 2,,3
 477              		.syntax unified
 478              		.thumb
 479              		.thumb_func
 480              		.fpu fpv5-d16
 482              	_GLOBAL__sub_I_finished:
 483              	.LFB4759:
  60:line.cpp      **** }
 484              		.loc 8 60 1 view -0
 485              		.cfi_startproc
 486              		@ args = 0, pretend = 0, frame = 0
 487              		@ frame_needed = 0, uses_anonymous_args = 0
 488              	.LBB125:
 489              	.LBI125:
 490              		.loc 8 60 1 view .LVU124
 491              	.LVL28:
 492              	.LBB126:
 493              	.LBB127:
 494              	.LBI127:
  21:../../libdaisy/src/daisy_seed.h ****     ~DaisySeed() {}
 495              		.loc 3 21 5 view .LVU125
 496              	.LBB128:
 497              	.LBB129:
 498              	.LBI129:
  62:../../libdaisy/src/hid/audio.h ****     ~AudioHandle() {}
 499              		.loc 7 62 5 view .LVU126
 500              	.LBE129:
 501              	.LBE128:
 502              	.LBE127:
 503              	.LBE126:
 504              	.LBE125:
ARM GAS  /tmp/ccunrK7J.s 			page 18


 505              		.loc 8 60 1 is_stmt 0 view .LVU127
 506 0000 08B5     		push	{r3, lr}
 507              		.cfi_def_cfa_offset 8
 508              		.cfi_offset 3, -8
 509              		.cfi_offset 14, -4
 510              	.LBB150:
 511              	.LBB148:
 512              	.LBB144:
 513              	.LBB142:
 514              	.LBB134:
 515              	.LBB130:
 516              	.LBB131:
  62:../../libdaisy/src/hid/audio.h ****     ~AudioHandle() {}
 517              		.loc 7 62 35 view .LVU128
 518 0002 0A48     		ldr	r0, .L30
 519 0004 0023     		movs	r3, #0
 520              	.LBE131:
 521              	.LBE130:
 522              	.LBE134:
 523              	.LBE142:
 524              	.LBE144:
   7:line.cpp      **** static Line       line_seg;
 525              		.loc 8 7 19 view .LVU129
 526 0006 0A4A     		ldr	r2, .L30+4
 527              	.LBB145:
 528              	.LBB143:
 529              	.LBB135:
 530              	.LBB133:
 531              	.LBB132:
  62:../../libdaisy/src/hid/audio.h ****     ~AudioHandle() {}
 532              		.loc 7 62 35 view .LVU130
 533 0008 4361     		str	r3, [r0, #20]
 534              	.LVL29:
  62:../../libdaisy/src/hid/audio.h ****     ~AudioHandle() {}
 535              		.loc 7 62 35 view .LVU131
 536              	.LBE132:
 537              	.LBE133:
 538              	.LBE135:
 539              	.LBB136:
 540              	.LBI136:
  84:../../libdaisy/src/per/adc.h ****     ~AdcHandle() {}
 541              		.loc 6 84 5 is_stmt 1 view .LVU132
  84:../../libdaisy/src/per/adc.h ****     ~AdcHandle() {}
 542              		.loc 6 84 5 is_stmt 0 view .LVU133
 543              	.LBE136:
 544              	.LBB137:
 545              	.LBI137:
 546              		.file 9 "../../libdaisy/src/per/dac.h"
   1:../../libdaisy/src/per/dac.h **** #pragma once
   2:../../libdaisy/src/per/dac.h **** #ifndef DSY_DAC_H
   3:../../libdaisy/src/per/dac.h **** #define DSY_DAC_H
   4:../../libdaisy/src/per/dac.h **** 
   5:../../libdaisy/src/per/dac.h **** #include "daisy_core.h"
   6:../../libdaisy/src/per/dac.h **** 
   7:../../libdaisy/src/per/dac.h **** namespace daisy
   8:../../libdaisy/src/per/dac.h **** {
   9:../../libdaisy/src/per/dac.h **** /** DAC handle for Built-in DAC Peripheral 
ARM GAS  /tmp/ccunrK7J.s 			page 19


  10:../../libdaisy/src/per/dac.h ****  ** 
  11:../../libdaisy/src/per/dac.h ****  ** For now only Normal Mode is supported,
  12:../../libdaisy/src/per/dac.h ****  ** Sample and hold mode provides reduced power consumption, but requires a bit more setup.
  13:../../libdaisy/src/per/dac.h ****  **
  14:../../libdaisy/src/per/dac.h ****  ** For now connecting the DAC through other internal periphearls is also not supported.
  15:../../libdaisy/src/per/dac.h ****  **
  16:../../libdaisy/src/per/dac.h ****  ** Since the DAC channels have dedicated pins we don't need to pass in a pin config like with
  17:../../libdaisy/src/per/dac.h ****  ** other modules. However, it is still important to not try to use the DAC pins for anything else.
  18:../../libdaisy/src/per/dac.h ****  ** DAC Channel 1 is on PA4, and DAC Channel 2 is on PA5
  19:../../libdaisy/src/per/dac.h ****  ***/
  20:../../libdaisy/src/per/dac.h **** class DacHandle
  21:../../libdaisy/src/per/dac.h **** {
  22:../../libdaisy/src/per/dac.h ****   public:
  23:../../libdaisy/src/per/dac.h ****     /** Return Values for the DacHandle class */
  24:../../libdaisy/src/per/dac.h ****     enum class Result
  25:../../libdaisy/src/per/dac.h ****     {
  26:../../libdaisy/src/per/dac.h ****         OK,
  27:../../libdaisy/src/per/dac.h ****         ERR,
  28:../../libdaisy/src/per/dac.h ****     };
  29:../../libdaisy/src/per/dac.h **** 
  30:../../libdaisy/src/per/dac.h ****     /** Selects which channel(s) will be configured for use. */
  31:../../libdaisy/src/per/dac.h ****     enum class Channel
  32:../../libdaisy/src/per/dac.h ****     {
  33:../../libdaisy/src/per/dac.h ****         ONE,
  34:../../libdaisy/src/per/dac.h ****         TWO,
  35:../../libdaisy/src/per/dac.h ****         BOTH,
  36:../../libdaisy/src/per/dac.h ****     };
  37:../../libdaisy/src/per/dac.h **** 
  38:../../libdaisy/src/per/dac.h ****     /** Sets the Mode for the DAC channels.
  39:../../libdaisy/src/per/dac.h ****      **
  40:../../libdaisy/src/per/dac.h ****      ** Polling mode uses the blocking mode to transmit a single value at a time.
  41:../../libdaisy/src/per/dac.h ****      **
  42:../../libdaisy/src/per/dac.h ****      ** DMA mode uses a buffer, and periodically transmits it triggering a 
  43:../../libdaisy/src/per/dac.h ****      ** callback to fill the buffer when it is ready for more samples.
  44:../../libdaisy/src/per/dac.h ****      ***/
  45:../../libdaisy/src/per/dac.h ****     enum class Mode
  46:../../libdaisy/src/per/dac.h ****     {
  47:../../libdaisy/src/per/dac.h ****         POLLING,
  48:../../libdaisy/src/per/dac.h ****         DMA,
  49:../../libdaisy/src/per/dac.h ****     };
  50:../../libdaisy/src/per/dac.h **** 
  51:../../libdaisy/src/per/dac.h ****     /** Sets the number of bits per sample transmitted out of the DAC.
  52:../../libdaisy/src/per/dac.h ****      ** The output range will be: 0V - VDDA
  53:../../libdaisy/src/per/dac.h ****      ** The resolution will be roughly: bitdepth / (VDDA - 0V) 
  54:../../libdaisy/src/per/dac.h ****      ***/
  55:../../libdaisy/src/per/dac.h ****     enum class BitDepth
  56:../../libdaisy/src/per/dac.h ****     {
  57:../../libdaisy/src/per/dac.h ****         BITS_8,
  58:../../libdaisy/src/per/dac.h ****         BITS_12
  59:../../libdaisy/src/per/dac.h ****     };
  60:../../libdaisy/src/per/dac.h **** 
  61:../../libdaisy/src/per/dac.h ****     /** Sets whether the DAC output is buffered for higher drive ability. */
  62:../../libdaisy/src/per/dac.h ****     enum class BufferState
  63:../../libdaisy/src/per/dac.h ****     {
  64:../../libdaisy/src/per/dac.h ****         ENABLED,
  65:../../libdaisy/src/per/dac.h ****         DISABLED,
  66:../../libdaisy/src/per/dac.h ****     };
ARM GAS  /tmp/ccunrK7J.s 			page 20


  67:../../libdaisy/src/per/dac.h **** 
  68:../../libdaisy/src/per/dac.h ****     /** Configuration structure for initializing the DAC structure. */
  69:../../libdaisy/src/per/dac.h ****     struct Config
  70:../../libdaisy/src/per/dac.h ****     {
  71:../../libdaisy/src/per/dac.h ****         /** Target Samplerate in Hz used to configure the internal 
  72:../../libdaisy/src/per/dac.h ****          ** timebase for DMA mode. Does nothing in POLLING mode.
  73:../../libdaisy/src/per/dac.h ****          ** If the value is 0 at Init time this will default to 48000Hz 
  74:../../libdaisy/src/per/dac.h ****          ** otherwise the driver will attempt meet the target.*/
  75:../../libdaisy/src/per/dac.h ****         uint32_t target_samplerate;
  76:../../libdaisy/src/per/dac.h **** 
  77:../../libdaisy/src/per/dac.h ****         Channel     chn;
  78:../../libdaisy/src/per/dac.h ****         Mode        mode;
  79:../../libdaisy/src/per/dac.h ****         BitDepth    bitdepth;
  80:../../libdaisy/src/per/dac.h ****         BufferState buff_state;
  81:../../libdaisy/src/per/dac.h ****     };
  82:../../libdaisy/src/per/dac.h **** 
  83:../../libdaisy/src/per/dac.h ****     DacHandle() : pimpl_(nullptr) {}
 547              		.loc 9 83 5 is_stmt 1 view .LVU134
 548              	.LBB138:
 549              	.LBB139:
 550              		.loc 9 83 33 is_stmt 0 view .LVU135
 551 000a 0362     		str	r3, [r0, #32]
 552              	.LVL30:
 553              		.loc 9 83 33 view .LVU136
 554              	.LBE139:
 555              	.LBE138:
 556              	.LBE137:
 557              	.LBB140:
 558              	.LBI140:
  40:../../libdaisy/src/hid/usb.h **** 
 559              		.loc 5 40 5 is_stmt 1 view .LVU137
  40:../../libdaisy/src/hid/usb.h **** 
 560              		.loc 5 40 5 is_stmt 0 view .LVU138
 561              	.LBE140:
 562              	.LBB141:
 563              	.LBI141:
  58:../../libdaisy/src/sys/system.h ****     ~System() {}
 564              		.loc 4 58 5 is_stmt 1 view .LVU139
  58:../../libdaisy/src/sys/system.h ****     ~System() {}
 565              		.loc 4 58 5 is_stmt 0 view .LVU140
 566              	.LBE141:
 567              	.LBE143:
 568              	.LBE145:
   7:line.cpp      **** static Line       line_seg;
 569              		.loc 8 7 19 view .LVU141
 570 000c 0949     		ldr	r1, .L30+8
 571 000e FFF7FEFF 		bl	__aeabi_atexit
 572              	.LVL31:
 573              	.LBB146:
 574              	.LBI146:
  14:../../DaisySP/Source/Control/line.h ****     ~Line() {}
 575              		.loc 1 14 5 is_stmt 1 view .LVU142
  14:../../DaisySP/Source/Control/line.h ****     ~Line() {}
 576              		.loc 1 14 5 is_stmt 0 view .LVU143
 577              	.LBE146:
   8:line.cpp      **** static Oscillator osc_sine;
 578              		.loc 8 8 19 view .LVU144
ARM GAS  /tmp/ccunrK7J.s 			page 21


 579 0012 074A     		ldr	r2, .L30+4
 580 0014 0849     		ldr	r1, .L30+12
 581 0016 0948     		ldr	r0, .L30+16
 582 0018 FFF7FEFF 		bl	__aeabi_atexit
 583              	.LVL32:
 584              	.LBB147:
 585              	.LBI147:
  15:../../DaisySP/Source/Synthesis/oscillator.h ****     ~Oscillator() {}
 586              		.loc 2 15 5 is_stmt 1 view .LVU145
  15:../../DaisySP/Source/Synthesis/oscillator.h ****     ~Oscillator() {}
 587              		.loc 2 15 5 is_stmt 0 view .LVU146
 588              	.LBE147:
   9:line.cpp      **** 
 589              		.loc 8 9 19 view .LVU147
 590 001c 044A     		ldr	r2, .L30+4
 591 001e 0849     		ldr	r1, .L30+20
 592 0020 0848     		ldr	r0, .L30+24
 593              	.LBE148:
 594              	.LBE150:
 595              		.loc 8 60 1 view .LVU148
 596 0022 BDE80840 		pop	{r3, lr}
 597              		.cfi_restore 14
 598              		.cfi_restore 3
 599              		.cfi_def_cfa_offset 0
 600              	.LBB151:
 601              	.LBB149:
   9:line.cpp      **** 
 602              		.loc 8 9 19 view .LVU149
 603 0026 FFF7FEBF 		b	__aeabi_atexit
 604              	.LVL33:
 605              	.L31:
 606 002a 00BF     		.align	2
 607              	.L30:
 608 002c 00000000 		.word	.LANCHOR3
 609 0030 00000000 		.word	__dso_handle
 610 0034 00000000 		.word	_ZN5daisy9DaisySeedD1Ev
 611 0038 00000000 		.word	_ZN7daisysp4LineD1Ev
 612 003c 00000000 		.word	.LANCHOR1
 613 0040 00000000 		.word	_ZN7daisysp10OscillatorD1Ev
 614 0044 00000000 		.word	.LANCHOR2
 615              	.LBE149:
 616              	.LBE151:
 617              		.cfi_endproc
 618              	.LFE4759:
 620              		.section	.init_array,"aw",%init_array
 621              		.align	2
 622 0000 00000000 		.word	_GLOBAL__sub_I_finished(target1)
 623              		.global	finished
 624              		.section	.bss._ZL4seed,"aw",%nobits
 625              		.align	2
 626              		.set	.LANCHOR3,. + 0
 629              	_ZL4seed:
 630 0000 00000000 		.space	60
 630      00000000 
 630      00000000 
 630      00000000 
 630      00000000 
ARM GAS  /tmp/ccunrK7J.s 			page 22


 631              		.section	.bss._ZL8line_seg,"aw",%nobits
 632              		.align	2
 633              		.set	.LANCHOR1,. + 0
 636              	_ZL8line_seg:
 637 0000 00000000 		.space	28
 637      00000000 
 637      00000000 
 637      00000000 
 637      00000000 
 638              		.section	.bss._ZL8osc_sine,"aw",%nobits
 639              		.align	2
 640              		.set	.LANCHOR2,. + 0
 643              	_ZL8osc_sine:
 644 0000 00000000 		.space	40
 644      00000000 
 644      00000000 
 644      00000000 
 644      00000000 
 645              		.section	.bss.finished,"aw",%nobits
 646              		.set	.LANCHOR0,. + 0
 649              	finished:
 650 0000 00       		.space	1
 651              		.text
 652              	.Letext0:
 653              		.file 10 "/usr/lib/gcc/arm-none-eabi/9.2.1/include/stdint.h"
 654              		.file 11 "../../libdaisy/Drivers/CMSIS/Include/core_cm7.h"
 655              		.file 12 "../../libdaisy/Drivers/CMSIS/Device/ST/STM32H7xx/Include/system_stm32h7xx.h"
 656              		.file 13 "/usr/lib/gcc/arm-none-eabi/9.2.1/include/stddef.h"
 657              		.file 14 "/usr/include/newlib/c++/9.2.1/cmath"
 658              		.file 15 "/usr/include/newlib/c++/9.2.1/bits/std_abs.h"
 659              		.file 16 "/usr/include/newlib/c++/9.2.1/cstdint"
 660              		.file 17 "/usr/include/newlib/c++/9.2.1/cstdlib"
 661              		.file 18 "/usr/include/newlib/c++/9.2.1/type_traits"
 662              		.file 19 "/usr/include/newlib/c++/9.2.1/arm-none-eabi/thumb/v7e-m+dp/hard/bits/c++config.h"
 663              		.file 20 "/usr/include/newlib/c++/9.2.1/bits/stl_pair.h"
 664              		.file 21 "/usr/include/newlib/c++/9.2.1/debug/debug.h"
 665              		.file 22 "/usr/include/newlib/c++/9.2.1/cwchar"
 666              		.file 23 "/usr/include/newlib/c++/9.2.1/bits/exception_ptr.h"
 667              		.file 24 "/usr/include/newlib/c++/9.2.1/new"
 668              		.file 25 "/usr/include/newlib/c++/9.2.1/clocale"
 669              		.file 26 "/usr/include/newlib/c++/9.2.1/cstdio"
 670              		.file 27 "/usr/include/newlib/c++/9.2.1/bits/basic_string.h"
 671              		.file 28 "/usr/include/newlib/c++/9.2.1/bits/uniform_int_dist.h"
 672              		.file 29 "/usr/include/newlib/c++/9.2.1/bits/random.h"
 673              		.file 30 "/usr/include/newlib/c++/9.2.1/cstring"
 674              		.file 31 "/usr/include/newlib/c++/9.2.1/bits/algorithmfwd.h"
 675              		.file 32 "/usr/include/newlib/c++/9.2.1/cstdarg"
 676              		.file 33 "/usr/include/newlib/c++/9.2.1/bits/predefined_ops.h"
 677              		.file 34 "/usr/include/newlib/c++/9.2.1/ext/new_allocator.h"
 678              		.file 35 "/usr/include/newlib/c++/9.2.1/ext/numeric_traits.h"
 679              		.file 36 "/usr/include/newlib/sys/_types.h"
 680              		.file 37 "<built-in>"
 681              		.file 38 "/usr/include/newlib/sys/reent.h"
 682              		.file 39 "/usr/include/newlib/sys/lock.h"
 683              		.file 40 "/usr/include/newlib/math.h"
 684              		.file 41 "/usr/include/newlib/stdlib.h"
 685              		.file 42 "/usr/include/newlib/c++/9.2.1/math.h"
ARM GAS  /tmp/ccunrK7J.s 			page 23


 686              		.file 43 "../../libdaisy/Drivers/STM32H7xx_HAL_Driver/Inc/stm32h7xx_hal_def.h"
 687              		.file 44 "../../libdaisy/Drivers/STM32H7xx_HAL_Driver/Inc/stm32h7xx_hal_flash.h"
 688              		.file 45 "../../DaisySP/Source/Control/adenv.h"
 689              		.file 46 "../../DaisySP/Source/Utility/dsp.h"
 690              		.file 47 "/usr/lib/gcc/arm-none-eabi/9.2.1/include/stdarg.h"
 691              		.file 48 "/usr/include/newlib/wchar.h"
 692              		.file 49 "/usr/include/newlib/locale.h"
 693              		.file 50 "/usr/include/newlib/ctype.h"
 694              		.file 51 "/usr/include/newlib/stdio.h"
 695              		.file 52 "/usr/include/newlib/sys/errno.h"
 696              		.file 53 "/usr/include/newlib/c++/9.2.1/stdlib.h"
 697              		.file 54 "/usr/include/newlib/string.h"
 698              		.file 55 "../../libdaisy/src/daisy_core.h"
 699              		.file 56 "../../libdaisy/src/per/tim.h"
 700              		.file 57 "../../libdaisy/src/per/sai.h"
 701              		.file 58 "../../libdaisy/src/util/wav_format.h"
 702              		.file 59 "../../libdaisy/src/per/qspi.h"
 703              		.file 60 "../../libdaisy/src/per/gpio.h"
 704              		.file 61 "../../libdaisy/src/dev/sdram.h"
 705              		.file 62 "/usr/include/newlib/sys/unistd.h"
 706              		.file 63 "../../libdaisy/src/util/oled_fonts.h"
 707              		.file 64 "../../libdaisy/Middlewares/Third_Party/FatFs/src/integer.h"
 708              		.file 65 "../../libdaisy/Middlewares/Third_Party/FatFs/src/ff.h"
 709              		.file 66 "../../libdaisy/Middlewares/Third_Party/FatFs/src/diskio.h"
 710              		.file 67 "../../libdaisy/Middlewares/Third_Party/FatFs/src/ff_gen_drv.h"
 711              		.file 68 "../../libdaisy/src/util/sd_diskio.h"
 712              		.file 69 "../../libdaisy/src/sys/fatfs.h"
 713              		.file 70 "../../libdaisy/src/dev/sr_595.h"
ARM GAS  /tmp/ccunrK7J.s 			page 24

