ARM GAS  /tmp/ccmhSQ6q.s 			page 1


   1              		.cpu cortex-m7
   2              		.eabi_attribute 28, 1
   3              		.eabi_attribute 20, 1
   4              		.eabi_attribute 21, 1
   5              		.eabi_attribute 23, 3
   6              		.eabi_attribute 24, 1
   7              		.eabi_attribute 25, 1
   8              		.eabi_attribute 26, 1
   9              		.eabi_attribute 30, 2
  10              		.eabi_attribute 34, 1
  11              		.eabi_attribute 18, 4
  12              		.file	"SynthVoice.cpp"
  13              		.text
  14              	.Ltext0:
  15              		.cfi_sections	.debug_frame
  16              		.section	.text._ZN7daisysp5AdEnvD2Ev,"axG",%progbits,_ZN7daisysp5AdEnvD5Ev,comdat
  17              		.align	1
  18              		.p2align 2,,3
  19              		.weak	_ZN7daisysp5AdEnvD2Ev
  20              		.arch armv7e-m
  21              		.syntax unified
  22              		.thumb
  23              		.thumb_func
  24              		.fpu fpv5-d16
  26              	_ZN7daisysp5AdEnvD2Ev:
  27              	.LVL0:
  28              	.LFB548:
  29              		.file 1 "../../DaisySP/Source/Control/adenv.h"
   1:../../DaisySP/Source/Control/adenv.h **** #pragma once
   2:../../DaisySP/Source/Control/adenv.h **** #ifndef ADENV_H
   3:../../DaisySP/Source/Control/adenv.h **** #define ADENV_H
   4:../../DaisySP/Source/Control/adenv.h **** #include <stdint.h>
   5:../../DaisySP/Source/Control/adenv.h **** #ifdef __cplusplus
   6:../../DaisySP/Source/Control/adenv.h **** 
   7:../../DaisySP/Source/Control/adenv.h **** namespace daisysp
   8:../../DaisySP/Source/Control/adenv.h **** {
   9:../../DaisySP/Source/Control/adenv.h **** /** Distinct stages that the phase of the envelope can be located in.
  10:../../DaisySP/Source/Control/adenv.h ****     @see AdEnv
  11:../../DaisySP/Source/Control/adenv.h **** */
  12:../../DaisySP/Source/Control/adenv.h **** enum AdEnvSegment
  13:../../DaisySP/Source/Control/adenv.h **** {
  14:../../DaisySP/Source/Control/adenv.h ****     /** located at phase location 0, and not currently running */
  15:../../DaisySP/Source/Control/adenv.h ****     ADENV_SEG_IDLE,
  16:../../DaisySP/Source/Control/adenv.h ****     /** First segment of envelope where phase moves from MIN value to MAX value */
  17:../../DaisySP/Source/Control/adenv.h ****     ADENV_SEG_ATTACK,
  18:../../DaisySP/Source/Control/adenv.h ****     /** Second segment of envelope where phase moves from MAX to MIN value */
  19:../../DaisySP/Source/Control/adenv.h ****     ADENV_SEG_DECAY,
  20:../../DaisySP/Source/Control/adenv.h ****     /** The final segment of the envelope (currently decay) */
  21:../../DaisySP/Source/Control/adenv.h ****     ADENV_SEG_LAST,
  22:../../DaisySP/Source/Control/adenv.h **** };
  23:../../DaisySP/Source/Control/adenv.h **** 
  24:../../DaisySP/Source/Control/adenv.h **** /** Trigger-able envelope with adjustable min/max, and independent per-segment time control.
  25:../../DaisySP/Source/Control/adenv.h **** 
  26:../../DaisySP/Source/Control/adenv.h ****     \author shensley
  27:../../DaisySP/Source/Control/adenv.h ****     \todo - Add Cycling
  28:../../DaisySP/Source/Control/adenv.h ****     \todo - Implement Curve (its only linear for now).
  29:../../DaisySP/Source/Control/adenv.h ****     \todo - Maybe make this an ADsr_ that has AD/AR/Asr_ modes.
ARM GAS  /tmp/ccmhSQ6q.s 			page 2


  30:../../DaisySP/Source/Control/adenv.h ****  */
  31:../../DaisySP/Source/Control/adenv.h **** class AdEnv
  32:../../DaisySP/Source/Control/adenv.h **** {
  33:../../DaisySP/Source/Control/adenv.h ****   public:
  34:../../DaisySP/Source/Control/adenv.h ****     AdEnv() {}
  35:../../DaisySP/Source/Control/adenv.h ****     ~AdEnv() {}
  30              		.loc 1 35 5 view -0
  31              		.cfi_startproc
  32              		@ args = 0, pretend = 0, frame = 0
  33              		@ frame_needed = 0, uses_anonymous_args = 0
  34              		@ link register save eliminated.
  35              		.loc 1 35 15 is_stmt 0 view .LVU1
  36 0000 7047     		bx	lr
  37              		.cfi_endproc
  38              	.LFE548:
  40              		.weak	_ZN7daisysp5AdEnvD1Ev
  41              		.thumb_set _ZN7daisysp5AdEnvD1Ev,_ZN7daisysp5AdEnvD2Ev
  42 0002 00BF     		.section	.text._ZN7daisysp10OscillatorD2Ev,"axG",%progbits,_ZN7daisysp10OscillatorD5Ev,comdat
  43              		.align	1
  44              		.p2align 2,,3
  45              		.weak	_ZN7daisysp10OscillatorD2Ev
  46              		.syntax unified
  47              		.thumb
  48              		.thumb_func
  49              		.fpu fpv5-d16
  51              	_ZN7daisysp10OscillatorD2Ev:
  52              	.LVL1:
  53              	.LFB2797:
  54              		.file 2 "../../DaisySP/Source/Synthesis/oscillator.h"
   1:../../DaisySP/Source/Synthesis/oscillator.h **** #pragma once
   2:../../DaisySP/Source/Synthesis/oscillator.h **** #ifndef DSY_OSCILLATOR_H
   3:../../DaisySP/Source/Synthesis/oscillator.h **** #define DSY_OSCILLATOR_H
   4:../../DaisySP/Source/Synthesis/oscillator.h **** #include <stdint.h>
   5:../../DaisySP/Source/Synthesis/oscillator.h **** #include "Utility/dsp.h"
   6:../../DaisySP/Source/Synthesis/oscillator.h **** #ifdef __cplusplus
   7:../../DaisySP/Source/Synthesis/oscillator.h **** 
   8:../../DaisySP/Source/Synthesis/oscillator.h **** namespace daisysp
   9:../../DaisySP/Source/Synthesis/oscillator.h **** {
  10:../../DaisySP/Source/Synthesis/oscillator.h **** /** Synthesis of several waveforms, including polyBLEP bandlimited waveforms.
  11:../../DaisySP/Source/Synthesis/oscillator.h **** */
  12:../../DaisySP/Source/Synthesis/oscillator.h **** class Oscillator
  13:../../DaisySP/Source/Synthesis/oscillator.h **** {
  14:../../DaisySP/Source/Synthesis/oscillator.h ****   public:
  15:../../DaisySP/Source/Synthesis/oscillator.h ****     Oscillator() {}
  16:../../DaisySP/Source/Synthesis/oscillator.h ****     ~Oscillator() {}
  55              		.loc 2 16 5 is_stmt 1 view -0
  56              		.cfi_startproc
  57              		@ args = 0, pretend = 0, frame = 0
  58              		@ frame_needed = 0, uses_anonymous_args = 0
  59              		@ link register save eliminated.
  60              		.loc 2 16 20 is_stmt 0 view .LVU3
  61 0000 7047     		bx	lr
  62              		.cfi_endproc
  63              	.LFE2797:
  65              		.weak	_ZN7daisysp10OscillatorD1Ev
  66              		.thumb_set _ZN7daisysp10OscillatorD1Ev,_ZN7daisysp10OscillatorD2Ev
  67 0002 00BF     		.section	.text._ZN7daisysp10MoogLadderD2Ev,"axG",%progbits,_ZN7daisysp10MoogLadderD5Ev,comdat
ARM GAS  /tmp/ccmhSQ6q.s 			page 3


  68              		.align	1
  69              		.p2align 2,,3
  70              		.weak	_ZN7daisysp10MoogLadderD2Ev
  71              		.syntax unified
  72              		.thumb
  73              		.thumb_func
  74              		.fpu fpv5-d16
  76              	_ZN7daisysp10MoogLadderD2Ev:
  77              	.LVL2:
  78              	.LFB3085:
  79              		.file 3 "../../DaisySP/Source/Filters/moogladder.h"
   1:../../DaisySP/Source/Filters/moogladder.h **** #pragma once
   2:../../DaisySP/Source/Filters/moogladder.h **** #ifndef DSY_MOOGLADDER_H
   3:../../DaisySP/Source/Filters/moogladder.h **** #define DSY_MOOGLADDER_H
   4:../../DaisySP/Source/Filters/moogladder.h **** 
   5:../../DaisySP/Source/Filters/moogladder.h **** #include <stdint.h>
   6:../../DaisySP/Source/Filters/moogladder.h **** #ifdef __cplusplus
   7:../../DaisySP/Source/Filters/moogladder.h **** 
   8:../../DaisySP/Source/Filters/moogladder.h **** namespace daisysp
   9:../../DaisySP/Source/Filters/moogladder.h **** {
  10:../../DaisySP/Source/Filters/moogladder.h **** /** Moog ladder filter module
  11:../../DaisySP/Source/Filters/moogladder.h **** 
  12:../../DaisySP/Source/Filters/moogladder.h **** Ported from soundpipe
  13:../../DaisySP/Source/Filters/moogladder.h **** 
  14:../../DaisySP/Source/Filters/moogladder.h **** Original author(s) : Victor Lazzarini, John ffitch (fast tanh), Bob Moog
  15:../../DaisySP/Source/Filters/moogladder.h **** 
  16:../../DaisySP/Source/Filters/moogladder.h **** */
  17:../../DaisySP/Source/Filters/moogladder.h **** class MoogLadder
  18:../../DaisySP/Source/Filters/moogladder.h **** {
  19:../../DaisySP/Source/Filters/moogladder.h ****   public:
  20:../../DaisySP/Source/Filters/moogladder.h ****     MoogLadder() {}
  21:../../DaisySP/Source/Filters/moogladder.h ****     ~MoogLadder() {}
  80              		.loc 3 21 5 is_stmt 1 view -0
  81              		.cfi_startproc
  82              		@ args = 0, pretend = 0, frame = 0
  83              		@ frame_needed = 0, uses_anonymous_args = 0
  84              		@ link register save eliminated.
  85              		.loc 3 21 20 is_stmt 0 view .LVU5
  86 0000 7047     		bx	lr
  87              		.cfi_endproc
  88              	.LFE3085:
  90              		.weak	_ZN7daisysp10MoogLadderD1Ev
  91              		.thumb_set _ZN7daisysp10MoogLadderD1Ev,_ZN7daisysp10MoogLadderD2Ev
  92 0002 00BF     		.section	.text._ZN5daisy9ParameterD2Ev,"axG",%progbits,_ZN5daisy9ParameterD5Ev,comdat
  93              		.align	1
  94              		.p2align 2,,3
  95              		.weak	_ZN5daisy9ParameterD2Ev
  96              		.syntax unified
  97              		.thumb
  98              		.thumb_func
  99              		.fpu fpv5-d16
 101              	_ZN5daisy9ParameterD2Ev:
 102              	.LVL3:
 103              	.LFB3778:
 104              		.file 4 "../../libdaisy/src/hid/parameter.h"
   1:../../libdaisy/src/hid/parameter.h **** #pragma once
   2:../../libdaisy/src/hid/parameter.h **** #include <stdint.h>
ARM GAS  /tmp/ccmhSQ6q.s 			page 4


   3:../../libdaisy/src/hid/parameter.h **** #include "hid/ctrl.h"
   4:../../libdaisy/src/hid/parameter.h **** 
   5:../../libdaisy/src/hid/parameter.h **** namespace daisy
   6:../../libdaisy/src/hid/parameter.h **** {
   7:../../libdaisy/src/hid/parameter.h **** /** @addtogroup controls
   8:../../libdaisy/src/hid/parameter.h ****     @{
   9:../../libdaisy/src/hid/parameter.h **** */
  10:../../libdaisy/src/hid/parameter.h **** 
  11:../../libdaisy/src/hid/parameter.h **** /**      Simple parameter mapping tool that takes a 0-1 input from an hid_ctrl. */
  12:../../libdaisy/src/hid/parameter.h **** class Parameter
  13:../../libdaisy/src/hid/parameter.h **** {
  14:../../libdaisy/src/hid/parameter.h ****   public:
  15:../../libdaisy/src/hid/parameter.h ****     /** Curves are applied to the output signal */
  16:../../libdaisy/src/hid/parameter.h ****     enum Curve
  17:../../libdaisy/src/hid/parameter.h ****     {
  18:../../libdaisy/src/hid/parameter.h ****         LINEAR,      /**< Linear curve */
  19:../../libdaisy/src/hid/parameter.h ****         EXPONENTIAL, /**< Exponential curve */
  20:../../libdaisy/src/hid/parameter.h ****         LOGARITHMIC, /**<  Logarithmic curve */
  21:../../libdaisy/src/hid/parameter.h ****         CUBE,        /**< Cubic curve */
  22:../../libdaisy/src/hid/parameter.h ****         LAST,        /**< Final enum element. */
  23:../../libdaisy/src/hid/parameter.h ****     };
  24:../../libdaisy/src/hid/parameter.h ****     /** Constructor */
  25:../../libdaisy/src/hid/parameter.h ****     Parameter() {}
  26:../../libdaisy/src/hid/parameter.h ****     /** Destructor */
  27:../../libdaisy/src/hid/parameter.h ****     ~Parameter() {}
 105              		.loc 4 27 5 is_stmt 1 view -0
 106              		.cfi_startproc
 107              		@ args = 0, pretend = 0, frame = 0
 108              		@ frame_needed = 0, uses_anonymous_args = 0
 109              		@ link register save eliminated.
 110              	.LBB445:
 111              	.LBI445:
 112              		.file 5 "../../libdaisy/src/hid/ctrl.h"
   1:../../libdaisy/src/hid/ctrl.h **** #pragma once
   2:../../libdaisy/src/hid/ctrl.h **** #ifndef DSY_KNOB_H
   3:../../libdaisy/src/hid/ctrl.h **** #define DSY_KNOB_H /**< & */
   4:../../libdaisy/src/hid/ctrl.h **** #include <stdint.h>
   5:../../libdaisy/src/hid/ctrl.h **** 
   6:../../libdaisy/src/hid/ctrl.h **** #ifdef __cplusplus
   7:../../libdaisy/src/hid/ctrl.h **** namespace daisy
   8:../../libdaisy/src/hid/ctrl.h **** {
   9:../../libdaisy/src/hid/ctrl.h **** /**
  10:../../libdaisy/src/hid/ctrl.h ****     @brief Hardware Interface for control inputs \n 
  11:../../libdaisy/src/hid/ctrl.h ****     Primarily designed for ADC input controls such as \n 
  12:../../libdaisy/src/hid/ctrl.h ****     potentiometers, and control voltage. \n 
  13:../../libdaisy/src/hid/ctrl.h ****     @author Stephen Hensley
  14:../../libdaisy/src/hid/ctrl.h ****     @date November 2019
  15:../../libdaisy/src/hid/ctrl.h ****     @ingroup controls
  16:../../libdaisy/src/hid/ctrl.h **** */
  17:../../libdaisy/src/hid/ctrl.h **** class AnalogControl
  18:../../libdaisy/src/hid/ctrl.h **** {
  19:../../libdaisy/src/hid/ctrl.h ****   public:
  20:../../libdaisy/src/hid/ctrl.h ****     /** Constructor */
  21:../../libdaisy/src/hid/ctrl.h ****     AnalogControl() {}
  22:../../libdaisy/src/hid/ctrl.h ****     /** destructor */
  23:../../libdaisy/src/hid/ctrl.h ****     ~AnalogControl() {}
 113              		.loc 5 23 5 view .LVU7
ARM GAS  /tmp/ccmhSQ6q.s 			page 5


 114              		.loc 5 23 5 is_stmt 0 view .LVU8
 115              	.LBE445:
 116              		.loc 4 27 19 view .LVU9
 117 0000 7047     		bx	lr
 118              		.cfi_endproc
 119              	.LFE3778:
 121              		.weak	_ZN5daisy9ParameterD1Ev
 122              		.thumb_set _ZN5daisy9ParameterD1Ev,_ZN5daisy9ParameterD2Ev
 123 0002 00BF     		.section	.text._ZN5daisy8DaisyPodD2Ev,"axG",%progbits,_ZN5daisy8DaisyPodD5Ev,comdat
 124              		.align	1
 125              		.p2align 2,,3
 126              		.weak	_ZN5daisy8DaisyPodD2Ev
 127              		.syntax unified
 128              		.thumb
 129              		.thumb_func
 130              		.fpu fpv5-d16
 132              	_ZN5daisy8DaisyPodD2Ev:
 133              	.LVL4:
 134              	.LFB4216:
 135              		.file 6 "../../libdaisy/src/daisy_pod.h"
   1:../../libdaisy/src/daisy_pod.h **** #pragma once
   2:../../libdaisy/src/daisy_pod.h **** #ifndef DSY_POD_BSP_H
   3:../../libdaisy/src/daisy_pod.h **** #define DSY_POD_BSP_H
   4:../../libdaisy/src/daisy_pod.h **** 
   5:../../libdaisy/src/daisy_pod.h **** #include "daisy_seed.h"
   6:../../libdaisy/src/daisy_pod.h **** 
   7:../../libdaisy/src/daisy_pod.h **** namespace daisy
   8:../../libdaisy/src/daisy_pod.h **** {
   9:../../libdaisy/src/daisy_pod.h **** /**
  10:../../libdaisy/src/daisy_pod.h ****     @brief Class that handles initializing all of the hardware specific to the Daisy Patch Board. \
  11:../../libdaisy/src/daisy_pod.h ****     Helper funtions are also in place to provide easy access to built-in controls and peripherals.
  12:../../libdaisy/src/daisy_pod.h ****     @author Stephen Hensley
  13:../../libdaisy/src/daisy_pod.h ****     @date November 2019
  14:../../libdaisy/src/daisy_pod.h ****     @ingroup boards
  15:../../libdaisy/src/daisy_pod.h **** */
  16:../../libdaisy/src/daisy_pod.h **** class DaisyPod
  17:../../libdaisy/src/daisy_pod.h **** {
  18:../../libdaisy/src/daisy_pod.h ****   public:
  19:../../libdaisy/src/daisy_pod.h ****     /** Switches */
  20:../../libdaisy/src/daisy_pod.h ****     enum Sw
  21:../../libdaisy/src/daisy_pod.h ****     {
  22:../../libdaisy/src/daisy_pod.h ****         BUTTON_1,    /** & */
  23:../../libdaisy/src/daisy_pod.h ****         BUTTON_2,    /** & */
  24:../../libdaisy/src/daisy_pod.h ****         BUTTON_LAST, /** &  */
  25:../../libdaisy/src/daisy_pod.h ****     };
  26:../../libdaisy/src/daisy_pod.h **** 
  27:../../libdaisy/src/daisy_pod.h ****     /** Knobs */
  28:../../libdaisy/src/daisy_pod.h ****     enum Knob
  29:../../libdaisy/src/daisy_pod.h ****     {
  30:../../libdaisy/src/daisy_pod.h ****         KNOB_1,    /** &  */
  31:../../libdaisy/src/daisy_pod.h ****         KNOB_2,    /** & */
  32:../../libdaisy/src/daisy_pod.h ****         KNOB_LAST, /** & */
  33:../../libdaisy/src/daisy_pod.h ****     };
  34:../../libdaisy/src/daisy_pod.h **** 
  35:../../libdaisy/src/daisy_pod.h ****     DaisyPod() {}
  36:../../libdaisy/src/daisy_pod.h ****     ~DaisyPod() {}
 136              		.loc 6 36 5 is_stmt 1 view -0
ARM GAS  /tmp/ccmhSQ6q.s 			page 6


 137              		.cfi_startproc
 138              		@ args = 0, pretend = 0, frame = 0
 139              		@ frame_needed = 0, uses_anonymous_args = 0
 140              		@ link register save eliminated.
 141              	.LBB446:
 142              	.LBI446:
 143              		.file 7 "../../libdaisy/src/hid/midi.h"
   1:../../libdaisy/src/hid/midi.h **** #pragma once
   2:../../libdaisy/src/hid/midi.h **** #ifndef DSY_MIDI_H
   3:../../libdaisy/src/hid/midi.h **** #define DSY_MIDI_H
   4:../../libdaisy/src/hid/midi.h **** 
   5:../../libdaisy/src/hid/midi.h **** // TODO: make this adjustable
   6:../../libdaisy/src/hid/midi.h **** #define SYSEX_BUFFER_LEN 128
   7:../../libdaisy/src/hid/midi.h **** 
   8:../../libdaisy/src/hid/midi.h **** #include <stdint.h>
   9:../../libdaisy/src/hid/midi.h **** #include <stdlib.h>
  10:../../libdaisy/src/hid/midi.h **** #include "per/uart.h"
  11:../../libdaisy/src/hid/midi.h **** #include "util/ringbuffer.h"
  12:../../libdaisy/src/hid/midi.h **** #include "hid/MidiEvent.h"
  13:../../libdaisy/src/hid/midi.h **** #include "sys/system.h"
  14:../../libdaisy/src/hid/midi.h **** 
  15:../../libdaisy/src/hid/midi.h **** namespace daisy
  16:../../libdaisy/src/hid/midi.h **** {
  17:../../libdaisy/src/hid/midi.h **** /** @addtogroup external 
  18:../../libdaisy/src/hid/midi.h ****     @{ 
  19:../../libdaisy/src/hid/midi.h **** */
  20:../../libdaisy/src/hid/midi.h **** 
  21:../../libdaisy/src/hid/midi.h **** class MidiUartTransport
  22:../../libdaisy/src/hid/midi.h **** {
  23:../../libdaisy/src/hid/midi.h ****   public:
  24:../../libdaisy/src/hid/midi.h ****     MidiUartTransport() {}
  25:../../libdaisy/src/hid/midi.h ****     ~MidiUartTransport() {}
  26:../../libdaisy/src/hid/midi.h **** 
  27:../../libdaisy/src/hid/midi.h ****     struct Config
  28:../../libdaisy/src/hid/midi.h ****     {
  29:../../libdaisy/src/hid/midi.h ****         UartHandler::Config::Peripheral periph;
  30:../../libdaisy/src/hid/midi.h ****         dsy_gpio_pin                    rx;
  31:../../libdaisy/src/hid/midi.h ****         dsy_gpio_pin                    tx;
  32:../../libdaisy/src/hid/midi.h **** 
  33:../../libdaisy/src/hid/midi.h ****         Config()
  34:../../libdaisy/src/hid/midi.h ****         {
  35:../../libdaisy/src/hid/midi.h ****             periph = UartHandler::Config::Peripheral::USART_1;
  36:../../libdaisy/src/hid/midi.h ****             rx     = {DSY_GPIOB, 7};
  37:../../libdaisy/src/hid/midi.h ****             tx     = {DSY_GPIOB, 6};
  38:../../libdaisy/src/hid/midi.h ****         }
  39:../../libdaisy/src/hid/midi.h ****     };
  40:../../libdaisy/src/hid/midi.h **** 
  41:../../libdaisy/src/hid/midi.h ****     inline void Init(Config config)
  42:../../libdaisy/src/hid/midi.h ****     {
  43:../../libdaisy/src/hid/midi.h ****         UartHandler::Config uart_config;
  44:../../libdaisy/src/hid/midi.h **** 
  45:../../libdaisy/src/hid/midi.h ****         //defaults
  46:../../libdaisy/src/hid/midi.h ****         uart_config.baudrate   = 31250;
  47:../../libdaisy/src/hid/midi.h ****         uart_config.stopbits   = UartHandler::Config::StopBits::BITS_1;
  48:../../libdaisy/src/hid/midi.h ****         uart_config.parity     = UartHandler::Config::Parity::NONE;
  49:../../libdaisy/src/hid/midi.h ****         uart_config.mode       = UartHandler::Config::Mode::TX_RX;
  50:../../libdaisy/src/hid/midi.h ****         uart_config.wordlength = UartHandler::Config::WordLength::BITS_8;
ARM GAS  /tmp/ccmhSQ6q.s 			page 7


  51:../../libdaisy/src/hid/midi.h **** 
  52:../../libdaisy/src/hid/midi.h ****         //user settings
  53:../../libdaisy/src/hid/midi.h ****         uart_config.periph        = config.periph;
  54:../../libdaisy/src/hid/midi.h ****         uart_config.pin_config.rx = config.rx;
  55:../../libdaisy/src/hid/midi.h ****         uart_config.pin_config.tx = config.tx;
  56:../../libdaisy/src/hid/midi.h **** 
  57:../../libdaisy/src/hid/midi.h ****         uart_.Init(uart_config);
  58:../../libdaisy/src/hid/midi.h ****     }
  59:../../libdaisy/src/hid/midi.h **** 
  60:../../libdaisy/src/hid/midi.h ****     inline void    StartRx() { uart_.StartRx(); }
  61:../../libdaisy/src/hid/midi.h ****     inline size_t  Readable() { return uart_.Readable(); }
  62:../../libdaisy/src/hid/midi.h ****     inline uint8_t Rx() { return uart_.PopRx(); }
  63:../../libdaisy/src/hid/midi.h ****     inline bool    RxActive() { return uart_.RxActive(); }
  64:../../libdaisy/src/hid/midi.h ****     inline void    FlushRx() { uart_.FlushRx(); }
  65:../../libdaisy/src/hid/midi.h ****     inline void    Tx(uint8_t* buff, size_t size) { uart_.PollTx(buff, size); }
  66:../../libdaisy/src/hid/midi.h **** 
  67:../../libdaisy/src/hid/midi.h ****   private:
  68:../../libdaisy/src/hid/midi.h ****     UartHandler uart_;
  69:../../libdaisy/src/hid/midi.h **** };
  70:../../libdaisy/src/hid/midi.h **** 
  71:../../libdaisy/src/hid/midi.h **** /** 
  72:../../libdaisy/src/hid/midi.h ****     @brief Simple MIDI Handler \n 
  73:../../libdaisy/src/hid/midi.h ****     Parses bytes from an input into valid MidiEvents. \n 
  74:../../libdaisy/src/hid/midi.h ****     The MidiEvents fill a FIFO queue that the user can pop messages from.
  75:../../libdaisy/src/hid/midi.h ****     @author shensley
  76:../../libdaisy/src/hid/midi.h ****     @date March 2020
  77:../../libdaisy/src/hid/midi.h **** */
  78:../../libdaisy/src/hid/midi.h **** template <typename Transport>
  79:../../libdaisy/src/hid/midi.h **** class MidiHandler
  80:../../libdaisy/src/hid/midi.h **** {
  81:../../libdaisy/src/hid/midi.h ****   public:
  82:../../libdaisy/src/hid/midi.h ****     MidiHandler() {}
  83:../../libdaisy/src/hid/midi.h ****     ~MidiHandler() {}
 144              		.loc 7 83 5 view .LVU11
 145              	.LBB447:
 146              	.LBI447:
  25:../../libdaisy/src/hid/midi.h **** 
 147              		.loc 7 25 5 view .LVU12
  25:../../libdaisy/src/hid/midi.h **** 
 148              		.loc 7 25 5 is_stmt 0 view .LVU13
 149              	.LBE447:
 150              	.LBE446:
 151              	.LBB448:
 152              	.LBI448:
 153              		.file 8 "../../libdaisy/src/hid/rgb_led.h"
   1:../../libdaisy/src/hid/rgb_led.h **** #pragma once
   2:../../libdaisy/src/hid/rgb_led.h **** #ifndef DSY_RGB_LED_H
   3:../../libdaisy/src/hid/rgb_led.h **** #define DSY_RGB_LED_H
   4:../../libdaisy/src/hid/rgb_led.h **** #include "hid/led.h"
   5:../../libdaisy/src/hid/rgb_led.h **** #include "util/color.h"
   6:../../libdaisy/src/hid/rgb_led.h **** 
   7:../../libdaisy/src/hid/rgb_led.h **** namespace daisy
   8:../../libdaisy/src/hid/rgb_led.h **** {
   9:../../libdaisy/src/hid/rgb_led.h **** /** @addtogroup feedback
  10:../../libdaisy/src/hid/rgb_led.h ****     @{
  11:../../libdaisy/src/hid/rgb_led.h **** */
  12:../../libdaisy/src/hid/rgb_led.h **** 
ARM GAS  /tmp/ccmhSQ6q.s 			page 8


  13:../../libdaisy/src/hid/rgb_led.h **** /** 3x LEDs configured as an RGB for ease of use. */
  14:../../libdaisy/src/hid/rgb_led.h **** class RgbLed
  15:../../libdaisy/src/hid/rgb_led.h **** {
  16:../../libdaisy/src/hid/rgb_led.h ****   public:
  17:../../libdaisy/src/hid/rgb_led.h ****     RgbLed() {}
  18:../../libdaisy/src/hid/rgb_led.h ****     ~RgbLed() {}
 154              		.loc 8 18 5 is_stmt 1 view .LVU14
 155              	.LBB449:
 156              	.LBI449:
 157              		.file 9 "../../libdaisy/src/hid/led.h"
   1:../../libdaisy/src/hid/led.h **** 
   2:../../libdaisy/src/hid/led.h **** #pragma once
   3:../../libdaisy/src/hid/led.h **** #ifndef DSY_LED_H
   4:../../libdaisy/src/hid/led.h **** #define DSY_LED_H
   5:../../libdaisy/src/hid/led.h **** #include "daisy_core.h"
   6:../../libdaisy/src/hid/led.h **** #include "per/gpio.h"
   7:../../libdaisy/src/hid/led.h **** 
   8:../../libdaisy/src/hid/led.h **** /* TODO - Get this set up to work with the dev_leddriver stuff as well
   9:../../libdaisy/src/hid/led.h **** - Setup Hardware PWM for pins that have it
  10:../../libdaisy/src/hid/led.h **** */
  11:../../libdaisy/src/hid/led.h **** 
  12:../../libdaisy/src/hid/led.h **** namespace daisy
  13:../../libdaisy/src/hid/led.h **** {
  14:../../libdaisy/src/hid/led.h **** /**
  15:../../libdaisy/src/hid/led.h ****     @brief LED Class providing simple Software PWM ability, etc \n 
  16:../../libdaisy/src/hid/led.h ****     Eventually this will work with hardware PWM, and external LED Driver devices as well.
  17:../../libdaisy/src/hid/led.h ****     @author shensley
  18:../../libdaisy/src/hid/led.h ****     @date March 2020
  19:../../libdaisy/src/hid/led.h ****     @ingroup feedback
  20:../../libdaisy/src/hid/led.h **** */
  21:../../libdaisy/src/hid/led.h **** class Led
  22:../../libdaisy/src/hid/led.h **** {
  23:../../libdaisy/src/hid/led.h ****   public:
  24:../../libdaisy/src/hid/led.h ****     Led() {}
  25:../../libdaisy/src/hid/led.h ****     ~Led() {}
 158              		.loc 9 25 5 view .LVU15
 159              		.loc 9 25 5 is_stmt 0 view .LVU16
 160              	.LBE449:
 161              	.LBB450:
 162              	.LBI450:
 163              		.loc 9 25 5 is_stmt 1 view .LVU17
 164              		.loc 9 25 5 is_stmt 0 view .LVU18
 165              	.LBE450:
 166              	.LBB451:
 167              	.LBI451:
 168              		.loc 9 25 5 is_stmt 1 view .LVU19
 169              		.loc 9 25 5 is_stmt 0 view .LVU20
 170              	.LBE451:
 171              	.LBE448:
 172              	.LBB452:
 173              	.LBI452:
 174              		.loc 8 18 5 is_stmt 1 view .LVU21
 175              	.LBB453:
 176              	.LBI453:
 177              		.loc 9 25 5 view .LVU22
 178              		.loc 9 25 5 is_stmt 0 view .LVU23
 179              	.LBE453:
ARM GAS  /tmp/ccmhSQ6q.s 			page 9


 180              	.LBB454:
 181              	.LBI454:
 182              		.loc 9 25 5 is_stmt 1 view .LVU24
 183              		.loc 9 25 5 is_stmt 0 view .LVU25
 184              	.LBE454:
 185              	.LBB455:
 186              	.LBI455:
 187              		.loc 9 25 5 is_stmt 1 view .LVU26
 188              		.loc 9 25 5 is_stmt 0 view .LVU27
 189              	.LBE455:
 190              	.LBE452:
 191              	.LBB456:
 192              	.LBI456:
 193              		.file 10 "../../libdaisy/src/hid/switch.h"
   1:../../libdaisy/src/hid/switch.h **** #pragma once
   2:../../libdaisy/src/hid/switch.h **** #ifndef DSY_SWITCH_H
   3:../../libdaisy/src/hid/switch.h **** #define DSY_SWITCH_H
   4:../../libdaisy/src/hid/switch.h **** #include "daisy_core.h"
   5:../../libdaisy/src/hid/switch.h **** #include "per/gpio.h"
   6:../../libdaisy/src/hid/switch.h **** 
   7:../../libdaisy/src/hid/switch.h **** namespace daisy
   8:../../libdaisy/src/hid/switch.h **** {
   9:../../libdaisy/src/hid/switch.h **** /** 
  10:../../libdaisy/src/hid/switch.h ****     Generic Class for handling momentary/latching switches \n 
  11:../../libdaisy/src/hid/switch.h ****     Inspired/influenced by Mutable Instruments (pichenettes) Switch classes
  12:../../libdaisy/src/hid/switch.h ****     @author Stephen Hensley
  13:../../libdaisy/src/hid/switch.h ****     @date December 2019
  14:../../libdaisy/src/hid/switch.h ****     @ingroup controls
  15:../../libdaisy/src/hid/switch.h **** */
  16:../../libdaisy/src/hid/switch.h **** class Switch
  17:../../libdaisy/src/hid/switch.h **** {
  18:../../libdaisy/src/hid/switch.h ****   public:
  19:../../libdaisy/src/hid/switch.h ****     /** Specifies the expected behavior of the switch */
  20:../../libdaisy/src/hid/switch.h ****     enum Type
  21:../../libdaisy/src/hid/switch.h ****     {
  22:../../libdaisy/src/hid/switch.h ****         TYPE_TOGGLE,    /**< & */
  23:../../libdaisy/src/hid/switch.h ****         TYPE_MOMENTARY, /**< & */
  24:../../libdaisy/src/hid/switch.h ****     };
  25:../../libdaisy/src/hid/switch.h ****     /** Specifies whether the pressed is HIGH or LOW. */
  26:../../libdaisy/src/hid/switch.h ****     enum Polarity
  27:../../libdaisy/src/hid/switch.h ****     {
  28:../../libdaisy/src/hid/switch.h ****         POLARITY_NORMAL,   /**< & */
  29:../../libdaisy/src/hid/switch.h ****         POLARITY_INVERTED, /**< & */
  30:../../libdaisy/src/hid/switch.h ****     };
  31:../../libdaisy/src/hid/switch.h **** 
  32:../../libdaisy/src/hid/switch.h ****     /** Specifies whether to use built-in Pull Up/Down resistors to hold button at a given state wh
  33:../../libdaisy/src/hid/switch.h ****     enum Pull
  34:../../libdaisy/src/hid/switch.h ****     {
  35:../../libdaisy/src/hid/switch.h ****         PULL_UP,   /**< & */
  36:../../libdaisy/src/hid/switch.h ****         PULL_DOWN, /**< & */
  37:../../libdaisy/src/hid/switch.h ****         PULL_NONE, /**< & */
  38:../../libdaisy/src/hid/switch.h ****     };
  39:../../libdaisy/src/hid/switch.h **** 
  40:../../libdaisy/src/hid/switch.h ****     Switch() {}
  41:../../libdaisy/src/hid/switch.h ****     ~Switch() {}
 194              		.loc 10 41 5 is_stmt 1 view .LVU28
 195              		.loc 10 41 5 is_stmt 0 view .LVU29
ARM GAS  /tmp/ccmhSQ6q.s 			page 10


 196              	.LBE456:
 197              	.LBB457:
 198              	.LBI457:
 199              		.loc 10 41 5 is_stmt 1 view .LVU30
 200              		.loc 10 41 5 is_stmt 0 view .LVU31
 201              	.LBE457:
 202              	.LBB458:
 203              	.LBI458:
 204              		.loc 5 23 5 is_stmt 1 view .LVU32
 205              		.loc 5 23 5 is_stmt 0 view .LVU33
 206              	.LBE458:
 207              	.LBB459:
 208              	.LBI459:
 209              		.loc 5 23 5 is_stmt 1 view .LVU34
 210              		.loc 5 23 5 is_stmt 0 view .LVU35
 211              	.LBE459:
 212              	.LBB460:
 213              	.LBI460:
 214              		.file 11 "../../libdaisy/src/hid/encoder.h"
   1:../../libdaisy/src/hid/encoder.h **** #pragma once
   2:../../libdaisy/src/hid/encoder.h **** #ifndef DSY_ENCODER_H
   3:../../libdaisy/src/hid/encoder.h **** #define DSY_ENCODER_H
   4:../../libdaisy/src/hid/encoder.h **** #include "daisy_core.h"
   5:../../libdaisy/src/hid/encoder.h **** #include "per/gpio.h"
   6:../../libdaisy/src/hid/encoder.h **** #include "hid/switch.h"
   7:../../libdaisy/src/hid/encoder.h **** 
   8:../../libdaisy/src/hid/encoder.h **** namespace daisy
   9:../../libdaisy/src/hid/encoder.h **** {
  10:../../libdaisy/src/hid/encoder.h **** /** 
  11:../../libdaisy/src/hid/encoder.h ****     @brief Generic Class for handling Quadrature Encoders \n 
  12:../../libdaisy/src/hid/encoder.h ****     Inspired/influenced by Mutable Instruments (pichenettes) Encoder classes
  13:../../libdaisy/src/hid/encoder.h ****     @author Stephen Hensley
  14:../../libdaisy/src/hid/encoder.h ****     @date December 2019
  15:../../libdaisy/src/hid/encoder.h ****     @ingroup controls
  16:../../libdaisy/src/hid/encoder.h **** */
  17:../../libdaisy/src/hid/encoder.h **** class Encoder
  18:../../libdaisy/src/hid/encoder.h **** {
  19:../../libdaisy/src/hid/encoder.h ****   public:
  20:../../libdaisy/src/hid/encoder.h ****     Encoder() {}
  21:../../libdaisy/src/hid/encoder.h ****     ~Encoder() {}
 215              		.loc 11 21 5 is_stmt 1 view .LVU36
 216              	.LBB461:
 217              	.LBI461:
 218              		.loc 10 41 5 view .LVU37
 219              		.loc 10 41 5 is_stmt 0 view .LVU38
 220              	.LBE461:
 221              	.LBE460:
 222              	.LBB462:
 223              	.LBI462:
 224              		.file 12 "../../libdaisy/src/daisy_seed.h"
   1:../../libdaisy/src/daisy_seed.h **** #pragma once
   2:../../libdaisy/src/daisy_seed.h **** #ifndef DSY_SEED_H
   3:../../libdaisy/src/daisy_seed.h **** #define DSY_SEED_H
   4:../../libdaisy/src/daisy_seed.h **** 
   5:../../libdaisy/src/daisy_seed.h **** #include "daisy.h"
   6:../../libdaisy/src/daisy_seed.h **** 
   7:../../libdaisy/src/daisy_seed.h **** //Uncomment this out if you're still using the rev2 hardware
ARM GAS  /tmp/ccmhSQ6q.s 			page 11


   8:../../libdaisy/src/daisy_seed.h **** //#define SEED_REV2
   9:../../libdaisy/src/daisy_seed.h **** 
  10:../../libdaisy/src/daisy_seed.h **** namespace daisy
  11:../../libdaisy/src/daisy_seed.h **** {
  12:../../libdaisy/src/daisy_seed.h **** /**
  13:../../libdaisy/src/daisy_seed.h ****    @brief This is the higher-level interface for the Daisy board. \n 
  14:../../libdaisy/src/daisy_seed.h ****     All basic peripheral configuration/initialization is setup here. \n
  15:../../libdaisy/src/daisy_seed.h **** 
  16:../../libdaisy/src/daisy_seed.h ****    @ingroup boards
  17:../../libdaisy/src/daisy_seed.h **** */
  18:../../libdaisy/src/daisy_seed.h **** class DaisySeed
  19:../../libdaisy/src/daisy_seed.h **** {
  20:../../libdaisy/src/daisy_seed.h ****   public:
  21:../../libdaisy/src/daisy_seed.h ****     DaisySeed() {}
  22:../../libdaisy/src/daisy_seed.h ****     ~DaisySeed() {}
 225              		.loc 12 22 5 is_stmt 1 view .LVU39
 226              	.LBB463:
 227              	.LBI463:
 228              		.file 13 "../../libdaisy/src/sys/system.h"
   1:../../libdaisy/src/sys/system.h **** #ifndef DSY_SYSTEM_H
   2:../../libdaisy/src/sys/system.h **** #define DSY_SYSTEM_H
   3:../../libdaisy/src/sys/system.h **** 
   4:../../libdaisy/src/sys/system.h **** #ifndef UNIT_TEST // for unit tests, a dummy implementation is provided below
   5:../../libdaisy/src/sys/system.h **** 
   6:../../libdaisy/src/sys/system.h **** #include <cstdint>
   7:../../libdaisy/src/sys/system.h **** #include "per/tim.h"
   8:../../libdaisy/src/sys/system.h **** 
   9:../../libdaisy/src/sys/system.h **** namespace daisy
  10:../../libdaisy/src/sys/system.h **** {
  11:../../libdaisy/src/sys/system.h **** /** A handle for interacting with the Core System. 
  12:../../libdaisy/src/sys/system.h ****  ** This includes the Clock tree, MPU, global DMA initialization,
  13:../../libdaisy/src/sys/system.h ****  ** cache handling, and any other necessary global initiailzation
  14:../../libdaisy/src/sys/system.h ****  **
  15:../../libdaisy/src/sys/system.h ****  ** @author shensley
  16:../../libdaisy/src/sys/system.h ****  ** @addtogroup system
  17:../../libdaisy/src/sys/system.h ****  */
  18:../../libdaisy/src/sys/system.h **** class System
  19:../../libdaisy/src/sys/system.h **** {
  20:../../libdaisy/src/sys/system.h ****   public:
  21:../../libdaisy/src/sys/system.h ****     /** Contains settings for initializing the System */
  22:../../libdaisy/src/sys/system.h ****     struct Config
  23:../../libdaisy/src/sys/system.h ****     {
  24:../../libdaisy/src/sys/system.h ****         /** Specifies the system clock frequency that feeds APB/AHB clocks, etc. */
  25:../../libdaisy/src/sys/system.h ****         enum class SysClkFreq
  26:../../libdaisy/src/sys/system.h ****         {
  27:../../libdaisy/src/sys/system.h ****             FREQ_400MHZ,
  28:../../libdaisy/src/sys/system.h ****             FREQ_480MHZ,
  29:../../libdaisy/src/sys/system.h ****         };
  30:../../libdaisy/src/sys/system.h **** 
  31:../../libdaisy/src/sys/system.h ****         /** Method to call on the struct to set to defaults
  32:../../libdaisy/src/sys/system.h ****          ** CPU Freq set to 400MHz
  33:../../libdaisy/src/sys/system.h ****          ** Cache Enabled 
  34:../../libdaisy/src/sys/system.h ****          ** */
  35:../../libdaisy/src/sys/system.h ****         void Defaults()
  36:../../libdaisy/src/sys/system.h ****         {
  37:../../libdaisy/src/sys/system.h ****             cpu_freq   = SysClkFreq::FREQ_400MHZ;
  38:../../libdaisy/src/sys/system.h ****             use_dcache = true;
ARM GAS  /tmp/ccmhSQ6q.s 			page 12


  39:../../libdaisy/src/sys/system.h ****             use_icache = true;
  40:../../libdaisy/src/sys/system.h ****         }
  41:../../libdaisy/src/sys/system.h **** 
  42:../../libdaisy/src/sys/system.h ****         /** Method to call on the struct to set to boost mode:
  43:../../libdaisy/src/sys/system.h ****          ** CPU Freq set to 480MHz
  44:../../libdaisy/src/sys/system.h ****          ** Cache Enabled 
  45:../../libdaisy/src/sys/system.h ****          ** */
  46:../../libdaisy/src/sys/system.h ****         void Boost()
  47:../../libdaisy/src/sys/system.h ****         {
  48:../../libdaisy/src/sys/system.h ****             cpu_freq   = SysClkFreq::FREQ_480MHZ;
  49:../../libdaisy/src/sys/system.h ****             use_dcache = true;
  50:../../libdaisy/src/sys/system.h ****             use_icache = true;
  51:../../libdaisy/src/sys/system.h ****         }
  52:../../libdaisy/src/sys/system.h **** 
  53:../../libdaisy/src/sys/system.h ****         SysClkFreq cpu_freq;
  54:../../libdaisy/src/sys/system.h ****         bool       use_dcache;
  55:../../libdaisy/src/sys/system.h ****         bool       use_icache;
  56:../../libdaisy/src/sys/system.h ****     };
  57:../../libdaisy/src/sys/system.h **** 
  58:../../libdaisy/src/sys/system.h ****     System() {}
  59:../../libdaisy/src/sys/system.h ****     ~System() {}
 229              		.loc 13 59 5 view .LVU40
 230              		.loc 13 59 5 is_stmt 0 view .LVU41
 231              	.LBE463:
 232              	.LBB464:
 233              	.LBI464:
 234              		.file 14 "../../libdaisy/src/hid/usb.h"
   1:../../libdaisy/src/hid/usb.h **** #pragma once
   2:../../libdaisy/src/hid/usb.h **** #ifndef DSY_HID_USB_H
   3:../../libdaisy/src/hid/usb.h **** #define DSY_HID_USB_H
   4:../../libdaisy/src/hid/usb.h **** #include <stdint.h>
   5:../../libdaisy/src/hid/usb.h **** #include <stdlib.h>
   6:../../libdaisy/src/hid/usb.h **** 
   7:../../libdaisy/src/hid/usb.h **** namespace daisy
   8:../../libdaisy/src/hid/usb.h **** /** @addtogroup externals
   9:../../libdaisy/src/hid/usb.h ****     @{
  10:../../libdaisy/src/hid/usb.h **** */
  11:../../libdaisy/src/hid/usb.h **** 
  12:../../libdaisy/src/hid/usb.h **** {
  13:../../libdaisy/src/hid/usb.h **** /** 
  14:../../libdaisy/src/hid/usb.h ****     @brief Interface for initializing and using the USB Peripherals on the daisy
  15:../../libdaisy/src/hid/usb.h ****     @author Stephen Hensley
  16:../../libdaisy/src/hid/usb.h ****     @date December 2019
  17:../../libdaisy/src/hid/usb.h **** */
  18:../../libdaisy/src/hid/usb.h **** class UsbHandle
  19:../../libdaisy/src/hid/usb.h **** {
  20:../../libdaisy/src/hid/usb.h ****   public:
  21:../../libdaisy/src/hid/usb.h ****     /** Return values for USBHandle Functions */
  22:../../libdaisy/src/hid/usb.h ****     enum class Result
  23:../../libdaisy/src/hid/usb.h ****     {
  24:../../libdaisy/src/hid/usb.h ****         OK,
  25:../../libdaisy/src/hid/usb.h ****         ERR,
  26:../../libdaisy/src/hid/usb.h ****     };
  27:../../libdaisy/src/hid/usb.h **** 
  28:../../libdaisy/src/hid/usb.h ****     /** Specified which of the two USB Peripherals to initialize. */
  29:../../libdaisy/src/hid/usb.h ****     enum UsbPeriph
  30:../../libdaisy/src/hid/usb.h ****     {
ARM GAS  /tmp/ccmhSQ6q.s 			page 13


  31:../../libdaisy/src/hid/usb.h ****         FS_INTERNAL, /**< Internal pin */
  32:../../libdaisy/src/hid/usb.h ****         FS_EXTERNAL, /**< FS External D+ pin is Pin 38 (GPIO32). FS External D- pin is Pin 37 (GPIO
  33:../../libdaisy/src/hid/usb.h ****         FS_BOTH,     /**< Both */
  34:../../libdaisy/src/hid/usb.h ****     };
  35:../../libdaisy/src/hid/usb.h **** 
  36:../../libdaisy/src/hid/usb.h **** 
  37:../../libdaisy/src/hid/usb.h ****     /** Function called upon reception of a buffer */
  38:../../libdaisy/src/hid/usb.h ****     typedef void (*ReceiveCallback)(uint8_t* buff, uint32_t* len);
  39:../../libdaisy/src/hid/usb.h **** 
  40:../../libdaisy/src/hid/usb.h ****     UsbHandle() {}
  41:../../libdaisy/src/hid/usb.h **** 
  42:../../libdaisy/src/hid/usb.h ****     ~UsbHandle() {}
 235              		.loc 14 42 5 is_stmt 1 view .LVU42
 236              		.loc 14 42 5 is_stmt 0 view .LVU43
 237              	.LBE464:
 238              	.LBB465:
 239              	.LBI465:
 240              		.file 15 "../../libdaisy/src/per/adc.h"
   1:../../libdaisy/src/per/adc.h **** #pragma once
   2:../../libdaisy/src/per/adc.h **** #ifndef DSY_ADC_H
   3:../../libdaisy/src/per/adc.h **** #define DSY_ADC_H /**< Macro */
   4:../../libdaisy/src/per/adc.h **** #include <stdint.h>
   5:../../libdaisy/src/per/adc.h **** #include <stdlib.h>
   6:../../libdaisy/src/per/adc.h **** #include "daisy_core.h"
   7:../../libdaisy/src/per/adc.h **** #include "per/gpio.h"
   8:../../libdaisy/src/per/adc.h **** 
   9:../../libdaisy/src/per/adc.h **** #define DSY_ADC_MAX_CHANNELS 14 /**< Maximum number of ADC channels */
  10:../../libdaisy/src/per/adc.h **** 
  11:../../libdaisy/src/per/adc.h **** namespace daisy
  12:../../libdaisy/src/per/adc.h **** {
  13:../../libdaisy/src/per/adc.h **** /** @addtogroup analog_digital_conversion
  14:../../libdaisy/src/per/adc.h ****     @{
  15:../../libdaisy/src/per/adc.h **** */
  16:../../libdaisy/src/per/adc.h **** 
  17:../../libdaisy/src/per/adc.h **** /* While there may not be many configuration options here,
  18:../../libdaisy/src/per/adc.h **** using a struct like this allows us to add more configuration
  19:../../libdaisy/src/per/adc.h **** later without breaking existing functionality.
  20:../../libdaisy/src/per/adc.h **** */
  21:../../libdaisy/src/per/adc.h **** 
  22:../../libdaisy/src/per/adc.h **** /** Configuration Structure for a given channel */
  23:../../libdaisy/src/per/adc.h **** struct AdcChannelConfig
  24:../../libdaisy/src/per/adc.h **** {
  25:../../libdaisy/src/per/adc.h ****     /** Which pin to use for multiplexing */
  26:../../libdaisy/src/per/adc.h ****     enum MuxPin
  27:../../libdaisy/src/per/adc.h ****     {
  28:../../libdaisy/src/per/adc.h ****         MUX_SEL_0,    /**< & */
  29:../../libdaisy/src/per/adc.h ****         MUX_SEL_1,    /**< & */
  30:../../libdaisy/src/per/adc.h ****         MUX_SEL_2,    /**< & */
  31:../../libdaisy/src/per/adc.h ****         MUX_SEL_LAST, /**< & */
  32:../../libdaisy/src/per/adc.h ****     };
  33:../../libdaisy/src/per/adc.h **** 
  34:../../libdaisy/src/per/adc.h ****     /** Initializes a single ADC pin as an ADC. 
  35:../../libdaisy/src/per/adc.h ****     \param pin Pin to init.
  36:../../libdaisy/src/per/adc.h ****      */
  37:../../libdaisy/src/per/adc.h ****     void InitSingle(dsy_gpio_pin pin);
  38:../../libdaisy/src/per/adc.h **** 
  39:../../libdaisy/src/per/adc.h ****     /** 
ARM GAS  /tmp/ccmhSQ6q.s 			page 14


  40:../../libdaisy/src/per/adc.h ****     Initializes a single ADC pin as a Multiplexed ADC.
  41:../../libdaisy/src/per/adc.h ****     Requires a CD405X Multiplexer connected to the pin.
  42:../../libdaisy/src/per/adc.h ****     You only need to supply the mux pins that are required,
  43:../../libdaisy/src/per/adc.h ****     e.g. a 4052 mux would only require mux_0 and mux_1.
  44:../../libdaisy/src/per/adc.h ****     Internal Callbacks handle the pin addressing.
  45:../../libdaisy/src/per/adc.h ****     \param mux_channels must be 1-8
  46:../../libdaisy/src/per/adc.h ****     \param mux_0 First mux pin
  47:../../libdaisy/src/per/adc.h ****     \param mux_1 Second mux pin
  48:../../libdaisy/src/per/adc.h ****     \param mux_2 Third mux pin
  49:../../libdaisy/src/per/adc.h ****     \param adc_pin &
  50:../../libdaisy/src/per/adc.h ****     */
  51:../../libdaisy/src/per/adc.h ****     void InitMux(dsy_gpio_pin adc_pin,
  52:../../libdaisy/src/per/adc.h ****                  size_t       mux_channels,
  53:../../libdaisy/src/per/adc.h ****                  dsy_gpio_pin mux_0,
  54:../../libdaisy/src/per/adc.h ****                  dsy_gpio_pin mux_1 = {DSY_GPIOX, 0},
  55:../../libdaisy/src/per/adc.h ****                  dsy_gpio_pin mux_2 = {DSY_GPIOX, 0});
  56:../../libdaisy/src/per/adc.h **** 
  57:../../libdaisy/src/per/adc.h ****     dsy_gpio pin_;                   /**< & */
  58:../../libdaisy/src/per/adc.h ****     dsy_gpio mux_pin_[MUX_SEL_LAST]; /**< & */
  59:../../libdaisy/src/per/adc.h ****     uint8_t  mux_channels_;          /**< & */
  60:../../libdaisy/src/per/adc.h **** };
  61:../../libdaisy/src/per/adc.h **** 
  62:../../libdaisy/src/per/adc.h **** /**
  63:../../libdaisy/src/per/adc.h ****    Handler for analog to digital conversion
  64:../../libdaisy/src/per/adc.h **** */
  65:../../libdaisy/src/per/adc.h **** class AdcHandle
  66:../../libdaisy/src/per/adc.h **** {
  67:../../libdaisy/src/per/adc.h ****   public:
  68:../../libdaisy/src/per/adc.h ****     /** Supported oversampling amounts */
  69:../../libdaisy/src/per/adc.h ****     enum OverSampling
  70:../../libdaisy/src/per/adc.h ****     {
  71:../../libdaisy/src/per/adc.h ****         OVS_NONE, /**< & */
  72:../../libdaisy/src/per/adc.h ****         OVS_4,    /**< & */
  73:../../libdaisy/src/per/adc.h ****         OVS_8,    /**< & */
  74:../../libdaisy/src/per/adc.h ****         OVS_16,   /**< & */
  75:../../libdaisy/src/per/adc.h ****         OVS_32,   /**< & */
  76:../../libdaisy/src/per/adc.h ****         OVS_64,   /**< & */
  77:../../libdaisy/src/per/adc.h ****         OVS_128,  /**< & */
  78:../../libdaisy/src/per/adc.h ****         OVS_256,  /**< & */
  79:../../libdaisy/src/per/adc.h ****         OVS_512,  /**< & */
  80:../../libdaisy/src/per/adc.h ****         OVS_1024, /**< & */
  81:../../libdaisy/src/per/adc.h ****         OVS_LAST, /**< & */
  82:../../libdaisy/src/per/adc.h ****     };
  83:../../libdaisy/src/per/adc.h **** 
  84:../../libdaisy/src/per/adc.h ****     AdcHandle() {}
  85:../../libdaisy/src/per/adc.h ****     ~AdcHandle() {}
 241              		.loc 15 85 5 is_stmt 1 view .LVU44
 242              		.loc 15 85 5 is_stmt 0 view .LVU45
 243              	.LBE465:
 244              	.LBB466:
 245              	.LBI466:
 246              		.file 16 "../../libdaisy/src/hid/audio.h"
   1:../../libdaisy/src/hid/audio.h **** #ifndef DSY_AUDIO_H
   2:../../libdaisy/src/hid/audio.h **** #define DSY_AUDIO_H /**< & */
   3:../../libdaisy/src/hid/audio.h **** 
   4:../../libdaisy/src/hid/audio.h **** #include "per/sai.h"
   5:../../libdaisy/src/hid/audio.h **** 
ARM GAS  /tmp/ccmhSQ6q.s 			page 15


   6:../../libdaisy/src/hid/audio.h **** namespace daisy
   7:../../libdaisy/src/hid/audio.h **** {
   8:../../libdaisy/src/hid/audio.h **** class AudioHandle
   9:../../libdaisy/src/hid/audio.h **** {
  10:../../libdaisy/src/hid/audio.h ****   public:
  11:../../libdaisy/src/hid/audio.h ****     /** Manually configurable details about the Audio Engine */
  12:../../libdaisy/src/hid/audio.h ****     /** TODO: Figure out how to get samplerate in here. */
  13:../../libdaisy/src/hid/audio.h ****     struct Config
  14:../../libdaisy/src/hid/audio.h ****     {
  15:../../libdaisy/src/hid/audio.h ****         size_t                        blocksize;
  16:../../libdaisy/src/hid/audio.h ****         SaiHandle::Config::SampleRate samplerate;
  17:../../libdaisy/src/hid/audio.h ****         float                         postgain;
  18:../../libdaisy/src/hid/audio.h ****     };
  19:../../libdaisy/src/hid/audio.h **** 
  20:../../libdaisy/src/hid/audio.h ****     enum class Result
  21:../../libdaisy/src/hid/audio.h ****     {
  22:../../libdaisy/src/hid/audio.h ****         OK,
  23:../../libdaisy/src/hid/audio.h ****         ERR,
  24:../../libdaisy/src/hid/audio.h ****     };
  25:../../libdaisy/src/hid/audio.h **** 
  26:../../libdaisy/src/hid/audio.h ****     /** Non-Interleaving input buffer
  27:../../libdaisy/src/hid/audio.h ****      * Buffer arranged by float[chn][sample] 
  28:../../libdaisy/src/hid/audio.h ****      * const so that the user can't modify the input
  29:../../libdaisy/src/hid/audio.h ****     */
  30:../../libdaisy/src/hid/audio.h ****     typedef const float* const* InputBuffer;
  31:../../libdaisy/src/hid/audio.h **** 
  32:../../libdaisy/src/hid/audio.h ****     /** Non-Interleaving output buffer
  33:../../libdaisy/src/hid/audio.h ****      * Arranged by float[chn][sample] 
  34:../../libdaisy/src/hid/audio.h ****     */
  35:../../libdaisy/src/hid/audio.h ****     typedef float** OutputBuffer;
  36:../../libdaisy/src/hid/audio.h **** 
  37:../../libdaisy/src/hid/audio.h ****     /** Type for a Non-Interleaving audio callback 
  38:../../libdaisy/src/hid/audio.h ****    * Non-Interleaving audio callbacks in daisy will be of this type
  39:../../libdaisy/src/hid/audio.h ****   */
  40:../../libdaisy/src/hid/audio.h ****     typedef void (*AudioCallback)(InputBuffer  in,
  41:../../libdaisy/src/hid/audio.h ****                                   OutputBuffer out,
  42:../../libdaisy/src/hid/audio.h ****                                   size_t       size);
  43:../../libdaisy/src/hid/audio.h **** 
  44:../../libdaisy/src/hid/audio.h ****     /** Interleaving Input buffer
  45:../../libdaisy/src/hid/audio.h ****      ** audio is prepared as { L0, R0, L1, R1, . . . LN, RN }]
  46:../../libdaisy/src/hid/audio.h ****      ** this is const, as the user shouldn't modify it
  47:../../libdaisy/src/hid/audio.h ****     */
  48:../../libdaisy/src/hid/audio.h ****     typedef const float* InterleavingInputBuffer;
  49:../../libdaisy/src/hid/audio.h **** 
  50:../../libdaisy/src/hid/audio.h ****     /** Interleaving Output buffer 
  51:../../libdaisy/src/hid/audio.h ****      ** audio is prepared as { L0, R0, L1, R1, . . . LN, RN }
  52:../../libdaisy/src/hid/audio.h ****     */
  53:../../libdaisy/src/hid/audio.h ****     typedef float* InterleavingOutputBuffer;
  54:../../libdaisy/src/hid/audio.h **** 
  55:../../libdaisy/src/hid/audio.h ****     /** Interleaving Audio Callback 
  56:../../libdaisy/src/hid/audio.h ****    * Interleaving audio callbacks in daisy must be of this type
  57:../../libdaisy/src/hid/audio.h ****   */
  58:../../libdaisy/src/hid/audio.h ****     typedef void (*InterleavingAudioCallback)(InterleavingInputBuffer  in,
  59:../../libdaisy/src/hid/audio.h ****                                               InterleavingOutputBuffer out,
  60:../../libdaisy/src/hid/audio.h ****                                               size_t                   size);
  61:../../libdaisy/src/hid/audio.h **** 
  62:../../libdaisy/src/hid/audio.h ****     AudioHandle() : pimpl_(nullptr) {}
ARM GAS  /tmp/ccmhSQ6q.s 			page 16


  63:../../libdaisy/src/hid/audio.h ****     ~AudioHandle() {}
 247              		.loc 16 63 5 is_stmt 1 view .LVU46
 248              		.loc 16 63 5 is_stmt 0 view .LVU47
 249              	.LBE466:
 250              	.LBE462:
 251              		.loc 6 36 18 view .LVU48
 252 0000 7047     		bx	lr
 253              		.cfi_endproc
 254              	.LFE4216:
 256              		.weak	_ZN5daisy8DaisyPodD1Ev
 257              		.thumb_set _ZN5daisy8DaisyPodD1Ev,_ZN5daisy8DaisyPodD2Ev
 258 0002 00BF     		.section	.text._Z11NextSamplesRf,"ax",%progbits
 259              		.align	1
 260              		.p2align 2,,3
 261              		.global	_Z11NextSamplesRf
 262              		.syntax unified
 263              		.thumb
 264              		.thumb_func
 265              		.fpu fpv5-d16
 267              	_Z11NextSamplesRf:
 268              	.LVL5:
 269              	.LFB4219:
 270              		.file 17 "SynthVoice.cpp"
   1:SynthVoice.cpp **** #include "daisysp.h"
   2:SynthVoice.cpp **** #include "daisy_pod.h"
   3:SynthVoice.cpp **** 
   4:SynthVoice.cpp **** using namespace daisysp;
   5:SynthVoice.cpp **** using namespace daisy;
   6:SynthVoice.cpp **** 
   7:SynthVoice.cpp **** static DaisyPod   pod;
   8:SynthVoice.cpp **** static Oscillator osc, lfo;
   9:SynthVoice.cpp **** static MoogLadder flt;
  10:SynthVoice.cpp **** static AdEnv      ad;
  11:SynthVoice.cpp **** static Parameter  pitchParam, cutoffParam, lfoParam;
  12:SynthVoice.cpp **** 
  13:SynthVoice.cpp **** int   wave, mode;
  14:SynthVoice.cpp **** float vibrato, oscFreq, lfoFreq, lfoAmp, attack, release, cutoff;
  15:SynthVoice.cpp **** float oldk1, oldk2, k1, k2;
  16:SynthVoice.cpp **** bool  selfCycle;
  17:SynthVoice.cpp **** 
  18:SynthVoice.cpp **** void ConditionalParameter(float  oldVal,
  19:SynthVoice.cpp ****                           float  newVal,
  20:SynthVoice.cpp ****                           float &param,
  21:SynthVoice.cpp ****                           float  update);
  22:SynthVoice.cpp **** 
  23:SynthVoice.cpp **** void Controls();
  24:SynthVoice.cpp **** 
  25:SynthVoice.cpp **** void NextSamples(float &sig)
  26:SynthVoice.cpp **** {
 271              		.loc 17 26 1 is_stmt 1 view -0
 272              		.cfi_startproc
 273              		@ args = 0, pretend = 0, frame = 0
 274              		@ frame_needed = 0, uses_anonymous_args = 0
  27:SynthVoice.cpp ****     float ad_out = ad.Process();
 275              		.loc 17 27 5 view .LVU50
  26:SynthVoice.cpp ****     float ad_out = ad.Process();
 276              		.loc 17 26 1 is_stmt 0 view .LVU51
ARM GAS  /tmp/ccmhSQ6q.s 			page 17


 277 0000 38B5     		push	{r3, r4, r5, lr}
 278              		.cfi_def_cfa_offset 16
 279              		.cfi_offset 3, -16
 280              		.cfi_offset 4, -12
 281              		.cfi_offset 5, -8
 282              		.cfi_offset 14, -4
 283 0002 0446     		mov	r4, r0
 284              		.loc 17 27 30 view .LVU52
 285 0004 1548     		ldr	r0, .L9
 286              	.LVL6:
 287              	.LBB467:
 288              	.LBB468:
  17:../../DaisySP/Source/Synthesis/oscillator.h ****     /** Choices for output waveforms, POLYBLEP are appropriately labeled. Others are naive forms.
  18:../../DaisySP/Source/Synthesis/oscillator.h ****     */
  19:../../DaisySP/Source/Synthesis/oscillator.h ****     enum
  20:../../DaisySP/Source/Synthesis/oscillator.h ****     {
  21:../../DaisySP/Source/Synthesis/oscillator.h ****         WAVE_SIN,
  22:../../DaisySP/Source/Synthesis/oscillator.h ****         WAVE_TRI,
  23:../../DaisySP/Source/Synthesis/oscillator.h ****         WAVE_SAW,
  24:../../DaisySP/Source/Synthesis/oscillator.h ****         WAVE_RAMP,
  25:../../DaisySP/Source/Synthesis/oscillator.h ****         WAVE_SQUARE,
  26:../../DaisySP/Source/Synthesis/oscillator.h ****         WAVE_POLYBLEP_TRI,
  27:../../DaisySP/Source/Synthesis/oscillator.h ****         WAVE_POLYBLEP_SAW,
  28:../../DaisySP/Source/Synthesis/oscillator.h ****         WAVE_POLYBLEP_SQUARE,
  29:../../DaisySP/Source/Synthesis/oscillator.h ****         WAVE_LAST,
  30:../../DaisySP/Source/Synthesis/oscillator.h ****     };
  31:../../DaisySP/Source/Synthesis/oscillator.h **** 
  32:../../DaisySP/Source/Synthesis/oscillator.h **** 
  33:../../DaisySP/Source/Synthesis/oscillator.h ****     /** Initializes the Oscillator
  34:../../DaisySP/Source/Synthesis/oscillator.h **** 
  35:../../DaisySP/Source/Synthesis/oscillator.h ****         \param sample_rate - sample rate of the audio engine being run, and the frequency that the 
  36:../../DaisySP/Source/Synthesis/oscillator.h **** 
  37:../../DaisySP/Source/Synthesis/oscillator.h ****         Defaults:
  38:../../DaisySP/Source/Synthesis/oscillator.h ****         - freq_ = 100 Hz
  39:../../DaisySP/Source/Synthesis/oscillator.h ****         - amp_ = 0.5
  40:../../DaisySP/Source/Synthesis/oscillator.h ****         - waveform_ = sine wave.
  41:../../DaisySP/Source/Synthesis/oscillator.h ****     */
  42:../../DaisySP/Source/Synthesis/oscillator.h ****     void Init(float sample_rate)
  43:../../DaisySP/Source/Synthesis/oscillator.h ****     {
  44:../../DaisySP/Source/Synthesis/oscillator.h ****         sr_        = sample_rate;
  45:../../DaisySP/Source/Synthesis/oscillator.h ****         sr_recip_  = 1.0f / sample_rate;
  46:../../DaisySP/Source/Synthesis/oscillator.h ****         freq_      = 100.0f;
  47:../../DaisySP/Source/Synthesis/oscillator.h ****         amp_       = 0.5f;
  48:../../DaisySP/Source/Synthesis/oscillator.h ****         phase_     = 0.0f;
  49:../../DaisySP/Source/Synthesis/oscillator.h ****         phase_inc_ = CalcPhaseInc(freq_);
  50:../../DaisySP/Source/Synthesis/oscillator.h ****         waveform_  = WAVE_SIN;
  51:../../DaisySP/Source/Synthesis/oscillator.h ****         eoc_       = true;
  52:../../DaisySP/Source/Synthesis/oscillator.h ****         eor_       = true;
  53:../../DaisySP/Source/Synthesis/oscillator.h ****     }
  54:../../DaisySP/Source/Synthesis/oscillator.h **** 
  55:../../DaisySP/Source/Synthesis/oscillator.h **** 
  56:../../DaisySP/Source/Synthesis/oscillator.h ****     /** Changes the frequency of the Oscillator, and recalculates phase increment.
  57:../../DaisySP/Source/Synthesis/oscillator.h ****     */
  58:../../DaisySP/Source/Synthesis/oscillator.h ****     inline void SetFreq(const float f)
  59:../../DaisySP/Source/Synthesis/oscillator.h ****     {
  60:../../DaisySP/Source/Synthesis/oscillator.h ****         freq_      = f;
 289              		.loc 2 60 20 view .LVU53
ARM GAS  /tmp/ccmhSQ6q.s 			page 18


 290 0006 164D     		ldr	r5, .L9+4
 291              	.LBE468:
 292              	.LBE467:
  26:SynthVoice.cpp ****     float ad_out = ad.Process();
 293              		.loc 17 26 1 view .LVU54
 294 0008 2DED028B 		vpush.64	{d8}
 295              		.cfi_def_cfa_offset 24
 296              		.cfi_offset 80, -24
 297              		.cfi_offset 81, -20
 298              		.loc 17 27 30 view .LVU55
 299 000c FFF7FEFF 		bl	_ZN7daisysp5AdEnv7ProcessEv
 300              	.LVL7:
  28:SynthVoice.cpp ****     vibrato      = lfo.Process();
 301              		.loc 17 28 31 view .LVU56
 302 0010 1448     		ldr	r0, .L9+8
  27:SynthVoice.cpp ****     vibrato      = lfo.Process();
 303              		.loc 17 27 30 view .LVU57
 304 0012 B0EE408A 		vmov.f32	s16, s0
 305              	.LVL8:
 306              		.loc 17 28 5 is_stmt 1 view .LVU58
 307              		.loc 17 28 31 is_stmt 0 view .LVU59
 308 0016 FFF7FEFF 		bl	_ZN7daisysp10Oscillator7ProcessEv
 309              	.LVL9:
  29:SynthVoice.cpp **** 
  30:SynthVoice.cpp ****     osc.SetFreq(oscFreq + vibrato);
 310              		.loc 17 30 16 view .LVU60
 311 001a 134A     		ldr	r2, .L9+12
 312              	.LBB472:
 313              	.LBB469:
  61:../../DaisySP/Source/Synthesis/oscillator.h ****         phase_inc_ = CalcPhaseInc(f);
 314              		.loc 2 61 34 view .LVU61
 315 001c 2846     		mov	r0, r5
 316              	.LBE469:
 317              	.LBE472:
  28:SynthVoice.cpp **** 
 318              		.loc 17 28 18 view .LVU62
 319 001e 134B     		ldr	r3, .L9+16
 320              		.loc 17 30 16 view .LVU63
 321 0020 D2ED007A 		vldr.32	s15, [r2]
  28:SynthVoice.cpp **** 
 322              		.loc 17 28 18 view .LVU64
 323 0024 83ED000A 		vstr.32	s0, [r3]
 324              		.loc 17 30 5 is_stmt 1 view .LVU65
 325              	.LVL10:
 326              		.loc 17 30 16 is_stmt 0 view .LVU66
 327 0028 70EE277A 		vadd.f32	s15, s0, s15
 328              	.LVL11:
 329              	.LBB473:
 330              	.LBI467:
  58:../../DaisySP/Source/Synthesis/oscillator.h ****     {
 331              		.loc 2 58 17 is_stmt 1 view .LVU67
 332              	.LBB470:
  60:../../DaisySP/Source/Synthesis/oscillator.h ****         phase_inc_ = CalcPhaseInc(f);
 333              		.loc 2 60 9 view .LVU68
 334              		.loc 2 61 34 is_stmt 0 view .LVU69
 335 002c B0EE670A 		vmov.f32	s0, s15
  60:../../DaisySP/Source/Synthesis/oscillator.h ****         phase_inc_ = CalcPhaseInc(f);
ARM GAS  /tmp/ccmhSQ6q.s 			page 19


 336              		.loc 2 60 20 view .LVU70
 337 0030 C5ED027A 		vstr.32	s15, [r5, #8]
 338              		.loc 2 61 9 is_stmt 1 view .LVU71
 339              		.loc 2 61 34 is_stmt 0 view .LVU72
 340 0034 FFF7FEFF 		bl	_ZN7daisysp10Oscillator12CalcPhaseIncEf
 341              	.LVL12:
 342              		.loc 2 61 34 view .LVU73
 343              	.LBE470:
 344              	.LBE473:
  31:SynthVoice.cpp **** 
  32:SynthVoice.cpp ****     sig = osc.Process();
 345              		.loc 17 32 22 view .LVU74
 346 0038 2846     		mov	r0, r5
 347              	.LBB474:
 348              	.LBB471:
 349              		.loc 2 61 20 view .LVU75
 350 003a 85ED060A 		vstr.32	s0, [r5, #24]
 351              	.LVL13:
 352              		.loc 2 61 20 view .LVU76
 353              	.LBE471:
 354              	.LBE474:
 355              		.loc 17 32 5 is_stmt 1 view .LVU77
 356              		.loc 17 32 22 is_stmt 0 view .LVU78
 357 003e FFF7FEFF 		bl	_ZN7daisysp10Oscillator7ProcessEv
 358              	.LVL14:
  33:SynthVoice.cpp ****     sig = flt.Process(sig);
 359              		.loc 17 33 22 view .LVU79
 360 0042 0B48     		ldr	r0, .L9+20
  32:SynthVoice.cpp ****     sig = flt.Process(sig);
 361              		.loc 17 32 9 view .LVU80
 362 0044 84ED000A 		vstr.32	s0, [r4]
 363              		.loc 17 33 5 is_stmt 1 view .LVU81
 364              		.loc 17 33 22 is_stmt 0 view .LVU82
 365 0048 FFF7FEFF 		bl	_ZN7daisysp10MoogLadder7ProcessEf
 366              	.LVL15:
  34:SynthVoice.cpp ****     sig *= ad_out;
 367              		.loc 17 34 5 is_stmt 1 view .LVU83
 368              		.loc 17 34 9 is_stmt 0 view .LVU84
 369 004c 20EE080A 		vmul.f32	s0, s0, s16
  35:SynthVoice.cpp **** }
 370              		.loc 17 35 1 view .LVU85
 371 0050 BDEC028B 		vldm	sp!, {d8}
 372              		.cfi_restore 80
 373              		.cfi_restore 81
 374              		.cfi_def_cfa_offset 16
 375              	.LVL16:
  34:SynthVoice.cpp ****     sig *= ad_out;
 376              		.loc 17 34 9 view .LVU86
 377 0054 84ED000A 		vstr.32	s0, [r4]
 378              		.loc 17 35 1 view .LVU87
 379 0058 38BD     		pop	{r3, r4, r5, pc}
 380              	.LVL17:
 381              	.L10:
 382              		.loc 17 35 1 view .LVU88
 383 005a 00BF     		.align	2
 384              	.L9:
 385 005c 00000000 		.word	.LANCHOR0
ARM GAS  /tmp/ccmhSQ6q.s 			page 20


 386 0060 00000000 		.word	.LANCHOR4
 387 0064 00000000 		.word	.LANCHOR1
 388 0068 00000000 		.word	.LANCHOR3
 389 006c 00000000 		.word	.LANCHOR2
 390 0070 00000000 		.word	.LANCHOR5
 391              		.cfi_endproc
 392              	.LFE4219:
 394              		.section	.text.startup.main,"ax",%progbits
 395              		.align	1
 396              		.p2align 2,,3
 397              		.global	main
 398              		.syntax unified
 399              		.thumb
 400              		.thumb_func
 401              		.fpu fpv5-d16
 403              	main:
 404              	.LFB4221:
  36:SynthVoice.cpp **** 
  37:SynthVoice.cpp **** static void AudioCallback(AudioHandle::InterleavingInputBuffer  in,
  38:SynthVoice.cpp ****                           AudioHandle::InterleavingOutputBuffer out,
  39:SynthVoice.cpp ****                           size_t                                size)
  40:SynthVoice.cpp **** {
  41:SynthVoice.cpp ****     Controls();
  42:SynthVoice.cpp **** 
  43:SynthVoice.cpp ****     for(size_t i = 0; i < size; i += 2)
  44:SynthVoice.cpp ****     {
  45:SynthVoice.cpp ****         float sig;
  46:SynthVoice.cpp ****         NextSamples(sig);
  47:SynthVoice.cpp **** 
  48:SynthVoice.cpp ****         // left out
  49:SynthVoice.cpp ****         out[i] = sig;
  50:SynthVoice.cpp **** 
  51:SynthVoice.cpp ****         // right out
  52:SynthVoice.cpp ****         out[i + 1] = sig;
  53:SynthVoice.cpp ****     }
  54:SynthVoice.cpp **** }
  55:SynthVoice.cpp **** 
  56:SynthVoice.cpp **** int main(void)
  57:SynthVoice.cpp **** {
 405              		.loc 17 57 1 is_stmt 1 view -0
 406              		.cfi_startproc
 407              		@ args = 0, pretend = 0, frame = 32
 408              		@ frame_needed = 0, uses_anonymous_args = 0
  58:SynthVoice.cpp ****     // Set global variables
  59:SynthVoice.cpp ****     float sample_rate;
 409              		.loc 17 59 5 view .LVU90
  60:SynthVoice.cpp ****     mode    = 0;
 410              		.loc 17 60 5 view .LVU91
  57:SynthVoice.cpp ****     // Set global variables
 411              		.loc 17 57 1 is_stmt 0 view .LVU92
 412 0000 2DE9F04F 		push	{r4, r5, r6, r7, r8, r9, r10, fp, lr}
 413              		.cfi_def_cfa_offset 36
 414              		.cfi_offset 4, -36
 415              		.cfi_offset 5, -32
 416              		.cfi_offset 6, -28
 417              		.cfi_offset 7, -24
 418              		.cfi_offset 8, -20
ARM GAS  /tmp/ccmhSQ6q.s 			page 21


 419              		.cfi_offset 9, -16
 420              		.cfi_offset 10, -12
 421              		.cfi_offset 11, -8
 422              		.cfi_offset 14, -4
 423              		.loc 17 60 13 view .LVU93
 424 0004 7C48     		ldr	r0, .L14
 425 0006 4FF0000B 		mov	fp, #0
  61:SynthVoice.cpp ****     vibrato = 0.0f;
 426              		.loc 17 61 13 view .LVU94
 427 000a 4FF00008 		mov	r8, #0
  62:SynthVoice.cpp ****     oscFreq = 1000.0f;
  63:SynthVoice.cpp ****     oldk1 = oldk2 = 0;
  64:SynthVoice.cpp ****     k1 = k2   = 0;
  65:SynthVoice.cpp ****     attack    = .01f;
  66:SynthVoice.cpp ****     release   = .2f;
  67:SynthVoice.cpp ****     cutoff    = 10000;
  68:SynthVoice.cpp ****     lfoAmp    = 1.0f;
  69:SynthVoice.cpp ****     lfoFreq   = 0.1f;
  70:SynthVoice.cpp ****     selfCycle = false;
 428              		.loc 17 70 15 view .LVU95
 429 000e 7B4D     		ldr	r5, .L14+4
  61:SynthVoice.cpp ****     vibrato = 0.0f;
 430              		.loc 17 61 13 view .LVU96
 431 0010 7B4C     		ldr	r4, .L14+8
  71:SynthVoice.cpp **** 
  72:SynthVoice.cpp ****     //Init everything
  73:SynthVoice.cpp ****     pod.Init();
 432              		.loc 17 73 13 view .LVU97
 433 0012 5946     		mov	r1, fp
  63:SynthVoice.cpp ****     k1 = k2   = 0;
 434              		.loc 17 63 11 view .LVU98
 435 0014 7B4A     		ldr	r2, .L14+12
 436              	.LBB475:
 437              	.LBB476:
  62:../../DaisySP/Source/Synthesis/oscillator.h ****     }
  63:../../DaisySP/Source/Synthesis/oscillator.h **** 
  64:../../DaisySP/Source/Synthesis/oscillator.h **** 
  65:../../DaisySP/Source/Synthesis/oscillator.h ****     /** Sets the amplitude of the waveform.
  66:../../DaisySP/Source/Synthesis/oscillator.h ****     */
  67:../../DaisySP/Source/Synthesis/oscillator.h ****     inline void SetAmp(const float a) { amp_ = a; }
  68:../../DaisySP/Source/Synthesis/oscillator.h ****     /** Sets the waveform to be synthesized by the Process() function.
  69:../../DaisySP/Source/Synthesis/oscillator.h ****     */
  70:../../DaisySP/Source/Synthesis/oscillator.h ****     inline void SetWaveform(const uint8_t wf)
  71:../../DaisySP/Source/Synthesis/oscillator.h ****     {
  72:../../DaisySP/Source/Synthesis/oscillator.h ****         waveform_ = wf < WAVE_LAST ? wf : WAVE_SIN;
 438              		.loc 2 72 19 view .LVU99
 439 0016 4FF00209 		mov	r9, #2
 440              	.LBE476:
 441              	.LBE475:
  64:SynthVoice.cpp ****     attack    = .01f;
 442              		.loc 17 64 8 view .LVU100
 443 001a 7B4B     		ldr	r3, .L14+16
  68:SynthVoice.cpp ****     lfoFreq   = 0.1f;
 444              		.loc 17 68 15 view .LVU101
 445 001c DFF85CC2 		ldr	ip, .L14+132
  63:SynthVoice.cpp ****     k1 = k2   = 0;
 446              		.loc 17 63 19 view .LVU102
ARM GAS  /tmp/ccmhSQ6q.s 			page 22


 447 0020 7A4F     		ldr	r7, .L14+20
  64:SynthVoice.cpp ****     attack    = .01f;
 448              		.loc 17 64 15 view .LVU103
 449 0022 7B4E     		ldr	r6, .L14+24
  74:SynthVoice.cpp ****     sample_rate = pod.AudioSampleRate();
  75:SynthVoice.cpp ****     osc.Init(sample_rate);
  76:SynthVoice.cpp ****     flt.Init(sample_rate);
  77:SynthVoice.cpp ****     ad.Init(sample_rate);
 450              		.loc 17 77 12 view .LVU104
 451 0024 DFF858A2 		ldr	r10, .L14+136
  57:SynthVoice.cpp ****     // Set global variables
 452              		.loc 17 57 1 view .LVU105
 453 0028 2DED0A8B 		vpush.64	{d8, d9, d10, d11, d12}
 454              		.cfi_def_cfa_offset 76
 455              		.cfi_offset 80, -76
 456              		.cfi_offset 81, -72
 457              		.cfi_offset 82, -68
 458              		.cfi_offset 83, -64
 459              		.cfi_offset 84, -60
 460              		.cfi_offset 85, -56
 461              		.cfi_offset 86, -52
 462              		.cfi_offset 87, -48
 463              		.cfi_offset 88, -44
 464              		.cfi_offset 89, -40
  68:SynthVoice.cpp ****     lfoFreq   = 0.1f;
 465              		.loc 17 68 15 view .LVU106
 466 002c F7EE008A 		vmov.f32	s17, #1.0e+0
  60:SynthVoice.cpp ****     vibrato = 0.0f;
 467              		.loc 17 60 13 view .LVU107
 468 0030 C0F800B0 		str	fp, [r0]
  61:SynthVoice.cpp ****     oscFreq = 1000.0f;
 469              		.loc 17 61 5 is_stmt 1 view .LVU108
  62:SynthVoice.cpp ****     oldk1 = oldk2 = 0;
 470              		.loc 17 62 13 is_stmt 0 view .LVU109
 471 0034 DFED77AA 		vldr.32	s21, .L14+28
  57:SynthVoice.cpp ****     // Set global variables
 472              		.loc 17 57 1 view .LVU110
 473 0038 89B0     		sub	sp, sp, #36
 474              		.cfi_def_cfa_offset 112
  62:SynthVoice.cpp ****     oldk1 = oldk2 = 0;
 475              		.loc 17 62 13 view .LVU111
 476 003a 7748     		ldr	r0, .L14+32
 477              	.LBB479:
 478              	.LBB480:
  47:../../DaisySP/Source/Synthesis/oscillator.h ****         phase_     = 0.0f;
 479              		.loc 2 47 20 view .LVU112
 480 003c F6EE009A 		vmov.f32	s19, #5.0e-1
 481              	.LBE480:
 482              	.LBE479:
  69:SynthVoice.cpp ****     selfCycle = false;
 483              		.loc 17 69 15 view .LVU113
 484 0040 9FED76AA 		vldr.32	s20, .L14+36
  70:SynthVoice.cpp **** 
 485              		.loc 17 70 15 view .LVU114
 486 0044 85F800B0 		strb	fp, [r5]
  61:SynthVoice.cpp ****     oscFreq = 1000.0f;
 487              		.loc 17 61 13 view .LVU115
ARM GAS  /tmp/ccmhSQ6q.s 			page 23


 488 0048 C4F80080 		str	r8, [r4]	@ float
  62:SynthVoice.cpp ****     oldk1 = oldk2 = 0;
 489              		.loc 17 62 5 is_stmt 1 view .LVU116
  63:SynthVoice.cpp ****     k1 = k2   = 0;
 490              		.loc 17 63 11 is_stmt 0 view .LVU117
 491 004c C2F80080 		str	r8, [r2]	@ float
  64:SynthVoice.cpp ****     attack    = .01f;
 492              		.loc 17 64 8 view .LVU118
 493 0050 C3F80080 		str	r8, [r3]	@ float
  67:SynthVoice.cpp ****     lfoAmp    = 1.0f;
 494              		.loc 17 67 15 view .LVU119
 495 0054 724A     		ldr	r2, .L14+40
  69:SynthVoice.cpp ****     selfCycle = false;
 496              		.loc 17 69 15 view .LVU120
 497 0056 734B     		ldr	r3, .L14+44
  65:SynthVoice.cpp ****     release   = .2f;
 498              		.loc 17 65 15 view .LVU121
 499 0058 734D     		ldr	r5, .L14+48
 500 005a DFED74BA 		vldr.32	s23, .L14+52
  66:SynthVoice.cpp ****     cutoff    = 10000;
 501              		.loc 17 66 15 view .LVU122
 502 005e 744C     		ldr	r4, .L14+56
 503 0060 9FED74BA 		vldr.32	s22, .L14+60
  67:SynthVoice.cpp ****     lfoAmp    = 1.0f;
 504              		.loc 17 67 15 view .LVU123
 505 0064 9FED74CA 		vldr.32	s24, .L14+64
  62:SynthVoice.cpp ****     oldk1 = oldk2 = 0;
 506              		.loc 17 62 13 view .LVU124
 507 0068 C0ED00AA 		vstr.32	s21, [r0]
  63:SynthVoice.cpp ****     k1 = k2   = 0;
 508              		.loc 17 63 5 is_stmt 1 view .LVU125
  64:SynthVoice.cpp ****     attack    = .01f;
 509              		.loc 17 64 5 view .LVU126
  65:SynthVoice.cpp ****     release   = .2f;
 510              		.loc 17 65 5 view .LVU127
  73:SynthVoice.cpp ****     sample_rate = pod.AudioSampleRate();
 511              		.loc 17 73 13 is_stmt 0 view .LVU128
 512 006c 7348     		ldr	r0, .L14+68
  68:SynthVoice.cpp ****     lfoFreq   = 0.1f;
 513              		.loc 17 68 15 view .LVU129
 514 006e CCED008A 		vstr.32	s17, [ip]
  67:SynthVoice.cpp ****     lfoAmp    = 1.0f;
 515              		.loc 17 67 15 view .LVU130
 516 0072 82ED00CA 		vstr.32	s24, [r2]
  69:SynthVoice.cpp ****     selfCycle = false;
 517              		.loc 17 69 15 view .LVU131
 518 0076 83ED00AA 		vstr.32	s20, [r3]
  63:SynthVoice.cpp ****     k1 = k2   = 0;
 519              		.loc 17 63 19 view .LVU132
 520 007a C7F80080 		str	r8, [r7]	@ float
  64:SynthVoice.cpp ****     attack    = .01f;
 521              		.loc 17 64 15 view .LVU133
 522 007e C6F80080 		str	r8, [r6]	@ float
  65:SynthVoice.cpp ****     release   = .2f;
 523              		.loc 17 65 15 view .LVU134
 524 0082 C5ED00BA 		vstr.32	s23, [r5]
  66:SynthVoice.cpp ****     cutoff    = 10000;
ARM GAS  /tmp/ccmhSQ6q.s 			page 24


 525              		.loc 17 66 5 is_stmt 1 view .LVU135
  78:SynthVoice.cpp ****     lfo.Init(sample_rate);
  79:SynthVoice.cpp **** 
  80:SynthVoice.cpp ****     //Set filter parameters
  81:SynthVoice.cpp ****     flt.SetFreq(10000);
  82:SynthVoice.cpp ****     flt.SetRes(0.8);
  83:SynthVoice.cpp **** 
  84:SynthVoice.cpp ****     // Set parameters for oscillator
  85:SynthVoice.cpp ****     osc.SetWaveform(osc.WAVE_SAW);
  86:SynthVoice.cpp ****     wave = osc.WAVE_SAW;
  87:SynthVoice.cpp ****     osc.SetFreq(440);
  88:SynthVoice.cpp ****     osc.SetAmp(1);
  89:SynthVoice.cpp **** 
  90:SynthVoice.cpp ****     // Set parameters for lfo
  91:SynthVoice.cpp ****     lfo.SetWaveform(osc.WAVE_SIN);
  92:SynthVoice.cpp ****     lfo.SetFreq(0.1);
  93:SynthVoice.cpp ****     lfo.SetAmp(1);
  94:SynthVoice.cpp **** 
  95:SynthVoice.cpp ****     //Set envelope parameters
  96:SynthVoice.cpp ****     ad.SetTime(ADENV_SEG_ATTACK, 0.01);
  97:SynthVoice.cpp ****     ad.SetTime(ADENV_SEG_DECAY, .2);
  98:SynthVoice.cpp ****     ad.SetMax(1);
  99:SynthVoice.cpp ****     ad.SetMin(0);
 100:SynthVoice.cpp ****     ad.SetCurve(0.5);
 101:SynthVoice.cpp **** 
 102:SynthVoice.cpp ****     //set parameter parameters
 103:SynthVoice.cpp ****     cutoffParam.Init(pod.knob1, 100, 20000, cutoffParam.LOGARITHMIC);
 526              		.loc 17 103 26 is_stmt 0 view .LVU136
 527 0086 6D46     		mov	r5, sp
  66:SynthVoice.cpp ****     cutoff    = 10000;
 528              		.loc 17 66 15 view .LVU137
 529 0088 84ED00BA 		vstr.32	s22, [r4]
  67:SynthVoice.cpp ****     lfoAmp    = 1.0f;
 530              		.loc 17 67 5 is_stmt 1 view .LVU138
  68:SynthVoice.cpp ****     lfoFreq   = 0.1f;
 531              		.loc 17 68 5 view .LVU139
  69:SynthVoice.cpp ****     selfCycle = false;
 532              		.loc 17 69 5 view .LVU140
  70:SynthVoice.cpp **** 
 533              		.loc 17 70 5 view .LVU141
  73:SynthVoice.cpp ****     sample_rate = pod.AudioSampleRate();
 534              		.loc 17 73 5 view .LVU142
  73:SynthVoice.cpp ****     sample_rate = pod.AudioSampleRate();
 535              		.loc 17 73 13 is_stmt 0 view .LVU143
 536 008c FFF7FEFF 		bl	_ZN5daisy8DaisyPod4InitEb
 537              	.LVL18:
  74:SynthVoice.cpp ****     osc.Init(sample_rate);
 538              		.loc 17 74 5 is_stmt 1 view .LVU144
  74:SynthVoice.cpp ****     osc.Init(sample_rate);
 539              		.loc 17 74 38 is_stmt 0 view .LVU145
 540 0090 6A48     		ldr	r0, .L14+68
 541 0092 FFF7FEFF 		bl	_ZN5daisy8DaisyPod15AudioSampleRateEv
 542              	.LVL19:
 543              	.LBB487:
 544              	.LBB481:
  45:../../DaisySP/Source/Synthesis/oscillator.h ****         freq_      = 100.0f;
 545              		.loc 2 45 27 view .LVU146
ARM GAS  /tmp/ccmhSQ6q.s 			page 25


 546 0096 C8EE80CA 		vdiv.f32	s25, s17, s0
  44:../../DaisySP/Source/Synthesis/oscillator.h ****         sr_recip_  = 1.0f / sample_rate;
 547              		.loc 2 44 20 view .LVU147
 548 009a 694F     		ldr	r7, .L14+72
  46:../../DaisySP/Source/Synthesis/oscillator.h ****         amp_       = 0.5f;
 549              		.loc 2 46 20 view .LVU148
 550 009c 9FED699A 		vldr.32	s18, .L14+76
  49:../../DaisySP/Source/Synthesis/oscillator.h ****         waveform_  = WAVE_SIN;
 551              		.loc 2 49 34 view .LVU149
 552 00a0 3846     		mov	r0, r7
  48:../../DaisySP/Source/Synthesis/oscillator.h ****         phase_inc_ = CalcPhaseInc(freq_);
 553              		.loc 2 48 20 view .LVU150
 554 00a2 C7F81480 		str	r8, [r7, #20]	@ float
  46:../../DaisySP/Source/Synthesis/oscillator.h ****         amp_       = 0.5f;
 555              		.loc 2 46 20 view .LVU151
 556 00a6 87ED029A 		vstr.32	s18, [r7, #8]
 557              	.LBE481:
 558              	.LBE487:
  74:SynthVoice.cpp ****     osc.Init(sample_rate);
 559              		.loc 17 74 38 view .LVU152
 560 00aa B0EE408A 		vmov.f32	s16, s0
 561              	.LVL20:
  75:SynthVoice.cpp ****     flt.Init(sample_rate);
 562              		.loc 17 75 5 is_stmt 1 view .LVU153
 563              	.LBB488:
 564              	.LBI479:
  42:../../DaisySP/Source/Synthesis/oscillator.h ****     {
 565              		.loc 2 42 10 view .LVU154
 566              	.LBB482:
  44:../../DaisySP/Source/Synthesis/oscillator.h ****         sr_recip_  = 1.0f / sample_rate;
 567              		.loc 2 44 9 view .LVU155
  47:../../DaisySP/Source/Synthesis/oscillator.h ****         phase_     = 0.0f;
 568              		.loc 2 47 20 is_stmt 0 view .LVU156
 569 00ae C7ED019A 		vstr.32	s19, [r7, #4]
  49:../../DaisySP/Source/Synthesis/oscillator.h ****         waveform_  = WAVE_SIN;
 570              		.loc 2 49 34 view .LVU157
 571 00b2 B0EE490A 		vmov.f32	s0, s18
 572              	.LVL21:
  49:../../DaisySP/Source/Synthesis/oscillator.h ****         waveform_  = WAVE_SIN;
 573              		.loc 2 49 34 view .LVU158
 574              	.LBE482:
 575              	.LBE488:
 576              	.LBB489:
 577              	.LBB490:
  44:../../DaisySP/Source/Synthesis/oscillator.h ****         sr_recip_  = 1.0f / sample_rate;
 578              		.loc 2 44 20 view .LVU159
 579 00b6 644E     		ldr	r6, .L14+80
 580              	.LBE490:
 581              	.LBE489:
 582              		.loc 17 103 26 view .LVU160
 583 00b8 644C     		ldr	r4, .L14+84
 584              	.LBB496:
 585              	.LBB483:
  44:../../DaisySP/Source/Synthesis/oscillator.h ****         sr_recip_  = 1.0f / sample_rate;
 586              		.loc 2 44 20 view .LVU161
 587 00ba 87ED038A 		vstr.32	s16, [r7, #12]
  45:../../DaisySP/Source/Synthesis/oscillator.h ****         freq_      = 100.0f;
ARM GAS  /tmp/ccmhSQ6q.s 			page 26


 588              		.loc 2 45 9 is_stmt 1 view .LVU162
  45:../../DaisySP/Source/Synthesis/oscillator.h ****         freq_      = 100.0f;
 589              		.loc 2 45 20 is_stmt 0 view .LVU163
 590 00be C7ED04CA 		vstr.32	s25, [r7, #16]
  46:../../DaisySP/Source/Synthesis/oscillator.h ****         amp_       = 0.5f;
 591              		.loc 2 46 9 is_stmt 1 view .LVU164
  47:../../DaisySP/Source/Synthesis/oscillator.h ****         phase_     = 0.0f;
 592              		.loc 2 47 9 view .LVU165
  48:../../DaisySP/Source/Synthesis/oscillator.h ****         phase_inc_ = CalcPhaseInc(freq_);
 593              		.loc 2 48 9 view .LVU166
  49:../../DaisySP/Source/Synthesis/oscillator.h ****         waveform_  = WAVE_SIN;
 594              		.loc 2 49 9 view .LVU167
  49:../../DaisySP/Source/Synthesis/oscillator.h ****         waveform_  = WAVE_SIN;
 595              		.loc 2 49 34 is_stmt 0 view .LVU168
 596 00c2 FFF7FEFF 		bl	_ZN7daisysp10Oscillator12CalcPhaseIncEf
 597              	.LVL22:
 598              	.LBE483:
 599              	.LBE496:
  76:SynthVoice.cpp ****     ad.Init(sample_rate);
 600              		.loc 17 76 13 view .LVU169
 601 00c6 624B     		ldr	r3, .L14+88
 602              	.LBB497:
 603              	.LBB484:
  49:../../DaisySP/Source/Synthesis/oscillator.h ****         waveform_  = WAVE_SIN;
 604              		.loc 2 49 34 view .LVU170
 605 00c8 F0EE407A 		vmov.f32	s15, s0
 606              	.LBE484:
 607              	.LBE497:
  76:SynthVoice.cpp ****     ad.Init(sample_rate);
 608              		.loc 17 76 13 view .LVU171
 609 00cc B0EE480A 		vmov.f32	s0, s16
 610              	.LBB498:
 611              	.LBB485:
  50:../../DaisySP/Source/Synthesis/oscillator.h ****         eoc_       = true;
 612              		.loc 2 50 20 view .LVU172
 613 00d0 87F800B0 		strb	fp, [r7]
 614              	.LBE485:
 615              	.LBE498:
  76:SynthVoice.cpp ****     ad.Init(sample_rate);
 616              		.loc 17 76 13 view .LVU173
 617 00d4 1846     		mov	r0, r3
 618              	.LBB499:
 619              	.LBB486:
  52:../../DaisySP/Source/Synthesis/oscillator.h ****     }
 620              		.loc 2 52 20 view .LVU174
 621 00d6 40F20113 		movw	r3, 257	@ movhi
  49:../../DaisySP/Source/Synthesis/oscillator.h ****         waveform_  = WAVE_SIN;
 622              		.loc 2 49 20 view .LVU175
 623 00da C7ED067A 		vstr.32	s15, [r7, #24]
  50:../../DaisySP/Source/Synthesis/oscillator.h ****         eoc_       = true;
 624              		.loc 2 50 9 is_stmt 1 view .LVU176
  51:../../DaisySP/Source/Synthesis/oscillator.h ****         eor_       = true;
 625              		.loc 2 51 9 view .LVU177
  52:../../DaisySP/Source/Synthesis/oscillator.h ****     }
 626              		.loc 2 52 9 view .LVU178
  52:../../DaisySP/Source/Synthesis/oscillator.h ****     }
 627              		.loc 2 52 20 is_stmt 0 view .LVU179
ARM GAS  /tmp/ccmhSQ6q.s 			page 27


 628 00de BB84     		strh	r3, [r7, #36]	@ movhi
 629              	.LVL23:
  52:../../DaisySP/Source/Synthesis/oscillator.h ****     }
 630              		.loc 2 52 20 view .LVU180
 631              	.LBE486:
 632              	.LBE499:
  76:SynthVoice.cpp ****     ad.Init(sample_rate);
 633              		.loc 17 76 5 is_stmt 1 view .LVU181
  76:SynthVoice.cpp ****     ad.Init(sample_rate);
 634              		.loc 17 76 13 is_stmt 0 view .LVU182
 635 00e0 FFF7FEFF 		bl	_ZN7daisysp10MoogLadder4InitEf
 636              	.LVL24:
  77:SynthVoice.cpp ****     lfo.Init(sample_rate);
 637              		.loc 17 77 5 is_stmt 1 view .LVU183
  77:SynthVoice.cpp ****     lfo.Init(sample_rate);
 638              		.loc 17 77 12 is_stmt 0 view .LVU184
 639 00e4 B0EE480A 		vmov.f32	s0, s16
 640 00e8 5046     		mov	r0, r10
 641 00ea FFF7FEFF 		bl	_ZN7daisysp5AdEnv4InitEf
 642              	.LVL25:
  78:SynthVoice.cpp **** 
 643              		.loc 17 78 5 is_stmt 1 view .LVU185
 644              	.LBB500:
 645              	.LBI489:
  42:../../DaisySP/Source/Synthesis/oscillator.h ****     {
 646              		.loc 2 42 10 view .LVU186
 647              	.LBB491:
  44:../../DaisySP/Source/Synthesis/oscillator.h ****         sr_recip_  = 1.0f / sample_rate;
 648              		.loc 2 44 9 view .LVU187
  49:../../DaisySP/Source/Synthesis/oscillator.h ****         waveform_  = WAVE_SIN;
 649              		.loc 2 49 34 is_stmt 0 view .LVU188
 650 00ee 3046     		mov	r0, r6
 651 00f0 B0EE490A 		vmov.f32	s0, s18
  45:../../DaisySP/Source/Synthesis/oscillator.h ****         freq_      = 100.0f;
 652              		.loc 2 45 20 view .LVU189
 653 00f4 C6ED04CA 		vstr.32	s25, [r6, #16]
  44:../../DaisySP/Source/Synthesis/oscillator.h ****         sr_recip_  = 1.0f / sample_rate;
 654              		.loc 2 44 20 view .LVU190
 655 00f8 86ED038A 		vstr.32	s16, [r6, #12]
  45:../../DaisySP/Source/Synthesis/oscillator.h ****         freq_      = 100.0f;
 656              		.loc 2 45 9 is_stmt 1 view .LVU191
  46:../../DaisySP/Source/Synthesis/oscillator.h ****         amp_       = 0.5f;
 657              		.loc 2 46 9 view .LVU192
  46:../../DaisySP/Source/Synthesis/oscillator.h ****         amp_       = 0.5f;
 658              		.loc 2 46 20 is_stmt 0 view .LVU193
 659 00fc 86ED029A 		vstr.32	s18, [r6, #8]
  47:../../DaisySP/Source/Synthesis/oscillator.h ****         phase_     = 0.0f;
 660              		.loc 2 47 9 is_stmt 1 view .LVU194
  47:../../DaisySP/Source/Synthesis/oscillator.h ****         phase_     = 0.0f;
 661              		.loc 2 47 20 is_stmt 0 view .LVU195
 662 0100 C6ED019A 		vstr.32	s19, [r6, #4]
  48:../../DaisySP/Source/Synthesis/oscillator.h ****         phase_inc_ = CalcPhaseInc(freq_);
 663              		.loc 2 48 9 is_stmt 1 view .LVU196
  48:../../DaisySP/Source/Synthesis/oscillator.h ****         phase_inc_ = CalcPhaseInc(freq_);
 664              		.loc 2 48 20 is_stmt 0 view .LVU197
 665 0104 C6F81480 		str	r8, [r6, #20]	@ float
  49:../../DaisySP/Source/Synthesis/oscillator.h ****         waveform_  = WAVE_SIN;
ARM GAS  /tmp/ccmhSQ6q.s 			page 28


 666              		.loc 2 49 9 is_stmt 1 view .LVU198
  49:../../DaisySP/Source/Synthesis/oscillator.h ****         waveform_  = WAVE_SIN;
 667              		.loc 2 49 34 is_stmt 0 view .LVU199
 668 0108 FFF7FEFF 		bl	_ZN7daisysp10Oscillator12CalcPhaseIncEf
 669              	.LVL26:
  52:../../DaisySP/Source/Synthesis/oscillator.h ****     }
 670              		.loc 2 52 20 view .LVU200
 671 010c 40F20112 		movw	r2, 257	@ movhi
 672              	.LBE491:
 673              	.LBE500:
 674              	.LBB501:
 675              	.LBB502:
  22:../../DaisySP/Source/Filters/moogladder.h ****     /** Initializes the MoogLadder module.
  23:../../DaisySP/Source/Filters/moogladder.h ****         sample_rate - The sample rate of the audio engine being run. 
  24:../../DaisySP/Source/Filters/moogladder.h ****     */
  25:../../DaisySP/Source/Filters/moogladder.h ****     void Init(float sample_rate);
  26:../../DaisySP/Source/Filters/moogladder.h **** 
  27:../../DaisySP/Source/Filters/moogladder.h **** 
  28:../../DaisySP/Source/Filters/moogladder.h ****     /** Processes the lowpass filter
  29:../../DaisySP/Source/Filters/moogladder.h ****     */
  30:../../DaisySP/Source/Filters/moogladder.h ****     float Process(float in);
  31:../../DaisySP/Source/Filters/moogladder.h **** 
  32:../../DaisySP/Source/Filters/moogladder.h ****     /** 
  33:../../DaisySP/Source/Filters/moogladder.h ****         Sets the cutoff frequency or half-way point of the filter.
  34:../../DaisySP/Source/Filters/moogladder.h ****         Arguments
  35:../../DaisySP/Source/Filters/moogladder.h ****         - freq - frequency value in Hz. Range: Any positive value.
  36:../../DaisySP/Source/Filters/moogladder.h ****     */
  37:../../DaisySP/Source/Filters/moogladder.h ****     inline void SetFreq(float freq) { freq_ = freq; }
 676              		.loc 3 37 45 view .LVU201
 677 0110 4F4B     		ldr	r3, .L14+88
 678              	.LBE502:
 679              	.LBE501:
 680              	.LBB505:
 681              	.LBB492:
  49:../../DaisySP/Source/Synthesis/oscillator.h ****         waveform_  = WAVE_SIN;
 682              		.loc 2 49 34 view .LVU202
 683 0112 F0EE407A 		vmov.f32	s15, s0
 684              	.LBE492:
 685              	.LBE505:
 686              	.LBB506:
 687              	.LBB507:
  60:../../DaisySP/Source/Synthesis/oscillator.h ****         phase_inc_ = CalcPhaseInc(f);
 688              		.loc 2 60 20 view .LVU203
 689 0116 9FED4F0A 		vldr.32	s0, .L14+92
 690              	.LBE507:
 691              	.LBE506:
 692              	.LBB512:
 693              	.LBB493:
  52:../../DaisySP/Source/Synthesis/oscillator.h ****     }
 694              		.loc 2 52 20 view .LVU204
 695 011a B284     		strh	r2, [r6, #36]	@ movhi
 696              	.LBE493:
 697              	.LBE512:
 698              	.LBB513:
 699              	.LBB508:
  61:../../DaisySP/Source/Synthesis/oscillator.h ****     }
 700              		.loc 2 61 34 view .LVU205
ARM GAS  /tmp/ccmhSQ6q.s 			page 29


 701 011c 3846     		mov	r0, r7
 702              	.LBE508:
 703              	.LBE513:
 704              	.LBB514:
 705              	.LBB515:
  38:../../DaisySP/Source/Filters/moogladder.h ****     /** 
  39:../../DaisySP/Source/Filters/moogladder.h ****         Sets the resonance of the filter.
  40:../../DaisySP/Source/Filters/moogladder.h ****     */
  41:../../DaisySP/Source/Filters/moogladder.h ****     inline void SetRes(float res) { res_ = res; }
 706              		.loc 3 41 42 view .LVU206
 707 011e 4E4A     		ldr	r2, .L14+96
 708              	.LBE515:
 709              	.LBE514:
 710              	.LBB518:
 711              	.LBB503:
  37:../../DaisySP/Source/Filters/moogladder.h ****     /** 
 712              		.loc 3 37 45 view .LVU207
 713 0120 83ED02CA 		vstr.32	s24, [r3, #8]
 714              	.LBE503:
 715              	.LBE518:
 716              	.LBB519:
 717              	.LBB516:
 718              		.loc 3 41 42 view .LVU208
 719 0124 5A60     		str	r2, [r3, #4]	@ float
 720              	.LBE516:
 721              	.LBE519:
  86:SynthVoice.cpp ****     osc.SetFreq(440);
 722              		.loc 17 86 10 view .LVU209
 723 0126 4D4B     		ldr	r3, .L14+100
 724              	.LBB520:
 725              	.LBB477:
 726              		.loc 2 72 19 view .LVU210
 727 0128 87F80090 		strb	r9, [r7]
 728              	.LBE477:
 729              	.LBE520:
 730              	.LBB521:
 731              	.LBB494:
  49:../../DaisySP/Source/Synthesis/oscillator.h ****         waveform_  = WAVE_SIN;
 732              		.loc 2 49 20 view .LVU211
 733 012c C6ED067A 		vstr.32	s15, [r6, #24]
  50:../../DaisySP/Source/Synthesis/oscillator.h ****         eoc_       = true;
 734              		.loc 2 50 9 is_stmt 1 view .LVU212
  51:../../DaisySP/Source/Synthesis/oscillator.h ****         eor_       = true;
 735              		.loc 2 51 9 view .LVU213
  52:../../DaisySP/Source/Synthesis/oscillator.h ****     }
 736              		.loc 2 52 9 view .LVU214
 737              	.LVL27:
  52:../../DaisySP/Source/Synthesis/oscillator.h ****     }
 738              		.loc 2 52 9 is_stmt 0 view .LVU215
 739              	.LBE494:
 740              	.LBE521:
  81:SynthVoice.cpp ****     flt.SetRes(0.8);
 741              		.loc 17 81 5 is_stmt 1 view .LVU216
 742              	.LBB522:
 743              	.LBI501:
  37:../../DaisySP/Source/Filters/moogladder.h ****     /** 
 744              		.loc 3 37 17 view .LVU217
ARM GAS  /tmp/ccmhSQ6q.s 			page 30


 745              	.LBB504:
  37:../../DaisySP/Source/Filters/moogladder.h ****     /** 
 746              		.loc 3 37 39 view .LVU218
  37:../../DaisySP/Source/Filters/moogladder.h ****     /** 
 747              		.loc 3 37 39 is_stmt 0 view .LVU219
 748              	.LBE504:
 749              	.LBE522:
  82:SynthVoice.cpp **** 
 750              		.loc 17 82 5 is_stmt 1 view .LVU220
 751              	.LBB523:
 752              	.LBI514:
 753              		.loc 3 41 17 view .LVU221
 754              	.LBB517:
 755              		.loc 3 41 37 view .LVU222
 756              		.loc 3 41 37 is_stmt 0 view .LVU223
 757              	.LBE517:
 758              	.LBE523:
  85:SynthVoice.cpp ****     wave = osc.WAVE_SAW;
 759              		.loc 17 85 5 is_stmt 1 view .LVU224
 760              	.LBB524:
 761              	.LBI475:
  70:../../DaisySP/Source/Synthesis/oscillator.h ****     {
 762              		.loc 2 70 17 view .LVU225
 763              	.LBB478:
 764              		.loc 2 72 9 view .LVU226
 765              		.loc 2 72 9 is_stmt 0 view .LVU227
 766              	.LBE478:
 767              	.LBE524:
  86:SynthVoice.cpp ****     osc.SetFreq(440);
 768              		.loc 17 86 5 is_stmt 1 view .LVU228
  86:SynthVoice.cpp ****     osc.SetFreq(440);
 769              		.loc 17 86 10 is_stmt 0 view .LVU229
 770 0130 C3F80090 		str	r9, [r3]
  87:SynthVoice.cpp ****     osc.SetAmp(1);
 771              		.loc 17 87 5 is_stmt 1 view .LVU230
 772              	.LVL28:
 773              	.LBB525:
 774              	.LBI506:
  58:../../DaisySP/Source/Synthesis/oscillator.h ****     {
 775              		.loc 2 58 17 view .LVU231
 776              	.LBB509:
  60:../../DaisySP/Source/Synthesis/oscillator.h ****         phase_inc_ = CalcPhaseInc(f);
 777              		.loc 2 60 9 view .LVU232
  61:../../DaisySP/Source/Synthesis/oscillator.h ****     }
 778              		.loc 2 61 9 view .LVU233
 779              	.LBE509:
 780              	.LBE525:
 781              	.LBB526:
 782              	.LBB495:
  50:../../DaisySP/Source/Synthesis/oscillator.h ****         eoc_       = true;
 783              		.loc 2 50 20 is_stmt 0 view .LVU234
 784 0134 86F800B0 		strb	fp, [r6]
 785              	.LBE495:
 786              	.LBE526:
 787              	.LBB527:
 788              	.LBB510:
  60:../../DaisySP/Source/Synthesis/oscillator.h ****         phase_inc_ = CalcPhaseInc(f);
ARM GAS  /tmp/ccmhSQ6q.s 			page 31


 789              		.loc 2 60 20 view .LVU235
 790 0138 87ED020A 		vstr.32	s0, [r7, #8]
  61:../../DaisySP/Source/Synthesis/oscillator.h ****     }
 791              		.loc 2 61 34 view .LVU236
 792 013c FFF7FEFF 		bl	_ZN7daisysp10Oscillator12CalcPhaseIncEf
 793              	.LVL29:
 794 0140 F0EE407A 		vmov.f32	s15, s0
 795              	.LBE510:
 796              	.LBE527:
 797              	.LBB528:
 798              	.LBB529:
 799 0144 3046     		mov	r0, r6
 800              	.LBE529:
 801              	.LBE528:
 802              	.LBB534:
 803              	.LBB535:
  67:../../DaisySP/Source/Synthesis/oscillator.h ****     /** Sets the waveform to be synthesized by the Process() function.
 804              		.loc 2 67 46 view .LVU237
 805 0146 C7ED018A 		vstr.32	s17, [r7, #4]
 806              	.LBE535:
 807              	.LBE534:
 808              	.LBB537:
 809              	.LBB530:
  61:../../DaisySP/Source/Synthesis/oscillator.h ****     }
 810              		.loc 2 61 34 view .LVU238
 811 014a B0EE4A0A 		vmov.f32	s0, s20
 812              	.LBE530:
 813              	.LBE537:
 814              	.LBB538:
 815              	.LBB539:
 816              		.loc 2 72 19 view .LVU239
 817 014e 86F800B0 		strb	fp, [r6]
 818              	.LBE539:
 819              	.LBE538:
 820              	.LBB541:
 821              	.LBB511:
  61:../../DaisySP/Source/Synthesis/oscillator.h ****     }
 822              		.loc 2 61 20 view .LVU240
 823 0152 C7ED067A 		vstr.32	s15, [r7, #24]
 824              	.LVL30:
  61:../../DaisySP/Source/Synthesis/oscillator.h ****     }
 825              		.loc 2 61 20 view .LVU241
 826              	.LBE511:
 827              	.LBE541:
  88:SynthVoice.cpp **** 
 828              		.loc 17 88 5 is_stmt 1 view .LVU242
 829              	.LBB542:
 830              	.LBI534:
  67:../../DaisySP/Source/Synthesis/oscillator.h ****     /** Sets the waveform to be synthesized by the Process() function.
 831              		.loc 2 67 17 view .LVU243
 832              	.LBB536:
  67:../../DaisySP/Source/Synthesis/oscillator.h ****     /** Sets the waveform to be synthesized by the Process() function.
 833              		.loc 2 67 41 view .LVU244
  67:../../DaisySP/Source/Synthesis/oscillator.h ****     /** Sets the waveform to be synthesized by the Process() function.
 834              		.loc 2 67 41 is_stmt 0 view .LVU245
 835              	.LBE536:
 836              	.LBE542:
ARM GAS  /tmp/ccmhSQ6q.s 			page 32


  91:SynthVoice.cpp ****     lfo.SetFreq(0.1);
 837              		.loc 17 91 5 is_stmt 1 view .LVU246
 838              	.LBB543:
 839              	.LBI538:
  70:../../DaisySP/Source/Synthesis/oscillator.h ****     {
 840              		.loc 2 70 17 view .LVU247
 841              	.LBB540:
 842              		.loc 2 72 9 view .LVU248
 843              		.loc 2 72 9 is_stmt 0 view .LVU249
 844              	.LBE540:
 845              	.LBE543:
  92:SynthVoice.cpp ****     lfo.SetAmp(1);
 846              		.loc 17 92 5 is_stmt 1 view .LVU250
 847              	.LBB544:
 848              	.LBI528:
  58:../../DaisySP/Source/Synthesis/oscillator.h ****     {
 849              		.loc 2 58 17 view .LVU251
 850              	.LBB531:
  60:../../DaisySP/Source/Synthesis/oscillator.h ****         phase_inc_ = CalcPhaseInc(f);
 851              		.loc 2 60 9 view .LVU252
  61:../../DaisySP/Source/Synthesis/oscillator.h ****     }
 852              		.loc 2 61 9 view .LVU253
 853              	.LBE531:
 854              	.LBE544:
 104:SynthVoice.cpp ****     pitchParam.Init(pod.knob2, 50, 5000, pitchParam.LOGARITHMIC);
 855              		.loc 17 104 25 is_stmt 0 view .LVU254
 856 0156 6F46     		mov	r7, sp
 857              	.LBB545:
 858              	.LBB532:
  60:../../DaisySP/Source/Synthesis/oscillator.h ****         phase_inc_ = CalcPhaseInc(f);
 859              		.loc 2 60 20 view .LVU255
 860 0158 86ED02AA 		vstr.32	s20, [r6, #8]
  61:../../DaisySP/Source/Synthesis/oscillator.h ****     }
 861              		.loc 2 61 34 view .LVU256
 862 015c FFF7FEFF 		bl	_ZN7daisysp10Oscillator12CalcPhaseIncEf
 863              	.LVL31:
 864 0160 F0EE407A 		vmov.f32	s15, s0
 865              	.LBE532:
 866              	.LBE545:
 867              	.LBB546:
 868              	.LBB547:
  67:../../DaisySP/Source/Synthesis/oscillator.h ****     /** Sets the waveform to be synthesized by the Process() function.
 869              		.loc 2 67 46 view .LVU257
 870 0164 C6ED018A 		vstr.32	s17, [r6, #4]
 871              	.LBE547:
 872              	.LBE546:
 103:SynthVoice.cpp ****     pitchParam.Init(pod.knob2, 50, 5000, pitchParam.LOGARITHMIC);
 873              		.loc 17 103 21 view .LVU258
 874 0168 B0EE490A 		vmov.f32	s0, s18
 875 016c DFED3C0A 		vldr.32	s1, .L14+104
 876              	.LBB549:
 877              	.LBB550:
  36:../../DaisySP/Source/Control/adenv.h ****     /** Initializes the ad envelope.
  37:../../DaisySP/Source/Control/adenv.h **** 
  38:../../DaisySP/Source/Control/adenv.h ****         Defaults:
  39:../../DaisySP/Source/Control/adenv.h ****             - current segment = idle
  40:../../DaisySP/Source/Control/adenv.h ****             - curve = linear
ARM GAS  /tmp/ccmhSQ6q.s 			page 33


  41:../../DaisySP/Source/Control/adenv.h ****             - phase = 0
  42:../../DaisySP/Source/Control/adenv.h ****             - min = 0
  43:../../DaisySP/Source/Control/adenv.h ****             - max = 1
  44:../../DaisySP/Source/Control/adenv.h **** 
  45:../../DaisySP/Source/Control/adenv.h ****         \param sample_rate      sample rate of the audio engine being run
  46:../../DaisySP/Source/Control/adenv.h ****     */
  47:../../DaisySP/Source/Control/adenv.h ****     void Init(float sample_rate);
  48:../../DaisySP/Source/Control/adenv.h **** 
  49:../../DaisySP/Source/Control/adenv.h ****     /** Processes the current sample of the envelope. This should be called once
  50:../../DaisySP/Source/Control/adenv.h ****         per sample period.
  51:../../DaisySP/Source/Control/adenv.h ****         \return the current envelope value.
  52:../../DaisySP/Source/Control/adenv.h ****     */
  53:../../DaisySP/Source/Control/adenv.h ****     float Process();
  54:../../DaisySP/Source/Control/adenv.h **** 
  55:../../DaisySP/Source/Control/adenv.h ****     /** Starts or retriggers the envelope.*/
  56:../../DaisySP/Source/Control/adenv.h ****     inline void Trigger() { trigger_ = 1; }
  57:../../DaisySP/Source/Control/adenv.h ****     /** Sets the length of time (in seconds) for a specific segment. */
  58:../../DaisySP/Source/Control/adenv.h ****     inline void SetTime(uint8_t seg, float time) { segment_time_[seg] = time; }
 878              		.loc 1 58 71 view .LVU259
 879 0170 CAED02BA 		vstr.32	s23, [r10, #8]
 880              	.LBE550:
 881              	.LBE549:
 882              	.LBB552:
 883              	.LBB533:
  61:../../DaisySP/Source/Synthesis/oscillator.h ****     }
 884              		.loc 2 61 20 view .LVU260
 885 0174 C6ED067A 		vstr.32	s15, [r6, #24]
 886              	.LVL32:
  61:../../DaisySP/Source/Synthesis/oscillator.h ****     }
 887              		.loc 2 61 20 view .LVU261
 888              	.LBE533:
 889              	.LBE552:
  93:SynthVoice.cpp **** 
 890              		.loc 17 93 5 is_stmt 1 view .LVU262
 891              	.LBB553:
 892              	.LBI546:
  67:../../DaisySP/Source/Synthesis/oscillator.h ****     /** Sets the waveform to be synthesized by the Process() function.
 893              		.loc 2 67 17 view .LVU263
 894              	.LBB548:
  67:../../DaisySP/Source/Synthesis/oscillator.h ****     /** Sets the waveform to be synthesized by the Process() function.
 895              		.loc 2 67 41 view .LVU264
  67:../../DaisySP/Source/Synthesis/oscillator.h ****     /** Sets the waveform to be synthesized by the Process() function.
 896              		.loc 2 67 41 is_stmt 0 view .LVU265
 897              	.LBE548:
 898              	.LBE553:
  96:SynthVoice.cpp ****     ad.SetTime(ADENV_SEG_DECAY, .2);
 899              		.loc 17 96 5 is_stmt 1 view .LVU266
 900              	.LBB554:
 901              	.LBI549:
 902              		.loc 1 58 17 view .LVU267
 903              	.LBB551:
 904              		.loc 1 58 52 view .LVU268
 905              		.loc 1 58 52 is_stmt 0 view .LVU269
 906              	.LBE551:
 907              	.LBE554:
  97:SynthVoice.cpp ****     ad.SetMax(1);
 908              		.loc 17 97 5 is_stmt 1 view .LVU270
ARM GAS  /tmp/ccmhSQ6q.s 			page 34


 909              	.LBB555:
 910              	.LBI555:
 911              		.loc 1 58 17 view .LVU271
 912              	.LBB556:
 913              		.loc 1 58 52 view .LVU272
 914              		.loc 1 58 52 is_stmt 0 view .LVU273
 915              	.LBE556:
 916              	.LBE555:
  98:SynthVoice.cpp ****     ad.SetMin(0);
 917              		.loc 17 98 5 is_stmt 1 view .LVU274
 918              	.LBB558:
 919              	.LBI558:
  59:../../DaisySP/Source/Control/adenv.h ****     /** Sets the amount of curve applied. A positve value will create a log
  60:../../DaisySP/Source/Control/adenv.h ****         curve. Input range: -100 to 100.  (or more)
  61:../../DaisySP/Source/Control/adenv.h ****     */
  62:../../DaisySP/Source/Control/adenv.h ****     inline void SetCurve(float scalar) { curve_scalar_ = scalar; }
  63:../../DaisySP/Source/Control/adenv.h ****     /** Sets the minimum value of the envelope output.
  64:../../DaisySP/Source/Control/adenv.h ****         Input range: -FLTmax_, to FLTmax_
  65:../../DaisySP/Source/Control/adenv.h ****     */
  66:../../DaisySP/Source/Control/adenv.h ****     inline void SetMin(float min) { min_ = min; }
  67:../../DaisySP/Source/Control/adenv.h ****     /** Sets the maximum value of the envelope output.
  68:../../DaisySP/Source/Control/adenv.h ****         Input range: -FLTmax_, to FLTmax_
  69:../../DaisySP/Source/Control/adenv.h ****     */
  70:../../DaisySP/Source/Control/adenv.h ****     inline void SetMax(float max) { max_ = max; }
 920              		.loc 1 70 17 view .LVU275
 921              	.LBB559:
 922              		.loc 1 70 37 view .LVU276
 923              		.loc 1 70 37 is_stmt 0 view .LVU277
 924              	.LBE559:
 925              	.LBE558:
  99:SynthVoice.cpp ****     ad.SetCurve(0.5);
 926              		.loc 17 99 5 is_stmt 1 view .LVU278
 927              	.LBB561:
 928              	.LBI561:
  66:../../DaisySP/Source/Control/adenv.h ****     /** Sets the maximum value of the envelope output.
 929              		.loc 1 66 17 view .LVU279
 930              	.LBB562:
  66:../../DaisySP/Source/Control/adenv.h ****     /** Sets the maximum value of the envelope output.
 931              		.loc 1 66 37 view .LVU280
  66:../../DaisySP/Source/Control/adenv.h ****     /** Sets the maximum value of the envelope output.
 932              		.loc 1 66 37 is_stmt 0 view .LVU281
 933              	.LBE562:
 934              	.LBE561:
 100:SynthVoice.cpp **** 
 935              		.loc 17 100 5 is_stmt 1 view .LVU282
 936              	.LBB564:
 937              	.LBI564:
  62:../../DaisySP/Source/Control/adenv.h ****     /** Sets the minimum value of the envelope output.
 938              		.loc 1 62 17 view .LVU283
 939              	.LBB565:
  62:../../DaisySP/Source/Control/adenv.h ****     /** Sets the minimum value of the envelope output.
 940              		.loc 1 62 42 view .LVU284
  62:../../DaisySP/Source/Control/adenv.h ****     /** Sets the minimum value of the envelope output.
 941              		.loc 1 62 42 is_stmt 0 view .LVU285
 942              	.LBE565:
 943              	.LBE564:
 103:SynthVoice.cpp ****     pitchParam.Init(pod.knob2, 50, 5000, pitchParam.LOGARITHMIC);
ARM GAS  /tmp/ccmhSQ6q.s 			page 35


 944              		.loc 17 103 5 is_stmt 1 view .LVU286
 945              	.LBB567:
 946              	.LBB557:
  58:../../DaisySP/Source/Control/adenv.h ****     /** Sets the amount of curve applied. A positve value will create a log
 947              		.loc 1 58 71 is_stmt 0 view .LVU287
 948 0178 8AED03BA 		vstr.32	s22, [r10, #12]
 949              	.LBE557:
 950              	.LBE567:
 951              	.LBB568:
 952              	.LBB560:
 953              		.loc 1 70 42 view .LVU288
 954 017c CAED068A 		vstr.32	s17, [r10, #24]
 955              	.LBE560:
 956              	.LBE568:
 957              	.LBB569:
 958              	.LBB563:
  66:../../DaisySP/Source/Control/adenv.h ****     /** Sets the maximum value of the envelope output.
 959              		.loc 1 66 42 view .LVU289
 960 0180 CAF81480 		str	r8, [r10, #20]	@ float
 961              	.LBE563:
 962              	.LBE569:
 963              	.LBB570:
 964              	.LBB566:
  62:../../DaisySP/Source/Control/adenv.h ****     /** Sets the minimum value of the envelope output.
 965              		.loc 1 62 56 view .LVU290
 966 0184 CAED089A 		vstr.32	s19, [r10, #32]
 967              	.LBE566:
 968              	.LBE570:
 103:SynthVoice.cpp ****     pitchParam.Init(pod.knob2, 50, 5000, pitchParam.LOGARITHMIC);
 969              		.loc 17 103 26 view .LVU291
 970 0188 0FCC     		ldmia	r4!, {r0, r1, r2, r3}
 971 018a 0FC5     		stmia	r5!, {r0, r1, r2, r3}
 972 018c 94E80F00 		ldm	r4, {r0, r1, r2, r3}
 973              		.loc 17 104 25 view .LVU292
 974 0190 04F11006 		add	r6, r4, #16
 103:SynthVoice.cpp ****     pitchParam.Init(pod.knob2, 50, 5000, pitchParam.LOGARITHMIC);
 975              		.loc 17 103 26 view .LVU293
 976 0194 85E80F00 		stm	r5, {r0, r1, r2, r3}
 103:SynthVoice.cpp ****     pitchParam.Init(pod.knob2, 50, 5000, pitchParam.LOGARITHMIC);
 977              		.loc 17 103 21 view .LVU294
 978 0198 4A46     		mov	r2, r9
 979 019a 6946     		mov	r1, sp
 980 019c 3148     		ldr	r0, .L14+108
 981 019e FFF7FEFF 		bl	_ZN5daisy9Parameter4InitENS_13AnalogControlEffNS0_5CurveE
 982              	.LVL33:
 983              	.LBB571:
 984              	.LBI571:
 985              		.loc 5 23 5 is_stmt 1 view .LVU295
 986              		.loc 5 23 5 is_stmt 0 view .LVU296
 987              	.LBE571:
 988              		.loc 17 104 5 is_stmt 1 view .LVU297
 989              		.loc 17 104 20 is_stmt 0 view .LVU298
 990 01a2 DFED310A 		vldr.32	s1, .L14+112
 991 01a6 9FED310A 		vldr.32	s0, .L14+116
 992              		.loc 17 104 25 view .LVU299
 993 01aa 0FCE     		ldmia	r6!, {r0, r1, r2, r3}
 994 01ac 0FC7     		stmia	r7!, {r0, r1, r2, r3}
ARM GAS  /tmp/ccmhSQ6q.s 			page 36


 995 01ae 96E80F00 		ldm	r6, {r0, r1, r2, r3}
 105:SynthVoice.cpp ****     lfoParam.Init(pod.knob1, 0.25, 1000, lfoParam.LOGARITHMIC);
 996              		.loc 17 105 23 view .LVU300
 997 01b2 A4F11007 		sub	r7, r4, #16
 998 01b6 6E46     		mov	r6, sp
 104:SynthVoice.cpp ****     lfoParam.Init(pod.knob1, 0.25, 1000, lfoParam.LOGARITHMIC);
 999              		.loc 17 104 25 view .LVU301
 1000 01b8 85E80F00 		stm	r5, {r0, r1, r2, r3}
 104:SynthVoice.cpp ****     lfoParam.Init(pod.knob1, 0.25, 1000, lfoParam.LOGARITHMIC);
 1001              		.loc 17 104 20 view .LVU302
 1002 01bc 4A46     		mov	r2, r9
 1003 01be 6946     		mov	r1, sp
 1004 01c0 2B48     		ldr	r0, .L14+120
 1005 01c2 FFF7FEFF 		bl	_ZN5daisy9Parameter4InitENS_13AnalogControlEffNS0_5CurveE
 1006              	.LVL34:
 1007              	.LBB572:
 1008              	.LBI572:
 1009              		.loc 5 23 5 is_stmt 1 view .LVU303
 1010              		.loc 5 23 5 is_stmt 0 view .LVU304
 1011              	.LBE572:
 1012              		.loc 17 105 5 is_stmt 1 view .LVU305
 1013              		.loc 17 105 18 is_stmt 0 view .LVU306
 1014 01c6 F0EE6A0A 		vmov.f32	s1, s21
 1015 01ca B5EE000A 		vmov.f32	s0, #2.5e-1
 1016              		.loc 17 105 23 view .LVU307
 1017 01ce 0FCF     		ldmia	r7!, {r0, r1, r2, r3}
 1018 01d0 0FC6     		stmia	r6!, {r0, r1, r2, r3}
 1019 01d2 94E80F00 		ldm	r4, {r0, r1, r2, r3}
 1020 01d6 85E80F00 		stm	r5, {r0, r1, r2, r3}
 1021              		.loc 17 105 18 view .LVU308
 1022 01da 6946     		mov	r1, sp
 1023 01dc 4A46     		mov	r2, r9
 1024 01de 2548     		ldr	r0, .L14+124
 1025 01e0 FFF7FEFF 		bl	_ZN5daisy9Parameter4InitENS_13AnalogControlEffNS0_5CurveE
 1026              	.LVL35:
 1027              	.LBB573:
 1028              	.LBI573:
 1029              		.loc 5 23 5 is_stmt 1 view .LVU309
 1030              		.loc 5 23 5 is_stmt 0 view .LVU310
 1031              	.LBE573:
 106:SynthVoice.cpp **** 
 107:SynthVoice.cpp ****     // start callback
 108:SynthVoice.cpp ****     pod.StartAdc();
 1032              		.loc 17 108 5 is_stmt 1 view .LVU311
 1033              		.loc 17 108 17 is_stmt 0 view .LVU312
 1034 01e4 A4F16C00 		sub	r0, r4, #108
 1035 01e8 FFF7FEFF 		bl	_ZN5daisy8DaisyPod8StartAdcEv
 1036              	.LVL36:
 109:SynthVoice.cpp ****     pod.StartAudio(AudioCallback);
 1037              		.loc 17 109 5 is_stmt 1 view .LVU313
 1038              		.loc 17 109 19 is_stmt 0 view .LVU314
 1039 01ec A4F16C00 		sub	r0, r4, #108
 1040 01f0 2149     		ldr	r1, .L14+128
 1041 01f2 FFF7FEFF 		bl	_ZN5daisy8DaisyPod10StartAudioEPFvPKfPfjE
 1042              	.LVL37:
 1043              	.L12:
 110:SynthVoice.cpp **** 
ARM GAS  /tmp/ccmhSQ6q.s 			page 37


 111:SynthVoice.cpp ****     while(1) {}
 1044              		.loc 17 111 5 is_stmt 1 discriminator 1 view .LVU315
 1045              		.loc 17 111 5 discriminator 1 view .LVU316
 1046              		.loc 17 111 5 discriminator 1 view .LVU317
 1047              		.loc 17 111 5 discriminator 1 view .LVU318
 1048 01f6 FEE7     		b	.L12
 1049              	.L15:
 1050              		.align	2
 1051              	.L14:
 1052 01f8 00000000 		.word	.LANCHOR6
 1053 01fc 00000000 		.word	.LANCHOR16
 1054 0200 00000000 		.word	.LANCHOR2
 1055 0204 00000000 		.word	.LANCHOR8
 1056 0208 00000000 		.word	.LANCHOR10
 1057 020c 00000000 		.word	.LANCHOR7
 1058 0210 00000000 		.word	.LANCHOR9
 1059 0214 00007A44 		.word	1148846080
 1060 0218 00000000 		.word	.LANCHOR3
 1061 021c CDCCCC3D 		.word	1036831949
 1062 0220 00000000 		.word	.LANCHOR13
 1063 0224 00000000 		.word	.LANCHOR15
 1064 0228 00000000 		.word	.LANCHOR11
 1065 022c 0AD7233C 		.word	1008981770
 1066 0230 00000000 		.word	.LANCHOR12
 1067 0234 CDCC4C3E 		.word	1045220557
 1068 0238 00401C46 		.word	1176256512
 1069 023c 00000000 		.word	_ZL3pod
 1070 0240 00000000 		.word	.LANCHOR4
 1071 0244 0000C842 		.word	1120403456
 1072 0248 00000000 		.word	.LANCHOR1
 1073 024c 5C000000 		.word	_ZL3pod+92
 1074 0250 00000000 		.word	.LANCHOR5
 1075 0254 0000DC43 		.word	1138491392
 1076 0258 CDCC4C3F 		.word	1061997773
 1077 025c 00000000 		.word	.LANCHOR17
 1078 0260 00409C46 		.word	1184645120
 1079 0264 00000000 		.word	.LANCHOR18
 1080 0268 00409C45 		.word	1167867904
 1081 026c 00004842 		.word	1112014848
 1082 0270 00000000 		.word	.LANCHOR19
 1083 0274 00000000 		.word	.LANCHOR20
 1084 0278 00000000 		.word	_ZL13AudioCallbackPKfPfj
 1085 027c 00000000 		.word	.LANCHOR14
 1086 0280 00000000 		.word	.LANCHOR0
 1087              		.cfi_endproc
 1088              	.LFE4221:
 1090              		.section	.text._Z20ConditionalParameterffRff,"ax",%progbits
 1091              		.align	1
 1092              		.p2align 2,,3
 1093              		.global	_Z20ConditionalParameterffRff
 1094              		.syntax unified
 1095              		.thumb
 1096              		.thumb_func
 1097              		.fpu fpv5-d16
 1099              	_Z20ConditionalParameterffRff:
 1100              	.LVL38:
 1101              	.LFB4222:
ARM GAS  /tmp/ccmhSQ6q.s 			page 38


 112:SynthVoice.cpp **** }
 113:SynthVoice.cpp **** 
 114:SynthVoice.cpp **** //Updates values if knob had changed
 115:SynthVoice.cpp **** void ConditionalParameter(float  oldVal,
 116:SynthVoice.cpp ****                           float  newVal,
 117:SynthVoice.cpp ****                           float &param,
 118:SynthVoice.cpp ****                           float  update)
 119:SynthVoice.cpp **** {
 1102              		.loc 17 119 1 view -0
 1103              		.cfi_startproc
 1104              		@ args = 0, pretend = 0, frame = 0
 1105              		@ frame_needed = 0, uses_anonymous_args = 0
 1106              		@ link register save eliminated.
 120:SynthVoice.cpp ****     if(abs(oldVal - newVal) > 0.0005)
 1107              		.loc 17 120 5 view .LVU320
 1108              	.LBB574:
 1109              	.LBI574:
 1110              		.file 18 "/usr/include/newlib/c++/9.2.1/bits/std_abs.h"
   1:/usr/include/newlib/c++/9.2.1/bits/std_abs.h **** // -*- C++ -*- C library enhancements header.
   2:/usr/include/newlib/c++/9.2.1/bits/std_abs.h **** 
   3:/usr/include/newlib/c++/9.2.1/bits/std_abs.h **** // Copyright (C) 2016-2019 Free Software Foundation, Inc.
   4:/usr/include/newlib/c++/9.2.1/bits/std_abs.h **** //
   5:/usr/include/newlib/c++/9.2.1/bits/std_abs.h **** // This file is part of the GNU ISO C++ Library.  This library is free
   6:/usr/include/newlib/c++/9.2.1/bits/std_abs.h **** // software; you can redistribute it and/or modify it under the
   7:/usr/include/newlib/c++/9.2.1/bits/std_abs.h **** // terms of the GNU General Public License as published by the
   8:/usr/include/newlib/c++/9.2.1/bits/std_abs.h **** // Free Software Foundation; either version 3, or (at your option)
   9:/usr/include/newlib/c++/9.2.1/bits/std_abs.h **** // any later version.
  10:/usr/include/newlib/c++/9.2.1/bits/std_abs.h **** 
  11:/usr/include/newlib/c++/9.2.1/bits/std_abs.h **** // This library is distributed in the hope that it will be useful,
  12:/usr/include/newlib/c++/9.2.1/bits/std_abs.h **** // but WITHOUT ANY WARRANTY; without even the implied warranty of
  13:/usr/include/newlib/c++/9.2.1/bits/std_abs.h **** // MERCHANTABILITY or FITNESS FOR A PARTICULAR PURPOSE.  See the
  14:/usr/include/newlib/c++/9.2.1/bits/std_abs.h **** // GNU General Public License for more details.
  15:/usr/include/newlib/c++/9.2.1/bits/std_abs.h **** 
  16:/usr/include/newlib/c++/9.2.1/bits/std_abs.h **** // Under Section 7 of GPL version 3, you are granted additional
  17:/usr/include/newlib/c++/9.2.1/bits/std_abs.h **** // permissions described in the GCC Runtime Library Exception, version
  18:/usr/include/newlib/c++/9.2.1/bits/std_abs.h **** // 3.1, as published by the Free Software Foundation.
  19:/usr/include/newlib/c++/9.2.1/bits/std_abs.h **** 
  20:/usr/include/newlib/c++/9.2.1/bits/std_abs.h **** // You should have received a copy of the GNU General Public License and
  21:/usr/include/newlib/c++/9.2.1/bits/std_abs.h **** // a copy of the GCC Runtime Library Exception along with this program;
  22:/usr/include/newlib/c++/9.2.1/bits/std_abs.h **** // see the files COPYING3 and COPYING.RUNTIME respectively.  If not, see
  23:/usr/include/newlib/c++/9.2.1/bits/std_abs.h **** // <http://www.gnu.org/licenses/>.
  24:/usr/include/newlib/c++/9.2.1/bits/std_abs.h **** 
  25:/usr/include/newlib/c++/9.2.1/bits/std_abs.h **** /** @file include/bits/std_abs.h
  26:/usr/include/newlib/c++/9.2.1/bits/std_abs.h ****  *  This is an internal header file, included by other library headers.
  27:/usr/include/newlib/c++/9.2.1/bits/std_abs.h ****  *  Do not attempt to use it directly. @headername{cmath, cstdlib}
  28:/usr/include/newlib/c++/9.2.1/bits/std_abs.h ****  */
  29:/usr/include/newlib/c++/9.2.1/bits/std_abs.h **** 
  30:/usr/include/newlib/c++/9.2.1/bits/std_abs.h **** #ifndef _GLIBCXX_BITS_STD_ABS_H
  31:/usr/include/newlib/c++/9.2.1/bits/std_abs.h **** #define _GLIBCXX_BITS_STD_ABS_H
  32:/usr/include/newlib/c++/9.2.1/bits/std_abs.h **** 
  33:/usr/include/newlib/c++/9.2.1/bits/std_abs.h **** #pragma GCC system_header
  34:/usr/include/newlib/c++/9.2.1/bits/std_abs.h **** 
  35:/usr/include/newlib/c++/9.2.1/bits/std_abs.h **** #include <bits/c++config.h>
  36:/usr/include/newlib/c++/9.2.1/bits/std_abs.h **** 
  37:/usr/include/newlib/c++/9.2.1/bits/std_abs.h **** #define _GLIBCXX_INCLUDE_NEXT_C_HEADERS
  38:/usr/include/newlib/c++/9.2.1/bits/std_abs.h **** #include_next <stdlib.h>
  39:/usr/include/newlib/c++/9.2.1/bits/std_abs.h **** #ifdef __CORRECT_ISO_CPP_MATH_H_PROTO
ARM GAS  /tmp/ccmhSQ6q.s 			page 39


  40:/usr/include/newlib/c++/9.2.1/bits/std_abs.h **** # include_next <math.h>
  41:/usr/include/newlib/c++/9.2.1/bits/std_abs.h **** #endif
  42:/usr/include/newlib/c++/9.2.1/bits/std_abs.h **** #undef _GLIBCXX_INCLUDE_NEXT_C_HEADERS
  43:/usr/include/newlib/c++/9.2.1/bits/std_abs.h **** 
  44:/usr/include/newlib/c++/9.2.1/bits/std_abs.h **** #undef abs
  45:/usr/include/newlib/c++/9.2.1/bits/std_abs.h **** 
  46:/usr/include/newlib/c++/9.2.1/bits/std_abs.h **** extern "C++"
  47:/usr/include/newlib/c++/9.2.1/bits/std_abs.h **** {
  48:/usr/include/newlib/c++/9.2.1/bits/std_abs.h **** namespace std _GLIBCXX_VISIBILITY(default)
  49:/usr/include/newlib/c++/9.2.1/bits/std_abs.h **** {
  50:/usr/include/newlib/c++/9.2.1/bits/std_abs.h **** _GLIBCXX_BEGIN_NAMESPACE_VERSION
  51:/usr/include/newlib/c++/9.2.1/bits/std_abs.h **** 
  52:/usr/include/newlib/c++/9.2.1/bits/std_abs.h ****   using ::abs;
  53:/usr/include/newlib/c++/9.2.1/bits/std_abs.h **** 
  54:/usr/include/newlib/c++/9.2.1/bits/std_abs.h **** #ifndef __CORRECT_ISO_CPP_STDLIB_H_PROTO
  55:/usr/include/newlib/c++/9.2.1/bits/std_abs.h ****   inline long
  56:/usr/include/newlib/c++/9.2.1/bits/std_abs.h ****   abs(long __i) { return __builtin_labs(__i); }
  57:/usr/include/newlib/c++/9.2.1/bits/std_abs.h **** #endif
  58:/usr/include/newlib/c++/9.2.1/bits/std_abs.h **** 
  59:/usr/include/newlib/c++/9.2.1/bits/std_abs.h **** #ifdef _GLIBCXX_USE_LONG_LONG
  60:/usr/include/newlib/c++/9.2.1/bits/std_abs.h ****   inline long long
  61:/usr/include/newlib/c++/9.2.1/bits/std_abs.h ****   abs(long long __x) { return __builtin_llabs (__x); }
  62:/usr/include/newlib/c++/9.2.1/bits/std_abs.h **** #endif
  63:/usr/include/newlib/c++/9.2.1/bits/std_abs.h **** 
  64:/usr/include/newlib/c++/9.2.1/bits/std_abs.h **** // _GLIBCXX_RESOLVE_LIB_DEFECTS
  65:/usr/include/newlib/c++/9.2.1/bits/std_abs.h **** // 2192. Validity and return type of std::abs(0u) is unclear
  66:/usr/include/newlib/c++/9.2.1/bits/std_abs.h **** // 2294. <cstdlib> should declare abs(double)
  67:/usr/include/newlib/c++/9.2.1/bits/std_abs.h **** // 2735. std::abs(short), std::abs(signed char) and others should return int
  68:/usr/include/newlib/c++/9.2.1/bits/std_abs.h **** 
  69:/usr/include/newlib/c++/9.2.1/bits/std_abs.h **** #ifndef __CORRECT_ISO_CPP_MATH_H_PROTO
  70:/usr/include/newlib/c++/9.2.1/bits/std_abs.h ****   inline _GLIBCXX_CONSTEXPR double
  71:/usr/include/newlib/c++/9.2.1/bits/std_abs.h ****   abs(double __x)
  72:/usr/include/newlib/c++/9.2.1/bits/std_abs.h ****   { return __builtin_fabs(__x); }
  73:/usr/include/newlib/c++/9.2.1/bits/std_abs.h **** 
  74:/usr/include/newlib/c++/9.2.1/bits/std_abs.h ****   inline _GLIBCXX_CONSTEXPR float
  75:/usr/include/newlib/c++/9.2.1/bits/std_abs.h ****   abs(float __x)
 1111              		.loc 18 75 3 view .LVU321
 1112              	.LBB575:
  76:/usr/include/newlib/c++/9.2.1/bits/std_abs.h ****   { return __builtin_fabsf(__x); }
 1113              		.loc 18 76 5 view .LVU322
 1114              		.loc 18 76 5 is_stmt 0 view .LVU323
 1115              	.LBE575:
 1116              	.LBE574:
 1117              		.loc 17 120 11 view .LVU324
 1118 0000 70EE600A 		vsub.f32	s1, s0, s1
 1119              	.LVL39:
 1120              		.loc 17 120 5 view .LVU325
 1121 0004 9FED067B 		vldr.64	d7, .L20
 1122              	.LBB577:
 1123              	.LBB576:
 1124              		.loc 18 76 31 view .LVU326
 1125 0008 B0EEE00A 		vabs.f32	s0, s1
 1126              	.LVL40:
 1127              		.loc 18 76 31 view .LVU327
 1128              	.LBE576:
 1129              	.LBE577:
 1130              		.loc 17 120 11 view .LVU328
ARM GAS  /tmp/ccmhSQ6q.s 			page 40


 1131 000c B7EEC00A 		vcvt.f64.f32	d0, s0
 1132              		.loc 17 120 5 view .LVU329
 1133 0010 B4EEC70B 		vcmpe.f64	d0, d7
 1134 0014 F1EE10FA 		vmrs	APSR_nzcv, FPSCR
 121:SynthVoice.cpp ****     {
 122:SynthVoice.cpp ****         param = update;
 1135              		.loc 17 122 9 is_stmt 1 view .LVU330
 1136              		.loc 17 122 15 is_stmt 0 view .LVU331
 1137 0018 C8BF     		it	gt
 1138 001a 80ED001A 		vstrgt.32	s2, [r0]
 123:SynthVoice.cpp ****     }
 124:SynthVoice.cpp **** }
 1139              		.loc 17 124 1 view .LVU332
 1140 001e 7047     		bx	lr
 1141              	.L21:
 1142              		.align	3
 1143              	.L20:
 1144 0020 FCA9F1D2 		.word	3539053052
 1145 0024 4D62403F 		.word	1061184077
 1146              		.cfi_endproc
 1147              	.LFE4222:
 1149              		.section	.text._Z13UpdateEncoderv,"ax",%progbits
 1150              		.align	1
 1151              		.p2align 2,,3
 1152              		.global	_Z13UpdateEncoderv
 1153              		.syntax unified
 1154              		.thumb
 1155              		.thumb_func
 1156              		.fpu fpv5-d16
 1158              	_Z13UpdateEncoderv:
 1159              	.LFB4223:
 125:SynthVoice.cpp **** 
 126:SynthVoice.cpp **** 
 127:SynthVoice.cpp **** //Controls Helpers
 128:SynthVoice.cpp **** void UpdateEncoder()
 129:SynthVoice.cpp **** {
 1160              		.loc 17 129 1 is_stmt 1 view -0
 1161              		.cfi_startproc
 1162              		@ args = 0, pretend = 0, frame = 0
 1163              		@ frame_needed = 0, uses_anonymous_args = 0
 1164              		@ link register save eliminated.
 130:SynthVoice.cpp ****     wave += pod.encoder.RisingEdge();
 1165              		.loc 17 130 5 view .LVU334
 1166              	.LVL41:
 1167              	.LBB578:
 1168              	.LBI578:
  22:../../libdaisy/src/hid/encoder.h **** 
  23:../../libdaisy/src/hid/encoder.h ****     /** Initializes the encoder with the specified hardware pins.
  24:../../libdaisy/src/hid/encoder.h **** */
  25:../../libdaisy/src/hid/encoder.h ****     //
  26:../../libdaisy/src/hid/encoder.h ****     /** Update rate should be the rate at which Debounce() gets called
  27:../../libdaisy/src/hid/encoder.h **** in Hertz.
  28:../../libdaisy/src/hid/encoder.h **** */
  29:../../libdaisy/src/hid/encoder.h ****     //
  30:../../libdaisy/src/hid/encoder.h ****     void
  31:../../libdaisy/src/hid/encoder.h ****     Init(dsy_gpio_pin a, dsy_gpio_pin b, dsy_gpio_pin click, float update_rate);
  32:../../libdaisy/src/hid/encoder.h ****     /** Called at update_rate to debounce and handle timing for the switch.
ARM GAS  /tmp/ccmhSQ6q.s 			page 41


  33:../../libdaisy/src/hid/encoder.h **** */
  34:../../libdaisy/src/hid/encoder.h ****     //
  35:../../libdaisy/src/hid/encoder.h ****     /** In order for events not to be missed, its important that the Edge/Pressed checks
  36:../../libdaisy/src/hid/encoder.h **** be made at the same rate as the debounce function is being called.
  37:../../libdaisy/src/hid/encoder.h **** */
  38:../../libdaisy/src/hid/encoder.h ****     void Debounce();
  39:../../libdaisy/src/hid/encoder.h ****     /** Returns +1 if the encoder was turned clockwise, -1 if it was turned counter-clockwise, or 0
  40:../../libdaisy/src/hid/encoder.h **** */
  41:../../libdaisy/src/hid/encoder.h ****     inline int32_t Increment() const { return inc_; }
  42:../../libdaisy/src/hid/encoder.h ****     /** Returns true if the encoder was just pressed.
  43:../../libdaisy/src/hid/encoder.h **** */
  44:../../libdaisy/src/hid/encoder.h ****     inline bool RisingEdge() const { return sw_.RisingEdge(); }
 1169              		.loc 11 44 17 view .LVU335
 1170              	.LBB579:
 1171              		.loc 11 44 38 view .LVU336
 1172              	.LBB580:
 1173              	.LBI580:
  42:../../libdaisy/src/hid/switch.h **** 
  43:../../libdaisy/src/hid/switch.h ****     /** 
  44:../../libdaisy/src/hid/switch.h ****     Initializes the switch object with a given port/pin combo.
  45:../../libdaisy/src/hid/switch.h ****     \param pin port/pin object to tell the switch which hardware pin to use.
  46:../../libdaisy/src/hid/switch.h ****     \param update_rate the rate at which the Debounce() function will be called. (used for timing).
  47:../../libdaisy/src/hid/switch.h ****     \param t switch type -- Default: TYPE_MOMENTARY
  48:../../libdaisy/src/hid/switch.h ****     \param pol switch polarity -- Default: POLARITY_INVERTED
  49:../../libdaisy/src/hid/switch.h ****     \param pu switch pull up/down -- Default: PULL_UP
  50:../../libdaisy/src/hid/switch.h ****     */
  51:../../libdaisy/src/hid/switch.h ****     void
  52:../../libdaisy/src/hid/switch.h ****     Init(dsy_gpio_pin pin, float update_rate, Type t, Polarity pol, Pull pu);
  53:../../libdaisy/src/hid/switch.h **** 
  54:../../libdaisy/src/hid/switch.h ****     /**
  55:../../libdaisy/src/hid/switch.h ****        Simplified Init.
  56:../../libdaisy/src/hid/switch.h ****        \param pin port/pin object to tell the switch which hardware pin to use.
  57:../../libdaisy/src/hid/switch.h ****        \param update_rate the rate at which the Debounce() function will be called. (used for timin
  58:../../libdaisy/src/hid/switch.h ****     */
  59:../../libdaisy/src/hid/switch.h ****     void Init(dsy_gpio_pin pin, float update_rate);
  60:../../libdaisy/src/hid/switch.h **** 
  61:../../libdaisy/src/hid/switch.h ****     /** 
  62:../../libdaisy/src/hid/switch.h ****     Called at update_rate to debounce and handle timing for the switch.
  63:../../libdaisy/src/hid/switch.h ****     In order for events not to be missed, its important that the Edge/Pressed checks
  64:../../libdaisy/src/hid/switch.h ****     be made at the same rate as the debounce function is being called.
  65:../../libdaisy/src/hid/switch.h ****     */
  66:../../libdaisy/src/hid/switch.h ****     void Debounce();
  67:../../libdaisy/src/hid/switch.h **** 
  68:../../libdaisy/src/hid/switch.h ****     /** \return true if a button was just pressed. */
  69:../../libdaisy/src/hid/switch.h ****     inline bool RisingEdge() const { return state_ == 0x7f; }
 1174              		.loc 10 69 17 view .LVU337
 1175              	.LBB581:
 1176              		.loc 10 69 38 view .LVU338
 1177              		.loc 10 69 38 is_stmt 0 view .LVU339
 1178              	.LBE581:
 1179              	.LBE580:
 1180              	.LBE579:
 1181              	.LBE578:
 131:SynthVoice.cpp ****     wave %= osc.WAVE_POLYBLEP_TRI;
 1182              		.loc 17 131 5 is_stmt 1 view .LVU340
 129:SynthVoice.cpp ****     wave += pod.encoder.RisingEdge();
 1183              		.loc 17 129 1 is_stmt 0 view .LVU341
ARM GAS  /tmp/ccmhSQ6q.s 			page 42


 1184 0000 30B4     		push	{r4, r5}
 1185              		.cfi_def_cfa_offset 8
 1186              		.cfi_offset 4, -8
 1187              		.cfi_offset 5, -4
 130:SynthVoice.cpp ****     wave %= osc.WAVE_POLYBLEP_TRI;
 1188              		.loc 17 130 10 view .LVU342
 1189 0002 1A48     		ldr	r0, .L27
 1190              	.LBB586:
 1191              	.LBB584:
 1192              		.loc 11 44 59 view .LVU343
 1193 0004 1A4D     		ldr	r5, .L27+4
 1194              	.LBE584:
 1195              	.LBE586:
 130:SynthVoice.cpp ****     wave %= osc.WAVE_POLYBLEP_TRI;
 1196              		.loc 17 130 10 view .LVU344
 1197 0006 0268     		ldr	r2, [r0]
 1198              	.LBB587:
 1199              	.LBB585:
 1200              	.LBB583:
 1201              	.LBB582:
 1202              		.loc 10 69 55 view .LVU345
 1203 0008 95F84110 		ldrb	r1, [r5, #65]	@ zero_extendqisi2
 1204              	.LBE582:
 1205              	.LBE583:
 1206              	.LBE585:
 1207              	.LBE587:
 1208              		.loc 17 131 10 view .LVU346
 1209 000c 194B     		ldr	r3, .L27+8
 130:SynthVoice.cpp ****     wave %= osc.WAVE_POLYBLEP_TRI;
 1210              		.loc 17 130 10 view .LVU347
 1211 000e 7F29     		cmp	r1, #127
 1212 0010 08BF     		it	eq
 1213 0012 0132     		addeq	r2, r2, #1
 1214              		.loc 17 131 10 view .LVU348
 1215 0014 83FB0231 		smull	r3, r1, r3, r2
 1216 0018 D317     		asrs	r3, r2, #31
 1217 001a C3EB6103 		rsb	r3, r3, r1, asr #1
 1218 001e 03EB8303 		add	r3, r3, r3, lsl #2
 1219 0022 D31A     		subs	r3, r2, r3
 132:SynthVoice.cpp **** 
 133:SynthVoice.cpp ****     //skip ramp since it sounds like saw
 134:SynthVoice.cpp ****     if(wave == 3)
 1220              		.loc 17 134 5 view .LVU349
 1221 0024 032B     		cmp	r3, #3
 131:SynthVoice.cpp **** 
 1222              		.loc 17 131 10 view .LVU350
 1223 0026 0360     		str	r3, [r0]
 1224              		.loc 17 134 5 is_stmt 1 view .LVU351
 1225 0028 1DD0     		beq	.L26
 135:SynthVoice.cpp ****     {
 136:SynthVoice.cpp ****         wave = 4;
 137:SynthVoice.cpp ****     }
 138:SynthVoice.cpp **** 
 139:SynthVoice.cpp ****     osc.SetWaveform(wave);
 1226              		.loc 17 139 5 view .LVU352
 1227              		.loc 17 139 20 is_stmt 0 view .LVU353
 1228 002a DBB2     		uxtb	r3, r3
ARM GAS  /tmp/ccmhSQ6q.s 			page 43


 1229              	.LVL42:
 1230              	.LBB588:
 1231              	.LBI588:
  70:../../DaisySP/Source/Synthesis/oscillator.h ****     {
 1232              		.loc 2 70 17 is_stmt 1 view .LVU354
 1233              	.LBB589:
 1234              		.loc 2 72 9 view .LVU355
 1235              		.loc 2 72 19 is_stmt 0 view .LVU356
 1236 002c 082B     		cmp	r3, #8
 1237 002e 28BF     		it	cs
 1238 0030 0023     		movcs	r3, #0
 1239              	.LVL43:
 1240              	.L24:
 1241              		.loc 2 72 19 view .LVU357
 1242              	.LBE589:
 1243              	.LBE588:
 140:SynthVoice.cpp **** 
 141:SynthVoice.cpp ****     mode += pod.encoder.Increment();
 142:SynthVoice.cpp ****     mode = (mode % 3 + 3) % 3;
 1244              		.loc 17 142 10 view .LVU358
 1245 0032 114C     		ldr	r4, .L27+12
 141:SynthVoice.cpp ****     mode = (mode % 3 + 3) % 3;
 1246              		.loc 17 141 10 view .LVU359
 1247 0034 A86D     		ldr	r0, [r5, #88]
 1248 0036 2268     		ldr	r2, [r4]
 1249              		.loc 17 142 18 view .LVU360
 1250 0038 1049     		ldr	r1, .L27+16
 141:SynthVoice.cpp ****     mode = (mode % 3 + 3) % 3;
 1251              		.loc 17 141 10 view .LVU361
 1252 003a 0244     		add	r2, r2, r0
 1253              	.LBB593:
 1254              	.LBB590:
 1255              		.loc 2 72 19 view .LVU362
 1256 003c 104D     		ldr	r5, .L27+20
 1257              	.LBE590:
 1258              	.LBE593:
 1259              		.loc 17 142 27 view .LVU363
 1260 003e 1148     		ldr	r0, .L27+24
 1261              		.loc 17 142 18 view .LVU364
 1262 0040 81FB02C1 		smull	ip, r1, r1, r2
 1263              	.LBB594:
 1264              	.LBB591:
 1265              		.loc 2 72 19 view .LVU365
 1266 0044 2B70     		strb	r3, [r5]
 1267              	.LBE591:
 1268              	.LBE594:
 141:SynthVoice.cpp ****     mode = (mode % 3 + 3) % 3;
 1269              		.loc 17 141 5 is_stmt 1 view .LVU366
 1270              	.LVL44:
  41:../../libdaisy/src/hid/encoder.h ****     /** Returns true if the encoder was just pressed.
 1271              		.loc 11 41 40 view .LVU367
 1272              		.loc 17 142 5 view .LVU368
 1273              		.loc 17 142 18 is_stmt 0 view .LVU369
 1274 0046 A1EBE273 		sub	r3, r1, r2, asr #31
 1275 004a 03EB4303 		add	r3, r3, r3, lsl #1
 1276 004e D21A     		subs	r2, r2, r3
 1277              		.loc 17 142 22 view .LVU370
ARM GAS  /tmp/ccmhSQ6q.s 			page 44


 1278 0050 0332     		adds	r2, r2, #3
 1279              		.loc 17 142 27 view .LVU371
 1280 0052 A0FB0213 		umull	r1, r3, r0, r2
 1281 0056 23F00101 		bic	r1, r3, #1
 1282 005a 01EB5303 		add	r3, r1, r3, lsr #1
 1283 005e D21A     		subs	r2, r2, r3
 1284              		.loc 17 142 10 view .LVU372
 1285 0060 2260     		str	r2, [r4]
 143:SynthVoice.cpp **** }
 1286              		.loc 17 143 1 view .LVU373
 1287 0062 30BC     		pop	{r4, r5}
 1288              		.cfi_remember_state
 1289              		.cfi_restore 5
 1290              		.cfi_restore 4
 1291              		.cfi_def_cfa_offset 0
 1292 0064 7047     		bx	lr
 1293              	.LVL45:
 1294              	.L26:
 1295              		.cfi_restore_state
 136:SynthVoice.cpp ****     }
 1296              		.loc 17 136 9 is_stmt 1 view .LVU374
 136:SynthVoice.cpp ****     }
 1297              		.loc 17 136 14 is_stmt 0 view .LVU375
 1298 0066 0423     		movs	r3, #4
 1299 0068 0360     		str	r3, [r0]
 139:SynthVoice.cpp **** 
 1300              		.loc 17 139 5 is_stmt 1 view .LVU376
 1301              	.LVL46:
 1302              	.LBB595:
  70:../../DaisySP/Source/Synthesis/oscillator.h ****     {
 1303              		.loc 2 70 17 view .LVU377
 1304              	.LBB592:
 1305              		.loc 2 72 9 view .LVU378
 1306 006a E2E7     		b	.L24
 1307              	.L28:
 1308              		.align	2
 1309              	.L27:
 1310 006c 00000000 		.word	.LANCHOR17
 1311 0070 00000000 		.word	_ZL3pod
 1312 0074 67666666 		.word	1717986919
 1313 0078 00000000 		.word	.LANCHOR6
 1314 007c 56555555 		.word	1431655766
 1315 0080 00000000 		.word	.LANCHOR4
 1316 0084 ABAAAAAA 		.word	-1431655765
 1317              	.LBE592:
 1318              	.LBE595:
 1319              		.cfi_endproc
 1320              	.LFE4223:
 1322              		.section	.text._Z11UpdateKnobsv,"ax",%progbits
 1323              		.align	1
 1324              		.p2align 2,,3
 1325              		.global	_Z11UpdateKnobsv
 1326              		.syntax unified
 1327              		.thumb
 1328              		.thumb_func
 1329              		.fpu fpv5-d16
 1331              	_Z11UpdateKnobsv:
ARM GAS  /tmp/ccmhSQ6q.s 			page 45


 1332              	.LFB4224:
 144:SynthVoice.cpp **** 
 145:SynthVoice.cpp **** void UpdateKnobs()
 146:SynthVoice.cpp **** {
 1333              		.loc 17 146 1 view -0
 1334              		.cfi_startproc
 1335              		@ args = 0, pretend = 0, frame = 0
 1336              		@ frame_needed = 0, uses_anonymous_args = 0
 147:SynthVoice.cpp ****     k1 = pod.knob1.Process();
 1337              		.loc 17 147 5 view .LVU380
 146:SynthVoice.cpp ****     k1 = pod.knob1.Process();
 1338              		.loc 17 146 1 is_stmt 0 view .LVU381
 1339 0000 70B5     		push	{r4, r5, r6, lr}
 1340              		.cfi_def_cfa_offset 16
 1341              		.cfi_offset 4, -16
 1342              		.cfi_offset 5, -12
 1343              		.cfi_offset 6, -8
 1344              		.cfi_offset 14, -4
 1345              		.loc 17 147 27 view .LVU382
 1346 0002 6948     		ldr	r0, .L52+8
 1347              		.loc 17 147 8 view .LVU383
 1348 0004 694D     		ldr	r5, .L52+12
 148:SynthVoice.cpp ****     k2 = pod.knob2.Process();
 1349              		.loc 17 148 8 view .LVU384
 1350 0006 6A4C     		ldr	r4, .L52+16
 146:SynthVoice.cpp ****     k1 = pod.knob1.Process();
 1351              		.loc 17 146 1 view .LVU385
 1352 0008 2DED028B 		vpush.64	{d8}
 1353              		.cfi_def_cfa_offset 24
 1354              		.cfi_offset 80, -24
 1355              		.cfi_offset 81, -20
 147:SynthVoice.cpp ****     k1 = pod.knob1.Process();
 1356              		.loc 17 147 27 view .LVU386
 1357 000c FFF7FEFF 		bl	_ZN5daisy13AnalogControl7ProcessEv
 1358              	.LVL47:
 1359              		.loc 17 148 27 view .LVU387
 1360 0010 6848     		ldr	r0, .L52+20
 147:SynthVoice.cpp ****     k1 = pod.knob1.Process();
 1361              		.loc 17 147 8 view .LVU388
 1362 0012 85ED000A 		vstr.32	s0, [r5]
 1363              		.loc 17 148 5 is_stmt 1 view .LVU389
 1364              		.loc 17 148 27 is_stmt 0 view .LVU390
 1365 0016 FFF7FEFF 		bl	_ZN5daisy13AnalogControl7ProcessEv
 1366              	.LVL48:
 149:SynthVoice.cpp **** 
 150:SynthVoice.cpp ****     switch(mode)
 1367              		.loc 17 150 5 view .LVU391
 1368 001a 674B     		ldr	r3, .L52+24
 148:SynthVoice.cpp ****     k2 = pod.knob2.Process();
 1369              		.loc 17 148 8 view .LVU392
 1370 001c 84ED000A 		vstr.32	s0, [r4]
 1371              		.loc 17 150 5 is_stmt 1 view .LVU393
 1372 0020 1B68     		ldr	r3, [r3]
 1373 0022 012B     		cmp	r3, #1
 1374 0024 06D0     		beq	.L30
 1375 0026 022B     		cmp	r3, #2
 1376 0028 74D0     		beq	.L31
ARM GAS  /tmp/ccmhSQ6q.s 			page 46


 1377 002a 002B     		cmp	r3, #0
 1378 002c 3CD0     		beq	.L51
 151:SynthVoice.cpp ****     {
 152:SynthVoice.cpp ****         case 0:
 153:SynthVoice.cpp ****             ConditionalParameter(oldk1, k1, cutoff, cutoffParam.Process());
 154:SynthVoice.cpp ****             ConditionalParameter(oldk2, k2, oscFreq, pitchParam.Process());
 155:SynthVoice.cpp ****             flt.SetFreq(cutoff);
 156:SynthVoice.cpp ****             break;
 157:SynthVoice.cpp ****         case 1:
 158:SynthVoice.cpp ****             ConditionalParameter(oldk1, k1, attack, pod.knob1.Process());
 159:SynthVoice.cpp ****             ConditionalParameter(oldk2, k2, release, pod.knob2.Process());
 160:SynthVoice.cpp ****             ad.SetTime(ADENV_SEG_ATTACK, attack);
 161:SynthVoice.cpp ****             ad.SetTime(ADENV_SEG_DECAY, release);
 162:SynthVoice.cpp ****             break;
 163:SynthVoice.cpp ****         case 2:
 164:SynthVoice.cpp ****             ConditionalParameter(oldk1, k1, lfoFreq, lfoParam.Process());
 165:SynthVoice.cpp ****             ConditionalParameter(oldk2, k2, lfoAmp, pod.knob2.Process());
 166:SynthVoice.cpp ****             lfo.SetFreq(lfoFreq);
 167:SynthVoice.cpp ****             lfo.SetAmp(lfoAmp * 100);
 168:SynthVoice.cpp ****         default: break;
 169:SynthVoice.cpp ****     }
 170:SynthVoice.cpp **** }
 1379              		.loc 17 170 1 is_stmt 0 view .LVU394
 1380 002e BDEC028B 		vldm	sp!, {d8}
 1381              		.cfi_remember_state
 1382              		.cfi_restore 80
 1383              		.cfi_restore 81
 1384              		.cfi_def_cfa_offset 16
 1385 0032 70BD     		pop	{r4, r5, r6, pc}
 1386              	.L30:
 1387              		.cfi_restore_state
 157:SynthVoice.cpp ****             ConditionalParameter(oldk1, k1, attack, pod.knob1.Process());
 1388              		.loc 17 157 9 is_stmt 1 view .LVU395
 158:SynthVoice.cpp ****             ConditionalParameter(oldk2, k2, release, pod.knob2.Process());
 1389              		.loc 17 158 13 view .LVU396
 158:SynthVoice.cpp ****             ConditionalParameter(oldk2, k2, release, pod.knob2.Process());
 1390              		.loc 17 158 33 is_stmt 0 view .LVU397
 1391 0034 614B     		ldr	r3, .L52+28
 1392 0036 D5ED008A 		vldr.32	s17, [r5]
 1393 003a 93ED008A 		vldr.32	s16, [r3]
 1394 003e 5A48     		ldr	r0, .L52+8
 1395 0040 FFF7FEFF 		bl	_ZN5daisy13AnalogControl7ProcessEv
 1396              	.LVL49:
 1397              	.LBB596:
 1398              	.LBB597:
 120:SynthVoice.cpp ****     {
 1399              		.loc 17 120 11 view .LVU398
 1400 0044 38EE688A 		vsub.f32	s16, s16, s17
 1401              	.LVL50:
 120:SynthVoice.cpp ****     {
 1402              		.loc 17 120 11 view .LVU399
 1403              	.LBE597:
 1404              	.LBI596:
 115:SynthVoice.cpp ****                           float  newVal,
 1405              		.loc 17 115 6 is_stmt 1 view .LVU400
 1406              	.LBB602:
 120:SynthVoice.cpp ****     {
ARM GAS  /tmp/ccmhSQ6q.s 			page 47


 1407              		.loc 17 120 5 view .LVU401
 1408              	.LBB598:
 1409              	.LBI598:
  75:/usr/include/newlib/c++/9.2.1/bits/std_abs.h ****   { return __builtin_fabsf(__x); }
 1410              		.loc 18 75 3 view .LVU402
 1411              	.LBB599:
 1412              		.loc 18 76 5 view .LVU403
 1413              		.loc 18 76 5 is_stmt 0 view .LVU404
 1414              	.LBE599:
 1415              	.LBE598:
 1416              	.LBE602:
 1417              	.LBE596:
 159:SynthVoice.cpp ****             ad.SetTime(ADENV_SEG_ATTACK, attack);
 1418              		.loc 17 159 33 view .LVU405
 1419 0048 5D4B     		ldr	r3, .L52+32
 1420              	.LBB606:
 1421              	.LBB603:
 122:SynthVoice.cpp ****     }
 1422              		.loc 17 122 15 view .LVU406
 1423 004a 5E4D     		ldr	r5, .L52+36
 122:SynthVoice.cpp ****     }
 1424              		.loc 17 122 9 is_stmt 1 view .LVU407
 1425              	.LBB601:
 1426              	.LBB600:
 1427              		.loc 18 76 31 is_stmt 0 view .LVU408
 1428 004c B0EEC88A 		vabs.f32	s16, s16
 1429              	.LBE600:
 1430              	.LBE601:
 1431              	.LBE603:
 1432              	.LBE606:
 159:SynthVoice.cpp ****             ad.SetTime(ADENV_SEG_ATTACK, attack);
 1433              		.loc 17 159 33 view .LVU409
 1434 0050 5848     		ldr	r0, .L52+20
 1435              	.LBB607:
 1436              	.LBB604:
 120:SynthVoice.cpp ****     {
 1437              		.loc 17 120 5 view .LVU410
 1438 0052 9FED536B 		vldr.64	d6, .L52
 120:SynthVoice.cpp ****     {
 1439              		.loc 17 120 11 view .LVU411
 1440 0056 B7EEC88A 		vcvt.f64.f32	d8, s16
 120:SynthVoice.cpp ****     {
 1441              		.loc 17 120 5 view .LVU412
 1442 005a B4EEC68B 		vcmpe.f64	d8, d6
 1443              	.LBE604:
 1444              	.LBE607:
 159:SynthVoice.cpp ****             ad.SetTime(ADENV_SEG_ATTACK, attack);
 1445              		.loc 17 159 33 view .LVU413
 1446 005e D4ED008A 		vldr.32	s17, [r4]
 1447              	.LVL51:
 159:SynthVoice.cpp ****             ad.SetTime(ADENV_SEG_ATTACK, attack);
 1448              		.loc 17 159 33 view .LVU414
 1449 0062 93ED008A 		vldr.32	s16, [r3]
 1450              	.LBB608:
 1451              	.LBB605:
 120:SynthVoice.cpp ****     {
 1452              		.loc 17 120 5 view .LVU415
ARM GAS  /tmp/ccmhSQ6q.s 			page 48


 1453 0066 F1EE10FA 		vmrs	APSR_nzcv, FPSCR
 122:SynthVoice.cpp ****     }
 1454              		.loc 17 122 15 view .LVU416
 1455 006a C8BF     		it	gt
 1456 006c 85ED000A 		vstrgt.32	s0, [r5]
 1457              	.LVL52:
 122:SynthVoice.cpp ****     }
 1458              		.loc 17 122 15 view .LVU417
 1459              	.LBE605:
 1460              	.LBE608:
 159:SynthVoice.cpp ****             ad.SetTime(ADENV_SEG_ATTACK, attack);
 1461              		.loc 17 159 13 is_stmt 1 view .LVU418
 159:SynthVoice.cpp ****             ad.SetTime(ADENV_SEG_ATTACK, attack);
 1462              		.loc 17 159 33 is_stmt 0 view .LVU419
 1463 0070 FFF7FEFF 		bl	_ZN5daisy13AnalogControl7ProcessEv
 1464              	.LVL53:
 1465              	.LBB609:
 1466              	.LBB610:
 120:SynthVoice.cpp ****     {
 1467              		.loc 17 120 11 view .LVU420
 1468 0074 38EE688A 		vsub.f32	s16, s16, s17
 1469              	.LVL54:
 120:SynthVoice.cpp ****     {
 1470              		.loc 17 120 11 view .LVU421
 1471              	.LBE610:
 1472              	.LBI609:
 115:SynthVoice.cpp ****                           float  newVal,
 1473              		.loc 17 115 6 is_stmt 1 view .LVU422
 1474              	.LBB615:
 120:SynthVoice.cpp ****     {
 1475              		.loc 17 120 5 view .LVU423
 1476              	.LBB611:
 1477              	.LBI611:
  75:/usr/include/newlib/c++/9.2.1/bits/std_abs.h ****   { return __builtin_fabsf(__x); }
 1478              		.loc 18 75 3 view .LVU424
 1479              	.LBB612:
 1480              		.loc 18 76 5 view .LVU425
 1481              		.loc 18 76 5 is_stmt 0 view .LVU426
 1482              	.LBE612:
 1483              	.LBE611:
 122:SynthVoice.cpp ****     }
 1484              		.loc 17 122 15 view .LVU427
 1485 0078 534B     		ldr	r3, .L52+40
 1486              	.LBE615:
 1487              	.LBE609:
 1488              	.LBB618:
 1489              	.LBB619:
  58:../../DaisySP/Source/Control/adenv.h ****     /** Sets the amount of curve applied. A positve value will create a log
 1490              		.loc 1 58 71 view .LVU428
 1491 007a 2A68     		ldr	r2, [r5]	@ float
 1492              	.LBE619:
 1493              	.LBE618:
 1494              	.LBB621:
 1495              	.LBB616:
 1496              	.LBB614:
 1497              	.LBB613:
 1498              		.loc 18 76 31 view .LVU429
ARM GAS  /tmp/ccmhSQ6q.s 			page 49


 1499 007c B0EEC88A 		vabs.f32	s16, s16
 1500              	.LBE613:
 1501              	.LBE614:
 120:SynthVoice.cpp ****     {
 1502              		.loc 17 120 5 view .LVU430
 1503 0080 9FED476B 		vldr.64	d6, .L52
 120:SynthVoice.cpp ****     {
 1504              		.loc 17 120 11 view .LVU431
 1505 0084 B7EEC88A 		vcvt.f64.f32	d8, s16
 120:SynthVoice.cpp ****     {
 1506              		.loc 17 120 5 view .LVU432
 1507 0088 B4EEC68B 		vcmpe.f64	d8, d6
 1508              	.LBE616:
 1509              	.LBE621:
 1510              		.loc 17 170 1 view .LVU433
 1511 008c BDEC028B 		vldm	sp!, {d8}
 1512              		.cfi_remember_state
 1513              		.cfi_restore 80
 1514              		.cfi_restore 81
 1515              		.cfi_def_cfa_offset 16
 1516              	.LBB622:
 1517              	.LBB617:
 120:SynthVoice.cpp ****     {
 1518              		.loc 17 120 5 view .LVU434
 1519 0090 F1EE10FA 		vmrs	APSR_nzcv, FPSCR
 1520 0094 D4BF     		ite	le
 1521 0096 93ED000A 		vldrle.32	s0, [r3]
 1522              	.LVL55:
 122:SynthVoice.cpp ****     }
 1523              		.loc 17 122 9 is_stmt 1 view .LVU435
 122:SynthVoice.cpp ****     }
 1524              		.loc 17 122 15 is_stmt 0 view .LVU436
 1525 009a 83ED000A 		vstrgt.32	s0, [r3]
 1526              	.LVL56:
 122:SynthVoice.cpp ****     }
 1527              		.loc 17 122 15 view .LVU437
 1528              	.LBE617:
 1529              	.LBE622:
 160:SynthVoice.cpp ****             ad.SetTime(ADENV_SEG_DECAY, release);
 1530              		.loc 17 160 13 is_stmt 1 view .LVU438
 1531              	.LBB623:
 1532              	.LBI618:
  58:../../DaisySP/Source/Control/adenv.h ****     /** Sets the amount of curve applied. A positve value will create a log
 1533              		.loc 1 58 17 view .LVU439
 1534              	.LBB620:
  58:../../DaisySP/Source/Control/adenv.h ****     /** Sets the amount of curve applied. A positve value will create a log
 1535              		.loc 1 58 52 view .LVU440
  58:../../DaisySP/Source/Control/adenv.h ****     /** Sets the amount of curve applied. A positve value will create a log
 1536              		.loc 1 58 71 is_stmt 0 view .LVU441
 1537 009e 4B4B     		ldr	r3, .L52+44
 1538 00a0 9A60     		str	r2, [r3, #8]	@ float
 1539              	.LVL57:
  58:../../DaisySP/Source/Control/adenv.h ****     /** Sets the amount of curve applied. A positve value will create a log
 1540              		.loc 1 58 71 view .LVU442
 1541              	.LBE620:
 1542              	.LBE623:
 161:SynthVoice.cpp ****             break;
ARM GAS  /tmp/ccmhSQ6q.s 			page 50


 1543              		.loc 17 161 13 is_stmt 1 view .LVU443
 1544              	.LBB624:
 1545              	.LBI624:
  58:../../DaisySP/Source/Control/adenv.h ****     /** Sets the amount of curve applied. A positve value will create a log
 1546              		.loc 1 58 17 view .LVU444
 1547              	.LBB625:
  58:../../DaisySP/Source/Control/adenv.h ****     /** Sets the amount of curve applied. A positve value will create a log
 1548              		.loc 1 58 52 view .LVU445
  58:../../DaisySP/Source/Control/adenv.h ****     /** Sets the amount of curve applied. A positve value will create a log
 1549              		.loc 1 58 71 is_stmt 0 view .LVU446
 1550 00a2 83ED030A 		vstr.32	s0, [r3, #12]
 1551              	.LBE625:
 1552              	.LBE624:
 1553              		.loc 17 170 1 view .LVU447
 1554 00a6 70BD     		pop	{r4, r5, r6, pc}
 1555              	.LVL58:
 1556              	.L51:
 1557              		.cfi_restore_state
 152:SynthVoice.cpp ****             ConditionalParameter(oldk1, k1, cutoff, cutoffParam.Process());
 1558              		.loc 17 152 9 is_stmt 1 view .LVU448
 153:SynthVoice.cpp ****             ConditionalParameter(oldk2, k2, oscFreq, pitchParam.Process());
 1559              		.loc 17 153 13 view .LVU449
 153:SynthVoice.cpp ****             ConditionalParameter(oldk2, k2, oscFreq, pitchParam.Process());
 1560              		.loc 17 153 33 is_stmt 0 view .LVU450
 1561 00a8 444B     		ldr	r3, .L52+28
 1562 00aa D5ED008A 		vldr.32	s17, [r5]
 1563 00ae 93ED008A 		vldr.32	s16, [r3]
 1564 00b2 4748     		ldr	r0, .L52+48
 1565 00b4 FFF7FEFF 		bl	_ZN5daisy9Parameter7ProcessEv
 1566              	.LVL59:
 1567              	.LBB626:
 1568              	.LBB627:
 120:SynthVoice.cpp ****     {
 1569              		.loc 17 120 11 view .LVU451
 1570 00b8 38EE688A 		vsub.f32	s16, s16, s17
 1571              	.LVL60:
 120:SynthVoice.cpp ****     {
 1572              		.loc 17 120 11 view .LVU452
 1573              	.LBE627:
 1574              	.LBI626:
 115:SynthVoice.cpp ****                           float  newVal,
 1575              		.loc 17 115 6 is_stmt 1 view .LVU453
 1576              	.LBB632:
 120:SynthVoice.cpp ****     {
 1577              		.loc 17 120 5 view .LVU454
 1578              	.LBB628:
 1579              	.LBI628:
  75:/usr/include/newlib/c++/9.2.1/bits/std_abs.h ****   { return __builtin_fabsf(__x); }
 1580              		.loc 18 75 3 view .LVU455
 1581              	.LBB629:
 1582              		.loc 18 76 5 view .LVU456
 1583              		.loc 18 76 5 is_stmt 0 view .LVU457
 1584              	.LBE629:
 1585              	.LBE628:
 1586              	.LBE632:
 1587              	.LBE626:
 154:SynthVoice.cpp ****             flt.SetFreq(cutoff);
ARM GAS  /tmp/ccmhSQ6q.s 			page 51


 1588              		.loc 17 154 33 view .LVU458
 1589 00bc 404B     		ldr	r3, .L52+32
 1590              	.LBB636:
 1591              	.LBB633:
 122:SynthVoice.cpp ****     }
 1592              		.loc 17 122 15 view .LVU459
 1593 00be 454D     		ldr	r5, .L52+52
 122:SynthVoice.cpp ****     }
 1594              		.loc 17 122 9 is_stmt 1 view .LVU460
 1595              	.LBB631:
 1596              	.LBB630:
 1597              		.loc 18 76 31 is_stmt 0 view .LVU461
 1598 00c0 B0EEC88A 		vabs.f32	s16, s16
 1599              	.LBE630:
 1600              	.LBE631:
 1601              	.LBE633:
 1602              	.LBE636:
 154:SynthVoice.cpp ****             flt.SetFreq(cutoff);
 1603              		.loc 17 154 33 view .LVU462
 1604 00c4 4448     		ldr	r0, .L52+56
 1605              	.LBB637:
 1606              	.LBB634:
 120:SynthVoice.cpp ****     {
 1607              		.loc 17 120 5 view .LVU463
 1608 00c6 9FED366B 		vldr.64	d6, .L52
 120:SynthVoice.cpp ****     {
 1609              		.loc 17 120 11 view .LVU464
 1610 00ca B7EEC88A 		vcvt.f64.f32	d8, s16
 120:SynthVoice.cpp ****     {
 1611              		.loc 17 120 5 view .LVU465
 1612 00ce B4EEC68B 		vcmpe.f64	d8, d6
 1613              	.LBE634:
 1614              	.LBE637:
 154:SynthVoice.cpp ****             flt.SetFreq(cutoff);
 1615              		.loc 17 154 33 view .LVU466
 1616 00d2 D4ED008A 		vldr.32	s17, [r4]
 1617              	.LVL61:
 154:SynthVoice.cpp ****             flt.SetFreq(cutoff);
 1618              		.loc 17 154 33 view .LVU467
 1619 00d6 93ED008A 		vldr.32	s16, [r3]
 1620              	.LBB638:
 1621              	.LBB635:
 120:SynthVoice.cpp ****     {
 1622              		.loc 17 120 5 view .LVU468
 1623 00da F1EE10FA 		vmrs	APSR_nzcv, FPSCR
 122:SynthVoice.cpp ****     }
 1624              		.loc 17 122 15 view .LVU469
 1625 00de C8BF     		it	gt
 1626 00e0 85ED000A 		vstrgt.32	s0, [r5]
 1627              	.LVL62:
 122:SynthVoice.cpp ****     }
 1628              		.loc 17 122 15 view .LVU470
 1629              	.LBE635:
 1630              	.LBE638:
 154:SynthVoice.cpp ****             flt.SetFreq(cutoff);
 1631              		.loc 17 154 13 is_stmt 1 view .LVU471
 154:SynthVoice.cpp ****             flt.SetFreq(cutoff);
ARM GAS  /tmp/ccmhSQ6q.s 			page 52


 1632              		.loc 17 154 33 is_stmt 0 view .LVU472
 1633 00e4 FFF7FEFF 		bl	_ZN5daisy9Parameter7ProcessEv
 1634              	.LVL63:
 1635              	.LBB639:
 1636              	.LBB640:
 120:SynthVoice.cpp ****     {
 1637              		.loc 17 120 11 view .LVU473
 1638 00e8 38EE688A 		vsub.f32	s16, s16, s17
 1639              	.LVL64:
 120:SynthVoice.cpp ****     {
 1640              		.loc 17 120 11 view .LVU474
 1641              	.LBE640:
 1642              	.LBI639:
 115:SynthVoice.cpp ****                           float  newVal,
 1643              		.loc 17 115 6 is_stmt 1 view .LVU475
 1644              	.LBB645:
 120:SynthVoice.cpp ****     {
 1645              		.loc 17 120 5 view .LVU476
 1646              	.LBB641:
 1647              	.LBI641:
  75:/usr/include/newlib/c++/9.2.1/bits/std_abs.h ****   { return __builtin_fabsf(__x); }
 1648              		.loc 18 75 3 view .LVU477
 1649              	.LBB642:
 1650              		.loc 18 76 5 view .LVU478
 1651              		.loc 18 76 5 is_stmt 0 view .LVU479
 1652              	.LBE642:
 1653              	.LBE641:
 120:SynthVoice.cpp ****     {
 1654              		.loc 17 120 5 view .LVU480
 1655 00ec 9FED2C6B 		vldr.64	d6, .L52
 1656              	.LBB644:
 1657              	.LBB643:
 1658              		.loc 18 76 31 view .LVU481
 1659 00f0 B0EEC88A 		vabs.f32	s16, s16
 1660              	.LBE643:
 1661              	.LBE644:
 120:SynthVoice.cpp ****     {
 1662              		.loc 17 120 11 view .LVU482
 1663 00f4 B7EEC88A 		vcvt.f64.f32	d8, s16
 120:SynthVoice.cpp ****     {
 1664              		.loc 17 120 5 view .LVU483
 1665 00f8 B4EEC68B 		vcmpe.f64	d8, d6
 1666 00fc F1EE10FA 		vmrs	APSR_nzcv, FPSCR
 1667 0100 02DD     		ble	.L35
 122:SynthVoice.cpp ****     }
 1668              		.loc 17 122 9 is_stmt 1 view .LVU484
 122:SynthVoice.cpp ****     }
 1669              		.loc 17 122 15 is_stmt 0 view .LVU485
 1670 0102 364B     		ldr	r3, .L52+60
 1671 0104 83ED000A 		vstr.32	s0, [r3]
 1672              	.L35:
 1673              	.LVL65:
 122:SynthVoice.cpp ****     }
 1674              		.loc 17 122 15 view .LVU486
 1675              	.LBE645:
 1676              	.LBE639:
 155:SynthVoice.cpp ****             break;
ARM GAS  /tmp/ccmhSQ6q.s 			page 53


 1677              		.loc 17 155 13 is_stmt 1 view .LVU487
 1678              	.LBB646:
 1679              	.LBI646:
  37:../../DaisySP/Source/Filters/moogladder.h ****     /** 
 1680              		.loc 3 37 17 view .LVU488
 1681              	.LBB647:
  37:../../DaisySP/Source/Filters/moogladder.h ****     /** 
 1682              		.loc 3 37 39 view .LVU489
  37:../../DaisySP/Source/Filters/moogladder.h ****     /** 
 1683              		.loc 3 37 45 is_stmt 0 view .LVU490
 1684 0108 2A68     		ldr	r2, [r5]	@ float
 1685 010a 354B     		ldr	r3, .L52+64
 1686              	.LBE647:
 1687              	.LBE646:
 1688              		.loc 17 170 1 view .LVU491
 1689 010c BDEC028B 		vldm	sp!, {d8}
 1690              		.cfi_remember_state
 1691              		.cfi_restore 80
 1692              		.cfi_restore 81
 1693              		.cfi_def_cfa_offset 16
 1694              	.LBB649:
 1695              	.LBB648:
  37:../../DaisySP/Source/Filters/moogladder.h ****     /** 
 1696              		.loc 3 37 45 view .LVU492
 1697 0110 9A60     		str	r2, [r3, #8]	@ float
 1698              	.LBE648:
 1699              	.LBE649:
 1700              		.loc 17 170 1 view .LVU493
 1701 0112 70BD     		pop	{r4, r5, r6, pc}
 1702              	.LVL66:
 1703              	.L31:
 1704              		.cfi_restore_state
 163:SynthVoice.cpp ****             ConditionalParameter(oldk1, k1, lfoFreq, lfoParam.Process());
 1705              		.loc 17 163 9 is_stmt 1 view .LVU494
 164:SynthVoice.cpp ****             ConditionalParameter(oldk2, k2, lfoAmp, pod.knob2.Process());
 1706              		.loc 17 164 13 view .LVU495
 164:SynthVoice.cpp ****             ConditionalParameter(oldk2, k2, lfoAmp, pod.knob2.Process());
 1707              		.loc 17 164 33 is_stmt 0 view .LVU496
 1708 0114 294B     		ldr	r3, .L52+28
 1709 0116 D5ED008A 		vldr.32	s17, [r5]
 1710 011a 93ED008A 		vldr.32	s16, [r3]
 1711 011e 3148     		ldr	r0, .L52+68
 1712 0120 FFF7FEFF 		bl	_ZN5daisy9Parameter7ProcessEv
 1713              	.LVL67:
 1714              	.LBB650:
 1715              	.LBB651:
 120:SynthVoice.cpp ****     {
 1716              		.loc 17 120 11 view .LVU497
 1717 0124 38EE688A 		vsub.f32	s16, s16, s17
 1718              	.LVL68:
 120:SynthVoice.cpp ****     {
 1719              		.loc 17 120 11 view .LVU498
 1720              	.LBE651:
 1721              	.LBI650:
 115:SynthVoice.cpp ****                           float  newVal,
 1722              		.loc 17 115 6 is_stmt 1 view .LVU499
 1723              	.LBB656:
ARM GAS  /tmp/ccmhSQ6q.s 			page 54


 120:SynthVoice.cpp ****     {
 1724              		.loc 17 120 5 view .LVU500
 1725              	.LBB652:
 1726              	.LBI652:
  75:/usr/include/newlib/c++/9.2.1/bits/std_abs.h ****   { return __builtin_fabsf(__x); }
 1727              		.loc 18 75 3 view .LVU501
 1728              	.LBB653:
 1729              		.loc 18 76 5 view .LVU502
 1730              		.loc 18 76 5 is_stmt 0 view .LVU503
 1731              	.LBE653:
 1732              	.LBE652:
 1733              	.LBE656:
 1734              	.LBE650:
 165:SynthVoice.cpp ****             lfo.SetFreq(lfoFreq);
 1735              		.loc 17 165 33 view .LVU504
 1736 0128 254B     		ldr	r3, .L52+32
 1737              	.LBB660:
 1738              	.LBB657:
 122:SynthVoice.cpp ****     }
 1739              		.loc 17 122 15 view .LVU505
 1740 012a 2F4E     		ldr	r6, .L52+72
 122:SynthVoice.cpp ****     }
 1741              		.loc 17 122 9 is_stmt 1 view .LVU506
 1742              	.LBB655:
 1743              	.LBB654:
 1744              		.loc 18 76 31 is_stmt 0 view .LVU507
 1745 012c B0EEC88A 		vabs.f32	s16, s16
 1746              	.LBE654:
 1747              	.LBE655:
 1748              	.LBE657:
 1749              	.LBE660:
 165:SynthVoice.cpp ****             lfo.SetFreq(lfoFreq);
 1750              		.loc 17 165 33 view .LVU508
 1751 0130 2048     		ldr	r0, .L52+20
 1752              	.LBB661:
 1753              	.LBB662:
 122:SynthVoice.cpp ****     }
 1754              		.loc 17 122 15 view .LVU509
 1755 0132 2E4D     		ldr	r5, .L52+76
 1756              	.LBE662:
 1757              	.LBE661:
 1758              	.LBB670:
 1759              	.LBB658:
 120:SynthVoice.cpp ****     {
 1760              		.loc 17 120 5 view .LVU510
 1761 0134 9FED1A6B 		vldr.64	d6, .L52
 120:SynthVoice.cpp ****     {
 1762              		.loc 17 120 11 view .LVU511
 1763 0138 B7EEC88A 		vcvt.f64.f32	d8, s16
 120:SynthVoice.cpp ****     {
 1764              		.loc 17 120 5 view .LVU512
 1765 013c B4EEC68B 		vcmpe.f64	d8, d6
 1766              	.LBE658:
 1767              	.LBE670:
 165:SynthVoice.cpp ****             lfo.SetFreq(lfoFreq);
 1768              		.loc 17 165 33 view .LVU513
 1769 0140 D4ED008A 		vldr.32	s17, [r4]
ARM GAS  /tmp/ccmhSQ6q.s 			page 55


 1770              	.LVL69:
 165:SynthVoice.cpp ****             lfo.SetFreq(lfoFreq);
 1771              		.loc 17 165 33 view .LVU514
 1772 0144 93ED008A 		vldr.32	s16, [r3]
 1773              	.LBB671:
 1774              	.LBB672:
  60:../../DaisySP/Source/Synthesis/oscillator.h ****         phase_inc_ = CalcPhaseInc(f);
 1775              		.loc 2 60 20 view .LVU515
 1776 0148 294C     		ldr	r4, .L52+80
 1777              	.LBE672:
 1778              	.LBE671:
 1779              	.LBB676:
 1780              	.LBB659:
 120:SynthVoice.cpp ****     {
 1781              		.loc 17 120 5 view .LVU516
 1782 014a F1EE10FA 		vmrs	APSR_nzcv, FPSCR
 122:SynthVoice.cpp ****     }
 1783              		.loc 17 122 15 view .LVU517
 1784 014e C8BF     		it	gt
 1785 0150 86ED000A 		vstrgt.32	s0, [r6]
 1786              	.LVL70:
 122:SynthVoice.cpp ****     }
 1787              		.loc 17 122 15 view .LVU518
 1788              	.LBE659:
 1789              	.LBE676:
 165:SynthVoice.cpp ****             lfo.SetFreq(lfoFreq);
 1790              		.loc 17 165 13 is_stmt 1 view .LVU519
 165:SynthVoice.cpp ****             lfo.SetFreq(lfoFreq);
 1791              		.loc 17 165 33 is_stmt 0 view .LVU520
 1792 0154 FFF7FEFF 		bl	_ZN5daisy13AnalogControl7ProcessEv
 1793              	.LVL71:
 1794              	.LBB677:
 1795              	.LBB667:
 120:SynthVoice.cpp ****     {
 1796              		.loc 17 120 11 view .LVU521
 1797 0158 38EE688A 		vsub.f32	s16, s16, s17
 1798              	.LVL72:
 120:SynthVoice.cpp ****     {
 1799              		.loc 17 120 11 view .LVU522
 1800              	.LBE667:
 1801              	.LBI661:
 115:SynthVoice.cpp ****                           float  newVal,
 1802              		.loc 17 115 6 is_stmt 1 view .LVU523
 1803              	.LBB668:
 120:SynthVoice.cpp ****     {
 1804              		.loc 17 120 5 view .LVU524
 1805              	.LBB663:
 1806              	.LBI663:
  75:/usr/include/newlib/c++/9.2.1/bits/std_abs.h ****   { return __builtin_fabsf(__x); }
 1807              		.loc 18 75 3 view .LVU525
 1808              	.LBB664:
 1809              		.loc 18 76 5 view .LVU526
 1810              		.loc 18 76 5 is_stmt 0 view .LVU527
 1811              	.LBE664:
 1812              	.LBE663:
 122:SynthVoice.cpp ****     }
 1813              		.loc 17 122 9 is_stmt 1 view .LVU528
ARM GAS  /tmp/ccmhSQ6q.s 			page 56


 122:SynthVoice.cpp ****     }
 1814              		.loc 17 122 9 is_stmt 0 view .LVU529
 1815              	.LBE668:
 1816              	.LBE677:
 166:SynthVoice.cpp ****             lfo.SetAmp(lfoAmp * 100);
 1817              		.loc 17 166 13 is_stmt 1 view .LVU530
 1818              	.LBB678:
 1819              	.LBB673:
  61:../../DaisySP/Source/Synthesis/oscillator.h ****     }
 1820              		.loc 2 61 34 is_stmt 0 view .LVU531
 1821 015c 2046     		mov	r0, r4
 1822              	.LBE673:
 1823              	.LBE678:
 1824              	.LBB679:
 1825              	.LBB669:
 120:SynthVoice.cpp ****     {
 1826              		.loc 17 120 5 view .LVU532
 1827 015e 9FED106B 		vldr.64	d6, .L52
 1828              	.LBB666:
 1829              	.LBB665:
 1830              		.loc 18 76 31 view .LVU533
 1831 0162 B0EEC88A 		vabs.f32	s16, s16
 1832              	.LBE665:
 1833              	.LBE666:
 120:SynthVoice.cpp ****     {
 1834              		.loc 17 120 11 view .LVU534
 1835 0166 B7EEC88A 		vcvt.f64.f32	d8, s16
 120:SynthVoice.cpp ****     {
 1836              		.loc 17 120 5 view .LVU535
 1837 016a B4EEC68B 		vcmpe.f64	d8, d6
 1838 016e F1EE10FA 		vmrs	APSR_nzcv, FPSCR
 122:SynthVoice.cpp ****     }
 1839              		.loc 17 122 15 view .LVU536
 1840 0172 C8BF     		it	gt
 1841 0174 85ED000A 		vstrgt.32	s0, [r5]
 1842              	.LBE669:
 1843              	.LBE679:
 166:SynthVoice.cpp ****             lfo.SetAmp(lfoAmp * 100);
 1844              		.loc 17 166 24 view .LVU537
 1845 0178 96ED000A 		vldr.32	s0, [r6]
 1846              	.LVL73:
 1847              	.LBB680:
 1848              	.LBI671:
  58:../../DaisySP/Source/Synthesis/oscillator.h ****     {
 1849              		.loc 2 58 17 is_stmt 1 view .LVU538
 1850              	.LBB674:
  60:../../DaisySP/Source/Synthesis/oscillator.h ****         phase_inc_ = CalcPhaseInc(f);
 1851              		.loc 2 60 9 view .LVU539
  60:../../DaisySP/Source/Synthesis/oscillator.h ****         phase_inc_ = CalcPhaseInc(f);
 1852              		.loc 2 60 20 is_stmt 0 view .LVU540
 1853 017c 84ED020A 		vstr.32	s0, [r4, #8]
  61:../../DaisySP/Source/Synthesis/oscillator.h ****     }
 1854              		.loc 2 61 9 is_stmt 1 view .LVU541
  61:../../DaisySP/Source/Synthesis/oscillator.h ****     }
 1855              		.loc 2 61 34 is_stmt 0 view .LVU542
 1856 0180 FFF7FEFF 		bl	_ZN7daisysp10Oscillator12CalcPhaseIncEf
 1857              	.LVL74:
ARM GAS  /tmp/ccmhSQ6q.s 			page 57


  61:../../DaisySP/Source/Synthesis/oscillator.h ****     }
 1858              		.loc 2 61 34 view .LVU543
 1859              	.LBE674:
 1860              	.LBE680:
 167:SynthVoice.cpp ****         default: break;
 1861              		.loc 17 167 23 view .LVU544
 1862 0184 D5ED007A 		vldr.32	s15, [r5]
 1863 0188 9FED1A7A 		vldr.32	s14, .L52+84
 1864              	.LBB681:
 1865              	.LBB675:
  61:../../DaisySP/Source/Synthesis/oscillator.h ****     }
 1866              		.loc 2 61 20 view .LVU545
 1867 018c 84ED060A 		vstr.32	s0, [r4, #24]
 1868              	.LVL75:
  61:../../DaisySP/Source/Synthesis/oscillator.h ****     }
 1869              		.loc 2 61 20 view .LVU546
 1870              	.LBE675:
 1871              	.LBE681:
 167:SynthVoice.cpp ****         default: break;
 1872              		.loc 17 167 13 is_stmt 1 view .LVU547
 1873              	.LBB682:
 1874              	.LBI682:
  67:../../DaisySP/Source/Synthesis/oscillator.h ****     /** Sets the waveform to be synthesized by the Process() function.
 1875              		.loc 2 67 17 view .LVU548
 1876              	.LBB683:
  67:../../DaisySP/Source/Synthesis/oscillator.h ****     /** Sets the waveform to be synthesized by the Process() function.
 1877              		.loc 2 67 41 view .LVU549
 1878              	.LBE683:
 1879              	.LBE682:
 167:SynthVoice.cpp ****         default: break;
 1880              		.loc 17 167 23 is_stmt 0 view .LVU550
 1881 0190 67EE877A 		vmul.f32	s15, s15, s14
 1882              	.LVL76:
 1883              		.loc 17 170 1 view .LVU551
 1884 0194 BDEC028B 		vldm	sp!, {d8}
 1885              		.cfi_restore 80
 1886              		.cfi_restore 81
 1887              		.cfi_def_cfa_offset 16
 1888              	.LBB685:
 1889              	.LBB684:
  67:../../DaisySP/Source/Synthesis/oscillator.h ****     /** Sets the waveform to be synthesized by the Process() function.
 1890              		.loc 2 67 46 view .LVU552
 1891 0198 C4ED017A 		vstr.32	s15, [r4, #4]
 1892              	.LVL77:
  67:../../DaisySP/Source/Synthesis/oscillator.h ****     /** Sets the waveform to be synthesized by the Process() function.
 1893              		.loc 2 67 46 view .LVU553
 1894              	.LBE684:
 1895              	.LBE685:
 1896              		.loc 17 170 1 view .LVU554
 1897 019c 70BD     		pop	{r4, r5, r6, pc}
 1898              	.L53:
 1899 019e 00BF     		.align	3
 1900              	.L52:
 1901 01a0 FCA9F1D2 		.word	3539053052
 1902 01a4 4D62403F 		.word	1061184077
 1903 01a8 5C000000 		.word	_ZL3pod+92
 1904 01ac 00000000 		.word	.LANCHOR10
ARM GAS  /tmp/ccmhSQ6q.s 			page 58


 1905 01b0 00000000 		.word	.LANCHOR9
 1906 01b4 7C000000 		.word	_ZL3pod+124
 1907 01b8 00000000 		.word	.LANCHOR6
 1908 01bc 00000000 		.word	.LANCHOR8
 1909 01c0 00000000 		.word	.LANCHOR7
 1910 01c4 00000000 		.word	.LANCHOR11
 1911 01c8 00000000 		.word	.LANCHOR12
 1912 01cc 00000000 		.word	.LANCHOR0
 1913 01d0 00000000 		.word	.LANCHOR18
 1914 01d4 00000000 		.word	.LANCHOR13
 1915 01d8 00000000 		.word	.LANCHOR19
 1916 01dc 00000000 		.word	.LANCHOR3
 1917 01e0 00000000 		.word	.LANCHOR5
 1918 01e4 00000000 		.word	.LANCHOR20
 1919 01e8 00000000 		.word	.LANCHOR15
 1920 01ec 00000000 		.word	.LANCHOR14
 1921 01f0 00000000 		.word	.LANCHOR1
 1922 01f4 0000C842 		.word	1120403456
 1923              		.cfi_endproc
 1924              	.LFE4224:
 1926              		.section	.text._Z10UpdateLedsv,"ax",%progbits
 1927              		.align	1
 1928              		.p2align 2,,3
 1929              		.global	_Z10UpdateLedsv
 1930              		.syntax unified
 1931              		.thumb
 1932              		.thumb_func
 1933              		.fpu fpv5-d16
 1935              	_Z10UpdateLedsv:
 1936              	.LFB4225:
 171:SynthVoice.cpp **** 
 172:SynthVoice.cpp **** void UpdateLeds()
 173:SynthVoice.cpp **** {
 1937              		.loc 17 173 1 is_stmt 1 view -0
 1938              		.cfi_startproc
 1939              		@ args = 0, pretend = 0, frame = 0
 1940              		@ frame_needed = 0, uses_anonymous_args = 0
 174:SynthVoice.cpp ****     pod.led1.Set(mode == 2, mode == 1, mode == 0);
 1941              		.loc 17 174 5 view .LVU556
 1942              		.loc 17 174 23 is_stmt 0 view .LVU557
 1943 0000 1E4B     		ldr	r3, .L62
 1944 0002 1B68     		ldr	r3, [r3]
 1945              		.loc 17 174 17 view .LVU558
 1946 0004 022B     		cmp	r3, #2
 173:SynthVoice.cpp ****     pod.led1.Set(mode == 2, mode == 1, mode == 0);
 1947              		.loc 17 173 1 view .LVU559
 1948 0006 10B5     		push	{r4, lr}
 1949              		.cfi_def_cfa_offset 8
 1950              		.cfi_offset 4, -8
 1951              		.cfi_offset 14, -4
 1952              		.loc 17 174 17 view .LVU560
 1953 0008 2CD0     		beq	.L56
 1954              		.loc 17 174 17 discriminator 4 view .LVU561
 1955 000a 012B     		cmp	r3, #1
 1956 000c 06D1     		bne	.L60
 1957              		.loc 17 174 17 view .LVU562
 1958 000e 9FED1C0A 		vldr.32	s0, .L62+4
ARM GAS  /tmp/ccmhSQ6q.s 			page 59


 1959 0012 F7EE000A 		vmov.f32	s1, #1.0e+0
 1960 0016 B0EE401A 		vmov.f32	s2, s0
 1961 001a 06E0     		b	.L55
 1962              	.L60:
 1963              		.loc 17 174 17 discriminator 6 view .LVU563
 1964 001c DFED180A 		vldr.32	s1, .L62+4
 1965 0020 3BBB     		cbnz	r3, .L61
 1966              		.loc 17 174 17 view .LVU564
 1967 0022 B7EE001A 		vmov.f32	s2, #1.0e+0
 1968 0026 B0EE600A 		vmov.f32	s0, s1
 1969              	.L55:
 1970              		.loc 17 174 17 discriminator 12 view .LVU565
 1971 002a 1648     		ldr	r0, .L62+8
 1972 002c FFF7FEFF 		bl	_ZN5daisy6RgbLed3SetEfff
 1973              	.LVL78:
 175:SynthVoice.cpp ****     pod.led2.Set(0, selfCycle, selfCycle);
 1974              		.loc 17 175 5 is_stmt 1 discriminator 12 view .LVU566
 1975              		.loc 17 175 17 is_stmt 0 discriminator 12 view .LVU567
 1976 0030 154B     		ldr	r3, .L62+12
 1977 0032 1648     		ldr	r0, .L62+16
 1978 0034 1B78     		ldrb	r3, [r3]	@ zero_extendqisi2
 1979 0036 9FED120A 		vldr.32	s0, .L62+4
 1980 003a 01EE103A 		vmov	s2, r3	@ int
 1981 003e B8EE411A 		vcvt.f32.u32	s2, s2
 1982 0042 F0EE410A 		vmov.f32	s1, s2
 1983 0046 FFF7FEFF 		bl	_ZN5daisy6RgbLed3SetEfff
 1984              	.LVL79:
 176:SynthVoice.cpp **** 
 177:SynthVoice.cpp ****     oldk1 = k1;
 1985              		.loc 17 177 5 is_stmt 1 discriminator 12 view .LVU568
 1986              		.loc 17 177 11 is_stmt 0 discriminator 12 view .LVU569
 1987 004a 114A     		ldr	r2, .L62+20
 178:SynthVoice.cpp ****     oldk2 = k2;
 1988              		.loc 17 178 11 discriminator 12 view .LVU570
 1989 004c 114B     		ldr	r3, .L62+24
 177:SynthVoice.cpp ****     oldk2 = k2;
 1990              		.loc 17 177 11 discriminator 12 view .LVU571
 1991 004e 1468     		ldr	r4, [r2]	@ float
 1992 0050 1149     		ldr	r1, .L62+28
 1993              		.loc 17 178 11 discriminator 12 view .LVU572
 1994 0052 1A68     		ldr	r2, [r3]	@ float
 1995 0054 114B     		ldr	r3, .L62+32
 177:SynthVoice.cpp ****     oldk2 = k2;
 1996              		.loc 17 177 11 discriminator 12 view .LVU573
 1997 0056 0C60     		str	r4, [r1]	@ float
 1998              		.loc 17 178 5 is_stmt 1 discriminator 12 view .LVU574
 179:SynthVoice.cpp **** 
 180:SynthVoice.cpp ****     pod.UpdateLeds();
 1999              		.loc 17 180 19 is_stmt 0 discriminator 12 view .LVU575
 2000 0058 1148     		ldr	r0, .L62+36
 178:SynthVoice.cpp **** 
 2001              		.loc 17 178 11 discriminator 12 view .LVU576
 2002 005a 1A60     		str	r2, [r3]	@ float
 2003              		.loc 17 180 5 is_stmt 1 discriminator 12 view .LVU577
 181:SynthVoice.cpp **** }
 2004              		.loc 17 181 1 is_stmt 0 discriminator 12 view .LVU578
 2005 005c BDE81040 		pop	{r4, lr}
ARM GAS  /tmp/ccmhSQ6q.s 			page 60


 2006              		.cfi_remember_state
 2007              		.cfi_restore 14
 2008              		.cfi_restore 4
 2009              		.cfi_def_cfa_offset 0
 180:SynthVoice.cpp **** }
 2010              		.loc 17 180 19 discriminator 12 view .LVU579
 2011 0060 FFF7FEBF 		b	_ZN5daisy8DaisyPod10UpdateLedsEv
 2012              	.LVL80:
 2013              	.L56:
 2014              		.cfi_restore_state
 174:SynthVoice.cpp ****     pod.led2.Set(0, selfCycle, selfCycle);
 2015              		.loc 17 174 17 view .LVU580
 2016 0064 DFED060A 		vldr.32	s1, .L62+4
 2017 0068 B7EE000A 		vmov.f32	s0, #1.0e+0
 2018 006c B0EE601A 		vmov.f32	s2, s1
 2019 0070 DBE7     		b	.L55
 2020              	.L61:
 2021 0072 B0EE600A 		vmov.f32	s0, s1
 2022 0076 B0EE601A 		vmov.f32	s2, s1
 2023 007a D6E7     		b	.L55
 2024              	.L63:
 2025              		.align	2
 2026              	.L62:
 2027 007c 00000000 		.word	.LANCHOR6
 2028 0080 00000000 		.word	0
 2029 0084 CC000000 		.word	_ZL3pod+204
 2030 0088 00000000 		.word	.LANCHOR16
 2031 008c 20010000 		.word	_ZL3pod+288
 2032 0090 00000000 		.word	.LANCHOR10
 2033 0094 00000000 		.word	.LANCHOR9
 2034 0098 00000000 		.word	.LANCHOR8
 2035 009c 00000000 		.word	.LANCHOR7
 2036 00a0 00000000 		.word	_ZL3pod
 2037              		.cfi_endproc
 2038              	.LFE4225:
 2040              		.section	.text._Z13UpdateButtonsv,"ax",%progbits
 2041              		.align	1
 2042              		.p2align 2,,3
 2043              		.global	_Z13UpdateButtonsv
 2044              		.syntax unified
 2045              		.thumb
 2046              		.thumb_func
 2047              		.fpu fpv5-d16
 2049              	_Z13UpdateButtonsv:
 2050              	.LFB4226:
 182:SynthVoice.cpp **** 
 183:SynthVoice.cpp **** void UpdateButtons()
 184:SynthVoice.cpp **** {
 2051              		.loc 17 184 1 is_stmt 1 view -0
 2052              		.cfi_startproc
 2053              		@ args = 0, pretend = 0, frame = 0
 2054              		@ frame_needed = 0, uses_anonymous_args = 0
 2055              		@ link register save eliminated.
 185:SynthVoice.cpp ****     if(pod.button1.RisingEdge() || (selfCycle && !ad.IsRunning()))
 2056              		.loc 17 185 5 view .LVU582
 2057              	.LVL81:
 2058              		.loc 10 69 38 view .LVU583
ARM GAS  /tmp/ccmhSQ6q.s 			page 61


 2059              		.loc 17 185 30 is_stmt 0 view .LVU584
 2060 0000 0F4B     		ldr	r3, .L76
 2061              		.loc 17 185 33 view .LVU585
 2062 0002 93F8A920 		ldrb	r2, [r3, #169]	@ zero_extendqisi2
 2063 0006 7F2A     		cmp	r2, #127
 2064 0008 14D0     		beq	.L74
 2065              		.loc 17 185 33 discriminator 2 view .LVU586
 2066 000a 0E4A     		ldr	r2, .L76+4
 2067 000c 1278     		ldrb	r2, [r2]	@ zero_extendqisi2
 2068 000e 4AB9     		cbnz	r2, .L75
 2069              	.L66:
 186:SynthVoice.cpp ****     {
 187:SynthVoice.cpp ****         ad.Trigger();
 188:SynthVoice.cpp ****     }
 189:SynthVoice.cpp **** 
 190:SynthVoice.cpp ****     if(pod.button2.RisingEdge())
 2070              		.loc 17 190 5 is_stmt 1 view .LVU587
 2071              	.LVL82:
 2072              		.loc 10 69 38 view .LVU588
 2073              		.loc 17 190 5 is_stmt 0 view .LVU589
 2074 0010 93F8B930 		ldrb	r3, [r3, #185]	@ zero_extendqisi2
 2075 0014 7F2B     		cmp	r3, #127
 2076 0016 04D1     		bne	.L64
 2077              	.LBB698:
 2078              	.LBI698:
 183:SynthVoice.cpp **** {
 2079              		.loc 17 183 6 is_stmt 1 view .LVU590
 2080              	.LBB699:
 191:SynthVoice.cpp ****     {
 192:SynthVoice.cpp ****         selfCycle = !selfCycle;
 2081              		.loc 17 192 9 view .LVU591
 2082              		.loc 17 192 19 is_stmt 0 view .LVU592
 2083 0018 0A4A     		ldr	r2, .L76+4
 2084              		.loc 17 192 21 view .LVU593
 2085 001a 1378     		ldrb	r3, [r2]	@ zero_extendqisi2
 2086 001c 83F00103 		eor	r3, r3, #1
 2087              		.loc 17 192 19 view .LVU594
 2088 0020 1370     		strb	r3, [r2]
 2089              	.L64:
 2090              	.LBE699:
 2091              	.LBE698:
 193:SynthVoice.cpp ****     }
 194:SynthVoice.cpp **** }
 2092              		.loc 17 194 1 view .LVU595
 2093 0022 7047     		bx	lr
 2094              	.LVL83:
 2095              	.L75:
  71:../../DaisySP/Source/Control/adenv.h ****     /** Returns the current output value without processing the next sample */
  72:../../DaisySP/Source/Control/adenv.h ****     inline float GetValue() const { return (output_ * (max_ - min_)) + min_; }
  73:../../DaisySP/Source/Control/adenv.h ****     /** Returns the segment of the envelope that the phase is currently located
  74:../../DaisySP/Source/Control/adenv.h ****         in.
  75:../../DaisySP/Source/Control/adenv.h ****     */
  76:../../DaisySP/Source/Control/adenv.h ****     inline uint8_t GetCurrentSegment() { return current_segment_; }
  77:../../DaisySP/Source/Control/adenv.h ****     /** Returns true if the envelope is currently in any stage apart from idle.
  78:../../DaisySP/Source/Control/adenv.h ****     */
  79:../../DaisySP/Source/Control/adenv.h ****     inline bool IsRunning() const { return current_segment_ != ADENV_SEG_IDLE; }
 2096              		.loc 1 79 37 is_stmt 1 discriminator 3 view .LVU596
ARM GAS  /tmp/ccmhSQ6q.s 			page 62


 185:SynthVoice.cpp ****     {
 2097              		.loc 17 185 63 is_stmt 0 discriminator 3 view .LVU597
 2098 0024 084A     		ldr	r2, .L76+8
 185:SynthVoice.cpp ****     {
 2099              		.loc 17 185 47 discriminator 3 view .LVU598
 2100 0026 1178     		ldrb	r1, [r2]	@ zero_extendqisi2
 2101 0028 0029     		cmp	r1, #0
 2102 002a F1D1     		bne	.L66
 187:SynthVoice.cpp ****     }
 2103              		.loc 17 187 9 is_stmt 1 discriminator 5 view .LVU599
 2104              	.LBB700:
 2105              	.LBI700:
  56:../../DaisySP/Source/Control/adenv.h ****     /** Sets the length of time (in seconds) for a specific segment. */
 2106              		.loc 1 56 17 discriminator 5 view .LVU600
 2107              	.LVL84:
 2108              	.LBB701:
  56:../../DaisySP/Source/Control/adenv.h ****     /** Sets the length of time (in seconds) for a specific segment. */
 2109              		.loc 1 56 29 discriminator 5 view .LVU601
  56:../../DaisySP/Source/Control/adenv.h ****     /** Sets the length of time (in seconds) for a specific segment. */
 2110              		.loc 1 56 38 is_stmt 0 discriminator 5 view .LVU602
 2111 002c 0121     		movs	r1, #1
 2112 002e 82F83410 		strb	r1, [r2, #52]
  56:../../DaisySP/Source/Control/adenv.h ****     /** Sets the length of time (in seconds) for a specific segment. */
 2113              		.loc 1 56 43 discriminator 5 view .LVU603
 2114 0032 EDE7     		b	.L66
 2115              	.LVL85:
 2116              	.L74:
  56:../../DaisySP/Source/Control/adenv.h ****     /** Sets the length of time (in seconds) for a specific segment. */
 2117              		.loc 1 56 43 discriminator 5 view .LVU604
 2118 0034 044A     		ldr	r2, .L76+8
 2119              	.LBE701:
 2120              	.LBE700:
 187:SynthVoice.cpp ****     }
 2121              		.loc 17 187 9 is_stmt 1 view .LVU605
 2122              	.LBB703:
  56:../../DaisySP/Source/Control/adenv.h ****     /** Sets the length of time (in seconds) for a specific segment. */
 2123              		.loc 1 56 17 view .LVU606
 2124              	.LVL86:
 2125              	.LBB702:
  56:../../DaisySP/Source/Control/adenv.h ****     /** Sets the length of time (in seconds) for a specific segment. */
 2126              		.loc 1 56 29 view .LVU607
  56:../../DaisySP/Source/Control/adenv.h ****     /** Sets the length of time (in seconds) for a specific segment. */
 2127              		.loc 1 56 38 is_stmt 0 view .LVU608
 2128 0036 0121     		movs	r1, #1
 2129 0038 82F83410 		strb	r1, [r2, #52]
 2130 003c E8E7     		b	.L66
 2131              	.L77:
 2132 003e 00BF     		.align	2
 2133              	.L76:
 2134 0040 00000000 		.word	_ZL3pod
 2135 0044 00000000 		.word	.LANCHOR16
 2136 0048 00000000 		.word	.LANCHOR0
 2137              	.LBE702:
 2138              	.LBE703:
 2139              		.cfi_endproc
 2140              	.LFE4226:
 2142              		.section	.text._Z8Controlsv,"ax",%progbits
ARM GAS  /tmp/ccmhSQ6q.s 			page 63


 2143              		.align	1
 2144              		.p2align 2,,3
 2145              		.global	_Z8Controlsv
 2146              		.syntax unified
 2147              		.thumb
 2148              		.thumb_func
 2149              		.fpu fpv5-d16
 2151              	_Z8Controlsv:
 2152              	.LFB4227:
 195:SynthVoice.cpp **** 
 196:SynthVoice.cpp **** void Controls()
 197:SynthVoice.cpp **** {
 2153              		.loc 17 197 1 is_stmt 1 view -0
 2154              		.cfi_startproc
 2155              		@ args = 0, pretend = 0, frame = 0
 2156              		@ frame_needed = 0, uses_anonymous_args = 0
 198:SynthVoice.cpp ****     pod.ProcessAnalogControls();
 2157              		.loc 17 198 5 view .LVU610
 197:SynthVoice.cpp ****     pod.ProcessAnalogControls();
 2158              		.loc 17 197 1 is_stmt 0 view .LVU611
 2159 0000 08B5     		push	{r3, lr}
 2160              		.cfi_def_cfa_offset 8
 2161              		.cfi_offset 3, -8
 2162              		.cfi_offset 14, -4
 2163              		.loc 17 198 30 view .LVU612
 2164 0002 0848     		ldr	r0, .L80
 2165 0004 FFF7FEFF 		bl	_ZN5daisy8DaisyPod21ProcessAnalogControlsEv
 2166              	.LVL87:
 199:SynthVoice.cpp ****     pod.ProcessDigitalControls();
 2167              		.loc 17 199 5 is_stmt 1 view .LVU613
 2168              		.loc 17 199 31 is_stmt 0 view .LVU614
 2169 0008 0648     		ldr	r0, .L80
 2170 000a FFF7FEFF 		bl	_ZN5daisy8DaisyPod22ProcessDigitalControlsEv
 2171              	.LVL88:
 200:SynthVoice.cpp **** 
 201:SynthVoice.cpp ****     UpdateEncoder();
 2172              		.loc 17 201 5 is_stmt 1 view .LVU615
 2173              		.loc 17 201 18 is_stmt 0 view .LVU616
 2174 000e FFF7FEFF 		bl	_Z13UpdateEncoderv
 2175              	.LVL89:
 202:SynthVoice.cpp **** 
 203:SynthVoice.cpp ****     UpdateKnobs();
 2176              		.loc 17 203 5 is_stmt 1 view .LVU617
 2177              		.loc 17 203 16 is_stmt 0 view .LVU618
 2178 0012 FFF7FEFF 		bl	_Z11UpdateKnobsv
 2179              	.LVL90:
 204:SynthVoice.cpp **** 
 205:SynthVoice.cpp ****     UpdateLeds();
 2180              		.loc 17 205 5 is_stmt 1 view .LVU619
 2181              		.loc 17 205 15 is_stmt 0 view .LVU620
 2182 0016 FFF7FEFF 		bl	_Z10UpdateLedsv
 2183              	.LVL91:
 206:SynthVoice.cpp **** 
 207:SynthVoice.cpp ****     UpdateButtons();
 2184              		.loc 17 207 5 is_stmt 1 view .LVU621
 208:SynthVoice.cpp **** }
 2185              		.loc 17 208 1 is_stmt 0 view .LVU622
ARM GAS  /tmp/ccmhSQ6q.s 			page 64


 2186 001a BDE80840 		pop	{r3, lr}
 2187              		.cfi_restore 14
 2188              		.cfi_restore 3
 2189              		.cfi_def_cfa_offset 0
 207:SynthVoice.cpp **** }
 2190              		.loc 17 207 18 view .LVU623
 2191 001e FFF7FEBF 		b	_Z13UpdateButtonsv
 2192              	.LVL92:
 2193              	.L81:
 2194 0022 00BF     		.align	2
 2195              	.L80:
 2196 0024 00000000 		.word	_ZL3pod
 2197              		.cfi_endproc
 2198              	.LFE4227:
 2200              		.section	.text._ZL13AudioCallbackPKfPfj,"ax",%progbits
 2201              		.align	1
 2202              		.p2align 2,,3
 2203              		.syntax unified
 2204              		.thumb
 2205              		.thumb_func
 2206              		.fpu fpv5-d16
 2208              	_ZL13AudioCallbackPKfPfj:
 2209              	.LVL93:
 2210              	.LFB4220:
  40:SynthVoice.cpp ****     Controls();
 2211              		.loc 17 40 1 is_stmt 1 view -0
 2212              		.cfi_startproc
 2213              		@ args = 0, pretend = 0, frame = 8
 2214              		@ frame_needed = 0, uses_anonymous_args = 0
  41:SynthVoice.cpp **** 
 2215              		.loc 17 41 5 view .LVU625
  40:SynthVoice.cpp ****     Controls();
 2216              		.loc 17 40 1 is_stmt 0 view .LVU626
 2217 0000 70B5     		push	{r4, r5, r6, lr}
 2218              		.cfi_def_cfa_offset 16
 2219              		.cfi_offset 4, -16
 2220              		.cfi_offset 5, -12
 2221              		.cfi_offset 6, -8
 2222              		.cfi_offset 14, -4
 2223 0002 1646     		mov	r6, r2
 2224 0004 82B0     		sub	sp, sp, #8
 2225              		.cfi_def_cfa_offset 24
  40:SynthVoice.cpp ****     Controls();
 2226              		.loc 17 40 1 view .LVU627
 2227 0006 0C46     		mov	r4, r1
  41:SynthVoice.cpp **** 
 2228              		.loc 17 41 13 view .LVU628
 2229 0008 FFF7FEFF 		bl	_Z8Controlsv
 2230              	.LVL94:
  43:SynthVoice.cpp ****     {
 2231              		.loc 17 43 5 is_stmt 1 view .LVU629
 2232              	.LBB704:
  43:SynthVoice.cpp ****     {
 2233              		.loc 17 43 25 view .LVU630
 2234 000c 86B1     		cbz	r6, .L82
 2235 000e 013E     		subs	r6, r6, #1
 2236              	.LVL95:
ARM GAS  /tmp/ccmhSQ6q.s 			page 65


  43:SynthVoice.cpp ****     {
 2237              		.loc 17 43 16 is_stmt 0 view .LVU631
 2238 0010 0025     		movs	r5, #0
 2239 0012 26F00106 		bic	r6, r6, #1
 2240              	.LVL96:
 2241              	.L84:
 2242              	.LBB705:
  45:SynthVoice.cpp ****         NextSamples(sig);
 2243              		.loc 17 45 9 is_stmt 1 discriminator 2 view .LVU632
  46:SynthVoice.cpp **** 
 2244              		.loc 17 46 9 discriminator 2 view .LVU633
  46:SynthVoice.cpp **** 
 2245              		.loc 17 46 20 is_stmt 0 discriminator 2 view .LVU634
 2246 0016 01A8     		add	r0, sp, #4
 2247 0018 0834     		adds	r4, r4, #8
 2248 001a FFF7FEFF 		bl	_Z11NextSamplesRf
 2249              	.LVL97:
  49:SynthVoice.cpp **** 
 2250              		.loc 17 49 9 is_stmt 1 discriminator 2 view .LVU635
  49:SynthVoice.cpp **** 
 2251              		.loc 17 49 16 is_stmt 0 discriminator 2 view .LVU636
 2252 001e 019A     		ldr	r2, [sp, #4]	@ float
 2253              	.LBE705:
  43:SynthVoice.cpp ****     {
 2254              		.loc 17 43 25 discriminator 2 view .LVU637
 2255 0020 B542     		cmp	r5, r6
 2256 0022 05F10205 		add	r5, r5, #2
 2257              	.LVL98:
 2258              	.LBB706:
  49:SynthVoice.cpp **** 
 2259              		.loc 17 49 16 discriminator 2 view .LVU638
 2260 0026 44F8082C 		str	r2, [r4, #-8]	@ float
  52:SynthVoice.cpp ****     }
 2261              		.loc 17 52 9 is_stmt 1 discriminator 2 view .LVU639
  52:SynthVoice.cpp ****     }
 2262              		.loc 17 52 20 is_stmt 0 discriminator 2 view .LVU640
 2263 002a 44F8042C 		str	r2, [r4, #-4]	@ float
 2264              	.LBE706:
  43:SynthVoice.cpp ****     {
 2265              		.loc 17 43 5 is_stmt 1 discriminator 2 view .LVU641
 2266              	.LVL99:
  43:SynthVoice.cpp ****     {
 2267              		.loc 17 43 25 discriminator 2 view .LVU642
 2268 002e F2D1     		bne	.L84
 2269              	.L82:
 2270              	.LBE704:
  54:SynthVoice.cpp **** 
 2271              		.loc 17 54 1 is_stmt 0 view .LVU643
 2272 0030 02B0     		add	sp, sp, #8
 2273              		.cfi_def_cfa_offset 16
 2274              		@ sp needed
 2275 0032 70BD     		pop	{r4, r5, r6, pc}
 2276              		.cfi_endproc
 2277              	.LFE4220:
 2279              		.section	.text.startup._GLOBAL__sub_I_wave,"ax",%progbits
 2280              		.align	1
 2281              		.p2align 2,,3
ARM GAS  /tmp/ccmhSQ6q.s 			page 66


 2282              		.syntax unified
 2283              		.thumb
 2284              		.thumb_func
 2285              		.fpu fpv5-d16
 2287              	_GLOBAL__sub_I_wave:
 2288              	.LFB4785:
 2289              		.loc 17 208 1 is_stmt 1 view -0
 2290              		.cfi_startproc
 2291              		@ args = 0, pretend = 0, frame = 0
 2292              		@ frame_needed = 0, uses_anonymous_args = 0
 2293              	.LBB788:
 2294              	.LBI788:
 2295              		.loc 17 208 1 view .LVU645
 2296              	.LVL100:
 2297              	.LBB789:
 2298              	.LBB790:
 2299              	.LBI790:
  35:../../libdaisy/src/daisy_pod.h ****     ~DaisyPod() {}
 2300              		.loc 6 35 5 view .LVU646
 2301              	.LBB791:
 2302              	.LBB792:
 2303              	.LBI792:
  21:../../libdaisy/src/daisy_seed.h ****     ~DaisySeed() {}
 2304              		.loc 12 21 5 view .LVU647
 2305              	.LBB793:
 2306              	.LBB794:
 2307              	.LBI794:
  62:../../libdaisy/src/hid/audio.h ****     ~AudioHandle() {}
 2308              		.loc 16 62 5 view .LVU648
 2309              	.LBE794:
 2310              	.LBE793:
 2311              	.LBE792:
 2312              	.LBB813:
 2313              	.LBB814:
 2314              	.LBB815:
 2315              	.LBB816:
 2316              	.LBB817:
 2317              	.LBB818:
 2318              	.LBB819:
  36:../../libdaisy/src/hid/midi.h ****             tx     = {DSY_GPIOB, 6};
 2319              		.loc 7 36 20 is_stmt 0 view .LVU649
 2320 0000 274A     		ldr	r2, .L92
  37:../../libdaisy/src/hid/midi.h ****         }
 2321              		.loc 7 37 20 view .LVU650
 2322 0002 49F22221 		movw	r1, #37410
 2323              	.LBE819:
 2324              	.LBE818:
 2325              	.LBE817:
 2326              	.LBE816:
 2327              	.LBE815:
 2328              	.LBE814:
 2329              	.LBE813:
 2330              	.LBB864:
 2331              	.LBB810:
 2332              	.LBB801:
 2333              	.LBB795:
 2334              	.LBB796:
ARM GAS  /tmp/ccmhSQ6q.s 			page 67


  62:../../libdaisy/src/hid/audio.h ****     ~AudioHandle() {}
 2335              		.loc 16 62 35 view .LVU651
 2336 0006 2748     		ldr	r0, .L92+4
 2337              	.LBE796:
 2338              	.LBE795:
 2339              	.LBE801:
 2340              	.LBE810:
 2341              	.LBE864:
 2342              	.LBE791:
 2343              	.LBE790:
 2344              	.LBE789:
 2345              	.LBE788:
 2346              		.loc 17 208 1 view .LVU652
 2347 0008 F8B5     		push	{r3, r4, r5, r6, r7, lr}
 2348              		.cfi_def_cfa_offset 24
 2349              		.cfi_offset 3, -24
 2350              		.cfi_offset 4, -20
 2351              		.cfi_offset 5, -16
 2352              		.cfi_offset 6, -12
 2353              		.cfi_offset 7, -8
 2354              		.cfi_offset 14, -4
 2355              	.LBB910:
 2356              	.LBB908:
 2357              	.LBB892:
 2358              	.LBB889:
 2359              	.LBB865:
 2360              	.LBB859:
 2361              	.LBB854:
 2362              	.LBB835:
 2363              	.LBB830:
 2364              	.LBB825:
 2365              	.LBB820:
  36:../../libdaisy/src/hid/midi.h ****             tx     = {DSY_GPIOB, 6};
 2366              		.loc 7 36 20 view .LVU653
 2367 000a 1688     		ldrh	r6, [r2]
 2368 000c 49F22025 		movw	r5, #37408
  37:../../libdaisy/src/hid/midi.h ****         }
 2369              		.loc 7 37 20 view .LVU654
 2370 0010 9288     		ldrh	r2, [r2, #4]
 2371              	.LBE820:
 2372              	.LBE825:
 2373              	.LBE830:
 2374              	.LBE835:
 2375              	.LBE854:
 2376              	.LBE859:
 2377              	.LBE865:
 2378              	.LBB866:
 2379              	.LBB811:
 2380              	.LBB802:
 2381              	.LBB799:
 2382              	.LBB797:
  62:../../libdaisy/src/hid/audio.h ****     ~AudioHandle() {}
 2383              		.loc 16 62 35 view .LVU655
 2384 0012 0023     		movs	r3, #0
 2385              	.LBE797:
 2386              	.LBE799:
 2387              	.LBE802:
ARM GAS  /tmp/ccmhSQ6q.s 			page 68


 2388              	.LBE811:
 2389              	.LBE866:
 2390              	.LBB867:
 2391              	.LBB860:
 2392              	.LBB855:
 2393              	.LBB836:
 2394              	.LBB831:
 2395              	.LBB826:
 2396              	.LBB821:
  36:../../libdaisy/src/hid/midi.h ****             tx     = {DSY_GPIOB, 6};
 2397              		.loc 7 36 20 view .LVU656
 2398 0014 4653     		strh	r6, [r0, r5]	@ movhi
 2399              	.LBE821:
 2400              	.LBE826:
 2401              	.LBE831:
 2402              	.LBE836:
 2403              	.LBB837:
 2404              	.LBB838:
 2405              	.LBB839:
 2406              	.LBB840:
 2407              		.file 19 "../../libdaisy/src/per/uart.h"
   1:../../libdaisy/src/per/uart.h **** /* 
   2:../../libdaisy/src/per/uart.h **** TODO
   3:../../libdaisy/src/per/uart.h **** - UART1 defaults to DMA, add flexible config for DMA on all periphs
   4:../../libdaisy/src/per/uart.h **** - Transmit function improvements.
   5:../../libdaisy/src/per/uart.h **** - Overflow handling, etc. for Rx Queue.
   6:../../libdaisy/src/per/uart.h **** */
   7:../../libdaisy/src/per/uart.h **** 
   8:../../libdaisy/src/per/uart.h **** #pragma once
   9:../../libdaisy/src/per/uart.h **** #ifndef DSY_UART_H
  10:../../libdaisy/src/per/uart.h **** #define DSY_UART_H /**< macro */
  11:../../libdaisy/src/per/uart.h **** #include "daisy_core.h"
  12:../../libdaisy/src/per/uart.h **** 
  13:../../libdaisy/src/per/uart.h **** 
  14:../../libdaisy/src/per/uart.h **** namespace daisy
  15:../../libdaisy/src/per/uart.h **** {
  16:../../libdaisy/src/per/uart.h **** /** @addtogroup serial
  17:../../libdaisy/src/per/uart.h ****     @{
  18:../../libdaisy/src/per/uart.h ****     */
  19:../../libdaisy/src/per/uart.h **** 
  20:../../libdaisy/src/per/uart.h **** /** 
  21:../../libdaisy/src/per/uart.h ****     Uart Peripheral
  22:../../libdaisy/src/per/uart.h ****     @author shensley
  23:../../libdaisy/src/per/uart.h ****     @date March 2020
  24:../../libdaisy/src/per/uart.h ****     */
  25:../../libdaisy/src/per/uart.h **** class UartHandler
  26:../../libdaisy/src/per/uart.h **** {
  27:../../libdaisy/src/per/uart.h ****   public:
  28:../../libdaisy/src/per/uart.h ****     struct Config
  29:../../libdaisy/src/per/uart.h ****     {
  30:../../libdaisy/src/per/uart.h ****         enum class Peripheral
  31:../../libdaisy/src/per/uart.h ****         {
  32:../../libdaisy/src/per/uart.h ****             USART_1,
  33:../../libdaisy/src/per/uart.h ****             USART_2,
  34:../../libdaisy/src/per/uart.h ****             USART_3,
  35:../../libdaisy/src/per/uart.h ****             UART_4,
  36:../../libdaisy/src/per/uart.h ****             UART_5,
ARM GAS  /tmp/ccmhSQ6q.s 			page 69


  37:../../libdaisy/src/per/uart.h ****             USART_6,
  38:../../libdaisy/src/per/uart.h ****             UART_7,
  39:../../libdaisy/src/per/uart.h ****             UART_8,
  40:../../libdaisy/src/per/uart.h ****             LPUART_1,
  41:../../libdaisy/src/per/uart.h ****         };
  42:../../libdaisy/src/per/uart.h **** 
  43:../../libdaisy/src/per/uart.h ****         enum class StopBits
  44:../../libdaisy/src/per/uart.h ****         {
  45:../../libdaisy/src/per/uart.h ****             BITS_0_5,
  46:../../libdaisy/src/per/uart.h ****             BITS_1,
  47:../../libdaisy/src/per/uart.h ****             BITS_1_5,
  48:../../libdaisy/src/per/uart.h ****             BITS_2,
  49:../../libdaisy/src/per/uart.h ****         };
  50:../../libdaisy/src/per/uart.h **** 
  51:../../libdaisy/src/per/uart.h ****         enum class Parity
  52:../../libdaisy/src/per/uart.h ****         {
  53:../../libdaisy/src/per/uart.h ****             NONE,
  54:../../libdaisy/src/per/uart.h ****             EVEN,
  55:../../libdaisy/src/per/uart.h ****             ODD,
  56:../../libdaisy/src/per/uart.h ****         };
  57:../../libdaisy/src/per/uart.h **** 
  58:../../libdaisy/src/per/uart.h ****         enum class Mode
  59:../../libdaisy/src/per/uart.h ****         {
  60:../../libdaisy/src/per/uart.h ****             RX,
  61:../../libdaisy/src/per/uart.h ****             TX,
  62:../../libdaisy/src/per/uart.h ****             TX_RX,
  63:../../libdaisy/src/per/uart.h ****         };
  64:../../libdaisy/src/per/uart.h **** 
  65:../../libdaisy/src/per/uart.h ****         enum class WordLength
  66:../../libdaisy/src/per/uart.h ****         {
  67:../../libdaisy/src/per/uart.h ****             BITS_7,
  68:../../libdaisy/src/per/uart.h ****             BITS_8,
  69:../../libdaisy/src/per/uart.h ****             BITS_9,
  70:../../libdaisy/src/per/uart.h ****         };
  71:../../libdaisy/src/per/uart.h **** 
  72:../../libdaisy/src/per/uart.h ****         struct
  73:../../libdaisy/src/per/uart.h ****         {
  74:../../libdaisy/src/per/uart.h ****             dsy_gpio_pin tx; /**< & */
  75:../../libdaisy/src/per/uart.h ****             dsy_gpio_pin rx; /**< & */
  76:../../libdaisy/src/per/uart.h ****         } pin_config;        /**< & */
  77:../../libdaisy/src/per/uart.h **** 
  78:../../libdaisy/src/per/uart.h ****         Peripheral periph;
  79:../../libdaisy/src/per/uart.h ****         StopBits   stopbits;
  80:../../libdaisy/src/per/uart.h ****         Parity     parity;
  81:../../libdaisy/src/per/uart.h ****         Mode       mode;
  82:../../libdaisy/src/per/uart.h ****         WordLength wordlength;
  83:../../libdaisy/src/per/uart.h ****         uint32_t   baudrate;
  84:../../libdaisy/src/per/uart.h ****     };
  85:../../libdaisy/src/per/uart.h **** 
  86:../../libdaisy/src/per/uart.h **** 
  87:../../libdaisy/src/per/uart.h ****     UartHandler() : pimpl_(nullptr) {}
 2408              		.loc 19 87 35 view .LVU657
 2409 0016 49F22425 		movw	r5, #37412
 2410              	.LBE840:
 2411              	.LBE839:
 2412              	.LBE838:
 2413              	.LBE837:
ARM GAS  /tmp/ccmhSQ6q.s 			page 70


 2414              	.LBB845:
 2415              	.LBB832:
 2416              	.LBB827:
 2417              	.LBB822:
  37:../../libdaisy/src/hid/midi.h ****         }
 2418              		.loc 7 37 20 view .LVU658
 2419 001a 4252     		strh	r2, [r0, r1]	@ movhi
  35:../../libdaisy/src/hid/midi.h ****             rx     = {DSY_GPIOB, 7};
 2420              		.loc 7 35 20 view .LVU659
 2421 001c 49F21C27 		movw	r7, #37404
 2422              	.LBE822:
 2423              	.LBE827:
 2424              	.LBE832:
 2425              	.LBE845:
  82:../../libdaisy/src/hid/midi.h ****     ~MidiHandler() {}
 2426              		.loc 7 82 19 view .LVU660
 2427 0020 49F22C21 		movw	r1, #37420
 2428 0024 4FF60F06 		movw	r6, #63503
 2429              	.LBB846:
 2430              	.LBB843:
 2431              	.LBB842:
 2432              	.LBB841:
 2433              		.loc 19 87 35 view .LVU661
 2434 0028 4351     		str	r3, [r0, r5]
 2435              	.LBE841:
 2436              	.LBE842:
 2437              	.LBE843:
 2438              	.LBE846:
  82:../../libdaisy/src/hid/midi.h ****     ~MidiHandler() {}
 2439              		.loc 7 82 19 view .LVU662
 2440 002a 49F22822 		movw	r2, #37416
 2441 002e 1E4D     		ldr	r5, .L92+8
 2442              	.LBE855:
 2443              	.LBE860:
 2444              	.LBE867:
 2445              	.LBE889:
 2446              	.LBE892:
   7:SynthVoice.cpp **** static Oscillator osc, lfo;
 2447              		.loc 17 7 19 view .LVU663
 2448 0030 1E4C     		ldr	r4, .L92+12
 2449              	.LBB893:
 2450              	.LBB890:
 2451              	.LBB868:
 2452              	.LBB861:
 2453              	.LBB856:
 2454              	.LBB847:
 2455              	.LBB833:
 2456              	.LBB828:
 2457              	.LBB823:
  35:../../libdaisy/src/hid/midi.h ****             rx     = {DSY_GPIOB, 7};
 2458              		.loc 7 35 20 view .LVU664
 2459 0032 C351     		str	r3, [r0, r7]
 2460              	.LBE823:
 2461              	.LBE828:
 2462              	.LBE833:
 2463              	.LBE847:
  82:../../libdaisy/src/hid/midi.h ****     ~MidiHandler() {}
ARM GAS  /tmp/ccmhSQ6q.s 			page 71


 2464              		.loc 7 82 19 view .LVU665
 2465 0034 4652     		strh	r6, [r0, r1]	@ movhi
 2466 0036 0721     		movs	r1, #7
 2467              	.LBE856:
 2468              	.LBE861:
 2469              	.LBE868:
 2470              	.LBB869:
 2471              	.LBB812:
 2472              	.LBB803:
 2473              	.LBB800:
 2474              	.LBB798:
  62:../../libdaisy/src/hid/audio.h ****     ~AudioHandle() {}
 2475              		.loc 16 62 35 view .LVU666
 2476 0038 4361     		str	r3, [r0, #20]
 2477              	.LVL101:
  62:../../libdaisy/src/hid/audio.h ****     ~AudioHandle() {}
 2478              		.loc 16 62 35 view .LVU667
 2479              	.LBE798:
 2480              	.LBE800:
 2481              	.LBE803:
 2482              	.LBB804:
 2483              	.LBI804:
  84:../../libdaisy/src/per/adc.h ****     ~AdcHandle() {}
 2484              		.loc 15 84 5 is_stmt 1 view .LVU668
  84:../../libdaisy/src/per/adc.h ****     ~AdcHandle() {}
 2485              		.loc 15 84 5 is_stmt 0 view .LVU669
 2486              	.LBE804:
 2487              	.LBB805:
 2488              	.LBI805:
 2489              		.file 20 "../../libdaisy/src/per/dac.h"
   1:../../libdaisy/src/per/dac.h **** #pragma once
   2:../../libdaisy/src/per/dac.h **** #ifndef DSY_DAC_H
   3:../../libdaisy/src/per/dac.h **** #define DSY_DAC_H
   4:../../libdaisy/src/per/dac.h **** 
   5:../../libdaisy/src/per/dac.h **** #include "daisy_core.h"
   6:../../libdaisy/src/per/dac.h **** 
   7:../../libdaisy/src/per/dac.h **** namespace daisy
   8:../../libdaisy/src/per/dac.h **** {
   9:../../libdaisy/src/per/dac.h **** /** DAC handle for Built-in DAC Peripheral 
  10:../../libdaisy/src/per/dac.h ****  ** 
  11:../../libdaisy/src/per/dac.h ****  ** For now only Normal Mode is supported,
  12:../../libdaisy/src/per/dac.h ****  ** Sample and hold mode provides reduced power consumption, but requires a bit more setup.
  13:../../libdaisy/src/per/dac.h ****  **
  14:../../libdaisy/src/per/dac.h ****  ** For now connecting the DAC through other internal periphearls is also not supported.
  15:../../libdaisy/src/per/dac.h ****  **
  16:../../libdaisy/src/per/dac.h ****  ** Since the DAC channels have dedicated pins we don't need to pass in a pin config like with
  17:../../libdaisy/src/per/dac.h ****  ** other modules. However, it is still important to not try to use the DAC pins for anything else.
  18:../../libdaisy/src/per/dac.h ****  ** DAC Channel 1 is on PA4, and DAC Channel 2 is on PA5
  19:../../libdaisy/src/per/dac.h ****  ***/
  20:../../libdaisy/src/per/dac.h **** class DacHandle
  21:../../libdaisy/src/per/dac.h **** {
  22:../../libdaisy/src/per/dac.h ****   public:
  23:../../libdaisy/src/per/dac.h ****     /** Return Values for the DacHandle class */
  24:../../libdaisy/src/per/dac.h ****     enum class Result
  25:../../libdaisy/src/per/dac.h ****     {
  26:../../libdaisy/src/per/dac.h ****         OK,
  27:../../libdaisy/src/per/dac.h ****         ERR,
ARM GAS  /tmp/ccmhSQ6q.s 			page 72


  28:../../libdaisy/src/per/dac.h ****     };
  29:../../libdaisy/src/per/dac.h **** 
  30:../../libdaisy/src/per/dac.h ****     /** Selects which channel(s) will be configured for use. */
  31:../../libdaisy/src/per/dac.h ****     enum class Channel
  32:../../libdaisy/src/per/dac.h ****     {
  33:../../libdaisy/src/per/dac.h ****         ONE,
  34:../../libdaisy/src/per/dac.h ****         TWO,
  35:../../libdaisy/src/per/dac.h ****         BOTH,
  36:../../libdaisy/src/per/dac.h ****     };
  37:../../libdaisy/src/per/dac.h **** 
  38:../../libdaisy/src/per/dac.h ****     /** Sets the Mode for the DAC channels.
  39:../../libdaisy/src/per/dac.h ****      **
  40:../../libdaisy/src/per/dac.h ****      ** Polling mode uses the blocking mode to transmit a single value at a time.
  41:../../libdaisy/src/per/dac.h ****      **
  42:../../libdaisy/src/per/dac.h ****      ** DMA mode uses a buffer, and periodically transmits it triggering a 
  43:../../libdaisy/src/per/dac.h ****      ** callback to fill the buffer when it is ready for more samples.
  44:../../libdaisy/src/per/dac.h ****      ***/
  45:../../libdaisy/src/per/dac.h ****     enum class Mode
  46:../../libdaisy/src/per/dac.h ****     {
  47:../../libdaisy/src/per/dac.h ****         POLLING,
  48:../../libdaisy/src/per/dac.h ****         DMA,
  49:../../libdaisy/src/per/dac.h ****     };
  50:../../libdaisy/src/per/dac.h **** 
  51:../../libdaisy/src/per/dac.h ****     /** Sets the number of bits per sample transmitted out of the DAC.
  52:../../libdaisy/src/per/dac.h ****      ** The output range will be: 0V - VDDA
  53:../../libdaisy/src/per/dac.h ****      ** The resolution will be roughly: bitdepth / (VDDA - 0V) 
  54:../../libdaisy/src/per/dac.h ****      ***/
  55:../../libdaisy/src/per/dac.h ****     enum class BitDepth
  56:../../libdaisy/src/per/dac.h ****     {
  57:../../libdaisy/src/per/dac.h ****         BITS_8,
  58:../../libdaisy/src/per/dac.h ****         BITS_12
  59:../../libdaisy/src/per/dac.h ****     };
  60:../../libdaisy/src/per/dac.h **** 
  61:../../libdaisy/src/per/dac.h ****     /** Sets whether the DAC output is buffered for higher drive ability. */
  62:../../libdaisy/src/per/dac.h ****     enum class BufferState
  63:../../libdaisy/src/per/dac.h ****     {
  64:../../libdaisy/src/per/dac.h ****         ENABLED,
  65:../../libdaisy/src/per/dac.h ****         DISABLED,
  66:../../libdaisy/src/per/dac.h ****     };
  67:../../libdaisy/src/per/dac.h **** 
  68:../../libdaisy/src/per/dac.h ****     /** Configuration structure for initializing the DAC structure. */
  69:../../libdaisy/src/per/dac.h ****     struct Config
  70:../../libdaisy/src/per/dac.h ****     {
  71:../../libdaisy/src/per/dac.h ****         /** Target Samplerate in Hz used to configure the internal 
  72:../../libdaisy/src/per/dac.h ****          ** timebase for DMA mode. Does nothing in POLLING mode.
  73:../../libdaisy/src/per/dac.h ****          ** If the value is 0 at Init time this will default to 48000Hz 
  74:../../libdaisy/src/per/dac.h ****          ** otherwise the driver will attempt meet the target.*/
  75:../../libdaisy/src/per/dac.h ****         uint32_t target_samplerate;
  76:../../libdaisy/src/per/dac.h **** 
  77:../../libdaisy/src/per/dac.h ****         Channel     chn;
  78:../../libdaisy/src/per/dac.h ****         Mode        mode;
  79:../../libdaisy/src/per/dac.h ****         BitDepth    bitdepth;
  80:../../libdaisy/src/per/dac.h ****         BufferState buff_state;
  81:../../libdaisy/src/per/dac.h ****     };
  82:../../libdaisy/src/per/dac.h **** 
  83:../../libdaisy/src/per/dac.h ****     DacHandle() : pimpl_(nullptr) {}
 2490              		.loc 20 83 5 is_stmt 1 view .LVU670
ARM GAS  /tmp/ccmhSQ6q.s 			page 73


 2491              	.LBB806:
 2492              	.LBB807:
 2493              		.loc 20 83 33 is_stmt 0 view .LVU671
 2494 003a 0362     		str	r3, [r0, #32]
 2495              	.LVL102:
 2496              		.loc 20 83 33 view .LVU672
 2497              	.LBE807:
 2498              	.LBE806:
 2499              	.LBE805:
 2500              	.LBB808:
 2501              	.LBI808:
  40:../../libdaisy/src/hid/usb.h **** 
 2502              		.loc 14 40 5 is_stmt 1 view .LVU673
  40:../../libdaisy/src/hid/usb.h **** 
 2503              		.loc 14 40 5 is_stmt 0 view .LVU674
 2504              	.LBE808:
 2505              	.LBB809:
 2506              	.LBI809:
  58:../../libdaisy/src/sys/system.h ****     ~System() {}
 2507              		.loc 13 58 5 is_stmt 1 view .LVU675
  58:../../libdaisy/src/sys/system.h ****     ~System() {}
 2508              		.loc 13 58 5 is_stmt 0 view .LVU676
 2509              	.LBE809:
 2510              	.LBE812:
 2511              	.LBE869:
 2512              	.LBB870:
 2513              	.LBI870:
  20:../../libdaisy/src/hid/encoder.h ****     ~Encoder() {}
 2514              		.loc 11 20 5 is_stmt 1 view .LVU677
 2515              	.LBB871:
 2516              	.LBB872:
 2517              	.LBI872:
  40:../../libdaisy/src/hid/switch.h ****     ~Switch() {}
 2518              		.loc 10 40 5 view .LVU678
  40:../../libdaisy/src/hid/switch.h ****     ~Switch() {}
 2519              		.loc 10 40 5 is_stmt 0 view .LVU679
 2520              	.LBE872:
 2521              	.LBE871:
 2522              	.LBE870:
 2523              	.LBB873:
 2524              	.LBI873:
  21:../../libdaisy/src/hid/ctrl.h ****     /** destructor */
 2525              		.loc 5 21 5 is_stmt 1 view .LVU680
  21:../../libdaisy/src/hid/ctrl.h ****     /** destructor */
 2526              		.loc 5 21 5 is_stmt 0 view .LVU681
 2527              	.LBE873:
 2528              	.LBB874:
 2529              	.LBI874:
  21:../../libdaisy/src/hid/ctrl.h ****     /** destructor */
 2530              		.loc 5 21 5 is_stmt 1 view .LVU682
  21:../../libdaisy/src/hid/ctrl.h ****     /** destructor */
 2531              		.loc 5 21 5 is_stmt 0 view .LVU683
 2532              	.LBE874:
 2533              	.LBB875:
 2534              	.LBI875:
  40:../../libdaisy/src/hid/switch.h ****     ~Switch() {}
 2535              		.loc 10 40 5 is_stmt 1 view .LVU684
ARM GAS  /tmp/ccmhSQ6q.s 			page 74


  40:../../libdaisy/src/hid/switch.h ****     ~Switch() {}
 2536              		.loc 10 40 5 is_stmt 0 view .LVU685
 2537              	.LBE875:
 2538              	.LBB876:
 2539              	.LBI876:
  40:../../libdaisy/src/hid/switch.h ****     ~Switch() {}
 2540              		.loc 10 40 5 is_stmt 1 view .LVU686
  40:../../libdaisy/src/hid/switch.h ****     ~Switch() {}
 2541              		.loc 10 40 5 is_stmt 0 view .LVU687
 2542              	.LBE876:
 2543              	.LBB877:
 2544              	.LBI877:
  17:../../libdaisy/src/hid/rgb_led.h ****     ~RgbLed() {}
 2545              		.loc 8 17 5 is_stmt 1 view .LVU688
 2546              	.LBB878:
 2547              	.LBB879:
 2548              	.LBI879:
  24:../../libdaisy/src/hid/led.h ****     ~Led() {}
 2549              		.loc 9 24 5 view .LVU689
  24:../../libdaisy/src/hid/led.h ****     ~Led() {}
 2550              		.loc 9 24 5 is_stmt 0 view .LVU690
 2551              	.LBE879:
 2552              	.LBB880:
 2553              	.LBI880:
  24:../../libdaisy/src/hid/led.h ****     ~Led() {}
 2554              		.loc 9 24 5 is_stmt 1 view .LVU691
  24:../../libdaisy/src/hid/led.h ****     ~Led() {}
 2555              		.loc 9 24 5 is_stmt 0 view .LVU692
 2556              	.LBE880:
 2557              	.LBB881:
 2558              	.LBI881:
  24:../../libdaisy/src/hid/led.h ****     ~Led() {}
 2559              		.loc 9 24 5 is_stmt 1 view .LVU693
  24:../../libdaisy/src/hid/led.h ****     ~Led() {}
 2560              		.loc 9 24 5 is_stmt 0 view .LVU694
 2561              	.LBE881:
 2562              	.LBE878:
 2563              	.LBE877:
 2564              	.LBB882:
 2565              	.LBI882:
  17:../../libdaisy/src/hid/rgb_led.h ****     ~RgbLed() {}
 2566              		.loc 8 17 5 is_stmt 1 view .LVU695
 2567              	.LBB883:
 2568              	.LBB884:
 2569              	.LBI884:
  24:../../libdaisy/src/hid/led.h ****     ~Led() {}
 2570              		.loc 9 24 5 view .LVU696
  24:../../libdaisy/src/hid/led.h ****     ~Led() {}
 2571              		.loc 9 24 5 is_stmt 0 view .LVU697
 2572              	.LBE884:
 2573              	.LBB885:
 2574              	.LBI885:
  24:../../libdaisy/src/hid/led.h ****     ~Led() {}
 2575              		.loc 9 24 5 is_stmt 1 view .LVU698
  24:../../libdaisy/src/hid/led.h ****     ~Led() {}
 2576              		.loc 9 24 5 is_stmt 0 view .LVU699
 2577              	.LBE885:
ARM GAS  /tmp/ccmhSQ6q.s 			page 75


 2578              	.LBB886:
 2579              	.LBI886:
  24:../../libdaisy/src/hid/led.h ****     ~Led() {}
 2580              		.loc 9 24 5 is_stmt 1 view .LVU700
  24:../../libdaisy/src/hid/led.h ****     ~Led() {}
 2581              		.loc 9 24 5 is_stmt 0 view .LVU701
 2582              	.LBE886:
 2583              	.LBE883:
 2584              	.LBE882:
 2585              	.LBB887:
 2586              	.LBI813:
  82:../../libdaisy/src/hid/midi.h ****     ~MidiHandler() {}
 2587              		.loc 7 82 5 is_stmt 1 view .LVU702
 2588              	.LBB862:
 2589              	.LBB857:
 2590              	.LBB848:
 2591              	.LBI848:
 2592              		.loc 19 87 5 view .LVU703
 2593              	.LBB849:
 2594              	.LBB850:
 2595              		.loc 19 87 35 is_stmt 0 view .LVU704
 2596 003c C0F87431 		str	r3, [r0, #372]
 2597              	.LVL103:
 2598              		.loc 19 87 35 view .LVU705
 2599              	.LBE850:
 2600              	.LBE849:
 2601              	.LBE848:
 2602              	.LBB851:
 2603              	.LBI851:
 2604              		.file 21 "../../libdaisy/src/util/ringbuffer.h"
   1:../../libdaisy/src/util/ringbuffer.h **** #pragma once
   2:../../libdaisy/src/util/ringbuffer.h **** #ifndef DSY_RINGBUFFER_H
   3:../../libdaisy/src/util/ringbuffer.h **** #define DSY_RINGBUFFER_H
   4:../../libdaisy/src/util/ringbuffer.h **** 
   5:../../libdaisy/src/util/ringbuffer.h **** #include <algorithm>
   6:../../libdaisy/src/util/ringbuffer.h **** 
   7:../../libdaisy/src/util/ringbuffer.h **** namespace daisy
   8:../../libdaisy/src/util/ringbuffer.h **** {
   9:../../libdaisy/src/util/ringbuffer.h **** /** @addtogroup utility
  10:../../libdaisy/src/util/ringbuffer.h ****     @{
  11:../../libdaisy/src/util/ringbuffer.h **** */
  12:../../libdaisy/src/util/ringbuffer.h **** 
  13:../../libdaisy/src/util/ringbuffer.h **** /**
  14:../../libdaisy/src/util/ringbuffer.h **** Utility Ring Buffer \n 
  15:../../libdaisy/src/util/ringbuffer.h **** imported from pichenettes/stmlib
  16:../../libdaisy/src/util/ringbuffer.h **** */
  17:../../libdaisy/src/util/ringbuffer.h **** template <typename T, size_t size>
  18:../../libdaisy/src/util/ringbuffer.h **** class RingBuffer
  19:../../libdaisy/src/util/ringbuffer.h **** {
  20:../../libdaisy/src/util/ringbuffer.h ****   public:
  21:../../libdaisy/src/util/ringbuffer.h ****     RingBuffer() {}
 2605              		.loc 21 21 5 is_stmt 1 view .LVU706
 2606              		.loc 21 21 5 is_stmt 0 view .LVU707
 2607              	.LBE851:
 2608              	.LBB852:
 2609              	.LBI816:
  84:../../libdaisy/src/hid/midi.h **** 
ARM GAS  /tmp/ccmhSQ6q.s 			page 76


  85:../../libdaisy/src/hid/midi.h ****     struct Config
 2610              		.loc 7 85 12 is_stmt 1 view .LVU708
 2611              	.LBB834:
 2612              	.LBI817:
  33:../../libdaisy/src/hid/midi.h ****         {
 2613              		.loc 7 33 9 view .LVU709
 2614              	.LBB829:
 2615              	.LBB824:
  35:../../libdaisy/src/hid/midi.h ****             rx     = {DSY_GPIOB, 7};
 2616              		.loc 7 35 13 view .LVU710
  36:../../libdaisy/src/hid/midi.h ****             tx     = {DSY_GPIOB, 6};
 2617              		.loc 7 36 13 view .LVU711
  37:../../libdaisy/src/hid/midi.h ****         }
 2618              		.loc 7 37 13 view .LVU712
  37:../../libdaisy/src/hid/midi.h ****         }
 2619              		.loc 7 37 13 is_stmt 0 view .LVU713
 2620              	.LBE824:
 2621              	.LBE829:
 2622              	.LBE834:
 2623              	.LBE852:
 2624              	.LBB853:
 2625              	.LBI837:
  24:../../libdaisy/src/hid/midi.h ****     ~MidiUartTransport() {}
 2626              		.loc 7 24 5 is_stmt 1 view .LVU714
 2627              	.LBB844:
 2628              	.LBI838:
 2629              		.loc 19 87 5 view .LVU715
 2630              		.loc 19 87 5 is_stmt 0 view .LVU716
 2631              	.LBE844:
 2632              	.LBE853:
  82:../../libdaisy/src/hid/midi.h ****     ~MidiHandler() {}
 2633              		.loc 7 82 19 view .LVU717
 2634 0040 49F22E23 		movw	r3, #37422
 2635 0044 8550     		str	r5, [r0, r2]
 2636              	.LBE857:
 2637              	.LBE862:
 2638              	.LBE887:
 2639              	.LBE890:
 2640              	.LBE893:
   7:SynthVoice.cpp **** static Oscillator osc, lfo;
 2641              		.loc 17 7 19 view .LVU718
 2642 0046 2246     		mov	r2, r4
   8:SynthVoice.cpp **** static MoogLadder flt;
 2643              		.loc 17 8 19 view .LVU719
 2644 0048 194D     		ldr	r5, .L92+16
 2645              	.LBB894:
 2646              	.LBB891:
 2647              	.LBB888:
 2648              	.LBB863:
 2649              	.LBB858:
  82:../../libdaisy/src/hid/midi.h ****     ~MidiHandler() {}
 2650              		.loc 7 82 19 view .LVU720
 2651 004a C154     		strb	r1, [r0, r3]
 2652              	.LVL104:
  82:../../libdaisy/src/hid/midi.h ****     ~MidiHandler() {}
 2653              		.loc 7 82 19 view .LVU721
 2654              	.LBE858:
ARM GAS  /tmp/ccmhSQ6q.s 			page 77


 2655              	.LBE863:
 2656              	.LBE888:
 2657              	.LBE891:
 2658              	.LBE894:
   7:SynthVoice.cpp **** static Oscillator osc, lfo;
 2659              		.loc 17 7 19 view .LVU722
 2660 004c 1949     		ldr	r1, .L92+20
 2661 004e FFF7FEFF 		bl	__aeabi_atexit
 2662              	.LVL105:
 2663              	.LBB895:
 2664              	.LBI895:
  15:../../DaisySP/Source/Synthesis/oscillator.h ****     ~Oscillator() {}
 2665              		.loc 2 15 5 is_stmt 1 view .LVU723
  15:../../DaisySP/Source/Synthesis/oscillator.h ****     ~Oscillator() {}
 2666              		.loc 2 15 5 is_stmt 0 view .LVU724
 2667              	.LBE895:
   8:SynthVoice.cpp **** static MoogLadder flt;
 2668              		.loc 17 8 19 view .LVU725
 2669 0052 2246     		mov	r2, r4
 2670 0054 2946     		mov	r1, r5
 2671 0056 1848     		ldr	r0, .L92+24
 2672 0058 FFF7FEFF 		bl	__aeabi_atexit
 2673              	.LVL106:
 2674              	.LBB896:
 2675              	.LBI896:
  15:../../DaisySP/Source/Synthesis/oscillator.h ****     ~Oscillator() {}
 2676              		.loc 2 15 5 is_stmt 1 view .LVU726
  15:../../DaisySP/Source/Synthesis/oscillator.h ****     ~Oscillator() {}
 2677              		.loc 2 15 5 is_stmt 0 view .LVU727
 2678              	.LBE896:
   8:SynthVoice.cpp **** static MoogLadder flt;
 2679              		.loc 17 8 24 view .LVU728
 2680 005c 2246     		mov	r2, r4
 2681 005e 2946     		mov	r1, r5
 2682 0060 1648     		ldr	r0, .L92+28
 2683 0062 FFF7FEFF 		bl	__aeabi_atexit
 2684              	.LVL107:
 2685              	.LBB897:
 2686              	.LBI897:
  20:../../DaisySP/Source/Filters/moogladder.h ****     ~MoogLadder() {}
 2687              		.loc 3 20 5 is_stmt 1 view .LVU729
  20:../../DaisySP/Source/Filters/moogladder.h ****     ~MoogLadder() {}
 2688              		.loc 3 20 5 is_stmt 0 view .LVU730
 2689              	.LBE897:
  11:SynthVoice.cpp **** 
 2690              		.loc 17 11 19 view .LVU731
 2691 0066 164D     		ldr	r5, .L92+32
   9:SynthVoice.cpp **** static AdEnv      ad;
 2692              		.loc 17 9 19 view .LVU732
 2693 0068 2246     		mov	r2, r4
 2694 006a 1649     		ldr	r1, .L92+36
 2695 006c 1648     		ldr	r0, .L92+40
 2696 006e FFF7FEFF 		bl	__aeabi_atexit
 2697              	.LVL108:
 2698              	.LBB898:
 2699              	.LBI898:
  34:../../DaisySP/Source/Control/adenv.h ****     ~AdEnv() {}
ARM GAS  /tmp/ccmhSQ6q.s 			page 78


 2700              		.loc 1 34 5 is_stmt 1 view .LVU733
  34:../../DaisySP/Source/Control/adenv.h ****     ~AdEnv() {}
 2701              		.loc 1 34 5 is_stmt 0 view .LVU734
 2702              	.LBE898:
  10:SynthVoice.cpp **** static Parameter  pitchParam, cutoffParam, lfoParam;
 2703              		.loc 17 10 19 view .LVU735
 2704 0072 2246     		mov	r2, r4
 2705 0074 1549     		ldr	r1, .L92+44
 2706 0076 1648     		ldr	r0, .L92+48
 2707 0078 FFF7FEFF 		bl	__aeabi_atexit
 2708              	.LVL109:
 2709              	.LBB899:
 2710              	.LBI899:
  25:../../libdaisy/src/hid/parameter.h ****     /** Destructor */
 2711              		.loc 4 25 5 is_stmt 1 view .LVU736
 2712              	.LBB900:
 2713              	.LBB901:
 2714              	.LBI901:
  21:../../libdaisy/src/hid/ctrl.h ****     /** destructor */
 2715              		.loc 5 21 5 view .LVU737
  21:../../libdaisy/src/hid/ctrl.h ****     /** destructor */
 2716              		.loc 5 21 5 is_stmt 0 view .LVU738
 2717              	.LBE901:
 2718              	.LBE900:
 2719              	.LBE899:
  11:SynthVoice.cpp **** 
 2720              		.loc 17 11 19 view .LVU739
 2721 007c 2246     		mov	r2, r4
 2722 007e 2946     		mov	r1, r5
 2723 0080 1448     		ldr	r0, .L92+52
 2724 0082 FFF7FEFF 		bl	__aeabi_atexit
 2725              	.LVL110:
 2726              	.LBB902:
 2727              	.LBI902:
  25:../../libdaisy/src/hid/parameter.h ****     /** Destructor */
 2728              		.loc 4 25 5 is_stmt 1 view .LVU740
 2729              	.LBB903:
 2730              	.LBB904:
 2731              	.LBI904:
  21:../../libdaisy/src/hid/ctrl.h ****     /** destructor */
 2732              		.loc 5 21 5 view .LVU741
  21:../../libdaisy/src/hid/ctrl.h ****     /** destructor */
 2733              		.loc 5 21 5 is_stmt 0 view .LVU742
 2734              	.LBE904:
 2735              	.LBE903:
 2736              	.LBE902:
  11:SynthVoice.cpp **** 
 2737              		.loc 17 11 31 view .LVU743
 2738 0086 2246     		mov	r2, r4
 2739 0088 2946     		mov	r1, r5
 2740 008a 1348     		ldr	r0, .L92+56
 2741 008c FFF7FEFF 		bl	__aeabi_atexit
 2742              	.LVL111:
 2743              	.LBB905:
 2744              	.LBI905:
  25:../../libdaisy/src/hid/parameter.h ****     /** Destructor */
 2745              		.loc 4 25 5 is_stmt 1 view .LVU744
ARM GAS  /tmp/ccmhSQ6q.s 			page 79


 2746              	.LBB906:
 2747              	.LBB907:
 2748              	.LBI907:
  21:../../libdaisy/src/hid/ctrl.h ****     /** destructor */
 2749              		.loc 5 21 5 view .LVU745
  21:../../libdaisy/src/hid/ctrl.h ****     /** destructor */
 2750              		.loc 5 21 5 is_stmt 0 view .LVU746
 2751              	.LBE907:
 2752              	.LBE906:
 2753              	.LBE905:
  11:SynthVoice.cpp **** 
 2754              		.loc 17 11 44 view .LVU747
 2755 0090 2246     		mov	r2, r4
 2756 0092 2946     		mov	r1, r5
 2757 0094 1148     		ldr	r0, .L92+60
 2758              	.LBE908:
 2759              	.LBE910:
 2760              		.loc 17 208 1 view .LVU748
 2761 0096 BDE8F840 		pop	{r3, r4, r5, r6, r7, lr}
 2762              		.cfi_restore 14
 2763              		.cfi_restore 7
 2764              		.cfi_restore 6
 2765              		.cfi_restore 5
 2766              		.cfi_restore 4
 2767              		.cfi_restore 3
 2768              		.cfi_def_cfa_offset 0
 2769              	.LBB911:
 2770              	.LBB909:
  11:SynthVoice.cpp **** 
 2771              		.loc 17 11 44 view .LVU749
 2772 009a FFF7FEBF 		b	__aeabi_atexit
 2773              	.LVL112:
 2774              	.L93:
 2775 009e 00BF     		.align	2
 2776              	.L92:
 2777 00a0 00000000 		.word	.LANCHOR21
 2778 00a4 00000000 		.word	_ZL3pod
 2779 00a8 80707FF0 		.word	-260083584
 2780 00ac 00000000 		.word	__dso_handle
 2781 00b0 00000000 		.word	_ZN7daisysp10OscillatorD1Ev
 2782 00b4 00000000 		.word	_ZN5daisy8DaisyPodD1Ev
 2783 00b8 00000000 		.word	.LANCHOR4
 2784 00bc 00000000 		.word	.LANCHOR1
 2785 00c0 00000000 		.word	_ZN5daisy9ParameterD1Ev
 2786 00c4 00000000 		.word	_ZN7daisysp10MoogLadderD1Ev
 2787 00c8 00000000 		.word	.LANCHOR5
 2788 00cc 00000000 		.word	_ZN7daisysp5AdEnvD1Ev
 2789 00d0 00000000 		.word	.LANCHOR0
 2790 00d4 00000000 		.word	.LANCHOR19
 2791 00d8 00000000 		.word	.LANCHOR18
 2792 00dc 00000000 		.word	.LANCHOR20
 2793              	.LBE909:
 2794              	.LBE911:
 2795              		.cfi_endproc
 2796              	.LFE4785:
 2798              		.section	.init_array,"aw",%init_array
 2799              		.align	2
ARM GAS  /tmp/ccmhSQ6q.s 			page 80


 2800 0000 00000000 		.word	_GLOBAL__sub_I_wave(target1)
 2801              		.global	selfCycle
 2802              		.global	k2
 2803              		.global	k1
 2804              		.global	oldk2
 2805              		.global	oldk1
 2806              		.global	cutoff
 2807              		.global	release
 2808              		.global	attack
 2809              		.global	lfoAmp
 2810              		.global	lfoFreq
 2811              		.global	oscFreq
 2812              		.global	vibrato
 2813              		.global	mode
 2814              		.global	wave
 2815              		.section	.rodata
 2816              		.align	2
 2817              		.set	.LANCHOR21,. + 0
 2818              	.LC0:
 2819 0000 01       		.byte	1
 2820 0001 07       		.byte	7
 2821 0002 0000     		.space	2
 2822              	.LC1:
 2823 0004 01       		.byte	1
 2824 0005 06       		.byte	6
 2825              		.section	.bss._ZL10pitchParam,"aw",%nobits
 2826              		.align	2
 2827              		.set	.LANCHOR19,. + 0
 2830              	_ZL10pitchParam:
 2831 0000 00000000 		.space	56
 2831      00000000 
 2831      00000000 
 2831      00000000 
 2831      00000000 
 2832              		.section	.bss._ZL11cutoffParam,"aw",%nobits
 2833              		.align	2
 2834              		.set	.LANCHOR18,. + 0
 2837              	_ZL11cutoffParam:
 2838 0000 00000000 		.space	56
 2838      00000000 
 2838      00000000 
 2838      00000000 
 2838      00000000 
 2839              		.section	.bss._ZL2ad,"aw",%nobits
 2840              		.align	2
 2841              		.set	.LANCHOR0,. + 0
 2844              	_ZL2ad:
 2845 0000 00000000 		.space	56
 2845      00000000 
 2845      00000000 
 2845      00000000 
 2845      00000000 
 2846              		.section	.bss._ZL3flt,"aw",%nobits
 2847              		.align	2
 2848              		.set	.LANCHOR5,. + 0
 2851              	_ZL3flt:
 2852 0000 00000000 		.space	68
ARM GAS  /tmp/ccmhSQ6q.s 			page 81


 2852      00000000 
 2852      00000000 
 2852      00000000 
 2852      00000000 
 2853              		.section	.bss._ZL3lfo,"aw",%nobits
 2854              		.align	2
 2855              		.set	.LANCHOR1,. + 0
 2858              	_ZL3lfo:
 2859 0000 00000000 		.space	40
 2859      00000000 
 2859      00000000 
 2859      00000000 
 2859      00000000 
 2860              		.section	.bss._ZL3osc,"aw",%nobits
 2861              		.align	2
 2862              		.set	.LANCHOR4,. + 0
 2865              	_ZL3osc:
 2866 0000 00000000 		.space	40
 2866      00000000 
 2866      00000000 
 2866      00000000 
 2866      00000000 
 2867              		.section	.bss._ZL3pod,"aw",%nobits
 2868              		.align	2
 2871              	_ZL3pod:
 2872 0000 00000000 		.space	37424
 2872      00000000 
 2872      00000000 
 2872      00000000 
 2872      00000000 
 2873              		.section	.bss._ZL8lfoParam,"aw",%nobits
 2874              		.align	2
 2875              		.set	.LANCHOR20,. + 0
 2878              	_ZL8lfoParam:
 2879 0000 00000000 		.space	56
 2879      00000000 
 2879      00000000 
 2879      00000000 
 2879      00000000 
 2880              		.section	.bss.attack,"aw",%nobits
 2881              		.align	2
 2882              		.set	.LANCHOR11,. + 0
 2885              	attack:
 2886 0000 00000000 		.space	4
 2887              		.section	.bss.cutoff,"aw",%nobits
 2888              		.align	2
 2889              		.set	.LANCHOR13,. + 0
 2892              	cutoff:
 2893 0000 00000000 		.space	4
 2894              		.section	.bss.k1,"aw",%nobits
 2895              		.align	2
 2896              		.set	.LANCHOR10,. + 0
 2899              	k1:
 2900 0000 00000000 		.space	4
 2901              		.section	.bss.k2,"aw",%nobits
 2902              		.align	2
 2903              		.set	.LANCHOR9,. + 0
ARM GAS  /tmp/ccmhSQ6q.s 			page 82


 2906              	k2:
 2907 0000 00000000 		.space	4
 2908              		.section	.bss.lfoAmp,"aw",%nobits
 2909              		.align	2
 2910              		.set	.LANCHOR14,. + 0
 2913              	lfoAmp:
 2914 0000 00000000 		.space	4
 2915              		.section	.bss.lfoFreq,"aw",%nobits
 2916              		.align	2
 2917              		.set	.LANCHOR15,. + 0
 2920              	lfoFreq:
 2921 0000 00000000 		.space	4
 2922              		.section	.bss.mode,"aw",%nobits
 2923              		.align	2
 2924              		.set	.LANCHOR6,. + 0
 2927              	mode:
 2928 0000 00000000 		.space	4
 2929              		.section	.bss.oldk1,"aw",%nobits
 2930              		.align	2
 2931              		.set	.LANCHOR8,. + 0
 2934              	oldk1:
 2935 0000 00000000 		.space	4
 2936              		.section	.bss.oldk2,"aw",%nobits
 2937              		.align	2
 2938              		.set	.LANCHOR7,. + 0
 2941              	oldk2:
 2942 0000 00000000 		.space	4
 2943              		.section	.bss.oscFreq,"aw",%nobits
 2944              		.align	2
 2945              		.set	.LANCHOR3,. + 0
 2948              	oscFreq:
 2949 0000 00000000 		.space	4
 2950              		.section	.bss.release,"aw",%nobits
 2951              		.align	2
 2952              		.set	.LANCHOR12,. + 0
 2955              	release:
 2956 0000 00000000 		.space	4
 2957              		.section	.bss.selfCycle,"aw",%nobits
 2958              		.set	.LANCHOR16,. + 0
 2961              	selfCycle:
 2962 0000 00       		.space	1
 2963              		.section	.bss.vibrato,"aw",%nobits
 2964              		.align	2
 2965              		.set	.LANCHOR2,. + 0
 2968              	vibrato:
 2969 0000 00000000 		.space	4
 2970              		.section	.bss.wave,"aw",%nobits
 2971              		.align	2
 2972              		.set	.LANCHOR17,. + 0
 2975              	wave:
 2976 0000 00000000 		.space	4
 2977              		.text
 2978              	.Letext0:
 2979              		.file 22 "/usr/lib/gcc/arm-none-eabi/9.2.1/include/stdint.h"
 2980              		.file 23 "../../libdaisy/Drivers/CMSIS/Include/core_cm7.h"
 2981              		.file 24 "../../libdaisy/Drivers/CMSIS/Device/ST/STM32H7xx/Include/system_stm32h7xx.h"
 2982              		.file 25 "/usr/lib/gcc/arm-none-eabi/9.2.1/include/stddef.h"
ARM GAS  /tmp/ccmhSQ6q.s 			page 83


 2983              		.file 26 "/usr/include/newlib/c++/9.2.1/cmath"
 2984              		.file 27 "/usr/include/newlib/c++/9.2.1/cstdint"
 2985              		.file 28 "/usr/include/newlib/c++/9.2.1/cstdlib"
 2986              		.file 29 "/usr/include/newlib/c++/9.2.1/type_traits"
 2987              		.file 30 "/usr/include/newlib/c++/9.2.1/arm-none-eabi/thumb/v7e-m+dp/hard/bits/c++config.h"
 2988              		.file 31 "/usr/include/newlib/c++/9.2.1/bits/stl_pair.h"
 2989              		.file 32 "/usr/include/newlib/c++/9.2.1/debug/debug.h"
 2990              		.file 33 "/usr/include/newlib/c++/9.2.1/cwchar"
 2991              		.file 34 "/usr/include/newlib/c++/9.2.1/bits/exception_ptr.h"
 2992              		.file 35 "/usr/include/newlib/c++/9.2.1/new"
 2993              		.file 36 "/usr/include/newlib/c++/9.2.1/clocale"
 2994              		.file 37 "/usr/include/newlib/c++/9.2.1/cstdio"
 2995              		.file 38 "/usr/include/newlib/c++/9.2.1/bits/basic_string.h"
 2996              		.file 39 "/usr/include/newlib/c++/9.2.1/bits/uniform_int_dist.h"
 2997              		.file 40 "/usr/include/newlib/c++/9.2.1/bits/random.h"
 2998              		.file 41 "/usr/include/newlib/c++/9.2.1/cstring"
 2999              		.file 42 "/usr/include/newlib/c++/9.2.1/bits/algorithmfwd.h"
 3000              		.file 43 "/usr/include/newlib/c++/9.2.1/cstdarg"
 3001              		.file 44 "/usr/include/newlib/c++/9.2.1/bits/predefined_ops.h"
 3002              		.file 45 "/usr/include/newlib/c++/9.2.1/ext/new_allocator.h"
 3003              		.file 46 "/usr/include/newlib/c++/9.2.1/ext/numeric_traits.h"
 3004              		.file 47 "/usr/include/newlib/sys/_types.h"
 3005              		.file 48 "<built-in>"
 3006              		.file 49 "/usr/include/newlib/sys/reent.h"
 3007              		.file 50 "/usr/include/newlib/sys/lock.h"
 3008              		.file 51 "/usr/include/newlib/math.h"
 3009              		.file 52 "/usr/include/newlib/stdlib.h"
 3010              		.file 53 "/usr/include/newlib/c++/9.2.1/math.h"
 3011              		.file 54 "../../libdaisy/Drivers/STM32H7xx_HAL_Driver/Inc/stm32h7xx_hal_def.h"
 3012              		.file 55 "../../libdaisy/Drivers/STM32H7xx_HAL_Driver/Inc/stm32h7xx_hal_flash.h"
 3013              		.file 56 "../../DaisySP/Source/Utility/dsp.h"
 3014              		.file 57 "/usr/lib/gcc/arm-none-eabi/9.2.1/include/stdarg.h"
 3015              		.file 58 "/usr/include/newlib/wchar.h"
 3016              		.file 59 "/usr/include/newlib/locale.h"
 3017              		.file 60 "/usr/include/newlib/ctype.h"
 3018              		.file 61 "/usr/include/newlib/stdio.h"
 3019              		.file 62 "/usr/include/newlib/sys/errno.h"
 3020              		.file 63 "/usr/include/newlib/c++/9.2.1/stdlib.h"
 3021              		.file 64 "/usr/include/newlib/string.h"
 3022              		.file 65 "../../libdaisy/src/daisy_core.h"
 3023              		.file 66 "../../libdaisy/src/per/tim.h"
 3024              		.file 67 "../../libdaisy/src/per/sai.h"
 3025              		.file 68 "../../libdaisy/src/hid/MidiEvent.h"
 3026              		.file 69 "../../libdaisy/src/util/wav_format.h"
 3027              		.file 70 "../../libdaisy/src/util/color.h"
 3028              		.file 71 "../../libdaisy/src/per/qspi.h"
 3029              		.file 72 "../../libdaisy/src/per/gpio.h"
 3030              		.file 73 "../../libdaisy/src/dev/sdram.h"
 3031              		.file 74 "/usr/include/newlib/sys/unistd.h"
 3032              		.file 75 "../../libdaisy/src/util/oled_fonts.h"
 3033              		.file 76 "../../libdaisy/Middlewares/Third_Party/FatFs/src/integer.h"
 3034              		.file 77 "../../libdaisy/Middlewares/Third_Party/FatFs/src/ff.h"
 3035              		.file 78 "../../libdaisy/Middlewares/Third_Party/FatFs/src/diskio.h"
 3036              		.file 79 "../../libdaisy/Middlewares/Third_Party/FatFs/src/ff_gen_drv.h"
 3037              		.file 80 "../../libdaisy/src/util/sd_diskio.h"
 3038              		.file 81 "../../libdaisy/src/sys/fatfs.h"
 3039              		.file 82 "../../libdaisy/src/dev/sr_595.h"
ARM GAS  /tmp/ccmhSQ6q.s 			page 84


ARM GAS  /tmp/ccmhSQ6q.s 			page 85

