ARM GAS  /tmp/cc3Km3GO.s 			page 1


   1              		.cpu cortex-m7
   2              		.eabi_attribute 28, 1
   3              		.eabi_attribute 20, 1
   4              		.eabi_attribute 21, 1
   5              		.eabi_attribute 23, 3
   6              		.eabi_attribute 24, 1
   7              		.eabi_attribute 25, 1
   8              		.eabi_attribute 26, 1
   9              		.eabi_attribute 30, 2
  10              		.eabi_attribute 34, 1
  11              		.eabi_attribute 18, 4
  12              		.file	"Looper.cpp"
  13              		.text
  14              	.Ltext0:
  15              		.cfi_sections	.debug_frame
  16              		.section	.text._ZN5daisy10DaisyPetalD2Ev,"axG",%progbits,_ZN5daisy10DaisyPetalD5Ev,comdat
  17              		.align	1
  18              		.p2align 2,,3
  19              		.weak	_ZN5daisy10DaisyPetalD2Ev
  20              		.arch armv7e-m
  21              		.syntax unified
  22              		.thumb
  23              		.thumb_func
  24              		.fpu fpv5-d16
  26              	_ZN5daisy10DaisyPetalD2Ev:
  27              	.LVL0:
  28              	.LFB4219:
  29              		.file 1 "../../libdaisy/src/daisy_petal.h"
   1:../../libdaisy/src/daisy_petal.h **** #pragma once
   2:../../libdaisy/src/daisy_petal.h **** #ifndef DSY_PETAL_H
   3:../../libdaisy/src/daisy_petal.h **** #define DSY_PETAL_H /**< & */
   4:../../libdaisy/src/daisy_petal.h **** 
   5:../../libdaisy/src/daisy_petal.h **** #include "daisy_seed.h"
   6:../../libdaisy/src/daisy_petal.h **** 
   7:../../libdaisy/src/daisy_petal.h **** namespace daisy
   8:../../libdaisy/src/daisy_petal.h **** {
   9:../../libdaisy/src/daisy_petal.h **** /**
  10:../../libdaisy/src/daisy_petal.h ****    @brief Helpers and hardware definitions for daisy petal.
  11:../../libdaisy/src/daisy_petal.h ****    @ingroup boards
  12:../../libdaisy/src/daisy_petal.h **** */
  13:../../libdaisy/src/daisy_petal.h **** class DaisyPetal
  14:../../libdaisy/src/daisy_petal.h **** {
  15:../../libdaisy/src/daisy_petal.h ****   public:
  16:../../libdaisy/src/daisy_petal.h ****     /** Switches */
  17:../../libdaisy/src/daisy_petal.h ****     enum Sw
  18:../../libdaisy/src/daisy_petal.h ****     {
  19:../../libdaisy/src/daisy_petal.h ****         SW_1,    /**< Footswitch */
  20:../../libdaisy/src/daisy_petal.h ****         SW_2,    /**< Footswitch */
  21:../../libdaisy/src/daisy_petal.h ****         SW_3,    /**< Footswitch */
  22:../../libdaisy/src/daisy_petal.h ****         SW_4,    /**< Footswitch */
  23:../../libdaisy/src/daisy_petal.h ****         SW_5,    /**< Toggle */
  24:../../libdaisy/src/daisy_petal.h ****         SW_6,    /**< Toggle */
  25:../../libdaisy/src/daisy_petal.h ****         SW_7,    /**< Toggle */
  26:../../libdaisy/src/daisy_petal.h ****         SW_LAST, /**< Last enum item */
  27:../../libdaisy/src/daisy_petal.h ****     };
  28:../../libdaisy/src/daisy_petal.h **** 
  29:../../libdaisy/src/daisy_petal.h ****     /** Knobs */
ARM GAS  /tmp/cc3Km3GO.s 			page 2


  30:../../libdaisy/src/daisy_petal.h ****     enum Knob
  31:../../libdaisy/src/daisy_petal.h ****     {
  32:../../libdaisy/src/daisy_petal.h ****         KNOB_1,    /**< & */
  33:../../libdaisy/src/daisy_petal.h ****         KNOB_2,    /**< & */
  34:../../libdaisy/src/daisy_petal.h ****         KNOB_3,    /**< & */
  35:../../libdaisy/src/daisy_petal.h ****         KNOB_4,    /**< & */
  36:../../libdaisy/src/daisy_petal.h ****         KNOB_5,    /**< & */
  37:../../libdaisy/src/daisy_petal.h ****         KNOB_6,    /**< & */
  38:../../libdaisy/src/daisy_petal.h ****         KNOB_LAST, /**< & */
  39:../../libdaisy/src/daisy_petal.h ****     };
  40:../../libdaisy/src/daisy_petal.h **** 
  41:../../libdaisy/src/daisy_petal.h ****     /** Leds in ringled */
  42:../../libdaisy/src/daisy_petal.h ****     enum RingLed
  43:../../libdaisy/src/daisy_petal.h ****     {
  44:../../libdaisy/src/daisy_petal.h ****         RING_LED_1,   /**< & */
  45:../../libdaisy/src/daisy_petal.h ****         RING_LED_2,   /**< & */
  46:../../libdaisy/src/daisy_petal.h ****         RING_LED_3,   /**< & */
  47:../../libdaisy/src/daisy_petal.h ****         RING_LED_4,   /**< & */
  48:../../libdaisy/src/daisy_petal.h ****         RING_LED_5,   /**< & */
  49:../../libdaisy/src/daisy_petal.h ****         RING_LED_6,   /**< & */
  50:../../libdaisy/src/daisy_petal.h ****         RING_LED_7,   /**< & */
  51:../../libdaisy/src/daisy_petal.h ****         RING_LED_8,   /**< & */
  52:../../libdaisy/src/daisy_petal.h ****         RING_LED_LAST /**< & */
  53:../../libdaisy/src/daisy_petal.h ****     };
  54:../../libdaisy/src/daisy_petal.h **** 
  55:../../libdaisy/src/daisy_petal.h ****     /** footswitch leds */
  56:../../libdaisy/src/daisy_petal.h ****     enum FootswitchLed
  57:../../libdaisy/src/daisy_petal.h ****     {
  58:../../libdaisy/src/daisy_petal.h ****         FOOTSWITCH_LED_1,    /**< & */
  59:../../libdaisy/src/daisy_petal.h ****         FOOTSWITCH_LED_2,    /**< & */
  60:../../libdaisy/src/daisy_petal.h ****         FOOTSWITCH_LED_3,    /**< & */
  61:../../libdaisy/src/daisy_petal.h ****         FOOTSWITCH_LED_4,    /**< & */
  62:../../libdaisy/src/daisy_petal.h ****         FOOTSWITCH_LED_LAST, /**< & */
  63:../../libdaisy/src/daisy_petal.h ****     };
  64:../../libdaisy/src/daisy_petal.h **** 
  65:../../libdaisy/src/daisy_petal.h ****     /** Constructor */
  66:../../libdaisy/src/daisy_petal.h ****     DaisyPetal() {}
  67:../../libdaisy/src/daisy_petal.h ****     /** Destructor */
  68:../../libdaisy/src/daisy_petal.h ****     ~DaisyPetal() {}
  30              		.loc 1 68 5 view -0
  31              		.cfi_startproc
  32              		@ args = 0, pretend = 0, frame = 0
  33              		@ frame_needed = 0, uses_anonymous_args = 0
  34              		@ link register save eliminated.
  35              	.LBB205:
  36              	.LBI205:
  37              		.file 2 "../../libdaisy/src/hid/ctrl.h"
   1:../../libdaisy/src/hid/ctrl.h **** #pragma once
   2:../../libdaisy/src/hid/ctrl.h **** #ifndef DSY_KNOB_H
   3:../../libdaisy/src/hid/ctrl.h **** #define DSY_KNOB_H /**< & */
   4:../../libdaisy/src/hid/ctrl.h **** #include <stdint.h>
   5:../../libdaisy/src/hid/ctrl.h **** 
   6:../../libdaisy/src/hid/ctrl.h **** #ifdef __cplusplus
   7:../../libdaisy/src/hid/ctrl.h **** namespace daisy
   8:../../libdaisy/src/hid/ctrl.h **** {
   9:../../libdaisy/src/hid/ctrl.h **** /**
  10:../../libdaisy/src/hid/ctrl.h ****     @brief Hardware Interface for control inputs \n 
ARM GAS  /tmp/cc3Km3GO.s 			page 3


  11:../../libdaisy/src/hid/ctrl.h ****     Primarily designed for ADC input controls such as \n 
  12:../../libdaisy/src/hid/ctrl.h ****     potentiometers, and control voltage. \n 
  13:../../libdaisy/src/hid/ctrl.h ****     @author Stephen Hensley
  14:../../libdaisy/src/hid/ctrl.h ****     @date November 2019
  15:../../libdaisy/src/hid/ctrl.h ****     @ingroup controls
  16:../../libdaisy/src/hid/ctrl.h **** */
  17:../../libdaisy/src/hid/ctrl.h **** class AnalogControl
  18:../../libdaisy/src/hid/ctrl.h **** {
  19:../../libdaisy/src/hid/ctrl.h ****   public:
  20:../../libdaisy/src/hid/ctrl.h ****     /** Constructor */
  21:../../libdaisy/src/hid/ctrl.h ****     AnalogControl() {}
  22:../../libdaisy/src/hid/ctrl.h ****     /** destructor */
  23:../../libdaisy/src/hid/ctrl.h ****     ~AnalogControl() {}
  38              		.loc 2 23 5 view .LVU1
  39              		.loc 2 23 5 is_stmt 0 view .LVU2
  40              	.LBE205:
  41              	.LBB206:
  42              	.LBI206:
  43              		.file 3 "../../libdaisy/src/hid/encoder.h"
   1:../../libdaisy/src/hid/encoder.h **** #pragma once
   2:../../libdaisy/src/hid/encoder.h **** #ifndef DSY_ENCODER_H
   3:../../libdaisy/src/hid/encoder.h **** #define DSY_ENCODER_H
   4:../../libdaisy/src/hid/encoder.h **** #include "daisy_core.h"
   5:../../libdaisy/src/hid/encoder.h **** #include "per/gpio.h"
   6:../../libdaisy/src/hid/encoder.h **** #include "hid/switch.h"
   7:../../libdaisy/src/hid/encoder.h **** 
   8:../../libdaisy/src/hid/encoder.h **** namespace daisy
   9:../../libdaisy/src/hid/encoder.h **** {
  10:../../libdaisy/src/hid/encoder.h **** /** 
  11:../../libdaisy/src/hid/encoder.h ****     @brief Generic Class for handling Quadrature Encoders \n 
  12:../../libdaisy/src/hid/encoder.h ****     Inspired/influenced by Mutable Instruments (pichenettes) Encoder classes
  13:../../libdaisy/src/hid/encoder.h ****     @author Stephen Hensley
  14:../../libdaisy/src/hid/encoder.h ****     @date December 2019
  15:../../libdaisy/src/hid/encoder.h ****     @ingroup controls
  16:../../libdaisy/src/hid/encoder.h **** */
  17:../../libdaisy/src/hid/encoder.h **** class Encoder
  18:../../libdaisy/src/hid/encoder.h **** {
  19:../../libdaisy/src/hid/encoder.h ****   public:
  20:../../libdaisy/src/hid/encoder.h ****     Encoder() {}
  21:../../libdaisy/src/hid/encoder.h ****     ~Encoder() {}
  44              		.loc 3 21 5 is_stmt 1 view .LVU3
  45              	.LBB207:
  46              	.LBI207:
  47              		.file 4 "../../libdaisy/src/hid/switch.h"
   1:../../libdaisy/src/hid/switch.h **** #pragma once
   2:../../libdaisy/src/hid/switch.h **** #ifndef DSY_SWITCH_H
   3:../../libdaisy/src/hid/switch.h **** #define DSY_SWITCH_H
   4:../../libdaisy/src/hid/switch.h **** #include "daisy_core.h"
   5:../../libdaisy/src/hid/switch.h **** #include "per/gpio.h"
   6:../../libdaisy/src/hid/switch.h **** 
   7:../../libdaisy/src/hid/switch.h **** namespace daisy
   8:../../libdaisy/src/hid/switch.h **** {
   9:../../libdaisy/src/hid/switch.h **** /** 
  10:../../libdaisy/src/hid/switch.h ****     Generic Class for handling momentary/latching switches \n 
  11:../../libdaisy/src/hid/switch.h ****     Inspired/influenced by Mutable Instruments (pichenettes) Switch classes
  12:../../libdaisy/src/hid/switch.h ****     @author Stephen Hensley
  13:../../libdaisy/src/hid/switch.h ****     @date December 2019
ARM GAS  /tmp/cc3Km3GO.s 			page 4


  14:../../libdaisy/src/hid/switch.h ****     @ingroup controls
  15:../../libdaisy/src/hid/switch.h **** */
  16:../../libdaisy/src/hid/switch.h **** class Switch
  17:../../libdaisy/src/hid/switch.h **** {
  18:../../libdaisy/src/hid/switch.h ****   public:
  19:../../libdaisy/src/hid/switch.h ****     /** Specifies the expected behavior of the switch */
  20:../../libdaisy/src/hid/switch.h ****     enum Type
  21:../../libdaisy/src/hid/switch.h ****     {
  22:../../libdaisy/src/hid/switch.h ****         TYPE_TOGGLE,    /**< & */
  23:../../libdaisy/src/hid/switch.h ****         TYPE_MOMENTARY, /**< & */
  24:../../libdaisy/src/hid/switch.h ****     };
  25:../../libdaisy/src/hid/switch.h ****     /** Specifies whether the pressed is HIGH or LOW. */
  26:../../libdaisy/src/hid/switch.h ****     enum Polarity
  27:../../libdaisy/src/hid/switch.h ****     {
  28:../../libdaisy/src/hid/switch.h ****         POLARITY_NORMAL,   /**< & */
  29:../../libdaisy/src/hid/switch.h ****         POLARITY_INVERTED, /**< & */
  30:../../libdaisy/src/hid/switch.h ****     };
  31:../../libdaisy/src/hid/switch.h **** 
  32:../../libdaisy/src/hid/switch.h ****     /** Specifies whether to use built-in Pull Up/Down resistors to hold button at a given state wh
  33:../../libdaisy/src/hid/switch.h ****     enum Pull
  34:../../libdaisy/src/hid/switch.h ****     {
  35:../../libdaisy/src/hid/switch.h ****         PULL_UP,   /**< & */
  36:../../libdaisy/src/hid/switch.h ****         PULL_DOWN, /**< & */
  37:../../libdaisy/src/hid/switch.h ****         PULL_NONE, /**< & */
  38:../../libdaisy/src/hid/switch.h ****     };
  39:../../libdaisy/src/hid/switch.h **** 
  40:../../libdaisy/src/hid/switch.h ****     Switch() {}
  41:../../libdaisy/src/hid/switch.h ****     ~Switch() {}
  48              		.loc 4 41 5 view .LVU4
  49              		.loc 4 41 5 is_stmt 0 view .LVU5
  50              	.LBE207:
  51              	.LBE206:
  52              	.LBB208:
  53              	.LBI208:
  54              		.file 5 "../../libdaisy/src/daisy_seed.h"
   1:../../libdaisy/src/daisy_seed.h **** #pragma once
   2:../../libdaisy/src/daisy_seed.h **** #ifndef DSY_SEED_H
   3:../../libdaisy/src/daisy_seed.h **** #define DSY_SEED_H
   4:../../libdaisy/src/daisy_seed.h **** 
   5:../../libdaisy/src/daisy_seed.h **** #include "daisy.h"
   6:../../libdaisy/src/daisy_seed.h **** 
   7:../../libdaisy/src/daisy_seed.h **** //Uncomment this out if you're still using the rev2 hardware
   8:../../libdaisy/src/daisy_seed.h **** //#define SEED_REV2
   9:../../libdaisy/src/daisy_seed.h **** 
  10:../../libdaisy/src/daisy_seed.h **** namespace daisy
  11:../../libdaisy/src/daisy_seed.h **** {
  12:../../libdaisy/src/daisy_seed.h **** /**
  13:../../libdaisy/src/daisy_seed.h ****    @brief This is the higher-level interface for the Daisy board. \n 
  14:../../libdaisy/src/daisy_seed.h ****     All basic peripheral configuration/initialization is setup here. \n
  15:../../libdaisy/src/daisy_seed.h **** 
  16:../../libdaisy/src/daisy_seed.h ****    @ingroup boards
  17:../../libdaisy/src/daisy_seed.h **** */
  18:../../libdaisy/src/daisy_seed.h **** class DaisySeed
  19:../../libdaisy/src/daisy_seed.h **** {
  20:../../libdaisy/src/daisy_seed.h ****   public:
  21:../../libdaisy/src/daisy_seed.h ****     DaisySeed() {}
  22:../../libdaisy/src/daisy_seed.h ****     ~DaisySeed() {}
ARM GAS  /tmp/cc3Km3GO.s 			page 5


  55              		.loc 5 22 5 is_stmt 1 view .LVU6
  56              	.LBB209:
  57              	.LBI209:
  58              		.file 6 "../../libdaisy/src/sys/system.h"
   1:../../libdaisy/src/sys/system.h **** #ifndef DSY_SYSTEM_H
   2:../../libdaisy/src/sys/system.h **** #define DSY_SYSTEM_H
   3:../../libdaisy/src/sys/system.h **** 
   4:../../libdaisy/src/sys/system.h **** #ifndef UNIT_TEST // for unit tests, a dummy implementation is provided below
   5:../../libdaisy/src/sys/system.h **** 
   6:../../libdaisy/src/sys/system.h **** #include <cstdint>
   7:../../libdaisy/src/sys/system.h **** #include "per/tim.h"
   8:../../libdaisy/src/sys/system.h **** 
   9:../../libdaisy/src/sys/system.h **** namespace daisy
  10:../../libdaisy/src/sys/system.h **** {
  11:../../libdaisy/src/sys/system.h **** /** A handle for interacting with the Core System. 
  12:../../libdaisy/src/sys/system.h ****  ** This includes the Clock tree, MPU, global DMA initialization,
  13:../../libdaisy/src/sys/system.h ****  ** cache handling, and any other necessary global initiailzation
  14:../../libdaisy/src/sys/system.h ****  **
  15:../../libdaisy/src/sys/system.h ****  ** @author shensley
  16:../../libdaisy/src/sys/system.h ****  ** @addtogroup system
  17:../../libdaisy/src/sys/system.h ****  */
  18:../../libdaisy/src/sys/system.h **** class System
  19:../../libdaisy/src/sys/system.h **** {
  20:../../libdaisy/src/sys/system.h ****   public:
  21:../../libdaisy/src/sys/system.h ****     /** Contains settings for initializing the System */
  22:../../libdaisy/src/sys/system.h ****     struct Config
  23:../../libdaisy/src/sys/system.h ****     {
  24:../../libdaisy/src/sys/system.h ****         /** Specifies the system clock frequency that feeds APB/AHB clocks, etc. */
  25:../../libdaisy/src/sys/system.h ****         enum class SysClkFreq
  26:../../libdaisy/src/sys/system.h ****         {
  27:../../libdaisy/src/sys/system.h ****             FREQ_400MHZ,
  28:../../libdaisy/src/sys/system.h ****             FREQ_480MHZ,
  29:../../libdaisy/src/sys/system.h ****         };
  30:../../libdaisy/src/sys/system.h **** 
  31:../../libdaisy/src/sys/system.h ****         /** Method to call on the struct to set to defaults
  32:../../libdaisy/src/sys/system.h ****          ** CPU Freq set to 400MHz
  33:../../libdaisy/src/sys/system.h ****          ** Cache Enabled 
  34:../../libdaisy/src/sys/system.h ****          ** */
  35:../../libdaisy/src/sys/system.h ****         void Defaults()
  36:../../libdaisy/src/sys/system.h ****         {
  37:../../libdaisy/src/sys/system.h ****             cpu_freq   = SysClkFreq::FREQ_400MHZ;
  38:../../libdaisy/src/sys/system.h ****             use_dcache = true;
  39:../../libdaisy/src/sys/system.h ****             use_icache = true;
  40:../../libdaisy/src/sys/system.h ****         }
  41:../../libdaisy/src/sys/system.h **** 
  42:../../libdaisy/src/sys/system.h ****         /** Method to call on the struct to set to boost mode:
  43:../../libdaisy/src/sys/system.h ****          ** CPU Freq set to 480MHz
  44:../../libdaisy/src/sys/system.h ****          ** Cache Enabled 
  45:../../libdaisy/src/sys/system.h ****          ** */
  46:../../libdaisy/src/sys/system.h ****         void Boost()
  47:../../libdaisy/src/sys/system.h ****         {
  48:../../libdaisy/src/sys/system.h ****             cpu_freq   = SysClkFreq::FREQ_480MHZ;
  49:../../libdaisy/src/sys/system.h ****             use_dcache = true;
  50:../../libdaisy/src/sys/system.h ****             use_icache = true;
  51:../../libdaisy/src/sys/system.h ****         }
  52:../../libdaisy/src/sys/system.h **** 
  53:../../libdaisy/src/sys/system.h ****         SysClkFreq cpu_freq;
ARM GAS  /tmp/cc3Km3GO.s 			page 6


  54:../../libdaisy/src/sys/system.h ****         bool       use_dcache;
  55:../../libdaisy/src/sys/system.h ****         bool       use_icache;
  56:../../libdaisy/src/sys/system.h ****     };
  57:../../libdaisy/src/sys/system.h **** 
  58:../../libdaisy/src/sys/system.h ****     System() {}
  59:../../libdaisy/src/sys/system.h ****     ~System() {}
  59              		.loc 6 59 5 view .LVU7
  60              		.loc 6 59 5 is_stmt 0 view .LVU8
  61              	.LBE209:
  62              	.LBB210:
  63              	.LBI210:
  64              		.file 7 "../../libdaisy/src/hid/usb.h"
   1:../../libdaisy/src/hid/usb.h **** #pragma once
   2:../../libdaisy/src/hid/usb.h **** #ifndef DSY_HID_USB_H
   3:../../libdaisy/src/hid/usb.h **** #define DSY_HID_USB_H
   4:../../libdaisy/src/hid/usb.h **** #include <stdint.h>
   5:../../libdaisy/src/hid/usb.h **** #include <stdlib.h>
   6:../../libdaisy/src/hid/usb.h **** 
   7:../../libdaisy/src/hid/usb.h **** namespace daisy
   8:../../libdaisy/src/hid/usb.h **** /** @addtogroup externals
   9:../../libdaisy/src/hid/usb.h ****     @{
  10:../../libdaisy/src/hid/usb.h **** */
  11:../../libdaisy/src/hid/usb.h **** 
  12:../../libdaisy/src/hid/usb.h **** {
  13:../../libdaisy/src/hid/usb.h **** /** 
  14:../../libdaisy/src/hid/usb.h ****     @brief Interface for initializing and using the USB Peripherals on the daisy
  15:../../libdaisy/src/hid/usb.h ****     @author Stephen Hensley
  16:../../libdaisy/src/hid/usb.h ****     @date December 2019
  17:../../libdaisy/src/hid/usb.h **** */
  18:../../libdaisy/src/hid/usb.h **** class UsbHandle
  19:../../libdaisy/src/hid/usb.h **** {
  20:../../libdaisy/src/hid/usb.h ****   public:
  21:../../libdaisy/src/hid/usb.h ****     /** Return values for USBHandle Functions */
  22:../../libdaisy/src/hid/usb.h ****     enum class Result
  23:../../libdaisy/src/hid/usb.h ****     {
  24:../../libdaisy/src/hid/usb.h ****         OK,
  25:../../libdaisy/src/hid/usb.h ****         ERR,
  26:../../libdaisy/src/hid/usb.h ****     };
  27:../../libdaisy/src/hid/usb.h **** 
  28:../../libdaisy/src/hid/usb.h ****     /** Specified which of the two USB Peripherals to initialize. */
  29:../../libdaisy/src/hid/usb.h ****     enum UsbPeriph
  30:../../libdaisy/src/hid/usb.h ****     {
  31:../../libdaisy/src/hid/usb.h ****         FS_INTERNAL, /**< Internal pin */
  32:../../libdaisy/src/hid/usb.h ****         FS_EXTERNAL, /**< FS External D+ pin is Pin 38 (GPIO32). FS External D- pin is Pin 37 (GPIO
  33:../../libdaisy/src/hid/usb.h ****         FS_BOTH,     /**< Both */
  34:../../libdaisy/src/hid/usb.h ****     };
  35:../../libdaisy/src/hid/usb.h **** 
  36:../../libdaisy/src/hid/usb.h **** 
  37:../../libdaisy/src/hid/usb.h ****     /** Function called upon reception of a buffer */
  38:../../libdaisy/src/hid/usb.h ****     typedef void (*ReceiveCallback)(uint8_t* buff, uint32_t* len);
  39:../../libdaisy/src/hid/usb.h **** 
  40:../../libdaisy/src/hid/usb.h ****     UsbHandle() {}
  41:../../libdaisy/src/hid/usb.h **** 
  42:../../libdaisy/src/hid/usb.h ****     ~UsbHandle() {}
  65              		.loc 7 42 5 is_stmt 1 view .LVU9
  66              		.loc 7 42 5 is_stmt 0 view .LVU10
  67              	.LBE210:
ARM GAS  /tmp/cc3Km3GO.s 			page 7


  68              	.LBB211:
  69              	.LBI211:
  70              		.file 8 "../../libdaisy/src/per/adc.h"
   1:../../libdaisy/src/per/adc.h **** #pragma once
   2:../../libdaisy/src/per/adc.h **** #ifndef DSY_ADC_H
   3:../../libdaisy/src/per/adc.h **** #define DSY_ADC_H /**< Macro */
   4:../../libdaisy/src/per/adc.h **** #include <stdint.h>
   5:../../libdaisy/src/per/adc.h **** #include <stdlib.h>
   6:../../libdaisy/src/per/adc.h **** #include "daisy_core.h"
   7:../../libdaisy/src/per/adc.h **** #include "per/gpio.h"
   8:../../libdaisy/src/per/adc.h **** 
   9:../../libdaisy/src/per/adc.h **** #define DSY_ADC_MAX_CHANNELS 14 /**< Maximum number of ADC channels */
  10:../../libdaisy/src/per/adc.h **** 
  11:../../libdaisy/src/per/adc.h **** namespace daisy
  12:../../libdaisy/src/per/adc.h **** {
  13:../../libdaisy/src/per/adc.h **** /** @addtogroup analog_digital_conversion
  14:../../libdaisy/src/per/adc.h ****     @{
  15:../../libdaisy/src/per/adc.h **** */
  16:../../libdaisy/src/per/adc.h **** 
  17:../../libdaisy/src/per/adc.h **** /* While there may not be many configuration options here,
  18:../../libdaisy/src/per/adc.h **** using a struct like this allows us to add more configuration
  19:../../libdaisy/src/per/adc.h **** later without breaking existing functionality.
  20:../../libdaisy/src/per/adc.h **** */
  21:../../libdaisy/src/per/adc.h **** 
  22:../../libdaisy/src/per/adc.h **** /** Configuration Structure for a given channel */
  23:../../libdaisy/src/per/adc.h **** struct AdcChannelConfig
  24:../../libdaisy/src/per/adc.h **** {
  25:../../libdaisy/src/per/adc.h ****     /** Which pin to use for multiplexing */
  26:../../libdaisy/src/per/adc.h ****     enum MuxPin
  27:../../libdaisy/src/per/adc.h ****     {
  28:../../libdaisy/src/per/adc.h ****         MUX_SEL_0,    /**< & */
  29:../../libdaisy/src/per/adc.h ****         MUX_SEL_1,    /**< & */
  30:../../libdaisy/src/per/adc.h ****         MUX_SEL_2,    /**< & */
  31:../../libdaisy/src/per/adc.h ****         MUX_SEL_LAST, /**< & */
  32:../../libdaisy/src/per/adc.h ****     };
  33:../../libdaisy/src/per/adc.h **** 
  34:../../libdaisy/src/per/adc.h ****     /** Initializes a single ADC pin as an ADC. 
  35:../../libdaisy/src/per/adc.h ****     \param pin Pin to init.
  36:../../libdaisy/src/per/adc.h ****      */
  37:../../libdaisy/src/per/adc.h ****     void InitSingle(dsy_gpio_pin pin);
  38:../../libdaisy/src/per/adc.h **** 
  39:../../libdaisy/src/per/adc.h ****     /** 
  40:../../libdaisy/src/per/adc.h ****     Initializes a single ADC pin as a Multiplexed ADC.
  41:../../libdaisy/src/per/adc.h ****     Requires a CD405X Multiplexer connected to the pin.
  42:../../libdaisy/src/per/adc.h ****     You only need to supply the mux pins that are required,
  43:../../libdaisy/src/per/adc.h ****     e.g. a 4052 mux would only require mux_0 and mux_1.
  44:../../libdaisy/src/per/adc.h ****     Internal Callbacks handle the pin addressing.
  45:../../libdaisy/src/per/adc.h ****     \param mux_channels must be 1-8
  46:../../libdaisy/src/per/adc.h ****     \param mux_0 First mux pin
  47:../../libdaisy/src/per/adc.h ****     \param mux_1 Second mux pin
  48:../../libdaisy/src/per/adc.h ****     \param mux_2 Third mux pin
  49:../../libdaisy/src/per/adc.h ****     \param adc_pin &
  50:../../libdaisy/src/per/adc.h ****     */
  51:../../libdaisy/src/per/adc.h ****     void InitMux(dsy_gpio_pin adc_pin,
  52:../../libdaisy/src/per/adc.h ****                  size_t       mux_channels,
  53:../../libdaisy/src/per/adc.h ****                  dsy_gpio_pin mux_0,
  54:../../libdaisy/src/per/adc.h ****                  dsy_gpio_pin mux_1 = {DSY_GPIOX, 0},
ARM GAS  /tmp/cc3Km3GO.s 			page 8


  55:../../libdaisy/src/per/adc.h ****                  dsy_gpio_pin mux_2 = {DSY_GPIOX, 0});
  56:../../libdaisy/src/per/adc.h **** 
  57:../../libdaisy/src/per/adc.h ****     dsy_gpio pin_;                   /**< & */
  58:../../libdaisy/src/per/adc.h ****     dsy_gpio mux_pin_[MUX_SEL_LAST]; /**< & */
  59:../../libdaisy/src/per/adc.h ****     uint8_t  mux_channels_;          /**< & */
  60:../../libdaisy/src/per/adc.h **** };
  61:../../libdaisy/src/per/adc.h **** 
  62:../../libdaisy/src/per/adc.h **** /**
  63:../../libdaisy/src/per/adc.h ****    Handler for analog to digital conversion
  64:../../libdaisy/src/per/adc.h **** */
  65:../../libdaisy/src/per/adc.h **** class AdcHandle
  66:../../libdaisy/src/per/adc.h **** {
  67:../../libdaisy/src/per/adc.h ****   public:
  68:../../libdaisy/src/per/adc.h ****     /** Supported oversampling amounts */
  69:../../libdaisy/src/per/adc.h ****     enum OverSampling
  70:../../libdaisy/src/per/adc.h ****     {
  71:../../libdaisy/src/per/adc.h ****         OVS_NONE, /**< & */
  72:../../libdaisy/src/per/adc.h ****         OVS_4,    /**< & */
  73:../../libdaisy/src/per/adc.h ****         OVS_8,    /**< & */
  74:../../libdaisy/src/per/adc.h ****         OVS_16,   /**< & */
  75:../../libdaisy/src/per/adc.h ****         OVS_32,   /**< & */
  76:../../libdaisy/src/per/adc.h ****         OVS_64,   /**< & */
  77:../../libdaisy/src/per/adc.h ****         OVS_128,  /**< & */
  78:../../libdaisy/src/per/adc.h ****         OVS_256,  /**< & */
  79:../../libdaisy/src/per/adc.h ****         OVS_512,  /**< & */
  80:../../libdaisy/src/per/adc.h ****         OVS_1024, /**< & */
  81:../../libdaisy/src/per/adc.h ****         OVS_LAST, /**< & */
  82:../../libdaisy/src/per/adc.h ****     };
  83:../../libdaisy/src/per/adc.h **** 
  84:../../libdaisy/src/per/adc.h ****     AdcHandle() {}
  85:../../libdaisy/src/per/adc.h ****     ~AdcHandle() {}
  71              		.loc 8 85 5 is_stmt 1 view .LVU11
  72              		.loc 8 85 5 is_stmt 0 view .LVU12
  73              	.LBE211:
  74              	.LBB212:
  75              	.LBI212:
  76              		.file 9 "../../libdaisy/src/hid/audio.h"
   1:../../libdaisy/src/hid/audio.h **** #ifndef DSY_AUDIO_H
   2:../../libdaisy/src/hid/audio.h **** #define DSY_AUDIO_H /**< & */
   3:../../libdaisy/src/hid/audio.h **** 
   4:../../libdaisy/src/hid/audio.h **** #include "per/sai.h"
   5:../../libdaisy/src/hid/audio.h **** 
   6:../../libdaisy/src/hid/audio.h **** namespace daisy
   7:../../libdaisy/src/hid/audio.h **** {
   8:../../libdaisy/src/hid/audio.h **** class AudioHandle
   9:../../libdaisy/src/hid/audio.h **** {
  10:../../libdaisy/src/hid/audio.h ****   public:
  11:../../libdaisy/src/hid/audio.h ****     /** Manually configurable details about the Audio Engine */
  12:../../libdaisy/src/hid/audio.h ****     /** TODO: Figure out how to get samplerate in here. */
  13:../../libdaisy/src/hid/audio.h ****     struct Config
  14:../../libdaisy/src/hid/audio.h ****     {
  15:../../libdaisy/src/hid/audio.h ****         size_t                        blocksize;
  16:../../libdaisy/src/hid/audio.h ****         SaiHandle::Config::SampleRate samplerate;
  17:../../libdaisy/src/hid/audio.h ****         float                         postgain;
  18:../../libdaisy/src/hid/audio.h ****     };
  19:../../libdaisy/src/hid/audio.h **** 
  20:../../libdaisy/src/hid/audio.h ****     enum class Result
ARM GAS  /tmp/cc3Km3GO.s 			page 9


  21:../../libdaisy/src/hid/audio.h ****     {
  22:../../libdaisy/src/hid/audio.h ****         OK,
  23:../../libdaisy/src/hid/audio.h ****         ERR,
  24:../../libdaisy/src/hid/audio.h ****     };
  25:../../libdaisy/src/hid/audio.h **** 
  26:../../libdaisy/src/hid/audio.h ****     /** Non-Interleaving input buffer
  27:../../libdaisy/src/hid/audio.h ****      * Buffer arranged by float[chn][sample] 
  28:../../libdaisy/src/hid/audio.h ****      * const so that the user can't modify the input
  29:../../libdaisy/src/hid/audio.h ****     */
  30:../../libdaisy/src/hid/audio.h ****     typedef const float* const* InputBuffer;
  31:../../libdaisy/src/hid/audio.h **** 
  32:../../libdaisy/src/hid/audio.h ****     /** Non-Interleaving output buffer
  33:../../libdaisy/src/hid/audio.h ****      * Arranged by float[chn][sample] 
  34:../../libdaisy/src/hid/audio.h ****     */
  35:../../libdaisy/src/hid/audio.h ****     typedef float** OutputBuffer;
  36:../../libdaisy/src/hid/audio.h **** 
  37:../../libdaisy/src/hid/audio.h ****     /** Type for a Non-Interleaving audio callback 
  38:../../libdaisy/src/hid/audio.h ****    * Non-Interleaving audio callbacks in daisy will be of this type
  39:../../libdaisy/src/hid/audio.h ****   */
  40:../../libdaisy/src/hid/audio.h ****     typedef void (*AudioCallback)(InputBuffer  in,
  41:../../libdaisy/src/hid/audio.h ****                                   OutputBuffer out,
  42:../../libdaisy/src/hid/audio.h ****                                   size_t       size);
  43:../../libdaisy/src/hid/audio.h **** 
  44:../../libdaisy/src/hid/audio.h ****     /** Interleaving Input buffer
  45:../../libdaisy/src/hid/audio.h ****      ** audio is prepared as { L0, R0, L1, R1, . . . LN, RN }]
  46:../../libdaisy/src/hid/audio.h ****      ** this is const, as the user shouldn't modify it
  47:../../libdaisy/src/hid/audio.h ****     */
  48:../../libdaisy/src/hid/audio.h ****     typedef const float* InterleavingInputBuffer;
  49:../../libdaisy/src/hid/audio.h **** 
  50:../../libdaisy/src/hid/audio.h ****     /** Interleaving Output buffer 
  51:../../libdaisy/src/hid/audio.h ****      ** audio is prepared as { L0, R0, L1, R1, . . . LN, RN }
  52:../../libdaisy/src/hid/audio.h ****     */
  53:../../libdaisy/src/hid/audio.h ****     typedef float* InterleavingOutputBuffer;
  54:../../libdaisy/src/hid/audio.h **** 
  55:../../libdaisy/src/hid/audio.h ****     /** Interleaving Audio Callback 
  56:../../libdaisy/src/hid/audio.h ****    * Interleaving audio callbacks in daisy must be of this type
  57:../../libdaisy/src/hid/audio.h ****   */
  58:../../libdaisy/src/hid/audio.h ****     typedef void (*InterleavingAudioCallback)(InterleavingInputBuffer  in,
  59:../../libdaisy/src/hid/audio.h ****                                               InterleavingOutputBuffer out,
  60:../../libdaisy/src/hid/audio.h ****                                               size_t                   size);
  61:../../libdaisy/src/hid/audio.h **** 
  62:../../libdaisy/src/hid/audio.h ****     AudioHandle() : pimpl_(nullptr) {}
  63:../../libdaisy/src/hid/audio.h ****     ~AudioHandle() {}
  77              		.loc 9 63 5 is_stmt 1 view .LVU13
  78              		.loc 9 63 5 is_stmt 0 view .LVU14
  79              	.LBE212:
  80              	.LBE208:
  81              		.loc 1 68 20 view .LVU15
  82 0000 7047     		bx	lr
  83              		.cfi_endproc
  84              	.LFE4219:
  86              		.weak	_ZN5daisy10DaisyPetalD1Ev
  87              		.thumb_set _ZN5daisy10DaisyPetalD1Ev,_ZN5daisy10DaisyPetalD2Ev
  88 0002 00BF     		.section	.text.startup.main,"ax",%progbits
  89              		.align	1
  90              		.p2align 2,,3
  91              		.global	main
ARM GAS  /tmp/cc3Km3GO.s 			page 10


  92              		.syntax unified
  93              		.thumb
  94              		.thumb_func
  95              		.fpu fpv5-d16
  97              	main:
  98              	.LFB4224:
  99              		.file 10 "Looper.cpp"
   1:Looper.cpp    **** #include "daisysp.h"
   2:Looper.cpp    **** #include "daisy_petal.h"
   3:Looper.cpp    **** 
   4:Looper.cpp    **** #define MAX_SIZE (48000 * 60 * 5) // 5 minutes of floats at 48 khz
   5:Looper.cpp    **** 
   6:Looper.cpp    **** using namespace daisysp;
   7:Looper.cpp    **** using namespace daisy;
   8:Looper.cpp    **** 
   9:Looper.cpp    **** static DaisyPetal petal;
  10:Looper.cpp    **** 
  11:Looper.cpp    **** bool first = true;  //first loop (sets length)
  12:Looper.cpp    **** bool rec   = false; //currently recording
  13:Looper.cpp    **** bool play  = false; //currently playing
  14:Looper.cpp    **** 
  15:Looper.cpp    **** int                 pos = 0;
  16:Looper.cpp    **** float DSY_SDRAM_BSS buf[MAX_SIZE];
  17:Looper.cpp    **** int                 mod    = MAX_SIZE;
  18:Looper.cpp    **** int                 len    = 0;
  19:Looper.cpp    **** float               drywet = 0;
  20:Looper.cpp    **** bool                res    = false;
  21:Looper.cpp    **** 
  22:Looper.cpp    **** void ResetBuffer();
  23:Looper.cpp    **** void Controls();
  24:Looper.cpp    **** 
  25:Looper.cpp    **** void NextSamples(float&                               output,
  26:Looper.cpp    ****                  AudioHandle::InterleavingInputBuffer in,
  27:Looper.cpp    ****                  size_t                               i);
  28:Looper.cpp    **** 
  29:Looper.cpp    **** static void AudioCallback(AudioHandle::InterleavingInputBuffer  in,
  30:Looper.cpp    ****                           AudioHandle::InterleavingOutputBuffer out,
  31:Looper.cpp    ****                           size_t                                size)
  32:Looper.cpp    **** {
  33:Looper.cpp    ****     float output = 0;
  34:Looper.cpp    **** 
  35:Looper.cpp    ****     Controls();
  36:Looper.cpp    **** 
  37:Looper.cpp    ****     for(size_t i = 0; i < size; i += 2)
  38:Looper.cpp    ****     {
  39:Looper.cpp    ****         NextSamples(output, in, i);
  40:Looper.cpp    **** 
  41:Looper.cpp    ****         // left and right outs
  42:Looper.cpp    ****         out[i] = out[i + 1] = output;
  43:Looper.cpp    ****     }
  44:Looper.cpp    **** }
  45:Looper.cpp    **** 
  46:Looper.cpp    **** int main(void)
  47:Looper.cpp    **** {
 100              		.loc 10 47 1 is_stmt 1 view -0
 101              		.cfi_startproc
 102              		@ Volatile: function does not return.
ARM GAS  /tmp/cc3Km3GO.s 			page 11


 103              		@ args = 0, pretend = 0, frame = 0
 104              		@ frame_needed = 0, uses_anonymous_args = 0
  48:Looper.cpp    ****     // initialize petal hardware and oscillator daisysp module
  49:Looper.cpp    **** 
  50:Looper.cpp    ****     petal.Init();
 105              		.loc 10 50 5 view .LVU17
 106              		.loc 10 50 15 is_stmt 0 view .LVU18
 107 0000 0021     		movs	r1, #0
 108 0002 1F48     		ldr	r0, .L9
 109              	.LBB213:
 110              	.LBB214:
  51:Looper.cpp    ****     ResetBuffer();
  52:Looper.cpp    **** 
  53:Looper.cpp    ****     // start callback
  54:Looper.cpp    ****     petal.StartAdc();
  55:Looper.cpp    ****     petal.StartAudio(AudioCallback);
  56:Looper.cpp    **** 
  57:Looper.cpp    ****     while(1)
  58:Looper.cpp    ****     {
  59:Looper.cpp    ****         //leds
  60:Looper.cpp    ****         petal.SetFootswitchLed((DaisyPetal::FootswitchLed)1, play);
  61:Looper.cpp    ****         petal.SetFootswitchLed((DaisyPetal::FootswitchLed)0, rec);
  62:Looper.cpp    ****         petal.UpdateLeds();
  63:Looper.cpp    ****         System::Delay(16); // 60Hz
  64:Looper.cpp    ****     }
  65:Looper.cpp    **** }
  66:Looper.cpp    **** 
  67:Looper.cpp    **** //Resets the buffer
  68:Looper.cpp    **** void ResetBuffer()
  69:Looper.cpp    **** {
  70:Looper.cpp    ****     play  = false;
  71:Looper.cpp    ****     rec   = false;
  72:Looper.cpp    ****     first = true;
  73:Looper.cpp    ****     pos   = 0;
 111              		.loc 10 73 11 view .LVU19
 112 0004 1F4D     		ldr	r5, .L9+4
  72:Looper.cpp    ****     pos   = 0;
 113              		.loc 10 72 11 view .LVU20
 114 0006 0126     		movs	r6, #1
  70:Looper.cpp    ****     rec   = false;
 115              		.loc 10 70 11 view .LVU21
 116 0008 1F4C     		ldr	r4, .L9+8
 117              	.LBE214:
 118              	.LBE213:
  47:Looper.cpp    ****     // initialize petal hardware and oscillator daisysp module
 119              		.loc 10 47 1 view .LVU22
 120 000a 08B5     		push	{r3, lr}
 121              		.cfi_def_cfa_offset 8
 122              		.cfi_offset 3, -8
 123              		.cfi_offset 14, -4
  50:Looper.cpp    ****     ResetBuffer();
 124              		.loc 10 50 15 view .LVU23
 125 000c FFF7FEFF 		bl	_ZN5daisy10DaisyPetal4InitEb
 126              	.LVL1:
  51:Looper.cpp    **** 
 127              		.loc 10 51 5 is_stmt 1 view .LVU24
 128              	.LBB221:
ARM GAS  /tmp/cc3Km3GO.s 			page 12


 129              	.LBI213:
  68:Looper.cpp    **** {
 130              		.loc 10 68 6 view .LVU25
 131              	.LBB219:
  70:Looper.cpp    ****     rec   = false;
 132              		.loc 10 70 5 view .LVU26
 133              	.LBB215:
  74:Looper.cpp    ****     len   = 0;
  75:Looper.cpp    ****     for(int i = 0; i < mod; i++)
 134              		.loc 10 75 22 is_stmt 0 view .LVU27
 135 0010 1E49     		ldr	r1, .L9+12
 136              	.LBE215:
  70:Looper.cpp    ****     rec   = false;
 137              		.loc 10 70 11 view .LVU28
 138 0012 0022     		movs	r2, #0
  74:Looper.cpp    ****     len   = 0;
 139              		.loc 10 74 11 view .LVU29
 140 0014 1E48     		ldr	r0, .L9+16
 141              	.LBB216:
 142              		.loc 10 75 22 view .LVU30
 143 0016 0B68     		ldr	r3, [r1]
 144              	.LBE216:
  73:Looper.cpp    ****     len   = 0;
 145              		.loc 10 73 11 view .LVU31
 146 0018 2A60     		str	r2, [r5]
  74:Looper.cpp    ****     len   = 0;
 147              		.loc 10 74 11 view .LVU32
 148 001a 0260     		str	r2, [r0]
 149              	.LBB217:
 150              		.loc 10 75 22 view .LVU33
 151 001c 9342     		cmp	r3, r2
 152              	.LBE217:
  71:Looper.cpp    ****     first = true;
 153              		.loc 10 71 11 view .LVU34
 154 001e 1D4D     		ldr	r5, .L9+20
  72:Looper.cpp    ****     pos   = 0;
 155              		.loc 10 72 11 view .LVU35
 156 0020 1D48     		ldr	r0, .L9+24
  70:Looper.cpp    ****     rec   = false;
 157              		.loc 10 70 11 view .LVU36
 158 0022 2270     		strb	r2, [r4]
  71:Looper.cpp    ****     first = true;
 159              		.loc 10 71 5 is_stmt 1 view .LVU37
  71:Looper.cpp    ****     first = true;
 160              		.loc 10 71 11 is_stmt 0 view .LVU38
 161 0024 2A70     		strb	r2, [r5]
  72:Looper.cpp    ****     pos   = 0;
 162              		.loc 10 72 5 is_stmt 1 view .LVU39
  72:Looper.cpp    ****     pos   = 0;
 163              		.loc 10 72 11 is_stmt 0 view .LVU40
 164 0026 0670     		strb	r6, [r0]
  73:Looper.cpp    ****     len   = 0;
 165              		.loc 10 73 5 is_stmt 1 view .LVU41
  74:Looper.cpp    ****     for(int i = 0; i < mod; i++)
 166              		.loc 10 74 5 view .LVU42
 167              		.loc 10 75 5 view .LVU43
 168              	.LVL2:
ARM GAS  /tmp/cc3Km3GO.s 			page 13


 169              	.LBB218:
 170              		.loc 10 75 22 view .LVU44
 171 0028 07DD     		ble	.L4
 172 002a 1C4A     		ldr	r2, .L9+28
 173 002c 02EB8303 		add	r3, r2, r3, lsl #2
 174              	.LVL3:
 175              	.L5:
  76:Looper.cpp    ****     {
  77:Looper.cpp    ****         buf[i] = 0;
 176              		.loc 10 77 9 view .LVU45
 177              		.loc 10 77 16 is_stmt 0 view .LVU46
 178 0030 0020     		movs	r0, #0
 179 0032 42F8040B 		str	r0, [r2], #4	@ float
  75:Looper.cpp    ****     {
 180              		.loc 10 75 5 is_stmt 1 view .LVU47
  75:Looper.cpp    ****     {
 181              		.loc 10 75 22 view .LVU48
 182 0036 9A42     		cmp	r2, r3
 183 0038 FAD1     		bne	.L5
 184              	.L4:
 185              	.LBE218:
  78:Looper.cpp    ****     }
  79:Looper.cpp    ****     mod = MAX_SIZE;
 186              		.loc 10 79 5 view .LVU49
 187              		.loc 10 79 9 is_stmt 0 view .LVU50
 188 003a 194B     		ldr	r3, .L9+32
 189              	.LBE219:
 190              	.LBE221:
  54:Looper.cpp    ****     petal.StartAudio(AudioCallback);
 191              		.loc 10 54 19 view .LVU51
 192 003c 1048     		ldr	r0, .L9
 193              	.LBB222:
 194              	.LBB220:
 195              		.loc 10 79 9 view .LVU52
 196 003e 0B60     		str	r3, [r1]
 197              	.LBE220:
 198              	.LBE222:
  54:Looper.cpp    ****     petal.StartAudio(AudioCallback);
 199              		.loc 10 54 5 is_stmt 1 view .LVU53
  54:Looper.cpp    ****     petal.StartAudio(AudioCallback);
 200              		.loc 10 54 19 is_stmt 0 view .LVU54
 201 0040 FFF7FEFF 		bl	_ZN5daisy10DaisyPetal8StartAdcEv
 202              	.LVL4:
  55:Looper.cpp    **** 
 203              		.loc 10 55 5 is_stmt 1 view .LVU55
  55:Looper.cpp    **** 
 204              		.loc 10 55 21 is_stmt 0 view .LVU56
 205 0044 1749     		ldr	r1, .L9+36
 206 0046 0E48     		ldr	r0, .L9
 207 0048 FFF7FEFF 		bl	_ZN5daisy10DaisyPetal10StartAudioEPFvPKfPfjE
 208              	.LVL5:
 209              	.L6:
  57:Looper.cpp    ****     {
 210              		.loc 10 57 5 is_stmt 1 discriminator 1 view .LVU57
  60:Looper.cpp    ****         petal.SetFootswitchLed((DaisyPetal::FootswitchLed)0, rec);
 211              		.loc 10 60 9 discriminator 1 view .LVU58
  60:Looper.cpp    ****         petal.SetFootswitchLed((DaisyPetal::FootswitchLed)0, rec);
ARM GAS  /tmp/cc3Km3GO.s 			page 14


 212              		.loc 10 60 31 is_stmt 0 discriminator 1 view .LVU59
 213 004c 2378     		ldrb	r3, [r4]	@ zero_extendqisi2
 214 004e 0121     		movs	r1, #1
 215 0050 0B48     		ldr	r0, .L9
 216 0052 00EE103A 		vmov	s0, r3	@ int
 217 0056 B8EE400A 		vcvt.f32.u32	s0, s0
 218 005a FFF7FEFF 		bl	_ZN5daisy10DaisyPetal16SetFootswitchLedENS0_13FootswitchLedEf
 219              	.LVL6:
  61:Looper.cpp    ****         petal.UpdateLeds();
 220              		.loc 10 61 9 is_stmt 1 discriminator 1 view .LVU60
  61:Looper.cpp    ****         petal.UpdateLeds();
 221              		.loc 10 61 31 is_stmt 0 discriminator 1 view .LVU61
 222 005e 2B78     		ldrb	r3, [r5]	@ zero_extendqisi2
 223 0060 0021     		movs	r1, #0
 224 0062 0748     		ldr	r0, .L9
 225 0064 00EE103A 		vmov	s0, r3	@ int
 226 0068 B8EE400A 		vcvt.f32.u32	s0, s0
 227 006c FFF7FEFF 		bl	_ZN5daisy10DaisyPetal16SetFootswitchLedENS0_13FootswitchLedEf
 228              	.LVL7:
  62:Looper.cpp    ****         System::Delay(16); // 60Hz
 229              		.loc 10 62 9 is_stmt 1 discriminator 1 view .LVU62
  62:Looper.cpp    ****         System::Delay(16); // 60Hz
 230              		.loc 10 62 25 is_stmt 0 discriminator 1 view .LVU63
 231 0070 0348     		ldr	r0, .L9
 232 0072 FFF7FEFF 		bl	_ZN5daisy10DaisyPetal10UpdateLedsEv
 233              	.LVL8:
  63:Looper.cpp    ****     }
 234              		.loc 10 63 9 is_stmt 1 discriminator 1 view .LVU64
  63:Looper.cpp    ****     }
 235              		.loc 10 63 22 is_stmt 0 discriminator 1 view .LVU65
 236 0076 1020     		movs	r0, #16
 237 0078 FFF7FEFF 		bl	_ZN5daisy6System5DelayEm
 238              	.LVL9:
  57:Looper.cpp    ****     {
 239              		.loc 10 57 5 is_stmt 1 discriminator 1 view .LVU66
 240 007c E6E7     		b	.L6
 241              	.L10:
 242 007e 00BF     		.align	2
 243              	.L9:
 244 0080 00000000 		.word	.LANCHOR0
 245 0084 00000000 		.word	.LANCHOR4
 246 0088 00000000 		.word	.LANCHOR1
 247 008c 00000000 		.word	.LANCHOR6
 248 0090 00000000 		.word	.LANCHOR5
 249 0094 00000000 		.word	.LANCHOR2
 250 0098 00000000 		.word	.LANCHOR3
 251 009c 00000000 		.word	buf
 252 00a0 00BADB00 		.word	14400000
 253 00a4 00000000 		.word	_ZL13AudioCallbackPKfPfj
 254              		.cfi_endproc
 255              	.LFE4224:
 257              		.section	.text._Z11ResetBufferv,"ax",%progbits
 258              		.align	1
 259              		.p2align 2,,3
 260              		.global	_Z11ResetBufferv
 261              		.syntax unified
 262              		.thumb
ARM GAS  /tmp/cc3Km3GO.s 			page 15


 263              		.thumb_func
 264              		.fpu fpv5-d16
 266              	_Z11ResetBufferv:
 267              	.LFB4225:
  69:Looper.cpp    ****     play  = false;
 268              		.loc 10 69 1 view -0
 269              		.cfi_startproc
 270              		@ args = 0, pretend = 0, frame = 0
 271              		@ frame_needed = 0, uses_anonymous_args = 0
 272              		@ link register save eliminated.
  70:Looper.cpp    ****     rec   = false;
 273              		.loc 10 70 5 view .LVU68
  70:Looper.cpp    ****     rec   = false;
 274              		.loc 10 70 11 is_stmt 0 view .LVU69
 275 0000 0023     		movs	r3, #0
 276 0002 0E4A     		ldr	r2, .L16
 277              	.LBB223:
  75:Looper.cpp    ****     {
 278              		.loc 10 75 22 view .LVU70
 279 0004 0E48     		ldr	r0, .L16+4
 280              	.LBE223:
  69:Looper.cpp    ****     play  = false;
 281              		.loc 10 69 1 view .LVU71
 282 0006 30B4     		push	{r4, r5}
 283              		.cfi_def_cfa_offset 8
 284              		.cfi_offset 4, -8
 285              		.cfi_offset 5, -4
 286              	.LBB224:
  75:Looper.cpp    ****     {
 287              		.loc 10 75 22 view .LVU72
 288 0008 0168     		ldr	r1, [r0]
 289              	.LBE224:
  72:Looper.cpp    ****     pos   = 0;
 290              		.loc 10 72 11 view .LVU73
 291 000a 0124     		movs	r4, #1
  70:Looper.cpp    ****     rec   = false;
 292              		.loc 10 70 11 view .LVU74
 293 000c 1370     		strb	r3, [r2]
  71:Looper.cpp    ****     first = true;
 294              		.loc 10 71 5 is_stmt 1 view .LVU75
  71:Looper.cpp    ****     first = true;
 295              		.loc 10 71 11 is_stmt 0 view .LVU76
 296 000e 0D4D     		ldr	r5, .L16+8
 297              	.LBB225:
  75:Looper.cpp    ****     {
 298              		.loc 10 75 22 view .LVU77
 299 0010 9942     		cmp	r1, r3
 300              	.LBE225:
  73:Looper.cpp    ****     len   = 0;
 301              		.loc 10 73 11 view .LVU78
 302 0012 0D4A     		ldr	r2, .L16+12
  71:Looper.cpp    ****     first = true;
 303              		.loc 10 71 11 view .LVU79
 304 0014 2B70     		strb	r3, [r5]
  72:Looper.cpp    ****     pos   = 0;
 305              		.loc 10 72 5 is_stmt 1 view .LVU80
  73:Looper.cpp    ****     len   = 0;
ARM GAS  /tmp/cc3Km3GO.s 			page 16


 306              		.loc 10 73 11 is_stmt 0 view .LVU81
 307 0016 1360     		str	r3, [r2]
  74:Looper.cpp    ****     for(int i = 0; i < mod; i++)
 308              		.loc 10 74 11 view .LVU82
 309 0018 0C4D     		ldr	r5, .L16+16
  72:Looper.cpp    ****     pos   = 0;
 310              		.loc 10 72 11 view .LVU83
 311 001a 0D4A     		ldr	r2, .L16+20
  74:Looper.cpp    ****     for(int i = 0; i < mod; i++)
 312              		.loc 10 74 11 view .LVU84
 313 001c 2B60     		str	r3, [r5]
  72:Looper.cpp    ****     pos   = 0;
 314              		.loc 10 72 11 view .LVU85
 315 001e 1470     		strb	r4, [r2]
  73:Looper.cpp    ****     len   = 0;
 316              		.loc 10 73 5 is_stmt 1 view .LVU86
  74:Looper.cpp    ****     for(int i = 0; i < mod; i++)
 317              		.loc 10 74 5 view .LVU87
  75:Looper.cpp    ****     {
 318              		.loc 10 75 5 view .LVU88
 319              	.LVL10:
 320              	.LBB226:
  75:Looper.cpp    ****     {
 321              		.loc 10 75 22 view .LVU89
 322 0020 07DD     		ble	.L12
 323 0022 0C4B     		ldr	r3, .L16+24
 324 0024 03EB8101 		add	r1, r3, r1, lsl #2
 325              	.LVL11:
 326              	.L13:
  77:Looper.cpp    ****     }
 327              		.loc 10 77 9 discriminator 2 view .LVU90
  77:Looper.cpp    ****     }
 328              		.loc 10 77 16 is_stmt 0 discriminator 2 view .LVU91
 329 0028 0022     		movs	r2, #0
 330 002a 43F8042B 		str	r2, [r3], #4	@ float
  75:Looper.cpp    ****     {
 331              		.loc 10 75 5 is_stmt 1 discriminator 2 view .LVU92
  75:Looper.cpp    ****     {
 332              		.loc 10 75 22 discriminator 2 view .LVU93
 333 002e 8B42     		cmp	r3, r1
 334 0030 FAD1     		bne	.L13
 335              	.L12:
 336              	.LBE226:
 337              		.loc 10 79 5 view .LVU94
 338              		.loc 10 79 9 is_stmt 0 view .LVU95
 339 0032 094B     		ldr	r3, .L16+28
  80:Looper.cpp    **** }
 340              		.loc 10 80 1 view .LVU96
 341 0034 30BC     		pop	{r4, r5}
 342              		.cfi_restore 5
 343              		.cfi_restore 4
 344              		.cfi_def_cfa_offset 0
  79:Looper.cpp    **** }
 345              		.loc 10 79 9 view .LVU97
 346 0036 0360     		str	r3, [r0]
 347              		.loc 10 80 1 view .LVU98
 348 0038 7047     		bx	lr
ARM GAS  /tmp/cc3Km3GO.s 			page 17


 349              	.L17:
 350 003a 00BF     		.align	2
 351              	.L16:
 352 003c 00000000 		.word	.LANCHOR1
 353 0040 00000000 		.word	.LANCHOR6
 354 0044 00000000 		.word	.LANCHOR2
 355 0048 00000000 		.word	.LANCHOR4
 356 004c 00000000 		.word	.LANCHOR5
 357 0050 00000000 		.word	.LANCHOR3
 358 0054 00000000 		.word	buf
 359 0058 00BADB00 		.word	14400000
 360              		.cfi_endproc
 361              	.LFE4225:
 363              		.section	.text._Z13UpdateButtonsv,"ax",%progbits
 364              		.align	1
 365              		.p2align 2,,3
 366              		.global	_Z13UpdateButtonsv
 367              		.syntax unified
 368              		.thumb
 369              		.thumb_func
 370              		.fpu fpv5-d16
 372              	_Z13UpdateButtonsv:
 373              	.LFB4226:
  81:Looper.cpp    **** 
  82:Looper.cpp    **** void UpdateButtons()
  83:Looper.cpp    **** {
 374              		.loc 10 83 1 is_stmt 1 view -0
 375              		.cfi_startproc
 376              		@ args = 0, pretend = 0, frame = 0
 377              		@ frame_needed = 0, uses_anonymous_args = 0
 378              		@ link register save eliminated.
  84:Looper.cpp    ****     //switch1 pressed
  85:Looper.cpp    ****     if(petal.switches[0].RisingEdge())
 379              		.loc 10 85 5 view .LVU100
 380              		.loc 10 85 36 is_stmt 0 view .LVU101
 381 0000 304B     		ldr	r3, .L41
  83:Looper.cpp    ****     //switch1 pressed
 382              		.loc 10 83 1 view .LVU102
 383 0002 F0B4     		push	{r4, r5, r6, r7}
 384              		.cfi_def_cfa_offset 16
 385              		.cfi_offset 4, -16
 386              		.cfi_offset 5, -12
 387              		.cfi_offset 6, -8
 388              		.cfi_offset 7, -4
 389              		.loc 10 85 36 view .LVU103
 390 0004 93F84121 		ldrb	r2, [r3, #321]	@ zero_extendqisi2
 391              	.LVL12:
  42:../../libdaisy/src/hid/switch.h **** 
  43:../../libdaisy/src/hid/switch.h ****     /** 
  44:../../libdaisy/src/hid/switch.h ****     Initializes the switch object with a given port/pin combo.
  45:../../libdaisy/src/hid/switch.h ****     \param pin port/pin object to tell the switch which hardware pin to use.
  46:../../libdaisy/src/hid/switch.h ****     \param update_rate the rate at which the Debounce() function will be called. (used for timing).
  47:../../libdaisy/src/hid/switch.h ****     \param t switch type -- Default: TYPE_MOMENTARY
  48:../../libdaisy/src/hid/switch.h ****     \param pol switch polarity -- Default: POLARITY_INVERTED
  49:../../libdaisy/src/hid/switch.h ****     \param pu switch pull up/down -- Default: PULL_UP
  50:../../libdaisy/src/hid/switch.h ****     */
  51:../../libdaisy/src/hid/switch.h ****     void
ARM GAS  /tmp/cc3Km3GO.s 			page 18


  52:../../libdaisy/src/hid/switch.h ****     Init(dsy_gpio_pin pin, float update_rate, Type t, Polarity pol, Pull pu);
  53:../../libdaisy/src/hid/switch.h **** 
  54:../../libdaisy/src/hid/switch.h ****     /**
  55:../../libdaisy/src/hid/switch.h ****        Simplified Init.
  56:../../libdaisy/src/hid/switch.h ****        \param pin port/pin object to tell the switch which hardware pin to use.
  57:../../libdaisy/src/hid/switch.h ****        \param update_rate the rate at which the Debounce() function will be called. (used for timin
  58:../../libdaisy/src/hid/switch.h ****     */
  59:../../libdaisy/src/hid/switch.h ****     void Init(dsy_gpio_pin pin, float update_rate);
  60:../../libdaisy/src/hid/switch.h **** 
  61:../../libdaisy/src/hid/switch.h ****     /** 
  62:../../libdaisy/src/hid/switch.h ****     Called at update_rate to debounce and handle timing for the switch.
  63:../../libdaisy/src/hid/switch.h ****     In order for events not to be missed, its important that the Edge/Pressed checks
  64:../../libdaisy/src/hid/switch.h ****     be made at the same rate as the debounce function is being called.
  65:../../libdaisy/src/hid/switch.h ****     */
  66:../../libdaisy/src/hid/switch.h ****     void Debounce();
  67:../../libdaisy/src/hid/switch.h **** 
  68:../../libdaisy/src/hid/switch.h ****     /** \return true if a button was just pressed. */
  69:../../libdaisy/src/hid/switch.h ****     inline bool RisingEdge() const { return state_ == 0x7f; }
 392              		.loc 4 69 38 is_stmt 1 view .LVU104
 393              		.loc 10 85 5 is_stmt 0 view .LVU105
 394 0008 7F2A     		cmp	r2, #127
 395 000a 2DD0     		beq	.L40
  86:Looper.cpp    ****     {
  87:Looper.cpp    ****         if(first && rec)
  88:Looper.cpp    ****         {
  89:Looper.cpp    ****             first = false;
  90:Looper.cpp    ****             mod   = len;
  91:Looper.cpp    ****             len   = 0;
  92:Looper.cpp    ****         }
  93:Looper.cpp    **** 
  94:Looper.cpp    ****         res  = true;
  95:Looper.cpp    ****         play = true;
  96:Looper.cpp    ****         rec  = !rec;
  97:Looper.cpp    ****     }
  98:Looper.cpp    **** 
  99:Looper.cpp    ****     //switch1 held
 100:Looper.cpp    ****     if(petal.switches[0].TimeHeldMs() >= 1000 && res)
 396              		.loc 10 100 5 is_stmt 1 view .LVU106
 397              	.LVL13:
 398              	.LBB227:
 399              	.LBI227:
  70:../../libdaisy/src/hid/switch.h **** 
  71:../../libdaisy/src/hid/switch.h ****     /** \return true if the button was just released */
  72:../../libdaisy/src/hid/switch.h ****     inline bool FallingEdge() const { return state_ == 0x80; }
  73:../../libdaisy/src/hid/switch.h **** 
  74:../../libdaisy/src/hid/switch.h ****     /** \return true if the button is held down (or if the toggle is on) */
  75:../../libdaisy/src/hid/switch.h ****     inline bool Pressed() const { return state_ == 0xff; }
  76:../../libdaisy/src/hid/switch.h **** 
  77:../../libdaisy/src/hid/switch.h ****     /** \return true if the button is held down, without debouncing */
  78:../../libdaisy/src/hid/switch.h ****     inline bool RawState()
  79:../../libdaisy/src/hid/switch.h ****     {
  80:../../libdaisy/src/hid/switch.h ****         return flip_ ? !dsy_gpio_read(&hw_gpio_) : dsy_gpio_read(&hw_gpio_);
  81:../../libdaisy/src/hid/switch.h ****     }
  82:../../libdaisy/src/hid/switch.h **** 
  83:../../libdaisy/src/hid/switch.h ****     /** \return the time in milliseconds that the button has been held (or toggle has been on) */
  84:../../libdaisy/src/hid/switch.h ****     inline float TimeHeldMs() const
 400              		.loc 4 84 18 view .LVU107
ARM GAS  /tmp/cc3Km3GO.s 			page 19


 401              	.LBB228:
  85:../../libdaisy/src/hid/switch.h ****     {
  86:../../libdaisy/src/hid/switch.h ****         return Pressed() ? time_held_ * 1000.0f : 0;
 402              		.loc 4 86 9 view .LVU108
 403              		.loc 4 86 9 is_stmt 0 view .LVU109
 404              	.LBE228:
 405              	.LBE227:
  75:../../libdaisy/src/hid/switch.h **** 
 406              		.loc 4 75 35 is_stmt 1 view .LVU110
 407              	.LBB231:
 408              	.LBB229:
 409              		.loc 4 86 26 is_stmt 0 view .LVU111
 410 000c FF2A     		cmp	r2, #255
 411 000e 38D1     		bne	.L22
 412              	.LVL14:
 413              		.loc 4 86 26 view .LVU112
 414 0010 9FED2D7A 		vldr.32	s14, .L41+4
 415 0014 D3ED527A 		vldr.32	s15, [r3, #328]
 416 0018 67EE877A 		vmul.f32	s15, s15, s14
 417              	.LBE229:
 418              	.LBE231:
 419              		.loc 10 100 47 view .LVU113
 420 001c F4EEC77A 		vcmpe.f32	s15, s14
 421 0020 F1EE10FA 		vmrs	APSR_nzcv, FPSCR
 422 0024 2DDB     		blt	.L22
 423              		.loc 10 100 47 discriminator 1 view .LVU114
 424 0026 2948     		ldr	r0, .L41+8
 425 0028 0278     		ldrb	r2, [r0]	@ zero_extendqisi2
 426 002a 52B3     		cbz	r2, .L22
 101:Looper.cpp    ****     {
 102:Looper.cpp    ****         ResetBuffer();
 427              		.loc 10 102 9 is_stmt 1 view .LVU115
 428              	.LBB232:
 429              	.LBI232:
  68:Looper.cpp    **** {
 430              		.loc 10 68 6 view .LVU116
 431              	.LBB233:
  70:Looper.cpp    ****     rec   = false;
 432              		.loc 10 70 5 view .LVU117
  70:Looper.cpp    ****     rec   = false;
 433              		.loc 10 70 11 is_stmt 0 view .LVU118
 434 002c 0023     		movs	r3, #0
 435 002e 284A     		ldr	r2, .L41+12
 436              	.LBB234:
  75:Looper.cpp    ****     {
 437              		.loc 10 75 22 view .LVU119
 438 0030 284C     		ldr	r4, .L41+16
 439              	.LBE234:
  72:Looper.cpp    ****     pos   = 0;
 440              		.loc 10 72 11 view .LVU120
 441 0032 0125     		movs	r5, #1
  70:Looper.cpp    ****     rec   = false;
 442              		.loc 10 70 11 view .LVU121
 443 0034 1370     		strb	r3, [r2]
  71:Looper.cpp    ****     first = true;
 444              		.loc 10 71 5 is_stmt 1 view .LVU122
  71:Looper.cpp    ****     first = true;
ARM GAS  /tmp/cc3Km3GO.s 			page 20


 445              		.loc 10 71 11 is_stmt 0 view .LVU123
 446 0036 284E     		ldr	r6, .L41+20
  73:Looper.cpp    ****     len   = 0;
 447              		.loc 10 73 11 view .LVU124
 448 0038 284A     		ldr	r2, .L41+24
 449              	.LBB235:
  75:Looper.cpp    ****     {
 450              		.loc 10 75 22 view .LVU125
 451 003a 2168     		ldr	r1, [r4]
 452              	.LBE235:
  71:Looper.cpp    ****     first = true;
 453              		.loc 10 71 11 view .LVU126
 454 003c 3370     		strb	r3, [r6]
  72:Looper.cpp    ****     pos   = 0;
 455              		.loc 10 72 5 is_stmt 1 view .LVU127
  73:Looper.cpp    ****     len   = 0;
 456              		.loc 10 73 11 is_stmt 0 view .LVU128
 457 003e 1360     		str	r3, [r2]
 458              	.LBB236:
  75:Looper.cpp    ****     {
 459              		.loc 10 75 22 view .LVU129
 460 0040 9942     		cmp	r1, r3
 461              	.LBE236:
  74:Looper.cpp    ****     for(int i = 0; i < mod; i++)
 462              		.loc 10 74 11 view .LVU130
 463 0042 274E     		ldr	r6, .L41+28
  72:Looper.cpp    ****     pos   = 0;
 464              		.loc 10 72 11 view .LVU131
 465 0044 274A     		ldr	r2, .L41+32
  74:Looper.cpp    ****     for(int i = 0; i < mod; i++)
 466              		.loc 10 74 11 view .LVU132
 467 0046 3360     		str	r3, [r6]
  72:Looper.cpp    ****     pos   = 0;
 468              		.loc 10 72 11 view .LVU133
 469 0048 1570     		strb	r5, [r2]
  73:Looper.cpp    ****     len   = 0;
 470              		.loc 10 73 5 is_stmt 1 view .LVU134
  74:Looper.cpp    ****     for(int i = 0; i < mod; i++)
 471              		.loc 10 74 5 view .LVU135
  75:Looper.cpp    ****     {
 472              		.loc 10 75 5 view .LVU136
 473              	.LVL15:
 474              	.LBB237:
  75:Looper.cpp    ****     {
 475              		.loc 10 75 22 view .LVU137
 476 004a 07DD     		ble	.L26
 477 004c 264B     		ldr	r3, .L41+36
 478 004e 03EB8101 		add	r1, r3, r1, lsl #2
 479              	.LVL16:
 480              	.L27:
  77:Looper.cpp    ****     }
 481              		.loc 10 77 9 view .LVU138
  77:Looper.cpp    ****     }
 482              		.loc 10 77 16 is_stmt 0 view .LVU139
 483 0052 0022     		movs	r2, #0
 484 0054 43F8042B 		str	r2, [r3], #4	@ float
  75:Looper.cpp    ****     {
ARM GAS  /tmp/cc3Km3GO.s 			page 21


 485              		.loc 10 75 5 is_stmt 1 view .LVU140
  75:Looper.cpp    ****     {
 486              		.loc 10 75 22 view .LVU141
 487 0058 8B42     		cmp	r3, r1
 488 005a FAD1     		bne	.L27
 489              	.L26:
 490              	.LBE237:
  79:Looper.cpp    **** }
 491              		.loc 10 79 5 view .LVU142
  79:Looper.cpp    **** }
 492              		.loc 10 79 9 is_stmt 0 view .LVU143
 493 005c 234A     		ldr	r2, .L41+40
 494              	.LBE233:
 495              	.LBE232:
 103:Looper.cpp    ****         res = false;
 496              		.loc 10 103 13 view .LVU144
 497 005e 0023     		movs	r3, #0
 498              	.LBB239:
 499              	.LBB238:
  79:Looper.cpp    **** }
 500              		.loc 10 79 9 view .LVU145
 501 0060 2260     		str	r2, [r4]
 502              	.LBE238:
 503              	.LBE239:
 504              		.loc 10 103 9 is_stmt 1 view .LVU146
 505              		.loc 10 103 13 is_stmt 0 view .LVU147
 506 0062 0370     		strb	r3, [r0]
 104:Looper.cpp    ****     }
 105:Looper.cpp    **** 
 106:Looper.cpp    ****     //switch2 pressed and not empty buffer
 107:Looper.cpp    ****     if(petal.switches[1].RisingEdge() && !(!rec && first))
 507              		.loc 10 107 5 is_stmt 1 view .LVU148
 508              	.LVL17:
  69:../../libdaisy/src/hid/switch.h **** 
 509              		.loc 4 69 38 view .LVU149
 510              	.L18:
 108:Looper.cpp    ****     {
 109:Looper.cpp    ****         play = !play;
 110:Looper.cpp    ****         rec  = false;
 111:Looper.cpp    ****     }
 112:Looper.cpp    **** }
 511              		.loc 10 112 1 is_stmt 0 view .LVU150
 512 0064 F0BC     		pop	{r4, r5, r6, r7}
 513              		.cfi_remember_state
 514              		.cfi_restore 7
 515              		.cfi_restore 6
 516              		.cfi_restore 5
 517              		.cfi_restore 4
 518              		.cfi_def_cfa_offset 0
 519 0066 7047     		bx	lr
 520              	.LVL18:
 521              	.L40:
 522              		.cfi_restore_state
  87:Looper.cpp    ****         {
 523              		.loc 10 87 9 is_stmt 1 view .LVU151
 524 0068 1E48     		ldr	r0, .L41+32
 525 006a 0278     		ldrb	r2, [r0]	@ zero_extendqisi2
ARM GAS  /tmp/cc3Km3GO.s 			page 22


 526 006c CAB9     		cbnz	r2, .L20
 527 006e 1A4A     		ldr	r2, .L41+20
 528 0070 1178     		ldrb	r1, [r2]	@ zero_extendqisi2
 529              	.L21:
  94:Looper.cpp    ****         play = true;
 530              		.loc 10 94 9 view .LVU152
  94:Looper.cpp    ****         play = true;
 531              		.loc 10 94 14 is_stmt 0 view .LVU153
 532 0072 0120     		movs	r0, #1
  96:Looper.cpp    ****     }
 533              		.loc 10 96 16 view .LVU154
 534 0074 81F00101 		eor	r1, r1, #1
  94:Looper.cpp    ****         play = true;
 535              		.loc 10 94 14 view .LVU155
 536 0078 144D     		ldr	r5, .L41+8
  95:Looper.cpp    ****         rec  = !rec;
 537              		.loc 10 95 14 view .LVU156
 538 007a 154C     		ldr	r4, .L41+12
  96:Looper.cpp    ****     }
 539              		.loc 10 96 14 view .LVU157
 540 007c 1170     		strb	r1, [r2]
  94:Looper.cpp    ****         play = true;
 541              		.loc 10 94 14 view .LVU158
 542 007e 2870     		strb	r0, [r5]
  95:Looper.cpp    ****         rec  = !rec;
 543              		.loc 10 95 9 is_stmt 1 view .LVU159
  95:Looper.cpp    ****         rec  = !rec;
 544              		.loc 10 95 14 is_stmt 0 view .LVU160
 545 0080 2070     		strb	r0, [r4]
  96:Looper.cpp    ****     }
 546              		.loc 10 96 9 is_stmt 1 view .LVU161
 100:Looper.cpp    ****     {
 547              		.loc 10 100 5 view .LVU162
 548              	.LVL19:
 549              	.LBB240:
  84:../../libdaisy/src/hid/switch.h ****     {
 550              		.loc 4 84 18 view .LVU163
 551              	.LBB230:
 552              		.loc 4 86 9 view .LVU164
 553              		.loc 4 86 9 is_stmt 0 view .LVU165
 554              	.LBE230:
 555              	.LBE240:
  75:../../libdaisy/src/hid/switch.h **** 
 556              		.loc 4 75 35 is_stmt 1 view .LVU166
 557              	.L22:
 107:Looper.cpp    ****     {
 558              		.loc 10 107 5 view .LVU167
  69:../../libdaisy/src/hid/switch.h **** 
 559              		.loc 4 69 38 view .LVU168
 107:Looper.cpp    ****     {
 560              		.loc 10 107 39 is_stmt 0 view .LVU169
 561 0082 93F85131 		ldrb	r3, [r3, #337]	@ zero_extendqisi2
 562 0086 7F2B     		cmp	r3, #127
 563 0088 ECD1     		bne	.L18
 107:Looper.cpp    ****     {
 564              		.loc 10 107 39 discriminator 1 view .LVU170
 565 008a 134A     		ldr	r2, .L41+20
ARM GAS  /tmp/cc3Km3GO.s 			page 23


 566 008c 1378     		ldrb	r3, [r2]	@ zero_extendqisi2
 567 008e A3B1     		cbz	r3, .L29
 568              	.L30:
 109:Looper.cpp    ****         rec  = false;
 569              		.loc 10 109 9 is_stmt 1 view .LVU171
 109:Looper.cpp    ****         rec  = false;
 570              		.loc 10 109 14 is_stmt 0 view .LVU172
 571 0090 0F49     		ldr	r1, .L41+12
 110:Looper.cpp    ****     }
 572              		.loc 10 110 14 view .LVU173
 573 0092 0020     		movs	r0, #0
 109:Looper.cpp    ****         rec  = false;
 574              		.loc 10 109 16 view .LVU174
 575 0094 0B78     		ldrb	r3, [r1]	@ zero_extendqisi2
 110:Looper.cpp    ****     }
 576              		.loc 10 110 14 view .LVU175
 577 0096 1070     		strb	r0, [r2]
 109:Looper.cpp    ****         rec  = false;
 578              		.loc 10 109 16 view .LVU176
 579 0098 83F00103 		eor	r3, r3, #1
 580              		.loc 10 112 1 view .LVU177
 581 009c F0BC     		pop	{r4, r5, r6, r7}
 582              		.cfi_remember_state
 583              		.cfi_restore 7
 584              		.cfi_restore 6
 585              		.cfi_restore 5
 586              		.cfi_restore 4
 587              		.cfi_def_cfa_offset 0
 109:Looper.cpp    ****         rec  = false;
 588              		.loc 10 109 14 view .LVU178
 589 009e 0B70     		strb	r3, [r1]
 110:Looper.cpp    ****     }
 590              		.loc 10 110 9 is_stmt 1 view .LVU179
 591              		.loc 10 112 1 is_stmt 0 view .LVU180
 592 00a0 7047     		bx	lr
 593              	.LVL20:
 594              	.L20:
 595              		.cfi_restore_state
  87:Looper.cpp    ****         {
 596              		.loc 10 87 18 discriminator 1 view .LVU181
 597 00a2 0D4A     		ldr	r2, .L41+20
 598 00a4 1178     		ldrb	r1, [r2]	@ zero_extendqisi2
 599 00a6 0029     		cmp	r1, #0
 600 00a8 E3D0     		beq	.L21
  89:Looper.cpp    ****             mod   = len;
 601              		.loc 10 89 13 is_stmt 1 view .LVU182
  90:Looper.cpp    ****             len   = 0;
 602              		.loc 10 90 19 is_stmt 0 view .LVU183
 603 00aa 0D4C     		ldr	r4, .L41+28
  89:Looper.cpp    ****             mod   = len;
 604              		.loc 10 89 19 view .LVU184
 605 00ac 0025     		movs	r5, #0
  90:Looper.cpp    ****             len   = 0;
 606              		.loc 10 90 19 view .LVU185
 607 00ae 094E     		ldr	r6, .L41+16
 608 00b0 2768     		ldr	r7, [r4]
  89:Looper.cpp    ****             mod   = len;
ARM GAS  /tmp/cc3Km3GO.s 			page 24


 609              		.loc 10 89 19 view .LVU186
 610 00b2 0570     		strb	r5, [r0]
  90:Looper.cpp    ****             len   = 0;
 611              		.loc 10 90 13 is_stmt 1 view .LVU187
  90:Looper.cpp    ****             len   = 0;
 612              		.loc 10 90 19 is_stmt 0 view .LVU188
 613 00b4 3760     		str	r7, [r6]
  91:Looper.cpp    ****         }
 614              		.loc 10 91 13 is_stmt 1 view .LVU189
  91:Looper.cpp    ****         }
 615              		.loc 10 91 19 is_stmt 0 view .LVU190
 616 00b6 2560     		str	r5, [r4]
 617 00b8 DBE7     		b	.L21
 618              	.LVL21:
 619              	.L29:
 107:Looper.cpp    ****     {
 620              		.loc 10 107 42 view .LVU191
 621 00ba 0A4B     		ldr	r3, .L41+32
 622 00bc 1B78     		ldrb	r3, [r3]	@ zero_extendqisi2
 623 00be 002B     		cmp	r3, #0
 624 00c0 E6D0     		beq	.L30
 625 00c2 CFE7     		b	.L18
 626              	.L42:
 627              		.align	2
 628              	.L41:
 629 00c4 00000000 		.word	.LANCHOR0
 630 00c8 00007A44 		.word	1148846080
 631 00cc 00000000 		.word	.LANCHOR7
 632 00d0 00000000 		.word	.LANCHOR1
 633 00d4 00000000 		.word	.LANCHOR6
 634 00d8 00000000 		.word	.LANCHOR2
 635 00dc 00000000 		.word	.LANCHOR4
 636 00e0 00000000 		.word	.LANCHOR5
 637 00e4 00000000 		.word	.LANCHOR3
 638 00e8 00000000 		.word	buf
 639 00ec 00BADB00 		.word	14400000
 640              		.cfi_endproc
 641              	.LFE4226:
 643              		.section	.text._Z8Controlsv,"ax",%progbits
 644              		.align	1
 645              		.p2align 2,,3
 646              		.global	_Z8Controlsv
 647              		.syntax unified
 648              		.thumb
 649              		.thumb_func
 650              		.fpu fpv5-d16
 652              	_Z8Controlsv:
 653              	.LFB4227:
 113:Looper.cpp    **** 
 114:Looper.cpp    **** //Deals with analog controls
 115:Looper.cpp    **** void Controls()
 116:Looper.cpp    **** {
 654              		.loc 10 116 1 is_stmt 1 view -0
 655              		.cfi_startproc
 656              		@ args = 0, pretend = 0, frame = 0
 657              		@ frame_needed = 0, uses_anonymous_args = 0
 117:Looper.cpp    ****     petal.ProcessAnalogControls();
ARM GAS  /tmp/cc3Km3GO.s 			page 25


 658              		.loc 10 117 5 view .LVU193
 116:Looper.cpp    ****     petal.ProcessAnalogControls();
 659              		.loc 10 116 1 is_stmt 0 view .LVU194
 660 0000 10B5     		push	{r4, lr}
 661              		.cfi_def_cfa_offset 8
 662              		.cfi_offset 4, -8
 663              		.cfi_offset 14, -4
 664              		.loc 10 117 32 view .LVU195
 665 0002 094C     		ldr	r4, .L45
 666 0004 2046     		mov	r0, r4
 667 0006 FFF7FEFF 		bl	_ZN5daisy10DaisyPetal21ProcessAnalogControlsEv
 668              	.LVL22:
 118:Looper.cpp    ****     petal.ProcessDigitalControls();
 669              		.loc 10 118 5 is_stmt 1 view .LVU196
 670              		.loc 10 118 33 is_stmt 0 view .LVU197
 671 000a 2046     		mov	r0, r4
 672 000c FFF7FEFF 		bl	_ZN5daisy10DaisyPetal22ProcessDigitalControlsEv
 673              	.LVL23:
 119:Looper.cpp    **** 
 120:Looper.cpp    ****     drywet = petal.knob[0].Process();
 674              		.loc 10 120 5 is_stmt 1 view .LVU198
 675              		.loc 10 120 35 is_stmt 0 view .LVU199
 676 0010 04F15C00 		add	r0, r4, #92
 677 0014 FFF7FEFF 		bl	_ZN5daisy13AnalogControl7ProcessEv
 678              	.LVL24:
 679              		.loc 10 120 12 view .LVU200
 680 0018 044B     		ldr	r3, .L45+4
 121:Looper.cpp    **** 
 122:Looper.cpp    ****     UpdateButtons();
 123:Looper.cpp    **** }
 681              		.loc 10 123 1 view .LVU201
 682 001a BDE81040 		pop	{r4, lr}
 683              		.cfi_restore 14
 684              		.cfi_restore 4
 685              		.cfi_def_cfa_offset 0
 120:Looper.cpp    **** 
 686              		.loc 10 120 12 view .LVU202
 687 001e 83ED000A 		vstr.32	s0, [r3]
 122:Looper.cpp    **** }
 688              		.loc 10 122 5 is_stmt 1 view .LVU203
 122:Looper.cpp    **** }
 689              		.loc 10 122 18 is_stmt 0 view .LVU204
 690 0022 FFF7FEBF 		b	_Z13UpdateButtonsv
 691              	.LVL25:
 692              	.L46:
 693 0026 00BF     		.align	2
 694              	.L45:
 695 0028 00000000 		.word	.LANCHOR0
 696 002c 00000000 		.word	.LANCHOR8
 697              		.cfi_endproc
 698              	.LFE4227:
 700              		.section	.text._Z11WriteBufferPKfj,"ax",%progbits
 701              		.align	1
 702              		.p2align 2,,3
 703              		.global	_Z11WriteBufferPKfj
 704              		.syntax unified
 705              		.thumb
ARM GAS  /tmp/cc3Km3GO.s 			page 26


 706              		.thumb_func
 707              		.fpu fpv5-d16
 709              	_Z11WriteBufferPKfj:
 710              	.LVL26:
 711              	.LFB4228:
 124:Looper.cpp    **** 
 125:Looper.cpp    **** void WriteBuffer(AudioHandle::InterleavingInputBuffer in, size_t i)
 126:Looper.cpp    **** {
 712              		.loc 10 126 1 is_stmt 1 view -0
 713              		.cfi_startproc
 714              		@ args = 0, pretend = 0, frame = 0
 715              		@ frame_needed = 0, uses_anonymous_args = 0
 716              		@ link register save eliminated.
 127:Looper.cpp    ****     buf[pos] = buf[pos] * 0.5 + in[i] * 0.5;
 717              		.loc 10 127 5 view .LVU206
 718              		.loc 10 127 37 is_stmt 0 view .LVU207
 719 0000 00EB8101 		add	r1, r0, r1, lsl #2
 720              	.LVL27:
 721              		.loc 10 127 23 view .LVU208
 722 0004 0F4A     		ldr	r2, .L52
 723              		.loc 10 127 39 view .LVU209
 724 0006 B6EE005B 		vmov.f64	d5, #5.0e-1
 725              		.loc 10 127 23 view .LVU210
 726 000a 0F4B     		ldr	r3, .L52+4
 727              		.loc 10 127 37 view .LVU211
 728 000c 91ED007A 		vldr.32	s14, [r1]
 729              		.loc 10 127 23 view .LVU212
 730 0010 1268     		ldr	r2, [r2]
 731              		.loc 10 127 37 view .LVU213
 732 0012 B7EEC77A 		vcvt.f64.f32	d7, s14
 733              		.loc 10 127 23 view .LVU214
 734 0016 03EB8203 		add	r3, r3, r2, lsl #2
 128:Looper.cpp    ****     if(first)
 735              		.loc 10 128 5 view .LVU215
 736 001a 0C4A     		ldr	r2, .L52+8
 127:Looper.cpp    ****     buf[pos] = buf[pos] * 0.5 + in[i] * 0.5;
 737              		.loc 10 127 39 view .LVU216
 738 001c 27EE057B 		vmul.f64	d7, d7, d5
 127:Looper.cpp    ****     buf[pos] = buf[pos] * 0.5 + in[i] * 0.5;
 739              		.loc 10 127 23 view .LVU217
 740 0020 93ED006A 		vldr.32	s12, [r3]
 741              		.loc 10 128 5 view .LVU218
 742 0024 1278     		ldrb	r2, [r2]	@ zero_extendqisi2
 127:Looper.cpp    ****     buf[pos] = buf[pos] * 0.5 + in[i] * 0.5;
 743              		.loc 10 127 23 view .LVU219
 744 0026 B7EEC66A 		vcvt.f64.f32	d6, s12
 127:Looper.cpp    ****     buf[pos] = buf[pos] * 0.5 + in[i] * 0.5;
 745              		.loc 10 127 31 view .LVU220
 746 002a A6EE057B 		vfma.f64	d7, d6, d5
 747 002e B7EEC77B 		vcvt.f32.f64	s14, d7
 748 0032 83ED007A 		vstr.32	s14, [r3]
 749              		.loc 10 128 5 is_stmt 1 view .LVU221
 750 0036 1AB1     		cbz	r2, .L47
 751              	.LBB243:
 752              	.LBI243:
 125:Looper.cpp    **** {
 753              		.loc 10 125 6 view .LVU222
ARM GAS  /tmp/cc3Km3GO.s 			page 27


 754              	.LVL28:
 755              	.LBB244:
 129:Looper.cpp    ****     {
 130:Looper.cpp    ****         len++;
 756              		.loc 10 130 9 view .LVU223
 757              		.loc 10 130 12 is_stmt 0 view .LVU224
 758 0038 054A     		ldr	r2, .L52+12
 759 003a 1368     		ldr	r3, [r2]
 760 003c 0133     		adds	r3, r3, #1
 761 003e 1360     		str	r3, [r2]
 762              	.LVL29:
 763              	.L47:
 764              		.loc 10 130 12 view .LVU225
 765              	.LBE244:
 766              	.LBE243:
 131:Looper.cpp    ****     }
 132:Looper.cpp    **** }
 767              		.loc 10 132 1 view .LVU226
 768 0040 7047     		bx	lr
 769              	.L53:
 770 0042 00BF     		.align	2
 771              	.L52:
 772 0044 00000000 		.word	.LANCHOR4
 773 0048 00000000 		.word	buf
 774 004c 00000000 		.word	.LANCHOR3
 775 0050 00000000 		.word	.LANCHOR5
 776              		.cfi_endproc
 777              	.LFE4228:
 779              		.section	.text._Z11NextSamplesRfPKfj,"ax",%progbits
 780              		.align	1
 781              		.p2align 2,,3
 782              		.global	_Z11NextSamplesRfPKfj
 783              		.syntax unified
 784              		.thumb
 785              		.thumb_func
 786              		.fpu fpv5-d16
 788              	_Z11NextSamplesRfPKfj:
 789              	.LVL30:
 790              	.LFB4229:
 133:Looper.cpp    **** 
 134:Looper.cpp    **** void NextSamples(float&                               output,
 135:Looper.cpp    ****                  AudioHandle::InterleavingInputBuffer in,
 136:Looper.cpp    ****                  size_t                               i)
 137:Looper.cpp    **** {
 791              		.loc 10 137 1 is_stmt 1 view -0
 792              		.cfi_startproc
 793              		@ args = 0, pretend = 0, frame = 0
 794              		@ frame_needed = 0, uses_anonymous_args = 0
 138:Looper.cpp    ****     if(rec)
 795              		.loc 10 138 5 view .LVU228
 137:Looper.cpp    ****     if(rec)
 796              		.loc 10 137 1 is_stmt 0 view .LVU229
 797 0000 2DE9F041 		push	{r4, r5, r6, r7, r8, lr}
 798              		.cfi_def_cfa_offset 24
 799              		.cfi_offset 4, -24
 800              		.cfi_offset 5, -20
 801              		.cfi_offset 6, -16
ARM GAS  /tmp/cc3Km3GO.s 			page 28


 802              		.cfi_offset 7, -12
 803              		.cfi_offset 8, -8
 804              		.cfi_offset 14, -4
 805              		.loc 10 138 5 view .LVU230
 806 0004 224D     		ldr	r5, .L67
 137:Looper.cpp    ****     if(rec)
 807              		.loc 10 137 1 view .LVU231
 808 0006 8046     		mov	r8, r0
 809 0008 0C46     		mov	r4, r1
 810 000a 1646     		mov	r6, r2
 811              		.loc 10 138 5 view .LVU232
 812 000c 2F78     		ldrb	r7, [r5]	@ zero_extendqisi2
 813 000e 002F     		cmp	r7, #0
 814 0010 37D1     		bne	.L66
 815              	.LVL31:
 816              	.L55:
 139:Looper.cpp    ****     {
 140:Looper.cpp    ****         WriteBuffer(in, i);
 141:Looper.cpp    ****     }
 142:Looper.cpp    **** 
 143:Looper.cpp    ****     output = buf[pos];
 817              		.loc 10 143 5 is_stmt 1 view .LVU233
 818              		.loc 10 143 21 is_stmt 0 view .LVU234
 819 0012 204A     		ldr	r2, .L67+4
 820 0014 204D     		ldr	r5, .L67+8
 821 0016 1368     		ldr	r3, [r2]
 144:Looper.cpp    **** 
 145:Looper.cpp    ****     //automatic looptime
 146:Looper.cpp    ****     if(len >= MAX_SIZE)
 822              		.loc 10 146 12 view .LVU235
 823 0018 2048     		ldr	r0, .L67+12
 143:Looper.cpp    **** 
 824              		.loc 10 143 21 view .LVU236
 825 001a 05EB8305 		add	r5, r5, r3, lsl #2
 826              		.loc 10 146 5 view .LVU237
 827 001e 2049     		ldr	r1, .L67+16
 828 0020 D0F800C0 		ldr	ip, [r0]
 143:Looper.cpp    **** 
 829              		.loc 10 143 21 view .LVU238
 830 0024 95ED007A 		vldr.32	s14, [r5]
 831              		.loc 10 146 5 view .LVU239
 832 0028 8C45     		cmp	ip, r1
 143:Looper.cpp    **** 
 833              		.loc 10 143 12 view .LVU240
 834 002a 88ED007A 		vstr.32	s14, [r8]
 835              		.loc 10 146 5 is_stmt 1 view .LVU241
 836 002e 09DB     		blt	.L56
 147:Looper.cpp    ****     {
 148:Looper.cpp    ****         first = false;
 837              		.loc 10 148 9 view .LVU242
 838              		.loc 10 148 15 is_stmt 0 view .LVU243
 839 0030 0025     		movs	r5, #0
 840 0032 DFF87CE0 		ldr	lr, .L67+32
 149:Looper.cpp    ****         mod   = MAX_SIZE;
 841              		.loc 10 149 15 view .LVU244
 842 0036 DFF870C0 		ldr	ip, .L67+24
 148:Looper.cpp    ****         mod   = MAX_SIZE;
ARM GAS  /tmp/cc3Km3GO.s 			page 29


 843              		.loc 10 148 15 view .LVU245
 844 003a 8EF80050 		strb	r5, [lr]
 845              		.loc 10 149 9 is_stmt 1 view .LVU246
 150:Looper.cpp    ****         len   = 0;
 846              		.loc 10 150 15 is_stmt 0 view .LVU247
 847 003e 0560     		str	r5, [r0]
 149:Looper.cpp    ****         mod   = MAX_SIZE;
 848              		.loc 10 149 15 view .LVU248
 849 0040 CCF80010 		str	r1, [ip]
 850              		.loc 10 150 9 is_stmt 1 view .LVU249
 851              	.L56:
 151:Looper.cpp    ****     }
 152:Looper.cpp    **** 
 153:Looper.cpp    ****     if(play)
 852              		.loc 10 153 5 view .LVU250
 853 0044 1749     		ldr	r1, .L67+20
 854 0046 0978     		ldrb	r1, [r1]	@ zero_extendqisi2
 855 0048 39B1     		cbz	r1, .L57
 154:Looper.cpp    ****     {
 155:Looper.cpp    ****         pos++;
 856              		.loc 10 155 9 view .LVU251
 156:Looper.cpp    ****         pos %= mod;
 857              		.loc 10 156 9 view .LVU252
 858              		.loc 10 156 13 is_stmt 0 view .LVU253
 859 004a 1749     		ldr	r1, .L67+24
 155:Looper.cpp    ****         pos %= mod;
 860              		.loc 10 155 12 view .LVU254
 861 004c 0133     		adds	r3, r3, #1
 862              		.loc 10 156 13 view .LVU255
 863 004e 0868     		ldr	r0, [r1]
 864 0050 93FBF0F1 		sdiv	r1, r3, r0
 865 0054 00FB1133 		mls	r3, r0, r1, r3
 866 0058 1360     		str	r3, [r2]
 867              	.L57:
 157:Looper.cpp    ****     }
 158:Looper.cpp    **** 
 159:Looper.cpp    ****     if(!rec)
 868              		.loc 10 159 5 is_stmt 1 view .LVU256
 869 005a 87B9     		cbnz	r7, .L54
 160:Looper.cpp    ****     {
 161:Looper.cpp    ****         output = output * drywet + in[i] * (1 - drywet);
 870              		.loc 10 161 9 view .LVU257
 871              		.loc 10 161 25 is_stmt 0 view .LVU258
 872 005c 134B     		ldr	r3, .L67+28
 873              		.loc 10 161 47 view .LVU259
 874 005e F7EE007A 		vmov.f32	s15, #1.0e+0
 875              		.loc 10 161 40 view .LVU260
 876 0062 04EB8604 		add	r4, r4, r6, lsl #2
 877              	.LVL32:
 878              		.loc 10 161 25 view .LVU261
 879 0066 D3ED006A 		vldr.32	s13, [r3]
 880              		.loc 10 161 42 view .LVU262
 881 006a 94ED006A 		vldr.32	s12, [r4]
 882              		.loc 10 161 47 view .LVU263
 883 006e 77EEE67A 		vsub.f32	s15, s15, s13
 884              		.loc 10 161 42 view .LVU264
 885 0072 67EE867A 		vmul.f32	s15, s15, s12
ARM GAS  /tmp/cc3Km3GO.s 			page 30


 886              		.loc 10 161 34 view .LVU265
 887 0076 E7EE267A 		vfma.f32	s15, s14, s13
 888              		.loc 10 161 16 view .LVU266
 889 007a C8ED007A 		vstr.32	s15, [r8]
 890              	.L54:
 162:Looper.cpp    ****     }
 163:Looper.cpp    **** }
 891              		.loc 10 163 1 view .LVU267
 892 007e BDE8F081 		pop	{r4, r5, r6, r7, r8, pc}
 893              	.LVL33:
 894              	.L66:
 140:Looper.cpp    ****     }
 895              		.loc 10 140 9 is_stmt 1 view .LVU268
 140:Looper.cpp    ****     }
 896              		.loc 10 140 20 is_stmt 0 view .LVU269
 897 0082 1146     		mov	r1, r2
 898              	.LVL34:
 140:Looper.cpp    ****     }
 899              		.loc 10 140 20 view .LVU270
 900 0084 2046     		mov	r0, r4
 901              	.LVL35:
 140:Looper.cpp    ****     }
 902              		.loc 10 140 20 view .LVU271
 903 0086 FFF7FEFF 		bl	_Z11WriteBufferPKfj
 904              	.LVL36:
 140:Looper.cpp    ****     }
 905              		.loc 10 140 20 view .LVU272
 906 008a 2F78     		ldrb	r7, [r5]	@ zero_extendqisi2
 907 008c C1E7     		b	.L55
 908              	.L68:
 909 008e 00BF     		.align	2
 910              	.L67:
 911 0090 00000000 		.word	.LANCHOR2
 912 0094 00000000 		.word	.LANCHOR4
 913 0098 00000000 		.word	buf
 914 009c 00000000 		.word	.LANCHOR5
 915 00a0 00BADB00 		.word	14400000
 916 00a4 00000000 		.word	.LANCHOR1
 917 00a8 00000000 		.word	.LANCHOR6
 918 00ac 00000000 		.word	.LANCHOR8
 919 00b0 00000000 		.word	.LANCHOR3
 920              		.cfi_endproc
 921              	.LFE4229:
 923              		.section	.text._ZL13AudioCallbackPKfPfj,"ax",%progbits
 924              		.align	1
 925              		.p2align 2,,3
 926              		.syntax unified
 927              		.thumb
 928              		.thumb_func
 929              		.fpu fpv5-d16
 931              	_ZL13AudioCallbackPKfPfj:
 932              	.LVL37:
 933              	.LFB4223:
  32:Looper.cpp    ****     float output = 0;
 934              		.loc 10 32 1 is_stmt 1 view -0
 935              		.cfi_startproc
 936              		@ args = 0, pretend = 0, frame = 8
ARM GAS  /tmp/cc3Km3GO.s 			page 31


 937              		@ frame_needed = 0, uses_anonymous_args = 0
  33:Looper.cpp    **** 
 938              		.loc 10 33 5 view .LVU274
  32:Looper.cpp    ****     float output = 0;
 939              		.loc 10 32 1 is_stmt 0 view .LVU275
 940 0000 F0B5     		push	{r4, r5, r6, r7, lr}
 941              		.cfi_def_cfa_offset 20
 942              		.cfi_offset 4, -20
 943              		.cfi_offset 5, -16
 944              		.cfi_offset 6, -12
 945              		.cfi_offset 7, -8
 946              		.cfi_offset 14, -4
  33:Looper.cpp    **** 
 947              		.loc 10 33 11 view .LVU276
 948 0002 0023     		movs	r3, #0
  32:Looper.cpp    ****     float output = 0;
 949              		.loc 10 32 1 view .LVU277
 950 0004 83B0     		sub	sp, sp, #12
 951              		.cfi_def_cfa_offset 32
  32:Looper.cpp    ****     float output = 0;
 952              		.loc 10 32 1 view .LVU278
 953 0006 1646     		mov	r6, r2
 954 0008 0746     		mov	r7, r0
 955 000a 0D46     		mov	r5, r1
  33:Looper.cpp    **** 
 956              		.loc 10 33 11 view .LVU279
 957 000c 0193     		str	r3, [sp, #4]	@ float
  35:Looper.cpp    **** 
 958              		.loc 10 35 5 is_stmt 1 view .LVU280
  35:Looper.cpp    **** 
 959              		.loc 10 35 13 is_stmt 0 view .LVU281
 960 000e FFF7FEFF 		bl	_Z8Controlsv
 961              	.LVL38:
  37:Looper.cpp    ****     {
 962              		.loc 10 37 5 is_stmt 1 view .LVU282
 963              	.LBB245:
  37:Looper.cpp    ****     {
 964              		.loc 10 37 25 view .LVU283
 965 0012 86B1     		cbz	r6, .L69
 966 0014 013E     		subs	r6, r6, #1
 967              	.LVL39:
  37:Looper.cpp    ****     {
 968              		.loc 10 37 16 is_stmt 0 view .LVU284
 969 0016 0024     		movs	r4, #0
 970 0018 26F00106 		bic	r6, r6, #1
 971              	.LVL40:
 972              	.L71:
  39:Looper.cpp    **** 
 973              		.loc 10 39 9 is_stmt 1 discriminator 2 view .LVU285
  39:Looper.cpp    **** 
 974              		.loc 10 39 20 is_stmt 0 discriminator 2 view .LVU286
 975 001c 2246     		mov	r2, r4
 976 001e 3946     		mov	r1, r7
 977 0020 01A8     		add	r0, sp, #4
 978 0022 FFF7FEFF 		bl	_Z11NextSamplesRfPKfj
 979              	.LVL41:
  42:Looper.cpp    ****     }
ARM GAS  /tmp/cc3Km3GO.s 			page 32


 980              		.loc 10 42 9 is_stmt 1 discriminator 2 view .LVU287
  42:Looper.cpp    ****     }
 981              		.loc 10 42 29 is_stmt 0 discriminator 2 view .LVU288
 982 0026 019A     		ldr	r2, [sp, #4]	@ float
  37:Looper.cpp    ****     {
 983              		.loc 10 37 25 discriminator 2 view .LVU289
 984 0028 B442     		cmp	r4, r6
 985 002a 04F10204 		add	r4, r4, #2
 986              	.LVL42:
  42:Looper.cpp    ****     }
 987              		.loc 10 42 29 discriminator 2 view .LVU290
 988 002e 6A60     		str	r2, [r5, #4]	@ float
  42:Looper.cpp    ****     }
 989              		.loc 10 42 16 discriminator 2 view .LVU291
 990 0030 45F8082B 		str	r2, [r5], #8	@ float
  37:Looper.cpp    ****     {
 991              		.loc 10 37 5 is_stmt 1 discriminator 2 view .LVU292
 992              	.LVL43:
  37:Looper.cpp    ****     {
 993              		.loc 10 37 25 discriminator 2 view .LVU293
 994 0034 F2D1     		bne	.L71
 995              	.L69:
  37:Looper.cpp    ****     {
 996              		.loc 10 37 25 is_stmt 0 discriminator 2 view .LVU294
 997              	.LBE245:
  44:Looper.cpp    **** 
 998              		.loc 10 44 1 view .LVU295
 999 0036 03B0     		add	sp, sp, #12
 1000              		.cfi_def_cfa_offset 20
 1001              		@ sp needed
 1002 0038 F0BD     		pop	{r4, r5, r6, r7, pc}
  44:Looper.cpp    **** 
 1003              		.loc 10 44 1 view .LVU296
 1004              		.cfi_endproc
 1005              	.LFE4223:
 1007 003a 00BF     		.section	.text.startup._GLOBAL__sub_I_first,"ax",%progbits
 1008              		.align	1
 1009              		.p2align 2,,3
 1010              		.syntax unified
 1011              		.thumb
 1012              		.thumb_func
 1013              		.fpu fpv5-d16
 1015              	_GLOBAL__sub_I_first:
 1016              	.LFB4775:
 1017              		.loc 10 163 1 is_stmt 1 view -0
 1018              		.cfi_startproc
 1019              		@ args = 0, pretend = 0, frame = 0
 1020              		@ frame_needed = 0, uses_anonymous_args = 0
 1021              	.LBB281:
 1022              	.LBI281:
 1023              		.loc 10 163 1 view .LVU298
 1024              	.LVL44:
 1025              	.LBB282:
 1026              	.LBB283:
 1027              	.LBI283:
  66:../../libdaisy/src/daisy_petal.h ****     /** Destructor */
 1028              		.loc 1 66 5 view .LVU299
ARM GAS  /tmp/cc3Km3GO.s 			page 33


 1029              	.LBB284:
 1030              	.LBB285:
 1031              	.LBI285:
  21:../../libdaisy/src/daisy_seed.h ****     ~DaisySeed() {}
 1032              		.loc 5 21 5 view .LVU300
 1033              	.LBB286:
 1034              	.LBB287:
 1035              	.LBI287:
  62:../../libdaisy/src/hid/audio.h ****     ~AudioHandle() {}
 1036              		.loc 9 62 5 view .LVU301
 1037              	.LBE287:
 1038              	.LBE286:
 1039              	.LBE285:
 1040              	.LBE284:
 1041              	.LBE283:
 1042              	.LBE282:
 1043              	.LBE281:
 1044              		.loc 10 163 1 is_stmt 0 view .LVU302
 1045 0000 10B5     		push	{r4, lr}
 1046              		.cfi_def_cfa_offset 8
 1047              		.cfi_offset 4, -8
 1048              		.cfi_offset 14, -4
 1049              	.LBB325:
 1050              	.LBB321:
 1051              	.LBB318:
 1052              	.LBB315:
 1053              	.LBB302:
 1054              	.LBB300:
 1055              	.LBB292:
 1056              	.LBB288:
 1057              	.LBB289:
  62:../../libdaisy/src/hid/audio.h ****     ~AudioHandle() {}
 1058              		.loc 9 62 35 view .LVU303
 1059 0002 0A4C     		ldr	r4, .L79
 1060 0004 0023     		movs	r3, #0
 1061              	.LBE289:
 1062              	.LBE288:
 1063              	.LBE292:
 1064              	.LBE300:
 1065              	.LBE302:
 1066              	.LBB303:
 1067              	.LBB304:
 1068              		.file 11 "../../libdaisy/src/dev/leddriver.h"
   1:../../libdaisy/src/dev/leddriver.h **** #pragma once
   2:../../libdaisy/src/dev/leddriver.h **** #ifndef SA_LED_DRIVER_H
   3:../../libdaisy/src/dev/leddriver.h **** #define SA_LED_DRIVER_H /**< & */
   4:../../libdaisy/src/dev/leddriver.h **** 
   5:../../libdaisy/src/dev/leddriver.h **** #ifdef __cplusplus
   6:../../libdaisy/src/dev/leddriver.h **** 
   7:../../libdaisy/src/dev/leddriver.h **** #include <stdint.h>
   8:../../libdaisy/src/dev/leddriver.h **** #include "per/i2c.h"
   9:../../libdaisy/src/dev/leddriver.h **** #include "per/gpio.h"
  10:../../libdaisy/src/dev/leddriver.h **** 
  11:../../libdaisy/src/dev/leddriver.h **** namespace daisy
  12:../../libdaisy/src/dev/leddriver.h **** {
  13:../../libdaisy/src/dev/leddriver.h **** /** LED driver for one or multiple PCA9685 12bit PWM chips connected to
  14:../../libdaisy/src/dev/leddriver.h ****  * a single I2C peripheral.
ARM GAS  /tmp/cc3Km3GO.s 			page 34


  15:../../libdaisy/src/dev/leddriver.h ****  * It includes gamma correction from 8bit brightness values but it 
  16:../../libdaisy/src/dev/leddriver.h ****  * can also be supplied with raw 12bit values.
  17:../../libdaisy/src/dev/leddriver.h ****  * This driver uses two buffers - one for drawing, one for transmitting.
  18:../../libdaisy/src/dev/leddriver.h ****  * Multiple LedDriverPca9685 instances can be used at the same time.
  19:../../libdaisy/src/dev/leddriver.h ****  * \param numDrivers    The number of PCA9685 driver attached to the I2C
  20:../../libdaisy/src/dev/leddriver.h ****  *                      peripheral.
  21:../../libdaisy/src/dev/leddriver.h ****  * \param persistentBufferContents If set to true, the current draw buffer 
  22:../../libdaisy/src/dev/leddriver.h ****  *                      contents will be copied to the next draw buffer 
  23:../../libdaisy/src/dev/leddriver.h ****  *                      during SwapBuffersAndTransmit(). Use this, if you plan
  24:../../libdaisy/src/dev/leddriver.h ****  *                      to write single leds at a time. 
  25:../../libdaisy/src/dev/leddriver.h ****  *                      If you will alway update all leds before calling 
  26:../../libdaisy/src/dev/leddriver.h ****  *                      SwapBuffersAndTransmit(), you can set this to false
  27:../../libdaisy/src/dev/leddriver.h ****  *                      and safe some cycles.
  28:../../libdaisy/src/dev/leddriver.h ****  */
  29:../../libdaisy/src/dev/leddriver.h **** template <int numDrivers, bool persistentBufferContents = true>
  30:../../libdaisy/src/dev/leddriver.h **** class LedDriverPca9685
 1069              		.loc 11 30 7 view .LVU304
 1070 0006 4FF40072 		mov	r2, #512
 1071 000a 0949     		ldr	r1, .L79+4
 1072 000c 04F2D240 		addw	r0, r4, #1234
 1073              	.LBE304:
 1074              	.LBE303:
 1075              	.LBB309:
 1076              	.LBB301:
 1077              	.LBB293:
 1078              	.LBB291:
 1079              	.LBB290:
  62:../../libdaisy/src/hid/audio.h ****     ~AudioHandle() {}
 1080              		.loc 9 62 35 view .LVU305
 1081 0010 6361     		str	r3, [r4, #20]
 1082              	.LVL45:
  62:../../libdaisy/src/hid/audio.h ****     ~AudioHandle() {}
 1083              		.loc 9 62 35 view .LVU306
 1084              	.LBE290:
 1085              	.LBE291:
 1086              	.LBE293:
 1087              	.LBB294:
 1088              	.LBI294:
  84:../../libdaisy/src/per/adc.h ****     ~AdcHandle() {}
 1089              		.loc 8 84 5 is_stmt 1 view .LVU307
  84:../../libdaisy/src/per/adc.h ****     ~AdcHandle() {}
 1090              		.loc 8 84 5 is_stmt 0 view .LVU308
 1091              	.LBE294:
 1092              	.LBB295:
 1093              	.LBI295:
 1094              		.file 12 "../../libdaisy/src/per/dac.h"
   1:../../libdaisy/src/per/dac.h **** #pragma once
   2:../../libdaisy/src/per/dac.h **** #ifndef DSY_DAC_H
   3:../../libdaisy/src/per/dac.h **** #define DSY_DAC_H
   4:../../libdaisy/src/per/dac.h **** 
   5:../../libdaisy/src/per/dac.h **** #include "daisy_core.h"
   6:../../libdaisy/src/per/dac.h **** 
   7:../../libdaisy/src/per/dac.h **** namespace daisy
   8:../../libdaisy/src/per/dac.h **** {
   9:../../libdaisy/src/per/dac.h **** /** DAC handle for Built-in DAC Peripheral 
  10:../../libdaisy/src/per/dac.h ****  ** 
  11:../../libdaisy/src/per/dac.h ****  ** For now only Normal Mode is supported,
ARM GAS  /tmp/cc3Km3GO.s 			page 35


  12:../../libdaisy/src/per/dac.h ****  ** Sample and hold mode provides reduced power consumption, but requires a bit more setup.
  13:../../libdaisy/src/per/dac.h ****  **
  14:../../libdaisy/src/per/dac.h ****  ** For now connecting the DAC through other internal periphearls is also not supported.
  15:../../libdaisy/src/per/dac.h ****  **
  16:../../libdaisy/src/per/dac.h ****  ** Since the DAC channels have dedicated pins we don't need to pass in a pin config like with
  17:../../libdaisy/src/per/dac.h ****  ** other modules. However, it is still important to not try to use the DAC pins for anything else.
  18:../../libdaisy/src/per/dac.h ****  ** DAC Channel 1 is on PA4, and DAC Channel 2 is on PA5
  19:../../libdaisy/src/per/dac.h ****  ***/
  20:../../libdaisy/src/per/dac.h **** class DacHandle
  21:../../libdaisy/src/per/dac.h **** {
  22:../../libdaisy/src/per/dac.h ****   public:
  23:../../libdaisy/src/per/dac.h ****     /** Return Values for the DacHandle class */
  24:../../libdaisy/src/per/dac.h ****     enum class Result
  25:../../libdaisy/src/per/dac.h ****     {
  26:../../libdaisy/src/per/dac.h ****         OK,
  27:../../libdaisy/src/per/dac.h ****         ERR,
  28:../../libdaisy/src/per/dac.h ****     };
  29:../../libdaisy/src/per/dac.h **** 
  30:../../libdaisy/src/per/dac.h ****     /** Selects which channel(s) will be configured for use. */
  31:../../libdaisy/src/per/dac.h ****     enum class Channel
  32:../../libdaisy/src/per/dac.h ****     {
  33:../../libdaisy/src/per/dac.h ****         ONE,
  34:../../libdaisy/src/per/dac.h ****         TWO,
  35:../../libdaisy/src/per/dac.h ****         BOTH,
  36:../../libdaisy/src/per/dac.h ****     };
  37:../../libdaisy/src/per/dac.h **** 
  38:../../libdaisy/src/per/dac.h ****     /** Sets the Mode for the DAC channels.
  39:../../libdaisy/src/per/dac.h ****      **
  40:../../libdaisy/src/per/dac.h ****      ** Polling mode uses the blocking mode to transmit a single value at a time.
  41:../../libdaisy/src/per/dac.h ****      **
  42:../../libdaisy/src/per/dac.h ****      ** DMA mode uses a buffer, and periodically transmits it triggering a 
  43:../../libdaisy/src/per/dac.h ****      ** callback to fill the buffer when it is ready for more samples.
  44:../../libdaisy/src/per/dac.h ****      ***/
  45:../../libdaisy/src/per/dac.h ****     enum class Mode
  46:../../libdaisy/src/per/dac.h ****     {
  47:../../libdaisy/src/per/dac.h ****         POLLING,
  48:../../libdaisy/src/per/dac.h ****         DMA,
  49:../../libdaisy/src/per/dac.h ****     };
  50:../../libdaisy/src/per/dac.h **** 
  51:../../libdaisy/src/per/dac.h ****     /** Sets the number of bits per sample transmitted out of the DAC.
  52:../../libdaisy/src/per/dac.h ****      ** The output range will be: 0V - VDDA
  53:../../libdaisy/src/per/dac.h ****      ** The resolution will be roughly: bitdepth / (VDDA - 0V) 
  54:../../libdaisy/src/per/dac.h ****      ***/
  55:../../libdaisy/src/per/dac.h ****     enum class BitDepth
  56:../../libdaisy/src/per/dac.h ****     {
  57:../../libdaisy/src/per/dac.h ****         BITS_8,
  58:../../libdaisy/src/per/dac.h ****         BITS_12
  59:../../libdaisy/src/per/dac.h ****     };
  60:../../libdaisy/src/per/dac.h **** 
  61:../../libdaisy/src/per/dac.h ****     /** Sets whether the DAC output is buffered for higher drive ability. */
  62:../../libdaisy/src/per/dac.h ****     enum class BufferState
  63:../../libdaisy/src/per/dac.h ****     {
  64:../../libdaisy/src/per/dac.h ****         ENABLED,
  65:../../libdaisy/src/per/dac.h ****         DISABLED,
  66:../../libdaisy/src/per/dac.h ****     };
  67:../../libdaisy/src/per/dac.h **** 
  68:../../libdaisy/src/per/dac.h ****     /** Configuration structure for initializing the DAC structure. */
ARM GAS  /tmp/cc3Km3GO.s 			page 36


  69:../../libdaisy/src/per/dac.h ****     struct Config
  70:../../libdaisy/src/per/dac.h ****     {
  71:../../libdaisy/src/per/dac.h ****         /** Target Samplerate in Hz used to configure the internal 
  72:../../libdaisy/src/per/dac.h ****          ** timebase for DMA mode. Does nothing in POLLING mode.
  73:../../libdaisy/src/per/dac.h ****          ** If the value is 0 at Init time this will default to 48000Hz 
  74:../../libdaisy/src/per/dac.h ****          ** otherwise the driver will attempt meet the target.*/
  75:../../libdaisy/src/per/dac.h ****         uint32_t target_samplerate;
  76:../../libdaisy/src/per/dac.h **** 
  77:../../libdaisy/src/per/dac.h ****         Channel     chn;
  78:../../libdaisy/src/per/dac.h ****         Mode        mode;
  79:../../libdaisy/src/per/dac.h ****         BitDepth    bitdepth;
  80:../../libdaisy/src/per/dac.h ****         BufferState buff_state;
  81:../../libdaisy/src/per/dac.h ****     };
  82:../../libdaisy/src/per/dac.h **** 
  83:../../libdaisy/src/per/dac.h ****     DacHandle() : pimpl_(nullptr) {}
 1095              		.loc 12 83 5 is_stmt 1 view .LVU309
 1096              	.LBB296:
 1097              	.LBB297:
 1098              		.loc 12 83 33 is_stmt 0 view .LVU310
 1099 0012 2362     		str	r3, [r4, #32]
 1100              	.LVL46:
 1101              		.loc 12 83 33 view .LVU311
 1102              	.LBE297:
 1103              	.LBE296:
 1104              	.LBE295:
 1105              	.LBB298:
 1106              	.LBI298:
  40:../../libdaisy/src/hid/usb.h **** 
 1107              		.loc 7 40 5 is_stmt 1 view .LVU312
  40:../../libdaisy/src/hid/usb.h **** 
 1108              		.loc 7 40 5 is_stmt 0 view .LVU313
 1109              	.LBE298:
 1110              	.LBB299:
 1111              	.LBI299:
  58:../../libdaisy/src/sys/system.h ****     ~System() {}
 1112              		.loc 6 58 5 is_stmt 1 view .LVU314
  58:../../libdaisy/src/sys/system.h ****     ~System() {}
 1113              		.loc 6 58 5 is_stmt 0 view .LVU315
 1114              	.LBE299:
 1115              	.LBE301:
 1116              	.LBE309:
 1117              	.LBB310:
 1118              	.LBI310:
  20:../../libdaisy/src/hid/encoder.h ****     ~Encoder() {}
 1119              		.loc 3 20 5 is_stmt 1 view .LVU316
 1120              	.LBB311:
 1121              	.LBB312:
 1122              	.LBI312:
  40:../../libdaisy/src/hid/switch.h ****     ~Switch() {}
 1123              		.loc 4 40 5 view .LVU317
  40:../../libdaisy/src/hid/switch.h ****     ~Switch() {}
 1124              		.loc 4 40 5 is_stmt 0 view .LVU318
 1125              	.LBE312:
 1126              	.LBE311:
 1127              	.LBE310:
 1128              	.LBE315:
 1129              	.LBE318:
ARM GAS  /tmp/cc3Km3GO.s 			page 37


 1130              	.LBE321:
 1131              	.LBE325:
  66:../../libdaisy/src/daisy_petal.h ****     /** Destructor */
 1132              		.loc 1 66 18 is_stmt 1 view .LVU319
 1133              	.LBB326:
 1134              	.LBB322:
 1135              	.LBB319:
 1136              	.LBB316:
 1137              	.LBB313:
 1138              	.LBI313:
  21:../../libdaisy/src/hid/ctrl.h ****     /** destructor */
 1139              		.loc 2 21 5 view .LVU320
  21:../../libdaisy/src/hid/ctrl.h ****     /** destructor */
 1140              		.loc 2 21 5 is_stmt 0 view .LVU321
 1141              	.LBE313:
 1142              	.LBE316:
 1143              	.LBE319:
 1144              	.LBE322:
 1145              	.LBE326:
  66:../../libdaisy/src/daisy_petal.h ****     /** Destructor */
 1146              		.loc 1 66 18 is_stmt 1 view .LVU322
  66:../../libdaisy/src/daisy_petal.h ****     /** Destructor */
 1147              		.loc 1 66 18 view .LVU323
  66:../../libdaisy/src/daisy_petal.h ****     /** Destructor */
 1148              		.loc 1 66 18 view .LVU324
 1149              	.LBB327:
 1150              	.LBB323:
 1151              	.LBB320:
 1152              	.LBB317:
 1153              	.LBB314:
 1154              	.LBI303:
 1155              		.loc 11 30 7 view .LVU325
 1156              	.LBB308:
 1157              	.LBB305:
 1158              	.LBI305:
 1159              		.file 13 "../../libdaisy/src/per/i2c.h"
   1:../../libdaisy/src/per/i2c.h **** #pragma once
   2:../../libdaisy/src/per/i2c.h **** #include "daisy_core.h"
   3:../../libdaisy/src/per/i2c.h **** 
   4:../../libdaisy/src/per/i2c.h **** namespace daisy
   5:../../libdaisy/src/per/i2c.h **** {
   6:../../libdaisy/src/per/i2c.h **** /** A handle for interacting with an I2C peripheral. This is a dumb
   7:../../libdaisy/src/per/i2c.h ****  *  gateway that internally points to one of the four I2C peripherals
   8:../../libdaisy/src/per/i2c.h ****  *  after it was initialised. It can then be copied and passed around.
   9:../../libdaisy/src/per/i2c.h ****  *  Use an I2CHandle like this:
  10:../../libdaisy/src/per/i2c.h ****  *  
  11:../../libdaisy/src/per/i2c.h ****  *      // setup the configuration
  12:../../libdaisy/src/per/i2c.h ****  *      I2CHandle::Config i2c_conf;
  13:../../libdaisy/src/per/i2c.h ****  *      i2c_conf.periph = I2CHandle::Config::Peripheral::I2C_1;
  14:../../libdaisy/src/per/i2c.h ****  *      i2c_conf.speed  = I2CHandle::Config::Speed::I2C_400KHZ;
  15:../../libdaisy/src/per/i2c.h ****  *      i2c_conf.mode   = I2CHandle::Config::Mode::Master;
  16:../../libdaisy/src/per/i2c.h ****  *      i2c_conf.pin_config.scl  = {DSY_GPIOB, 8};
  17:../../libdaisy/src/per/i2c.h ****  *      i2c_conf.pin_config.sda  = {DSY_GPIOB, 9};
  18:../../libdaisy/src/per/i2c.h ****  *      // initialise the peripheral
  19:../../libdaisy/src/per/i2c.h ****  *      I2CHandle i2c;
  20:../../libdaisy/src/per/i2c.h ****  *      i2c.Init(i2c_conf);
  21:../../libdaisy/src/per/i2c.h ****  *      // now i2c points to the corresponding peripheral and can be used.
ARM GAS  /tmp/cc3Km3GO.s 			page 38


  22:../../libdaisy/src/per/i2c.h ****  *      i2c.TransmitBlocking( ... );
  23:../../libdaisy/src/per/i2c.h ****  */
  24:../../libdaisy/src/per/i2c.h **** class I2CHandle
  25:../../libdaisy/src/per/i2c.h **** {
  26:../../libdaisy/src/per/i2c.h ****   public:
  27:../../libdaisy/src/per/i2c.h ****     /** Contains settings for initialising an I2C interface. */
  28:../../libdaisy/src/per/i2c.h ****     struct Config
  29:../../libdaisy/src/per/i2c.h ****     {
  30:../../libdaisy/src/per/i2c.h ****         /** Specifies whether the interface will operate in master or slave mode. */
  31:../../libdaisy/src/per/i2c.h ****         enum class Mode
  32:../../libdaisy/src/per/i2c.h ****         {
  33:../../libdaisy/src/per/i2c.h ****             I2C_MASTER,
  34:../../libdaisy/src/per/i2c.h ****             I2C_SLAVE,
  35:../../libdaisy/src/per/i2c.h ****         };
  36:../../libdaisy/src/per/i2c.h **** 
  37:../../libdaisy/src/per/i2c.h ****         /** Specifices the internal peripheral to use (these are mapped to different pins on the ha
  38:../../libdaisy/src/per/i2c.h ****         enum class Peripheral
  39:../../libdaisy/src/per/i2c.h ****         {
  40:../../libdaisy/src/per/i2c.h ****             I2C_1 = 0, /**< & */
  41:../../libdaisy/src/per/i2c.h ****             I2C_2,     /**< & */
  42:../../libdaisy/src/per/i2c.h ****             I2C_3,     /**< & */
  43:../../libdaisy/src/per/i2c.h ****             I2C_4,     /**< & */
  44:../../libdaisy/src/per/i2c.h ****         };
  45:../../libdaisy/src/per/i2c.h **** 
  46:../../libdaisy/src/per/i2c.h ****         /** Rate at which the clock/data will be sent/received. The device being used will have max
  47:../../libdaisy/src/per/i2c.h ****          *  1MHZ Mode is currently 886kHz
  48:../../libdaisy/src/per/i2c.h ****          */
  49:../../libdaisy/src/per/i2c.h ****         enum class Speed
  50:../../libdaisy/src/per/i2c.h ****         {
  51:../../libdaisy/src/per/i2c.h ****             I2C_100KHZ, /**< & */
  52:../../libdaisy/src/per/i2c.h ****             I2C_400KHZ, /**< & */
  53:../../libdaisy/src/per/i2c.h ****             I2C_1MHZ,   /**< & */
  54:../../libdaisy/src/per/i2c.h ****         };
  55:../../libdaisy/src/per/i2c.h **** 
  56:../../libdaisy/src/per/i2c.h ****         Peripheral periph; /**< & */
  57:../../libdaisy/src/per/i2c.h ****         struct
  58:../../libdaisy/src/per/i2c.h ****         {
  59:../../libdaisy/src/per/i2c.h ****             dsy_gpio_pin scl; /**< & */
  60:../../libdaisy/src/per/i2c.h ****             dsy_gpio_pin sda; /**< & */
  61:../../libdaisy/src/per/i2c.h ****         } pin_config;         /**< & */
  62:../../libdaisy/src/per/i2c.h **** 
  63:../../libdaisy/src/per/i2c.h ****         Speed speed; /**< & */
  64:../../libdaisy/src/per/i2c.h ****         Mode  mode;  /**< & */
  65:../../libdaisy/src/per/i2c.h ****         // 0x10 is chosen as a default to avoid conflicts with reserved addresses
  66:../../libdaisy/src/per/i2c.h ****         uint8_t address = 0x10; /**< & */
  67:../../libdaisy/src/per/i2c.h ****     };
  68:../../libdaisy/src/per/i2c.h **** 
  69:../../libdaisy/src/per/i2c.h ****     /** Return values for I2C functions. */
  70:../../libdaisy/src/per/i2c.h ****     enum class Result
  71:../../libdaisy/src/per/i2c.h ****     {
  72:../../libdaisy/src/per/i2c.h ****         OK, /**< & */
  73:../../libdaisy/src/per/i2c.h ****         ERR /**< & */
  74:../../libdaisy/src/per/i2c.h ****     };
  75:../../libdaisy/src/per/i2c.h **** 
  76:../../libdaisy/src/per/i2c.h ****     enum class Direction
  77:../../libdaisy/src/per/i2c.h ****     {
  78:../../libdaisy/src/per/i2c.h ****         TRANSMIT, /**< & */
ARM GAS  /tmp/cc3Km3GO.s 			page 39


  79:../../libdaisy/src/per/i2c.h ****         RECEIVE,  /**< & */
  80:../../libdaisy/src/per/i2c.h ****     };
  81:../../libdaisy/src/per/i2c.h **** 
  82:../../libdaisy/src/per/i2c.h ****     I2CHandle() : pimpl_(nullptr) {}
 1160              		.loc 13 82 5 view .LVU326
 1161              	.LBB306:
 1162              	.LBB307:
 1163              		.loc 13 82 33 is_stmt 0 view .LVU327
 1164 0014 C4F8BC34 		str	r3, [r4, #1212]
 1165              	.LVL47:
 1166              		.loc 13 82 33 view .LVU328
 1167              	.LBE307:
 1168              	.LBE306:
 1169              	.LBE305:
 1170              		.loc 11 30 7 view .LVU329
 1171 0018 FFF7FEFF 		bl	memcpy
 1172              	.LVL48:
 1173              		.loc 11 30 7 view .LVU330
 1174              	.LBE308:
 1175              	.LBE314:
 1176              	.LBE317:
 1177              	.LBE320:
   9:Looper.cpp    **** 
 1178              		.loc 10 9 19 view .LVU331
 1179 001c 2046     		mov	r0, r4
 1180 001e 054A     		ldr	r2, .L79+8
 1181 0020 0549     		ldr	r1, .L79+12
 1182              	.LBE323:
 1183              	.LBE327:
 1184              		.loc 10 163 1 view .LVU332
 1185 0022 BDE81040 		pop	{r4, lr}
 1186              		.cfi_restore 14
 1187              		.cfi_restore 4
 1188              		.cfi_def_cfa_offset 0
 1189              	.LBB328:
 1190              	.LBB324:
   9:Looper.cpp    **** 
 1191              		.loc 10 9 19 view .LVU333
 1192 0026 FFF7FEBF 		b	__aeabi_atexit
 1193              	.LVL49:
 1194              	.L80:
 1195 002a 00BF     		.align	2
 1196              	.L79:
 1197 002c 00000000 		.word	.LANCHOR0
 1198 0030 00000000 		.word	.LANCHOR9
 1199 0034 00000000 		.word	__dso_handle
 1200 0038 00000000 		.word	_ZN5daisy10DaisyPetalD1Ev
 1201              	.LBE324:
 1202              	.LBE328:
 1203              		.cfi_endproc
 1204              	.LFE4775:
 1206              		.section	.init_array,"aw",%init_array
 1207              		.align	2
 1208 0000 00000000 		.word	_GLOBAL__sub_I_first(target1)
 1209              		.global	res
 1210              		.global	drywet
 1211              		.global	len
ARM GAS  /tmp/cc3Km3GO.s 			page 40


 1212              		.global	mod
 1213              		.global	buf
 1214              		.global	pos
 1215              		.global	play
 1216              		.global	rec
 1217              		.global	first
 1218              		.section	.rodata
 1219              		.align	2
 1220              		.set	.LANCHOR9,. + 0
 1221              	.LC0:
 1222 0000 0000     		.short	0
 1223 0002 0100     		.short	1
 1224 0004 0100     		.short	1
 1225 0006 0100     		.short	1
 1226 0008 0100     		.short	1
 1227 000a 0100     		.short	1
 1228 000c 0100     		.short	1
 1229 000e 0100     		.short	1
 1230 0010 0100     		.short	1
 1231 0012 0100     		.short	1
 1232 0014 0100     		.short	1
 1233 0016 0100     		.short	1
 1234 0018 0200     		.short	2
 1235 001a 0200     		.short	2
 1236 001c 0200     		.short	2
 1237 001e 0200     		.short	2
 1238 0020 0200     		.short	2
 1239 0022 0200     		.short	2
 1240 0024 0200     		.short	2
 1241 0026 0300     		.short	3
 1242 0028 0300     		.short	3
 1243 002a 0400     		.short	4
 1244 002c 0400     		.short	4
 1245 002e 0500     		.short	5
 1246 0030 0500     		.short	5
 1247 0032 0600     		.short	6
 1248 0034 0700     		.short	7
 1249 0036 0800     		.short	8
 1250 0038 0800     		.short	8
 1251 003a 0900     		.short	9
 1252 003c 0A00     		.short	10
 1253 003e 0B00     		.short	11
 1254 0040 0C00     		.short	12
 1255 0042 0D00     		.short	13
 1256 0044 0F00     		.short	15
 1257 0046 1000     		.short	16
 1258 0048 1100     		.short	17
 1259 004a 1200     		.short	18
 1260 004c 1400     		.short	20
 1261 004e 1500     		.short	21
 1262 0050 1700     		.short	23
 1263 0052 1900     		.short	25
 1264 0054 1A00     		.short	26
 1265 0056 1C00     		.short	28
 1266 0058 1E00     		.short	30
 1267 005a 2000     		.short	32
 1268 005c 2200     		.short	34
ARM GAS  /tmp/cc3Km3GO.s 			page 41


 1269 005e 2400     		.short	36
 1270 0060 2600     		.short	38
 1271 0062 2800     		.short	40
 1272 0064 2B00     		.short	43
 1273 0066 2D00     		.short	45
 1274 0068 3000     		.short	48
 1275 006a 3200     		.short	50
 1276 006c 3500     		.short	53
 1277 006e 3800     		.short	56
 1278 0070 3B00     		.short	59
 1279 0072 3E00     		.short	62
 1280 0074 4100     		.short	65
 1281 0076 4400     		.short	68
 1282 0078 4700     		.short	71
 1283 007a 4B00     		.short	75
 1284 007c 4E00     		.short	78
 1285 007e 5200     		.short	82
 1286 0080 5500     		.short	85
 1287 0082 5900     		.short	89
 1288 0084 5D00     		.short	93
 1289 0086 6100     		.short	97
 1290 0088 6500     		.short	101
 1291 008a 6900     		.short	105
 1292 008c 6E00     		.short	110
 1293 008e 7200     		.short	114
 1294 0090 7700     		.short	119
 1295 0092 7B00     		.short	123
 1296 0094 8000     		.short	128
 1297 0096 8500     		.short	133
 1298 0098 8A00     		.short	138
 1299 009a 8F00     		.short	143
 1300 009c 9500     		.short	149
 1301 009e 9A00     		.short	154
 1302 00a0 9F00     		.short	159
 1303 00a2 A500     		.short	165
 1304 00a4 AB00     		.short	171
 1305 00a6 B100     		.short	177
 1306 00a8 B700     		.short	183
 1307 00aa BD00     		.short	189
 1308 00ac C300     		.short	195
 1309 00ae CA00     		.short	202
 1310 00b0 D000     		.short	208
 1311 00b2 D700     		.short	215
 1312 00b4 DE00     		.short	222
 1313 00b6 E500     		.short	229
 1314 00b8 EC00     		.short	236
 1315 00ba F300     		.short	243
 1316 00bc FA00     		.short	250
 1317 00be 0201     		.short	258
 1318 00c0 0A01     		.short	266
 1319 00c2 1101     		.short	273
 1320 00c4 1901     		.short	281
 1321 00c6 2201     		.short	290
 1322 00c8 2A01     		.short	298
 1323 00ca 3201     		.short	306
 1324 00cc 3B01     		.short	315
 1325 00ce 4401     		.short	324
ARM GAS  /tmp/cc3Km3GO.s 			page 42


 1326 00d0 4C01     		.short	332
 1327 00d2 5501     		.short	341
 1328 00d4 5F01     		.short	351
 1329 00d6 6801     		.short	360
 1330 00d8 7101     		.short	369
 1331 00da 7B01     		.short	379
 1332 00dc 8501     		.short	389
 1333 00de 8F01     		.short	399
 1334 00e0 9901     		.short	409
 1335 00e2 A301     		.short	419
 1336 00e4 AE01     		.short	430
 1337 00e6 B801     		.short	440
 1338 00e8 C301     		.short	451
 1339 00ea CE01     		.short	462
 1340 00ec D901     		.short	473
 1341 00ee E501     		.short	485
 1342 00f0 F001     		.short	496
 1343 00f2 FC01     		.short	508
 1344 00f4 0802     		.short	520
 1345 00f6 1402     		.short	532
 1346 00f8 2002     		.short	544
 1347 00fa 2C02     		.short	556
 1348 00fc 3902     		.short	569
 1349 00fe 4602     		.short	582
 1350 0100 5202     		.short	594
 1351 0102 6002     		.short	608
 1352 0104 6D02     		.short	621
 1353 0106 7A02     		.short	634
 1354 0108 8802     		.short	648
 1355 010a 9602     		.short	662
 1356 010c A402     		.short	676
 1357 010e B202     		.short	690
 1358 0110 C002     		.short	704
 1359 0112 CF02     		.short	719
 1360 0114 DE02     		.short	734
 1361 0116 ED02     		.short	749
 1362 0118 FC02     		.short	764
 1363 011a 0B03     		.short	779
 1364 011c 1B03     		.short	795
 1365 011e 2B03     		.short	811
 1366 0120 3B03     		.short	827
 1367 0122 4B03     		.short	843
 1368 0124 5B03     		.short	859
 1369 0126 6C03     		.short	876
 1370 0128 7D03     		.short	893
 1371 012a 8E03     		.short	910
 1372 012c 9F03     		.short	927
 1373 012e B003     		.short	944
 1374 0130 C203     		.short	962
 1375 0132 D403     		.short	980
 1376 0134 E603     		.short	998
 1377 0136 F803     		.short	1016
 1378 0138 0A04     		.short	1034
 1379 013a 1D04     		.short	1053
 1380 013c 3004     		.short	1072
 1381 013e 4304     		.short	1091
 1382 0140 5604     		.short	1110
ARM GAS  /tmp/cc3Km3GO.s 			page 43


 1383 0142 6A04     		.short	1130
 1384 0144 7E04     		.short	1150
 1385 0146 9204     		.short	1170
 1386 0148 A604     		.short	1190
 1387 014a BA04     		.short	1210
 1388 014c CF04     		.short	1231
 1389 014e E404     		.short	1252
 1390 0150 F904     		.short	1273
 1391 0152 0E05     		.short	1294
 1392 0154 2405     		.short	1316
 1393 0156 3A05     		.short	1338
 1394 0158 5005     		.short	1360
 1395 015a 6605     		.short	1382
 1396 015c 7C05     		.short	1404
 1397 015e 9305     		.short	1427
 1398 0160 AA05     		.short	1450
 1399 0162 C105     		.short	1473
 1400 0164 D905     		.short	1497
 1401 0166 F005     		.short	1520
 1402 0168 0806     		.short	1544
 1403 016a 2006     		.short	1568
 1404 016c 3906     		.short	1593
 1405 016e 5106     		.short	1617
 1406 0170 6A06     		.short	1642
 1407 0172 8306     		.short	1667
 1408 0174 9D06     		.short	1693
 1409 0176 B606     		.short	1718
 1410 0178 D006     		.short	1744
 1411 017a EA06     		.short	1770
 1412 017c 0507     		.short	1797
 1413 017e 1F07     		.short	1823
 1414 0180 3A07     		.short	1850
 1415 0182 5507     		.short	1877
 1416 0184 7107     		.short	1905
 1417 0186 8C07     		.short	1932
 1418 0188 A807     		.short	1960
 1419 018a C407     		.short	1988
 1420 018c E107     		.short	2017
 1421 018e FD07     		.short	2045
 1422 0190 1A08     		.short	2074
 1423 0192 3708     		.short	2103
 1424 0194 5508     		.short	2133
 1425 0196 7208     		.short	2162
 1426 0198 9008     		.short	2192
 1427 019a AF08     		.short	2223
 1428 019c CD08     		.short	2253
 1429 019e EC08     		.short	2284
 1430 01a0 0B09     		.short	2315
 1431 01a2 2A09     		.short	2346
 1432 01a4 4A09     		.short	2378
 1433 01a6 6A09     		.short	2410
 1434 01a8 8A09     		.short	2442
 1435 01aa AA09     		.short	2474
 1436 01ac CB09     		.short	2507
 1437 01ae EC09     		.short	2540
 1438 01b0 0D0A     		.short	2573
 1439 01b2 2E0A     		.short	2606
ARM GAS  /tmp/cc3Km3GO.s 			page 44


 1440 01b4 500A     		.short	2640
 1441 01b6 720A     		.short	2674
 1442 01b8 940A     		.short	2708
 1443 01ba B70A     		.short	2743
 1444 01bc DA0A     		.short	2778
 1445 01be FD0A     		.short	2813
 1446 01c0 210B     		.short	2849
 1447 01c2 440B     		.short	2884
 1448 01c4 680B     		.short	2920
 1449 01c6 8D0B     		.short	2957
 1450 01c8 B10B     		.short	2993
 1451 01ca D60B     		.short	3030
 1452 01cc FB0B     		.short	3067
 1453 01ce 210C     		.short	3105
 1454 01d0 470C     		.short	3143
 1455 01d2 6D0C     		.short	3181
 1456 01d4 930C     		.short	3219
 1457 01d6 BA0C     		.short	3258
 1458 01d8 E10C     		.short	3297
 1459 01da 080D     		.short	3336
 1460 01dc 300D     		.short	3376
 1461 01de 580D     		.short	3416
 1462 01e0 800D     		.short	3456
 1463 01e2 A80D     		.short	3496
 1464 01e4 D10D     		.short	3537
 1465 01e6 FA0D     		.short	3578
 1466 01e8 230E     		.short	3619
 1467 01ea 4D0E     		.short	3661
 1468 01ec 770E     		.short	3703
 1469 01ee A10E     		.short	3745
 1470 01f0 CC0E     		.short	3788
 1471 01f2 F70E     		.short	3831
 1472 01f4 220F     		.short	3874
 1473 01f6 4E0F     		.short	3918
 1474 01f8 7A0F     		.short	3962
 1475 01fa A60F     		.short	4006
 1476 01fc D20F     		.short	4050
 1477 01fe FF0F     		.short	4095
 1478              		.section	.bss._ZL5petal,"aw",%nobits
 1479              		.align	2
 1480              		.set	.LANCHOR0,. + 0
 1483              	_ZL5petal:
 1484 0000 00000000 		.space	1748
 1484      00000000 
 1484      00000000 
 1484      00000000 
 1484      00000000 
 1485              		.section	.bss.drywet,"aw",%nobits
 1486              		.align	2
 1487              		.set	.LANCHOR8,. + 0
 1490              	drywet:
 1491 0000 00000000 		.space	4
 1492              		.section	.bss.len,"aw",%nobits
 1493              		.align	2
 1494              		.set	.LANCHOR5,. + 0
 1497              	len:
 1498 0000 00000000 		.space	4
ARM GAS  /tmp/cc3Km3GO.s 			page 45


 1499              		.section	.bss.play,"aw",%nobits
 1500              		.set	.LANCHOR1,. + 0
 1503              	play:
 1504 0000 00       		.space	1
 1505              		.section	.bss.pos,"aw",%nobits
 1506              		.align	2
 1507              		.set	.LANCHOR4,. + 0
 1510              	pos:
 1511 0000 00000000 		.space	4
 1512              		.section	.bss.rec,"aw",%nobits
 1513              		.set	.LANCHOR2,. + 0
 1516              	rec:
 1517 0000 00       		.space	1
 1518              		.section	.bss.res,"aw",%nobits
 1519              		.set	.LANCHOR7,. + 0
 1522              	res:
 1523 0000 00       		.space	1
 1524              		.section	.data.first,"aw"
 1525              		.set	.LANCHOR3,. + 0
 1528              	first:
 1529 0000 01       		.byte	1
 1530              		.section	.data.mod,"aw"
 1531              		.align	2
 1532              		.set	.LANCHOR6,. + 0
 1535              	mod:
 1536 0000 00BADB00 		.word	14400000
 1537              		.section	.sdram_bss,"aw"
 1538              		.align	2
 1541              	buf:
 1542 0000 00000000 		.space	57600000
 1542      00000000 
 1542      00000000 
 1542      00000000 
 1542      00000000 
 1543              		.text
 1544              	.Letext0:
 1545              		.file 14 "/usr/lib/gcc/arm-none-eabi/9.2.1/include/stdint.h"
 1546              		.file 15 "../../libdaisy/Drivers/CMSIS/Include/core_cm7.h"
 1547              		.file 16 "../../libdaisy/Drivers/CMSIS/Device/ST/STM32H7xx/Include/system_stm32h7xx.h"
 1548              		.file 17 "/usr/lib/gcc/arm-none-eabi/9.2.1/include/stddef.h"
 1549              		.file 18 "/usr/include/newlib/c++/9.2.1/cmath"
 1550              		.file 19 "/usr/include/newlib/c++/9.2.1/bits/std_abs.h"
 1551              		.file 20 "/usr/include/newlib/c++/9.2.1/cstdint"
 1552              		.file 21 "/usr/include/newlib/c++/9.2.1/cstdlib"
 1553              		.file 22 "/usr/include/newlib/c++/9.2.1/type_traits"
 1554              		.file 23 "/usr/include/newlib/c++/9.2.1/arm-none-eabi/thumb/v7e-m+dp/hard/bits/c++config.h"
 1555              		.file 24 "/usr/include/newlib/c++/9.2.1/bits/stl_pair.h"
 1556              		.file 25 "/usr/include/newlib/c++/9.2.1/debug/debug.h"
 1557              		.file 26 "/usr/include/newlib/c++/9.2.1/cwchar"
 1558              		.file 27 "/usr/include/newlib/c++/9.2.1/bits/exception_ptr.h"
 1559              		.file 28 "/usr/include/newlib/c++/9.2.1/new"
 1560              		.file 29 "/usr/include/newlib/c++/9.2.1/clocale"
 1561              		.file 30 "/usr/include/newlib/c++/9.2.1/cstdio"
 1562              		.file 31 "/usr/include/newlib/c++/9.2.1/bits/basic_string.h"
 1563              		.file 32 "/usr/include/newlib/c++/9.2.1/bits/uniform_int_dist.h"
 1564              		.file 33 "/usr/include/newlib/c++/9.2.1/bits/random.h"
 1565              		.file 34 "/usr/include/newlib/c++/9.2.1/cstring"
ARM GAS  /tmp/cc3Km3GO.s 			page 46


 1566              		.file 35 "/usr/include/newlib/c++/9.2.1/bits/algorithmfwd.h"
 1567              		.file 36 "/usr/include/newlib/c++/9.2.1/cstdarg"
 1568              		.file 37 "/usr/include/newlib/c++/9.2.1/bits/predefined_ops.h"
 1569              		.file 38 "/usr/include/newlib/c++/9.2.1/ext/new_allocator.h"
 1570              		.file 39 "/usr/include/newlib/c++/9.2.1/ext/numeric_traits.h"
 1571              		.file 40 "/usr/include/newlib/sys/_types.h"
 1572              		.file 41 "<built-in>"
 1573              		.file 42 "/usr/include/newlib/sys/reent.h"
 1574              		.file 43 "/usr/include/newlib/sys/lock.h"
 1575              		.file 44 "/usr/include/newlib/math.h"
 1576              		.file 45 "/usr/include/newlib/stdlib.h"
 1577              		.file 46 "/usr/include/newlib/c++/9.2.1/math.h"
 1578              		.file 47 "../../libdaisy/Drivers/STM32H7xx_HAL_Driver/Inc/stm32h7xx_hal_def.h"
 1579              		.file 48 "../../libdaisy/Drivers/STM32H7xx_HAL_Driver/Inc/stm32h7xx_hal_flash.h"
 1580              		.file 49 "../../DaisySP/Source/Control/adenv.h"
 1581              		.file 50 "../../DaisySP/Source/Utility/dsp.h"
 1582              		.file 51 "/usr/lib/gcc/arm-none-eabi/9.2.1/include/stdarg.h"
 1583              		.file 52 "/usr/include/newlib/wchar.h"
 1584              		.file 53 "/usr/include/newlib/locale.h"
 1585              		.file 54 "/usr/include/newlib/ctype.h"
 1586              		.file 55 "/usr/include/newlib/stdio.h"
 1587              		.file 56 "/usr/include/newlib/sys/errno.h"
 1588              		.file 57 "/usr/include/newlib/c++/9.2.1/stdlib.h"
 1589              		.file 58 "/usr/include/newlib/string.h"
 1590              		.file 59 "../../libdaisy/src/daisy_core.h"
 1591              		.file 60 "../../libdaisy/src/per/tim.h"
 1592              		.file 61 "../../libdaisy/src/per/sai.h"
 1593              		.file 62 "../../libdaisy/src/util/wav_format.h"
 1594              		.file 63 "../../libdaisy/src/hid/led.h"
 1595              		.file 64 "../../libdaisy/src/util/color.h"
 1596              		.file 65 "../../libdaisy/src/hid/rgb_led.h"
 1597              		.file 66 "../../libdaisy/src/per/qspi.h"
 1598              		.file 67 "../../libdaisy/src/per/gpio.h"
 1599              		.file 68 "../../libdaisy/src/dev/sdram.h"
 1600              		.file 69 "/usr/include/newlib/sys/unistd.h"
 1601              		.file 70 "../../libdaisy/src/util/oled_fonts.h"
 1602              		.file 71 "../../libdaisy/Middlewares/Third_Party/FatFs/src/integer.h"
 1603              		.file 72 "../../libdaisy/Middlewares/Third_Party/FatFs/src/ff.h"
 1604              		.file 73 "../../libdaisy/Middlewares/Third_Party/FatFs/src/diskio.h"
 1605              		.file 74 "../../libdaisy/Middlewares/Third_Party/FatFs/src/ff_gen_drv.h"
 1606              		.file 75 "../../libdaisy/src/util/sd_diskio.h"
 1607              		.file 76 "../../libdaisy/src/sys/fatfs.h"
 1608              		.file 77 "../../libdaisy/src/dev/sr_595.h"
ARM GAS  /tmp/cc3Km3GO.s 			page 47

