ARM GAS  /tmp/ccPAoVZi.s 			page 1


   1              		.cpu cortex-m7
   2              		.eabi_attribute 28, 1
   3              		.eabi_attribute 20, 1
   4              		.eabi_attribute 21, 1
   5              		.eabi_attribute 23, 3
   6              		.eabi_attribute 24, 1
   7              		.eabi_attribute 25, 1
   8              		.eabi_attribute 26, 1
   9              		.eabi_attribute 30, 2
  10              		.eabi_attribute 34, 1
  11              		.eabi_attribute 18, 4
  12              		.file	"Svf.cpp"
  13              		.text
  14              	.Ltext0:
  15              		.cfi_sections	.debug_frame
  16              		.section	.text._ZN7daisysp3SvfD2Ev,"axG",%progbits,_ZN7daisysp3SvfD5Ev,comdat
  17              		.align	1
  18              		.p2align 2,,3
  19              		.weak	_ZN7daisysp3SvfD2Ev
  20              		.arch armv7e-m
  21              		.syntax unified
  22              		.thumb
  23              		.thumb_func
  24              		.fpu fpv5-d16
  26              	_ZN7daisysp3SvfD2Ev:
  27              	.LVL0:
  28              	.LFB2813:
  29              		.file 1 "../../DaisySP/Source/Filters/svf.h"
   1:../../DaisySP/Source/Filters/svf.h **** #pragma once
   2:../../DaisySP/Source/Filters/svf.h **** #ifndef DSY_SVF_H
   3:../../DaisySP/Source/Filters/svf.h **** #define DSY_SVF_H
   4:../../DaisySP/Source/Filters/svf.h **** 
   5:../../DaisySP/Source/Filters/svf.h **** namespace daisysp
   6:../../DaisySP/Source/Filters/svf.h **** {
   7:../../DaisySP/Source/Filters/svf.h **** /**      Double Sampled, Stable State Variable Filter
   8:../../DaisySP/Source/Filters/svf.h **** 
   9:../../DaisySP/Source/Filters/svf.h **** Credit to Andrew Simper from musicdsp.org
  10:../../DaisySP/Source/Filters/svf.h **** 
  11:../../DaisySP/Source/Filters/svf.h **** This is his "State Variable Filter (Double Sampled, Stable)"
  12:../../DaisySP/Source/Filters/svf.h **** 
  13:../../DaisySP/Source/Filters/svf.h **** Additional thanks to Laurent de Soras for stability limit, and 
  14:../../DaisySP/Source/Filters/svf.h **** Stefan Diedrichsen for the correct notch output
  15:../../DaisySP/Source/Filters/svf.h **** 
  16:../../DaisySP/Source/Filters/svf.h **** Ported by: Stephen Hensley
  17:../../DaisySP/Source/Filters/svf.h **** */
  18:../../DaisySP/Source/Filters/svf.h **** class Svf
  19:../../DaisySP/Source/Filters/svf.h **** {
  20:../../DaisySP/Source/Filters/svf.h ****   public:
  21:../../DaisySP/Source/Filters/svf.h ****     Svf() {}
  22:../../DaisySP/Source/Filters/svf.h ****     ~Svf() {}
  30              		.loc 1 22 5 view -0
  31              		.cfi_startproc
  32              		@ args = 0, pretend = 0, frame = 0
  33              		@ frame_needed = 0, uses_anonymous_args = 0
  34              		@ link register save eliminated.
  35              		.loc 1 22 13 is_stmt 0 view .LVU1
  36 0000 7047     		bx	lr
ARM GAS  /tmp/ccPAoVZi.s 			page 2


  37              		.cfi_endproc
  38              	.LFE2813:
  40              		.weak	_ZN7daisysp3SvfD1Ev
  41              		.thumb_set _ZN7daisysp3SvfD1Ev,_ZN7daisysp3SvfD2Ev
  42 0002 00BF     		.section	.text._ZN5daisy9ParameterD2Ev,"axG",%progbits,_ZN5daisy9ParameterD5Ev,comdat
  43              		.align	1
  44              		.p2align 2,,3
  45              		.weak	_ZN5daisy9ParameterD2Ev
  46              		.syntax unified
  47              		.thumb
  48              		.thumb_func
  49              		.fpu fpv5-d16
  51              	_ZN5daisy9ParameterD2Ev:
  52              	.LVL1:
  53              	.LFB3778:
  54              		.file 2 "../../libdaisy/src/hid/parameter.h"
   1:../../libdaisy/src/hid/parameter.h **** #pragma once
   2:../../libdaisy/src/hid/parameter.h **** #include <stdint.h>
   3:../../libdaisy/src/hid/parameter.h **** #include "hid/ctrl.h"
   4:../../libdaisy/src/hid/parameter.h **** 
   5:../../libdaisy/src/hid/parameter.h **** namespace daisy
   6:../../libdaisy/src/hid/parameter.h **** {
   7:../../libdaisy/src/hid/parameter.h **** /** @addtogroup controls
   8:../../libdaisy/src/hid/parameter.h ****     @{
   9:../../libdaisy/src/hid/parameter.h **** */
  10:../../libdaisy/src/hid/parameter.h **** 
  11:../../libdaisy/src/hid/parameter.h **** /**      Simple parameter mapping tool that takes a 0-1 input from an hid_ctrl. */
  12:../../libdaisy/src/hid/parameter.h **** class Parameter
  13:../../libdaisy/src/hid/parameter.h **** {
  14:../../libdaisy/src/hid/parameter.h ****   public:
  15:../../libdaisy/src/hid/parameter.h ****     /** Curves are applied to the output signal */
  16:../../libdaisy/src/hid/parameter.h ****     enum Curve
  17:../../libdaisy/src/hid/parameter.h ****     {
  18:../../libdaisy/src/hid/parameter.h ****         LINEAR,      /**< Linear curve */
  19:../../libdaisy/src/hid/parameter.h ****         EXPONENTIAL, /**< Exponential curve */
  20:../../libdaisy/src/hid/parameter.h ****         LOGARITHMIC, /**<  Logarithmic curve */
  21:../../libdaisy/src/hid/parameter.h ****         CUBE,        /**< Cubic curve */
  22:../../libdaisy/src/hid/parameter.h ****         LAST,        /**< Final enum element. */
  23:../../libdaisy/src/hid/parameter.h ****     };
  24:../../libdaisy/src/hid/parameter.h ****     /** Constructor */
  25:../../libdaisy/src/hid/parameter.h ****     Parameter() {}
  26:../../libdaisy/src/hid/parameter.h ****     /** Destructor */
  27:../../libdaisy/src/hid/parameter.h ****     ~Parameter() {}
  55              		.loc 2 27 5 is_stmt 1 view -0
  56              		.cfi_startproc
  57              		@ args = 0, pretend = 0, frame = 0
  58              		@ frame_needed = 0, uses_anonymous_args = 0
  59              		@ link register save eliminated.
  60              	.LBB625:
  61              	.LBI625:
  62              		.file 3 "../../libdaisy/src/hid/ctrl.h"
   1:../../libdaisy/src/hid/ctrl.h **** #pragma once
   2:../../libdaisy/src/hid/ctrl.h **** #ifndef DSY_KNOB_H
   3:../../libdaisy/src/hid/ctrl.h **** #define DSY_KNOB_H /**< & */
   4:../../libdaisy/src/hid/ctrl.h **** #include <stdint.h>
   5:../../libdaisy/src/hid/ctrl.h **** 
   6:../../libdaisy/src/hid/ctrl.h **** #ifdef __cplusplus
ARM GAS  /tmp/ccPAoVZi.s 			page 3


   7:../../libdaisy/src/hid/ctrl.h **** namespace daisy
   8:../../libdaisy/src/hid/ctrl.h **** {
   9:../../libdaisy/src/hid/ctrl.h **** /**
  10:../../libdaisy/src/hid/ctrl.h ****     @brief Hardware Interface for control inputs \n 
  11:../../libdaisy/src/hid/ctrl.h ****     Primarily designed for ADC input controls such as \n 
  12:../../libdaisy/src/hid/ctrl.h ****     potentiometers, and control voltage. \n 
  13:../../libdaisy/src/hid/ctrl.h ****     @author Stephen Hensley
  14:../../libdaisy/src/hid/ctrl.h ****     @date November 2019
  15:../../libdaisy/src/hid/ctrl.h ****     @ingroup controls
  16:../../libdaisy/src/hid/ctrl.h **** */
  17:../../libdaisy/src/hid/ctrl.h **** class AnalogControl
  18:../../libdaisy/src/hid/ctrl.h **** {
  19:../../libdaisy/src/hid/ctrl.h ****   public:
  20:../../libdaisy/src/hid/ctrl.h ****     /** Constructor */
  21:../../libdaisy/src/hid/ctrl.h ****     AnalogControl() {}
  22:../../libdaisy/src/hid/ctrl.h ****     /** destructor */
  23:../../libdaisy/src/hid/ctrl.h ****     ~AnalogControl() {}
  63              		.loc 3 23 5 view .LVU3
  64              		.loc 3 23 5 is_stmt 0 view .LVU4
  65              	.LBE625:
  66              		.loc 2 27 19 view .LVU5
  67 0000 7047     		bx	lr
  68              		.cfi_endproc
  69              	.LFE3778:
  71              		.weak	_ZN5daisy9ParameterD1Ev
  72              		.thumb_set _ZN5daisy9ParameterD1Ev,_ZN5daisy9ParameterD2Ev
  73 0002 00BF     		.section	.text._ZN5daisy10DaisyPatchD2Ev,"axG",%progbits,_ZN5daisy10DaisyPatchD5Ev,comdat
  74              		.align	1
  75              		.p2align 2,,3
  76              		.weak	_ZN5daisy10DaisyPatchD2Ev
  77              		.syntax unified
  78              		.thumb
  79              		.thumb_func
  80              		.fpu fpv5-d16
  82              	_ZN5daisy10DaisyPatchD2Ev:
  83              	.LVL2:
  84              	.LFB4230:
  85              		.file 4 "../../libdaisy/src/daisy_patch.h"
   1:../../libdaisy/src/daisy_patch.h **** #pragma once
   2:../../libdaisy/src/daisy_patch.h **** #ifndef DSY_PATCH_BSP_H
   3:../../libdaisy/src/daisy_patch.h **** #define DSY_PATCH_BSP_H
   4:../../libdaisy/src/daisy_patch.h **** #include "daisy_seed.h"
   5:../../libdaisy/src/daisy_patch.h **** #include "dev/oled_ssd130x.h"
   6:../../libdaisy/src/daisy_patch.h **** 
   7:../../libdaisy/src/daisy_patch.h **** namespace daisy
   8:../../libdaisy/src/daisy_patch.h **** {
   9:../../libdaisy/src/daisy_patch.h **** /**
  10:../../libdaisy/src/daisy_patch.h ****     @brief Class that handles initializing all of the hardware specific to the Daisy Patch Board. \
  11:../../libdaisy/src/daisy_patch.h ****     Helper funtions are also in place to provide easy access to built-in controls and peripherals.
  12:../../libdaisy/src/daisy_patch.h ****     @author Stephen Hensley
  13:../../libdaisy/src/daisy_patch.h ****     @date November 2019
  14:../../libdaisy/src/daisy_patch.h ****     @ingroup boards
  15:../../libdaisy/src/daisy_patch.h **** */
  16:../../libdaisy/src/daisy_patch.h **** class DaisyPatch
  17:../../libdaisy/src/daisy_patch.h **** {
  18:../../libdaisy/src/daisy_patch.h ****   public:
  19:../../libdaisy/src/daisy_patch.h ****     /** Enum of Ctrls to represent the four CV/Knob combos on the Patch
ARM GAS  /tmp/ccPAoVZi.s 			page 4


  20:../../libdaisy/src/daisy_patch.h ****      */
  21:../../libdaisy/src/daisy_patch.h ****     enum Ctrl
  22:../../libdaisy/src/daisy_patch.h ****     {
  23:../../libdaisy/src/daisy_patch.h ****         CTRL_1,    /**< */
  24:../../libdaisy/src/daisy_patch.h ****         CTRL_2,    /**< */
  25:../../libdaisy/src/daisy_patch.h ****         CTRL_3,    /**< */
  26:../../libdaisy/src/daisy_patch.h ****         CTRL_4,    /**< */
  27:../../libdaisy/src/daisy_patch.h ****         CTRL_LAST, /**< */
  28:../../libdaisy/src/daisy_patch.h ****     };
  29:../../libdaisy/src/daisy_patch.h **** 
  30:../../libdaisy/src/daisy_patch.h ****     /** Daisy patch gate inputs */
  31:../../libdaisy/src/daisy_patch.h ****     enum GateInput
  32:../../libdaisy/src/daisy_patch.h ****     {
  33:../../libdaisy/src/daisy_patch.h ****         GATE_IN_1,    /**< */
  34:../../libdaisy/src/daisy_patch.h ****         GATE_IN_2,    /** <*/
  35:../../libdaisy/src/daisy_patch.h ****         GATE_IN_LAST, /**< */
  36:../../libdaisy/src/daisy_patch.h ****     };
  37:../../libdaisy/src/daisy_patch.h **** 
  38:../../libdaisy/src/daisy_patch.h ****     /** Constructor */
  39:../../libdaisy/src/daisy_patch.h ****     DaisyPatch() {}
  40:../../libdaisy/src/daisy_patch.h ****     /** Destructor */
  41:../../libdaisy/src/daisy_patch.h ****     ~DaisyPatch() {}
  86              		.loc 4 41 5 is_stmt 1 view -0
  87              		.cfi_startproc
  88              		@ args = 0, pretend = 0, frame = 0
  89              		@ frame_needed = 0, uses_anonymous_args = 0
  90              		@ link register save eliminated.
  91              	.LBB626:
  92              	.LBI626:
  93              		.file 5 "../../libdaisy/src/hid/disp/oled_display.h"
   1:../../libdaisy/src/hid/disp/oled_display.h **** #pragma once
   2:../../libdaisy/src/hid/disp/oled_display.h **** #ifndef DSY_OLED_DISPLAY_H
   3:../../libdaisy/src/hid/disp/oled_display.h **** #define DSY_OLED_DISPLAY_H /**< Macro */
   4:../../libdaisy/src/hid/disp/oled_display.h **** 
   5:../../libdaisy/src/hid/disp/oled_display.h **** #include "display.h"
   6:../../libdaisy/src/hid/disp/oled_display.h **** 
   7:../../libdaisy/src/hid/disp/oled_display.h **** namespace daisy
   8:../../libdaisy/src/hid/disp/oled_display.h **** {
   9:../../libdaisy/src/hid/disp/oled_display.h **** /** 
  10:../../libdaisy/src/hid/disp/oled_display.h ****  * This class is for drawing to a monochrome OLED display. 
  11:../../libdaisy/src/hid/disp/oled_display.h **** */
  12:../../libdaisy/src/hid/disp/oled_display.h **** template <typename DisplayDriver>
  13:../../libdaisy/src/hid/disp/oled_display.h **** class OledDisplay : public OneBitGraphicsDisplayImpl<OledDisplay<DisplayDriver>>
  14:../../libdaisy/src/hid/disp/oled_display.h **** {
  15:../../libdaisy/src/hid/disp/oled_display.h ****   public:
  16:../../libdaisy/src/hid/disp/oled_display.h ****     OledDisplay() {}
  17:../../libdaisy/src/hid/disp/oled_display.h ****     virtual ~OledDisplay() {}
  94              		.loc 5 17 13 view .LVU7
  95              	.LBB627:
  96              	.LBI627:
  97              		.file 6 "../../libdaisy/src/hid/disp/display.h"
   1:../../libdaisy/src/hid/disp/display.h **** #pragma once
   2:../../libdaisy/src/hid/disp/display.h **** #ifndef DSY_DISPLAY_H
   3:../../libdaisy/src/hid/disp/display.h **** #define DSY_DISPLAY_H /**< Macro */
   4:../../libdaisy/src/hid/disp/display.h **** #include <cmath>
   5:../../libdaisy/src/hid/disp/display.h **** #include "util/oled_fonts.h"
   6:../../libdaisy/src/hid/disp/display.h **** #include "daisy_core.h"
ARM GAS  /tmp/ccPAoVZi.s 			page 5


   7:../../libdaisy/src/hid/disp/display.h **** #include "graphics_common.h"
   8:../../libdaisy/src/hid/disp/display.h **** 
   9:../../libdaisy/src/hid/disp/display.h **** #ifndef deg2rad
  10:../../libdaisy/src/hid/disp/display.h **** #define deg2rad(deg) ((deg)*3.141592 / 180.0)
  11:../../libdaisy/src/hid/disp/display.h **** #endif
  12:../../libdaisy/src/hid/disp/display.h **** 
  13:../../libdaisy/src/hid/disp/display.h **** namespace daisy
  14:../../libdaisy/src/hid/disp/display.h **** {
  15:../../libdaisy/src/hid/disp/display.h **** /** 
  16:../../libdaisy/src/hid/disp/display.h ****  * This interface is used as a base class for all types of 1bit-per-pixel
  17:../../libdaisy/src/hid/disp/display.h ****  * graphics displays.
  18:../../libdaisy/src/hid/disp/display.h **** */
  19:../../libdaisy/src/hid/disp/display.h **** class OneBitGraphicsDisplay
  20:../../libdaisy/src/hid/disp/display.h **** {
  21:../../libdaisy/src/hid/disp/display.h ****   public:
  22:../../libdaisy/src/hid/disp/display.h ****     OneBitGraphicsDisplay() {}
  23:../../libdaisy/src/hid/disp/display.h ****     virtual ~OneBitGraphicsDisplay() {}
  24:../../libdaisy/src/hid/disp/display.h **** 
  25:../../libdaisy/src/hid/disp/display.h ****     virtual uint16_t Height() const = 0;
  26:../../libdaisy/src/hid/disp/display.h ****     virtual uint16_t Width() const  = 0;
  27:../../libdaisy/src/hid/disp/display.h **** 
  28:../../libdaisy/src/hid/disp/display.h ****     Rectangle GetBounds() const
  29:../../libdaisy/src/hid/disp/display.h ****     {
  30:../../libdaisy/src/hid/disp/display.h ****         return Rectangle(int16_t(Width()), int16_t(Height()));
  31:../../libdaisy/src/hid/disp/display.h ****     }
  32:../../libdaisy/src/hid/disp/display.h **** 
  33:../../libdaisy/src/hid/disp/display.h **** 
  34:../../libdaisy/src/hid/disp/display.h ****     size_t CurrentX() { return currentX_; };
  35:../../libdaisy/src/hid/disp/display.h ****     size_t CurrentY() { return currentY_; };
  36:../../libdaisy/src/hid/disp/display.h **** 
  37:../../libdaisy/src/hid/disp/display.h ****     /** 
  38:../../libdaisy/src/hid/disp/display.h ****     Fills the entire display with either on/off.
  39:../../libdaisy/src/hid/disp/display.h ****     \param on Sets on or off.
  40:../../libdaisy/src/hid/disp/display.h ****     */
  41:../../libdaisy/src/hid/disp/display.h ****     virtual void Fill(bool on) = 0;
  42:../../libdaisy/src/hid/disp/display.h **** 
  43:../../libdaisy/src/hid/disp/display.h ****     /**
  44:../../libdaisy/src/hid/disp/display.h ****     Sets the pixel at the specified coordinate to be on/off.
  45:../../libdaisy/src/hid/disp/display.h ****     \param x   x Coordinate
  46:../../libdaisy/src/hid/disp/display.h ****     \param y   y coordinate
  47:../../libdaisy/src/hid/disp/display.h ****     \param on  on or off
  48:../../libdaisy/src/hid/disp/display.h ****     */
  49:../../libdaisy/src/hid/disp/display.h ****     virtual void DrawPixel(uint_fast8_t x, uint_fast8_t y, bool on) = 0;
  50:../../libdaisy/src/hid/disp/display.h **** 
  51:../../libdaisy/src/hid/disp/display.h ****     /**
  52:../../libdaisy/src/hid/disp/display.h ****     Draws a line from (x1, y1) to (y1, y2)
  53:../../libdaisy/src/hid/disp/display.h ****     \param x1  x Coordinate of the starting point
  54:../../libdaisy/src/hid/disp/display.h ****     \param y1  y Coordinate of the starting point
  55:../../libdaisy/src/hid/disp/display.h ****     \param x2  x Coordinate of the ending point
  56:../../libdaisy/src/hid/disp/display.h ****     \param y2  y Coordinate of the ending point
  57:../../libdaisy/src/hid/disp/display.h ****     \param on  on or off
  58:../../libdaisy/src/hid/disp/display.h ****     */
  59:../../libdaisy/src/hid/disp/display.h ****     virtual void DrawLine(uint_fast8_t x1,
  60:../../libdaisy/src/hid/disp/display.h ****                           uint_fast8_t y1,
  61:../../libdaisy/src/hid/disp/display.h ****                           uint_fast8_t x2,
  62:../../libdaisy/src/hid/disp/display.h ****                           uint_fast8_t y2,
  63:../../libdaisy/src/hid/disp/display.h ****                           bool         on)
ARM GAS  /tmp/ccPAoVZi.s 			page 6


  64:../../libdaisy/src/hid/disp/display.h ****         = 0;
  65:../../libdaisy/src/hid/disp/display.h **** 
  66:../../libdaisy/src/hid/disp/display.h ****     /**
  67:../../libdaisy/src/hid/disp/display.h ****     Draws a rectangle based on two coordinates.
  68:../../libdaisy/src/hid/disp/display.h ****     \param x1 x Coordinate of the first point
  69:../../libdaisy/src/hid/disp/display.h ****     \param y1 y Coordinate of the first point
  70:../../libdaisy/src/hid/disp/display.h ****     \param x2 x Coordinate of the second point
  71:../../libdaisy/src/hid/disp/display.h ****     \param y2 y Coordinate of the second point
  72:../../libdaisy/src/hid/disp/display.h ****     \param on on or off
  73:../../libdaisy/src/hid/disp/display.h ****     \param fill fill the rectangle or draw only the outline
  74:../../libdaisy/src/hid/disp/display.h ****     */
  75:../../libdaisy/src/hid/disp/display.h ****     virtual void DrawRect(uint_fast8_t x1,
  76:../../libdaisy/src/hid/disp/display.h ****                           uint_fast8_t y1,
  77:../../libdaisy/src/hid/disp/display.h ****                           uint_fast8_t x2,
  78:../../libdaisy/src/hid/disp/display.h ****                           uint_fast8_t y2,
  79:../../libdaisy/src/hid/disp/display.h ****                           bool         on,
  80:../../libdaisy/src/hid/disp/display.h ****                           bool         fill = false)
  81:../../libdaisy/src/hid/disp/display.h ****         = 0;
  82:../../libdaisy/src/hid/disp/display.h **** 
  83:../../libdaisy/src/hid/disp/display.h ****     /**
  84:../../libdaisy/src/hid/disp/display.h ****     Draws a rectangle.
  85:../../libdaisy/src/hid/disp/display.h ****     \param rect the rectangle
  86:../../libdaisy/src/hid/disp/display.h ****     \param on   on or off
  87:../../libdaisy/src/hid/disp/display.h ****     \param fill fill the rectangle or draw only the outline
  88:../../libdaisy/src/hid/disp/display.h ****     */
  89:../../libdaisy/src/hid/disp/display.h ****     void DrawRect(const Rectangle& rect, bool on, bool fill = false)
  90:../../libdaisy/src/hid/disp/display.h ****     {
  91:../../libdaisy/src/hid/disp/display.h ****         DrawRect(rect.GetX(),
  92:../../libdaisy/src/hid/disp/display.h ****                  rect.GetY(),
  93:../../libdaisy/src/hid/disp/display.h ****                  rect.GetRight(),
  94:../../libdaisy/src/hid/disp/display.h ****                  rect.GetBottom(),
  95:../../libdaisy/src/hid/disp/display.h ****                  on,
  96:../../libdaisy/src/hid/disp/display.h ****                  fill);
  97:../../libdaisy/src/hid/disp/display.h ****     }
  98:../../libdaisy/src/hid/disp/display.h **** 
  99:../../libdaisy/src/hid/disp/display.h ****     /**
 100:../../libdaisy/src/hid/disp/display.h ****     Draws an arc around the specified coordinate
 101:../../libdaisy/src/hid/disp/display.h ****     \param x           x Coordinate of the center of the arc
 102:../../libdaisy/src/hid/disp/display.h ****     \param y           y Coordinate of the center of the arc
 103:../../libdaisy/src/hid/disp/display.h ****     \param radius      radius of the arc
 104:../../libdaisy/src/hid/disp/display.h ****     \param start_angle angle where to start the arc
 105:../../libdaisy/src/hid/disp/display.h ****     \param sweep       total angle of the arc
 106:../../libdaisy/src/hid/disp/display.h ****     \param on  on or off
 107:../../libdaisy/src/hid/disp/display.h ****     */
 108:../../libdaisy/src/hid/disp/display.h ****     virtual void DrawArc(uint_fast8_t x,
 109:../../libdaisy/src/hid/disp/display.h ****                          uint_fast8_t y,
 110:../../libdaisy/src/hid/disp/display.h ****                          uint_fast8_t radius,
 111:../../libdaisy/src/hid/disp/display.h ****                          int_fast16_t start_angle,
 112:../../libdaisy/src/hid/disp/display.h ****                          int_fast16_t sweep,
 113:../../libdaisy/src/hid/disp/display.h ****                          bool         on)
 114:../../libdaisy/src/hid/disp/display.h ****         = 0;
 115:../../libdaisy/src/hid/disp/display.h **** 
 116:../../libdaisy/src/hid/disp/display.h ****     /**
 117:../../libdaisy/src/hid/disp/display.h ****     Draws a circle around the specified coordinate
 118:../../libdaisy/src/hid/disp/display.h ****     \param x           x Coordinate of the center of the circle
 119:../../libdaisy/src/hid/disp/display.h ****     \param y           y Coordinate of the center of the circle
 120:../../libdaisy/src/hid/disp/display.h ****     \param radius      radius of the circle
ARM GAS  /tmp/ccPAoVZi.s 			page 7


 121:../../libdaisy/src/hid/disp/display.h ****     \param on  on or off
 122:../../libdaisy/src/hid/disp/display.h ****     */
 123:../../libdaisy/src/hid/disp/display.h ****     void
 124:../../libdaisy/src/hid/disp/display.h ****     DrawCircle(uint_fast8_t x, uint_fast8_t y, uint_fast8_t radius, bool on)
 125:../../libdaisy/src/hid/disp/display.h ****     {
 126:../../libdaisy/src/hid/disp/display.h ****         DrawArc(x, y, radius, 0, 360, on);
 127:../../libdaisy/src/hid/disp/display.h ****     };
 128:../../libdaisy/src/hid/disp/display.h **** 
 129:../../libdaisy/src/hid/disp/display.h ****     /** 
 130:../../libdaisy/src/hid/disp/display.h ****     Writes the character with the specific FontDef
 131:../../libdaisy/src/hid/disp/display.h ****     to the display buffer at the current Cursor position.
 132:../../libdaisy/src/hid/disp/display.h ****     \param ch character to be written
 133:../../libdaisy/src/hid/disp/display.h ****     \param font font to be written in
 134:../../libdaisy/src/hid/disp/display.h ****     \param on    on or off
 135:../../libdaisy/src/hid/disp/display.h ****     \return &
 136:../../libdaisy/src/hid/disp/display.h ****     */
 137:../../libdaisy/src/hid/disp/display.h ****     virtual char WriteChar(char ch, FontDef font, bool on) = 0;
 138:../../libdaisy/src/hid/disp/display.h **** 
 139:../../libdaisy/src/hid/disp/display.h ****     /** 
 140:../../libdaisy/src/hid/disp/display.h ****     Similar to WriteChar, except it will handle an entire String.
 141:../../libdaisy/src/hid/disp/display.h ****     Wrapping does not happen automatically, so the width
 142:../../libdaisy/src/hid/disp/display.h ****     of the string must be kept within the dimensions of the screen.
 143:../../libdaisy/src/hid/disp/display.h ****     \param str string to be written
 144:../../libdaisy/src/hid/disp/display.h ****     \param font font to use
 145:../../libdaisy/src/hid/disp/display.h ****     \param on  on or off
 146:../../libdaisy/src/hid/disp/display.h ****     \return &
 147:../../libdaisy/src/hid/disp/display.h ****     */
 148:../../libdaisy/src/hid/disp/display.h ****     virtual char WriteString(const char* str, FontDef font, bool on) = 0;
 149:../../libdaisy/src/hid/disp/display.h **** 
 150:../../libdaisy/src/hid/disp/display.h ****     /** 
 151:../../libdaisy/src/hid/disp/display.h ****     Similar to WriteString but justified within a bounding box.
 152:../../libdaisy/src/hid/disp/display.h ****     \param str          string to be written
 153:../../libdaisy/src/hid/disp/display.h ****     \param font         font to use
 154:../../libdaisy/src/hid/disp/display.h ****     \param boundingBox  the bounding box to draw the text in
 155:../../libdaisy/src/hid/disp/display.h ****     \param alignment    the alignment to use
 156:../../libdaisy/src/hid/disp/display.h ****     \param on           on or off
 157:../../libdaisy/src/hid/disp/display.h ****     \return The rectangle that was drawn to
 158:../../libdaisy/src/hid/disp/display.h ****     */
 159:../../libdaisy/src/hid/disp/display.h ****     virtual Rectangle WriteStringAligned(const char*    str,
 160:../../libdaisy/src/hid/disp/display.h ****                                          const FontDef& font,
 161:../../libdaisy/src/hid/disp/display.h ****                                          Rectangle      boundingBox,
 162:../../libdaisy/src/hid/disp/display.h ****                                          Alignment      alignment,
 163:../../libdaisy/src/hid/disp/display.h ****                                          bool           on)
 164:../../libdaisy/src/hid/disp/display.h ****         = 0;
 165:../../libdaisy/src/hid/disp/display.h **** 
 166:../../libdaisy/src/hid/disp/display.h ****     /** 
 167:../../libdaisy/src/hid/disp/display.h ****     Moves the 'Cursor' position used for WriteChar, and WriteStr to the specified coordinate.
 168:../../libdaisy/src/hid/disp/display.h ****     \param x x pos
 169:../../libdaisy/src/hid/disp/display.h ****     \param y y pos
 170:../../libdaisy/src/hid/disp/display.h ****     */
 171:../../libdaisy/src/hid/disp/display.h ****     void SetCursor(uint16_t x, uint16_t y)
 172:../../libdaisy/src/hid/disp/display.h ****     {
 173:../../libdaisy/src/hid/disp/display.h ****         currentX_ = (x >= Width()) ? Width() - 1 : x;
 174:../../libdaisy/src/hid/disp/display.h ****         currentY_ = (y >= Height()) ? Height() - 1 : y;
 175:../../libdaisy/src/hid/disp/display.h ****     }
 176:../../libdaisy/src/hid/disp/display.h **** 
 177:../../libdaisy/src/hid/disp/display.h ****     /** 
ARM GAS  /tmp/ccPAoVZi.s 			page 8


 178:../../libdaisy/src/hid/disp/display.h ****     Writes the current display buffer to the OLED device using SPI or I2C depending on 
 179:../../libdaisy/src/hid/disp/display.h ****     how the object was initialized.
 180:../../libdaisy/src/hid/disp/display.h ****     */
 181:../../libdaisy/src/hid/disp/display.h ****     virtual void Update() = 0;
 182:../../libdaisy/src/hid/disp/display.h **** 
 183:../../libdaisy/src/hid/disp/display.h ****   protected:
 184:../../libdaisy/src/hid/disp/display.h ****     uint16_t currentX_;
 185:../../libdaisy/src/hid/disp/display.h ****     uint16_t currentY_;
 186:../../libdaisy/src/hid/disp/display.h **** };
 187:../../libdaisy/src/hid/disp/display.h **** 
 188:../../libdaisy/src/hid/disp/display.h **** /** This class is intended as a intermediary class for your actual implementation of the OneBitGrap
 189:../../libdaisy/src/hid/disp/display.h ****  *  interface. It uses the CRTP design pattern where the template argument is the child class. It p
 190:../../libdaisy/src/hid/disp/display.h ****  *  implementations for most of the functions, except DrawPixel(), Update() and Fill(), which you'l
 191:../../libdaisy/src/hid/disp/display.h ****  *  to provide in your child class.
 192:../../libdaisy/src/hid/disp/display.h ****  *  The main goal of this class is to provide common drawing functions without relying on massive a
 193:../../libdaisy/src/hid/disp/display.h ****  *  virtual function calls that would result in a performance loss. To achieve this, any drawing fu
 194:../../libdaisy/src/hid/disp/display.h ****  *  is implemented here and internally calls other drawing functions (e.g. DrawRect() which interna
 195:../../libdaisy/src/hid/disp/display.h ****  *  DrawPixel() and DrawLine()) makes these calls via the qualified name of these functions to expl
 196:../../libdaisy/src/hid/disp/display.h ****  *  suppress the virtual dispatch mechanism like this:
 197:../../libdaisy/src/hid/disp/display.h ****  * 
 198:../../libdaisy/src/hid/disp/display.h ****  *      ChildType::DrawPixel(...); // no virtual function call; direct call into the child class fu
 199:../../libdaisy/src/hid/disp/display.h ****  *  
 200:../../libdaisy/src/hid/disp/display.h ****  *  To create a custom OneBitGraphicsDisplay implementation, you can 
 201:../../libdaisy/src/hid/disp/display.h ****  *  A) inherit from OneBitGraphicsDisplay directly and provide all the drawing functions yourself
 202:../../libdaisy/src/hid/disp/display.h ****  *  B) Inherit from OneBitGraphicsDisplayImpl and only provide DrawPixel(), Fill() and Update()
 203:../../libdaisy/src/hid/disp/display.h ****  *     like this:
 204:../../libdaisy/src/hid/disp/display.h ****  *  
 205:../../libdaisy/src/hid/disp/display.h ****  *      class MyDisplayClass : public OneBitGraphicsDisplayImpl<MyDisplayClass> 
 206:../../libdaisy/src/hid/disp/display.h ****  *      {
 207:../../libdaisy/src/hid/disp/display.h ****  *      public:
 208:../../libdaisy/src/hid/disp/display.h ****  *          void Fill() override { ... };
 209:../../libdaisy/src/hid/disp/display.h ****  *          void DrawPixel(uint_fast8_t x, uint_fast8_t y, bool on) override { ... };
 210:../../libdaisy/src/hid/disp/display.h ****  *          void Update() override { ... }
 211:../../libdaisy/src/hid/disp/display.h ****  *      };
 212:../../libdaisy/src/hid/disp/display.h ****  *  
 213:../../libdaisy/src/hid/disp/display.h ****  */
 214:../../libdaisy/src/hid/disp/display.h **** template <class ChildType>
 215:../../libdaisy/src/hid/disp/display.h **** class OneBitGraphicsDisplayImpl : public OneBitGraphicsDisplay
 216:../../libdaisy/src/hid/disp/display.h **** {
 217:../../libdaisy/src/hid/disp/display.h ****   public:
 218:../../libdaisy/src/hid/disp/display.h ****     OneBitGraphicsDisplayImpl() {}
 219:../../libdaisy/src/hid/disp/display.h ****     virtual ~OneBitGraphicsDisplayImpl() {}
  98              		.loc 6 219 13 view .LVU8
  99              	.LBB628:
 100              	.LBI628:
  23:../../libdaisy/src/hid/disp/display.h **** 
 101              		.loc 6 23 13 view .LVU9
  23:../../libdaisy/src/hid/disp/display.h **** 
 102              		.loc 6 23 13 is_stmt 0 view .LVU10
 103              	.LBE628:
 104              	.LBE627:
 105              	.LBE626:
 106              	.LBB629:
 107              	.LBI629:
 108              		.file 7 "../../libdaisy/src/hid/midi.h"
   1:../../libdaisy/src/hid/midi.h **** #pragma once
   2:../../libdaisy/src/hid/midi.h **** #ifndef DSY_MIDI_H
ARM GAS  /tmp/ccPAoVZi.s 			page 9


   3:../../libdaisy/src/hid/midi.h **** #define DSY_MIDI_H
   4:../../libdaisy/src/hid/midi.h **** 
   5:../../libdaisy/src/hid/midi.h **** // TODO: make this adjustable
   6:../../libdaisy/src/hid/midi.h **** #define SYSEX_BUFFER_LEN 128
   7:../../libdaisy/src/hid/midi.h **** 
   8:../../libdaisy/src/hid/midi.h **** #include <stdint.h>
   9:../../libdaisy/src/hid/midi.h **** #include <stdlib.h>
  10:../../libdaisy/src/hid/midi.h **** #include "per/uart.h"
  11:../../libdaisy/src/hid/midi.h **** #include "util/ringbuffer.h"
  12:../../libdaisy/src/hid/midi.h **** #include "hid/MidiEvent.h"
  13:../../libdaisy/src/hid/midi.h **** #include "sys/system.h"
  14:../../libdaisy/src/hid/midi.h **** 
  15:../../libdaisy/src/hid/midi.h **** namespace daisy
  16:../../libdaisy/src/hid/midi.h **** {
  17:../../libdaisy/src/hid/midi.h **** /** @addtogroup external 
  18:../../libdaisy/src/hid/midi.h ****     @{ 
  19:../../libdaisy/src/hid/midi.h **** */
  20:../../libdaisy/src/hid/midi.h **** 
  21:../../libdaisy/src/hid/midi.h **** class MidiUartTransport
  22:../../libdaisy/src/hid/midi.h **** {
  23:../../libdaisy/src/hid/midi.h ****   public:
  24:../../libdaisy/src/hid/midi.h ****     MidiUartTransport() {}
  25:../../libdaisy/src/hid/midi.h ****     ~MidiUartTransport() {}
  26:../../libdaisy/src/hid/midi.h **** 
  27:../../libdaisy/src/hid/midi.h ****     struct Config
  28:../../libdaisy/src/hid/midi.h ****     {
  29:../../libdaisy/src/hid/midi.h ****         UartHandler::Config::Peripheral periph;
  30:../../libdaisy/src/hid/midi.h ****         dsy_gpio_pin                    rx;
  31:../../libdaisy/src/hid/midi.h ****         dsy_gpio_pin                    tx;
  32:../../libdaisy/src/hid/midi.h **** 
  33:../../libdaisy/src/hid/midi.h ****         Config()
  34:../../libdaisy/src/hid/midi.h ****         {
  35:../../libdaisy/src/hid/midi.h ****             periph = UartHandler::Config::Peripheral::USART_1;
  36:../../libdaisy/src/hid/midi.h ****             rx     = {DSY_GPIOB, 7};
  37:../../libdaisy/src/hid/midi.h ****             tx     = {DSY_GPIOB, 6};
  38:../../libdaisy/src/hid/midi.h ****         }
  39:../../libdaisy/src/hid/midi.h ****     };
  40:../../libdaisy/src/hid/midi.h **** 
  41:../../libdaisy/src/hid/midi.h ****     inline void Init(Config config)
  42:../../libdaisy/src/hid/midi.h ****     {
  43:../../libdaisy/src/hid/midi.h ****         UartHandler::Config uart_config;
  44:../../libdaisy/src/hid/midi.h **** 
  45:../../libdaisy/src/hid/midi.h ****         //defaults
  46:../../libdaisy/src/hid/midi.h ****         uart_config.baudrate   = 31250;
  47:../../libdaisy/src/hid/midi.h ****         uart_config.stopbits   = UartHandler::Config::StopBits::BITS_1;
  48:../../libdaisy/src/hid/midi.h ****         uart_config.parity     = UartHandler::Config::Parity::NONE;
  49:../../libdaisy/src/hid/midi.h ****         uart_config.mode       = UartHandler::Config::Mode::TX_RX;
  50:../../libdaisy/src/hid/midi.h ****         uart_config.wordlength = UartHandler::Config::WordLength::BITS_8;
  51:../../libdaisy/src/hid/midi.h **** 
  52:../../libdaisy/src/hid/midi.h ****         //user settings
  53:../../libdaisy/src/hid/midi.h ****         uart_config.periph        = config.periph;
  54:../../libdaisy/src/hid/midi.h ****         uart_config.pin_config.rx = config.rx;
  55:../../libdaisy/src/hid/midi.h ****         uart_config.pin_config.tx = config.tx;
  56:../../libdaisy/src/hid/midi.h **** 
  57:../../libdaisy/src/hid/midi.h ****         uart_.Init(uart_config);
  58:../../libdaisy/src/hid/midi.h ****     }
  59:../../libdaisy/src/hid/midi.h **** 
ARM GAS  /tmp/ccPAoVZi.s 			page 10


  60:../../libdaisy/src/hid/midi.h ****     inline void    StartRx() { uart_.StartRx(); }
  61:../../libdaisy/src/hid/midi.h ****     inline size_t  Readable() { return uart_.Readable(); }
  62:../../libdaisy/src/hid/midi.h ****     inline uint8_t Rx() { return uart_.PopRx(); }
  63:../../libdaisy/src/hid/midi.h ****     inline bool    RxActive() { return uart_.RxActive(); }
  64:../../libdaisy/src/hid/midi.h ****     inline void    FlushRx() { uart_.FlushRx(); }
  65:../../libdaisy/src/hid/midi.h ****     inline void    Tx(uint8_t* buff, size_t size) { uart_.PollTx(buff, size); }
  66:../../libdaisy/src/hid/midi.h **** 
  67:../../libdaisy/src/hid/midi.h ****   private:
  68:../../libdaisy/src/hid/midi.h ****     UartHandler uart_;
  69:../../libdaisy/src/hid/midi.h **** };
  70:../../libdaisy/src/hid/midi.h **** 
  71:../../libdaisy/src/hid/midi.h **** /** 
  72:../../libdaisy/src/hid/midi.h ****     @brief Simple MIDI Handler \n 
  73:../../libdaisy/src/hid/midi.h ****     Parses bytes from an input into valid MidiEvents. \n 
  74:../../libdaisy/src/hid/midi.h ****     The MidiEvents fill a FIFO queue that the user can pop messages from.
  75:../../libdaisy/src/hid/midi.h ****     @author shensley
  76:../../libdaisy/src/hid/midi.h ****     @date March 2020
  77:../../libdaisy/src/hid/midi.h **** */
  78:../../libdaisy/src/hid/midi.h **** template <typename Transport>
  79:../../libdaisy/src/hid/midi.h **** class MidiHandler
  80:../../libdaisy/src/hid/midi.h **** {
  81:../../libdaisy/src/hid/midi.h ****   public:
  82:../../libdaisy/src/hid/midi.h ****     MidiHandler() {}
  83:../../libdaisy/src/hid/midi.h ****     ~MidiHandler() {}
 109              		.loc 7 83 5 is_stmt 1 view .LVU11
 110              	.LBB630:
 111              	.LBI630:
  25:../../libdaisy/src/hid/midi.h **** 
 112              		.loc 7 25 5 view .LVU12
  25:../../libdaisy/src/hid/midi.h **** 
 113              		.loc 7 25 5 is_stmt 0 view .LVU13
 114              	.LBE630:
 115              	.LBE629:
 116              	.LBB631:
 117              	.LBI631:
 118              		.file 8 "../../libdaisy/src/hid/encoder.h"
   1:../../libdaisy/src/hid/encoder.h **** #pragma once
   2:../../libdaisy/src/hid/encoder.h **** #ifndef DSY_ENCODER_H
   3:../../libdaisy/src/hid/encoder.h **** #define DSY_ENCODER_H
   4:../../libdaisy/src/hid/encoder.h **** #include "daisy_core.h"
   5:../../libdaisy/src/hid/encoder.h **** #include "per/gpio.h"
   6:../../libdaisy/src/hid/encoder.h **** #include "hid/switch.h"
   7:../../libdaisy/src/hid/encoder.h **** 
   8:../../libdaisy/src/hid/encoder.h **** namespace daisy
   9:../../libdaisy/src/hid/encoder.h **** {
  10:../../libdaisy/src/hid/encoder.h **** /** 
  11:../../libdaisy/src/hid/encoder.h ****     @brief Generic Class for handling Quadrature Encoders \n 
  12:../../libdaisy/src/hid/encoder.h ****     Inspired/influenced by Mutable Instruments (pichenettes) Encoder classes
  13:../../libdaisy/src/hid/encoder.h ****     @author Stephen Hensley
  14:../../libdaisy/src/hid/encoder.h ****     @date December 2019
  15:../../libdaisy/src/hid/encoder.h ****     @ingroup controls
  16:../../libdaisy/src/hid/encoder.h **** */
  17:../../libdaisy/src/hid/encoder.h **** class Encoder
  18:../../libdaisy/src/hid/encoder.h **** {
  19:../../libdaisy/src/hid/encoder.h ****   public:
  20:../../libdaisy/src/hid/encoder.h ****     Encoder() {}
  21:../../libdaisy/src/hid/encoder.h ****     ~Encoder() {}
ARM GAS  /tmp/ccPAoVZi.s 			page 11


 119              		.loc 8 21 5 is_stmt 1 view .LVU14
 120              	.LBB632:
 121              	.LBI632:
 122              		.file 9 "../../libdaisy/src/hid/switch.h"
   1:../../libdaisy/src/hid/switch.h **** #pragma once
   2:../../libdaisy/src/hid/switch.h **** #ifndef DSY_SWITCH_H
   3:../../libdaisy/src/hid/switch.h **** #define DSY_SWITCH_H
   4:../../libdaisy/src/hid/switch.h **** #include "daisy_core.h"
   5:../../libdaisy/src/hid/switch.h **** #include "per/gpio.h"
   6:../../libdaisy/src/hid/switch.h **** 
   7:../../libdaisy/src/hid/switch.h **** namespace daisy
   8:../../libdaisy/src/hid/switch.h **** {
   9:../../libdaisy/src/hid/switch.h **** /** 
  10:../../libdaisy/src/hid/switch.h ****     Generic Class for handling momentary/latching switches \n 
  11:../../libdaisy/src/hid/switch.h ****     Inspired/influenced by Mutable Instruments (pichenettes) Switch classes
  12:../../libdaisy/src/hid/switch.h ****     @author Stephen Hensley
  13:../../libdaisy/src/hid/switch.h ****     @date December 2019
  14:../../libdaisy/src/hid/switch.h ****     @ingroup controls
  15:../../libdaisy/src/hid/switch.h **** */
  16:../../libdaisy/src/hid/switch.h **** class Switch
  17:../../libdaisy/src/hid/switch.h **** {
  18:../../libdaisy/src/hid/switch.h ****   public:
  19:../../libdaisy/src/hid/switch.h ****     /** Specifies the expected behavior of the switch */
  20:../../libdaisy/src/hid/switch.h ****     enum Type
  21:../../libdaisy/src/hid/switch.h ****     {
  22:../../libdaisy/src/hid/switch.h ****         TYPE_TOGGLE,    /**< & */
  23:../../libdaisy/src/hid/switch.h ****         TYPE_MOMENTARY, /**< & */
  24:../../libdaisy/src/hid/switch.h ****     };
  25:../../libdaisy/src/hid/switch.h ****     /** Specifies whether the pressed is HIGH or LOW. */
  26:../../libdaisy/src/hid/switch.h ****     enum Polarity
  27:../../libdaisy/src/hid/switch.h ****     {
  28:../../libdaisy/src/hid/switch.h ****         POLARITY_NORMAL,   /**< & */
  29:../../libdaisy/src/hid/switch.h ****         POLARITY_INVERTED, /**< & */
  30:../../libdaisy/src/hid/switch.h ****     };
  31:../../libdaisy/src/hid/switch.h **** 
  32:../../libdaisy/src/hid/switch.h ****     /** Specifies whether to use built-in Pull Up/Down resistors to hold button at a given state wh
  33:../../libdaisy/src/hid/switch.h ****     enum Pull
  34:../../libdaisy/src/hid/switch.h ****     {
  35:../../libdaisy/src/hid/switch.h ****         PULL_UP,   /**< & */
  36:../../libdaisy/src/hid/switch.h ****         PULL_DOWN, /**< & */
  37:../../libdaisy/src/hid/switch.h ****         PULL_NONE, /**< & */
  38:../../libdaisy/src/hid/switch.h ****     };
  39:../../libdaisy/src/hid/switch.h **** 
  40:../../libdaisy/src/hid/switch.h ****     Switch() {}
  41:../../libdaisy/src/hid/switch.h ****     ~Switch() {}
 123              		.loc 9 41 5 view .LVU15
 124              		.loc 9 41 5 is_stmt 0 view .LVU16
 125              	.LBE632:
 126              	.LBE631:
 127              	.LBB633:
 128              	.LBI633:
 129              		.file 10 "../../libdaisy/src/daisy_seed.h"
   1:../../libdaisy/src/daisy_seed.h **** #pragma once
   2:../../libdaisy/src/daisy_seed.h **** #ifndef DSY_SEED_H
   3:../../libdaisy/src/daisy_seed.h **** #define DSY_SEED_H
   4:../../libdaisy/src/daisy_seed.h **** 
   5:../../libdaisy/src/daisy_seed.h **** #include "daisy.h"
ARM GAS  /tmp/ccPAoVZi.s 			page 12


   6:../../libdaisy/src/daisy_seed.h **** 
   7:../../libdaisy/src/daisy_seed.h **** //Uncomment this out if you're still using the rev2 hardware
   8:../../libdaisy/src/daisy_seed.h **** //#define SEED_REV2
   9:../../libdaisy/src/daisy_seed.h **** 
  10:../../libdaisy/src/daisy_seed.h **** namespace daisy
  11:../../libdaisy/src/daisy_seed.h **** {
  12:../../libdaisy/src/daisy_seed.h **** /**
  13:../../libdaisy/src/daisy_seed.h ****    @brief This is the higher-level interface for the Daisy board. \n 
  14:../../libdaisy/src/daisy_seed.h ****     All basic peripheral configuration/initialization is setup here. \n
  15:../../libdaisy/src/daisy_seed.h **** 
  16:../../libdaisy/src/daisy_seed.h ****    @ingroup boards
  17:../../libdaisy/src/daisy_seed.h **** */
  18:../../libdaisy/src/daisy_seed.h **** class DaisySeed
  19:../../libdaisy/src/daisy_seed.h **** {
  20:../../libdaisy/src/daisy_seed.h ****   public:
  21:../../libdaisy/src/daisy_seed.h ****     DaisySeed() {}
  22:../../libdaisy/src/daisy_seed.h ****     ~DaisySeed() {}
 130              		.loc 10 22 5 is_stmt 1 view .LVU17
 131              	.LBB634:
 132              	.LBI634:
 133              		.file 11 "../../libdaisy/src/sys/system.h"
   1:../../libdaisy/src/sys/system.h **** #ifndef DSY_SYSTEM_H
   2:../../libdaisy/src/sys/system.h **** #define DSY_SYSTEM_H
   3:../../libdaisy/src/sys/system.h **** 
   4:../../libdaisy/src/sys/system.h **** #ifndef UNIT_TEST // for unit tests, a dummy implementation is provided below
   5:../../libdaisy/src/sys/system.h **** 
   6:../../libdaisy/src/sys/system.h **** #include <cstdint>
   7:../../libdaisy/src/sys/system.h **** #include "per/tim.h"
   8:../../libdaisy/src/sys/system.h **** 
   9:../../libdaisy/src/sys/system.h **** namespace daisy
  10:../../libdaisy/src/sys/system.h **** {
  11:../../libdaisy/src/sys/system.h **** /** A handle for interacting with the Core System. 
  12:../../libdaisy/src/sys/system.h ****  ** This includes the Clock tree, MPU, global DMA initialization,
  13:../../libdaisy/src/sys/system.h ****  ** cache handling, and any other necessary global initiailzation
  14:../../libdaisy/src/sys/system.h ****  **
  15:../../libdaisy/src/sys/system.h ****  ** @author shensley
  16:../../libdaisy/src/sys/system.h ****  ** @addtogroup system
  17:../../libdaisy/src/sys/system.h ****  */
  18:../../libdaisy/src/sys/system.h **** class System
  19:../../libdaisy/src/sys/system.h **** {
  20:../../libdaisy/src/sys/system.h ****   public:
  21:../../libdaisy/src/sys/system.h ****     /** Contains settings for initializing the System */
  22:../../libdaisy/src/sys/system.h ****     struct Config
  23:../../libdaisy/src/sys/system.h ****     {
  24:../../libdaisy/src/sys/system.h ****         /** Specifies the system clock frequency that feeds APB/AHB clocks, etc. */
  25:../../libdaisy/src/sys/system.h ****         enum class SysClkFreq
  26:../../libdaisy/src/sys/system.h ****         {
  27:../../libdaisy/src/sys/system.h ****             FREQ_400MHZ,
  28:../../libdaisy/src/sys/system.h ****             FREQ_480MHZ,
  29:../../libdaisy/src/sys/system.h ****         };
  30:../../libdaisy/src/sys/system.h **** 
  31:../../libdaisy/src/sys/system.h ****         /** Method to call on the struct to set to defaults
  32:../../libdaisy/src/sys/system.h ****          ** CPU Freq set to 400MHz
  33:../../libdaisy/src/sys/system.h ****          ** Cache Enabled 
  34:../../libdaisy/src/sys/system.h ****          ** */
  35:../../libdaisy/src/sys/system.h ****         void Defaults()
  36:../../libdaisy/src/sys/system.h ****         {
ARM GAS  /tmp/ccPAoVZi.s 			page 13


  37:../../libdaisy/src/sys/system.h ****             cpu_freq   = SysClkFreq::FREQ_400MHZ;
  38:../../libdaisy/src/sys/system.h ****             use_dcache = true;
  39:../../libdaisy/src/sys/system.h ****             use_icache = true;
  40:../../libdaisy/src/sys/system.h ****         }
  41:../../libdaisy/src/sys/system.h **** 
  42:../../libdaisy/src/sys/system.h ****         /** Method to call on the struct to set to boost mode:
  43:../../libdaisy/src/sys/system.h ****          ** CPU Freq set to 480MHz
  44:../../libdaisy/src/sys/system.h ****          ** Cache Enabled 
  45:../../libdaisy/src/sys/system.h ****          ** */
  46:../../libdaisy/src/sys/system.h ****         void Boost()
  47:../../libdaisy/src/sys/system.h ****         {
  48:../../libdaisy/src/sys/system.h ****             cpu_freq   = SysClkFreq::FREQ_480MHZ;
  49:../../libdaisy/src/sys/system.h ****             use_dcache = true;
  50:../../libdaisy/src/sys/system.h ****             use_icache = true;
  51:../../libdaisy/src/sys/system.h ****         }
  52:../../libdaisy/src/sys/system.h **** 
  53:../../libdaisy/src/sys/system.h ****         SysClkFreq cpu_freq;
  54:../../libdaisy/src/sys/system.h ****         bool       use_dcache;
  55:../../libdaisy/src/sys/system.h ****         bool       use_icache;
  56:../../libdaisy/src/sys/system.h ****     };
  57:../../libdaisy/src/sys/system.h **** 
  58:../../libdaisy/src/sys/system.h ****     System() {}
  59:../../libdaisy/src/sys/system.h ****     ~System() {}
 134              		.loc 11 59 5 view .LVU18
 135              		.loc 11 59 5 is_stmt 0 view .LVU19
 136              	.LBE634:
 137              	.LBB635:
 138              	.LBI635:
 139              		.file 12 "../../libdaisy/src/hid/usb.h"
   1:../../libdaisy/src/hid/usb.h **** #pragma once
   2:../../libdaisy/src/hid/usb.h **** #ifndef DSY_HID_USB_H
   3:../../libdaisy/src/hid/usb.h **** #define DSY_HID_USB_H
   4:../../libdaisy/src/hid/usb.h **** #include <stdint.h>
   5:../../libdaisy/src/hid/usb.h **** #include <stdlib.h>
   6:../../libdaisy/src/hid/usb.h **** 
   7:../../libdaisy/src/hid/usb.h **** namespace daisy
   8:../../libdaisy/src/hid/usb.h **** /** @addtogroup externals
   9:../../libdaisy/src/hid/usb.h ****     @{
  10:../../libdaisy/src/hid/usb.h **** */
  11:../../libdaisy/src/hid/usb.h **** 
  12:../../libdaisy/src/hid/usb.h **** {
  13:../../libdaisy/src/hid/usb.h **** /** 
  14:../../libdaisy/src/hid/usb.h ****     @brief Interface for initializing and using the USB Peripherals on the daisy
  15:../../libdaisy/src/hid/usb.h ****     @author Stephen Hensley
  16:../../libdaisy/src/hid/usb.h ****     @date December 2019
  17:../../libdaisy/src/hid/usb.h **** */
  18:../../libdaisy/src/hid/usb.h **** class UsbHandle
  19:../../libdaisy/src/hid/usb.h **** {
  20:../../libdaisy/src/hid/usb.h ****   public:
  21:../../libdaisy/src/hid/usb.h ****     /** Return values for USBHandle Functions */
  22:../../libdaisy/src/hid/usb.h ****     enum class Result
  23:../../libdaisy/src/hid/usb.h ****     {
  24:../../libdaisy/src/hid/usb.h ****         OK,
  25:../../libdaisy/src/hid/usb.h ****         ERR,
  26:../../libdaisy/src/hid/usb.h ****     };
  27:../../libdaisy/src/hid/usb.h **** 
  28:../../libdaisy/src/hid/usb.h ****     /** Specified which of the two USB Peripherals to initialize. */
ARM GAS  /tmp/ccPAoVZi.s 			page 14


  29:../../libdaisy/src/hid/usb.h ****     enum UsbPeriph
  30:../../libdaisy/src/hid/usb.h ****     {
  31:../../libdaisy/src/hid/usb.h ****         FS_INTERNAL, /**< Internal pin */
  32:../../libdaisy/src/hid/usb.h ****         FS_EXTERNAL, /**< FS External D+ pin is Pin 38 (GPIO32). FS External D- pin is Pin 37 (GPIO
  33:../../libdaisy/src/hid/usb.h ****         FS_BOTH,     /**< Both */
  34:../../libdaisy/src/hid/usb.h ****     };
  35:../../libdaisy/src/hid/usb.h **** 
  36:../../libdaisy/src/hid/usb.h **** 
  37:../../libdaisy/src/hid/usb.h ****     /** Function called upon reception of a buffer */
  38:../../libdaisy/src/hid/usb.h ****     typedef void (*ReceiveCallback)(uint8_t* buff, uint32_t* len);
  39:../../libdaisy/src/hid/usb.h **** 
  40:../../libdaisy/src/hid/usb.h ****     UsbHandle() {}
  41:../../libdaisy/src/hid/usb.h **** 
  42:../../libdaisy/src/hid/usb.h ****     ~UsbHandle() {}
 140              		.loc 12 42 5 is_stmt 1 view .LVU20
 141              		.loc 12 42 5 is_stmt 0 view .LVU21
 142              	.LBE635:
 143              	.LBB636:
 144              	.LBI636:
 145              		.file 13 "../../libdaisy/src/per/adc.h"
   1:../../libdaisy/src/per/adc.h **** #pragma once
   2:../../libdaisy/src/per/adc.h **** #ifndef DSY_ADC_H
   3:../../libdaisy/src/per/adc.h **** #define DSY_ADC_H /**< Macro */
   4:../../libdaisy/src/per/adc.h **** #include <stdint.h>
   5:../../libdaisy/src/per/adc.h **** #include <stdlib.h>
   6:../../libdaisy/src/per/adc.h **** #include "daisy_core.h"
   7:../../libdaisy/src/per/adc.h **** #include "per/gpio.h"
   8:../../libdaisy/src/per/adc.h **** 
   9:../../libdaisy/src/per/adc.h **** #define DSY_ADC_MAX_CHANNELS 14 /**< Maximum number of ADC channels */
  10:../../libdaisy/src/per/adc.h **** 
  11:../../libdaisy/src/per/adc.h **** namespace daisy
  12:../../libdaisy/src/per/adc.h **** {
  13:../../libdaisy/src/per/adc.h **** /** @addtogroup analog_digital_conversion
  14:../../libdaisy/src/per/adc.h ****     @{
  15:../../libdaisy/src/per/adc.h **** */
  16:../../libdaisy/src/per/adc.h **** 
  17:../../libdaisy/src/per/adc.h **** /* While there may not be many configuration options here,
  18:../../libdaisy/src/per/adc.h **** using a struct like this allows us to add more configuration
  19:../../libdaisy/src/per/adc.h **** later without breaking existing functionality.
  20:../../libdaisy/src/per/adc.h **** */
  21:../../libdaisy/src/per/adc.h **** 
  22:../../libdaisy/src/per/adc.h **** /** Configuration Structure for a given channel */
  23:../../libdaisy/src/per/adc.h **** struct AdcChannelConfig
  24:../../libdaisy/src/per/adc.h **** {
  25:../../libdaisy/src/per/adc.h ****     /** Which pin to use for multiplexing */
  26:../../libdaisy/src/per/adc.h ****     enum MuxPin
  27:../../libdaisy/src/per/adc.h ****     {
  28:../../libdaisy/src/per/adc.h ****         MUX_SEL_0,    /**< & */
  29:../../libdaisy/src/per/adc.h ****         MUX_SEL_1,    /**< & */
  30:../../libdaisy/src/per/adc.h ****         MUX_SEL_2,    /**< & */
  31:../../libdaisy/src/per/adc.h ****         MUX_SEL_LAST, /**< & */
  32:../../libdaisy/src/per/adc.h ****     };
  33:../../libdaisy/src/per/adc.h **** 
  34:../../libdaisy/src/per/adc.h ****     /** Initializes a single ADC pin as an ADC. 
  35:../../libdaisy/src/per/adc.h ****     \param pin Pin to init.
  36:../../libdaisy/src/per/adc.h ****      */
  37:../../libdaisy/src/per/adc.h ****     void InitSingle(dsy_gpio_pin pin);
ARM GAS  /tmp/ccPAoVZi.s 			page 15


  38:../../libdaisy/src/per/adc.h **** 
  39:../../libdaisy/src/per/adc.h ****     /** 
  40:../../libdaisy/src/per/adc.h ****     Initializes a single ADC pin as a Multiplexed ADC.
  41:../../libdaisy/src/per/adc.h ****     Requires a CD405X Multiplexer connected to the pin.
  42:../../libdaisy/src/per/adc.h ****     You only need to supply the mux pins that are required,
  43:../../libdaisy/src/per/adc.h ****     e.g. a 4052 mux would only require mux_0 and mux_1.
  44:../../libdaisy/src/per/adc.h ****     Internal Callbacks handle the pin addressing.
  45:../../libdaisy/src/per/adc.h ****     \param mux_channels must be 1-8
  46:../../libdaisy/src/per/adc.h ****     \param mux_0 First mux pin
  47:../../libdaisy/src/per/adc.h ****     \param mux_1 Second mux pin
  48:../../libdaisy/src/per/adc.h ****     \param mux_2 Third mux pin
  49:../../libdaisy/src/per/adc.h ****     \param adc_pin &
  50:../../libdaisy/src/per/adc.h ****     */
  51:../../libdaisy/src/per/adc.h ****     void InitMux(dsy_gpio_pin adc_pin,
  52:../../libdaisy/src/per/adc.h ****                  size_t       mux_channels,
  53:../../libdaisy/src/per/adc.h ****                  dsy_gpio_pin mux_0,
  54:../../libdaisy/src/per/adc.h ****                  dsy_gpio_pin mux_1 = {DSY_GPIOX, 0},
  55:../../libdaisy/src/per/adc.h ****                  dsy_gpio_pin mux_2 = {DSY_GPIOX, 0});
  56:../../libdaisy/src/per/adc.h **** 
  57:../../libdaisy/src/per/adc.h ****     dsy_gpio pin_;                   /**< & */
  58:../../libdaisy/src/per/adc.h ****     dsy_gpio mux_pin_[MUX_SEL_LAST]; /**< & */
  59:../../libdaisy/src/per/adc.h ****     uint8_t  mux_channels_;          /**< & */
  60:../../libdaisy/src/per/adc.h **** };
  61:../../libdaisy/src/per/adc.h **** 
  62:../../libdaisy/src/per/adc.h **** /**
  63:../../libdaisy/src/per/adc.h ****    Handler for analog to digital conversion
  64:../../libdaisy/src/per/adc.h **** */
  65:../../libdaisy/src/per/adc.h **** class AdcHandle
  66:../../libdaisy/src/per/adc.h **** {
  67:../../libdaisy/src/per/adc.h ****   public:
  68:../../libdaisy/src/per/adc.h ****     /** Supported oversampling amounts */
  69:../../libdaisy/src/per/adc.h ****     enum OverSampling
  70:../../libdaisy/src/per/adc.h ****     {
  71:../../libdaisy/src/per/adc.h ****         OVS_NONE, /**< & */
  72:../../libdaisy/src/per/adc.h ****         OVS_4,    /**< & */
  73:../../libdaisy/src/per/adc.h ****         OVS_8,    /**< & */
  74:../../libdaisy/src/per/adc.h ****         OVS_16,   /**< & */
  75:../../libdaisy/src/per/adc.h ****         OVS_32,   /**< & */
  76:../../libdaisy/src/per/adc.h ****         OVS_64,   /**< & */
  77:../../libdaisy/src/per/adc.h ****         OVS_128,  /**< & */
  78:../../libdaisy/src/per/adc.h ****         OVS_256,  /**< & */
  79:../../libdaisy/src/per/adc.h ****         OVS_512,  /**< & */
  80:../../libdaisy/src/per/adc.h ****         OVS_1024, /**< & */
  81:../../libdaisy/src/per/adc.h ****         OVS_LAST, /**< & */
  82:../../libdaisy/src/per/adc.h ****     };
  83:../../libdaisy/src/per/adc.h **** 
  84:../../libdaisy/src/per/adc.h ****     AdcHandle() {}
  85:../../libdaisy/src/per/adc.h ****     ~AdcHandle() {}
 146              		.loc 13 85 5 is_stmt 1 view .LVU22
 147              		.loc 13 85 5 is_stmt 0 view .LVU23
 148              	.LBE636:
 149              	.LBB637:
 150              	.LBI637:
 151              		.file 14 "../../libdaisy/src/hid/audio.h"
   1:../../libdaisy/src/hid/audio.h **** #ifndef DSY_AUDIO_H
   2:../../libdaisy/src/hid/audio.h **** #define DSY_AUDIO_H /**< & */
   3:../../libdaisy/src/hid/audio.h **** 
ARM GAS  /tmp/ccPAoVZi.s 			page 16


   4:../../libdaisy/src/hid/audio.h **** #include "per/sai.h"
   5:../../libdaisy/src/hid/audio.h **** 
   6:../../libdaisy/src/hid/audio.h **** namespace daisy
   7:../../libdaisy/src/hid/audio.h **** {
   8:../../libdaisy/src/hid/audio.h **** class AudioHandle
   9:../../libdaisy/src/hid/audio.h **** {
  10:../../libdaisy/src/hid/audio.h ****   public:
  11:../../libdaisy/src/hid/audio.h ****     /** Manually configurable details about the Audio Engine */
  12:../../libdaisy/src/hid/audio.h ****     /** TODO: Figure out how to get samplerate in here. */
  13:../../libdaisy/src/hid/audio.h ****     struct Config
  14:../../libdaisy/src/hid/audio.h ****     {
  15:../../libdaisy/src/hid/audio.h ****         size_t                        blocksize;
  16:../../libdaisy/src/hid/audio.h ****         SaiHandle::Config::SampleRate samplerate;
  17:../../libdaisy/src/hid/audio.h ****         float                         postgain;
  18:../../libdaisy/src/hid/audio.h ****     };
  19:../../libdaisy/src/hid/audio.h **** 
  20:../../libdaisy/src/hid/audio.h ****     enum class Result
  21:../../libdaisy/src/hid/audio.h ****     {
  22:../../libdaisy/src/hid/audio.h ****         OK,
  23:../../libdaisy/src/hid/audio.h ****         ERR,
  24:../../libdaisy/src/hid/audio.h ****     };
  25:../../libdaisy/src/hid/audio.h **** 
  26:../../libdaisy/src/hid/audio.h ****     /** Non-Interleaving input buffer
  27:../../libdaisy/src/hid/audio.h ****      * Buffer arranged by float[chn][sample] 
  28:../../libdaisy/src/hid/audio.h ****      * const so that the user can't modify the input
  29:../../libdaisy/src/hid/audio.h ****     */
  30:../../libdaisy/src/hid/audio.h ****     typedef const float* const* InputBuffer;
  31:../../libdaisy/src/hid/audio.h **** 
  32:../../libdaisy/src/hid/audio.h ****     /** Non-Interleaving output buffer
  33:../../libdaisy/src/hid/audio.h ****      * Arranged by float[chn][sample] 
  34:../../libdaisy/src/hid/audio.h ****     */
  35:../../libdaisy/src/hid/audio.h ****     typedef float** OutputBuffer;
  36:../../libdaisy/src/hid/audio.h **** 
  37:../../libdaisy/src/hid/audio.h ****     /** Type for a Non-Interleaving audio callback 
  38:../../libdaisy/src/hid/audio.h ****    * Non-Interleaving audio callbacks in daisy will be of this type
  39:../../libdaisy/src/hid/audio.h ****   */
  40:../../libdaisy/src/hid/audio.h ****     typedef void (*AudioCallback)(InputBuffer  in,
  41:../../libdaisy/src/hid/audio.h ****                                   OutputBuffer out,
  42:../../libdaisy/src/hid/audio.h ****                                   size_t       size);
  43:../../libdaisy/src/hid/audio.h **** 
  44:../../libdaisy/src/hid/audio.h ****     /** Interleaving Input buffer
  45:../../libdaisy/src/hid/audio.h ****      ** audio is prepared as { L0, R0, L1, R1, . . . LN, RN }]
  46:../../libdaisy/src/hid/audio.h ****      ** this is const, as the user shouldn't modify it
  47:../../libdaisy/src/hid/audio.h ****     */
  48:../../libdaisy/src/hid/audio.h ****     typedef const float* InterleavingInputBuffer;
  49:../../libdaisy/src/hid/audio.h **** 
  50:../../libdaisy/src/hid/audio.h ****     /** Interleaving Output buffer 
  51:../../libdaisy/src/hid/audio.h ****      ** audio is prepared as { L0, R0, L1, R1, . . . LN, RN }
  52:../../libdaisy/src/hid/audio.h ****     */
  53:../../libdaisy/src/hid/audio.h ****     typedef float* InterleavingOutputBuffer;
  54:../../libdaisy/src/hid/audio.h **** 
  55:../../libdaisy/src/hid/audio.h ****     /** Interleaving Audio Callback 
  56:../../libdaisy/src/hid/audio.h ****    * Interleaving audio callbacks in daisy must be of this type
  57:../../libdaisy/src/hid/audio.h ****   */
  58:../../libdaisy/src/hid/audio.h ****     typedef void (*InterleavingAudioCallback)(InterleavingInputBuffer  in,
  59:../../libdaisy/src/hid/audio.h ****                                               InterleavingOutputBuffer out,
  60:../../libdaisy/src/hid/audio.h ****                                               size_t                   size);
ARM GAS  /tmp/ccPAoVZi.s 			page 17


  61:../../libdaisy/src/hid/audio.h **** 
  62:../../libdaisy/src/hid/audio.h ****     AudioHandle() : pimpl_(nullptr) {}
  63:../../libdaisy/src/hid/audio.h ****     ~AudioHandle() {}
 152              		.loc 14 63 5 is_stmt 1 view .LVU24
 153              		.loc 14 63 5 is_stmt 0 view .LVU25
 154              	.LBE637:
 155              	.LBE633:
 156              		.loc 4 41 20 view .LVU26
 157 0000 7047     		bx	lr
 158              		.cfi_endproc
 159              	.LFE4230:
 161              		.weak	_ZN5daisy10DaisyPatchD1Ev
 162              		.thumb_set _ZN5daisy10DaisyPatchD1Ev,_ZN5daisy10DaisyPatchD2Ev
 163 0002 00BF     		.section	.text._ZN5daisy11OledDisplayINS_13SSD130xDriverILj128ELj64ENS_24SSD130x4WireSpiTransportE
 164              		.align	1
 165              		.p2align 2,,3
 166              		.weak	_ZN5daisy11OledDisplayINS_13SSD130xDriverILj128ELj64ENS_24SSD130x4WireSpiTransportEEEED2Ev
 167              		.syntax unified
 168              		.thumb
 169              		.thumb_func
 170              		.fpu fpv5-d16
 172              	_ZN5daisy11OledDisplayINS_13SSD130xDriverILj128ELj64ENS_24SSD130x4WireSpiTransportEEEED2Ev:
 173              	.LVL3:
 174              	.LFB4549:
 175              		.loc 5 17 13 is_stmt 1 view -0
 176              		.cfi_startproc
 177              		@ args = 0, pretend = 0, frame = 0
 178              		@ frame_needed = 0, uses_anonymous_args = 0
 179              		@ link register save eliminated.
 180              	.LBB638:
 181              	.LBI638:
 182              		.loc 6 219 13 view .LVU28
 183              	.LBB639:
 184              	.LBI639:
  23:../../libdaisy/src/hid/disp/display.h **** 
 185              		.loc 6 23 13 view .LVU29
  23:../../libdaisy/src/hid/disp/display.h **** 
 186              		.loc 6 23 13 is_stmt 0 view .LVU30
 187              	.LBE639:
 188              	.LBE638:
 189              		.loc 5 17 29 view .LVU31
 190 0000 7047     		bx	lr
 191              		.cfi_endproc
 192              	.LFE4549:
 194              		.weak	_ZN5daisy11OledDisplayINS_13SSD130xDriverILj128ELj64ENS_24SSD130x4WireSpiTransportEEEED1Ev
 195              		.thumb_set _ZN5daisy11OledDisplayINS_13SSD130xDriverILj128ELj64ENS_24SSD130x4WireSpiTransportEEEED
 196 0002 00BF     		.section	.text._ZNK5daisy11OledDisplayINS_13SSD130xDriverILj128ELj64ENS_24SSD130x4WireSpiTransport
 197              		.align	1
 198              		.p2align 2,,3
 199              		.weak	_ZNK5daisy11OledDisplayINS_13SSD130xDriverILj128ELj64ENS_24SSD130x4WireSpiTransportEEEE6Heig
 200              		.syntax unified
 201              		.thumb
 202              		.thumb_func
 203              		.fpu fpv5-d16
 205              	_ZNK5daisy11OledDisplayINS_13SSD130xDriverILj128ELj64ENS_24SSD130x4WireSpiTransportEEEE6HeightEv:
 206              	.LVL4:
 207              	.LFB4822:
ARM GAS  /tmp/ccPAoVZi.s 			page 18


  18:../../libdaisy/src/hid/disp/oled_display.h **** 
  19:../../libdaisy/src/hid/disp/oled_display.h ****     struct Config
  20:../../libdaisy/src/hid/disp/oled_display.h ****     {
  21:../../libdaisy/src/hid/disp/oled_display.h ****         typename DisplayDriver::Config driver_config;
  22:../../libdaisy/src/hid/disp/oled_display.h ****     };
  23:../../libdaisy/src/hid/disp/oled_display.h **** 
  24:../../libdaisy/src/hid/disp/oled_display.h ****     void Init(Config config) { driver_.Init(config.driver_config); }
  25:../../libdaisy/src/hid/disp/oled_display.h **** 
  26:../../libdaisy/src/hid/disp/oled_display.h ****     uint16_t Height() const override { return driver_.Height(); }
 208              		.loc 5 26 14 is_stmt 1 view -0
 209              		.cfi_startproc
 210              		@ args = 0, pretend = 0, frame = 0
 211              		@ frame_needed = 0, uses_anonymous_args = 0
 212              		@ link register save eliminated.
 213              		.loc 5 26 65 is_stmt 0 view .LVU33
 214 0000 4020     		movs	r0, #64
 215              	.LVL5:
 216              		.loc 5 26 65 view .LVU34
 217 0002 7047     		bx	lr
 218              		.cfi_endproc
 219              	.LFE4822:
 221              		.section	.text._ZNK5daisy11OledDisplayINS_13SSD130xDriverILj128ELj64ENS_24SSD130x4WireSpiTransport
 222              		.align	1
 223              		.p2align 2,,3
 224              		.weak	_ZNK5daisy11OledDisplayINS_13SSD130xDriverILj128ELj64ENS_24SSD130x4WireSpiTransportEEEE5Widt
 225              		.syntax unified
 226              		.thumb
 227              		.thumb_func
 228              		.fpu fpv5-d16
 230              	_ZNK5daisy11OledDisplayINS_13SSD130xDriverILj128ELj64ENS_24SSD130x4WireSpiTransportEEEE5WidthEv:
 231              	.LVL6:
 232              	.LFB4823:
  27:../../libdaisy/src/hid/disp/oled_display.h ****     uint16_t Width() const override { return driver_.Width(); }
 233              		.loc 5 27 14 is_stmt 1 view -0
 234              		.cfi_startproc
 235              		@ args = 0, pretend = 0, frame = 0
 236              		@ frame_needed = 0, uses_anonymous_args = 0
 237              		@ link register save eliminated.
 238              		.loc 5 27 63 is_stmt 0 view .LVU36
 239 0000 8020     		movs	r0, #128
 240              	.LVL7:
 241              		.loc 5 27 63 view .LVU37
 242 0002 7047     		bx	lr
 243              		.cfi_endproc
 244              	.LFE4823:
 246              		.section	.text._ZN5daisy11OledDisplayINS_13SSD130xDriverILj128ELj64ENS_24SSD130x4WireSpiTransportE
 247              		.align	1
 248              		.p2align 2,,3
 249              		.weak	_ZN5daisy11OledDisplayINS_13SSD130xDriverILj128ELj64ENS_24SSD130x4WireSpiTransportEEEE4FillE
 250              		.syntax unified
 251              		.thumb
 252              		.thumb_func
 253              		.fpu fpv5-d16
 255              	_ZN5daisy11OledDisplayINS_13SSD130xDriverILj128ELj64ENS_24SSD130x4WireSpiTransportEEEE4FillEb:
 256              	.LVL8:
 257              	.LFB4824:
  28:../../libdaisy/src/hid/disp/oled_display.h **** 
ARM GAS  /tmp/ccPAoVZi.s 			page 19


  29:../../libdaisy/src/hid/disp/oled_display.h ****     /** 
  30:../../libdaisy/src/hid/disp/oled_display.h ****     Fills the entire display with either on/off.
  31:../../libdaisy/src/hid/disp/oled_display.h ****     \param on Sets on or off.
  32:../../libdaisy/src/hid/disp/oled_display.h ****     */
  33:../../libdaisy/src/hid/disp/oled_display.h ****     void Fill(bool on) override { driver_.Fill(on); }
 258              		.loc 5 33 10 is_stmt 1 view -0
 259              		.cfi_startproc
 260              		@ args = 0, pretend = 0, frame = 0
 261              		@ frame_needed = 0, uses_anonymous_args = 0
 262              		@ link register save eliminated.
 263              	.LBB640:
 264              	.LBI640:
 265              		.file 15 "../../libdaisy/src/dev/oled_ssd130x.h"
   1:../../libdaisy/src/dev/oled_ssd130x.h **** #pragma once
   2:../../libdaisy/src/dev/oled_ssd130x.h **** #ifndef SA_OLED_SSD130X_H
   3:../../libdaisy/src/dev/oled_ssd130x.h **** #define SA_OLED_SSD130X_H /**< & */
   4:../../libdaisy/src/dev/oled_ssd130x.h **** 
   5:../../libdaisy/src/dev/oled_ssd130x.h **** #include "per/i2c.h"
   6:../../libdaisy/src/dev/oled_ssd130x.h **** #include "per/spi.h"
   7:../../libdaisy/src/dev/oled_ssd130x.h **** #include "per/gpio.h"
   8:../../libdaisy/src/dev/oled_ssd130x.h **** #include "sys/system.h"
   9:../../libdaisy/src/dev/oled_ssd130x.h **** 
  10:../../libdaisy/src/dev/oled_ssd130x.h **** namespace daisy
  11:../../libdaisy/src/dev/oled_ssd130x.h **** {
  12:../../libdaisy/src/dev/oled_ssd130x.h **** /**
  13:../../libdaisy/src/dev/oled_ssd130x.h ****  * I2C Transport for SSD1306 / SSD1309 OLED display devices
  14:../../libdaisy/src/dev/oled_ssd130x.h ****  */
  15:../../libdaisy/src/dev/oled_ssd130x.h **** class SSD130xI2CTransport
  16:../../libdaisy/src/dev/oled_ssd130x.h **** {
  17:../../libdaisy/src/dev/oled_ssd130x.h ****   public:
  18:../../libdaisy/src/dev/oled_ssd130x.h ****     struct Config
  19:../../libdaisy/src/dev/oled_ssd130x.h ****     {
  20:../../libdaisy/src/dev/oled_ssd130x.h ****         I2CHandle::Config i2c_config;
  21:../../libdaisy/src/dev/oled_ssd130x.h ****         uint8_t           i2c_address;
  22:../../libdaisy/src/dev/oled_ssd130x.h ****         void              Defaults()
  23:../../libdaisy/src/dev/oled_ssd130x.h ****         {
  24:../../libdaisy/src/dev/oled_ssd130x.h ****             i2c_config.periph         = I2CHandle::Config::Peripheral::I2C_1;
  25:../../libdaisy/src/dev/oled_ssd130x.h ****             i2c_config.speed          = I2CHandle::Config::Speed::I2C_1MHZ;
  26:../../libdaisy/src/dev/oled_ssd130x.h ****             i2c_config.mode           = I2CHandle::Config::Mode::I2C_MASTER;
  27:../../libdaisy/src/dev/oled_ssd130x.h ****             i2c_config.pin_config.scl = {DSY_GPIOB, 8};
  28:../../libdaisy/src/dev/oled_ssd130x.h ****             i2c_config.pin_config.sda = {DSY_GPIOB, 9};
  29:../../libdaisy/src/dev/oled_ssd130x.h ****             i2c_address               = 0x3C;
  30:../../libdaisy/src/dev/oled_ssd130x.h ****         }
  31:../../libdaisy/src/dev/oled_ssd130x.h ****     };
  32:../../libdaisy/src/dev/oled_ssd130x.h ****     void Init(const Config& config)
  33:../../libdaisy/src/dev/oled_ssd130x.h ****     {
  34:../../libdaisy/src/dev/oled_ssd130x.h ****         i2c_address_ = config.i2c_address;
  35:../../libdaisy/src/dev/oled_ssd130x.h ****         i2c_.Init(config.i2c_config);
  36:../../libdaisy/src/dev/oled_ssd130x.h ****     };
  37:../../libdaisy/src/dev/oled_ssd130x.h ****     void SendCommand(uint8_t cmd)
  38:../../libdaisy/src/dev/oled_ssd130x.h ****     {
  39:../../libdaisy/src/dev/oled_ssd130x.h ****         uint8_t buf[2] = {0X00, cmd};
  40:../../libdaisy/src/dev/oled_ssd130x.h ****         i2c_.TransmitBlocking(i2c_address_, buf, 2, 1000);
  41:../../libdaisy/src/dev/oled_ssd130x.h ****     };
  42:../../libdaisy/src/dev/oled_ssd130x.h **** 
  43:../../libdaisy/src/dev/oled_ssd130x.h ****     void SendData(uint8_t* buff, size_t size)
  44:../../libdaisy/src/dev/oled_ssd130x.h ****     {
ARM GAS  /tmp/ccPAoVZi.s 			page 20


  45:../../libdaisy/src/dev/oled_ssd130x.h ****         for(size_t i = 0; i < size; i++)
  46:../../libdaisy/src/dev/oled_ssd130x.h ****         {
  47:../../libdaisy/src/dev/oled_ssd130x.h ****             uint8_t buf[2] = {0X40, buff[i]};
  48:../../libdaisy/src/dev/oled_ssd130x.h ****             i2c_.TransmitBlocking(i2c_address_, buf, 2, 1000);
  49:../../libdaisy/src/dev/oled_ssd130x.h ****         }
  50:../../libdaisy/src/dev/oled_ssd130x.h ****     };
  51:../../libdaisy/src/dev/oled_ssd130x.h **** 
  52:../../libdaisy/src/dev/oled_ssd130x.h ****   private:
  53:../../libdaisy/src/dev/oled_ssd130x.h ****     daisy::I2CHandle i2c_;
  54:../../libdaisy/src/dev/oled_ssd130x.h ****     uint8_t          i2c_address_;
  55:../../libdaisy/src/dev/oled_ssd130x.h **** };
  56:../../libdaisy/src/dev/oled_ssd130x.h **** 
  57:../../libdaisy/src/dev/oled_ssd130x.h **** /**
  58:../../libdaisy/src/dev/oled_ssd130x.h ****  * 4 Wire SPI Transport for SSD1306 / SSD1309 OLED display devices
  59:../../libdaisy/src/dev/oled_ssd130x.h ****  */
  60:../../libdaisy/src/dev/oled_ssd130x.h **** class SSD130x4WireSpiTransport
  61:../../libdaisy/src/dev/oled_ssd130x.h **** {
  62:../../libdaisy/src/dev/oled_ssd130x.h ****   public:
  63:../../libdaisy/src/dev/oled_ssd130x.h ****     struct Config
  64:../../libdaisy/src/dev/oled_ssd130x.h ****     {
  65:../../libdaisy/src/dev/oled_ssd130x.h ****         struct
  66:../../libdaisy/src/dev/oled_ssd130x.h ****         {
  67:../../libdaisy/src/dev/oled_ssd130x.h ****             dsy_gpio_pin dc;    /**< & */
  68:../../libdaisy/src/dev/oled_ssd130x.h ****             dsy_gpio_pin reset; /**< & */
  69:../../libdaisy/src/dev/oled_ssd130x.h ****         } pin_config;
  70:../../libdaisy/src/dev/oled_ssd130x.h ****         void Defaults()
  71:../../libdaisy/src/dev/oled_ssd130x.h ****         {
  72:../../libdaisy/src/dev/oled_ssd130x.h ****             pin_config.dc    = {DSY_GPIOB, 4};
  73:../../libdaisy/src/dev/oled_ssd130x.h ****             pin_config.reset = {DSY_GPIOB, 15};
  74:../../libdaisy/src/dev/oled_ssd130x.h ****         }
  75:../../libdaisy/src/dev/oled_ssd130x.h ****     };
  76:../../libdaisy/src/dev/oled_ssd130x.h ****     void Init(const Config& config)
  77:../../libdaisy/src/dev/oled_ssd130x.h ****     {
  78:../../libdaisy/src/dev/oled_ssd130x.h ****         // Initialize both GPIO
  79:../../libdaisy/src/dev/oled_ssd130x.h ****         pin_dc_.mode = DSY_GPIO_MODE_OUTPUT_PP;
  80:../../libdaisy/src/dev/oled_ssd130x.h ****         pin_dc_.pin  = config.pin_config.dc;
  81:../../libdaisy/src/dev/oled_ssd130x.h ****         dsy_gpio_init(&pin_dc_);
  82:../../libdaisy/src/dev/oled_ssd130x.h ****         pin_reset_.mode = DSY_GPIO_MODE_OUTPUT_PP;
  83:../../libdaisy/src/dev/oled_ssd130x.h ****         pin_reset_.pin  = config.pin_config.reset;
  84:../../libdaisy/src/dev/oled_ssd130x.h ****         dsy_gpio_init(&pin_reset_);
  85:../../libdaisy/src/dev/oled_ssd130x.h ****         // Initialize SPI
  86:../../libdaisy/src/dev/oled_ssd130x.h ****         SpiHandle::Config spi_config;
  87:../../libdaisy/src/dev/oled_ssd130x.h ****         spi_config.periph    = SpiHandle::Config::Peripheral::SPI_1;
  88:../../libdaisy/src/dev/oled_ssd130x.h ****         spi_config.mode      = SpiHandle::Config::Mode::MASTER;
  89:../../libdaisy/src/dev/oled_ssd130x.h ****         spi_config.direction = SpiHandle::Config::Direction::TWO_LINES_TX_ONLY;
  90:../../libdaisy/src/dev/oled_ssd130x.h ****         spi_config.datasize  = 8;
  91:../../libdaisy/src/dev/oled_ssd130x.h ****         spi_config.clock_polarity = SpiHandle::Config::ClockPolarity::LOW;
  92:../../libdaisy/src/dev/oled_ssd130x.h ****         spi_config.clock_phase    = SpiHandle::Config::ClockPhase::ONE_EDGE;
  93:../../libdaisy/src/dev/oled_ssd130x.h ****         spi_config.nss            = SpiHandle::Config::NSS::HARD_OUTPUT;
  94:../../libdaisy/src/dev/oled_ssd130x.h ****         spi_config.baud_prescaler = SpiHandle::Config::BaudPrescaler::PS_8;
  95:../../libdaisy/src/dev/oled_ssd130x.h **** 
  96:../../libdaisy/src/dev/oled_ssd130x.h ****         spi_config.pin_config.sclk = {DSY_GPIOG, 11};
  97:../../libdaisy/src/dev/oled_ssd130x.h ****         spi_config.pin_config.miso = {DSY_GPIOX, 0};
  98:../../libdaisy/src/dev/oled_ssd130x.h ****         spi_config.pin_config.mosi = {DSY_GPIOB, 5};
  99:../../libdaisy/src/dev/oled_ssd130x.h ****         spi_config.pin_config.nss  = {DSY_GPIOG, 10};
 100:../../libdaisy/src/dev/oled_ssd130x.h **** 
 101:../../libdaisy/src/dev/oled_ssd130x.h ****         spi_.Init(spi_config);
ARM GAS  /tmp/ccPAoVZi.s 			page 21


 102:../../libdaisy/src/dev/oled_ssd130x.h **** 
 103:../../libdaisy/src/dev/oled_ssd130x.h ****         // Reset and Configure OLED.
 104:../../libdaisy/src/dev/oled_ssd130x.h ****         dsy_gpio_write(&pin_reset_, 0);
 105:../../libdaisy/src/dev/oled_ssd130x.h ****         System::Delay(10);
 106:../../libdaisy/src/dev/oled_ssd130x.h ****         dsy_gpio_write(&pin_reset_, 1);
 107:../../libdaisy/src/dev/oled_ssd130x.h ****         System::Delay(10);
 108:../../libdaisy/src/dev/oled_ssd130x.h ****     };
 109:../../libdaisy/src/dev/oled_ssd130x.h ****     void SendCommand(uint8_t cmd)
 110:../../libdaisy/src/dev/oled_ssd130x.h ****     {
 111:../../libdaisy/src/dev/oled_ssd130x.h ****         dsy_gpio_write(&pin_dc_, 0);
 112:../../libdaisy/src/dev/oled_ssd130x.h ****         spi_.BlockingTransmit(&cmd, 1);
 113:../../libdaisy/src/dev/oled_ssd130x.h ****     };
 114:../../libdaisy/src/dev/oled_ssd130x.h **** 
 115:../../libdaisy/src/dev/oled_ssd130x.h ****     void SendData(uint8_t* buff, size_t size)
 116:../../libdaisy/src/dev/oled_ssd130x.h ****     {
 117:../../libdaisy/src/dev/oled_ssd130x.h ****         dsy_gpio_write(&pin_dc_, 1);
 118:../../libdaisy/src/dev/oled_ssd130x.h ****         spi_.BlockingTransmit(buff, size);
 119:../../libdaisy/src/dev/oled_ssd130x.h ****     };
 120:../../libdaisy/src/dev/oled_ssd130x.h **** 
 121:../../libdaisy/src/dev/oled_ssd130x.h ****   private:
 122:../../libdaisy/src/dev/oled_ssd130x.h ****     SpiHandle spi_;
 123:../../libdaisy/src/dev/oled_ssd130x.h ****     dsy_gpio  pin_reset_;
 124:../../libdaisy/src/dev/oled_ssd130x.h ****     dsy_gpio  pin_dc_;
 125:../../libdaisy/src/dev/oled_ssd130x.h **** };
 126:../../libdaisy/src/dev/oled_ssd130x.h **** 
 127:../../libdaisy/src/dev/oled_ssd130x.h **** 
 128:../../libdaisy/src/dev/oled_ssd130x.h **** /**
 129:../../libdaisy/src/dev/oled_ssd130x.h ****  * A driver implementation for the SSD1306/SSD1309
 130:../../libdaisy/src/dev/oled_ssd130x.h ****  */
 131:../../libdaisy/src/dev/oled_ssd130x.h **** template <size_t width, size_t height, typename Transport>
 132:../../libdaisy/src/dev/oled_ssd130x.h **** class SSD130xDriver
 133:../../libdaisy/src/dev/oled_ssd130x.h **** {
 134:../../libdaisy/src/dev/oled_ssd130x.h ****   public:
 135:../../libdaisy/src/dev/oled_ssd130x.h ****     struct Config
 136:../../libdaisy/src/dev/oled_ssd130x.h ****     {
 137:../../libdaisy/src/dev/oled_ssd130x.h ****         typename Transport::Config transport_config;
 138:../../libdaisy/src/dev/oled_ssd130x.h ****     };
 139:../../libdaisy/src/dev/oled_ssd130x.h **** 
 140:../../libdaisy/src/dev/oled_ssd130x.h ****     void Init(Config config)
 141:../../libdaisy/src/dev/oled_ssd130x.h ****     {
 142:../../libdaisy/src/dev/oled_ssd130x.h ****         transport_.Init(config.transport_config);
 143:../../libdaisy/src/dev/oled_ssd130x.h **** 
 144:../../libdaisy/src/dev/oled_ssd130x.h ****         // Init routine...
 145:../../libdaisy/src/dev/oled_ssd130x.h **** 
 146:../../libdaisy/src/dev/oled_ssd130x.h ****         // Display Off
 147:../../libdaisy/src/dev/oled_ssd130x.h ****         transport_.SendCommand(0xaE);
 148:../../libdaisy/src/dev/oled_ssd130x.h ****         // Dimension dependent commands...
 149:../../libdaisy/src/dev/oled_ssd130x.h ****         switch(height)
 150:../../libdaisy/src/dev/oled_ssd130x.h ****         {
 151:../../libdaisy/src/dev/oled_ssd130x.h ****             case 16:
 152:../../libdaisy/src/dev/oled_ssd130x.h ****                 // Display Clock Divide Ratio
 153:../../libdaisy/src/dev/oled_ssd130x.h ****                 transport_.SendCommand(0xD5);
 154:../../libdaisy/src/dev/oled_ssd130x.h ****                 transport_.SendCommand(0x60);
 155:../../libdaisy/src/dev/oled_ssd130x.h ****                 // Multiplex Ratio
 156:../../libdaisy/src/dev/oled_ssd130x.h ****                 transport_.SendCommand(0xA8);
 157:../../libdaisy/src/dev/oled_ssd130x.h ****                 transport_.SendCommand(0x0F);
 158:../../libdaisy/src/dev/oled_ssd130x.h ****                 // COM Pins
ARM GAS  /tmp/ccPAoVZi.s 			page 22


 159:../../libdaisy/src/dev/oled_ssd130x.h ****                 transport_.SendCommand(0xDA);
 160:../../libdaisy/src/dev/oled_ssd130x.h ****                 transport_.SendCommand(0x02);
 161:../../libdaisy/src/dev/oled_ssd130x.h ****                 break;
 162:../../libdaisy/src/dev/oled_ssd130x.h ****             case 32:
 163:../../libdaisy/src/dev/oled_ssd130x.h ****                 // Display Clock Divide Ratio
 164:../../libdaisy/src/dev/oled_ssd130x.h ****                 transport_.SendCommand(0xD5);
 165:../../libdaisy/src/dev/oled_ssd130x.h ****                 transport_.SendCommand(0x80);
 166:../../libdaisy/src/dev/oled_ssd130x.h ****                 // Multiplex Ratio
 167:../../libdaisy/src/dev/oled_ssd130x.h ****                 transport_.SendCommand(0xA8);
 168:../../libdaisy/src/dev/oled_ssd130x.h ****                 transport_.SendCommand(0x1F);
 169:../../libdaisy/src/dev/oled_ssd130x.h ****                 // COM Pins
 170:../../libdaisy/src/dev/oled_ssd130x.h ****                 transport_.SendCommand(0xDA);
 171:../../libdaisy/src/dev/oled_ssd130x.h ****                 if(width == 64)
 172:../../libdaisy/src/dev/oled_ssd130x.h ****                 {
 173:../../libdaisy/src/dev/oled_ssd130x.h ****                     transport_.SendCommand(0x12);
 174:../../libdaisy/src/dev/oled_ssd130x.h ****                 }
 175:../../libdaisy/src/dev/oled_ssd130x.h ****                 else
 176:../../libdaisy/src/dev/oled_ssd130x.h ****                 {
 177:../../libdaisy/src/dev/oled_ssd130x.h ****                     transport_.SendCommand(0x02);
 178:../../libdaisy/src/dev/oled_ssd130x.h ****                 }
 179:../../libdaisy/src/dev/oled_ssd130x.h **** 
 180:../../libdaisy/src/dev/oled_ssd130x.h ****                 break;
 181:../../libdaisy/src/dev/oled_ssd130x.h ****             case 48:
 182:../../libdaisy/src/dev/oled_ssd130x.h ****                 // Display Clock Divide Ratio
 183:../../libdaisy/src/dev/oled_ssd130x.h ****                 transport_.SendCommand(0xD5);
 184:../../libdaisy/src/dev/oled_ssd130x.h ****                 transport_.SendCommand(0x80);
 185:../../libdaisy/src/dev/oled_ssd130x.h ****                 // Multiplex Ratio
 186:../../libdaisy/src/dev/oled_ssd130x.h ****                 transport_.SendCommand(0xA8);
 187:../../libdaisy/src/dev/oled_ssd130x.h ****                 transport_.SendCommand(0x2F);
 188:../../libdaisy/src/dev/oled_ssd130x.h ****                 // COM Pins
 189:../../libdaisy/src/dev/oled_ssd130x.h ****                 transport_.SendCommand(0xDA);
 190:../../libdaisy/src/dev/oled_ssd130x.h ****                 transport_.SendCommand(0x12);
 191:../../libdaisy/src/dev/oled_ssd130x.h ****                 break;
 192:../../libdaisy/src/dev/oled_ssd130x.h ****             default: // 128
 193:../../libdaisy/src/dev/oled_ssd130x.h ****                 // Display Clock Divide Ratio
 194:../../libdaisy/src/dev/oled_ssd130x.h ****                 transport_.SendCommand(0xD5);
 195:../../libdaisy/src/dev/oled_ssd130x.h ****                 transport_.SendCommand(0x80);
 196:../../libdaisy/src/dev/oled_ssd130x.h ****                 // Multiplex Ratio
 197:../../libdaisy/src/dev/oled_ssd130x.h ****                 transport_.SendCommand(0xA8);
 198:../../libdaisy/src/dev/oled_ssd130x.h ****                 transport_.SendCommand(0x3F);
 199:../../libdaisy/src/dev/oled_ssd130x.h ****                 // COM Pins
 200:../../libdaisy/src/dev/oled_ssd130x.h ****                 transport_.SendCommand(0xDA);
 201:../../libdaisy/src/dev/oled_ssd130x.h ****                 transport_.SendCommand(0x12);
 202:../../libdaisy/src/dev/oled_ssd130x.h ****                 break;
 203:../../libdaisy/src/dev/oled_ssd130x.h ****         }
 204:../../libdaisy/src/dev/oled_ssd130x.h **** 
 205:../../libdaisy/src/dev/oled_ssd130x.h ****         // Display Offset
 206:../../libdaisy/src/dev/oled_ssd130x.h ****         transport_.SendCommand(0xD3);
 207:../../libdaisy/src/dev/oled_ssd130x.h ****         transport_.SendCommand(0x00);
 208:../../libdaisy/src/dev/oled_ssd130x.h ****         // Start Line Address
 209:../../libdaisy/src/dev/oled_ssd130x.h ****         transport_.SendCommand(0x40);
 210:../../libdaisy/src/dev/oled_ssd130x.h ****         // Normal Display
 211:../../libdaisy/src/dev/oled_ssd130x.h ****         transport_.SendCommand(0xA6);
 212:../../libdaisy/src/dev/oled_ssd130x.h ****         // All On Resume
 213:../../libdaisy/src/dev/oled_ssd130x.h ****         transport_.SendCommand(0xA4);
 214:../../libdaisy/src/dev/oled_ssd130x.h ****         // Charge Pump
 215:../../libdaisy/src/dev/oled_ssd130x.h ****         transport_.SendCommand(0x8D);
ARM GAS  /tmp/ccPAoVZi.s 			page 23


 216:../../libdaisy/src/dev/oled_ssd130x.h ****         transport_.SendCommand(0x14);
 217:../../libdaisy/src/dev/oled_ssd130x.h ****         // Set Segment Remap
 218:../../libdaisy/src/dev/oled_ssd130x.h ****         transport_.SendCommand(0xA1);
 219:../../libdaisy/src/dev/oled_ssd130x.h ****         // COM Output Scan Direction
 220:../../libdaisy/src/dev/oled_ssd130x.h ****         transport_.SendCommand(0xC8);
 221:../../libdaisy/src/dev/oled_ssd130x.h ****         // Contrast Control
 222:../../libdaisy/src/dev/oled_ssd130x.h ****         transport_.SendCommand(0x81);
 223:../../libdaisy/src/dev/oled_ssd130x.h ****         transport_.SendCommand(0x8F);
 224:../../libdaisy/src/dev/oled_ssd130x.h ****         // Pre Charge
 225:../../libdaisy/src/dev/oled_ssd130x.h ****         transport_.SendCommand(0xD9);
 226:../../libdaisy/src/dev/oled_ssd130x.h ****         transport_.SendCommand(0x25);
 227:../../libdaisy/src/dev/oled_ssd130x.h ****         // VCOM Detect
 228:../../libdaisy/src/dev/oled_ssd130x.h ****         transport_.SendCommand(0xDB);
 229:../../libdaisy/src/dev/oled_ssd130x.h ****         transport_.SendCommand(0x34);
 230:../../libdaisy/src/dev/oled_ssd130x.h **** 
 231:../../libdaisy/src/dev/oled_ssd130x.h **** 
 232:../../libdaisy/src/dev/oled_ssd130x.h ****         // Display On
 233:../../libdaisy/src/dev/oled_ssd130x.h ****         transport_.SendCommand(0xAF); //--turn on oled panel
 234:../../libdaisy/src/dev/oled_ssd130x.h ****     };
 235:../../libdaisy/src/dev/oled_ssd130x.h **** 
 236:../../libdaisy/src/dev/oled_ssd130x.h ****     size_t Width() const { return width; };
 237:../../libdaisy/src/dev/oled_ssd130x.h ****     size_t Height() const { return height; };
 238:../../libdaisy/src/dev/oled_ssd130x.h **** 
 239:../../libdaisy/src/dev/oled_ssd130x.h ****     void DrawPixel(uint_fast8_t x, uint_fast8_t y, bool on)
 240:../../libdaisy/src/dev/oled_ssd130x.h ****     {
 241:../../libdaisy/src/dev/oled_ssd130x.h ****         if(x >= width || y >= height)
 242:../../libdaisy/src/dev/oled_ssd130x.h ****             return;
 243:../../libdaisy/src/dev/oled_ssd130x.h ****         if(on)
 244:../../libdaisy/src/dev/oled_ssd130x.h ****             buffer_[x + (y / 8) * width] |= (1 << (y % 8));
 245:../../libdaisy/src/dev/oled_ssd130x.h ****         else
 246:../../libdaisy/src/dev/oled_ssd130x.h ****             buffer_[x + (y / 8) * width] &= ~(1 << (y % 8));
 247:../../libdaisy/src/dev/oled_ssd130x.h ****     }
 248:../../libdaisy/src/dev/oled_ssd130x.h **** 
 249:../../libdaisy/src/dev/oled_ssd130x.h ****     void Fill(bool on)
 266              		.loc 15 249 10 view .LVU39
 267              	.LBB641:
 250:../../libdaisy/src/dev/oled_ssd130x.h ****     {
 251:../../libdaisy/src/dev/oled_ssd130x.h ****         for(size_t i = 0; i < sizeof(buffer_); i++)
 268              		.loc 15 251 29 view .LVU40
 269 0000 4942     		rsbs	r1, r1, #0
 270              	.LVL9:
 271              		.loc 15 251 29 is_stmt 0 view .LVU41
 272 0002 00F11303 		add	r3, r0, #19
 273 0006 00F21342 		addw	r2, r0, #1043
 274 000a C9B2     		uxtb	r1, r1
 275              	.LVL10:
 276              	.L9:
 252:../../libdaisy/src/dev/oled_ssd130x.h ****         {
 253:../../libdaisy/src/dev/oled_ssd130x.h ****             buffer_[i] = on ? 0xff : 0x00;
 277              		.loc 15 253 13 view .LVU42
 278 000c 03F8011F 		strb	r1, [r3, #1]!
 279              	.LVL11:
 251:../../libdaisy/src/dev/oled_ssd130x.h ****         {
 280              		.loc 15 251 9 is_stmt 1 view .LVU43
 251:../../libdaisy/src/dev/oled_ssd130x.h ****         {
 281              		.loc 15 251 29 view .LVU44
 282 0010 9342     		cmp	r3, r2
ARM GAS  /tmp/ccPAoVZi.s 			page 24


 283 0012 FBD1     		bne	.L9
 284              	.LBE641:
 285              	.LBE640:
 286              		.loc 5 33 53 is_stmt 0 view .LVU45
 287 0014 7047     		bx	lr
 288              		.cfi_endproc
 289              	.LFE4824:
 291 0016 00BF     		.section	.text._ZL13AudioCallbackPKPKfPPfj,"ax",%progbits
 292              		.align	1
 293              		.p2align 2,,3
 294              		.syntax unified
 295              		.thumb
 296              		.thumb_func
 297              		.fpu fpv5-d16
 299              	_ZL13AudioCallbackPKPKfPPfj:
 300              	.LVL12:
 301              	.LFB4233:
 302              		.file 16 "Svf.cpp"
   1:Svf.cpp       **** #include "daisysp.h"
   2:Svf.cpp       **** #include "daisy_patch.h"
   3:Svf.cpp       **** #include <string>
   4:Svf.cpp       **** 
   5:Svf.cpp       **** using namespace daisy;
   6:Svf.cpp       **** using namespace daisysp;
   7:Svf.cpp       **** 
   8:Svf.cpp       **** DaisyPatch patch;
   9:Svf.cpp       **** Parameter  cutoff_ctrl, res_ctrl, drive_ctrl;
  10:Svf.cpp       **** Svf        svf;
  11:Svf.cpp       **** 
  12:Svf.cpp       **** static void AudioCallback(AudioHandle::InputBuffer  in,
  13:Svf.cpp       ****                           AudioHandle::OutputBuffer out,
  14:Svf.cpp       ****                           size_t                    size)
  15:Svf.cpp       **** {
 303              		.loc 16 15 1 is_stmt 1 view -0
 304              		.cfi_startproc
 305              		@ args = 0, pretend = 0, frame = 0
 306              		@ frame_needed = 0, uses_anonymous_args = 0
  16:Svf.cpp       ****     //get new control values
  17:Svf.cpp       ****     float cutoff = cutoff_ctrl.Process();
 307              		.loc 16 17 5 view .LVU47
  15:Svf.cpp       ****     //get new control values
 308              		.loc 16 15 1 is_stmt 0 view .LVU48
 309 0000 2DE9F843 		push	{r3, r4, r5, r6, r7, r8, r9, lr}
 310              		.cfi_def_cfa_offset 32
 311              		.cfi_offset 3, -32
 312              		.cfi_offset 4, -28
 313              		.cfi_offset 5, -24
 314              		.cfi_offset 6, -20
 315              		.cfi_offset 7, -16
 316              		.cfi_offset 8, -12
 317              		.cfi_offset 9, -8
 318              		.cfi_offset 14, -4
 319 0004 8146     		mov	r9, r0
 320              		.loc 16 17 39 view .LVU49
 321 0006 2448     		ldr	r0, .L19
 322              	.LVL13:
  15:Svf.cpp       ****     //get new control values
ARM GAS  /tmp/ccPAoVZi.s 			page 25


 323              		.loc 16 15 1 view .LVU50
 324 0008 9046     		mov	r8, r2
 325 000a 0E46     		mov	r6, r1
 326 000c 2DED048B 		vpush.64	{d8, d9}
 327              		.cfi_def_cfa_offset 48
 328              		.cfi_offset 80, -48
 329              		.cfi_offset 81, -44
 330              		.cfi_offset 82, -40
 331              		.cfi_offset 83, -36
 332              		.loc 16 17 39 view .LVU51
 333 0010 FFF7FEFF 		bl	_ZN5daisy9Parameter7ProcessEv
 334              	.LVL14:
  18:Svf.cpp       ****     float res    = res_ctrl.Process();
 335              		.loc 16 18 36 view .LVU52
 336 0014 2148     		ldr	r0, .L19+4
  17:Svf.cpp       ****     float res    = res_ctrl.Process();
 337              		.loc 16 17 39 view .LVU53
 338 0016 B0EE409A 		vmov.f32	s18, s0
 339              	.LVL15:
 340              		.loc 16 18 5 is_stmt 1 view .LVU54
 341              		.loc 16 18 36 is_stmt 0 view .LVU55
 342 001a FFF7FEFF 		bl	_ZN5daisy9Parameter7ProcessEv
 343              	.LVL16:
  19:Svf.cpp       ****     float drive  = drive_ctrl.Process();
 344              		.loc 16 19 38 view .LVU56
 345 001e 2048     		ldr	r0, .L19+8
  18:Svf.cpp       ****     float res    = res_ctrl.Process();
 346              		.loc 16 18 36 view .LVU57
 347 0020 F0EE408A 		vmov.f32	s17, s0
 348              	.LVL17:
 349              		.loc 16 19 5 is_stmt 1 view .LVU58
 350              		.loc 16 19 38 is_stmt 0 view .LVU59
 351 0024 FFF7FEFF 		bl	_ZN5daisy9Parameter7ProcessEv
 352              	.LVL18:
 353              		.loc 16 19 38 view .LVU60
 354 0028 B0EE408A 		vmov.f32	s16, s0
  20:Svf.cpp       **** 
  21:Svf.cpp       ****     //Set filter to the values we got
  22:Svf.cpp       ****     svf.SetFreq(cutoff);
 355              		.loc 16 22 16 view .LVU61
 356 002c 1D48     		ldr	r0, .L19+12
 357              	.LVL19:
 358              		.loc 16 22 5 is_stmt 1 view .LVU62
 359              		.loc 16 22 16 is_stmt 0 view .LVU63
 360 002e B0EE490A 		vmov.f32	s0, s18
 361              	.LVL20:
 362              		.loc 16 22 16 view .LVU64
 363 0032 FFF7FEFF 		bl	_ZN7daisysp3Svf7SetFreqEf
 364              	.LVL21:
  23:Svf.cpp       ****     svf.SetRes(res);
 365              		.loc 16 23 5 is_stmt 1 view .LVU65
 366              		.loc 16 23 15 is_stmt 0 view .LVU66
 367 0036 B0EE680A 		vmov.f32	s0, s17
 368 003a 1A48     		ldr	r0, .L19+12
 369 003c FFF7FEFF 		bl	_ZN7daisysp3Svf6SetResEf
 370              	.LVL22:
  24:Svf.cpp       ****     svf.SetDrive(drive);
ARM GAS  /tmp/ccPAoVZi.s 			page 26


 371              		.loc 16 24 5 is_stmt 1 view .LVU67
 372              		.loc 16 24 17 is_stmt 0 view .LVU68
 373 0040 B0EE480A 		vmov.f32	s0, s16
 374 0044 1748     		ldr	r0, .L19+12
 375 0046 FFF7FEFF 		bl	_ZN7daisysp3Svf8SetDriveEf
 376              	.LVL23:
  25:Svf.cpp       **** 
  26:Svf.cpp       ****     for(size_t i = 0; i < size; i++)
 377              		.loc 16 26 5 is_stmt 1 view .LVU69
 378              	.LBB642:
 379              		.loc 16 26 25 view .LVU70
 380 004a B8F1000F 		cmp	r8, #0
 381 004e 1ED0     		beq	.L11
 382              		.loc 16 26 16 is_stmt 0 view .LVU71
 383 0050 0024     		movs	r4, #0
 384 0052 144F     		ldr	r7, .L19+12
 385              	.LVL24:
 386              	.L13:
  27:Svf.cpp       ****     {
  28:Svf.cpp       ****         //send the next sample to the filter
  29:Svf.cpp       ****         svf.Process(in[0][i]);
 387              		.loc 16 29 9 is_stmt 1 discriminator 2 view .LVU72
 388              		.loc 16 29 20 is_stmt 0 discriminator 2 view .LVU73
 389 0054 D9F80030 		ldr	r3, [r9]
 390 0058 A500     		lsls	r5, r4, #2
 391 005a 1248     		ldr	r0, .L19+12
 392 005c 03EB8403 		add	r3, r3, r4, lsl #2
  26:Svf.cpp       ****     {
 393              		.loc 16 26 5 discriminator 2 view .LVU74
 394 0060 0134     		adds	r4, r4, #1
 395              	.LVL25:
 396              		.loc 16 29 20 discriminator 2 view .LVU75
 397 0062 93ED000A 		vldr.32	s0, [r3]
 398 0066 FFF7FEFF 		bl	_ZN7daisysp3Svf7ProcessEf
 399              	.LVL26:
  30:Svf.cpp       **** 
  31:Svf.cpp       ****         //send the different filter types to the different outputs
  32:Svf.cpp       ****         out[0][i] = svf.Low();
 400              		.loc 16 32 9 is_stmt 1 discriminator 2 view .LVU76
 401              		.loc 16 32 19 is_stmt 0 discriminator 2 view .LVU77
 402 006a 3368     		ldr	r3, [r6]
 403              		.loc 16 32 28 discriminator 2 view .LVU78
 404 006c 386B     		ldr	r0, [r7, #48]	@ float
 405              	.LVL27:
 406              		.loc 16 32 28 discriminator 2 view .LVU79
 407              	.LBE642:
  23:../../DaisySP/Source/Filters/svf.h ****     /** Initializes the filter
  24:../../DaisySP/Source/Filters/svf.h ****         float sample_rate - sample rate of the audio engine being run, and the frequency that the P
  25:../../DaisySP/Source/Filters/svf.h ****     */
  26:../../DaisySP/Source/Filters/svf.h ****     void Init(float sample_rate);
  27:../../DaisySP/Source/Filters/svf.h **** 
  28:../../DaisySP/Source/Filters/svf.h **** 
  29:../../DaisySP/Source/Filters/svf.h ****     /** 
  30:../../DaisySP/Source/Filters/svf.h ****         Process the input signal, updating all of the outputs.
  31:../../DaisySP/Source/Filters/svf.h ****     */
  32:../../DaisySP/Source/Filters/svf.h ****     void Process(float in);
  33:../../DaisySP/Source/Filters/svf.h **** 
ARM GAS  /tmp/ccPAoVZi.s 			page 27


  34:../../DaisySP/Source/Filters/svf.h **** 
  35:../../DaisySP/Source/Filters/svf.h ****     /** sets the frequency of the cutoff frequency. 
  36:../../DaisySP/Source/Filters/svf.h ****         f must be between 0.0 and sample_rate / 3
  37:../../DaisySP/Source/Filters/svf.h ****     */
  38:../../DaisySP/Source/Filters/svf.h ****     void SetFreq(float f);
  39:../../DaisySP/Source/Filters/svf.h **** 
  40:../../DaisySP/Source/Filters/svf.h ****     /** sets the resonance of the filter.
  41:../../DaisySP/Source/Filters/svf.h ****         Must be between 0.0 and 1.0 to ensure stability.
  42:../../DaisySP/Source/Filters/svf.h ****     */
  43:../../DaisySP/Source/Filters/svf.h ****     void SetRes(float r);
  44:../../DaisySP/Source/Filters/svf.h **** 
  45:../../DaisySP/Source/Filters/svf.h ****     /** sets the drive of the filter 
  46:../../DaisySP/Source/Filters/svf.h ****         affects the response of the resonance of the filter
  47:../../DaisySP/Source/Filters/svf.h ****     */
  48:../../DaisySP/Source/Filters/svf.h ****     void SetDrive(float d);
  49:../../DaisySP/Source/Filters/svf.h ****     /** lowpass output
  50:../../DaisySP/Source/Filters/svf.h ****         \return low pass output of the filter
  51:../../DaisySP/Source/Filters/svf.h ****     */
  52:../../DaisySP/Source/Filters/svf.h ****     inline float Low() { return out_low_; }
 408              		.loc 1 52 26 is_stmt 1 discriminator 2 view .LVU80
 409              	.LBB643:
  26:Svf.cpp       ****     {
 410              		.loc 16 26 25 is_stmt 0 discriminator 2 view .LVU81
 411 006e A045     		cmp	r8, r4
 412              		.loc 16 32 19 discriminator 2 view .LVU82
 413 0070 2B44     		add	r3, r3, r5
  33:Svf.cpp       ****         out[1][i] = svf.High();
  34:Svf.cpp       ****         out[2][i] = svf.Band();
 414              		.loc 16 34 19 discriminator 2 view .LVU83
 415 0072 D6E90112 		ldrd	r1, r2, [r6, #4]
  32:Svf.cpp       ****         out[1][i] = svf.High();
 416              		.loc 16 32 19 discriminator 2 view .LVU84
 417 0076 1860     		str	r0, [r3]	@ float
  33:Svf.cpp       ****         out[1][i] = svf.High();
 418              		.loc 16 33 9 is_stmt 1 discriminator 2 view .LVU85
  33:Svf.cpp       ****         out[1][i] = svf.High();
 419              		.loc 16 33 19 is_stmt 0 discriminator 2 view .LVU86
 420 0078 2944     		add	r1, r1, r5
  33:Svf.cpp       ****         out[1][i] = svf.High();
 421              		.loc 16 33 29 discriminator 2 view .LVU87
 422 007a 786B     		ldr	r0, [r7, #52]	@ float
 423              	.LVL28:
  33:Svf.cpp       ****         out[1][i] = svf.High();
 424              		.loc 16 33 29 discriminator 2 view .LVU88
 425              	.LBE643:
  53:../../DaisySP/Source/Filters/svf.h ****     /** highpass output
  54:../../DaisySP/Source/Filters/svf.h ****         \return high pass output of the filter
  55:../../DaisySP/Source/Filters/svf.h ****     */
  56:../../DaisySP/Source/Filters/svf.h ****     inline float High() { return out_high_; }
 426              		.loc 1 56 27 is_stmt 1 discriminator 2 view .LVU89
 427              	.LBB644:
  35:Svf.cpp       ****         out[3][i] = svf.Notch();
 428              		.loc 16 35 19 is_stmt 0 discriminator 2 view .LVU90
 429 007c F368     		ldr	r3, [r6, #12]
  34:Svf.cpp       ****         out[3][i] = svf.Notch();
 430              		.loc 16 34 19 discriminator 2 view .LVU91
 431 007e 2A44     		add	r2, r2, r5
ARM GAS  /tmp/ccPAoVZi.s 			page 28


  33:Svf.cpp       ****         out[2][i] = svf.Band();
 432              		.loc 16 33 19 discriminator 2 view .LVU92
 433 0080 0860     		str	r0, [r1]	@ float
  34:Svf.cpp       ****         out[3][i] = svf.Notch();
 434              		.loc 16 34 9 is_stmt 1 discriminator 2 view .LVU93
  34:Svf.cpp       ****         out[3][i] = svf.Notch();
 435              		.loc 16 34 29 is_stmt 0 discriminator 2 view .LVU94
 436 0082 B96B     		ldr	r1, [r7, #56]	@ float
 437              	.LVL29:
  34:Svf.cpp       ****         out[3][i] = svf.Notch();
 438              		.loc 16 34 29 discriminator 2 view .LVU95
 439              	.LBE644:
  57:../../DaisySP/Source/Filters/svf.h ****     /** bandpass output
  58:../../DaisySP/Source/Filters/svf.h ****         \return band pass output of the filter
  59:../../DaisySP/Source/Filters/svf.h ****     */
  60:../../DaisySP/Source/Filters/svf.h ****     inline float Band() { return out_band_; }
 440              		.loc 1 60 27 is_stmt 1 discriminator 2 view .LVU96
 441              	.LBB645:
 442              		.loc 16 35 19 is_stmt 0 discriminator 2 view .LVU97
 443 0084 1D44     		add	r5, r5, r3
  34:Svf.cpp       ****         out[3][i] = svf.Notch();
 444              		.loc 16 34 19 discriminator 2 view .LVU98
 445 0086 1160     		str	r1, [r2]	@ float
 446              		.loc 16 35 9 is_stmt 1 discriminator 2 view .LVU99
 447              		.loc 16 35 30 is_stmt 0 discriminator 2 view .LVU100
 448 0088 3B6C     		ldr	r3, [r7, #64]	@ float
 449              	.LVL30:
 450              		.loc 16 35 30 discriminator 2 view .LVU101
 451              	.LBE645:
  61:../../DaisySP/Source/Filters/svf.h ****     /** notchpass output
  62:../../DaisySP/Source/Filters/svf.h ****         \return notch pass output of the filter
  63:../../DaisySP/Source/Filters/svf.h ****     */
  64:../../DaisySP/Source/Filters/svf.h ****     inline float Notch() { return out_notch_; }
 452              		.loc 1 64 28 is_stmt 1 discriminator 2 view .LVU102
 453              	.LBB646:
 454              		.loc 16 35 19 is_stmt 0 discriminator 2 view .LVU103
 455 008a 2B60     		str	r3, [r5]	@ float
  26:Svf.cpp       ****     {
 456              		.loc 16 26 5 is_stmt 1 discriminator 2 view .LVU104
 457              	.LVL31:
  26:Svf.cpp       ****     {
 458              		.loc 16 26 25 discriminator 2 view .LVU105
 459 008c E2D1     		bne	.L13
 460              	.LVL32:
 461              	.L11:
  26:Svf.cpp       ****     {
 462              		.loc 16 26 25 is_stmt 0 discriminator 2 view .LVU106
 463              	.LBE646:
  36:Svf.cpp       ****     }
  37:Svf.cpp       **** }
 464              		.loc 16 37 1 view .LVU107
 465 008e BDEC048B 		vldm	sp!, {d8-d9}
 466              		.cfi_restore 82
 467              		.cfi_restore 83
 468              		.cfi_restore 80
 469              		.cfi_restore 81
 470              		.cfi_def_cfa_offset 32
ARM GAS  /tmp/ccPAoVZi.s 			page 29


 471              	.LVL33:
 472              		.loc 16 37 1 view .LVU108
 473 0092 BDE8F883 		pop	{r3, r4, r5, r6, r7, r8, r9, pc}
 474              	.LVL34:
 475              	.L20:
 476              		.loc 16 37 1 view .LVU109
 477 0096 00BF     		.align	2
 478              	.L19:
 479 0098 00000000 		.word	.LANCHOR0
 480 009c 00000000 		.word	.LANCHOR1
 481 00a0 00000000 		.word	.LANCHOR2
 482 00a4 00000000 		.word	.LANCHOR3
 483              		.cfi_endproc
 484              	.LFE4233:
 486              		.section	.text._ZN5daisy11OledDisplayINS_13SSD130xDriverILj128ELj64ENS_24SSD130x4WireSpiTransportE
 487              		.align	1
 488              		.p2align 2,,3
 489              		.weak	_ZN5daisy11OledDisplayINS_13SSD130xDriverILj128ELj64ENS_24SSD130x4WireSpiTransportEEEED0Ev
 490              		.syntax unified
 491              		.thumb
 492              		.thumb_func
 493              		.fpu fpv5-d16
 495              	_ZN5daisy11OledDisplayINS_13SSD130xDriverILj128ELj64ENS_24SSD130x4WireSpiTransportEEEED0Ev:
 496              	.LVL35:
 497              	.LFB4551:
  17:../../libdaisy/src/hid/disp/oled_display.h **** 
 498              		.loc 5 17 13 is_stmt 1 view -0
 499              		.cfi_startproc
 500              		@ args = 0, pretend = 0, frame = 0
 501              		@ frame_needed = 0, uses_anonymous_args = 0
  17:../../libdaisy/src/hid/disp/oled_display.h **** 
 502              		.loc 5 17 13 is_stmt 0 view .LVU111
 503 0000 10B5     		push	{r4, lr}
 504              		.cfi_def_cfa_offset 8
 505              		.cfi_offset 4, -8
 506              		.cfi_offset 14, -4
  17:../../libdaisy/src/hid/disp/oled_display.h **** 
 507              		.loc 5 17 13 view .LVU112
 508 0002 0446     		mov	r4, r0
 509              	.LVL36:
 510              	.LBB647:
 511              	.LBI647:
  17:../../libdaisy/src/hid/disp/oled_display.h **** 
 512              		.loc 5 17 13 is_stmt 1 view .LVU113
 513              	.LBB648:
 514              	.LBI648:
 515              		.loc 6 219 13 view .LVU114
 516              	.LBB649:
 517              	.LBI649:
  23:../../libdaisy/src/hid/disp/display.h **** 
 518              		.loc 6 23 13 view .LVU115
  23:../../libdaisy/src/hid/disp/display.h **** 
 519              		.loc 6 23 13 is_stmt 0 view .LVU116
 520              	.LBE649:
 521              	.LBE648:
 522              	.LBE647:
  17:../../libdaisy/src/hid/disp/oled_display.h **** 
ARM GAS  /tmp/ccPAoVZi.s 			page 30


 523              		.loc 5 17 29 view .LVU117
 524 0004 40F21441 		movw	r1, #1044
 525 0008 FFF7FEFF 		bl	_ZdlPvj
 526              	.LVL37:
  17:../../libdaisy/src/hid/disp/oled_display.h **** 
 527              		.loc 5 17 29 view .LVU118
 528 000c 2046     		mov	r0, r4
 529 000e 10BD     		pop	{r4, pc}
  17:../../libdaisy/src/hid/disp/oled_display.h **** 
 530              		.loc 5 17 29 view .LVU119
 531              		.cfi_endproc
 532              	.LFE4551:
 534              		.section	.text._ZN5daisy11OledDisplayINS_13SSD130xDriverILj128ELj64ENS_24SSD130x4WireSpiTransportE
 535              		.align	1
 536              		.p2align 2,,3
 537              		.weak	_ZN5daisy11OledDisplayINS_13SSD130xDriverILj128ELj64ENS_24SSD130x4WireSpiTransportEEEE6Updat
 538              		.syntax unified
 539              		.thumb
 540              		.thumb_func
 541              		.fpu fpv5-d16
 543              	_ZN5daisy11OledDisplayINS_13SSD130xDriverILj128ELj64ENS_24SSD130x4WireSpiTransportEEEE6UpdateEv:
 544              	.LVL38:
 545              	.LFB4555:
  34:../../libdaisy/src/hid/disp/oled_display.h **** 
  35:../../libdaisy/src/hid/disp/oled_display.h ****     /**
  36:../../libdaisy/src/hid/disp/oled_display.h ****     Sets the pixel at the specified coordinate to be on/off.
  37:../../libdaisy/src/hid/disp/oled_display.h ****     \param x   x Coordinate
  38:../../libdaisy/src/hid/disp/oled_display.h ****     \param y   y coordinate
  39:../../libdaisy/src/hid/disp/oled_display.h ****     \param on  on or off
  40:../../libdaisy/src/hid/disp/oled_display.h ****     */
  41:../../libdaisy/src/hid/disp/oled_display.h ****     void DrawPixel(uint_fast8_t x, uint_fast8_t y, bool on) override
  42:../../libdaisy/src/hid/disp/oled_display.h ****     {
  43:../../libdaisy/src/hid/disp/oled_display.h ****         driver_.DrawPixel(x, y, on);
  44:../../libdaisy/src/hid/disp/oled_display.h ****     }
  45:../../libdaisy/src/hid/disp/oled_display.h **** 
  46:../../libdaisy/src/hid/disp/oled_display.h ****     /** 
  47:../../libdaisy/src/hid/disp/oled_display.h ****     Writes the current display buffer to the OLED device using SPI or I2C depending on 
  48:../../libdaisy/src/hid/disp/oled_display.h ****     how the object was initialized.
  49:../../libdaisy/src/hid/disp/oled_display.h ****     */
  50:../../libdaisy/src/hid/disp/oled_display.h ****     void Update() override { driver_.Update(); }
 546              		.loc 5 50 10 is_stmt 1 view -0
 547              		.cfi_startproc
 548              		@ args = 0, pretend = 0, frame = 8
 549              		@ frame_needed = 0, uses_anonymous_args = 0
 550              	.LBB660:
 551              	.LBI660:
 254:../../libdaisy/src/dev/oled_ssd130x.h ****         }
 255:../../libdaisy/src/dev/oled_ssd130x.h ****     };
 256:../../libdaisy/src/dev/oled_ssd130x.h **** 
 257:../../libdaisy/src/dev/oled_ssd130x.h ****     /**
 258:../../libdaisy/src/dev/oled_ssd130x.h ****      * Update the display 
 259:../../libdaisy/src/dev/oled_ssd130x.h ****     */
 260:../../libdaisy/src/dev/oled_ssd130x.h ****     void Update()
 552              		.loc 15 260 10 view .LVU121
 553              	.LBB661:
 261:../../libdaisy/src/dev/oled_ssd130x.h ****     {
 262:../../libdaisy/src/dev/oled_ssd130x.h ****         uint8_t i;
ARM GAS  /tmp/ccPAoVZi.s 			page 31


 263:../../libdaisy/src/dev/oled_ssd130x.h ****         uint8_t high_column_addr;
 264:../../libdaisy/src/dev/oled_ssd130x.h ****         switch(height)
 265:../../libdaisy/src/dev/oled_ssd130x.h ****         {
 266:../../libdaisy/src/dev/oled_ssd130x.h ****             case 32: high_column_addr = 0x12; break;
 267:../../libdaisy/src/dev/oled_ssd130x.h **** 
 268:../../libdaisy/src/dev/oled_ssd130x.h ****             default: high_column_addr = 0x10; break;
 269:../../libdaisy/src/dev/oled_ssd130x.h ****         }
 270:../../libdaisy/src/dev/oled_ssd130x.h ****         for(i = 0; i < (height / 8); i++)
 554              		.loc 15 270 22 view .LVU122
 555              	.LBE661:
 556              	.LBE660:
 557              		.loc 5 50 10 is_stmt 0 view .LVU123
 558 0000 2DE9F041 		push	{r4, r5, r6, r7, r8, lr}
 559              		.cfi_def_cfa_offset 24
 560              		.cfi_offset 4, -24
 561              		.cfi_offset 5, -20
 562              		.cfi_offset 6, -16
 563              		.cfi_offset 7, -12
 564              		.cfi_offset 8, -8
 565              		.cfi_offset 14, -4
 566 0004 B025     		movs	r5, #176
 567 0006 82B0     		sub	sp, sp, #8
 568              		.cfi_def_cfa_offset 32
 569 0008 00F10807 		add	r7, r0, #8
 570 000c 00F11006 		add	r6, r0, #16
 571 0010 00F11404 		add	r4, r0, #20
 572              	.LVL39:
 573              	.L24:
 574              	.LBB674:
 575              	.LBB673:
 576              	.LBB662:
 577              	.LBB663:
 111:../../libdaisy/src/dev/oled_ssd130x.h ****         spi_.BlockingTransmit(&cmd, 1);
 578              		.loc 15 111 23 view .LVU124
 579 0014 0021     		movs	r1, #0
 580 0016 3046     		mov	r0, r6
 581 0018 8DF80750 		strb	r5, [sp, #7]
 582              	.LVL40:
 111:../../libdaisy/src/dev/oled_ssd130x.h ****         spi_.BlockingTransmit(&cmd, 1);
 583              		.loc 15 111 23 view .LVU125
 584              	.LBE663:
 585              	.LBI662:
 109:../../libdaisy/src/dev/oled_ssd130x.h ****     {
 586              		.loc 15 109 10 is_stmt 1 view .LVU126
 587              	.LBB664:
 111:../../libdaisy/src/dev/oled_ssd130x.h ****         spi_.BlockingTransmit(&cmd, 1);
 588              		.loc 15 111 9 view .LVU127
 589 001c 0135     		adds	r5, r5, #1
 590              	.LVL41:
 111:../../libdaisy/src/dev/oled_ssd130x.h ****         spi_.BlockingTransmit(&cmd, 1);
 591              		.loc 15 111 9 is_stmt 0 view .LVU128
 592 001e 8846     		mov	r8, r1
 111:../../libdaisy/src/dev/oled_ssd130x.h ****         spi_.BlockingTransmit(&cmd, 1);
 593              		.loc 15 111 23 view .LVU129
 594 0020 FFF7FEFF 		bl	dsy_gpio_write
 595              	.LVL42:
 112:../../libdaisy/src/dev/oled_ssd130x.h ****     };
ARM GAS  /tmp/ccPAoVZi.s 			page 32


 596              		.loc 15 112 9 is_stmt 1 view .LVU130
 112:../../libdaisy/src/dev/oled_ssd130x.h ****     };
 597              		.loc 15 112 30 is_stmt 0 view .LVU131
 598 0024 6423     		movs	r3, #100
 599 0026 0122     		movs	r2, #1
 600 0028 0DF10701 		add	r1, sp, #7
 601 002c 3846     		mov	r0, r7
 602 002e FFF7FEFF 		bl	_ZN5daisy9SpiHandle16BlockingTransmitEPhjm
 603              	.LVL43:
 112:../../libdaisy/src/dev/oled_ssd130x.h ****     };
 604              		.loc 15 112 30 view .LVU132
 605              	.LBE664:
 606              	.LBE662:
 607              	.LBB665:
 608              	.LBB666:
 111:../../libdaisy/src/dev/oled_ssd130x.h ****         spi_.BlockingTransmit(&cmd, 1);
 609              		.loc 15 111 23 view .LVU133
 610 0032 4146     		mov	r1, r8
 611 0034 3046     		mov	r0, r6
 612 0036 8DF80780 		strb	r8, [sp, #7]
 613              	.LVL44:
 111:../../libdaisy/src/dev/oled_ssd130x.h ****         spi_.BlockingTransmit(&cmd, 1);
 614              		.loc 15 111 23 view .LVU134
 615              	.LBE666:
 616              	.LBI665:
 109:../../libdaisy/src/dev/oled_ssd130x.h ****     {
 617              		.loc 15 109 10 is_stmt 1 view .LVU135
 618              	.LBB667:
 111:../../libdaisy/src/dev/oled_ssd130x.h ****         spi_.BlockingTransmit(&cmd, 1);
 619              		.loc 15 111 9 view .LVU136
 111:../../libdaisy/src/dev/oled_ssd130x.h ****         spi_.BlockingTransmit(&cmd, 1);
 620              		.loc 15 111 23 is_stmt 0 view .LVU137
 621 003a FFF7FEFF 		bl	dsy_gpio_write
 622              	.LVL45:
 112:../../libdaisy/src/dev/oled_ssd130x.h ****     };
 623              		.loc 15 112 9 is_stmt 1 view .LVU138
 112:../../libdaisy/src/dev/oled_ssd130x.h ****     };
 624              		.loc 15 112 30 is_stmt 0 view .LVU139
 625 003e 0122     		movs	r2, #1
 626 0040 6423     		movs	r3, #100
 627 0042 0DF10701 		add	r1, sp, #7
 628 0046 3846     		mov	r0, r7
 629 0048 EDB2     		uxtb	r5, r5
 630 004a FFF7FEFF 		bl	_ZN5daisy9SpiHandle16BlockingTransmitEPhjm
 631              	.LVL46:
 112:../../libdaisy/src/dev/oled_ssd130x.h ****     };
 632              		.loc 15 112 30 view .LVU140
 633 004e 1023     		movs	r3, #16
 634              	.LBE667:
 635              	.LBE665:
 636              	.LBB668:
 637              	.LBB669:
 111:../../libdaisy/src/dev/oled_ssd130x.h ****         spi_.BlockingTransmit(&cmd, 1);
 638              		.loc 15 111 23 view .LVU141
 639 0050 4146     		mov	r1, r8
 640 0052 3046     		mov	r0, r6
 641 0054 8DF80730 		strb	r3, [sp, #7]
ARM GAS  /tmp/ccPAoVZi.s 			page 33


 642              	.LVL47:
 111:../../libdaisy/src/dev/oled_ssd130x.h ****         spi_.BlockingTransmit(&cmd, 1);
 643              		.loc 15 111 23 view .LVU142
 644              	.LBE669:
 645              	.LBI668:
 109:../../libdaisy/src/dev/oled_ssd130x.h ****     {
 646              		.loc 15 109 10 is_stmt 1 view .LVU143
 647              	.LBB670:
 111:../../libdaisy/src/dev/oled_ssd130x.h ****         spi_.BlockingTransmit(&cmd, 1);
 648              		.loc 15 111 9 view .LVU144
 111:../../libdaisy/src/dev/oled_ssd130x.h ****         spi_.BlockingTransmit(&cmd, 1);
 649              		.loc 15 111 23 is_stmt 0 view .LVU145
 650 0058 FFF7FEFF 		bl	dsy_gpio_write
 651              	.LVL48:
 112:../../libdaisy/src/dev/oled_ssd130x.h ****     };
 652              		.loc 15 112 9 is_stmt 1 view .LVU146
 112:../../libdaisy/src/dev/oled_ssd130x.h ****     };
 653              		.loc 15 112 30 is_stmt 0 view .LVU147
 654 005c 6423     		movs	r3, #100
 655 005e 0122     		movs	r2, #1
 656 0060 0DF10701 		add	r1, sp, #7
 657 0064 3846     		mov	r0, r7
 658 0066 FFF7FEFF 		bl	_ZN5daisy9SpiHandle16BlockingTransmitEPhjm
 659              	.LVL49:
 112:../../libdaisy/src/dev/oled_ssd130x.h ****     };
 660              		.loc 15 112 30 view .LVU148
 661              	.LBE670:
 662              	.LBE668:
 663              	.LBB671:
 664              	.LBI671:
 115:../../libdaisy/src/dev/oled_ssd130x.h ****     {
 665              		.loc 15 115 10 is_stmt 1 view .LVU149
 666              	.LBB672:
 117:../../libdaisy/src/dev/oled_ssd130x.h ****         spi_.BlockingTransmit(buff, size);
 667              		.loc 15 117 9 view .LVU150
 117:../../libdaisy/src/dev/oled_ssd130x.h ****         spi_.BlockingTransmit(buff, size);
 668              		.loc 15 117 23 is_stmt 0 view .LVU151
 669 006a 0121     		movs	r1, #1
 670 006c 3046     		mov	r0, r6
 671 006e FFF7FEFF 		bl	dsy_gpio_write
 672              	.LVL50:
 118:../../libdaisy/src/dev/oled_ssd130x.h ****     };
 673              		.loc 15 118 9 is_stmt 1 view .LVU152
 118:../../libdaisy/src/dev/oled_ssd130x.h ****     };
 674              		.loc 15 118 30 is_stmt 0 view .LVU153
 675 0072 8022     		movs	r2, #128
 676 0074 2146     		mov	r1, r4
 677 0076 6423     		movs	r3, #100
 678 0078 3846     		mov	r0, r7
 679 007a 1444     		add	r4, r4, r2
 680              	.LVL51:
 118:../../libdaisy/src/dev/oled_ssd130x.h ****     };
 681              		.loc 15 118 30 view .LVU154
 682 007c FFF7FEFF 		bl	_ZN5daisy9SpiHandle16BlockingTransmitEPhjm
 683              	.LVL52:
 118:../../libdaisy/src/dev/oled_ssd130x.h ****     };
 684              		.loc 15 118 30 view .LVU155
ARM GAS  /tmp/ccPAoVZi.s 			page 34


 685              	.LBE672:
 686              	.LBE671:
 687              		.loc 15 270 9 is_stmt 1 view .LVU156
 688              		.loc 15 270 22 view .LVU157
 689 0080 B82D     		cmp	r5, #184
 690 0082 C7D1     		bne	.L24
 691              	.LBE673:
 692              	.LBE674:
 693              		.loc 5 50 48 is_stmt 0 view .LVU158
 694 0084 02B0     		add	sp, sp, #8
 695              		.cfi_def_cfa_offset 24
 696              		@ sp needed
 697 0086 BDE8F081 		pop	{r4, r5, r6, r7, r8, pc}
 698              		.loc 5 50 48 view .LVU159
 699              		.cfi_endproc
 700              	.LFE4555:
 702 008a 00BF     		.section	.text._ZN5daisy25OneBitGraphicsDisplayImplINS_11OledDisplayINS_13SSD130xDriverILj128ELj64
 703              		.align	1
 704              		.p2align 2,,3
 705              		.weak	_ZN5daisy25OneBitGraphicsDisplayImplINS_11OledDisplayINS_13SSD130xDriverILj128ELj64ENS_24SSD
 706              		.syntax unified
 707              		.thumb
 708              		.thumb_func
 709              		.fpu fpv5-d16
 711              	_ZN5daisy25OneBitGraphicsDisplayImplINS_11OledDisplayINS_13SSD130xDriverILj128ELj64ENS_24SSD130x4Wi
 712              	.LVL53:
 713              	.LFB4553:
 220:../../libdaisy/src/hid/disp/display.h **** 
 221:../../libdaisy/src/hid/disp/display.h ****     void DrawLine(uint_fast8_t x1,
 222:../../libdaisy/src/hid/disp/display.h ****                   uint_fast8_t y1,
 223:../../libdaisy/src/hid/disp/display.h ****                   uint_fast8_t x2,
 224:../../libdaisy/src/hid/disp/display.h ****                   uint_fast8_t y2,
 225:../../libdaisy/src/hid/disp/display.h ****                   bool         on) override
 226:../../libdaisy/src/hid/disp/display.h ****     {
 227:../../libdaisy/src/hid/disp/display.h ****         int_fast16_t deltaX = abs((int_fast16_t)x2 - (int_fast16_t)x1);
 228:../../libdaisy/src/hid/disp/display.h ****         int_fast16_t deltaY = abs((int_fast16_t)y2 - (int_fast16_t)y1);
 229:../../libdaisy/src/hid/disp/display.h ****         int_fast16_t signX  = ((x1 < x2) ? 1 : -1);
 230:../../libdaisy/src/hid/disp/display.h ****         int_fast16_t signY  = ((y1 < y2) ? 1 : -1);
 231:../../libdaisy/src/hid/disp/display.h ****         int_fast16_t error  = deltaX - deltaY;
 232:../../libdaisy/src/hid/disp/display.h ****         int_fast16_t error2;
 233:../../libdaisy/src/hid/disp/display.h **** 
 234:../../libdaisy/src/hid/disp/display.h ****         // If we write "ChildType::DrawPixel(x2, y2, on);", we end up with
 235:../../libdaisy/src/hid/disp/display.h ****         // all sorts of weird compiler errors when the Child class is a template
 236:../../libdaisy/src/hid/disp/display.h ****         // class. The only way around this is to use this very verbose syntax:
 237:../../libdaisy/src/hid/disp/display.h ****         ((ChildType*)(this))->ChildType::DrawPixel(x2, y2, on);
 238:../../libdaisy/src/hid/disp/display.h **** 
 239:../../libdaisy/src/hid/disp/display.h ****         while((x1 != x2) || (y1 != y2))
 240:../../libdaisy/src/hid/disp/display.h ****         {
 241:../../libdaisy/src/hid/disp/display.h ****             ((ChildType*)(this))->ChildType::DrawPixel(x1, y1, on);
 242:../../libdaisy/src/hid/disp/display.h ****             error2 = error * 2;
 243:../../libdaisy/src/hid/disp/display.h ****             if(error2 > -deltaY)
 244:../../libdaisy/src/hid/disp/display.h ****             {
 245:../../libdaisy/src/hid/disp/display.h ****                 error -= deltaY;
 246:../../libdaisy/src/hid/disp/display.h ****                 x1 += signX;
 247:../../libdaisy/src/hid/disp/display.h ****             }
 248:../../libdaisy/src/hid/disp/display.h **** 
 249:../../libdaisy/src/hid/disp/display.h ****             if(error2 < deltaX)
ARM GAS  /tmp/ccPAoVZi.s 			page 35


 250:../../libdaisy/src/hid/disp/display.h ****             {
 251:../../libdaisy/src/hid/disp/display.h ****                 error += deltaX;
 252:../../libdaisy/src/hid/disp/display.h ****                 y1 += signY;
 253:../../libdaisy/src/hid/disp/display.h ****             }
 254:../../libdaisy/src/hid/disp/display.h ****         }
 255:../../libdaisy/src/hid/disp/display.h ****     }
 256:../../libdaisy/src/hid/disp/display.h **** 
 257:../../libdaisy/src/hid/disp/display.h ****     void DrawRect(uint_fast8_t x1,
 258:../../libdaisy/src/hid/disp/display.h ****                   uint_fast8_t y1,
 259:../../libdaisy/src/hid/disp/display.h ****                   uint_fast8_t x2,
 260:../../libdaisy/src/hid/disp/display.h ****                   uint_fast8_t y2,
 261:../../libdaisy/src/hid/disp/display.h ****                   bool         on,
 262:../../libdaisy/src/hid/disp/display.h ****                   bool         fill = false) override
 263:../../libdaisy/src/hid/disp/display.h ****     {
 264:../../libdaisy/src/hid/disp/display.h ****         if(fill)
 265:../../libdaisy/src/hid/disp/display.h ****         {
 266:../../libdaisy/src/hid/disp/display.h ****             for(uint_fast8_t x = x1; x <= x2; x++)
 267:../../libdaisy/src/hid/disp/display.h ****             {
 268:../../libdaisy/src/hid/disp/display.h ****                 for(uint_fast8_t y = y1; y <= y2; y++)
 269:../../libdaisy/src/hid/disp/display.h ****                 {
 270:../../libdaisy/src/hid/disp/display.h ****                     ((ChildType*)(this))->ChildType::DrawPixel(x, y, on);
 271:../../libdaisy/src/hid/disp/display.h ****                 }
 272:../../libdaisy/src/hid/disp/display.h ****             }
 273:../../libdaisy/src/hid/disp/display.h ****         }
 274:../../libdaisy/src/hid/disp/display.h ****         else
 275:../../libdaisy/src/hid/disp/display.h ****         {
 276:../../libdaisy/src/hid/disp/display.h ****             ((ChildType*)(this))->ChildType::DrawLine(x1, y1, x2, y1, on);
 277:../../libdaisy/src/hid/disp/display.h ****             ((ChildType*)(this))->ChildType::DrawLine(x2, y1, x2, y2, on);
 278:../../libdaisy/src/hid/disp/display.h ****             ((ChildType*)(this))->ChildType::DrawLine(x2, y2, x1, y2, on);
 279:../../libdaisy/src/hid/disp/display.h ****             ((ChildType*)(this))->ChildType::DrawLine(x1, y2, x1, y1, on);
 280:../../libdaisy/src/hid/disp/display.h ****         }
 281:../../libdaisy/src/hid/disp/display.h ****     }
 282:../../libdaisy/src/hid/disp/display.h **** 
 283:../../libdaisy/src/hid/disp/display.h ****     void DrawArc(uint_fast8_t x,
 284:../../libdaisy/src/hid/disp/display.h ****                  uint_fast8_t y,
 285:../../libdaisy/src/hid/disp/display.h ****                  uint_fast8_t radius,
 286:../../libdaisy/src/hid/disp/display.h ****                  int_fast16_t start_angle,
 287:../../libdaisy/src/hid/disp/display.h ****                  int_fast16_t sweep,
 288:../../libdaisy/src/hid/disp/display.h ****                  bool         on) override
 289:../../libdaisy/src/hid/disp/display.h ****     {
 290:../../libdaisy/src/hid/disp/display.h ****         // Values to calculate the circle
 291:../../libdaisy/src/hid/disp/display.h ****         int_fast16_t t_x, t_y, err, e2;
 292:../../libdaisy/src/hid/disp/display.h **** 
 293:../../libdaisy/src/hid/disp/display.h ****         // Temporary values to speed up comparisons
 294:../../libdaisy/src/hid/disp/display.h ****         float t_sxy, t_syx, t_sxny, t_synx;
 295:../../libdaisy/src/hid/disp/display.h ****         float t_exy, t_eyx, t_exny, t_eynx;
 296:../../libdaisy/src/hid/disp/display.h **** 
 297:../../libdaisy/src/hid/disp/display.h ****         float start_angle_rad, end_angle_rad;
 298:../../libdaisy/src/hid/disp/display.h ****         float start_x, start_y, end_x, end_y;
 299:../../libdaisy/src/hid/disp/display.h **** 
 300:../../libdaisy/src/hid/disp/display.h ****         bool d1, d2, d3, d4;
 301:../../libdaisy/src/hid/disp/display.h **** 
 302:../../libdaisy/src/hid/disp/display.h ****         d1 = d2 = d3 = d4 = true;
 303:../../libdaisy/src/hid/disp/display.h **** 
 304:../../libdaisy/src/hid/disp/display.h ****         bool circle = false;
 305:../../libdaisy/src/hid/disp/display.h **** 
 306:../../libdaisy/src/hid/disp/display.h ****         if(sweep < 0)
ARM GAS  /tmp/ccPAoVZi.s 			page 36


 307:../../libdaisy/src/hid/disp/display.h ****         {
 308:../../libdaisy/src/hid/disp/display.h ****             start_angle += sweep;
 309:../../libdaisy/src/hid/disp/display.h ****             sweep = -sweep;
 310:../../libdaisy/src/hid/disp/display.h ****         }
 311:../../libdaisy/src/hid/disp/display.h **** 
 312:../../libdaisy/src/hid/disp/display.h ****         start_angle_rad = deg2rad(start_angle);
 313:../../libdaisy/src/hid/disp/display.h ****         end_angle_rad   = deg2rad(start_angle + sweep);
 314:../../libdaisy/src/hid/disp/display.h **** 
 315:../../libdaisy/src/hid/disp/display.h ****         start_x = cos(start_angle_rad) * radius;
 316:../../libdaisy/src/hid/disp/display.h ****         start_y = -sin(start_angle_rad) * radius;
 317:../../libdaisy/src/hid/disp/display.h ****         end_x   = cos(end_angle_rad) * radius;
 318:../../libdaisy/src/hid/disp/display.h ****         end_y   = -sin(end_angle_rad) * radius;
 319:../../libdaisy/src/hid/disp/display.h **** 
 320:../../libdaisy/src/hid/disp/display.h ****         // Check if start and endpoint are very near
 321:../../libdaisy/src/hid/disp/display.h ****         if((end_x - start_x) * (end_x - start_x)
 322:../../libdaisy/src/hid/disp/display.h ****                + (end_y - start_y) * (end_y - start_y)
 323:../../libdaisy/src/hid/disp/display.h ****            < 2.0f)
 324:../../libdaisy/src/hid/disp/display.h ****         {
 325:../../libdaisy/src/hid/disp/display.h ****             if(sweep > 180)
 326:../../libdaisy/src/hid/disp/display.h ****                 circle = true;
 327:../../libdaisy/src/hid/disp/display.h ****             else
 328:../../libdaisy/src/hid/disp/display.h ****                 // Nothing to draw
 329:../../libdaisy/src/hid/disp/display.h ****                 return;
 330:../../libdaisy/src/hid/disp/display.h ****         }
 331:../../libdaisy/src/hid/disp/display.h **** 
 332:../../libdaisy/src/hid/disp/display.h ****         t_x = -radius;
 333:../../libdaisy/src/hid/disp/display.h ****         t_y = 0;
 334:../../libdaisy/src/hid/disp/display.h ****         err = 2 - 2 * radius;
 335:../../libdaisy/src/hid/disp/display.h **** 
 336:../../libdaisy/src/hid/disp/display.h ****         do
 337:../../libdaisy/src/hid/disp/display.h ****         {
 338:../../libdaisy/src/hid/disp/display.h ****             if(!circle)
 339:../../libdaisy/src/hid/disp/display.h ****             {
 340:../../libdaisy/src/hid/disp/display.h ****                 t_sxy  = start_x * t_y;
 341:../../libdaisy/src/hid/disp/display.h ****                 t_syx  = start_y * t_x;
 342:../../libdaisy/src/hid/disp/display.h ****                 t_sxny = start_x * -t_y;
 343:../../libdaisy/src/hid/disp/display.h ****                 t_synx = start_y * -t_x;
 344:../../libdaisy/src/hid/disp/display.h ****                 t_exy  = end_x * t_y;
 345:../../libdaisy/src/hid/disp/display.h ****                 t_eyx  = end_y * t_x;
 346:../../libdaisy/src/hid/disp/display.h ****                 t_exny = end_x * -t_y;
 347:../../libdaisy/src/hid/disp/display.h ****                 t_eynx = end_y * -t_x;
 348:../../libdaisy/src/hid/disp/display.h **** 
 349:../../libdaisy/src/hid/disp/display.h ****                 if(sweep > 180)
 350:../../libdaisy/src/hid/disp/display.h ****                 {
 351:../../libdaisy/src/hid/disp/display.h ****                     d1 = (t_sxy - t_synx < 0 || t_exy - t_eynx > 0);
 352:../../libdaisy/src/hid/disp/display.h ****                     d2 = (t_sxy - t_syx < 0 || t_exy - t_eyx > 0);
 353:../../libdaisy/src/hid/disp/display.h ****                     d3 = (t_sxny - t_syx < 0 || t_exny - t_eyx > 0);
 354:../../libdaisy/src/hid/disp/display.h ****                     d4 = (t_sxny - t_synx < 0 || t_exny - t_eynx > 0);
 355:../../libdaisy/src/hid/disp/display.h ****                 }
 356:../../libdaisy/src/hid/disp/display.h ****                 else
 357:../../libdaisy/src/hid/disp/display.h ****                 {
 358:../../libdaisy/src/hid/disp/display.h ****                     d1 = (t_sxy - t_synx < 0 && t_exy - t_eynx > 0);
 359:../../libdaisy/src/hid/disp/display.h ****                     d2 = (t_sxy - t_syx < 0 && t_exy - t_eyx > 0);
 360:../../libdaisy/src/hid/disp/display.h ****                     d3 = (t_sxny - t_syx < 0 && t_exny - t_eyx > 0);
 361:../../libdaisy/src/hid/disp/display.h ****                     d4 = (t_sxny - t_synx < 0 && t_exny - t_eynx > 0);
 362:../../libdaisy/src/hid/disp/display.h ****                 }
 363:../../libdaisy/src/hid/disp/display.h ****             }
ARM GAS  /tmp/ccPAoVZi.s 			page 37


 364:../../libdaisy/src/hid/disp/display.h **** 
 365:../../libdaisy/src/hid/disp/display.h ****             if(d1)
 366:../../libdaisy/src/hid/disp/display.h ****                 ((ChildType*)(this))
 367:../../libdaisy/src/hid/disp/display.h ****                     ->ChildType::DrawPixel(x - t_x, y + t_y, on);
 368:../../libdaisy/src/hid/disp/display.h ****             if(d2)
 369:../../libdaisy/src/hid/disp/display.h ****                 ((ChildType*)(this))
 370:../../libdaisy/src/hid/disp/display.h ****                     ->ChildType::DrawPixel(x + t_x, y + t_y, on);
 371:../../libdaisy/src/hid/disp/display.h ****             if(d3)
 372:../../libdaisy/src/hid/disp/display.h ****                 ((ChildType*)(this))
 373:../../libdaisy/src/hid/disp/display.h ****                     ->ChildType::DrawPixel(x + t_x, y - t_y, on);
 374:../../libdaisy/src/hid/disp/display.h ****             if(d4)
 375:../../libdaisy/src/hid/disp/display.h ****                 ((ChildType*)(this))
 376:../../libdaisy/src/hid/disp/display.h ****                     ->ChildType::DrawPixel(x - t_x, y - t_y, on);
 377:../../libdaisy/src/hid/disp/display.h **** 
 378:../../libdaisy/src/hid/disp/display.h ****             e2 = err;
 379:../../libdaisy/src/hid/disp/display.h ****             if(e2 <= t_y)
 380:../../libdaisy/src/hid/disp/display.h ****             {
 381:../../libdaisy/src/hid/disp/display.h ****                 t_y++;
 382:../../libdaisy/src/hid/disp/display.h ****                 err = err + (t_y * 2 + 1);
 383:../../libdaisy/src/hid/disp/display.h ****                 if(-t_x == t_y && e2 <= t_x)
 384:../../libdaisy/src/hid/disp/display.h ****                 {
 385:../../libdaisy/src/hid/disp/display.h ****                     e2 = 0;
 386:../../libdaisy/src/hid/disp/display.h ****                 }
 387:../../libdaisy/src/hid/disp/display.h ****             }
 388:../../libdaisy/src/hid/disp/display.h ****             if(e2 > t_x)
 389:../../libdaisy/src/hid/disp/display.h ****             {
 390:../../libdaisy/src/hid/disp/display.h ****                 t_x++;
 391:../../libdaisy/src/hid/disp/display.h ****                 err = err + (t_x * 2 + 1);
 392:../../libdaisy/src/hid/disp/display.h ****             }
 393:../../libdaisy/src/hid/disp/display.h ****         } while(t_x <= 0);
 394:../../libdaisy/src/hid/disp/display.h ****     }
 395:../../libdaisy/src/hid/disp/display.h **** 
 396:../../libdaisy/src/hid/disp/display.h ****     char WriteChar(char ch, FontDef font, bool on) override
 397:../../libdaisy/src/hid/disp/display.h ****     {
 398:../../libdaisy/src/hid/disp/display.h ****         uint32_t i, b, j;
 399:../../libdaisy/src/hid/disp/display.h **** 
 400:../../libdaisy/src/hid/disp/display.h ****         // Check if character is valid
 401:../../libdaisy/src/hid/disp/display.h ****         if(ch < 32 || ch > 126)
 402:../../libdaisy/src/hid/disp/display.h ****             return 0;
 403:../../libdaisy/src/hid/disp/display.h **** 
 404:../../libdaisy/src/hid/disp/display.h ****         // Check remaining space on current line
 405:../../libdaisy/src/hid/disp/display.h ****         if(Width() < (currentX_ + font.FontWidth)
 406:../../libdaisy/src/hid/disp/display.h ****            || Height() < (currentY_ + font.FontHeight))
 407:../../libdaisy/src/hid/disp/display.h ****         {
 408:../../libdaisy/src/hid/disp/display.h ****             // Not enough space on current line
 409:../../libdaisy/src/hid/disp/display.h ****             return 0;
 410:../../libdaisy/src/hid/disp/display.h ****         }
 411:../../libdaisy/src/hid/disp/display.h **** 
 412:../../libdaisy/src/hid/disp/display.h ****         // Use the font to write
 413:../../libdaisy/src/hid/disp/display.h ****         for(i = 0; i < font.FontHeight; i++)
 414:../../libdaisy/src/hid/disp/display.h ****         {
 415:../../libdaisy/src/hid/disp/display.h ****             b = font.data[(ch - 32) * font.FontHeight + i];
 416:../../libdaisy/src/hid/disp/display.h ****             for(j = 0; j < font.FontWidth; j++)
 417:../../libdaisy/src/hid/disp/display.h ****             {
 418:../../libdaisy/src/hid/disp/display.h ****                 if((b << j) & 0x8000)
 419:../../libdaisy/src/hid/disp/display.h ****                 {
 420:../../libdaisy/src/hid/disp/display.h ****                     ((ChildType*)(this))
ARM GAS  /tmp/ccPAoVZi.s 			page 38


 421:../../libdaisy/src/hid/disp/display.h ****                         ->ChildType::DrawPixel(
 422:../../libdaisy/src/hid/disp/display.h ****                             currentX_ + j, (currentY_ + i), on);
 423:../../libdaisy/src/hid/disp/display.h ****                 }
 424:../../libdaisy/src/hid/disp/display.h ****                 else
 425:../../libdaisy/src/hid/disp/display.h ****                 {
 426:../../libdaisy/src/hid/disp/display.h ****                     ((ChildType*)(this))
 427:../../libdaisy/src/hid/disp/display.h ****                         ->ChildType::DrawPixel(
 428:../../libdaisy/src/hid/disp/display.h ****                             currentX_ + j, (currentY_ + i), !on);
 429:../../libdaisy/src/hid/disp/display.h ****                 }
 430:../../libdaisy/src/hid/disp/display.h ****             }
 431:../../libdaisy/src/hid/disp/display.h ****         }
 432:../../libdaisy/src/hid/disp/display.h **** 
 433:../../libdaisy/src/hid/disp/display.h ****         // The current space is now taken
 434:../../libdaisy/src/hid/disp/display.h ****         SetCursor(currentX_ + font.FontWidth, currentY_);
 435:../../libdaisy/src/hid/disp/display.h **** 
 436:../../libdaisy/src/hid/disp/display.h ****         // Return written char for validation
 437:../../libdaisy/src/hid/disp/display.h ****         return ch;
 438:../../libdaisy/src/hid/disp/display.h ****     }
 439:../../libdaisy/src/hid/disp/display.h **** 
 440:../../libdaisy/src/hid/disp/display.h ****     char WriteString(const char* str, FontDef font, bool on) override
 714              		.loc 6 440 10 is_stmt 1 view -0
 715              		.cfi_startproc
 716              		@ args = 4, pretend = 0, frame = 32
 717              		@ frame_needed = 0, uses_anonymous_args = 0
 718              		.loc 6 440 10 is_stmt 0 view .LVU161
 719 0000 2DE9F04F 		push	{r4, r5, r6, r7, r8, r9, r10, fp, lr}
 720              		.cfi_def_cfa_offset 36
 721              		.cfi_offset 4, -36
 722              		.cfi_offset 5, -32
 723              		.cfi_offset 6, -28
 724              		.cfi_offset 7, -24
 725              		.cfi_offset 8, -20
 726              		.cfi_offset 9, -16
 727              		.cfi_offset 10, -12
 728              		.cfi_offset 11, -8
 729              		.cfi_offset 14, -4
 730 0004 89B0     		sub	sp, sp, #36
 731              		.cfi_def_cfa_offset 72
 732              		.loc 6 440 10 view .LVU162
 733 0006 8B46     		mov	fp, r1
 441:../../libdaisy/src/hid/disp/display.h ****     {
 442:../../libdaisy/src/hid/disp/display.h ****         // Write until null-byte
 443:../../libdaisy/src/hid/disp/display.h ****         while(*str)
 734              		.loc 6 443 9 is_stmt 1 view .LVU163
 735 0008 91F80090 		ldrb	r9, [r1]	@ zero_extendqisi2
 440:../../libdaisy/src/hid/disp/display.h ****     {
 736              		.loc 6 440 10 is_stmt 0 view .LVU164
 737 000c 9DF84840 		ldrb	r4, [sp, #72]	@ zero_extendqisi2
 738 0010 08A9     		add	r1, sp, #32
 739              	.LVL54:
 440:../../libdaisy/src/hid/disp/display.h ****     {
 740              		.loc 6 440 10 view .LVU165
 741 0012 0494     		str	r4, [sp, #16]
 742 0014 01E90C00 		stmdb	r1, {r2, r3}
 743              		.loc 6 443 9 view .LVU166
 744 0018 B9F1000F 		cmp	r9, #0
 745 001c 00F0B780 		beq	.L51
ARM GAS  /tmp/ccPAoVZi.s 			page 39


 746 0020 9DF81930 		ldrb	r3, [sp, #25]	@ zero_extendqisi2
 747 0024 8046     		mov	r8, r0
 748 0026 9DF818A0 		ldrb	r10, [sp, #24]	@ zero_extendqisi2
 749 002a 4D46     		mov	r5, r9
 750 002c 0193     		str	r3, [sp, #4]
 751 002e 079B     		ldr	r3, [sp, #28]
 752 0030 0593     		str	r3, [sp, #20]
 753              	.LVL55:
 754              	.L52:
 755              	.LBB703:
 756              	.LBI703:
 396:../../libdaisy/src/hid/disp/display.h ****     {
 757              		.loc 6 396 10 is_stmt 1 view .LVU167
 758              	.LBB704:
 401:../../libdaisy/src/hid/disp/display.h ****             return 0;
 759              		.loc 6 401 20 is_stmt 0 view .LVU168
 760 0032 A5F12004 		sub	r4, r5, #32
 401:../../libdaisy/src/hid/disp/display.h ****             return 0;
 761              		.loc 6 401 9 view .LVU169
 762 0036 E3B2     		uxtb	r3, r4
 763 0038 5E2B     		cmp	r3, #94
 764 003a 00F2AC80 		bhi	.L33
 405:../../libdaisy/src/hid/disp/display.h ****            || Height() < (currentY_ + font.FontHeight))
 765              		.loc 6 405 17 view .LVU170
 766 003e D8F80030 		ldr	r3, [r8]
 767 0042 654A     		ldr	r2, .L73
 768 0044 DB68     		ldr	r3, [r3, #12]
 769 0046 9342     		cmp	r3, r2
 770 0048 40F0A780 		bne	.L66
 771 004c 8020     		movs	r0, #128
 772              	.L32:
 405:../../libdaisy/src/hid/disp/display.h ****            || Height() < (currentY_ + font.FontHeight))
 773              		.loc 6 405 23 view .LVU171
 774 004e B8F80430 		ldrh	r3, [r8, #4]
 405:../../libdaisy/src/hid/disp/display.h ****            || Height() < (currentY_ + font.FontHeight))
 775              		.loc 6 405 33 view .LVU172
 776 0052 5344     		add	r3, r3, r10
 406:../../libdaisy/src/hid/disp/display.h ****         {
 777              		.loc 6 406 12 view .LVU173
 778 0054 8342     		cmp	r3, r0
 779 0056 00F39E80 		bgt	.L33
 406:../../libdaisy/src/hid/disp/display.h ****         {
 780              		.loc 6 406 21 view .LVU174
 781 005a D8F80030 		ldr	r3, [r8]
 782 005e 5F4A     		ldr	r2, .L73+4
 783 0060 9B68     		ldr	r3, [r3, #8]
 784 0062 9342     		cmp	r3, r2
 785 0064 40F09C80 		bne	.L67
 786 0068 4020     		movs	r0, #64
 787              	.L34:
 406:../../libdaisy/src/hid/disp/display.h ****         {
 788              		.loc 6 406 27 view .LVU175
 789 006a B8F80610 		ldrh	r1, [r8, #6]
 406:../../libdaisy/src/hid/disp/display.h ****         {
 790              		.loc 6 406 37 view .LVU176
 791 006e 019A     		ldr	r2, [sp, #4]
 406:../../libdaisy/src/hid/disp/display.h ****         {
ARM GAS  /tmp/ccPAoVZi.s 			page 40


 792              		.loc 6 406 27 view .LVU177
 793 0070 0091     		str	r1, [sp]
 406:../../libdaisy/src/hid/disp/display.h ****         {
 794              		.loc 6 406 37 view .LVU178
 795 0072 8B18     		adds	r3, r1, r2
 406:../../libdaisy/src/hid/disp/display.h ****         {
 796              		.loc 6 406 12 view .LVU179
 797 0074 8342     		cmp	r3, r0
 798 0076 00F38E80 		bgt	.L33
 799              	.LVL56:
 413:../../libdaisy/src/hid/disp/display.h ****         {
 800              		.loc 6 413 22 is_stmt 1 view .LVU180
 801 007a 1046     		mov	r0, r2
 802 007c 002A     		cmp	r2, #0
 803 007e 00F09A80 		beq	.L35
 415:../../libdaisy/src/hid/disp/display.h ****             for(j = 0; j < font.FontWidth; j++)
 804              		.loc 6 415 37 is_stmt 0 view .LVU181
 805 0082 1346     		mov	r3, r2
 806 0084 6FF00046 		mvn	r6, #-2147483648
 807 0088 B8F80470 		ldrh	r7, [r8, #4]
 808 008c 03FB04F3 		mul	r3, r3, r4
 809 0090 059C     		ldr	r4, [sp, #20]
 810 0092 BE46     		mov	lr, r7
 811 0094 CDF80CB0 		str	fp, [sp, #12]
 812 0098 1E44     		add	r6, r6, r3
 813 009a A21E     		subs	r2, r4, #2
 814 009c 0344     		add	r3, r3, r0
 815 009e 5746     		mov	r7, r10
 816 00a0 04EB4606 		add	r6, r4, r6, lsl #1
 817 00a4 DDF81090 		ldr	r9, [sp, #16]
 818 00a8 02EB4303 		add	r3, r2, r3, lsl #1
 819 00ac 0295     		str	r5, [sp, #8]
 820 00ae 9B46     		mov	fp, r3
 821              	.LVL57:
 822              	.L38:
 415:../../libdaisy/src/hid/disp/display.h ****             for(j = 0; j < font.FontWidth; j++)
 823              		.loc 6 415 13 view .LVU182
 824 00b0 36F802AF 		ldrh	r10, [r6, #2]!
 825              	.LVL58:
 416:../../libdaisy/src/hid/disp/display.h ****             {
 826              		.loc 6 416 26 is_stmt 1 view .LVU183
 827 00b4 A7B3     		cbz	r7, .L43
 828              	.LBB705:
 829              	.LBB706:
 830              	.LBB707:
 831              	.LBB708:
 832              	.LBB709:
 246:../../libdaisy/src/dev/oled_ssd130x.h ****     }
 833              		.loc 15 246 49 is_stmt 0 view .LVU184
 834 00b6 0124     		movs	r4, #1
 246:../../libdaisy/src/dev/oled_ssd130x.h ****     }
 835              		.loc 15 246 55 view .LVU185
 836 00b8 01F00702 		and	r2, r1, #7
 246:../../libdaisy/src/dev/oled_ssd130x.h ****     }
 837              		.loc 15 246 28 view .LVU186
 838 00bc C808     		lsrs	r0, r1, #3
 839 00be 0EF11403 		add	r3, lr, #20
ARM GAS  /tmp/ccPAoVZi.s 			page 41


 246:../../libdaisy/src/dev/oled_ssd130x.h ****     }
 840              		.loc 15 246 49 view .LVU187
 841 00c2 04FA02F2 		lsl	r2, r4, r2
 842 00c6 7446     		mov	r4, lr
 843 00c8 03EBC013 		add	r3, r3, r0, lsl #7
 844              	.LBE709:
 845              	.LBE708:
 846              	.LBE707:
 847              	.LBE706:
 848              	.LBE705:
 416:../../libdaisy/src/hid/disp/display.h ****             {
 849              		.loc 6 416 19 view .LVU188
 850 00cc 0020     		movs	r0, #0
 851              	.LBB727:
 852              	.LBB722:
 853              	.LBB717:
 854              	.LBB713:
 855              	.LBB710:
 246:../../libdaisy/src/dev/oled_ssd130x.h ****     }
 856              		.loc 15 246 42 view .LVU189
 857 00ce 52B2     		sxtb	r2, r2
 858 00d0 4344     		add	r3, r3, r8
 859 00d2 6FEA020C 		mvn	ip, r2
 860 00d6 0EE0     		b	.L44
 861              	.LVL59:
 862              	.L68:
 246:../../libdaisy/src/dev/oled_ssd130x.h ****     }
 863              		.loc 15 246 42 view .LVU190
 864              	.LBE710:
 865              	.LBE713:
 866              	.LBE717:
 867              	.LBE722:
 868              	.LBE727:
 869              	.LBB728:
 870              	.LBI728:
  41:../../libdaisy/src/hid/disp/oled_display.h ****     {
 871              		.loc 5 41 10 is_stmt 1 view .LVU191
 872              	.LBB729:
 873              	.LBI729:
 239:../../libdaisy/src/dev/oled_ssd130x.h ****     {
 874              		.loc 15 239 10 view .LVU192
 875              	.LBB730:
 241:../../libdaisy/src/dev/oled_ssd130x.h ****             return;
 876              		.loc 15 241 9 is_stmt 0 view .LVU193
 877 00d8 7F2C     		cmp	r4, #127
 878 00da 07D8     		bhi	.L40
 879 00dc 3F29     		cmp	r1, #63
 880 00de 05D8     		bhi	.L40
 244:../../libdaisy/src/dev/oled_ssd130x.h ****         else
 881              		.loc 15 244 42 view .LVU194
 882 00e0 1D78     		ldrb	r5, [r3]	@ zero_extendqisi2
 243:../../libdaisy/src/dev/oled_ssd130x.h ****             buffer_[x + (y / 8) * width] |= (1 << (y % 8));
 883              		.loc 15 243 9 view .LVU195
 884 00e2 B9F1000F 		cmp	r9, #0
 885 00e6 12D0     		beq	.L42
 886              	.L65:
 243:../../libdaisy/src/dev/oled_ssd130x.h ****             buffer_[x + (y / 8) * width] |= (1 << (y % 8));
ARM GAS  /tmp/ccPAoVZi.s 			page 42


 887              		.loc 15 243 9 view .LVU196
 888              	.LBE730:
 889              	.LBE729:
 890              	.LBE728:
 891              	.LBB731:
 892              	.LBB723:
 893              	.LBB718:
 244:../../libdaisy/src/dev/oled_ssd130x.h ****         else
 894              		.loc 15 244 42 view .LVU197
 895 00e8 1543     		orrs	r5, r5, r2
 244:../../libdaisy/src/dev/oled_ssd130x.h ****         else
 896              		.loc 15 244 13 view .LVU198
 897 00ea 1D70     		strb	r5, [r3]
 898              	.L40:
 899              	.LBE718:
 900              	.LBE723:
 901              	.LBE731:
 416:../../libdaisy/src/hid/disp/display.h ****             {
 902              		.loc 6 416 13 is_stmt 1 view .LVU199
 903 00ec 0130     		adds	r0, r0, #1
 904              	.LVL60:
 416:../../libdaisy/src/hid/disp/display.h ****             {
 905              		.loc 6 416 26 view .LVU200
 906 00ee 0133     		adds	r3, r3, #1
 907 00f0 0134     		adds	r4, r4, #1
 908 00f2 B842     		cmp	r0, r7
 909 00f4 14D0     		beq	.L43
 910              	.LVL61:
 911              	.L44:
 418:../../libdaisy/src/hid/disp/display.h ****                 {
 912              		.loc 6 418 23 is_stmt 0 view .LVU201
 913 00f6 0AFA00F5 		lsl	r5, r10, r0
 418:../../libdaisy/src/hid/disp/display.h ****                 {
 914              		.loc 6 418 17 view .LVU202
 915 00fa 2D04     		lsls	r5, r5, #16
 916 00fc ECD4     		bmi	.L68
 917              	.LVL62:
 918              	.LBB732:
 919              	.LBI705:
  41:../../libdaisy/src/hid/disp/oled_display.h ****     {
 920              		.loc 5 41 10 is_stmt 1 view .LVU203
 921              	.LBB724:
 922              	.LBI706:
 239:../../libdaisy/src/dev/oled_ssd130x.h ****     {
 923              		.loc 15 239 10 view .LVU204
 924              	.LBB719:
 241:../../libdaisy/src/dev/oled_ssd130x.h ****             return;
 925              		.loc 15 241 9 is_stmt 0 view .LVU205
 926 00fe 7F2C     		cmp	r4, #127
 927 0100 F4D8     		bhi	.L40
 928 0102 3F29     		cmp	r1, #63
 929 0104 F2D8     		bhi	.L40
 244:../../libdaisy/src/dev/oled_ssd130x.h ****         else
 930              		.loc 15 244 42 view .LVU206
 931 0106 1D78     		ldrb	r5, [r3]	@ zero_extendqisi2
 243:../../libdaisy/src/dev/oled_ssd130x.h ****             buffer_[x + (y / 8) * width] |= (1 << (y % 8));
 932              		.loc 15 243 9 view .LVU207
ARM GAS  /tmp/ccPAoVZi.s 			page 43


 933 0108 B9F1000F 		cmp	r9, #0
 934 010c ECD0     		beq	.L65
 935              	.L42:
 936              	.LVL63:
 937              	.LBB714:
 938              	.LBI708:
 239:../../libdaisy/src/dev/oled_ssd130x.h ****     {
 939              		.loc 15 239 10 is_stmt 1 view .LVU208
 239:../../libdaisy/src/dev/oled_ssd130x.h ****     {
 940              		.loc 15 239 10 is_stmt 0 view .LVU209
 941              	.LBE714:
 942              	.LBE719:
 943              	.LBE724:
 944              	.LBE732:
 416:../../libdaisy/src/hid/disp/display.h ****             {
 945              		.loc 6 416 13 view .LVU210
 946 010e 0130     		adds	r0, r0, #1
 947              	.LVL64:
 948              	.LBB733:
 949              	.LBB725:
 950              	.LBB720:
 951              	.LBB715:
 952              	.LBB711:
 246:../../libdaisy/src/dev/oled_ssd130x.h ****     }
 953              		.loc 15 246 42 view .LVU211
 954 0110 0CEA0505 		and	r5, ip, r5
 955 0114 0133     		adds	r3, r3, #1
 956 0116 0134     		adds	r4, r4, #1
 957              	.LBE711:
 958              	.LBE715:
 959              	.LBE720:
 960              	.LBE725:
 961              	.LBE733:
 416:../../libdaisy/src/hid/disp/display.h ****             {
 962              		.loc 6 416 26 view .LVU212
 963 0118 B842     		cmp	r0, r7
 964              	.LBB734:
 965              	.LBB726:
 966              	.LBB721:
 967              	.LBB716:
 968              	.LBB712:
 246:../../libdaisy/src/dev/oled_ssd130x.h ****     }
 969              		.loc 15 246 13 view .LVU213
 970 011a 03F8015C 		strb	r5, [r3, #-1]
 246:../../libdaisy/src/dev/oled_ssd130x.h ****     }
 971              		.loc 15 246 13 view .LVU214
 972              	.LBE712:
 973              	.LBE716:
 974              	.LBE721:
 975              	.LBE726:
 976              	.LBE734:
 416:../../libdaisy/src/hid/disp/display.h ****             {
 977              		.loc 6 416 13 is_stmt 1 view .LVU215
 978              	.LVL65:
 416:../../libdaisy/src/hid/disp/display.h ****             {
 979              		.loc 6 416 26 view .LVU216
 980 011e EAD1     		bne	.L44
ARM GAS  /tmp/ccPAoVZi.s 			page 44


 981              	.LVL66:
 982              	.L43:
 413:../../libdaisy/src/hid/disp/display.h ****         {
 983              		.loc 6 413 9 view .LVU217
 413:../../libdaisy/src/hid/disp/display.h ****         {
 984              		.loc 6 413 22 view .LVU218
 985 0120 5E45     		cmp	r6, fp
 986 0122 01F10101 		add	r1, r1, #1
 987 0126 C3D1     		bne	.L38
 988 0128 BA46     		mov	r10, r7
 989              	.LVL67:
 413:../../libdaisy/src/hid/disp/display.h ****         {
 990              		.loc 6 413 22 is_stmt 0 view .LVU219
 991 012a 029D     		ldr	r5, [sp, #8]
 992 012c 7746     		mov	r7, lr
 993 012e DDF80CB0 		ldr	fp, [sp, #12]
 994              	.L37:
 995              	.LBB735:
 996              	.LBB736:
 173:../../libdaisy/src/hid/disp/display.h ****         currentY_ = (y >= Height()) ? Height() - 1 : y;
 997              		.loc 6 173 33 view .LVU220
 998 0132 D8F80020 		ldr	r2, [r8]
 999              	.LBE736:
 1000              	.LBE735:
 434:../../libdaisy/src/hid/disp/display.h **** 
 1001              		.loc 6 434 18 view .LVU221
 1002 0136 5744     		add	r7, r7, r10
 1003 0138 2749     		ldr	r1, .L73
 1004              	.LBB740:
 1005              	.LBB737:
 173:../../libdaisy/src/hid/disp/display.h ****         currentY_ = (y >= Height()) ? Height() - 1 : y;
 1006              		.loc 6 173 33 view .LVU222
 1007 013a D368     		ldr	r3, [r2, #12]
 1008              	.LBE737:
 1009              	.LBE740:
 434:../../libdaisy/src/hid/disp/display.h **** 
 1010              		.loc 6 434 18 view .LVU223
 1011 013c BFB2     		uxth	r7, r7
 1012              	.LVL68:
 1013              	.LBB741:
 1014              	.LBI735:
 171:../../libdaisy/src/hid/disp/display.h ****     {
 1015              		.loc 6 171 10 is_stmt 1 view .LVU224
 1016              	.LBB738:
 173:../../libdaisy/src/hid/disp/display.h ****         currentY_ = (y >= Height()) ? Height() - 1 : y;
 1017              		.loc 6 173 9 view .LVU225
 1018 013e 8B42     		cmp	r3, r1
 1019 0140 34D1     		bne	.L69
 173:../../libdaisy/src/hid/disp/display.h ****         currentY_ = (y >= Height()) ? Height() - 1 : y;
 1020              		.loc 6 173 33 is_stmt 0 view .LVU226
 1021 0142 8020     		movs	r0, #128
 1022              	.L45:
 173:../../libdaisy/src/hid/disp/display.h ****         currentY_ = (y >= Height()) ? Height() - 1 : y;
 1023              		.loc 6 173 19 view .LVU227
 1024 0144 8742     		cmp	r7, r0
 1025 0146 04D3     		bcc	.L46
 173:../../libdaisy/src/hid/disp/display.h ****         currentY_ = (y >= Height()) ? Height() - 1 : y;
ARM GAS  /tmp/ccPAoVZi.s 			page 45


 1026              		.loc 6 173 44 view .LVU228
 1027 0148 D368     		ldr	r3, [r2, #12]
 1028 014a 2349     		ldr	r1, .L73
 1029 014c 8B42     		cmp	r3, r1
 1030 014e 3BD1     		bne	.L70
 1031 0150 7F27     		movs	r7, #127
 1032              	.LVL69:
 1033              	.L46:
 174:../../libdaisy/src/hid/disp/display.h ****     }
 1034              		.loc 6 174 34 view .LVU229
 1035 0152 9368     		ldr	r3, [r2, #8]
 1036 0154 214A     		ldr	r2, .L73+4
 173:../../libdaisy/src/hid/disp/display.h ****         currentY_ = (y >= Height()) ? Height() - 1 : y;
 1037              		.loc 6 173 19 view .LVU230
 1038 0156 A8F80470 		strh	r7, [r8, #4]	@ movhi
 174:../../libdaisy/src/hid/disp/display.h ****     }
 1039              		.loc 6 174 9 is_stmt 1 view .LVU231
 1040 015a 9342     		cmp	r3, r2
 1041 015c 23D1     		bne	.L71
 174:../../libdaisy/src/hid/disp/display.h ****     }
 1042              		.loc 6 174 34 is_stmt 0 view .LVU232
 1043 015e 4020     		movs	r0, #64
 1044              	.L48:
 174:../../libdaisy/src/hid/disp/display.h ****     }
 1045              		.loc 6 174 19 view .LVU233
 1046 0160 009B     		ldr	r3, [sp]
 1047 0162 8342     		cmp	r3, r0
 1048 0164 07D3     		bcc	.L49
 174:../../libdaisy/src/hid/disp/display.h ****     }
 1049              		.loc 6 174 46 view .LVU234
 1050 0166 D8F80030 		ldr	r3, [r8]
 1051 016a 1C4A     		ldr	r2, .L73+4
 1052 016c 9B68     		ldr	r3, [r3, #8]
 1053 016e 9342     		cmp	r3, r2
 1054 0170 24D1     		bne	.L72
 1055 0172 3F23     		movs	r3, #63
 1056 0174 0093     		str	r3, [sp]
 1057              	.LVL70:
 1058              	.L49:
 174:../../libdaisy/src/hid/disp/display.h ****     }
 1059              		.loc 6 174 19 view .LVU235
 1060 0176 009B     		ldr	r3, [sp]
 1061 0178 A8F80630 		strh	r3, [r8, #6]	@ movhi
 1062              	.LVL71:
 1063              	.L31:
 174:../../libdaisy/src/hid/disp/display.h ****     }
 1064              		.loc 6 174 19 view .LVU236
 1065              	.LBE738:
 1066              	.LBE741:
 1067              	.LBE704:
 1068              	.LBE703:
 444:../../libdaisy/src/hid/disp/display.h ****         {
 445:../../libdaisy/src/hid/disp/display.h ****             if(((ChildType*)(this))->ChildType::WriteChar(*str, font, on)
 446:../../libdaisy/src/hid/disp/display.h ****                != *str)
 1069              		.loc 6 446 16 view .LVU237
 1070 017c 9BF80000 		ldrb	r0, [fp]	@ zero_extendqisi2
 445:../../libdaisy/src/hid/disp/display.h ****                != *str)
ARM GAS  /tmp/ccPAoVZi.s 			page 46


 1071              		.loc 6 445 13 view .LVU238
 1072 0180 A842     		cmp	r0, r5
 1073 0182 05D1     		bne	.L29
 1074              	.LVL72:
 443:../../libdaisy/src/hid/disp/display.h ****         {
 1075              		.loc 6 443 9 is_stmt 1 view .LVU239
 1076 0184 1BF8015F 		ldrb	r5, [fp, #1]!	@ zero_extendqisi2
 1077              	.LVL73:
 443:../../libdaisy/src/hid/disp/display.h ****         {
 1078              		.loc 6 443 9 is_stmt 0 view .LVU240
 1079 0188 002D     		cmp	r5, #0
 1080 018a 7FF452AF 		bne	.L52
 1081              	.LVL74:
 1082              	.L51:
 1083              	.LBB745:
 1084              	.LBB743:
 402:../../libdaisy/src/hid/disp/display.h **** 
 1085              		.loc 6 402 20 view .LVU241
 1086 018e 0020     		movs	r0, #0
 1087              	.LVL75:
 1088              	.L29:
 402:../../libdaisy/src/hid/disp/display.h **** 
 1089              		.loc 6 402 20 view .LVU242
 1090              	.LBE743:
 1091              	.LBE745:
 447:../../libdaisy/src/hid/disp/display.h ****             {
 448:../../libdaisy/src/hid/disp/display.h ****                 // Char could not be written
 449:../../libdaisy/src/hid/disp/display.h ****                 return *str;
 450:../../libdaisy/src/hid/disp/display.h ****             }
 451:../../libdaisy/src/hid/disp/display.h **** 
 452:../../libdaisy/src/hid/disp/display.h ****             // Next char
 453:../../libdaisy/src/hid/disp/display.h ****             str++;
 454:../../libdaisy/src/hid/disp/display.h ****         }
 455:../../libdaisy/src/hid/disp/display.h **** 
 456:../../libdaisy/src/hid/disp/display.h ****         // Everything ok
 457:../../libdaisy/src/hid/disp/display.h ****         return *str;
 458:../../libdaisy/src/hid/disp/display.h ****     }
 1092              		.loc 6 458 5 view .LVU243
 1093 0190 09B0     		add	sp, sp, #36
 1094              		.cfi_remember_state
 1095              		.cfi_def_cfa_offset 36
 1096              		@ sp needed
 1097 0192 BDE8F08F 		pop	{r4, r5, r6, r7, r8, r9, r10, fp, pc}
 1098              	.LVL76:
 1099              	.L33:
 1100              		.cfi_restore_state
 1101              	.LBB746:
 1102              	.LBB744:
 402:../../libdaisy/src/hid/disp/display.h **** 
 1103              		.loc 6 402 20 view .LVU244
 1104 0196 0025     		movs	r5, #0
 1105              	.LVL77:
 402:../../libdaisy/src/hid/disp/display.h **** 
 1106              		.loc 6 402 20 view .LVU245
 1107 0198 F0E7     		b	.L31
 1108              	.LVL78:
 1109              	.L66:
ARM GAS  /tmp/ccPAoVZi.s 			page 47


 405:../../libdaisy/src/hid/disp/display.h ****            || Height() < (currentY_ + font.FontHeight))
 1110              		.loc 6 405 17 view .LVU246
 1111 019a 4046     		mov	r0, r8
 1112 019c 9847     		blx	r3
 1113              	.LVL79:
 1114 019e 56E7     		b	.L32
 1115              	.L67:
 406:../../libdaisy/src/hid/disp/display.h ****         {
 1116              		.loc 6 406 21 view .LVU247
 1117 01a0 4046     		mov	r0, r8
 1118 01a2 9847     		blx	r3
 1119              	.LVL80:
 1120 01a4 61E7     		b	.L34
 1121              	.LVL81:
 1122              	.L71:
 1123              	.LBB742:
 1124              	.LBB739:
 174:../../libdaisy/src/hid/disp/display.h ****     }
 1125              		.loc 6 174 33 view .LVU248
 1126 01a6 4046     		mov	r0, r8
 1127 01a8 9847     		blx	r3
 1128              	.LVL82:
 1129 01aa D9E7     		b	.L48
 1130              	.LVL83:
 1131              	.L69:
 173:../../libdaisy/src/hid/disp/display.h ****         currentY_ = (y >= Height()) ? Height() - 1 : y;
 1132              		.loc 6 173 32 view .LVU249
 1133 01ac 4046     		mov	r0, r8
 1134 01ae 9847     		blx	r3
 1135              	.LVL84:
 1136 01b0 D8F80020 		ldr	r2, [r8]
 1137 01b4 C6E7     		b	.L45
 1138              	.LVL85:
 1139              	.L35:
 173:../../libdaisy/src/hid/disp/display.h ****         currentY_ = (y >= Height()) ? Height() - 1 : y;
 1140              		.loc 6 173 32 view .LVU250
 1141 01b6 B8F80470 		ldrh	r7, [r8, #4]
 1142 01ba BAE7     		b	.L37
 1143              	.LVL86:
 1144              	.L72:
 174:../../libdaisy/src/hid/disp/display.h ****     }
 1145              		.loc 6 174 45 view .LVU251
 1146 01bc 4046     		mov	r0, r8
 1147 01be 9847     		blx	r3
 1148              	.LVL87:
 1149 01c0 0138     		subs	r0, r0, #1
 1150 01c2 83B2     		uxth	r3, r0
 1151 01c4 0093     		str	r3, [sp]
 1152              	.LVL88:
 174:../../libdaisy/src/hid/disp/display.h ****     }
 1153              		.loc 6 174 45 view .LVU252
 1154 01c6 D6E7     		b	.L49
 1155              	.LVL89:
 1156              	.L70:
 173:../../libdaisy/src/hid/disp/display.h ****         currentY_ = (y >= Height()) ? Height() - 1 : y;
 1157              		.loc 6 173 43 view .LVU253
 1158 01c8 4046     		mov	r0, r8
ARM GAS  /tmp/ccPAoVZi.s 			page 48


 1159 01ca 9847     		blx	r3
 1160              	.LVL90:
 1161 01cc 0138     		subs	r0, r0, #1
 1162 01ce D8F80020 		ldr	r2, [r8]
 1163 01d2 87B2     		uxth	r7, r0
 1164              	.LVL91:
 173:../../libdaisy/src/hid/disp/display.h ****         currentY_ = (y >= Height()) ? Height() - 1 : y;
 1165              		.loc 6 173 43 view .LVU254
 1166 01d4 BDE7     		b	.L46
 1167              	.L74:
 1168 01d6 00BF     		.align	2
 1169              	.L73:
 1170 01d8 00000000 		.word	_ZNK5daisy11OledDisplayINS_13SSD130xDriverILj128ELj64ENS_24SSD130x4WireSpiTransportEEEE5Widt
 1171 01dc 00000000 		.word	_ZNK5daisy11OledDisplayINS_13SSD130xDriverILj128ELj64ENS_24SSD130x4WireSpiTransportEEEE6Heig
 1172              	.LBE739:
 1173              	.LBE742:
 1174              	.LBE744:
 1175              	.LBE746:
 1176              		.cfi_endproc
 1177              	.LFE4553:
 1179              		.section	.text._ZN5daisy11OledDisplayINS_13SSD130xDriverILj128ELj64ENS_24SSD130x4WireSpiTransportE
 1180              		.align	1
 1181              		.p2align 2,,3
 1182              		.weak	_ZN5daisy11OledDisplayINS_13SSD130xDriverILj128ELj64ENS_24SSD130x4WireSpiTransportEEEE9DrawP
 1183              		.syntax unified
 1184              		.thumb
 1185              		.thumb_func
 1186              		.fpu fpv5-d16
 1188              	_ZN5daisy11OledDisplayINS_13SSD130xDriverILj128ELj64ENS_24SSD130x4WireSpiTransportEEEE9DrawPixelEjj
 1189              	.LVL92:
 1190              	.LFB4720:
  41:../../libdaisy/src/hid/disp/oled_display.h ****     {
 1191              		.loc 5 41 10 is_stmt 1 view -0
 1192              		.cfi_startproc
 1193              		@ args = 0, pretend = 0, frame = 0
 1194              		@ frame_needed = 0, uses_anonymous_args = 0
 1195              		@ link register save eliminated.
 1196              	.LBB751:
 1197              	.LBI751:
 239:../../libdaisy/src/dev/oled_ssd130x.h ****     {
 1198              		.loc 15 239 10 view .LVU256
 1199              	.LBB752:
 241:../../libdaisy/src/dev/oled_ssd130x.h ****             return;
 1200              		.loc 15 241 9 is_stmt 0 view .LVU257
 1201 0000 7F29     		cmp	r1, #127
 1202 0002 21D8     		bhi	.L79
 1203 0004 3F2A     		cmp	r2, #63
 1204 0006 1FD8     		bhi	.L79
 1205              	.LBE752:
 1206              	.LBE751:
  41:../../libdaisy/src/hid/disp/oled_display.h ****     {
 1207              		.loc 5 41 10 view .LVU258
 1208 0008 10B4     		push	{r4}
 1209              		.cfi_def_cfa_offset 4
 1210              		.cfi_offset 4, -4
 1211              	.LBB757:
 1212              	.LBB755:
ARM GAS  /tmp/ccPAoVZi.s 			page 49


 243:../../libdaisy/src/dev/oled_ssd130x.h ****             buffer_[x + (y / 8) * width] |= (1 << (y % 8));
 1213              		.loc 15 243 9 view .LVU259
 1214 000a 73B9     		cbnz	r3, .L82
 1215              	.LVL93:
 1216              	.LBB753:
 1217              	.LBI753:
 239:../../libdaisy/src/dev/oled_ssd130x.h ****     {
 1218              		.loc 15 239 10 is_stmt 1 view .LVU260
 1219              	.LBB754:
 246:../../libdaisy/src/dev/oled_ssd130x.h ****     }
 1220              		.loc 15 246 28 is_stmt 0 view .LVU261
 1221 000c D308     		lsrs	r3, r2, #3
 1222              	.LVL94:
 246:../../libdaisy/src/dev/oled_ssd130x.h ****     }
 1223              		.loc 15 246 49 view .LVU262
 1224 000e 0124     		movs	r4, #1
 246:../../libdaisy/src/dev/oled_ssd130x.h ****     }
 1225              		.loc 15 246 55 view .LVU263
 1226 0010 02F00702 		and	r2, r2, #7
 1227              	.LVL95:
 246:../../libdaisy/src/dev/oled_ssd130x.h ****     }
 1228              		.loc 15 246 42 view .LVU264
 1229 0014 01EBC313 		add	r3, r1, r3, lsl #7
 246:../../libdaisy/src/dev/oled_ssd130x.h ****     }
 1230              		.loc 15 246 49 view .LVU265
 1231 0018 9440     		lsls	r4, r4, r2
 246:../../libdaisy/src/dev/oled_ssd130x.h ****     }
 1232              		.loc 15 246 13 view .LVU266
 1233 001a C118     		adds	r1, r0, r3
 1234              	.LVL96:
 246:../../libdaisy/src/dev/oled_ssd130x.h ****     }
 1235              		.loc 15 246 42 view .LVU267
 1236 001c 0A7D     		ldrb	r2, [r1, #20]	@ zero_extendqisi2
 1237 001e 22EA0402 		bic	r2, r2, r4
 246:../../libdaisy/src/dev/oled_ssd130x.h ****     }
 1238              		.loc 15 246 13 view .LVU268
 1239 0022 0A75     		strb	r2, [r1, #20]
 1240              	.LVL97:
 246:../../libdaisy/src/dev/oled_ssd130x.h ****     }
 1241              		.loc 15 246 13 view .LVU269
 1242              	.LBE754:
 1243              	.LBE753:
 1244              	.LBE755:
 1245              	.LBE757:
  44:../../libdaisy/src/hid/disp/oled_display.h **** 
 1246              		.loc 5 44 5 view .LVU270
 1247 0024 5DF8044B 		ldr	r4, [sp], #4
 1248              		.cfi_remember_state
 1249              		.cfi_restore 4
 1250              		.cfi_def_cfa_offset 0
 1251 0028 7047     		bx	lr
 1252              	.LVL98:
 1253              	.L82:
 1254              		.cfi_restore_state
 1255              	.LBB758:
 1256              	.LBB756:
 244:../../libdaisy/src/dev/oled_ssd130x.h ****         else
ARM GAS  /tmp/ccPAoVZi.s 			page 50


 1257              		.loc 15 244 28 view .LVU271
 1258 002a D408     		lsrs	r4, r2, #3
 244:../../libdaisy/src/dev/oled_ssd130x.h ****         else
 1259              		.loc 15 244 48 view .LVU272
 1260 002c 0123     		movs	r3, #1
 1261              	.LVL99:
 244:../../libdaisy/src/dev/oled_ssd130x.h ****         else
 1262              		.loc 15 244 54 view .LVU273
 1263 002e 02F00702 		and	r2, r2, #7
 1264              	.LVL100:
 244:../../libdaisy/src/dev/oled_ssd130x.h ****         else
 1265              		.loc 15 244 42 view .LVU274
 1266 0032 01EBC414 		add	r4, r1, r4, lsl #7
 244:../../libdaisy/src/dev/oled_ssd130x.h ****         else
 1267              		.loc 15 244 48 view .LVU275
 1268 0036 03FA02F2 		lsl	r2, r3, r2
 244:../../libdaisy/src/dev/oled_ssd130x.h ****         else
 1269              		.loc 15 244 13 view .LVU276
 1270 003a 0119     		adds	r1, r0, r4
 1271              	.LVL101:
 244:../../libdaisy/src/dev/oled_ssd130x.h ****         else
 1272              		.loc 15 244 42 view .LVU277
 1273 003c 0B7D     		ldrb	r3, [r1, #20]	@ zero_extendqisi2
 1274 003e 1A43     		orrs	r2, r2, r3
 244:../../libdaisy/src/dev/oled_ssd130x.h ****         else
 1275              		.loc 15 244 13 view .LVU278
 1276 0040 0A75     		strb	r2, [r1, #20]
 1277              	.LBE756:
 1278              	.LBE758:
  44:../../libdaisy/src/hid/disp/oled_display.h **** 
 1279              		.loc 5 44 5 view .LVU279
 1280 0042 5DF8044B 		ldr	r4, [sp], #4
 1281              		.cfi_restore 4
 1282              		.cfi_def_cfa_offset 0
 1283 0046 7047     		bx	lr
 1284              	.LVL102:
 1285              	.L79:
  44:../../libdaisy/src/hid/disp/oled_display.h **** 
 1286              		.loc 5 44 5 view .LVU280
 1287 0048 7047     		bx	lr
 1288              		.cfi_endproc
 1289              	.LFE4720:
 1291 004a 00BF     		.section	.text._ZN5daisy25OneBitGraphicsDisplayImplINS_11OledDisplayINS_13SSD130xDriverILj128ELj64
 1292              		.align	1
 1293              		.p2align 2,,3
 1294              		.weak	_ZN5daisy25OneBitGraphicsDisplayImplINS_11OledDisplayINS_13SSD130xDriverILj128ELj64ENS_24SSD
 1295              		.syntax unified
 1296              		.thumb
 1297              		.thumb_func
 1298              		.fpu fpv5-d16
 1300              	_ZN5daisy25OneBitGraphicsDisplayImplINS_11OledDisplayINS_13SSD130xDriverILj128ELj64ENS_24SSD130x4Wi
 1301              	.LVL103:
 1302              	.LFB4828:
 459:../../libdaisy/src/hid/disp/display.h **** 
 460:../../libdaisy/src/hid/disp/display.h ****     Rectangle WriteStringAligned(const char*    str,
 1303              		.loc 6 460 15 is_stmt 1 view -0
 1304              		.cfi_startproc
ARM GAS  /tmp/ccPAoVZi.s 			page 51


 1305              		@ args = 12, pretend = 0, frame = 40
 1306              		@ frame_needed = 0, uses_anonymous_args = 0
 1307              		.loc 6 460 15 is_stmt 0 view .LVU282
 1308 0000 2DE9F04F 		push	{r4, r5, r6, r7, r8, r9, r10, fp, lr}
 1309              		.cfi_def_cfa_offset 36
 1310              		.cfi_offset 4, -36
 1311              		.cfi_offset 5, -32
 1312              		.cfi_offset 6, -28
 1313              		.cfi_offset 7, -24
 1314              		.cfi_offset 8, -20
 1315              		.cfi_offset 9, -16
 1316              		.cfi_offset 10, -12
 1317              		.cfi_offset 11, -8
 1318              		.cfi_offset 14, -4
 1319 0004 0C46     		mov	r4, r1
 1320 0006 8BB0     		sub	sp, sp, #44
 1321              		.cfi_def_cfa_offset 80
 1322              	.LBB893:
 1323              	.LBB894:
 1324              	.LBB895:
 1325              	.LBB896:
 461:../../libdaisy/src/hid/disp/display.h ****                                  const FontDef& font,
 462:../../libdaisy/src/hid/disp/display.h ****                                  Rectangle      boundingBox,
 463:../../libdaisy/src/hid/disp/display.h ****                                  Alignment      alignment,
 464:../../libdaisy/src/hid/disp/display.h ****                                  bool           on) override
 465:../../libdaisy/src/hid/disp/display.h ****     {
 466:../../libdaisy/src/hid/disp/display.h ****         const auto alignedRect
 467:../../libdaisy/src/hid/disp/display.h ****             = GetTextRect(str, font).AlignedWithin(boundingBox, alignment);
 468:../../libdaisy/src/hid/disp/display.h ****         SetCursor(alignedRect.GetX(), alignedRect.GetY());
 469:../../libdaisy/src/hid/disp/display.h ****         ((ChildType*)(this))->ChildType::WriteString(str, font, on);
 470:../../libdaisy/src/hid/disp/display.h ****         return alignedRect;
 471:../../libdaisy/src/hid/disp/display.h ****     }
 472:../../libdaisy/src/hid/disp/display.h **** 
 473:../../libdaisy/src/hid/disp/display.h ****   private:
 474:../../libdaisy/src/hid/disp/display.h ****     uint32_t strlen(const char* string)
 475:../../libdaisy/src/hid/disp/display.h ****     {
 476:../../libdaisy/src/hid/disp/display.h ****         uint32_t result = 0;
 477:../../libdaisy/src/hid/disp/display.h ****         while(*string++ != '\0')
 1326              		.loc 6 477 25 view .LVU283
 1327 0008 1146     		mov	r1, r2
 1328              	.LVL104:
 1329              		.loc 6 477 25 view .LVU284
 1330              	.LBE896:
 1331              	.LBE895:
 1332              	.LBE894:
 1333              	.LBE893:
 460:../../libdaisy/src/hid/disp/display.h ****                                  const FontDef& font,
 1334              		.loc 6 460 15 view .LVU285
 1335 000a 9046     		mov	r8, r2
 1336 000c 0990     		str	r0, [sp, #36]
 1337 000e 1D46     		mov	r5, r3
 1338              	.LVL105:
 1339              	.LBB911:
 1340              	.LBI893:
 478:../../libdaisy/src/hid/disp/display.h ****             result++;
 479:../../libdaisy/src/hid/disp/display.h ****         return result;
 480:../../libdaisy/src/hid/disp/display.h ****     }
ARM GAS  /tmp/ccPAoVZi.s 			page 52


 481:../../libdaisy/src/hid/disp/display.h **** 
 482:../../libdaisy/src/hid/disp/display.h ****     Rectangle GetTextRect(const char* text, const FontDef& font)
 1341              		.loc 6 482 15 is_stmt 1 view .LVU286
 1342              	.LBB907:
 1343              	.LBB900:
 1344              	.LBB897:
 477:../../libdaisy/src/hid/disp/display.h ****             result++;
 1345              		.loc 6 477 25 view .LVU287
 477:../../libdaisy/src/hid/disp/display.h ****             result++;
 1346              		.loc 6 477 25 is_stmt 0 view .LVU288
 1347              	.LBE897:
 1348              	.LBE900:
 1349              	.LBE907:
 1350              	.LBE911:
 460:../../libdaisy/src/hid/disp/display.h ****                                  const FontDef& font,
 1351              		.loc 6 460 15 view .LVU289
 1352 0010 9DF85800 		ldrb	r0, [sp, #88]	@ zero_extendqisi2
 1353              	.LVL106:
 1354              	.LBB912:
 1355              	.LBB908:
 1356              	.LBB901:
 1357              	.LBB898:
 477:../../libdaisy/src/hid/disp/display.h ****             result++;
 1358              		.loc 6 477 25 view .LVU290
 1359 0014 11F8012B 		ldrb	r2, [r1], #1	@ zero_extendqisi2
 1360              	.LVL107:
 477:../../libdaisy/src/hid/disp/display.h ****             result++;
 1361              		.loc 6 477 25 view .LVU291
 1362              	.LBE898:
 1363              	.LBE901:
 1364              	.LBE908:
 1365              	.LBE912:
 460:../../libdaisy/src/hid/disp/display.h ****                                  const FontDef& font,
 1366              		.loc 6 460 15 view .LVU292
 1367 0018 0890     		str	r0, [sp, #32]
 1368 001a DDE91463 		ldrd	r6, r3, [sp, #80]
 1369              	.LVL108:
 1370              	.LBB913:
 1371              	.LBB909:
 1372              	.LBB902:
 1373              	.LBB899:
 477:../../libdaisy/src/hid/disp/display.h ****             result++;
 1374              		.loc 6 477 25 view .LVU293
 1375 001e 32B1     		cbz	r2, .L84
 476:../../libdaisy/src/hid/disp/display.h ****         while(*string++ != '\0')
 1376              		.loc 6 476 18 view .LVU294
 1377 0020 0022     		movs	r2, #0
 1378              	.LVL109:
 1379              	.L85:
 477:../../libdaisy/src/hid/disp/display.h ****             result++;
 1380              		.loc 6 477 25 view .LVU295
 1381 0022 11F8010B 		ldrb	r0, [r1], #1	@ zero_extendqisi2
 1382              	.LVL110:
 478:../../libdaisy/src/hid/disp/display.h ****             result++;
 1383              		.loc 6 478 13 view .LVU296
 1384 0026 0132     		adds	r2, r2, #1
 1385              	.LVL111:
ARM GAS  /tmp/ccPAoVZi.s 			page 53


 477:../../libdaisy/src/hid/disp/display.h ****             result++;
 1386              		.loc 6 477 25 is_stmt 1 view .LVU297
 1387 0028 0028     		cmp	r0, #0
 1388 002a FAD1     		bne	.L85
 1389 002c 92B2     		uxth	r2, r2
 1390              	.LVL112:
 1391              	.L84:
 477:../../libdaisy/src/hid/disp/display.h ****             result++;
 1392              		.loc 6 477 25 is_stmt 0 view .LVU298
 1393              	.LBE899:
 1394              	.LBE902:
 483:../../libdaisy/src/hid/disp/display.h ****     {
 484:../../libdaisy/src/hid/disp/display.h ****         const auto numChars = strlen(text);
 485:../../libdaisy/src/hid/disp/display.h ****         return {int16_t(numChars * font.FontWidth), font.FontHeight};
 1395              		.loc 6 485 68 view .LVU299
 1396 002e 2978     		ldrb	r1, [r5]	@ zero_extendqisi2
 1397              		.loc 6 485 58 view .LVU300
 1398 0030 6878     		ldrb	r0, [r5, #1]	@ zero_extendqisi2
 1399              		.loc 6 485 68 view .LVU301
 1400 0032 11FB02F2 		smulbb	r2, r1, r2
 1401 0036 01B2     		sxth	r1, r0
 1402              	.LVL113:
 1403              	.LBB903:
 1404              	.LBI903:
 1405              		.file 17 "../../libdaisy/src/hid/disp/graphics_common.h"
   1:../../libdaisy/src/hid/disp/graphics_common.h **** #pragma once
   2:../../libdaisy/src/hid/disp/graphics_common.h **** 
   3:../../libdaisy/src/hid/disp/graphics_common.h **** #include <cstdint>
   4:../../libdaisy/src/hid/disp/graphics_common.h **** 
   5:../../libdaisy/src/hid/disp/graphics_common.h **** namespace daisy
   6:../../libdaisy/src/hid/disp/graphics_common.h **** {
   7:../../libdaisy/src/hid/disp/graphics_common.h **** /** Justifications */
   8:../../libdaisy/src/hid/disp/graphics_common.h **** enum class Alignment
   9:../../libdaisy/src/hid/disp/graphics_common.h **** {
  10:../../libdaisy/src/hid/disp/graphics_common.h ****     centered,
  11:../../libdaisy/src/hid/disp/graphics_common.h ****     topLeft,
  12:../../libdaisy/src/hid/disp/graphics_common.h ****     topCentered,
  13:../../libdaisy/src/hid/disp/graphics_common.h ****     topRight,
  14:../../libdaisy/src/hid/disp/graphics_common.h ****     bottomLeft,
  15:../../libdaisy/src/hid/disp/graphics_common.h ****     bottomCentered,
  16:../../libdaisy/src/hid/disp/graphics_common.h ****     bottomRight,
  17:../../libdaisy/src/hid/disp/graphics_common.h ****     centeredLeft,
  18:../../libdaisy/src/hid/disp/graphics_common.h ****     centeredRight
  19:../../libdaisy/src/hid/disp/graphics_common.h **** };
  20:../../libdaisy/src/hid/disp/graphics_common.h **** 
  21:../../libdaisy/src/hid/disp/graphics_common.h **** class Rectangle
  22:../../libdaisy/src/hid/disp/graphics_common.h **** {
  23:../../libdaisy/src/hid/disp/graphics_common.h ****   public:
  24:../../libdaisy/src/hid/disp/graphics_common.h ****     Rectangle() : x_(0), y_(0), width_(0), height_(0) {}
  25:../../libdaisy/src/hid/disp/graphics_common.h **** 
  26:../../libdaisy/src/hid/disp/graphics_common.h ****     Rectangle(int16_t width, int16_t height)
 1406              		.loc 17 26 5 is_stmt 1 view .LVU302
 1407              	.LBB904:
 1408              	.LBI904:
  27:../../libdaisy/src/hid/disp/graphics_common.h ****     : x_(0), y_(0), width_(max(0, width)), height_(max(0, height))
  28:../../libdaisy/src/hid/disp/graphics_common.h ****     {
  29:../../libdaisy/src/hid/disp/graphics_common.h ****     }
ARM GAS  /tmp/ccPAoVZi.s 			page 54


  30:../../libdaisy/src/hid/disp/graphics_common.h **** 
  31:../../libdaisy/src/hid/disp/graphics_common.h ****     Rectangle(int16_t x, int16_t y, int16_t width, int16_t height)
  32:../../libdaisy/src/hid/disp/graphics_common.h ****     : x_(x), y_(y), width_(max(0, width)), height_(max(0, height))
  33:../../libdaisy/src/hid/disp/graphics_common.h ****     {
  34:../../libdaisy/src/hid/disp/graphics_common.h ****     }
  35:../../libdaisy/src/hid/disp/graphics_common.h **** 
  36:../../libdaisy/src/hid/disp/graphics_common.h ****     Rectangle(const Rectangle& other) { *this = other; }
  37:../../libdaisy/src/hid/disp/graphics_common.h **** 
  38:../../libdaisy/src/hid/disp/graphics_common.h ****     Rectangle& operator=(const Rectangle& other)
  39:../../libdaisy/src/hid/disp/graphics_common.h ****     {
  40:../../libdaisy/src/hid/disp/graphics_common.h ****         x_      = other.x_;
  41:../../libdaisy/src/hid/disp/graphics_common.h ****         y_      = other.y_;
  42:../../libdaisy/src/hid/disp/graphics_common.h ****         width_  = other.width_;
  43:../../libdaisy/src/hid/disp/graphics_common.h ****         height_ = other.height_;
  44:../../libdaisy/src/hid/disp/graphics_common.h ****         return *this;
  45:../../libdaisy/src/hid/disp/graphics_common.h ****     }
  46:../../libdaisy/src/hid/disp/graphics_common.h **** 
  47:../../libdaisy/src/hid/disp/graphics_common.h ****     bool operator==(const Rectangle& other) const
  48:../../libdaisy/src/hid/disp/graphics_common.h ****     {
  49:../../libdaisy/src/hid/disp/graphics_common.h ****         return (x_ == other.x_) && (y_ == other.y_) && (width_ == other.width_)
  50:../../libdaisy/src/hid/disp/graphics_common.h ****                && (height_ == other.height_);
  51:../../libdaisy/src/hid/disp/graphics_common.h ****     }
  52:../../libdaisy/src/hid/disp/graphics_common.h ****     bool operator!=(const Rectangle& other) const { return !(*this == other); }
  53:../../libdaisy/src/hid/disp/graphics_common.h **** 
  54:../../libdaisy/src/hid/disp/graphics_common.h ****     bool IsEmpty() const { return (width_ <= 0) || (height_ <= 0); }
  55:../../libdaisy/src/hid/disp/graphics_common.h **** 
  56:../../libdaisy/src/hid/disp/graphics_common.h ****     int16_t GetX() const { return x_; }
  57:../../libdaisy/src/hid/disp/graphics_common.h ****     int16_t GetY() const { return y_; }
  58:../../libdaisy/src/hid/disp/graphics_common.h ****     int16_t GetWidth() const { return width_; }
  59:../../libdaisy/src/hid/disp/graphics_common.h ****     int16_t GetHeight() const { return height_; }
  60:../../libdaisy/src/hid/disp/graphics_common.h ****     int16_t GetRight() const { return x_ + width_; }
  61:../../libdaisy/src/hid/disp/graphics_common.h ****     int16_t GetBottom() const { return y_ + height_; }
  62:../../libdaisy/src/hid/disp/graphics_common.h ****     int16_t GetCenterX() const { return x_ + width_ / 2; }
  63:../../libdaisy/src/hid/disp/graphics_common.h ****     int16_t GetCenterY() const { return y_ + height_ / 2; }
  64:../../libdaisy/src/hid/disp/graphics_common.h **** 
  65:../../libdaisy/src/hid/disp/graphics_common.h ****     Rectangle WithX(int16_t x) const { return {x, y_, width_, height_}; }
  66:../../libdaisy/src/hid/disp/graphics_common.h ****     Rectangle WithY(int16_t y) const { return {x_, y, width_, height_}; }
  67:../../libdaisy/src/hid/disp/graphics_common.h ****     Rectangle WithWidth(int16_t width) const
  68:../../libdaisy/src/hid/disp/graphics_common.h ****     {
  69:../../libdaisy/src/hid/disp/graphics_common.h ****         return {x_, y_, width, height_};
  70:../../libdaisy/src/hid/disp/graphics_common.h ****     }
  71:../../libdaisy/src/hid/disp/graphics_common.h ****     Rectangle WithHeight(int16_t height) const
  72:../../libdaisy/src/hid/disp/graphics_common.h ****     {
  73:../../libdaisy/src/hid/disp/graphics_common.h ****         return {x_, y_, width_, height};
  74:../../libdaisy/src/hid/disp/graphics_common.h ****     }
  75:../../libdaisy/src/hid/disp/graphics_common.h ****     Rectangle WithSize(int16_t width, int16_t height) const
  76:../../libdaisy/src/hid/disp/graphics_common.h ****     {
  77:../../libdaisy/src/hid/disp/graphics_common.h ****         return {x_, y_, width, height};
  78:../../libdaisy/src/hid/disp/graphics_common.h ****     }
  79:../../libdaisy/src/hid/disp/graphics_common.h ****     Rectangle WithWidthKeepingCenter(int16_t width) const
  80:../../libdaisy/src/hid/disp/graphics_common.h ****     {
  81:../../libdaisy/src/hid/disp/graphics_common.h ****         return Rectangle(x_, y_, width, height_)
  82:../../libdaisy/src/hid/disp/graphics_common.h ****             .WithCenter(GetCenterX(), GetCenterY());
  83:../../libdaisy/src/hid/disp/graphics_common.h ****     }
  84:../../libdaisy/src/hid/disp/graphics_common.h ****     Rectangle WithHeightKeepingCenter(int16_t height) const
  85:../../libdaisy/src/hid/disp/graphics_common.h ****     {
  86:../../libdaisy/src/hid/disp/graphics_common.h ****         return Rectangle(x_, y_, width_, height)
ARM GAS  /tmp/ccPAoVZi.s 			page 55


  87:../../libdaisy/src/hid/disp/graphics_common.h ****             .WithCenter(GetCenterX(), GetCenterY());
  88:../../libdaisy/src/hid/disp/graphics_common.h ****     }
  89:../../libdaisy/src/hid/disp/graphics_common.h ****     Rectangle WithSizeKeepingCenter(int16_t width, int16_t height) const
  90:../../libdaisy/src/hid/disp/graphics_common.h ****     {
  91:../../libdaisy/src/hid/disp/graphics_common.h ****         return Rectangle(x_, y_, width, height)
  92:../../libdaisy/src/hid/disp/graphics_common.h ****             .WithCenter(GetCenterX(), GetCenterY());
  93:../../libdaisy/src/hid/disp/graphics_common.h ****     }
  94:../../libdaisy/src/hid/disp/graphics_common.h **** 
  95:../../libdaisy/src/hid/disp/graphics_common.h ****     Rectangle Reduced(int16_t sizeToReduce) const
  96:../../libdaisy/src/hid/disp/graphics_common.h ****     {
  97:../../libdaisy/src/hid/disp/graphics_common.h ****         return {int16_t(x_ + sizeToReduce),
  98:../../libdaisy/src/hid/disp/graphics_common.h ****                 int16_t(y_ + sizeToReduce),
  99:../../libdaisy/src/hid/disp/graphics_common.h ****                 int16_t(width_ - 2 * sizeToReduce),
 100:../../libdaisy/src/hid/disp/graphics_common.h ****                 int16_t(height_ - 2 * sizeToReduce)};
 101:../../libdaisy/src/hid/disp/graphics_common.h ****     }
 102:../../libdaisy/src/hid/disp/graphics_common.h ****     Rectangle Reduced(int16_t xToReduce, int16_t yToReduce) const
 103:../../libdaisy/src/hid/disp/graphics_common.h ****     {
 104:../../libdaisy/src/hid/disp/graphics_common.h ****         return {int16_t(x_ + xToReduce),
 105:../../libdaisy/src/hid/disp/graphics_common.h ****                 int16_t(y_ + yToReduce),
 106:../../libdaisy/src/hid/disp/graphics_common.h ****                 int16_t(width_ - 2 * xToReduce),
 107:../../libdaisy/src/hid/disp/graphics_common.h ****                 int16_t(height_ - 2 * yToReduce)};
 108:../../libdaisy/src/hid/disp/graphics_common.h ****     }
 109:../../libdaisy/src/hid/disp/graphics_common.h **** 
 110:../../libdaisy/src/hid/disp/graphics_common.h ****     Rectangle Translated(int16_t x, int16_t y) const
 111:../../libdaisy/src/hid/disp/graphics_common.h ****     {
 112:../../libdaisy/src/hid/disp/graphics_common.h ****         return {int16_t(x_ + x), int16_t(y_ + y), width_, height_};
 113:../../libdaisy/src/hid/disp/graphics_common.h ****     }
 114:../../libdaisy/src/hid/disp/graphics_common.h **** 
 115:../../libdaisy/src/hid/disp/graphics_common.h ****     Rectangle WithLeft(int16_t left) const
 116:../../libdaisy/src/hid/disp/graphics_common.h ****     {
 117:../../libdaisy/src/hid/disp/graphics_common.h ****         const auto newWidth = int16_t((x_ - left) + width_);
 118:../../libdaisy/src/hid/disp/graphics_common.h ****         return {left, y_, newWidth, height_};
 119:../../libdaisy/src/hid/disp/graphics_common.h ****     }
 120:../../libdaisy/src/hid/disp/graphics_common.h **** 
 121:../../libdaisy/src/hid/disp/graphics_common.h ****     Rectangle WithRight(int16_t right) const
 122:../../libdaisy/src/hid/disp/graphics_common.h ****     {
 123:../../libdaisy/src/hid/disp/graphics_common.h ****         const auto newWidth = int16_t(right - x_);
 124:../../libdaisy/src/hid/disp/graphics_common.h ****         return {x_, y_, newWidth, height_};
 125:../../libdaisy/src/hid/disp/graphics_common.h ****     }
 126:../../libdaisy/src/hid/disp/graphics_common.h **** 
 127:../../libdaisy/src/hid/disp/graphics_common.h ****     Rectangle WithTop(int16_t top) const
 128:../../libdaisy/src/hid/disp/graphics_common.h ****     {
 129:../../libdaisy/src/hid/disp/graphics_common.h ****         const auto newHeight = int16_t((y_ - top) + height_);
 130:../../libdaisy/src/hid/disp/graphics_common.h ****         return {x_, top, width_, newHeight};
 131:../../libdaisy/src/hid/disp/graphics_common.h ****     }
 132:../../libdaisy/src/hid/disp/graphics_common.h **** 
 133:../../libdaisy/src/hid/disp/graphics_common.h ****     Rectangle WithBottom(int16_t bottom) const
 134:../../libdaisy/src/hid/disp/graphics_common.h ****     {
 135:../../libdaisy/src/hid/disp/graphics_common.h ****         const auto newHeight = int16_t(bottom - y_);
 136:../../libdaisy/src/hid/disp/graphics_common.h ****         return {x_, y_, width_, newHeight};
 137:../../libdaisy/src/hid/disp/graphics_common.h ****     }
 138:../../libdaisy/src/hid/disp/graphics_common.h **** 
 139:../../libdaisy/src/hid/disp/graphics_common.h ****     Rectangle WithTrimmedLeft(int16_t pxToTrim) const
 140:../../libdaisy/src/hid/disp/graphics_common.h ****     {
 141:../../libdaisy/src/hid/disp/graphics_common.h ****         return {
 142:../../libdaisy/src/hid/disp/graphics_common.h ****             int16_t(x_ + pxToTrim), y_, int16_t(width_ - pxToTrim), height_};
 143:../../libdaisy/src/hid/disp/graphics_common.h ****     }
ARM GAS  /tmp/ccPAoVZi.s 			page 56


 144:../../libdaisy/src/hid/disp/graphics_common.h **** 
 145:../../libdaisy/src/hid/disp/graphics_common.h ****     Rectangle WithTrimmedRight(int16_t pxToTrim) const
 146:../../libdaisy/src/hid/disp/graphics_common.h ****     {
 147:../../libdaisy/src/hid/disp/graphics_common.h ****         return {x_, y_, int16_t(width_ - pxToTrim), height_};
 148:../../libdaisy/src/hid/disp/graphics_common.h ****     }
 149:../../libdaisy/src/hid/disp/graphics_common.h **** 
 150:../../libdaisy/src/hid/disp/graphics_common.h ****     Rectangle WithTrimmedTop(int16_t pxToTrim) const
 151:../../libdaisy/src/hid/disp/graphics_common.h ****     {
 152:../../libdaisy/src/hid/disp/graphics_common.h ****         return {
 153:../../libdaisy/src/hid/disp/graphics_common.h ****             x_, int16_t(y_ + pxToTrim), width_, int16_t(height_ - pxToTrim)};
 154:../../libdaisy/src/hid/disp/graphics_common.h ****     }
 155:../../libdaisy/src/hid/disp/graphics_common.h **** 
 156:../../libdaisy/src/hid/disp/graphics_common.h ****     Rectangle WithTrimmedBottom(int16_t pxToTrim) const
 157:../../libdaisy/src/hid/disp/graphics_common.h ****     {
 158:../../libdaisy/src/hid/disp/graphics_common.h ****         return {x_, y_, width_, int16_t(height_ - pxToTrim)};
 159:../../libdaisy/src/hid/disp/graphics_common.h ****     }
 160:../../libdaisy/src/hid/disp/graphics_common.h **** 
 161:../../libdaisy/src/hid/disp/graphics_common.h ****     Rectangle WithCenterX(int16_t centerX) const
 162:../../libdaisy/src/hid/disp/graphics_common.h ****     {
 163:../../libdaisy/src/hid/disp/graphics_common.h ****         return {int16_t(x_ + centerX - GetCenterX()), y_, width_, height_};
 164:../../libdaisy/src/hid/disp/graphics_common.h ****     }
 165:../../libdaisy/src/hid/disp/graphics_common.h **** 
 166:../../libdaisy/src/hid/disp/graphics_common.h ****     Rectangle WithCenterY(int16_t centerY) const
 167:../../libdaisy/src/hid/disp/graphics_common.h ****     {
 168:../../libdaisy/src/hid/disp/graphics_common.h ****         return {x_, int16_t(y_ + centerY - GetCenterY()), width_, height_};
 169:../../libdaisy/src/hid/disp/graphics_common.h ****     }
 170:../../libdaisy/src/hid/disp/graphics_common.h **** 
 171:../../libdaisy/src/hid/disp/graphics_common.h ****     Rectangle WithCenter(int16_t centerX, int16_t centerY) const
 172:../../libdaisy/src/hid/disp/graphics_common.h ****     {
 173:../../libdaisy/src/hid/disp/graphics_common.h ****         return {int16_t(x_ + centerX - GetCenterX()),
 174:../../libdaisy/src/hid/disp/graphics_common.h ****                 int16_t(y_ + centerY - GetCenterY()),
 175:../../libdaisy/src/hid/disp/graphics_common.h ****                 width_,
 176:../../libdaisy/src/hid/disp/graphics_common.h ****                 height_};
 177:../../libdaisy/src/hid/disp/graphics_common.h ****     }
 178:../../libdaisy/src/hid/disp/graphics_common.h **** 
 179:../../libdaisy/src/hid/disp/graphics_common.h ****     Rectangle RemoveFromLeft(int16_t pxToRemove)
 180:../../libdaisy/src/hid/disp/graphics_common.h ****     {
 181:../../libdaisy/src/hid/disp/graphics_common.h ****         const auto result = this->WithWidth(min(pxToRemove, width_));
 182:../../libdaisy/src/hid/disp/graphics_common.h ****         x_ += min(pxToRemove, width_);
 183:../../libdaisy/src/hid/disp/graphics_common.h ****         width_ = max(int16_t(width_ - pxToRemove), 0);
 184:../../libdaisy/src/hid/disp/graphics_common.h ****         return result;
 185:../../libdaisy/src/hid/disp/graphics_common.h ****     }
 186:../../libdaisy/src/hid/disp/graphics_common.h **** 
 187:../../libdaisy/src/hid/disp/graphics_common.h ****     Rectangle RemoveFromRight(int16_t pxToRemove)
 188:../../libdaisy/src/hid/disp/graphics_common.h ****     {
 189:../../libdaisy/src/hid/disp/graphics_common.h ****         const auto canRemove = min(pxToRemove, width_);
 190:../../libdaisy/src/hid/disp/graphics_common.h ****         width_ -= canRemove;
 191:../../libdaisy/src/hid/disp/graphics_common.h ****         return {int16_t(x_ + width_), y_, canRemove, height_};
 192:../../libdaisy/src/hid/disp/graphics_common.h ****     }
 193:../../libdaisy/src/hid/disp/graphics_common.h **** 
 194:../../libdaisy/src/hid/disp/graphics_common.h ****     Rectangle RemoveFromTop(int16_t pxToRemove)
 195:../../libdaisy/src/hid/disp/graphics_common.h ****     {
 196:../../libdaisy/src/hid/disp/graphics_common.h ****         const auto result = this->WithHeight(min(pxToRemove, height_));
 197:../../libdaisy/src/hid/disp/graphics_common.h ****         y_ += min(pxToRemove, height_);
 198:../../libdaisy/src/hid/disp/graphics_common.h ****         height_ = max(height_ - pxToRemove, 0);
 199:../../libdaisy/src/hid/disp/graphics_common.h ****         return result;
 200:../../libdaisy/src/hid/disp/graphics_common.h ****     }
ARM GAS  /tmp/ccPAoVZi.s 			page 57


 201:../../libdaisy/src/hid/disp/graphics_common.h **** 
 202:../../libdaisy/src/hid/disp/graphics_common.h ****     Rectangle RemoveFromBottom(int16_t pxToRemove)
 203:../../libdaisy/src/hid/disp/graphics_common.h ****     {
 204:../../libdaisy/src/hid/disp/graphics_common.h ****         const auto canRemove = min(pxToRemove, height_);
 205:../../libdaisy/src/hid/disp/graphics_common.h ****         height_ -= canRemove;
 206:../../libdaisy/src/hid/disp/graphics_common.h ****         return {x_, int16_t(y_ + height_), width_, canRemove};
 207:../../libdaisy/src/hid/disp/graphics_common.h ****     }
 208:../../libdaisy/src/hid/disp/graphics_common.h **** 
 209:../../libdaisy/src/hid/disp/graphics_common.h ****     Rectangle AlignedWithin(const Rectangle& other, Alignment alignment) const
 210:../../libdaisy/src/hid/disp/graphics_common.h ****     {
 211:../../libdaisy/src/hid/disp/graphics_common.h ****         switch(alignment)
 212:../../libdaisy/src/hid/disp/graphics_common.h ****         {
 213:../../libdaisy/src/hid/disp/graphics_common.h ****             case Alignment::topLeft:
 214:../../libdaisy/src/hid/disp/graphics_common.h ****                 return {other.x_, other.y_, width_, height_};
 215:../../libdaisy/src/hid/disp/graphics_common.h ****             case Alignment::topRight:
 216:../../libdaisy/src/hid/disp/graphics_common.h ****                 return {int16_t(other.GetRight() - width_),
 217:../../libdaisy/src/hid/disp/graphics_common.h ****                         other.y_,
 218:../../libdaisy/src/hid/disp/graphics_common.h ****                         width_,
 219:../../libdaisy/src/hid/disp/graphics_common.h ****                         height_};
 220:../../libdaisy/src/hid/disp/graphics_common.h ****             case Alignment::topCentered:
 221:../../libdaisy/src/hid/disp/graphics_common.h ****                 return {int16_t(x_ + (other.GetCenterX() - GetCenterX())),
 222:../../libdaisy/src/hid/disp/graphics_common.h ****                         other.y_,
 223:../../libdaisy/src/hid/disp/graphics_common.h ****                         width_,
 224:../../libdaisy/src/hid/disp/graphics_common.h ****                         height_};
 225:../../libdaisy/src/hid/disp/graphics_common.h ****             case Alignment::bottomLeft:
 226:../../libdaisy/src/hid/disp/graphics_common.h ****                 return {other.x_,
 227:../../libdaisy/src/hid/disp/graphics_common.h ****                         int16_t(other.GetBottom() - height_),
 228:../../libdaisy/src/hid/disp/graphics_common.h ****                         width_,
 229:../../libdaisy/src/hid/disp/graphics_common.h ****                         height_};
 230:../../libdaisy/src/hid/disp/graphics_common.h ****             case Alignment::bottomRight:
 231:../../libdaisy/src/hid/disp/graphics_common.h ****                 return {int16_t(other.GetRight() - width_),
 232:../../libdaisy/src/hid/disp/graphics_common.h ****                         int16_t(other.GetBottom() - height_),
 233:../../libdaisy/src/hid/disp/graphics_common.h ****                         width_,
 234:../../libdaisy/src/hid/disp/graphics_common.h ****                         height_};
 235:../../libdaisy/src/hid/disp/graphics_common.h ****             case Alignment::bottomCentered:
 236:../../libdaisy/src/hid/disp/graphics_common.h ****                 return {int16_t(x_ + (other.GetCenterX() - GetCenterX())),
 237:../../libdaisy/src/hid/disp/graphics_common.h ****                         int16_t(other.GetBottom() - height_),
 238:../../libdaisy/src/hid/disp/graphics_common.h ****                         width_,
 239:../../libdaisy/src/hid/disp/graphics_common.h ****                         height_};
 240:../../libdaisy/src/hid/disp/graphics_common.h ****             case Alignment::centeredLeft:
 241:../../libdaisy/src/hid/disp/graphics_common.h ****                 return {other.x_,
 242:../../libdaisy/src/hid/disp/graphics_common.h ****                         int16_t(y_ + (other.GetCenterY() - GetCenterY())),
 243:../../libdaisy/src/hid/disp/graphics_common.h ****                         width_,
 244:../../libdaisy/src/hid/disp/graphics_common.h ****                         height_};
 245:../../libdaisy/src/hid/disp/graphics_common.h ****             case Alignment::centeredRight:
 246:../../libdaisy/src/hid/disp/graphics_common.h ****                 return {int16_t(other.GetRight() - width_),
 247:../../libdaisy/src/hid/disp/graphics_common.h ****                         int16_t(y_ + (other.GetCenterY() - GetCenterY())),
 248:../../libdaisy/src/hid/disp/graphics_common.h ****                         width_,
 249:../../libdaisy/src/hid/disp/graphics_common.h ****                         height_};
 250:../../libdaisy/src/hid/disp/graphics_common.h ****             case Alignment::centered:
 251:../../libdaisy/src/hid/disp/graphics_common.h ****                 return {int16_t(x_ + (other.GetCenterX() - GetCenterX())),
 252:../../libdaisy/src/hid/disp/graphics_common.h ****                         int16_t(y_ + (other.GetCenterY() - GetCenterY())),
 253:../../libdaisy/src/hid/disp/graphics_common.h ****                         width_,
 254:../../libdaisy/src/hid/disp/graphics_common.h ****                         height_};
 255:../../libdaisy/src/hid/disp/graphics_common.h ****             default: return {};
 256:../../libdaisy/src/hid/disp/graphics_common.h ****         }
 257:../../libdaisy/src/hid/disp/graphics_common.h ****     }
ARM GAS  /tmp/ccPAoVZi.s 			page 58


 258:../../libdaisy/src/hid/disp/graphics_common.h **** 
 259:../../libdaisy/src/hid/disp/graphics_common.h ****   private:
 260:../../libdaisy/src/hid/disp/graphics_common.h ****     int16_t x_, y_, width_, height_;
 261:../../libdaisy/src/hid/disp/graphics_common.h ****     int16_t max(int16_t a, int16_t b) { return (a > b) ? a : b; }
 1409              		.loc 17 261 13 view .LVU303
 1410              		.loc 17 261 13 is_stmt 0 view .LVU304
 1411              	.LBE904:
 1412              	.LBE903:
 1413              	.LBE909:
 1414              	.LBE913:
 1415              		.loc 17 261 41 is_stmt 1 view .LVU305
 1416 0038 12B2     		sxth	r2, r2
 1417 003a 22EAE272 		bic	r2, r2, r2, asr #31
 1418              	.LVL114:
 1419              	.LBB914:
 1420              	.LBB910:
 1421              	.LBB906:
 1422              	.LBB905:
 1423              	.LBI905:
 1424              		.loc 17 261 13 view .LVU306
 1425              		.loc 17 261 13 is_stmt 0 view .LVU307
 1426              	.LBE905:
 1427              	.LBE906:
 1428              	.LBE910:
 1429              	.LBE914:
 1430              		.loc 17 261 41 is_stmt 1 view .LVU308
 1431              	.LBB915:
 1432              	.LBI915:
 209:../../libdaisy/src/hid/disp/graphics_common.h ****     {
 1433              		.loc 17 209 15 view .LVU309
 1434              	.LBB916:
 211:../../libdaisy/src/hid/disp/graphics_common.h ****         {
 1435              		.loc 17 211 9 view .LVU310
 1436 003e 082B     		cmp	r3, #8
 1437 0040 00F2AD81 		bhi	.L86
 1438 0044 DFE813F0 		tbh	[pc, r3, lsl #1]
 1439              	.L88:
 1440 0048 0001     		.2byte	(.L96-.L88)/2
 1441 004a 1201     		.2byte	(.L95-.L88)/2
 1442 004c 1E01     		.2byte	(.L94-.L88)/2
 1443 004e 3201     		.2byte	(.L93-.L88)/2
 1444 0050 4001     		.2byte	(.L92-.L88)/2
 1445 0052 5001     		.2byte	(.L91-.L88)/2
 1446 0054 6B01     		.2byte	(.L90-.L88)/2
 1447 0056 7801     		.2byte	(.L89-.L88)/2
 1448 0058 0900     		.2byte	(.L87-.L88)/2
 1449              		.p2align 1
 1450              	.L87:
 245:../../libdaisy/src/hid/disp/graphics_common.h ****                 return {int16_t(other.GetRight() - width_),
 1451              		.loc 17 245 13 view .LVU311
 246:../../libdaisy/src/hid/disp/graphics_common.h ****                         int16_t(y_ + (other.GetCenterY() - GetCenterY())),
 1452              		.loc 17 246 17 view .LVU312
 1453              	.LBB917:
 1454              	.LBI917:
  60:../../libdaisy/src/hid/disp/graphics_common.h ****     int16_t GetBottom() const { return y_ + height_; }
 1455              		.loc 17 60 13 view .LVU313
 1456              	.LVL115:
ARM GAS  /tmp/ccPAoVZi.s 			page 59


 1457              	.LBB918:
  60:../../libdaisy/src/hid/disp/graphics_common.h ****     int16_t GetBottom() const { return y_ + height_; }
 1458              		.loc 17 60 32 view .LVU314
  60:../../libdaisy/src/hid/disp/graphics_common.h ****     int16_t GetBottom() const { return y_ + height_; }
 1459              		.loc 17 60 42 is_stmt 0 view .LVU315
 1460 005a 3788     		ldrh	r7, [r6]
 1461 005c B088     		ldrh	r0, [r6, #4]
 1462              	.LBE918:
 1463              	.LBE917:
 1464              	.LBB920:
 1465              	.LBB921:
  63:../../libdaisy/src/hid/disp/graphics_common.h **** 
 1466              		.loc 17 63 54 view .LVU316
 1467 005e B6F90630 		ldrsh	r3, [r6, #6]
 1468              	.LVL116:
  63:../../libdaisy/src/hid/disp/graphics_common.h **** 
 1469              		.loc 17 63 54 view .LVU317
 1470              	.LBE921:
 1471              	.LBE920:
 1472              	.LBB925:
 1473              	.LBB919:
  60:../../libdaisy/src/hid/disp/graphics_common.h ****     int16_t GetBottom() const { return y_ + height_; }
 1474              		.loc 17 60 42 view .LVU318
 1475 0062 0744     		add	r7, r7, r0
 1476              	.LBE919:
 1477              	.LBE925:
 1478              	.LBB926:
 1479              	.LBB922:
  63:../../libdaisy/src/hid/disp/graphics_common.h **** 
 1480              		.loc 17 63 54 view .LVU319
 1481 0064 002B     		cmp	r3, #0
 1482              	.LBE922:
 1483              	.LBE926:
 246:../../libdaisy/src/hid/disp/graphics_common.h ****                         int16_t(y_ + (other.GetCenterY() - GetCenterY())),
 1484              		.loc 17 246 50 view .LVU320
 1485 0066 A7EB0207 		sub	r7, r7, r2
 1486 006a BFB2     		uxth	r7, r7
 1487              	.LBB927:
 1488              	.LBI920:
  63:../../libdaisy/src/hid/disp/graphics_common.h **** 
 1489              		.loc 17 63 13 is_stmt 1 view .LVU321
 1490              	.LVL117:
 1491              	.LBB923:
  63:../../libdaisy/src/hid/disp/graphics_common.h **** 
 1492              		.loc 17 63 34 view .LVU322
  63:../../libdaisy/src/hid/disp/graphics_common.h **** 
 1493              		.loc 17 63 34 is_stmt 0 view .LVU323
 1494              	.LBE923:
 1495              	.LBE927:
 1496              	.LBB928:
 1497              	.LBI928:
  63:../../libdaisy/src/hid/disp/graphics_common.h **** 
 1498              		.loc 17 63 13 is_stmt 1 view .LVU324
 1499              	.LBB929:
  63:../../libdaisy/src/hid/disp/graphics_common.h **** 
 1500              		.loc 17 63 34 view .LVU325
 1501              	.LBE929:
ARM GAS  /tmp/ccPAoVZi.s 			page 60


 1502              	.LBE928:
 1503              	.LBB930:
 1504              	.LBB924:
  63:../../libdaisy/src/hid/disp/graphics_common.h **** 
 1505              		.loc 17 63 54 is_stmt 0 view .LVU326
 1506 006c C0F2FC80 		blt	.L160
 1507              	.LVL118:
 1508              	.L103:
  63:../../libdaisy/src/hid/disp/graphics_common.h **** 
 1509              		.loc 17 63 54 view .LVU327
 1510              	.LBE924:
 1511              	.LBE930:
 1512              	.LBB931:
 1513              	.LBB932:
  63:../../libdaisy/src/hid/disp/graphics_common.h **** 
 1514              		.loc 17 63 44 view .LVU328
 1515 0070 B6F802C0 		ldrh	ip, [r6, #2]
 1516              	.LBE932:
 1517              	.LBE931:
 1518              	.LBB938:
 1519              	.LBB939:
 1520              	.LBB940:
  32:../../libdaisy/src/hid/disp/graphics_common.h ****     {
 1521              		.loc 17 32 66 view .LVU329
 1522 0074 0998     		ldr	r0, [sp, #36]
 1523              	.LBE940:
 1524              	.LBE939:
 1525              	.LBE938:
 1526              	.LBB949:
 1527              	.LBB933:
  63:../../libdaisy/src/hid/disp/graphics_common.h **** 
 1528              		.loc 17 63 44 view .LVU330
 1529 0076 0CEB6306 		add	r6, ip, r3, asr #1
 1530              	.LVL119:
  63:../../libdaisy/src/hid/disp/graphics_common.h **** 
 1531              		.loc 17 63 44 view .LVU331
 1532              	.LBE933:
 1533              	.LBE949:
 1534              	.LBB950:
 1535              	.LBB946:
 1536              	.LBB943:
  32:../../libdaisy/src/hid/disp/graphics_common.h ****     {
 1537              		.loc 17 32 66 view .LVU332
 1538 007a 0346     		mov	r3, r0
 1539 007c 0780     		strh	r7, [r0]	@ movhi
 1540              	.L158:
  32:../../libdaisy/src/hid/disp/graphics_common.h ****     {
 1541              		.loc 17 32 66 view .LVU333
 1542 007e 8280     		strh	r2, [r0, #4]	@ movhi
 1543 0080 D980     		strh	r1, [r3, #6]	@ movhi
 1544              	.LBE943:
 1545              	.LBE946:
 1546              	.LBE950:
 252:../../libdaisy/src/hid/disp/graphics_common.h ****                         width_,
 1547              		.loc 17 252 58 view .LVU334
 1548 0082 A6EB5101 		sub	r1, r6, r1, lsr #1
 1549 0086 8EB2     		uxth	r6, r1
ARM GAS  /tmp/ccPAoVZi.s 			page 61


 1550              	.LVL120:
 1551              	.LBB951:
 1552              	.LBI938:
  31:../../libdaisy/src/hid/disp/graphics_common.h ****     : x_(x), y_(y), width_(max(0, width)), height_(max(0, height))
 1553              		.loc 17 31 5 is_stmt 1 view .LVU335
 1554              	.LBB947:
 1555              	.LBB944:
  32:../../libdaisy/src/hid/disp/graphics_common.h ****     {
 1556              		.loc 17 32 66 is_stmt 0 view .LVU336
 1557 0088 5E80     		strh	r6, [r3, #2]	@ movhi
 1558              	.LVL121:
 1559              	.LBB941:
 1560              	.LBI941:
 1561              		.loc 17 261 13 is_stmt 1 view .LVU337
 1562              		.loc 17 261 13 is_stmt 0 view .LVU338
 1563              	.LBE941:
 1564              	.LBE944:
 1565              	.LBE947:
 1566              	.LBE951:
 1567              	.LBE916:
 1568              	.LBE915:
 1569              		.loc 17 261 41 is_stmt 1 view .LVU339
 1570              	.LBB1136:
 1571              	.LBB1121:
 1572              	.LBB952:
 1573              	.LBB948:
 1574              	.LBB945:
 1575              	.LBB942:
 1576              	.LBI942:
 1577              		.loc 17 261 13 view .LVU340
 1578              		.loc 17 261 13 is_stmt 0 view .LVU341
 1579              	.LBE942:
 1580              	.LBE945:
 1581              	.LBE948:
 1582              	.LBE952:
 1583              	.LBE1121:
 1584              	.LBE1136:
 1585              		.loc 17 261 41 is_stmt 1 view .LVU342
 1586              	.L97:
  56:../../libdaisy/src/hid/disp/graphics_common.h ****     int16_t GetY() const { return y_; }
 1587              		.loc 17 56 28 view .LVU343
  57:../../libdaisy/src/hid/disp/graphics_common.h ****     int16_t GetWidth() const { return width_; }
 1588              		.loc 17 57 28 view .LVU344
 1589              	.LBB1137:
 1590              	.LBI1137:
 171:../../libdaisy/src/hid/disp/display.h ****     {
 1591              		.loc 6 171 10 view .LVU345
 1592              	.LBB1138:
 173:../../libdaisy/src/hid/disp/display.h ****         currentY_ = (y >= Height()) ? Height() - 1 : y;
 1593              		.loc 6 173 9 view .LVU346
 1594 008a B64A     		ldr	r2, .L170
 173:../../libdaisy/src/hid/disp/display.h ****         currentY_ = (y >= Height()) ? Height() - 1 : y;
 1595              		.loc 6 173 33 is_stmt 0 view .LVU347
 1596 008c 2368     		ldr	r3, [r4]
 1597 008e 1146     		mov	r1, r2
 1598 0090 0192     		str	r2, [sp, #4]
 1599 0092 DA68     		ldr	r2, [r3, #12]
ARM GAS  /tmp/ccPAoVZi.s 			page 62


 1600 0094 8A42     		cmp	r2, r1
 1601 0096 40F08F81 		bne	.L105
 1602 009a 8020     		movs	r0, #128
 1603              	.LVL122:
 1604              	.L106:
 173:../../libdaisy/src/hid/disp/display.h ****         currentY_ = (y >= Height()) ? Height() - 1 : y;
 1605              		.loc 6 173 19 view .LVU348
 1606 009c B842     		cmp	r0, r7
 1607 009e 05D8     		bhi	.L107
 173:../../libdaisy/src/hid/disp/display.h ****         currentY_ = (y >= Height()) ? Height() - 1 : y;
 1608              		.loc 6 173 44 view .LVU349
 1609 00a0 DA68     		ldr	r2, [r3, #12]
 1610 00a2 0199     		ldr	r1, [sp, #4]
 1611 00a4 8A42     		cmp	r2, r1
 1612 00a6 40F09A81 		bne	.L161
 1613 00aa 7F27     		movs	r7, #127
 1614              	.L107:
 174:../../libdaisy/src/hid/disp/display.h ****     }
 1615              		.loc 6 174 34 view .LVU350
 1616 00ac 9B68     		ldr	r3, [r3, #8]
 1617 00ae AE4A     		ldr	r2, .L170+4
 173:../../libdaisy/src/hid/disp/display.h ****         currentY_ = (y >= Height()) ? Height() - 1 : y;
 1618              		.loc 6 173 19 view .LVU351
 1619 00b0 A780     		strh	r7, [r4, #4]	@ movhi
 174:../../libdaisy/src/hid/disp/display.h ****     }
 1620              		.loc 6 174 9 is_stmt 1 view .LVU352
 1621 00b2 9342     		cmp	r3, r2
 1622 00b4 0392     		str	r2, [sp, #12]
 1623 00b6 40F08A81 		bne	.L137
 174:../../libdaisy/src/hid/disp/display.h ****     }
 1624              		.loc 6 174 34 is_stmt 0 view .LVU353
 1625 00ba 4020     		movs	r0, #64
 1626              	.L109:
 174:../../libdaisy/src/hid/disp/display.h ****     }
 1627              		.loc 6 174 19 view .LVU354
 1628 00bc B042     		cmp	r0, r6
 1629 00be 06D8     		bhi	.L111
 174:../../libdaisy/src/hid/disp/display.h ****     }
 1630              		.loc 6 174 46 view .LVU355
 1631 00c0 2368     		ldr	r3, [r4]
 1632 00c2 039A     		ldr	r2, [sp, #12]
 1633 00c4 9B68     		ldr	r3, [r3, #8]
 1634 00c6 9342     		cmp	r3, r2
 1635 00c8 40F08481 		bne	.L162
 1636 00cc 3F26     		movs	r6, #63
 1637              	.L111:
 174:../../libdaisy/src/hid/disp/display.h ****     }
 1638              		.loc 6 174 46 view .LVU356
 1639 00ce 6B78     		ldrb	r3, [r5, #1]	@ zero_extendqisi2
 174:../../libdaisy/src/hid/disp/display.h ****     }
 1640              		.loc 6 174 19 view .LVU357
 1641 00d0 E680     		strh	r6, [r4, #6]	@ movhi
 1642              	.LVL123:
 174:../../libdaisy/src/hid/disp/display.h ****     }
 1643              		.loc 6 174 19 view .LVU358
 1644 00d2 0493     		str	r3, [sp, #16]
 1645              	.LBE1138:
ARM GAS  /tmp/ccPAoVZi.s 			page 63


 1646              	.LBE1137:
 1647              	.LBB1142:
 1648              	.LBB1143:
 443:../../libdaisy/src/hid/disp/display.h ****         {
 1649              		.loc 6 443 9 view .LVU359
 1650 00d4 98F80060 		ldrb	r6, [r8]	@ zero_extendqisi2
 1651 00d8 6B68     		ldr	r3, [r5, #4]
 1652 00da 95F800B0 		ldrb	fp, [r5]	@ zero_extendqisi2
 1653              	.LVL124:
 443:../../libdaisy/src/hid/disp/display.h ****         {
 1654              		.loc 6 443 9 view .LVU360
 1655 00de 0793     		str	r3, [sp, #28]
 1656              	.LVL125:
 443:../../libdaisy/src/hid/disp/display.h ****         {
 1657              		.loc 6 443 9 view .LVU361
 1658              	.LBE1143:
 1659              	.LBI1142:
 440:../../libdaisy/src/hid/disp/display.h ****     {
 1660              		.loc 6 440 10 is_stmt 1 view .LVU362
 1661              	.LBB1186:
 443:../../libdaisy/src/hid/disp/display.h ****         {
 1662              		.loc 6 443 9 view .LVU363
 1663 00e0 002E     		cmp	r6, #0
 1664 00e2 00F0AD80 		beq	.L83
 1665              	.LVL126:
 1666              	.L113:
 1667              	.LBB1144:
 1668              	.LBI1144:
 396:../../libdaisy/src/hid/disp/display.h ****     {
 1669              		.loc 6 396 10 view .LVU364
 1670              	.LBB1145:
 401:../../libdaisy/src/hid/disp/display.h ****             return 0;
 1671              		.loc 6 401 20 is_stmt 0 view .LVU365
 1672 00e6 A6F12005 		sub	r5, r6, #32
 401:../../libdaisy/src/hid/disp/display.h ****             return 0;
 1673              		.loc 6 401 9 view .LVU366
 1674 00ea EBB2     		uxtb	r3, r5
 1675 00ec 5E2B     		cmp	r3, #94
 1676 00ee 00F23481 		bhi	.L117
 405:../../libdaisy/src/hid/disp/display.h ****            || Height() < (currentY_ + font.FontHeight))
 1677              		.loc 6 405 17 view .LVU367
 1678 00f2 2368     		ldr	r3, [r4]
 1679 00f4 019A     		ldr	r2, [sp, #4]
 1680 00f6 DB68     		ldr	r3, [r3, #12]
 1681 00f8 9342     		cmp	r3, r2
 1682 00fa 40F03081 		bne	.L163
 1683 00fe 8020     		movs	r0, #128
 1684              	.L116:
 405:../../libdaisy/src/hid/disp/display.h ****            || Height() < (currentY_ + font.FontHeight))
 1685              		.loc 6 405 23 view .LVU368
 1686 0100 A388     		ldrh	r3, [r4, #4]
 405:../../libdaisy/src/hid/disp/display.h ****            || Height() < (currentY_ + font.FontHeight))
 1687              		.loc 6 405 33 view .LVU369
 1688 0102 5B44     		add	r3, r3, fp
 406:../../libdaisy/src/hid/disp/display.h ****         {
 1689              		.loc 6 406 12 view .LVU370
 1690 0104 9842     		cmp	r0, r3
ARM GAS  /tmp/ccPAoVZi.s 			page 64


 1691 0106 C0F22881 		blt	.L117
 406:../../libdaisy/src/hid/disp/display.h ****         {
 1692              		.loc 6 406 21 view .LVU371
 1693 010a 2368     		ldr	r3, [r4]
 1694 010c 039A     		ldr	r2, [sp, #12]
 1695 010e 9B68     		ldr	r3, [r3, #8]
 1696 0110 9342     		cmp	r3, r2
 1697 0112 40F02B81 		bne	.L164
 1698 0116 4020     		movs	r0, #64
 1699              	.L118:
 406:../../libdaisy/src/hid/disp/display.h ****         {
 1700              		.loc 6 406 27 view .LVU372
 1701 0118 E188     		ldrh	r1, [r4, #6]
 406:../../libdaisy/src/hid/disp/display.h ****         {
 1702              		.loc 6 406 37 view .LVU373
 1703 011a 049A     		ldr	r2, [sp, #16]
 406:../../libdaisy/src/hid/disp/display.h ****         {
 1704              		.loc 6 406 27 view .LVU374
 1705 011c 0291     		str	r1, [sp, #8]
 406:../../libdaisy/src/hid/disp/display.h ****         {
 1706              		.loc 6 406 37 view .LVU375
 1707 011e 8B18     		adds	r3, r1, r2
 406:../../libdaisy/src/hid/disp/display.h ****         {
 1708              		.loc 6 406 12 view .LVU376
 1709 0120 9842     		cmp	r0, r3
 1710 0122 C0F21A81 		blt	.L117
 1711              	.LVL127:
 413:../../libdaisy/src/hid/disp/display.h ****         {
 1712              		.loc 6 413 22 is_stmt 1 view .LVU377
 1713 0126 1046     		mov	r0, r2
 1714 0128 002A     		cmp	r2, #0
 1715 012a 00F02981 		beq	.L119
 415:../../libdaisy/src/hid/disp/display.h ****             for(j = 0; j < font.FontWidth; j++)
 1716              		.loc 6 415 37 is_stmt 0 view .LVU378
 1717 012e 1346     		mov	r3, r2
 1718 0130 6FF00047 		mvn	r7, #-2147483648
 1719 0134 B4F804C0 		ldrh	ip, [r4, #4]
 1720 0138 03FB05F3 		mul	r3, r3, r5
 1721 013c 079D     		ldr	r5, [sp, #28]
 1722 013e CDF81880 		str	r8, [sp, #24]
 1723 0142 AA1E     		subs	r2, r5, #2
 1724 0144 1F44     		add	r7, r7, r3
 1725 0146 0344     		add	r3, r3, r0
 1726 0148 DDF82090 		ldr	r9, [sp, #32]
 1727 014c 05EB4707 		add	r7, r5, r7, lsl #1
 1728 0150 0596     		str	r6, [sp, #20]
 1729 0152 02EB4303 		add	r3, r2, r3, lsl #1
 1730 0156 2246     		mov	r2, r4
 1731 0158 5C46     		mov	r4, fp
 1732              	.LVL128:
 415:../../libdaisy/src/hid/disp/display.h ****             for(j = 0; j < font.FontWidth; j++)
 1733              		.loc 6 415 37 view .LVU379
 1734 015a 9846     		mov	r8, r3
 1735              	.LVL129:
 415:../../libdaisy/src/hid/disp/display.h ****             for(j = 0; j < font.FontWidth; j++)
 1736              		.loc 6 415 37 view .LVU380
 1737 015c 9346     		mov	fp, r2
ARM GAS  /tmp/ccPAoVZi.s 			page 65


 1738              	.LVL130:
 1739              	.L122:
 415:../../libdaisy/src/hid/disp/display.h ****             for(j = 0; j < font.FontWidth; j++)
 1740              		.loc 6 415 13 view .LVU381
 1741 015e 37F802AF 		ldrh	r10, [r7, #2]!
 1742              	.LVL131:
 416:../../libdaisy/src/hid/disp/display.h ****             {
 1743              		.loc 6 416 26 is_stmt 1 view .LVU382
 1744 0162 A4B3     		cbz	r4, .L127
 1745              	.LBB1146:
 1746              	.LBB1147:
 1747              	.LBB1148:
 1748              	.LBB1149:
 1749              	.LBB1150:
 246:../../libdaisy/src/dev/oled_ssd130x.h ****     }
 1750              		.loc 15 246 49 is_stmt 0 view .LVU383
 1751 0164 0125     		movs	r5, #1
 246:../../libdaisy/src/dev/oled_ssd130x.h ****     }
 1752              		.loc 15 246 55 view .LVU384
 1753 0166 01F00702 		and	r2, r1, #7
 246:../../libdaisy/src/dev/oled_ssd130x.h ****     }
 1754              		.loc 15 246 28 view .LVU385
 1755 016a C808     		lsrs	r0, r1, #3
 1756 016c 0CF11403 		add	r3, ip, #20
 246:../../libdaisy/src/dev/oled_ssd130x.h ****     }
 1757              		.loc 15 246 49 view .LVU386
 1758 0170 05FA02F2 		lsl	r2, r5, r2
 1759 0174 6546     		mov	r5, ip
 1760 0176 03EBC013 		add	r3, r3, r0, lsl #7
 1761              	.LBE1150:
 1762              	.LBE1149:
 1763              	.LBE1148:
 1764              	.LBE1147:
 1765              	.LBE1146:
 416:../../libdaisy/src/hid/disp/display.h ****             {
 1766              		.loc 6 416 19 view .LVU387
 1767 017a 0020     		movs	r0, #0
 1768              	.LBB1168:
 1769              	.LBB1163:
 1770              	.LBB1158:
 1771              	.LBB1154:
 1772              	.LBB1151:
 246:../../libdaisy/src/dev/oled_ssd130x.h ****     }
 1773              		.loc 15 246 42 view .LVU388
 1774 017c 52B2     		sxtb	r2, r2
 1775 017e 5B44     		add	r3, r3, fp
 1776 0180 6FEA020E 		mvn	lr, r2
 1777 0184 0EE0     		b	.L128
 1778              	.LVL132:
 1779              	.L165:
 246:../../libdaisy/src/dev/oled_ssd130x.h ****     }
 1780              		.loc 15 246 42 view .LVU389
 1781              	.LBE1151:
 1782              	.LBE1154:
 1783              	.LBE1158:
 1784              	.LBE1163:
 1785              	.LBE1168:
ARM GAS  /tmp/ccPAoVZi.s 			page 66


 1786              	.LBB1169:
 1787              	.LBI1169:
  41:../../libdaisy/src/hid/disp/oled_display.h ****     {
 1788              		.loc 5 41 10 is_stmt 1 view .LVU390
 1789              	.LBB1170:
 1790              	.LBI1170:
 239:../../libdaisy/src/dev/oled_ssd130x.h ****     {
 1791              		.loc 15 239 10 view .LVU391
 1792              	.LBB1171:
 241:../../libdaisy/src/dev/oled_ssd130x.h ****             return;
 1793              		.loc 15 241 9 is_stmt 0 view .LVU392
 1794 0186 7F2D     		cmp	r5, #127
 1795 0188 07D8     		bhi	.L124
 1796 018a 3F29     		cmp	r1, #63
 1797 018c 05D8     		bhi	.L124
 244:../../libdaisy/src/dev/oled_ssd130x.h ****         else
 1798              		.loc 15 244 42 view .LVU393
 1799 018e 1E78     		ldrb	r6, [r3]	@ zero_extendqisi2
 243:../../libdaisy/src/dev/oled_ssd130x.h ****             buffer_[x + (y / 8) * width] |= (1 << (y % 8));
 1800              		.loc 15 243 9 view .LVU394
 1801 0190 B9F1000F 		cmp	r9, #0
 1802 0194 12D0     		beq	.L126
 1803              	.L159:
 243:../../libdaisy/src/dev/oled_ssd130x.h ****             buffer_[x + (y / 8) * width] |= (1 << (y % 8));
 1804              		.loc 15 243 9 view .LVU395
 1805              	.LBE1171:
 1806              	.LBE1170:
 1807              	.LBE1169:
 1808              	.LBB1172:
 1809              	.LBB1164:
 1810              	.LBB1159:
 244:../../libdaisy/src/dev/oled_ssd130x.h ****         else
 1811              		.loc 15 244 42 view .LVU396
 1812 0196 1643     		orrs	r6, r6, r2
 244:../../libdaisy/src/dev/oled_ssd130x.h ****         else
 1813              		.loc 15 244 13 view .LVU397
 1814 0198 1E70     		strb	r6, [r3]
 1815              	.L124:
 1816              	.LBE1159:
 1817              	.LBE1164:
 1818              	.LBE1172:
 416:../../libdaisy/src/hid/disp/display.h ****             {
 1819              		.loc 6 416 13 is_stmt 1 view .LVU398
 1820 019a 0130     		adds	r0, r0, #1
 1821              	.LVL133:
 416:../../libdaisy/src/hid/disp/display.h ****             {
 1822              		.loc 6 416 26 view .LVU399
 1823 019c 0133     		adds	r3, r3, #1
 1824 019e 0135     		adds	r5, r5, #1
 1825 01a0 8442     		cmp	r4, r0
 1826 01a2 14D0     		beq	.L127
 1827              	.LVL134:
 1828              	.L128:
 418:../../libdaisy/src/hid/disp/display.h ****                 {
 1829              		.loc 6 418 23 is_stmt 0 view .LVU400
 1830 01a4 0AFA00F6 		lsl	r6, r10, r0
 418:../../libdaisy/src/hid/disp/display.h ****                 {
ARM GAS  /tmp/ccPAoVZi.s 			page 67


 1831              		.loc 6 418 17 view .LVU401
 1832 01a8 3604     		lsls	r6, r6, #16
 1833 01aa ECD4     		bmi	.L165
 1834              	.LVL135:
 1835              	.LBB1173:
 1836              	.LBI1146:
  41:../../libdaisy/src/hid/disp/oled_display.h ****     {
 1837              		.loc 5 41 10 is_stmt 1 view .LVU402
 1838              	.LBB1165:
 1839              	.LBI1147:
 239:../../libdaisy/src/dev/oled_ssd130x.h ****     {
 1840              		.loc 15 239 10 view .LVU403
 1841              	.LBB1160:
 241:../../libdaisy/src/dev/oled_ssd130x.h ****             return;
 1842              		.loc 15 241 9 is_stmt 0 view .LVU404
 1843 01ac 7F2D     		cmp	r5, #127
 1844 01ae F4D8     		bhi	.L124
 1845 01b0 3F29     		cmp	r1, #63
 1846 01b2 F2D8     		bhi	.L124
 244:../../libdaisy/src/dev/oled_ssd130x.h ****         else
 1847              		.loc 15 244 42 view .LVU405
 1848 01b4 1E78     		ldrb	r6, [r3]	@ zero_extendqisi2
 243:../../libdaisy/src/dev/oled_ssd130x.h ****             buffer_[x + (y / 8) * width] |= (1 << (y % 8));
 1849              		.loc 15 243 9 view .LVU406
 1850 01b6 B9F1000F 		cmp	r9, #0
 1851 01ba ECD0     		beq	.L159
 1852              	.L126:
 1853              	.LVL136:
 1854              	.LBB1155:
 1855              	.LBI1149:
 239:../../libdaisy/src/dev/oled_ssd130x.h ****     {
 1856              		.loc 15 239 10 is_stmt 1 view .LVU407
 239:../../libdaisy/src/dev/oled_ssd130x.h ****     {
 1857              		.loc 15 239 10 is_stmt 0 view .LVU408
 1858              	.LBE1155:
 1859              	.LBE1160:
 1860              	.LBE1165:
 1861              	.LBE1173:
 416:../../libdaisy/src/hid/disp/display.h ****             {
 1862              		.loc 6 416 13 view .LVU409
 1863 01bc 0130     		adds	r0, r0, #1
 1864              	.LVL137:
 1865              	.LBB1174:
 1866              	.LBB1166:
 1867              	.LBB1161:
 1868              	.LBB1156:
 1869              	.LBB1152:
 246:../../libdaisy/src/dev/oled_ssd130x.h ****     }
 1870              		.loc 15 246 42 view .LVU410
 1871 01be 0EEA0606 		and	r6, lr, r6
 1872 01c2 0133     		adds	r3, r3, #1
 1873 01c4 0135     		adds	r5, r5, #1
 1874              	.LBE1152:
 1875              	.LBE1156:
 1876              	.LBE1161:
 1877              	.LBE1166:
 1878              	.LBE1174:
ARM GAS  /tmp/ccPAoVZi.s 			page 68


 416:../../libdaisy/src/hid/disp/display.h ****             {
 1879              		.loc 6 416 26 view .LVU411
 1880 01c6 8442     		cmp	r4, r0
 1881              	.LBB1175:
 1882              	.LBB1167:
 1883              	.LBB1162:
 1884              	.LBB1157:
 1885              	.LBB1153:
 246:../../libdaisy/src/dev/oled_ssd130x.h ****     }
 1886              		.loc 15 246 13 view .LVU412
 1887 01c8 03F8016C 		strb	r6, [r3, #-1]
 246:../../libdaisy/src/dev/oled_ssd130x.h ****     }
 1888              		.loc 15 246 13 view .LVU413
 1889              	.LBE1153:
 1890              	.LBE1157:
 1891              	.LBE1162:
 1892              	.LBE1167:
 1893              	.LBE1175:
 416:../../libdaisy/src/hid/disp/display.h ****             {
 1894              		.loc 6 416 13 is_stmt 1 view .LVU414
 1895              	.LVL138:
 416:../../libdaisy/src/hid/disp/display.h ****             {
 1896              		.loc 6 416 26 view .LVU415
 1897 01cc EAD1     		bne	.L128
 1898              	.LVL139:
 1899              	.L127:
 413:../../libdaisy/src/hid/disp/display.h ****         {
 1900              		.loc 6 413 9 view .LVU416
 413:../../libdaisy/src/hid/disp/display.h ****         {
 1901              		.loc 6 413 22 view .LVU417
 1902 01ce B845     		cmp	r8, r7
 1903 01d0 01F10101 		add	r1, r1, #1
 1904 01d4 C3D1     		bne	.L122
 1905 01d6 5B46     		mov	r3, fp
 1906 01d8 059E     		ldr	r6, [sp, #20]
 1907 01da A346     		mov	fp, r4
 1908              	.LVL140:
 413:../../libdaisy/src/hid/disp/display.h ****         {
 1909              		.loc 6 413 22 is_stmt 0 view .LVU418
 1910 01dc DDF81880 		ldr	r8, [sp, #24]
 1911 01e0 1C46     		mov	r4, r3
 1912              	.LVL141:
 1913              	.L121:
 1914              	.LBB1176:
 1915              	.LBB1177:
 173:../../libdaisy/src/hid/disp/display.h ****         currentY_ = (y >= Height()) ? Height() - 1 : y;
 1916              		.loc 6 173 33 view .LVU419
 1917 01e2 2268     		ldr	r2, [r4]
 1918              	.LBE1177:
 1919              	.LBE1176:
 434:../../libdaisy/src/hid/disp/display.h **** 
 1920              		.loc 6 434 18 view .LVU420
 1921 01e4 DC44     		add	ip, ip, fp
 1922 01e6 0199     		ldr	r1, [sp, #4]
 1923              	.LBB1181:
 1924              	.LBB1178:
 173:../../libdaisy/src/hid/disp/display.h ****         currentY_ = (y >= Height()) ? Height() - 1 : y;
ARM GAS  /tmp/ccPAoVZi.s 			page 69


 1925              		.loc 6 173 33 view .LVU421
 1926 01e8 D368     		ldr	r3, [r2, #12]
 1927              	.LBE1178:
 1928              	.LBE1181:
 434:../../libdaisy/src/hid/disp/display.h **** 
 1929              		.loc 6 434 18 view .LVU422
 1930 01ea 1FFA8CF5 		uxth	r5, ip
 1931              	.LVL142:
 1932              	.LBB1182:
 1933              	.LBI1176:
 171:../../libdaisy/src/hid/disp/display.h ****     {
 1934              		.loc 6 171 10 is_stmt 1 view .LVU423
 1935              	.LBB1179:
 173:../../libdaisy/src/hid/disp/display.h ****         currentY_ = (y >= Height()) ? Height() - 1 : y;
 1936              		.loc 6 173 9 view .LVU424
 1937 01ee 8B42     		cmp	r3, r1
 1938 01f0 40F0C280 		bne	.L166
 173:../../libdaisy/src/hid/disp/display.h ****         currentY_ = (y >= Height()) ? Height() - 1 : y;
 1939              		.loc 6 173 33 is_stmt 0 view .LVU425
 1940 01f4 8020     		movs	r0, #128
 1941              	.L129:
 173:../../libdaisy/src/hid/disp/display.h ****         currentY_ = (y >= Height()) ? Height() - 1 : y;
 1942              		.loc 6 173 19 view .LVU426
 1943 01f6 8542     		cmp	r5, r0
 1944 01f8 05D3     		bcc	.L130
 173:../../libdaisy/src/hid/disp/display.h ****         currentY_ = (y >= Height()) ? Height() - 1 : y;
 1945              		.loc 6 173 44 view .LVU427
 1946 01fa D368     		ldr	r3, [r2, #12]
 1947 01fc 0199     		ldr	r1, [sp, #4]
 1948 01fe 8B42     		cmp	r3, r1
 1949 0200 40F0C780 		bne	.L167
 1950 0204 7F25     		movs	r5, #127
 1951              	.LVL143:
 1952              	.L130:
 174:../../libdaisy/src/hid/disp/display.h ****     }
 1953              		.loc 6 174 34 view .LVU428
 1954 0206 9368     		ldr	r3, [r2, #8]
 1955 0208 039A     		ldr	r2, [sp, #12]
 173:../../libdaisy/src/hid/disp/display.h ****         currentY_ = (y >= Height()) ? Height() - 1 : y;
 1956              		.loc 6 173 19 view .LVU429
 1957 020a A580     		strh	r5, [r4, #4]	@ movhi
 174:../../libdaisy/src/hid/disp/display.h ****     }
 1958              		.loc 6 174 9 is_stmt 1 view .LVU430
 1959 020c 9342     		cmp	r3, r2
 1960 020e 40F0B080 		bne	.L168
 174:../../libdaisy/src/hid/disp/display.h ****     }
 1961              		.loc 6 174 34 is_stmt 0 view .LVU431
 1962 0212 4020     		movs	r0, #64
 1963              	.L132:
 174:../../libdaisy/src/hid/disp/display.h ****     }
 1964              		.loc 6 174 19 view .LVU432
 1965 0214 029B     		ldr	r3, [sp, #8]
 1966 0216 8342     		cmp	r3, r0
 1967 0218 07D3     		bcc	.L133
 174:../../libdaisy/src/hid/disp/display.h ****     }
 1968              		.loc 6 174 46 view .LVU433
 1969 021a 2368     		ldr	r3, [r4]
ARM GAS  /tmp/ccPAoVZi.s 			page 70


 1970 021c 039A     		ldr	r2, [sp, #12]
 1971 021e 9B68     		ldr	r3, [r3, #8]
 1972 0220 9342     		cmp	r3, r2
 1973 0222 40F0B080 		bne	.L169
 1974 0226 3F23     		movs	r3, #63
 1975 0228 0293     		str	r3, [sp, #8]
 1976              	.LVL144:
 1977              	.L133:
 174:../../libdaisy/src/hid/disp/display.h ****     }
 1978              		.loc 6 174 19 view .LVU434
 1979 022a 029B     		ldr	r3, [sp, #8]
 1980 022c E380     		strh	r3, [r4, #6]	@ movhi
 1981              	.LVL145:
 1982              	.L115:
 174:../../libdaisy/src/hid/disp/display.h ****     }
 1983              		.loc 6 174 19 view .LVU435
 1984              	.LBE1179:
 1985              	.LBE1182:
 1986              	.LBE1145:
 1987              	.LBE1144:
 445:../../libdaisy/src/hid/disp/display.h ****                != *str)
 1988              		.loc 6 445 13 view .LVU436
 1989 022e 98F80030 		ldrb	r3, [r8]	@ zero_extendqisi2
 1990 0232 B342     		cmp	r3, r6
 1991 0234 04D1     		bne	.L83
 1992              	.LVL146:
 443:../../libdaisy/src/hid/disp/display.h ****         {
 1993              		.loc 6 443 9 is_stmt 1 view .LVU437
 1994 0236 18F8016F 		ldrb	r6, [r8, #1]!	@ zero_extendqisi2
 1995              	.LVL147:
 443:../../libdaisy/src/hid/disp/display.h ****         {
 1996              		.loc 6 443 9 is_stmt 0 view .LVU438
 1997 023a 002E     		cmp	r6, #0
 1998 023c 7FF453AF 		bne	.L113
 1999              	.LVL148:
 2000              	.L83:
 443:../../libdaisy/src/hid/disp/display.h ****         {
 2001              		.loc 6 443 9 view .LVU439
 2002              	.LBE1186:
 2003              	.LBE1142:
 471:../../libdaisy/src/hid/disp/display.h **** 
 2004              		.loc 6 471 5 view .LVU440
 2005 0240 0998     		ldr	r0, [sp, #36]
 2006 0242 0BB0     		add	sp, sp, #44
 2007              		.cfi_remember_state
 2008              		.cfi_def_cfa_offset 36
 2009              		@ sp needed
 2010 0244 BDE8F08F 		pop	{r4, r5, r6, r7, r8, r9, r10, fp, pc}
 2011              	.LVL149:
 2012              	.L96:
 2013              		.cfi_restore_state
 2014              	.LBB1188:
 2015              	.LBB1122:
 250:../../libdaisy/src/hid/disp/graphics_common.h ****                 return {int16_t(x_ + (other.GetCenterX() - GetCenterX())),
 2016              		.loc 17 250 13 is_stmt 1 view .LVU441
 251:../../libdaisy/src/hid/disp/graphics_common.h ****                         int16_t(y_ + (other.GetCenterY() - GetCenterY())),
 2017              		.loc 17 251 17 view .LVU442
ARM GAS  /tmp/ccPAoVZi.s 			page 71


 2018              	.LBB953:
 2019              	.LBI953:
  62:../../libdaisy/src/hid/disp/graphics_common.h ****     int16_t GetCenterY() const { return y_ + height_ / 2; }
 2020              		.loc 17 62 13 view .LVU443
 2021              	.LBB954:
  62:../../libdaisy/src/hid/disp/graphics_common.h ****     int16_t GetCenterY() const { return y_ + height_ / 2; }
 2022              		.loc 17 62 34 view .LVU444
  62:../../libdaisy/src/hid/disp/graphics_common.h ****     int16_t GetCenterY() const { return y_ + height_ / 2; }
 2023              		.loc 17 62 34 is_stmt 0 view .LVU445
 2024              	.LBE954:
 2025              	.LBE953:
 2026              	.LBB958:
 2027              	.LBI958:
  62:../../libdaisy/src/hid/disp/graphics_common.h ****     int16_t GetCenterY() const { return y_ + height_ / 2; }
 2028              		.loc 17 62 13 is_stmt 1 view .LVU446
 2029              	.LBB959:
  62:../../libdaisy/src/hid/disp/graphics_common.h ****     int16_t GetCenterY() const { return y_ + height_ / 2; }
 2030              		.loc 17 62 34 view .LVU447
 2031              	.LBE959:
 2032              	.LBE958:
 2033              	.LBB960:
 2034              	.LBB955:
  62:../../libdaisy/src/hid/disp/graphics_common.h ****     int16_t GetCenterY() const { return y_ + height_ / 2; }
 2035              		.loc 17 62 53 is_stmt 0 view .LVU448
 2036 0248 B6F90400 		ldrsh	r0, [r6, #4]
  62:../../libdaisy/src/hid/disp/graphics_common.h ****     int16_t GetCenterY() const { return y_ + height_ / 2; }
 2037              		.loc 17 62 44 view .LVU449
 2038 024c 3788     		ldrh	r7, [r6]
  62:../../libdaisy/src/hid/disp/graphics_common.h ****     int16_t GetCenterY() const { return y_ + height_ / 2; }
 2039              		.loc 17 62 53 view .LVU450
 2040 024e 0028     		cmp	r0, #0
 2041              	.LBE955:
 2042              	.LBE960:
 2043              	.LBB961:
 2044              	.LBB934:
  63:../../libdaisy/src/hid/disp/graphics_common.h **** 
 2045              		.loc 17 63 54 view .LVU451
 2046 0250 B6F90630 		ldrsh	r3, [r6, #6]
 2047              	.LVL150:
  63:../../libdaisy/src/hid/disp/graphics_common.h **** 
 2048              		.loc 17 63 54 view .LVU452
 2049              	.LBE934:
 2050              	.LBE961:
 2051              	.LBB962:
 2052              	.LBB956:
  62:../../libdaisy/src/hid/disp/graphics_common.h ****     int16_t GetCenterY() const { return y_ + height_ / 2; }
 2053              		.loc 17 62 53 view .LVU453
 2054 0254 B8BF     		it	lt
 2055 0256 0130     		addlt	r0, r0, #1
 2056              	.LBE956:
 2057              	.LBE962:
 2058              	.LBB963:
 2059              	.LBB935:
  63:../../libdaisy/src/hid/disp/graphics_common.h **** 
 2060              		.loc 17 63 54 view .LVU454
 2061 0258 002B     		cmp	r3, #0
 2062              	.LBE935:
ARM GAS  /tmp/ccPAoVZi.s 			page 72


 2063              	.LBE963:
 2064              	.LBB964:
 2065              	.LBB957:
  62:../../libdaisy/src/hid/disp/graphics_common.h ****     int16_t GetCenterY() const { return y_ + height_ / 2; }
 2066              		.loc 17 62 44 view .LVU455
 2067 025a 07EB6007 		add	r7, r7, r0, asr #1
 2068              	.LBE957:
 2069              	.LBE964:
 251:../../libdaisy/src/hid/disp/graphics_common.h ****                         int16_t(y_ + (other.GetCenterY() - GetCenterY())),
 2070              		.loc 17 251 58 view .LVU456
 2071 025e A7EB6207 		sub	r7, r7, r2, asr #1
 2072 0262 BFB2     		uxth	r7, r7
 2073              	.LBB965:
 2074              	.LBI931:
  63:../../libdaisy/src/hid/disp/graphics_common.h **** 
 2075              		.loc 17 63 13 is_stmt 1 view .LVU457
 2076              	.LVL151:
 2077              	.LBB936:
  63:../../libdaisy/src/hid/disp/graphics_common.h **** 
 2078              		.loc 17 63 34 view .LVU458
  63:../../libdaisy/src/hid/disp/graphics_common.h **** 
 2079              		.loc 17 63 34 is_stmt 0 view .LVU459
 2080              	.LBE936:
 2081              	.LBE965:
 2082              	.LBB966:
 2083              	.LBI966:
  63:../../libdaisy/src/hid/disp/graphics_common.h **** 
 2084              		.loc 17 63 13 is_stmt 1 view .LVU460
 2085              	.LBB967:
  63:../../libdaisy/src/hid/disp/graphics_common.h **** 
 2086              		.loc 17 63 34 view .LVU461
 2087              	.LBE967:
 2088              	.LBE966:
 2089              	.LBB968:
 2090              	.LBB937:
  63:../../libdaisy/src/hid/disp/graphics_common.h **** 
 2091              		.loc 17 63 54 is_stmt 0 view .LVU462
 2092 0264 BFF604AF 		bge	.L103
 2093              	.LVL152:
 2094              	.L160:
  63:../../libdaisy/src/hid/disp/graphics_common.h **** 
 2095              		.loc 17 63 54 view .LVU463
 2096 0268 0133     		adds	r3, r3, #1
 2097 026a 01E7     		b	.L103
 2098              	.LVL153:
 2099              	.L95:
  63:../../libdaisy/src/hid/disp/graphics_common.h **** 
 2100              		.loc 17 63 54 view .LVU464
 2101              	.LBE937:
 2102              	.LBE968:
 213:../../libdaisy/src/hid/disp/graphics_common.h ****                 return {other.x_, other.y_, width_, height_};
 2103              		.loc 17 213 13 is_stmt 1 view .LVU465
 214:../../libdaisy/src/hid/disp/graphics_common.h ****             case Alignment::topRight:
 2104              		.loc 17 214 17 view .LVU466
 214:../../libdaisy/src/hid/disp/graphics_common.h ****             case Alignment::topRight:
 2105              		.loc 17 214 31 is_stmt 0 view .LVU467
 2106 026c B6F90070 		ldrsh	r7, [r6]
ARM GAS  /tmp/ccPAoVZi.s 			page 73


 2107              	.LBB969:
 2108              	.LBB970:
 2109              	.LBB971:
  32:../../libdaisy/src/hid/disp/graphics_common.h ****     {
 2110              		.loc 17 32 66 view .LVU468
 2111 0270 099B     		ldr	r3, [sp, #36]
 2112              	.LVL154:
  32:../../libdaisy/src/hid/disp/graphics_common.h ****     {
 2113              		.loc 17 32 66 view .LVU469
 2114              	.LBE971:
 2115              	.LBE970:
 2116              	.LBE969:
 214:../../libdaisy/src/hid/disp/graphics_common.h ****             case Alignment::topRight:
 2117              		.loc 17 214 41 view .LVU470
 2118 0272 B6F90260 		ldrsh	r6, [r6, #2]
 2119              	.LVL155:
 2120              	.LBB980:
 2121              	.LBI969:
  31:../../libdaisy/src/hid/disp/graphics_common.h ****     : x_(x), y_(y), width_(max(0, width)), height_(max(0, height))
 2122              		.loc 17 31 5 is_stmt 1 view .LVU471
 2123              	.LBB977:
 2124              	.LBB974:
  32:../../libdaisy/src/hid/disp/graphics_common.h ****     {
 2125              		.loc 17 32 66 is_stmt 0 view .LVU472
 2126 0276 1F80     		strh	r7, [r3]	@ movhi
 2127 0278 BFB2     		uxth	r7, r7
 2128              	.LVL156:
  32:../../libdaisy/src/hid/disp/graphics_common.h ****     {
 2129              		.loc 17 32 66 view .LVU473
 2130 027a 5E80     		strh	r6, [r3, #2]	@ movhi
 2131              	.LVL157:
 2132              	.LBB972:
 2133              	.LBI972:
 2134              		.loc 17 261 13 is_stmt 1 view .LVU474
 2135              		.loc 17 261 13 is_stmt 0 view .LVU475
 2136              	.LBE972:
 2137              	.LBE974:
 2138              	.LBE977:
 2139              	.LBE980:
 2140              	.LBE1122:
 2141              	.LBE1188:
 2142              		.loc 17 261 41 is_stmt 1 view .LVU476
 2143              		.loc 17 261 41 is_stmt 0 view .LVU477
 2144 027c B6B2     		uxth	r6, r6
 2145              	.LVL158:
 2146              	.LBB1189:
 2147              	.LBB1123:
 2148              	.LBB981:
 2149              	.LBB978:
 2150              	.LBB975:
  32:../../libdaisy/src/hid/disp/graphics_common.h ****     {
 2151              		.loc 17 32 66 view .LVU478
 2152 027e 9A80     		strh	r2, [r3, #4]	@ movhi
 2153              	.LVL159:
 2154              	.LBB973:
 2155              	.LBI973:
 2156              		.loc 17 261 13 is_stmt 1 view .LVU479
ARM GAS  /tmp/ccPAoVZi.s 			page 74


 2157              		.loc 17 261 13 is_stmt 0 view .LVU480
 2158              	.LBE973:
 2159              	.LBE975:
 2160              	.LBE978:
 2161              	.LBE981:
 2162              	.LBE1123:
 2163              	.LBE1189:
 2164              		.loc 17 261 41 is_stmt 1 view .LVU481
 2165              	.LBB1190:
 2166              	.LBB1124:
 2167              	.LBB982:
 2168              	.LBB979:
 2169              	.LBB976:
  32:../../libdaisy/src/hid/disp/graphics_common.h ****     {
 2170              		.loc 17 32 66 is_stmt 0 view .LVU482
 2171 0280 D980     		strh	r1, [r3, #6]	@ movhi
 2172              	.LBE976:
  34:../../libdaisy/src/hid/disp/graphics_common.h **** 
 2173              		.loc 17 34 5 view .LVU483
 2174 0282 02E7     		b	.L97
 2175              	.LVL160:
 2176              	.L94:
  34:../../libdaisy/src/hid/disp/graphics_common.h **** 
 2177              		.loc 17 34 5 view .LVU484
 2178              	.LBE979:
 2179              	.LBE982:
 220:../../libdaisy/src/hid/disp/graphics_common.h ****                 return {int16_t(x_ + (other.GetCenterX() - GetCenterX())),
 2180              		.loc 17 220 13 is_stmt 1 view .LVU485
 221:../../libdaisy/src/hid/disp/graphics_common.h ****                         other.y_,
 2181              		.loc 17 221 17 view .LVU486
 2182              	.LBB983:
 2183              	.LBI983:
  62:../../libdaisy/src/hid/disp/graphics_common.h ****     int16_t GetCenterY() const { return y_ + height_ / 2; }
 2184              		.loc 17 62 13 view .LVU487
 2185              	.LBB984:
  62:../../libdaisy/src/hid/disp/graphics_common.h ****     int16_t GetCenterY() const { return y_ + height_ / 2; }
 2186              		.loc 17 62 34 view .LVU488
  62:../../libdaisy/src/hid/disp/graphics_common.h ****     int16_t GetCenterY() const { return y_ + height_ / 2; }
 2187              		.loc 17 62 34 is_stmt 0 view .LVU489
 2188              	.LBE984:
 2189              	.LBE983:
 2190              	.LBB987:
 2191              	.LBI987:
  62:../../libdaisy/src/hid/disp/graphics_common.h ****     int16_t GetCenterY() const { return y_ + height_ / 2; }
 2192              		.loc 17 62 13 is_stmt 1 view .LVU490
 2193              	.LBB988:
  62:../../libdaisy/src/hid/disp/graphics_common.h ****     int16_t GetCenterY() const { return y_ + height_ / 2; }
 2194              		.loc 17 62 34 view .LVU491
 2195              	.LBE988:
 2196              	.LBE987:
 2197              	.LBB989:
 2198              	.LBB985:
  62:../../libdaisy/src/hid/disp/graphics_common.h ****     int16_t GetCenterY() const { return y_ + height_ / 2; }
 2199              		.loc 17 62 53 is_stmt 0 view .LVU492
 2200 0284 B6F90430 		ldrsh	r3, [r6, #4]
 2201              	.LVL161:
  62:../../libdaisy/src/hid/disp/graphics_common.h ****     int16_t GetCenterY() const { return y_ + height_ / 2; }
ARM GAS  /tmp/ccPAoVZi.s 			page 75


 2202              		.loc 17 62 44 view .LVU493
 2203 0288 3788     		ldrh	r7, [r6]
  62:../../libdaisy/src/hid/disp/graphics_common.h ****     int16_t GetCenterY() const { return y_ + height_ / 2; }
 2204              		.loc 17 62 53 view .LVU494
 2205 028a 002B     		cmp	r3, #0
 2206              	.LBE985:
 2207              	.LBE989:
 222:../../libdaisy/src/hid/disp/graphics_common.h ****                         width_,
 2208              		.loc 17 222 31 view .LVU495
 2209 028c B6F90260 		ldrsh	r6, [r6, #2]
 2210              	.LVL162:
 2211              	.LBB990:
 2212              	.LBB986:
  62:../../libdaisy/src/hid/disp/graphics_common.h ****     int16_t GetCenterY() const { return y_ + height_ / 2; }
 2213              		.loc 17 62 53 view .LVU496
 2214 0290 B8BF     		it	lt
 2215 0292 0133     		addlt	r3, r3, #1
  62:../../libdaisy/src/hid/disp/graphics_common.h ****     int16_t GetCenterY() const { return y_ + height_ / 2; }
 2216              		.loc 17 62 44 view .LVU497
 2217 0294 07EB6307 		add	r7, r7, r3, asr #1
 2218              	.LBE986:
 2219              	.LBE990:
 2220              	.LBB991:
 2221              	.LBB992:
 2222              	.LBB993:
  32:../../libdaisy/src/hid/disp/graphics_common.h ****     {
 2223              		.loc 17 32 66 view .LVU498
 2224 0298 099B     		ldr	r3, [sp, #36]
 2225 029a 9A80     		strh	r2, [r3, #4]	@ movhi
 2226              	.LBE993:
 2227              	.LBE992:
 2228              	.LBE991:
 221:../../libdaisy/src/hid/disp/graphics_common.h ****                         other.y_,
 2229              		.loc 17 221 58 view .LVU499
 2230 029c A7EB6202 		sub	r2, r7, r2, asr #1
 2231              	.LBB1004:
 2232              	.LBB1000:
 2233              	.LBB996:
  32:../../libdaisy/src/hid/disp/graphics_common.h ****     {
 2234              		.loc 17 32 66 view .LVU500
 2235 02a0 5E80     		strh	r6, [r3, #2]	@ movhi
 2236 02a2 B6B2     		uxth	r6, r6
 2237              	.LBE996:
 2238              	.LBE1000:
 2239              	.LBE1004:
 221:../../libdaisy/src/hid/disp/graphics_common.h ****                         other.y_,
 2240              		.loc 17 221 58 view .LVU501
 2241 02a4 97B2     		uxth	r7, r2
 2242              	.LVL163:
 2243              	.LBB1005:
 2244              	.LBI991:
  31:../../libdaisy/src/hid/disp/graphics_common.h ****     : x_(x), y_(y), width_(max(0, width)), height_(max(0, height))
 2245              		.loc 17 31 5 is_stmt 1 view .LVU502
 2246              	.LBB1001:
 2247              	.LBB997:
 2248              	.LBB994:
 2249              	.LBI994:
ARM GAS  /tmp/ccPAoVZi.s 			page 76


 2250              		.loc 17 261 13 view .LVU503
 2251              		.loc 17 261 13 is_stmt 0 view .LVU504
 2252              	.LBE994:
 2253              	.LBE997:
 2254              	.LBE1001:
 2255              	.LBE1005:
 2256              	.LBE1124:
 2257              	.LBE1190:
 2258              		.loc 17 261 41 is_stmt 1 view .LVU505
 2259              	.LBB1191:
 2260              	.LBB1125:
 2261              	.LBB1006:
 2262              	.LBB1002:
 2263              	.LBB998:
 2264              	.LBB995:
 2265              	.LBI995:
 2266              		.loc 17 261 13 view .LVU506
 2267              		.loc 17 261 13 is_stmt 0 view .LVU507
 2268              	.LBE995:
 2269              	.LBE998:
 2270              	.LBE1002:
 2271              	.LBE1006:
 2272              	.LBE1125:
 2273              	.LBE1191:
 2274              		.loc 17 261 41 is_stmt 1 view .LVU508
 2275              	.LBB1192:
 2276              	.LBB1126:
 2277              	.LBB1007:
 2278              	.LBB1003:
 2279              	.LBB999:
  32:../../libdaisy/src/hid/disp/graphics_common.h ****     {
 2280              		.loc 17 32 66 is_stmt 0 view .LVU509
 2281 02a6 D980     		strh	r1, [r3, #6]	@ movhi
 2282 02a8 1F80     		strh	r7, [r3]	@ movhi
 2283              	.LBE999:
  34:../../libdaisy/src/hid/disp/graphics_common.h **** 
 2284              		.loc 17 34 5 view .LVU510
 2285 02aa EEE6     		b	.L97
 2286              	.LVL164:
 2287              	.L93:
  34:../../libdaisy/src/hid/disp/graphics_common.h **** 
 2288              		.loc 17 34 5 view .LVU511
 2289              	.LBE1003:
 2290              	.LBE1007:
 215:../../libdaisy/src/hid/disp/graphics_common.h ****                 return {int16_t(other.GetRight() - width_),
 2291              		.loc 17 215 13 is_stmt 1 view .LVU512
 216:../../libdaisy/src/hid/disp/graphics_common.h ****                         other.y_,
 2292              		.loc 17 216 17 view .LVU513
 2293              	.LBB1008:
 2294              	.LBI1008:
  60:../../libdaisy/src/hid/disp/graphics_common.h ****     int16_t GetBottom() const { return y_ + height_; }
 2295              		.loc 17 60 13 view .LVU514
 2296              	.LBB1009:
  60:../../libdaisy/src/hid/disp/graphics_common.h ****     int16_t GetBottom() const { return y_ + height_; }
 2297              		.loc 17 60 32 view .LVU515
  60:../../libdaisy/src/hid/disp/graphics_common.h ****     int16_t GetBottom() const { return y_ + height_; }
 2298              		.loc 17 60 42 is_stmt 0 view .LVU516
ARM GAS  /tmp/ccPAoVZi.s 			page 77


 2299 02ac B388     		ldrh	r3, [r6, #4]
 2300              	.LVL165:
  60:../../libdaisy/src/hid/disp/graphics_common.h ****     int16_t GetBottom() const { return y_ + height_; }
 2301              		.loc 17 60 42 view .LVU517
 2302 02ae 3788     		ldrh	r7, [r6]
 2303              	.LBE1009:
 2304              	.LBE1008:
 217:../../libdaisy/src/hid/disp/graphics_common.h ****                         width_,
 2305              		.loc 17 217 31 view .LVU518
 2306 02b0 B6F90260 		ldrsh	r6, [r6, #2]
 2307              	.LVL166:
 2308              	.LBB1011:
 2309              	.LBB1010:
  60:../../libdaisy/src/hid/disp/graphics_common.h ****     int16_t GetBottom() const { return y_ + height_; }
 2310              		.loc 17 60 42 view .LVU519
 2311 02b4 1F44     		add	r7, r7, r3
 2312              	.LBE1010:
 2313              	.LBE1011:
 2314              	.LBB1012:
 2315              	.LBB1013:
 2316              	.LBB1014:
  32:../../libdaisy/src/hid/disp/graphics_common.h ****     {
 2317              		.loc 17 32 66 view .LVU520
 2318 02b6 099B     		ldr	r3, [sp, #36]
 2319 02b8 9A80     		strh	r2, [r3, #4]	@ movhi
 2320              	.LBE1014:
 2321              	.LBE1013:
 2322              	.LBE1012:
 216:../../libdaisy/src/hid/disp/graphics_common.h ****                         other.y_,
 2323              		.loc 17 216 50 view .LVU521
 2324 02ba BA1A     		subs	r2, r7, r2
 2325              	.LBB1025:
 2326              	.LBB1021:
 2327              	.LBB1017:
  32:../../libdaisy/src/hid/disp/graphics_common.h ****     {
 2328              		.loc 17 32 66 view .LVU522
 2329 02bc 5E80     		strh	r6, [r3, #2]	@ movhi
 2330 02be B6B2     		uxth	r6, r6
 2331              	.LBE1017:
 2332              	.LBE1021:
 2333              	.LBE1025:
 216:../../libdaisy/src/hid/disp/graphics_common.h ****                         other.y_,
 2334              		.loc 17 216 50 view .LVU523
 2335 02c0 97B2     		uxth	r7, r2
 2336              	.LVL167:
 2337              	.LBB1026:
 2338              	.LBI1012:
  31:../../libdaisy/src/hid/disp/graphics_common.h ****     : x_(x), y_(y), width_(max(0, width)), height_(max(0, height))
 2339              		.loc 17 31 5 is_stmt 1 view .LVU524
 2340              	.LBB1022:
 2341              	.LBB1018:
 2342              	.LBB1015:
 2343              	.LBI1015:
 2344              		.loc 17 261 13 view .LVU525
 2345              		.loc 17 261 13 is_stmt 0 view .LVU526
 2346              	.LBE1015:
 2347              	.LBE1018:
ARM GAS  /tmp/ccPAoVZi.s 			page 78


 2348              	.LBE1022:
 2349              	.LBE1026:
 2350              	.LBE1126:
 2351              	.LBE1192:
 2352              		.loc 17 261 41 is_stmt 1 view .LVU527
 2353              	.LBB1193:
 2354              	.LBB1127:
 2355              	.LBB1027:
 2356              	.LBB1023:
 2357              	.LBB1019:
 2358              	.LBB1016:
 2359              	.LBI1016:
 2360              		.loc 17 261 13 view .LVU528
 2361              		.loc 17 261 13 is_stmt 0 view .LVU529
 2362              	.LBE1016:
 2363              	.LBE1019:
 2364              	.LBE1023:
 2365              	.LBE1027:
 2366              	.LBE1127:
 2367              	.LBE1193:
 2368              		.loc 17 261 41 is_stmt 1 view .LVU530
 2369              	.LBB1194:
 2370              	.LBB1128:
 2371              	.LBB1028:
 2372              	.LBB1024:
 2373              	.LBB1020:
  32:../../libdaisy/src/hid/disp/graphics_common.h ****     {
 2374              		.loc 17 32 66 is_stmt 0 view .LVU531
 2375 02c2 D980     		strh	r1, [r3, #6]	@ movhi
 2376 02c4 1F80     		strh	r7, [r3]	@ movhi
 2377              	.LBE1020:
  34:../../libdaisy/src/hid/disp/graphics_common.h **** 
 2378              		.loc 17 34 5 view .LVU532
 2379 02c6 E0E6     		b	.L97
 2380              	.LVL168:
 2381              	.L92:
  34:../../libdaisy/src/hid/disp/graphics_common.h **** 
 2382              		.loc 17 34 5 view .LVU533
 2383              	.LBE1024:
 2384              	.LBE1028:
 225:../../libdaisy/src/hid/disp/graphics_common.h ****                 return {other.x_,
 2385              		.loc 17 225 13 is_stmt 1 view .LVU534
 226:../../libdaisy/src/hid/disp/graphics_common.h ****                         int16_t(other.GetBottom() - height_),
 2386              		.loc 17 226 17 view .LVU535
 2387              	.LBB1029:
 2388              	.LBB1030:
  61:../../libdaisy/src/hid/disp/graphics_common.h ****     int16_t GetCenterX() const { return x_ + width_ / 2; }
 2389              		.loc 17 61 43 is_stmt 0 view .LVU536
 2390 02c8 7388     		ldrh	r3, [r6, #2]
 2391              	.LVL169:
  61:../../libdaisy/src/hid/disp/graphics_common.h ****     int16_t GetCenterX() const { return x_ + width_ / 2; }
 2392              		.loc 17 61 43 view .LVU537
 2393 02ca B6F806C0 		ldrh	ip, [r6, #6]
 2394              	.LBE1030:
 2395              	.LBE1029:
 226:../../libdaisy/src/hid/disp/graphics_common.h ****                         int16_t(other.GetBottom() - height_),
 2396              		.loc 17 226 31 view .LVU538
ARM GAS  /tmp/ccPAoVZi.s 			page 79


 2397 02ce B6F90070 		ldrsh	r7, [r6]
 2398              	.LBB1032:
 2399              	.LBI1029:
  61:../../libdaisy/src/hid/disp/graphics_common.h ****     int16_t GetCenterX() const { return x_ + width_ / 2; }
 2400              		.loc 17 61 13 is_stmt 1 view .LVU539
 2401              	.LVL170:
 2402              	.LBB1031:
  61:../../libdaisy/src/hid/disp/graphics_common.h ****     int16_t GetCenterX() const { return x_ + width_ / 2; }
 2403              		.loc 17 61 33 view .LVU540
  61:../../libdaisy/src/hid/disp/graphics_common.h ****     int16_t GetCenterX() const { return x_ + width_ / 2; }
 2404              		.loc 17 61 43 is_stmt 0 view .LVU541
 2405 02d2 9C44     		add	ip, ip, r3
 2406              	.LBE1031:
 2407              	.LBE1032:
 2408              	.LBB1033:
 2409              	.LBB1034:
 2410              	.LBB1035:
  32:../../libdaisy/src/hid/disp/graphics_common.h ****     {
 2411              		.loc 17 32 66 view .LVU542
 2412 02d4 099B     		ldr	r3, [sp, #36]
 2413              	.LBE1035:
 2414              	.LBE1034:
 2415              	.LBE1033:
 227:../../libdaisy/src/hid/disp/graphics_common.h ****                         width_,
 2416              		.loc 17 227 51 view .LVU543
 2417 02d6 ACEB0000 		sub	r0, ip, r0
 2418              	.LBB1045:
 2419              	.LBB1041:
 2420              	.LBB1038:
  32:../../libdaisy/src/hid/disp/graphics_common.h ****     {
 2421              		.loc 17 32 66 view .LVU544
 2422 02da 1F80     		strh	r7, [r3]	@ movhi
 2423 02dc 9A80     		strh	r2, [r3, #4]	@ movhi
 2424 02de BFB2     		uxth	r7, r7
 2425              	.LBE1038:
 2426              	.LBE1041:
 2427              	.LBE1045:
 227:../../libdaisy/src/hid/disp/graphics_common.h ****                         width_,
 2428              		.loc 17 227 51 view .LVU545
 2429 02e0 86B2     		uxth	r6, r0
 2430              	.LVL171:
 2431              	.LBB1046:
 2432              	.LBI1033:
  31:../../libdaisy/src/hid/disp/graphics_common.h ****     : x_(x), y_(y), width_(max(0, width)), height_(max(0, height))
 2433              		.loc 17 31 5 is_stmt 1 view .LVU546
 2434              	.LBB1042:
 2435              	.LBB1039:
  32:../../libdaisy/src/hid/disp/graphics_common.h ****     {
 2436              		.loc 17 32 66 is_stmt 0 view .LVU547
 2437 02e2 D980     		strh	r1, [r3, #6]	@ movhi
 2438 02e4 5E80     		strh	r6, [r3, #2]	@ movhi
 2439              	.LVL172:
 2440              	.LBB1036:
 2441              	.LBI1036:
 2442              		.loc 17 261 13 is_stmt 1 view .LVU548
 2443              		.loc 17 261 13 is_stmt 0 view .LVU549
 2444              	.LBE1036:
ARM GAS  /tmp/ccPAoVZi.s 			page 80


 2445              	.LBE1039:
 2446              	.LBE1042:
 2447              	.LBE1046:
 2448              	.LBE1128:
 2449              	.LBE1194:
 2450              		.loc 17 261 41 is_stmt 1 view .LVU550
 2451              	.LBB1195:
 2452              	.LBB1129:
 2453              	.LBB1047:
 2454              	.LBB1043:
 2455              	.LBB1040:
 2456              	.LBB1037:
 2457              	.LBI1037:
 2458              		.loc 17 261 13 view .LVU551
 2459              		.loc 17 261 13 is_stmt 0 view .LVU552
 2460              	.LBE1037:
 2461              	.LBE1040:
 2462              	.LBE1043:
 2463              	.LBE1047:
 2464              	.LBE1129:
 2465              	.LBE1195:
 2466              		.loc 17 261 41 is_stmt 1 view .LVU553
 2467              	.LBB1196:
 2468              	.LBB1130:
 2469              	.LBB1048:
 2470              	.LBB1044:
  34:../../libdaisy/src/hid/disp/graphics_common.h **** 
 2471              		.loc 17 34 5 is_stmt 0 view .LVU554
 2472 02e6 D0E6     		b	.L97
 2473              	.LVL173:
 2474              	.L91:
  34:../../libdaisy/src/hid/disp/graphics_common.h **** 
 2475              		.loc 17 34 5 view .LVU555
 2476              	.LBE1044:
 2477              	.LBE1048:
 235:../../libdaisy/src/hid/disp/graphics_common.h ****                 return {int16_t(x_ + (other.GetCenterX() - GetCenterX())),
 2478              		.loc 17 235 13 is_stmt 1 view .LVU556
 236:../../libdaisy/src/hid/disp/graphics_common.h ****                         int16_t(other.GetBottom() - height_),
 2479              		.loc 17 236 17 view .LVU557
 2480              	.LBB1049:
 2481              	.LBI1049:
  62:../../libdaisy/src/hid/disp/graphics_common.h ****     int16_t GetCenterY() const { return y_ + height_ / 2; }
 2482              		.loc 17 62 13 view .LVU558
 2483              	.LBB1050:
  62:../../libdaisy/src/hid/disp/graphics_common.h ****     int16_t GetCenterY() const { return y_ + height_ / 2; }
 2484              		.loc 17 62 34 view .LVU559
  62:../../libdaisy/src/hid/disp/graphics_common.h ****     int16_t GetCenterY() const { return y_ + height_ / 2; }
 2485              		.loc 17 62 34 is_stmt 0 view .LVU560
 2486              	.LBE1050:
 2487              	.LBE1049:
 2488              	.LBB1054:
 2489              	.LBI1054:
  62:../../libdaisy/src/hid/disp/graphics_common.h ****     int16_t GetCenterY() const { return y_ + height_ / 2; }
 2490              		.loc 17 62 13 is_stmt 1 view .LVU561
 2491              	.LBB1055:
  62:../../libdaisy/src/hid/disp/graphics_common.h ****     int16_t GetCenterY() const { return y_ + height_ / 2; }
 2492              		.loc 17 62 34 view .LVU562
ARM GAS  /tmp/ccPAoVZi.s 			page 81


 2493              	.LBE1055:
 2494              	.LBE1054:
 2495              	.LBB1056:
 2496              	.LBB1051:
  62:../../libdaisy/src/hid/disp/graphics_common.h ****     int16_t GetCenterY() const { return y_ + height_ / 2; }
 2497              		.loc 17 62 53 is_stmt 0 view .LVU563
 2498 02e8 B6F904C0 		ldrsh	ip, [r6, #4]
  62:../../libdaisy/src/hid/disp/graphics_common.h ****     int16_t GetCenterY() const { return y_ + height_ / 2; }
 2499              		.loc 17 62 44 view .LVU564
 2500 02ec 3788     		ldrh	r7, [r6]
  62:../../libdaisy/src/hid/disp/graphics_common.h ****     int16_t GetCenterY() const { return y_ + height_ / 2; }
 2501              		.loc 17 62 53 view .LVU565
 2502 02ee BCF1000F 		cmp	ip, #0
 2503              	.LBE1051:
 2504              	.LBE1056:
 2505              	.LBB1057:
 2506              	.LBB1058:
  61:../../libdaisy/src/hid/disp/graphics_common.h ****     int16_t GetCenterX() const { return x_ + width_ / 2; }
 2507              		.loc 17 61 43 view .LVU566
 2508 02f2 7388     		ldrh	r3, [r6, #2]
 2509              	.LVL174:
  61:../../libdaisy/src/hid/disp/graphics_common.h ****     int16_t GetCenterX() const { return x_ + width_ / 2; }
 2510              		.loc 17 61 43 view .LVU567
 2511 02f4 B6F806E0 		ldrh	lr, [r6, #6]
 2512              	.LBE1058:
 2513              	.LBE1057:
 2514              	.LBB1061:
 2515              	.LBB1052:
  62:../../libdaisy/src/hid/disp/graphics_common.h ****     int16_t GetCenterY() const { return y_ + height_ / 2; }
 2516              		.loc 17 62 53 view .LVU568
 2517 02f8 B8BF     		it	lt
 2518 02fa 0CF1010C 		addlt	ip, ip, #1
 2519              	.LBE1052:
 2520              	.LBE1061:
 2521              	.LBB1062:
 2522              	.LBB1063:
 2523              	.LBB1064:
  32:../../libdaisy/src/hid/disp/graphics_common.h ****     {
 2524              		.loc 17 32 66 view .LVU569
 2525 02fe 099E     		ldr	r6, [sp, #36]
 2526              	.LVL175:
  32:../../libdaisy/src/hid/disp/graphics_common.h ****     {
 2527              		.loc 17 32 66 view .LVU570
 2528              	.LBE1064:
 2529              	.LBE1063:
 2530              	.LBE1062:
 2531              	.LBB1076:
 2532              	.LBB1053:
  62:../../libdaisy/src/hid/disp/graphics_common.h ****     int16_t GetCenterY() const { return y_ + height_ / 2; }
 2533              		.loc 17 62 44 view .LVU571
 2534 0300 07EB6C07 		add	r7, r7, ip, asr #1
 2535              	.LBE1053:
 2536              	.LBE1076:
 2537              	.LBB1077:
 2538              	.LBB1071:
 2539              	.LBB1067:
  32:../../libdaisy/src/hid/disp/graphics_common.h ****     {
ARM GAS  /tmp/ccPAoVZi.s 			page 82


 2540              		.loc 17 32 66 view .LVU572
 2541 0304 B280     		strh	r2, [r6, #4]	@ movhi
 2542              	.LBE1067:
 2543              	.LBE1071:
 2544              	.LBE1077:
 2545              	.LBB1078:
 2546              	.LBB1059:
  61:../../libdaisy/src/hid/disp/graphics_common.h ****     int16_t GetCenterX() const { return x_ + width_ / 2; }
 2547              		.loc 17 61 43 view .LVU573
 2548 0306 0EEB0306 		add	r6, lr, r3
 2549              	.LBE1059:
 2550              	.LBE1078:
 236:../../libdaisy/src/hid/disp/graphics_common.h ****                         int16_t(other.GetBottom() - height_),
 2551              		.loc 17 236 58 view .LVU574
 2552 030a A7EB6202 		sub	r2, r7, r2, asr #1
 2553              	.LVL176:
 2554              	.L157:
 237:../../libdaisy/src/hid/disp/graphics_common.h ****                         width_,
 2555              		.loc 17 237 51 view .LVU575
 2556 030e 301A     		subs	r0, r6, r0
 2557              	.LBB1079:
 2558              	.LBB1072:
 2559              	.LBB1068:
  32:../../libdaisy/src/hid/disp/graphics_common.h ****     {
 2560              		.loc 17 32 66 view .LVU576
 2561 0310 099B     		ldr	r3, [sp, #36]
 2562              	.LBE1068:
 2563              	.LBE1072:
 2564              	.LBE1079:
 236:../../libdaisy/src/hid/disp/graphics_common.h ****                         int16_t(other.GetBottom() - height_),
 2565              		.loc 17 236 58 view .LVU577
 2566 0312 97B2     		uxth	r7, r2
 2567              	.LBB1080:
 2568              	.LBI1057:
  61:../../libdaisy/src/hid/disp/graphics_common.h ****     int16_t GetCenterX() const { return x_ + width_ / 2; }
 2569              		.loc 17 61 13 is_stmt 1 view .LVU578
 2570              	.LVL177:
 2571              	.LBB1060:
  61:../../libdaisy/src/hid/disp/graphics_common.h ****     int16_t GetCenterX() const { return x_ + width_ / 2; }
 2572              		.loc 17 61 33 view .LVU579
 2573              	.LBE1060:
 2574              	.LBE1080:
 237:../../libdaisy/src/hid/disp/graphics_common.h ****                         width_,
 2575              		.loc 17 237 51 is_stmt 0 view .LVU580
 2576 0314 86B2     		uxth	r6, r0
 2577              	.LVL178:
 2578              	.LBB1081:
 2579              	.LBI1062:
  31:../../libdaisy/src/hid/disp/graphics_common.h ****     : x_(x), y_(y), width_(max(0, width)), height_(max(0, height))
 2580              		.loc 17 31 5 is_stmt 1 view .LVU581
 2581              	.LBB1073:
 2582              	.LBB1069:
  32:../../libdaisy/src/hid/disp/graphics_common.h ****     {
 2583              		.loc 17 32 66 is_stmt 0 view .LVU582
 2584 0316 D980     		strh	r1, [r3, #6]	@ movhi
 2585 0318 1F80     		strh	r7, [r3]	@ movhi
 2586 031a 5E80     		strh	r6, [r3, #2]	@ movhi
ARM GAS  /tmp/ccPAoVZi.s 			page 83


 2587              	.LVL179:
 2588              	.LBB1065:
 2589              	.LBI1065:
 2590              		.loc 17 261 13 is_stmt 1 view .LVU583
 2591              		.loc 17 261 13 is_stmt 0 view .LVU584
 2592              	.LBE1065:
 2593              	.LBE1069:
 2594              	.LBE1073:
 2595              	.LBE1081:
 2596              	.LBE1130:
 2597              	.LBE1196:
 2598              		.loc 17 261 41 is_stmt 1 view .LVU585
 2599              	.LBB1197:
 2600              	.LBB1131:
 2601              	.LBB1082:
 2602              	.LBB1074:
 2603              	.LBB1070:
 2604              	.LBB1066:
 2605              	.LBI1066:
 2606              		.loc 17 261 13 view .LVU586
 2607              		.loc 17 261 13 is_stmt 0 view .LVU587
 2608              	.LBE1066:
 2609              	.LBE1070:
 2610              	.LBE1074:
 2611              	.LBE1082:
 2612              	.LBE1131:
 2613              	.LBE1197:
 2614              		.loc 17 261 41 is_stmt 1 view .LVU588
 2615              	.LBB1198:
 2616              	.LBB1132:
 2617              	.LBB1083:
 2618              	.LBB1075:
  34:../../libdaisy/src/hid/disp/graphics_common.h **** 
 2619              		.loc 17 34 5 is_stmt 0 view .LVU589
 2620 031c B5E6     		b	.L97
 2621              	.LVL180:
 2622              	.L90:
  34:../../libdaisy/src/hid/disp/graphics_common.h **** 
 2623              		.loc 17 34 5 view .LVU590
 2624              	.LBE1075:
 2625              	.LBE1083:
 230:../../libdaisy/src/hid/disp/graphics_common.h ****                 return {int16_t(other.GetRight() - width_),
 2626              		.loc 17 230 13 is_stmt 1 view .LVU591
 231:../../libdaisy/src/hid/disp/graphics_common.h ****                         int16_t(other.GetBottom() - height_),
 2627              		.loc 17 231 17 view .LVU592
 2628              	.LBB1084:
 2629              	.LBI1084:
  60:../../libdaisy/src/hid/disp/graphics_common.h ****     int16_t GetBottom() const { return y_ + height_; }
 2630              		.loc 17 60 13 view .LVU593
 2631              	.LBB1085:
  60:../../libdaisy/src/hid/disp/graphics_common.h ****     int16_t GetBottom() const { return y_ + height_; }
 2632              		.loc 17 60 32 view .LVU594
  60:../../libdaisy/src/hid/disp/graphics_common.h ****     int16_t GetBottom() const { return y_ + height_; }
 2633              		.loc 17 60 42 is_stmt 0 view .LVU595
 2634 031e B6F804C0 		ldrh	ip, [r6, #4]
 2635 0322 3788     		ldrh	r7, [r6]
 2636              	.LBE1085:
ARM GAS  /tmp/ccPAoVZi.s 			page 84


 2637              	.LBE1084:
 2638              	.LBB1087:
 2639              	.LBB1088:
  61:../../libdaisy/src/hid/disp/graphics_common.h ****     int16_t GetCenterX() const { return x_ + width_ / 2; }
 2640              		.loc 17 61 43 view .LVU596
 2641 0324 7388     		ldrh	r3, [r6, #2]
 2642              	.LVL181:
  61:../../libdaisy/src/hid/disp/graphics_common.h ****     int16_t GetCenterX() const { return x_ + width_ / 2; }
 2643              		.loc 17 61 43 view .LVU597
 2644 0326 B6F806E0 		ldrh	lr, [r6, #6]
 2645              	.LBE1088:
 2646              	.LBE1087:
 2647              	.LBB1090:
 2648              	.LBB1086:
  60:../../libdaisy/src/hid/disp/graphics_common.h ****     int16_t GetBottom() const { return y_ + height_; }
 2649              		.loc 17 60 42 view .LVU598
 2650 032a 6744     		add	r7, r7, ip
 2651              	.LBE1086:
 2652              	.LBE1090:
 2653              	.LBB1091:
 2654              	.LBB1092:
 2655              	.LBB1093:
  32:../../libdaisy/src/hid/disp/graphics_common.h ****     {
 2656              		.loc 17 32 66 view .LVU599
 2657 032c 099E     		ldr	r6, [sp, #36]
 2658              	.LVL182:
  32:../../libdaisy/src/hid/disp/graphics_common.h ****     {
 2659              		.loc 17 32 66 view .LVU600
 2660 032e B280     		strh	r2, [r6, #4]	@ movhi
 2661              	.LBE1093:
 2662              	.LBE1092:
 2663              	.LBE1091:
 2664              	.LBB1094:
 2665              	.LBB1089:
  61:../../libdaisy/src/hid/disp/graphics_common.h ****     int16_t GetCenterX() const { return x_ + width_ / 2; }
 2666              		.loc 17 61 43 view .LVU601
 2667 0330 0EEB0306 		add	r6, lr, r3
 2668              	.LBE1089:
 2669              	.LBE1094:
 231:../../libdaisy/src/hid/disp/graphics_common.h ****                         int16_t(other.GetBottom() - height_),
 2670              		.loc 17 231 50 view .LVU602
 2671 0334 BA1A     		subs	r2, r7, r2
 2672 0336 EAE7     		b	.L157
 2673              	.LVL183:
 2674              	.L89:
 240:../../libdaisy/src/hid/disp/graphics_common.h ****                 return {other.x_,
 2675              		.loc 17 240 13 is_stmt 1 view .LVU603
 241:../../libdaisy/src/hid/disp/graphics_common.h ****                         int16_t(y_ + (other.GetCenterY() - GetCenterY())),
 2676              		.loc 17 241 17 view .LVU604
 2677              	.LBB1095:
 2678              	.LBB1096:
  63:../../libdaisy/src/hid/disp/graphics_common.h **** 
 2679              		.loc 17 63 54 is_stmt 0 view .LVU605
 2680 0338 B6F90630 		ldrsh	r3, [r6, #6]
 2681              	.LVL184:
  63:../../libdaisy/src/hid/disp/graphics_common.h **** 
 2682              		.loc 17 63 54 view .LVU606
ARM GAS  /tmp/ccPAoVZi.s 			page 85


 2683              	.LBE1096:
 2684              	.LBE1095:
 241:../../libdaisy/src/hid/disp/graphics_common.h ****                         int16_t(y_ + (other.GetCenterY() - GetCenterY())),
 2685              		.loc 17 241 31 view .LVU607
 2686 033c B6F90000 		ldrsh	r0, [r6]
 2687              	.LBB1101:
 2688              	.LBI1095:
  63:../../libdaisy/src/hid/disp/graphics_common.h **** 
 2689              		.loc 17 63 13 is_stmt 1 view .LVU608
 2690              	.LVL185:
 2691              	.LBB1097:
  63:../../libdaisy/src/hid/disp/graphics_common.h **** 
 2692              		.loc 17 63 34 view .LVU609
  63:../../libdaisy/src/hid/disp/graphics_common.h **** 
 2693              		.loc 17 63 34 is_stmt 0 view .LVU610
 2694              	.LBE1097:
 2695              	.LBE1101:
 2696              	.LBB1102:
 2697              	.LBI1102:
  63:../../libdaisy/src/hid/disp/graphics_common.h **** 
 2698              		.loc 17 63 13 is_stmt 1 view .LVU611
 2699              	.LBB1103:
  63:../../libdaisy/src/hid/disp/graphics_common.h **** 
 2700              		.loc 17 63 34 view .LVU612
 2701              	.LBE1103:
 2702              	.LBE1102:
 2703              	.LBB1104:
 2704              	.LBB1098:
  63:../../libdaisy/src/hid/disp/graphics_common.h **** 
 2705              		.loc 17 63 54 is_stmt 0 view .LVU613
 2706 0340 002B     		cmp	r3, #0
  63:../../libdaisy/src/hid/disp/graphics_common.h **** 
 2707              		.loc 17 63 44 view .LVU614
 2708 0342 B6F802C0 		ldrh	ip, [r6, #2]
 2709              	.LBE1098:
 2710              	.LBE1104:
 2711              	.LBB1105:
 2712              	.LBB1106:
 2713              	.LBB1107:
  32:../../libdaisy/src/hid/disp/graphics_common.h ****     {
 2714              		.loc 17 32 66 view .LVU615
 2715 0346 099E     		ldr	r6, [sp, #36]
 2716              	.LVL186:
  32:../../libdaisy/src/hid/disp/graphics_common.h ****     {
 2717              		.loc 17 32 66 view .LVU616
 2718 0348 87B2     		uxth	r7, r0
 2719              	.LBE1107:
 2720              	.LBE1106:
 2721              	.LBE1105:
 2722              	.LBB1112:
 2723              	.LBB1099:
  63:../../libdaisy/src/hid/disp/graphics_common.h **** 
 2724              		.loc 17 63 54 view .LVU617
 2725 034a B8BF     		it	lt
 2726 034c 0133     		addlt	r3, r3, #1
 2727              	.LBE1099:
 2728              	.LBE1112:
ARM GAS  /tmp/ccPAoVZi.s 			page 86


 2729              	.LBB1113:
 2730              	.LBB1110:
 2731              	.LBB1108:
  32:../../libdaisy/src/hid/disp/graphics_common.h ****     {
 2732              		.loc 17 32 66 view .LVU618
 2733 034e 3080     		strh	r0, [r6]	@ movhi
 2734              	.LBE1108:
 2735              	.LBE1110:
 2736              	.LBE1113:
 2737              	.LBB1114:
 2738              	.LBB1100:
  63:../../libdaisy/src/hid/disp/graphics_common.h **** 
 2739              		.loc 17 63 44 view .LVU619
 2740 0350 0CEB6306 		add	r6, ip, r3, asr #1
 2741              	.LBE1100:
 2742              	.LBE1114:
 2743              	.LBB1115:
 2744              	.LBB1111:
 2745              	.LBB1109:
  32:../../libdaisy/src/hid/disp/graphics_common.h ****     {
 2746              		.loc 17 32 66 view .LVU620
 2747 0354 099B     		ldr	r3, [sp, #36]
 2748 0356 1846     		mov	r0, r3
 2749 0358 91E6     		b	.L158
 2750              	.LVL187:
 2751              	.L117:
  32:../../libdaisy/src/hid/disp/graphics_common.h ****     {
 2752              		.loc 17 32 66 view .LVU621
 2753              	.LBE1109:
 2754              	.LBE1111:
 2755              	.LBE1115:
 2756              	.LBE1132:
 2757              	.LBE1198:
 2758              	.LBB1199:
 2759              	.LBB1187:
 2760              	.LBB1185:
 2761              	.LBB1184:
 402:../../libdaisy/src/hid/disp/display.h **** 
 2762              		.loc 6 402 20 view .LVU622
 2763 035a 0026     		movs	r6, #0
 2764              	.LVL188:
 402:../../libdaisy/src/hid/disp/display.h **** 
 2765              		.loc 6 402 20 view .LVU623
 2766 035c 67E7     		b	.L115
 2767              	.LVL189:
 2768              	.L163:
 405:../../libdaisy/src/hid/disp/display.h ****            || Height() < (currentY_ + font.FontHeight))
 2769              		.loc 6 405 17 view .LVU624
 2770 035e 2046     		mov	r0, r4
 2771 0360 9847     		blx	r3
 2772              	.LVL190:
 2773 0362 CDE6     		b	.L116
 2774              	.L171:
 2775              		.align	2
 2776              	.L170:
 2777 0364 00000000 		.word	_ZNK5daisy11OledDisplayINS_13SSD130xDriverILj128ELj64ENS_24SSD130x4WireSpiTransportEEEE5Widt
 2778 0368 00000000 		.word	_ZNK5daisy11OledDisplayINS_13SSD130xDriverILj128ELj64ENS_24SSD130x4WireSpiTransportEEEE6Heig
ARM GAS  /tmp/ccPAoVZi.s 			page 87


 2779              	.L164:
 406:../../libdaisy/src/hid/disp/display.h ****         {
 2780              		.loc 6 406 21 view .LVU625
 2781 036c 2046     		mov	r0, r4
 2782 036e 9847     		blx	r3
 2783              	.LVL191:
 2784 0370 D2E6     		b	.L118
 2785              	.LVL192:
 2786              	.L168:
 2787              	.LBB1183:
 2788              	.LBB1180:
 174:../../libdaisy/src/hid/disp/display.h ****     }
 2789              		.loc 6 174 33 view .LVU626
 2790 0372 2046     		mov	r0, r4
 2791 0374 9847     		blx	r3
 2792              	.LVL193:
 2793 0376 4DE7     		b	.L132
 2794              	.LVL194:
 2795              	.L166:
 173:../../libdaisy/src/hid/disp/display.h ****         currentY_ = (y >= Height()) ? Height() - 1 : y;
 2796              		.loc 6 173 32 view .LVU627
 2797 0378 2046     		mov	r0, r4
 2798 037a 9847     		blx	r3
 2799              	.LVL195:
 2800 037c 2268     		ldr	r2, [r4]
 2801 037e 3AE7     		b	.L129
 2802              	.LVL196:
 2803              	.L119:
 173:../../libdaisy/src/hid/disp/display.h ****         currentY_ = (y >= Height()) ? Height() - 1 : y;
 2804              		.loc 6 173 32 view .LVU628
 2805 0380 B4F804C0 		ldrh	ip, [r4, #4]
 2806 0384 2DE7     		b	.L121
 2807              	.LVL197:
 2808              	.L169:
 174:../../libdaisy/src/hid/disp/display.h ****     }
 2809              		.loc 6 174 45 view .LVU629
 2810 0386 2046     		mov	r0, r4
 2811 0388 9847     		blx	r3
 2812              	.LVL198:
 2813 038a 0138     		subs	r0, r0, #1
 2814 038c 83B2     		uxth	r3, r0
 2815 038e 0293     		str	r3, [sp, #8]
 2816              	.LVL199:
 174:../../libdaisy/src/hid/disp/display.h ****     }
 2817              		.loc 6 174 45 view .LVU630
 2818 0390 4BE7     		b	.L133
 2819              	.LVL200:
 2820              	.L167:
 173:../../libdaisy/src/hid/disp/display.h ****         currentY_ = (y >= Height()) ? Height() - 1 : y;
 2821              		.loc 6 173 43 view .LVU631
 2822 0392 2046     		mov	r0, r4
 2823 0394 9847     		blx	r3
 2824              	.LVL201:
 2825 0396 0138     		subs	r0, r0, #1
 2826 0398 2268     		ldr	r2, [r4]
 2827 039a 85B2     		uxth	r5, r0
 2828              	.LVL202:
ARM GAS  /tmp/ccPAoVZi.s 			page 88


 173:../../libdaisy/src/hid/disp/display.h ****         currentY_ = (y >= Height()) ? Height() - 1 : y;
 2829              		.loc 6 173 43 view .LVU632
 2830 039c 33E7     		b	.L130
 2831              	.LVL203:
 2832              	.L86:
 173:../../libdaisy/src/hid/disp/display.h ****         currentY_ = (y >= Height()) ? Height() - 1 : y;
 2833              		.loc 6 173 43 view .LVU633
 2834              	.LBE1180:
 2835              	.LBE1183:
 2836              	.LBE1184:
 2837              	.LBE1185:
 2838              	.LBE1187:
 2839              	.LBE1199:
 2840              	.LBB1200:
 2841              	.LBB1133:
 255:../../libdaisy/src/hid/disp/graphics_common.h ****         }
 2842              		.loc 17 255 13 is_stmt 1 view .LVU634
 255:../../libdaisy/src/hid/disp/graphics_common.h ****         }
 2843              		.loc 17 255 22 view .LVU635
 2844              	.LBB1116:
 2845              	.LBI1116:
  24:../../libdaisy/src/hid/disp/graphics_common.h **** 
 2846              		.loc 17 24 5 view .LVU636
 2847              	.LBE1116:
 2848              	.LBE1133:
 2849              	.LBE1200:
 2850              	.LBB1201:
 2851              	.LBB1139:
 173:../../libdaisy/src/hid/disp/display.h ****         currentY_ = (y >= Height()) ? Height() - 1 : y;
 2852              		.loc 6 173 33 is_stmt 0 view .LVU637
 2853 039e 2368     		ldr	r3, [r4]
 2854              	.LVL204:
 173:../../libdaisy/src/hid/disp/display.h ****         currentY_ = (y >= Height()) ? Height() - 1 : y;
 2855              		.loc 6 173 33 view .LVU638
 2856              	.LBE1139:
 2857              	.LBE1201:
 2858              	.LBB1202:
 2859              	.LBB1134:
 2860              	.LBB1119:
 2861              	.LBB1117:
  24:../../libdaisy/src/hid/disp/graphics_common.h **** 
 2862              		.loc 17 24 53 view .LVU639
 2863 03a0 0026     		movs	r6, #0
 2864              	.LVL205:
  24:../../libdaisy/src/hid/disp/graphics_common.h **** 
 2865              		.loc 17 24 53 view .LVU640
 2866 03a2 124F     		ldr	r7, .L172
 2867              	.LBE1117:
 2868              	.LBE1119:
 2869              	.LBE1134:
 2870              	.LBE1202:
 2871              	.LBB1203:
 2872              	.LBB1140:
 173:../../libdaisy/src/hid/disp/display.h ****         currentY_ = (y >= Height()) ? Height() - 1 : y;
 2873              		.loc 6 173 33 view .LVU641
 2874 03a4 DA68     		ldr	r2, [r3, #12]
 2875              	.LBE1140:
ARM GAS  /tmp/ccPAoVZi.s 			page 89


 2876              	.LBE1203:
 2877              	.LBB1204:
 2878              	.LBB1135:
 2879              	.LBB1120:
 2880              	.LBB1118:
  24:../../libdaisy/src/hid/disp/graphics_common.h **** 
 2881              		.loc 17 24 53 view .LVU642
 2882 03a6 0999     		ldr	r1, [sp, #36]
 2883 03a8 BA42     		cmp	r2, r7
 2884 03aa 0197     		str	r7, [sp, #4]
 2885 03ac 0E80     		strh	r6, [r1]	@ movhi
 2886 03ae 4E80     		strh	r6, [r1, #2]	@ movhi
 2887 03b0 8E80     		strh	r6, [r1, #4]	@ movhi
 2888 03b2 CE80     		strh	r6, [r1, #6]	@ movhi
 2889              	.LVL206:
  24:../../libdaisy/src/hid/disp/graphics_common.h **** 
 2890              		.loc 17 24 53 view .LVU643
 2891              	.LBE1118:
 2892              	.LBE1120:
 2893              	.LBE1135:
 2894              	.LBE1204:
  56:../../libdaisy/src/hid/disp/graphics_common.h ****     int16_t GetY() const { return y_; }
 2895              		.loc 17 56 28 is_stmt 1 view .LVU644
  57:../../libdaisy/src/hid/disp/graphics_common.h ****     int16_t GetWidth() const { return width_; }
 2896              		.loc 17 57 28 view .LVU645
 2897              	.LBB1205:
 171:../../libdaisy/src/hid/disp/display.h ****     {
 2898              		.loc 6 171 10 view .LVU646
 2899              	.LBB1141:
 173:../../libdaisy/src/hid/disp/display.h ****         currentY_ = (y >= Height()) ? Height() - 1 : y;
 2900              		.loc 6 173 9 view .LVU647
 2901 03b4 04D0     		beq	.L104
 173:../../libdaisy/src/hid/disp/display.h ****         currentY_ = (y >= Height()) ? Height() - 1 : y;
 2902              		.loc 6 173 33 is_stmt 0 view .LVU648
 2903 03b6 3746     		mov	r7, r6
 2904              	.LVL207:
 2905              	.L105:
 173:../../libdaisy/src/hid/disp/display.h ****         currentY_ = (y >= Height()) ? Height() - 1 : y;
 2906              		.loc 6 173 32 view .LVU649
 2907 03b8 2046     		mov	r0, r4
 2908 03ba 9047     		blx	r2
 2909              	.LVL208:
 2910 03bc 2368     		ldr	r3, [r4]
 2911 03be 6DE6     		b	.L106
 2912              	.LVL209:
 2913              	.L104:
 174:../../libdaisy/src/hid/disp/display.h ****     }
 2914              		.loc 6 174 34 view .LVU650
 2915 03c0 9B68     		ldr	r3, [r3, #8]
 2916 03c2 0B4A     		ldr	r2, .L172+4
 173:../../libdaisy/src/hid/disp/display.h ****         currentY_ = (y >= Height()) ? Height() - 1 : y;
 2917              		.loc 6 173 19 view .LVU651
 2918 03c4 A680     		strh	r6, [r4, #4]	@ movhi
 174:../../libdaisy/src/hid/disp/display.h ****     }
 2919              		.loc 6 174 9 is_stmt 1 view .LVU652
 2920 03c6 9342     		cmp	r3, r2
 2921 03c8 0392     		str	r2, [sp, #12]
ARM GAS  /tmp/ccPAoVZi.s 			page 90


 2922 03ca 3FF480AE 		beq	.L111
 2923              	.LVL210:
 2924              	.L137:
 174:../../libdaisy/src/hid/disp/display.h ****     }
 2925              		.loc 6 174 33 is_stmt 0 view .LVU653
 2926 03ce 2046     		mov	r0, r4
 2927 03d0 9847     		blx	r3
 2928              	.LVL211:
 2929 03d2 73E6     		b	.L109
 2930              	.L162:
 174:../../libdaisy/src/hid/disp/display.h ****     }
 2931              		.loc 6 174 45 view .LVU654
 2932 03d4 2046     		mov	r0, r4
 2933 03d6 9847     		blx	r3
 2934              	.LVL212:
 2935 03d8 0138     		subs	r0, r0, #1
 2936 03da 86B2     		uxth	r6, r0
 2937 03dc 77E6     		b	.L111
 2938              	.L161:
 173:../../libdaisy/src/hid/disp/display.h ****         currentY_ = (y >= Height()) ? Height() - 1 : y;
 2939              		.loc 6 173 43 view .LVU655
 2940 03de 2046     		mov	r0, r4
 2941 03e0 9047     		blx	r2
 2942              	.LVL213:
 2943 03e2 0138     		subs	r0, r0, #1
 2944 03e4 2368     		ldr	r3, [r4]
 2945 03e6 87B2     		uxth	r7, r0
 2946 03e8 60E6     		b	.L107
 2947              	.L173:
 2948 03ea 00BF     		.align	2
 2949              	.L172:
 2950 03ec 00000000 		.word	_ZNK5daisy11OledDisplayINS_13SSD130xDriverILj128ELj64ENS_24SSD130x4WireSpiTransportEEEE5Widt
 2951 03f0 00000000 		.word	_ZNK5daisy11OledDisplayINS_13SSD130xDriverILj128ELj64ENS_24SSD130x4WireSpiTransportEEEE6Heig
 2952              	.LBE1141:
 2953              	.LBE1205:
 2954              		.cfi_endproc
 2955              	.LFE4828:
 2957              		.section	.text._ZN5daisy25OneBitGraphicsDisplayImplINS_11OledDisplayINS_13SSD130xDriverILj128ELj64
 2958              		.align	1
 2959              		.p2align 2,,3
 2960              		.weak	_ZN5daisy25OneBitGraphicsDisplayImplINS_11OledDisplayINS_13SSD130xDriverILj128ELj64ENS_24SSD
 2961              		.syntax unified
 2962              		.thumb
 2963              		.thumb_func
 2964              		.fpu fpv5-d16
 2966              	_ZN5daisy25OneBitGraphicsDisplayImplINS_11OledDisplayINS_13SSD130xDriverILj128ELj64ENS_24SSD130x4Wi
 2967              	.LVL214:
 2968              	.LFB4825:
 221:../../libdaisy/src/hid/disp/display.h ****                   uint_fast8_t y1,
 2969              		.loc 6 221 10 is_stmt 1 view -0
 2970              		.cfi_startproc
 2971              		@ args = 8, pretend = 0, frame = 8
 2972              		@ frame_needed = 0, uses_anonymous_args = 0
 221:../../libdaisy/src/hid/disp/display.h ****                   uint_fast8_t y1,
 2973              		.loc 6 221 10 is_stmt 0 view .LVU657
 2974 0000 2DE9F04F 		push	{r4, r5, r6, r7, r8, r9, r10, fp, lr}
 2975              		.cfi_def_cfa_offset 36
ARM GAS  /tmp/ccPAoVZi.s 			page 91


 2976              		.cfi_offset 4, -36
 2977              		.cfi_offset 5, -32
 2978              		.cfi_offset 6, -28
 2979              		.cfi_offset 7, -24
 2980              		.cfi_offset 8, -20
 2981              		.cfi_offset 9, -16
 2982              		.cfi_offset 10, -12
 2983              		.cfi_offset 11, -8
 2984              		.cfi_offset 14, -4
 2985 0004 83B0     		sub	sp, sp, #12
 2986              		.cfi_def_cfa_offset 48
 227:../../libdaisy/src/hid/disp/display.h ****         int_fast16_t deltaY = abs((int_fast16_t)y2 - (int_fast16_t)y1);
 2987              		.loc 6 227 52 view .LVU658
 2988 0006 5E1A     		subs	r6, r3, r1
 221:../../libdaisy/src/hid/disp/display.h ****                   uint_fast8_t y1,
 2989              		.loc 6 221 10 view .LVU659
 2990 0008 0C9F     		ldr	r7, [sp, #48]
 2991 000a 9DF83480 		ldrb	r8, [sp, #52]	@ zero_extendqisi2
 228:../../libdaisy/src/hid/disp/display.h ****         int_fast16_t signX  = ((x1 < x2) ? 1 : -1);
 2992              		.loc 6 228 52 view .LVU660
 2993 000e A7EB020E 		sub	lr, r7, r2
 228:../../libdaisy/src/hid/disp/display.h ****         int_fast16_t signX  = ((x1 < x2) ? 1 : -1);
 2994              		.loc 6 228 22 view .LVU661
 2995 0012 BEF1000F 		cmp	lr, #0
 2996 0016 B8BF     		it	lt
 2997 0018 CEF1000E 		rsblt	lr, lr, #0
 229:../../libdaisy/src/hid/disp/display.h ****         int_fast16_t signY  = ((y1 < y2) ? 1 : -1);
 2998              		.loc 6 229 22 view .LVU662
 2999 001c 8B42     		cmp	r3, r1
 3000 001e 8CBF     		ite	hi
 3001 0020 4FF00109 		movhi	r9, #1
 3002 0024 4FF0FF39 		movls	r9, #-1
 227:../../libdaisy/src/hid/disp/display.h ****         int_fast16_t deltaY = abs((int_fast16_t)y2 - (int_fast16_t)y1);
 3003              		.loc 6 227 22 view .LVU663
 3004 0028 002E     		cmp	r6, #0
 3005 002a B8BF     		it	lt
 3006 002c 7642     		rsblt	r6, r6, #0
 3007              	.LVL215:
 230:../../libdaisy/src/hid/disp/display.h ****         int_fast16_t error  = deltaX - deltaY;
 3008              		.loc 6 230 22 view .LVU664
 3009 002e 9742     		cmp	r7, r2
 231:../../libdaisy/src/hid/disp/display.h ****         int_fast16_t error2;
 3010              		.loc 6 231 22 view .LVU665
 3011 0030 A6EB0E04 		sub	r4, r6, lr
 230:../../libdaisy/src/hid/disp/display.h ****         int_fast16_t error  = deltaX - deltaY;
 3012              		.loc 6 230 22 view .LVU666
 3013 0034 4FD8     		bhi	.L176
 3014              	.LVL216:
 3015              	.LBB1222:
 3016              	.LBI1222:
  41:../../libdaisy/src/hid/disp/oled_display.h ****     {
 3017              		.loc 5 41 10 is_stmt 1 discriminator 4 view .LVU667
 3018              	.LBB1223:
 3019              	.LBI1223:
 239:../../libdaisy/src/dev/oled_ssd130x.h ****     {
 3020              		.loc 15 239 10 discriminator 4 view .LVU668
 3021              	.LBE1223:
ARM GAS  /tmp/ccPAoVZi.s 			page 92


 3022              	.LBE1222:
 230:../../libdaisy/src/hid/disp/display.h ****         int_fast16_t error  = deltaX - deltaY;
 3023              		.loc 6 230 22 is_stmt 0 discriminator 4 view .LVU669
 3024 0036 4FF0FF35 		mov	r5, #-1
 3025              	.LBB1239:
 3026              	.LBB1233:
 3027              	.LBB1224:
 241:../../libdaisy/src/dev/oled_ssd130x.h ****             return;
 3028              		.loc 15 241 9 discriminator 4 view .LVU670
 3029 003a 7F2B     		cmp	r3, #127
 3030              	.LBE1224:
 3031              	.LBE1233:
 3032              	.LBE1239:
 230:../../libdaisy/src/hid/disp/display.h ****         int_fast16_t error  = deltaX - deltaY;
 3033              		.loc 6 230 22 discriminator 4 view .LVU671
 3034 003c 0195     		str	r5, [sp, #4]
 3035              	.LBB1240:
 3036              	.LBB1234:
 3037              	.LBB1229:
 241:../../libdaisy/src/dev/oled_ssd130x.h ****             return;
 3038              		.loc 15 241 9 discriminator 4 view .LVU672
 3039 003e 14D8     		bhi	.L177
 3040 0040 3F2F     		cmp	r7, #63
 3041 0042 12D8     		bhi	.L177
 3042              	.LVL217:
 3043              	.L188:
 244:../../libdaisy/src/dev/oled_ssd130x.h ****         else
 3044              		.loc 15 244 28 view .LVU673
 3045 0044 FD08     		lsrs	r5, r7, #3
 244:../../libdaisy/src/dev/oled_ssd130x.h ****         else
 3046              		.loc 15 244 54 view .LVU674
 3047 0046 07F0070C 		and	ip, r7, #7
 244:../../libdaisy/src/dev/oled_ssd130x.h ****         else
 3048              		.loc 15 244 48 view .LVU675
 3049 004a 4FF0010A 		mov	r10, #1
 244:../../libdaisy/src/dev/oled_ssd130x.h ****         else
 3050              		.loc 15 244 42 view .LVU676
 3051 004e 03EBC515 		add	r5, r3, r5, lsl #7
 243:../../libdaisy/src/dev/oled_ssd130x.h ****             buffer_[x + (y / 8) * width] |= (1 << (y % 8));
 3052              		.loc 15 243 9 view .LVU677
 3053 0052 B8F1000F 		cmp	r8, #0
 3054 0056 45D0     		beq	.L178
 244:../../libdaisy/src/dev/oled_ssd130x.h ****         else
 3055              		.loc 15 244 13 view .LVU678
 3056 0058 0544     		add	r5, r5, r0
 244:../../libdaisy/src/dev/oled_ssd130x.h ****         else
 3057              		.loc 15 244 48 view .LVU679
 3058 005a 0AFA0CFC 		lsl	ip, r10, ip
 244:../../libdaisy/src/dev/oled_ssd130x.h ****         else
 3059              		.loc 15 244 42 view .LVU680
 3060 005e 95F814A0 		ldrb	r10, [r5, #20]	@ zero_extendqisi2
 3061 0062 4CEA0A0C 		orr	ip, ip, r10
 244:../../libdaisy/src/dev/oled_ssd130x.h ****         else
 3062              		.loc 15 244 13 view .LVU681
 3063 0066 85F814C0 		strb	ip, [r5, #20]
 3064              	.L177:
 3065              	.LVL218:
ARM GAS  /tmp/ccPAoVZi.s 			page 93


 244:../../libdaisy/src/dev/oled_ssd130x.h ****         else
 3066              		.loc 15 244 13 view .LVU682
 3067              	.LBE1229:
 3068              	.LBE1234:
 3069              	.LBE1240:
 239:../../libdaisy/src/hid/disp/display.h ****         {
 3070              		.loc 6 239 26 is_stmt 1 view .LVU683
 3071 006a 9742     		cmp	r7, r2
 3072 006c 01D1     		bne	.L181
 3073              	.L200:
 239:../../libdaisy/src/hid/disp/display.h ****         {
 3074              		.loc 6 239 26 is_stmt 0 view .LVU684
 3075 006e 8B42     		cmp	r3, r1
 3076 0070 29D0     		beq	.L174
 3077              	.L181:
 3078              	.LVL219:
 239:../../libdaisy/src/hid/disp/display.h ****         {
 3079              		.loc 6 239 26 view .LVU685
 3080 0072 CEF1000C 		rsb	ip, lr, #0
 3081              	.L183:
 3082              	.LVL220:
 3083              	.LBB1241:
 3084              	.LBI1241:
  41:../../libdaisy/src/hid/disp/oled_display.h ****     {
 3085              		.loc 5 41 10 is_stmt 1 view .LVU686
 3086              	.LBB1242:
 3087              	.LBI1242:
 239:../../libdaisy/src/dev/oled_ssd130x.h ****     {
 3088              		.loc 15 239 10 view .LVU687
 3089              	.LBB1243:
 241:../../libdaisy/src/dev/oled_ssd130x.h ****             return;
 3090              		.loc 15 241 9 is_stmt 0 view .LVU688
 3091 0076 7F29     		cmp	r1, #127
 3092 0078 14D8     		bhi	.L184
 3093 007a 3F2A     		cmp	r2, #63
 3094 007c 12D8     		bhi	.L184
 244:../../libdaisy/src/dev/oled_ssd130x.h ****         else
 3095              		.loc 15 244 28 view .LVU689
 3096 007e D508     		lsrs	r5, r2, #3
 244:../../libdaisy/src/dev/oled_ssd130x.h ****         else
 3097              		.loc 15 244 48 view .LVU690
 3098 0080 4FF0010B 		mov	fp, #1
 244:../../libdaisy/src/dev/oled_ssd130x.h ****         else
 3099              		.loc 15 244 54 view .LVU691
 3100 0084 02F0070A 		and	r10, r2, #7
 244:../../libdaisy/src/dev/oled_ssd130x.h ****         else
 3101              		.loc 15 244 42 view .LVU692
 3102 0088 01EBC515 		add	r5, r1, r5, lsl #7
 244:../../libdaisy/src/dev/oled_ssd130x.h ****         else
 3103              		.loc 15 244 48 view .LVU693
 3104 008c 0BFA0AFA 		lsl	r10, fp, r10
 244:../../libdaisy/src/dev/oled_ssd130x.h ****         else
 3105              		.loc 15 244 13 view .LVU694
 3106 0090 0544     		add	r5, r5, r0
 244:../../libdaisy/src/dev/oled_ssd130x.h ****         else
 3107              		.loc 15 244 42 view .LVU695
 3108 0092 95F814B0 		ldrb	fp, [r5, #20]	@ zero_extendqisi2
ARM GAS  /tmp/ccPAoVZi.s 			page 94


 243:../../libdaisy/src/dev/oled_ssd130x.h ****             buffer_[x + (y / 8) * width] |= (1 << (y % 8));
 3109              		.loc 15 243 9 view .LVU696
 3110 0096 B8F1000F 		cmp	r8, #0
 3111 009a 17D0     		beq	.L185
 244:../../libdaisy/src/dev/oled_ssd130x.h ****         else
 3112              		.loc 15 244 42 view .LVU697
 3113 009c 4AEA0B0A 		orr	r10, r10, fp
 244:../../libdaisy/src/dev/oled_ssd130x.h ****         else
 3114              		.loc 15 244 13 view .LVU698
 3115 00a0 85F814A0 		strb	r10, [r5, #20]
 3116              	.L184:
 3117              	.LVL221:
 244:../../libdaisy/src/dev/oled_ssd130x.h ****         else
 3118              		.loc 15 244 13 view .LVU699
 3119              	.LBE1243:
 3120              	.LBE1242:
 3121              	.LBE1241:
 243:../../libdaisy/src/hid/disp/display.h ****             {
 3122              		.loc 6 243 13 view .LVU700
 3123 00a4 BCEB440F 		cmp	ip, r4, lsl #1
 242:../../libdaisy/src/hid/disp/display.h ****             if(error2 > -deltaY)
 3124              		.loc 6 242 13 view .LVU701
 3125 00a8 4FEA4405 		lsl	r5, r4, #1
 3126              	.LVL222:
 243:../../libdaisy/src/hid/disp/display.h ****             {
 3127              		.loc 6 243 13 view .LVU702
 3128 00ac 02DA     		bge	.L186
 245:../../libdaisy/src/hid/disp/display.h ****                 x1 += signX;
 3129              		.loc 6 245 17 view .LVU703
 3130 00ae A4EB0E04 		sub	r4, r4, lr
 3131              	.LVL223:
 246:../../libdaisy/src/hid/disp/display.h ****             }
 3132              		.loc 6 246 17 view .LVU704
 3133 00b2 4944     		add	r1, r1, r9
 3134              	.LVL224:
 3135              	.L186:
 249:../../libdaisy/src/hid/disp/display.h ****             {
 3136              		.loc 6 249 13 view .LVU705
 3137 00b4 AE42     		cmp	r6, r5
 3138 00b6 02DD     		ble	.L187
 252:../../libdaisy/src/hid/disp/display.h ****             }
 3139              		.loc 6 252 17 view .LVU706
 3140 00b8 019D     		ldr	r5, [sp, #4]
 3141              	.LVL225:
 251:../../libdaisy/src/hid/disp/display.h ****                 y1 += signY;
 3142              		.loc 6 251 17 view .LVU707
 3143 00ba 3444     		add	r4, r4, r6
 3144              	.LVL226:
 252:../../libdaisy/src/hid/disp/display.h ****             }
 3145              		.loc 6 252 17 view .LVU708
 3146 00bc 2A44     		add	r2, r2, r5
 3147              	.LVL227:
 3148              	.L187:
 239:../../libdaisy/src/hid/disp/display.h ****         {
 3149              		.loc 6 239 26 is_stmt 1 view .LVU709
 3150 00be 9942     		cmp	r1, r3
 3151 00c0 D9D1     		bne	.L183
ARM GAS  /tmp/ccPAoVZi.s 			page 95


 239:../../libdaisy/src/hid/disp/display.h ****         {
 3152              		.loc 6 239 26 is_stmt 0 view .LVU710
 3153 00c2 9742     		cmp	r7, r2
 3154 00c4 D7D1     		bne	.L183
 3155              	.L174:
 255:../../libdaisy/src/hid/disp/display.h **** 
 3156              		.loc 6 255 5 view .LVU711
 3157 00c6 03B0     		add	sp, sp, #12
 3158              		.cfi_remember_state
 3159              		.cfi_def_cfa_offset 36
 3160              		@ sp needed
 3161 00c8 BDE8F08F 		pop	{r4, r5, r6, r7, r8, r9, r10, fp, pc}
 3162              	.LVL228:
 3163              	.L185:
 3164              		.cfi_restore_state
 3165              	.LBB1248:
 3166              	.LBB1247:
 3167              	.LBB1246:
 3168              	.LBB1244:
 3169              	.LBI1244:
 239:../../libdaisy/src/dev/oled_ssd130x.h ****     {
 3170              		.loc 15 239 10 is_stmt 1 view .LVU712
 3171              	.LBB1245:
 246:../../libdaisy/src/dev/oled_ssd130x.h ****     }
 3172              		.loc 15 246 42 is_stmt 0 view .LVU713
 3173 00cc 2BEA0A0A 		bic	r10, fp, r10
 246:../../libdaisy/src/dev/oled_ssd130x.h ****     }
 3174              		.loc 15 246 13 view .LVU714
 3175 00d0 85F814A0 		strb	r10, [r5, #20]
 3176 00d4 E6E7     		b	.L184
 3177              	.LVL229:
 3178              	.L176:
 246:../../libdaisy/src/dev/oled_ssd130x.h ****     }
 3179              		.loc 15 246 13 view .LVU715
 3180              	.LBE1245:
 3181              	.LBE1244:
 3182              	.LBE1246:
 3183              	.LBE1247:
 3184              	.LBE1248:
 3185              	.LBB1249:
  41:../../libdaisy/src/hid/disp/oled_display.h ****     {
 3186              		.loc 5 41 10 is_stmt 1 view .LVU716
 3187              	.LBB1235:
 239:../../libdaisy/src/dev/oled_ssd130x.h ****     {
 3188              		.loc 15 239 10 view .LVU717
 3189              	.LBE1235:
 3190              	.LBE1249:
 230:../../libdaisy/src/hid/disp/display.h ****         int_fast16_t error  = deltaX - deltaY;
 3191              		.loc 6 230 22 is_stmt 0 view .LVU718
 3192 00d6 0125     		movs	r5, #1
 3193              	.LBB1250:
 3194              	.LBB1236:
 3195              	.LBB1230:
 241:../../libdaisy/src/dev/oled_ssd130x.h ****             return;
 3196              		.loc 15 241 9 view .LVU719
 3197 00d8 7F2B     		cmp	r3, #127
 3198              	.LBE1230:
ARM GAS  /tmp/ccPAoVZi.s 			page 96


 3199              	.LBE1236:
 3200              	.LBE1250:
 230:../../libdaisy/src/hid/disp/display.h ****         int_fast16_t error  = deltaX - deltaY;
 3201              		.loc 6 230 22 view .LVU720
 3202 00da 0195     		str	r5, [sp, #4]
 3203              	.LBB1251:
 3204              	.LBB1237:
 3205              	.LBB1231:
 241:../../libdaisy/src/dev/oled_ssd130x.h ****             return;
 3206              		.loc 15 241 9 view .LVU721
 3207 00dc C9D8     		bhi	.L181
 3208 00de 3F2F     		cmp	r7, #63
 3209 00e0 B0D9     		bls	.L188
 3210 00e2 C6E7     		b	.L181
 3211              	.LVL230:
 3212              	.L178:
 3213              	.LBB1225:
 3214              	.LBI1225:
 239:../../libdaisy/src/dev/oled_ssd130x.h ****     {
 3215              		.loc 15 239 10 is_stmt 1 view .LVU722
 3216              	.LBB1226:
 246:../../libdaisy/src/dev/oled_ssd130x.h ****     }
 3217              		.loc 15 246 13 is_stmt 0 view .LVU723
 3218 00e4 0544     		add	r5, r5, r0
 246:../../libdaisy/src/dev/oled_ssd130x.h ****     }
 3219              		.loc 15 246 49 view .LVU724
 3220 00e6 0AFA0CFA 		lsl	r10, r10, ip
 3221              	.LBE1226:
 3222              	.LBE1225:
 3223              	.LBE1231:
 3224              	.LBE1237:
 3225              	.LBE1251:
 239:../../libdaisy/src/hid/disp/display.h ****         {
 3226              		.loc 6 239 26 view .LVU725
 3227 00ea 9742     		cmp	r7, r2
 3228              	.LBB1252:
 3229              	.LBB1238:
 3230              	.LBB1232:
 3231              	.LBB1228:
 3232              	.LBB1227:
 246:../../libdaisy/src/dev/oled_ssd130x.h ****     }
 3233              		.loc 15 246 42 view .LVU726
 3234 00ec 95F814C0 		ldrb	ip, [r5, #20]	@ zero_extendqisi2
 3235 00f0 2CEA0A0C 		bic	ip, ip, r10
 246:../../libdaisy/src/dev/oled_ssd130x.h ****     }
 3236              		.loc 15 246 13 view .LVU727
 3237 00f4 85F814C0 		strb	ip, [r5, #20]
 3238              	.LVL231:
 246:../../libdaisy/src/dev/oled_ssd130x.h ****     }
 3239              		.loc 15 246 13 view .LVU728
 3240              	.LBE1227:
 3241              	.LBE1228:
 3242              	.LBE1232:
 3243              	.LBE1238:
 3244              	.LBE1252:
 239:../../libdaisy/src/hid/disp/display.h ****         {
 3245              		.loc 6 239 26 is_stmt 1 view .LVU729
ARM GAS  /tmp/ccPAoVZi.s 			page 97


 3246 00f8 B9D0     		beq	.L200
 3247 00fa BAE7     		b	.L181
 3248              		.cfi_endproc
 3249              	.LFE4825:
 3251              		.section	.text._ZN5daisy25OneBitGraphicsDisplayImplINS_11OledDisplayINS_13SSD130xDriverILj128ELj64
 3252              		.align	1
 3253              		.p2align 2,,3
 3254              		.weak	_ZN5daisy25OneBitGraphicsDisplayImplINS_11OledDisplayINS_13SSD130xDriverILj128ELj64ENS_24SSD
 3255              		.syntax unified
 3256              		.thumb
 3257              		.thumb_func
 3258              		.fpu fpv5-d16
 3260              	_ZN5daisy25OneBitGraphicsDisplayImplINS_11OledDisplayINS_13SSD130xDriverILj128ELj64ENS_24SSD130x4Wi
 3261              	.LVL232:
 3262              	.LFB4827:
 283:../../libdaisy/src/hid/disp/display.h ****                  uint_fast8_t y,
 3263              		.loc 6 283 10 view -0
 3264              		.cfi_startproc
 3265              		@ args = 12, pretend = 0, frame = 16
 3266              		@ frame_needed = 0, uses_anonymous_args = 0
 283:../../libdaisy/src/hid/disp/display.h ****                  uint_fast8_t y,
 3267              		.loc 6 283 10 is_stmt 0 view .LVU731
 3268 0000 2DE9F04F 		push	{r4, r5, r6, r7, r8, r9, r10, fp, lr}
 3269              		.cfi_def_cfa_offset 36
 3270              		.cfi_offset 4, -36
 3271              		.cfi_offset 5, -32
 3272              		.cfi_offset 6, -28
 3273              		.cfi_offset 7, -24
 3274              		.cfi_offset 8, -20
 3275              		.cfi_offset 9, -16
 3276              		.cfi_offset 10, -12
 3277              		.cfi_offset 11, -8
 3278              		.cfi_offset 14, -4
 3279 0004 2DED068B 		vpush.64	{d8, d9, d10}
 3280              		.cfi_def_cfa_offset 60
 3281              		.cfi_offset 80, -60
 3282              		.cfi_offset 81, -56
 3283              		.cfi_offset 82, -52
 3284              		.cfi_offset 83, -48
 3285              		.cfi_offset 84, -44
 3286              		.cfi_offset 85, -40
 3287 0008 85B0     		sub	sp, sp, #20
 3288              		.cfi_def_cfa_offset 80
 283:../../libdaisy/src/hid/disp/display.h ****                  uint_fast8_t y,
 3289              		.loc 6 283 10 view .LVU732
 3290 000a 1C46     		mov	r4, r3
 3291 000c 0F46     		mov	r7, r1
 3292 000e 9046     		mov	r8, r2
 3293 0010 9DF85830 		ldrb	r3, [sp, #88]	@ zero_extendqisi2
 3294              	.LVL233:
 283:../../libdaisy/src/hid/disp/display.h ****                  uint_fast8_t y,
 3295              		.loc 6 283 10 view .LVU733
 3296 0014 0390     		str	r0, [sp, #12]
 3297 0016 0293     		str	r3, [sp, #8]
 306:../../libdaisy/src/hid/disp/display.h ****         {
 3298              		.loc 6 306 9 view .LVU734
 3299 0018 159B     		ldr	r3, [sp, #84]
ARM GAS  /tmp/ccPAoVZi.s 			page 98


 3300 001a 002B     		cmp	r3, #0
 3301 001c C0F2F281 		blt	.L202
 3302 0020 149A     		ldr	r2, [sp, #80]
 3303              	.LVL234:
 306:../../libdaisy/src/hid/disp/display.h ****         {
 3304              		.loc 6 306 9 view .LVU735
 3305 0022 1344     		add	r3, r3, r2
 3306 0024 06EE103A 		vmov	s12, r3	@ int
 3307              	.LVL235:
 3308              	.L203:
 312:../../libdaisy/src/hid/disp/display.h ****         end_angle_rad   = deg2rad(start_angle + sweep);
 3309              		.loc 6 312 27 view .LVU736
 3310 0028 DDED147A 		vldr.32	s15, [sp, #80]	@ int
 313:../../libdaisy/src/hid/disp/display.h **** 
 3311              		.loc 6 313 27 view .LVU737
 3312 002c B8EEC66B 		vcvt.f64.s32	d6, s12
 312:../../libdaisy/src/hid/disp/display.h ****         end_angle_rad   = deg2rad(start_angle + sweep);
 3313              		.loc 6 312 27 view .LVU738
 3314 0030 9FEDD54B 		vldr.64	d4, .L276
 3315 0034 B8EEE77B 		vcvt.f64.s32	d7, s15
 3316 0038 9FEDD55B 		vldr.64	d5, .L276+8
 3317 003c 27EE047B 		vmul.f64	d7, d7, d4
 313:../../libdaisy/src/hid/disp/display.h **** 
 3318              		.loc 6 313 27 view .LVU739
 3319 0040 26EE046B 		vmul.f64	d6, d6, d4
 312:../../libdaisy/src/hid/disp/display.h ****         end_angle_rad   = deg2rad(start_angle + sweep);
 3320              		.loc 6 312 27 view .LVU740
 3321 0044 87EE050B 		vdiv.f64	d0, d7, d5
 313:../../libdaisy/src/hid/disp/display.h **** 
 3322              		.loc 6 313 27 view .LVU741
 3323 0048 86EE05AB 		vdiv.f64	d10, d6, d5
 312:../../libdaisy/src/hid/disp/display.h ****         end_angle_rad   = deg2rad(start_angle + sweep);
 3324              		.loc 6 312 9 view .LVU742
 3325 004c F7EEC08B 		vcvt.f32.f64	s17, d0
 3326              	.LVL236:
 3327              	.LBB1285:
 3328              	.LBB1286:
 3329              		.file 18 "/usr/include/newlib/c++/9.2.1/cmath"
   1:/usr/include/newlib/c++/9.2.1/cmath **** // -*- C++ -*- C forwarding header.
   2:/usr/include/newlib/c++/9.2.1/cmath **** 
   3:/usr/include/newlib/c++/9.2.1/cmath **** // Copyright (C) 1997-2019 Free Software Foundation, Inc.
   4:/usr/include/newlib/c++/9.2.1/cmath **** //
   5:/usr/include/newlib/c++/9.2.1/cmath **** // This file is part of the GNU ISO C++ Library.  This library is free
   6:/usr/include/newlib/c++/9.2.1/cmath **** // software; you can redistribute it and/or modify it under the
   7:/usr/include/newlib/c++/9.2.1/cmath **** // terms of the GNU General Public License as published by the
   8:/usr/include/newlib/c++/9.2.1/cmath **** // Free Software Foundation; either version 3, or (at your option)
   9:/usr/include/newlib/c++/9.2.1/cmath **** // any later version.
  10:/usr/include/newlib/c++/9.2.1/cmath **** 
  11:/usr/include/newlib/c++/9.2.1/cmath **** // This library is distributed in the hope that it will be useful,
  12:/usr/include/newlib/c++/9.2.1/cmath **** // but WITHOUT ANY WARRANTY; without even the implied warranty of
  13:/usr/include/newlib/c++/9.2.1/cmath **** // MERCHANTABILITY or FITNESS FOR A PARTICULAR PURPOSE.  See the
  14:/usr/include/newlib/c++/9.2.1/cmath **** // GNU General Public License for more details.
  15:/usr/include/newlib/c++/9.2.1/cmath **** 
  16:/usr/include/newlib/c++/9.2.1/cmath **** // Under Section 7 of GPL version 3, you are granted additional
  17:/usr/include/newlib/c++/9.2.1/cmath **** // permissions described in the GCC Runtime Library Exception, version
  18:/usr/include/newlib/c++/9.2.1/cmath **** // 3.1, as published by the Free Software Foundation.
  19:/usr/include/newlib/c++/9.2.1/cmath **** 
ARM GAS  /tmp/ccPAoVZi.s 			page 99


  20:/usr/include/newlib/c++/9.2.1/cmath **** // You should have received a copy of the GNU General Public License and
  21:/usr/include/newlib/c++/9.2.1/cmath **** // a copy of the GCC Runtime Library Exception along with this program;
  22:/usr/include/newlib/c++/9.2.1/cmath **** // see the files COPYING3 and COPYING.RUNTIME respectively.  If not, see
  23:/usr/include/newlib/c++/9.2.1/cmath **** // <http://www.gnu.org/licenses/>.
  24:/usr/include/newlib/c++/9.2.1/cmath **** 
  25:/usr/include/newlib/c++/9.2.1/cmath **** /** @file include/cmath
  26:/usr/include/newlib/c++/9.2.1/cmath ****  *  This is a Standard C++ Library file.  You should @c \#include this file
  27:/usr/include/newlib/c++/9.2.1/cmath ****  *  in your programs, rather than any of the @a *.h implementation files.
  28:/usr/include/newlib/c++/9.2.1/cmath ****  *
  29:/usr/include/newlib/c++/9.2.1/cmath ****  *  This is the C++ version of the Standard C Library header @c math.h,
  30:/usr/include/newlib/c++/9.2.1/cmath ****  *  and its contents are (mostly) the same as that header, but are all
  31:/usr/include/newlib/c++/9.2.1/cmath ****  *  contained in the namespace @c std (except for names which are defined
  32:/usr/include/newlib/c++/9.2.1/cmath ****  *  as macros in C).
  33:/usr/include/newlib/c++/9.2.1/cmath ****  */
  34:/usr/include/newlib/c++/9.2.1/cmath **** 
  35:/usr/include/newlib/c++/9.2.1/cmath **** //
  36:/usr/include/newlib/c++/9.2.1/cmath **** // ISO C++ 14882: 26.5  C library
  37:/usr/include/newlib/c++/9.2.1/cmath **** //
  38:/usr/include/newlib/c++/9.2.1/cmath **** 
  39:/usr/include/newlib/c++/9.2.1/cmath **** #pragma GCC system_header
  40:/usr/include/newlib/c++/9.2.1/cmath **** 
  41:/usr/include/newlib/c++/9.2.1/cmath **** #include <bits/c++config.h>
  42:/usr/include/newlib/c++/9.2.1/cmath **** #include <bits/cpp_type_traits.h>
  43:/usr/include/newlib/c++/9.2.1/cmath **** #include <ext/type_traits.h>
  44:/usr/include/newlib/c++/9.2.1/cmath **** #define _GLIBCXX_INCLUDE_NEXT_C_HEADERS
  45:/usr/include/newlib/c++/9.2.1/cmath **** #include_next <math.h>
  46:/usr/include/newlib/c++/9.2.1/cmath **** #undef _GLIBCXX_INCLUDE_NEXT_C_HEADERS
  47:/usr/include/newlib/c++/9.2.1/cmath **** #include <bits/std_abs.h>
  48:/usr/include/newlib/c++/9.2.1/cmath **** 
  49:/usr/include/newlib/c++/9.2.1/cmath **** #ifndef _GLIBCXX_CMATH
  50:/usr/include/newlib/c++/9.2.1/cmath **** #define _GLIBCXX_CMATH 1
  51:/usr/include/newlib/c++/9.2.1/cmath **** 
  52:/usr/include/newlib/c++/9.2.1/cmath **** // Get rid of those macros defined in <math.h> in lieu of real functions.
  53:/usr/include/newlib/c++/9.2.1/cmath **** #undef div
  54:/usr/include/newlib/c++/9.2.1/cmath **** #undef acos
  55:/usr/include/newlib/c++/9.2.1/cmath **** #undef asin
  56:/usr/include/newlib/c++/9.2.1/cmath **** #undef atan
  57:/usr/include/newlib/c++/9.2.1/cmath **** #undef atan2
  58:/usr/include/newlib/c++/9.2.1/cmath **** #undef ceil
  59:/usr/include/newlib/c++/9.2.1/cmath **** #undef cos
  60:/usr/include/newlib/c++/9.2.1/cmath **** #undef cosh
  61:/usr/include/newlib/c++/9.2.1/cmath **** #undef exp
  62:/usr/include/newlib/c++/9.2.1/cmath **** #undef fabs
  63:/usr/include/newlib/c++/9.2.1/cmath **** #undef floor
  64:/usr/include/newlib/c++/9.2.1/cmath **** #undef fmod
  65:/usr/include/newlib/c++/9.2.1/cmath **** #undef frexp
  66:/usr/include/newlib/c++/9.2.1/cmath **** #undef ldexp
  67:/usr/include/newlib/c++/9.2.1/cmath **** #undef log
  68:/usr/include/newlib/c++/9.2.1/cmath **** #undef log10
  69:/usr/include/newlib/c++/9.2.1/cmath **** #undef modf
  70:/usr/include/newlib/c++/9.2.1/cmath **** #undef pow
  71:/usr/include/newlib/c++/9.2.1/cmath **** #undef sin
  72:/usr/include/newlib/c++/9.2.1/cmath **** #undef sinh
  73:/usr/include/newlib/c++/9.2.1/cmath **** #undef sqrt
  74:/usr/include/newlib/c++/9.2.1/cmath **** #undef tan
  75:/usr/include/newlib/c++/9.2.1/cmath **** #undef tanh
  76:/usr/include/newlib/c++/9.2.1/cmath **** 
ARM GAS  /tmp/ccPAoVZi.s 			page 100


  77:/usr/include/newlib/c++/9.2.1/cmath **** extern "C++"
  78:/usr/include/newlib/c++/9.2.1/cmath **** {
  79:/usr/include/newlib/c++/9.2.1/cmath **** namespace std _GLIBCXX_VISIBILITY(default)
  80:/usr/include/newlib/c++/9.2.1/cmath **** {
  81:/usr/include/newlib/c++/9.2.1/cmath **** _GLIBCXX_BEGIN_NAMESPACE_VERSION
  82:/usr/include/newlib/c++/9.2.1/cmath **** 
  83:/usr/include/newlib/c++/9.2.1/cmath ****   using ::acos;
  84:/usr/include/newlib/c++/9.2.1/cmath **** 
  85:/usr/include/newlib/c++/9.2.1/cmath **** #ifndef __CORRECT_ISO_CPP_MATH_H_PROTO
  86:/usr/include/newlib/c++/9.2.1/cmath ****   inline _GLIBCXX_CONSTEXPR float
  87:/usr/include/newlib/c++/9.2.1/cmath ****   acos(float __x)
  88:/usr/include/newlib/c++/9.2.1/cmath ****   { return __builtin_acosf(__x); }
  89:/usr/include/newlib/c++/9.2.1/cmath **** 
  90:/usr/include/newlib/c++/9.2.1/cmath ****   inline _GLIBCXX_CONSTEXPR long double
  91:/usr/include/newlib/c++/9.2.1/cmath ****   acos(long double __x)
  92:/usr/include/newlib/c++/9.2.1/cmath ****   { return __builtin_acosl(__x); }
  93:/usr/include/newlib/c++/9.2.1/cmath **** #endif
  94:/usr/include/newlib/c++/9.2.1/cmath **** 
  95:/usr/include/newlib/c++/9.2.1/cmath ****   template<typename _Tp>
  96:/usr/include/newlib/c++/9.2.1/cmath ****     inline _GLIBCXX_CONSTEXPR
  97:/usr/include/newlib/c++/9.2.1/cmath ****     typename __gnu_cxx::__enable_if<__is_integer<_Tp>::__value, 
  98:/usr/include/newlib/c++/9.2.1/cmath ****                                     double>::__type
  99:/usr/include/newlib/c++/9.2.1/cmath ****     acos(_Tp __x)
 100:/usr/include/newlib/c++/9.2.1/cmath ****     { return __builtin_acos(__x); }
 101:/usr/include/newlib/c++/9.2.1/cmath **** 
 102:/usr/include/newlib/c++/9.2.1/cmath ****   using ::asin;
 103:/usr/include/newlib/c++/9.2.1/cmath **** 
 104:/usr/include/newlib/c++/9.2.1/cmath **** #ifndef __CORRECT_ISO_CPP_MATH_H_PROTO
 105:/usr/include/newlib/c++/9.2.1/cmath ****   inline _GLIBCXX_CONSTEXPR float
 106:/usr/include/newlib/c++/9.2.1/cmath ****   asin(float __x)
 107:/usr/include/newlib/c++/9.2.1/cmath ****   { return __builtin_asinf(__x); }
 108:/usr/include/newlib/c++/9.2.1/cmath **** 
 109:/usr/include/newlib/c++/9.2.1/cmath ****   inline _GLIBCXX_CONSTEXPR long double
 110:/usr/include/newlib/c++/9.2.1/cmath ****   asin(long double __x)
 111:/usr/include/newlib/c++/9.2.1/cmath ****   { return __builtin_asinl(__x); }
 112:/usr/include/newlib/c++/9.2.1/cmath **** #endif
 113:/usr/include/newlib/c++/9.2.1/cmath **** 
 114:/usr/include/newlib/c++/9.2.1/cmath ****   template<typename _Tp>
 115:/usr/include/newlib/c++/9.2.1/cmath ****     inline _GLIBCXX_CONSTEXPR
 116:/usr/include/newlib/c++/9.2.1/cmath ****     typename __gnu_cxx::__enable_if<__is_integer<_Tp>::__value,
 117:/usr/include/newlib/c++/9.2.1/cmath ****                                     double>::__type
 118:/usr/include/newlib/c++/9.2.1/cmath ****     asin(_Tp __x)
 119:/usr/include/newlib/c++/9.2.1/cmath ****     { return __builtin_asin(__x); }
 120:/usr/include/newlib/c++/9.2.1/cmath **** 
 121:/usr/include/newlib/c++/9.2.1/cmath ****   using ::atan;
 122:/usr/include/newlib/c++/9.2.1/cmath **** 
 123:/usr/include/newlib/c++/9.2.1/cmath **** #ifndef __CORRECT_ISO_CPP_MATH_H_PROTO
 124:/usr/include/newlib/c++/9.2.1/cmath ****   inline _GLIBCXX_CONSTEXPR float
 125:/usr/include/newlib/c++/9.2.1/cmath ****   atan(float __x)
 126:/usr/include/newlib/c++/9.2.1/cmath ****   { return __builtin_atanf(__x); }
 127:/usr/include/newlib/c++/9.2.1/cmath **** 
 128:/usr/include/newlib/c++/9.2.1/cmath ****   inline _GLIBCXX_CONSTEXPR long double
 129:/usr/include/newlib/c++/9.2.1/cmath ****   atan(long double __x)
 130:/usr/include/newlib/c++/9.2.1/cmath ****   { return __builtin_atanl(__x); }
 131:/usr/include/newlib/c++/9.2.1/cmath **** #endif
 132:/usr/include/newlib/c++/9.2.1/cmath **** 
 133:/usr/include/newlib/c++/9.2.1/cmath ****   template<typename _Tp>
ARM GAS  /tmp/ccPAoVZi.s 			page 101


 134:/usr/include/newlib/c++/9.2.1/cmath ****     inline _GLIBCXX_CONSTEXPR
 135:/usr/include/newlib/c++/9.2.1/cmath ****     typename __gnu_cxx::__enable_if<__is_integer<_Tp>::__value,
 136:/usr/include/newlib/c++/9.2.1/cmath ****                                     double>::__type
 137:/usr/include/newlib/c++/9.2.1/cmath ****     atan(_Tp __x)
 138:/usr/include/newlib/c++/9.2.1/cmath ****     { return __builtin_atan(__x); }
 139:/usr/include/newlib/c++/9.2.1/cmath **** 
 140:/usr/include/newlib/c++/9.2.1/cmath ****   using ::atan2;
 141:/usr/include/newlib/c++/9.2.1/cmath **** 
 142:/usr/include/newlib/c++/9.2.1/cmath **** #ifndef __CORRECT_ISO_CPP_MATH_H_PROTO
 143:/usr/include/newlib/c++/9.2.1/cmath ****   inline _GLIBCXX_CONSTEXPR float
 144:/usr/include/newlib/c++/9.2.1/cmath ****   atan2(float __y, float __x)
 145:/usr/include/newlib/c++/9.2.1/cmath ****   { return __builtin_atan2f(__y, __x); }
 146:/usr/include/newlib/c++/9.2.1/cmath **** 
 147:/usr/include/newlib/c++/9.2.1/cmath ****   inline _GLIBCXX_CONSTEXPR long double
 148:/usr/include/newlib/c++/9.2.1/cmath ****   atan2(long double __y, long double __x)
 149:/usr/include/newlib/c++/9.2.1/cmath ****   { return __builtin_atan2l(__y, __x); }
 150:/usr/include/newlib/c++/9.2.1/cmath **** #endif
 151:/usr/include/newlib/c++/9.2.1/cmath **** 
 152:/usr/include/newlib/c++/9.2.1/cmath ****   template<typename _Tp, typename _Up>
 153:/usr/include/newlib/c++/9.2.1/cmath ****     inline _GLIBCXX_CONSTEXPR
 154:/usr/include/newlib/c++/9.2.1/cmath ****     typename __gnu_cxx::__promote_2<_Tp, _Up>::__type
 155:/usr/include/newlib/c++/9.2.1/cmath ****     atan2(_Tp __y, _Up __x)
 156:/usr/include/newlib/c++/9.2.1/cmath ****     {
 157:/usr/include/newlib/c++/9.2.1/cmath ****       typedef typename __gnu_cxx::__promote_2<_Tp, _Up>::__type __type;
 158:/usr/include/newlib/c++/9.2.1/cmath ****       return atan2(__type(__y), __type(__x));
 159:/usr/include/newlib/c++/9.2.1/cmath ****     }
 160:/usr/include/newlib/c++/9.2.1/cmath **** 
 161:/usr/include/newlib/c++/9.2.1/cmath ****   using ::ceil;
 162:/usr/include/newlib/c++/9.2.1/cmath **** 
 163:/usr/include/newlib/c++/9.2.1/cmath **** #ifndef __CORRECT_ISO_CPP_MATH_H_PROTO
 164:/usr/include/newlib/c++/9.2.1/cmath ****   inline _GLIBCXX_CONSTEXPR float
 165:/usr/include/newlib/c++/9.2.1/cmath ****   ceil(float __x)
 166:/usr/include/newlib/c++/9.2.1/cmath ****   { return __builtin_ceilf(__x); }
 167:/usr/include/newlib/c++/9.2.1/cmath **** 
 168:/usr/include/newlib/c++/9.2.1/cmath ****   inline _GLIBCXX_CONSTEXPR long double
 169:/usr/include/newlib/c++/9.2.1/cmath ****   ceil(long double __x)
 170:/usr/include/newlib/c++/9.2.1/cmath ****   { return __builtin_ceill(__x); }
 171:/usr/include/newlib/c++/9.2.1/cmath **** #endif
 172:/usr/include/newlib/c++/9.2.1/cmath **** 
 173:/usr/include/newlib/c++/9.2.1/cmath ****   template<typename _Tp>
 174:/usr/include/newlib/c++/9.2.1/cmath ****     inline _GLIBCXX_CONSTEXPR
 175:/usr/include/newlib/c++/9.2.1/cmath ****     typename __gnu_cxx::__enable_if<__is_integer<_Tp>::__value, 
 176:/usr/include/newlib/c++/9.2.1/cmath ****                                     double>::__type
 177:/usr/include/newlib/c++/9.2.1/cmath ****     ceil(_Tp __x)
 178:/usr/include/newlib/c++/9.2.1/cmath ****     { return __builtin_ceil(__x); }
 179:/usr/include/newlib/c++/9.2.1/cmath **** 
 180:/usr/include/newlib/c++/9.2.1/cmath ****   using ::cos;
 181:/usr/include/newlib/c++/9.2.1/cmath **** 
 182:/usr/include/newlib/c++/9.2.1/cmath **** #ifndef __CORRECT_ISO_CPP_MATH_H_PROTO
 183:/usr/include/newlib/c++/9.2.1/cmath ****   inline _GLIBCXX_CONSTEXPR float
 184:/usr/include/newlib/c++/9.2.1/cmath ****   cos(float __x)
 185:/usr/include/newlib/c++/9.2.1/cmath ****   { return __builtin_cosf(__x); }
 3330              		.loc 18 185 26 view .LVU743
 3331 0050 B0EE680A 		vmov.f32	s0, s17
 3332 0054 FFF7FEFF 		bl	cosf
 3333              	.LVL237:
 3334              		.loc 18 185 26 view .LVU744
ARM GAS  /tmp/ccPAoVZi.s 			page 102


 3335              	.LBE1286:
 3336              	.LBE1285:
 313:../../libdaisy/src/hid/disp/display.h **** 
 3337              		.loc 6 313 9 view .LVU745
 3338 0058 B7EECAAB 		vcvt.f32.f64	s20, d10
 3339              	.LVL238:
 3340              	.LBB1289:
 3341              	.LBI1285:
 184:/usr/include/newlib/c++/9.2.1/cmath ****   { return __builtin_cosf(__x); }
 3342              		.loc 18 184 3 is_stmt 1 view .LVU746
 3343              	.LBB1287:
 3344              		.loc 18 185 5 view .LVU747
 3345              		.loc 18 185 5 is_stmt 0 view .LVU748
 3346              	.LBE1287:
 3347              	.LBE1289:
 315:../../libdaisy/src/hid/disp/display.h ****         start_y = -sin(start_angle_rad) * radius;
 3348              		.loc 6 315 9 view .LVU749
 3349 005c 07EE904A 		vmov	s15, r4	@ int
 3350              	.LBB1290:
 3351              	.LBB1288:
 3352              		.loc 18 185 26 view .LVU750
 3353 0060 B0EE408A 		vmov.f32	s16, s0
 3354              	.LBE1288:
 3355              	.LBE1290:
 3356              	.LBB1291:
 3357              	.LBB1292:
 186:/usr/include/newlib/c++/9.2.1/cmath **** 
 187:/usr/include/newlib/c++/9.2.1/cmath ****   inline _GLIBCXX_CONSTEXPR long double
 188:/usr/include/newlib/c++/9.2.1/cmath ****   cos(long double __x)
 189:/usr/include/newlib/c++/9.2.1/cmath ****   { return __builtin_cosl(__x); }
 190:/usr/include/newlib/c++/9.2.1/cmath **** #endif
 191:/usr/include/newlib/c++/9.2.1/cmath **** 
 192:/usr/include/newlib/c++/9.2.1/cmath ****   template<typename _Tp>
 193:/usr/include/newlib/c++/9.2.1/cmath ****     inline _GLIBCXX_CONSTEXPR
 194:/usr/include/newlib/c++/9.2.1/cmath ****     typename __gnu_cxx::__enable_if<__is_integer<_Tp>::__value,
 195:/usr/include/newlib/c++/9.2.1/cmath ****                                     double>::__type
 196:/usr/include/newlib/c++/9.2.1/cmath ****     cos(_Tp __x)
 197:/usr/include/newlib/c++/9.2.1/cmath ****     { return __builtin_cos(__x); }
 198:/usr/include/newlib/c++/9.2.1/cmath **** 
 199:/usr/include/newlib/c++/9.2.1/cmath ****   using ::cosh;
 200:/usr/include/newlib/c++/9.2.1/cmath **** 
 201:/usr/include/newlib/c++/9.2.1/cmath **** #ifndef __CORRECT_ISO_CPP_MATH_H_PROTO
 202:/usr/include/newlib/c++/9.2.1/cmath ****   inline _GLIBCXX_CONSTEXPR float
 203:/usr/include/newlib/c++/9.2.1/cmath ****   cosh(float __x)
 204:/usr/include/newlib/c++/9.2.1/cmath ****   { return __builtin_coshf(__x); }
 205:/usr/include/newlib/c++/9.2.1/cmath **** 
 206:/usr/include/newlib/c++/9.2.1/cmath ****   inline _GLIBCXX_CONSTEXPR long double
 207:/usr/include/newlib/c++/9.2.1/cmath ****   cosh(long double __x)
 208:/usr/include/newlib/c++/9.2.1/cmath ****   { return __builtin_coshl(__x); }
 209:/usr/include/newlib/c++/9.2.1/cmath **** #endif
 210:/usr/include/newlib/c++/9.2.1/cmath **** 
 211:/usr/include/newlib/c++/9.2.1/cmath ****   template<typename _Tp>
 212:/usr/include/newlib/c++/9.2.1/cmath ****     inline _GLIBCXX_CONSTEXPR
 213:/usr/include/newlib/c++/9.2.1/cmath ****     typename __gnu_cxx::__enable_if<__is_integer<_Tp>::__value,
 214:/usr/include/newlib/c++/9.2.1/cmath ****                                     double>::__type
 215:/usr/include/newlib/c++/9.2.1/cmath ****     cosh(_Tp __x)
 216:/usr/include/newlib/c++/9.2.1/cmath ****     { return __builtin_cosh(__x); }
ARM GAS  /tmp/ccPAoVZi.s 			page 103


 217:/usr/include/newlib/c++/9.2.1/cmath **** 
 218:/usr/include/newlib/c++/9.2.1/cmath ****   using ::exp;
 219:/usr/include/newlib/c++/9.2.1/cmath **** 
 220:/usr/include/newlib/c++/9.2.1/cmath **** #ifndef __CORRECT_ISO_CPP_MATH_H_PROTO
 221:/usr/include/newlib/c++/9.2.1/cmath ****   inline _GLIBCXX_CONSTEXPR float
 222:/usr/include/newlib/c++/9.2.1/cmath ****   exp(float __x)
 223:/usr/include/newlib/c++/9.2.1/cmath ****   { return __builtin_expf(__x); }
 224:/usr/include/newlib/c++/9.2.1/cmath **** 
 225:/usr/include/newlib/c++/9.2.1/cmath ****   inline _GLIBCXX_CONSTEXPR long double
 226:/usr/include/newlib/c++/9.2.1/cmath ****   exp(long double __x)
 227:/usr/include/newlib/c++/9.2.1/cmath ****   { return __builtin_expl(__x); }
 228:/usr/include/newlib/c++/9.2.1/cmath **** #endif
 229:/usr/include/newlib/c++/9.2.1/cmath **** 
 230:/usr/include/newlib/c++/9.2.1/cmath ****   template<typename _Tp>
 231:/usr/include/newlib/c++/9.2.1/cmath ****     inline _GLIBCXX_CONSTEXPR
 232:/usr/include/newlib/c++/9.2.1/cmath ****     typename __gnu_cxx::__enable_if<__is_integer<_Tp>::__value,
 233:/usr/include/newlib/c++/9.2.1/cmath ****                                     double>::__type
 234:/usr/include/newlib/c++/9.2.1/cmath ****     exp(_Tp __x)
 235:/usr/include/newlib/c++/9.2.1/cmath ****     { return __builtin_exp(__x); }
 236:/usr/include/newlib/c++/9.2.1/cmath **** 
 237:/usr/include/newlib/c++/9.2.1/cmath ****   using ::fabs;
 238:/usr/include/newlib/c++/9.2.1/cmath **** 
 239:/usr/include/newlib/c++/9.2.1/cmath **** #ifndef __CORRECT_ISO_CPP_MATH_H_PROTO
 240:/usr/include/newlib/c++/9.2.1/cmath ****   inline _GLIBCXX_CONSTEXPR float
 241:/usr/include/newlib/c++/9.2.1/cmath ****   fabs(float __x)
 242:/usr/include/newlib/c++/9.2.1/cmath ****   { return __builtin_fabsf(__x); }
 243:/usr/include/newlib/c++/9.2.1/cmath **** 
 244:/usr/include/newlib/c++/9.2.1/cmath ****   inline _GLIBCXX_CONSTEXPR long double
 245:/usr/include/newlib/c++/9.2.1/cmath ****   fabs(long double __x)
 246:/usr/include/newlib/c++/9.2.1/cmath ****   { return __builtin_fabsl(__x); }
 247:/usr/include/newlib/c++/9.2.1/cmath **** #endif
 248:/usr/include/newlib/c++/9.2.1/cmath **** 
 249:/usr/include/newlib/c++/9.2.1/cmath ****   template<typename _Tp>
 250:/usr/include/newlib/c++/9.2.1/cmath ****     inline _GLIBCXX_CONSTEXPR
 251:/usr/include/newlib/c++/9.2.1/cmath ****     typename __gnu_cxx::__enable_if<__is_integer<_Tp>::__value,
 252:/usr/include/newlib/c++/9.2.1/cmath ****                                     double>::__type
 253:/usr/include/newlib/c++/9.2.1/cmath ****     fabs(_Tp __x)
 254:/usr/include/newlib/c++/9.2.1/cmath ****     { return __builtin_fabs(__x); }
 255:/usr/include/newlib/c++/9.2.1/cmath **** 
 256:/usr/include/newlib/c++/9.2.1/cmath ****   using ::floor;
 257:/usr/include/newlib/c++/9.2.1/cmath **** 
 258:/usr/include/newlib/c++/9.2.1/cmath **** #ifndef __CORRECT_ISO_CPP_MATH_H_PROTO
 259:/usr/include/newlib/c++/9.2.1/cmath ****   inline _GLIBCXX_CONSTEXPR float
 260:/usr/include/newlib/c++/9.2.1/cmath ****   floor(float __x)
 261:/usr/include/newlib/c++/9.2.1/cmath ****   { return __builtin_floorf(__x); }
 262:/usr/include/newlib/c++/9.2.1/cmath **** 
 263:/usr/include/newlib/c++/9.2.1/cmath ****   inline _GLIBCXX_CONSTEXPR long double
 264:/usr/include/newlib/c++/9.2.1/cmath ****   floor(long double __x)
 265:/usr/include/newlib/c++/9.2.1/cmath ****   { return __builtin_floorl(__x); }
 266:/usr/include/newlib/c++/9.2.1/cmath **** #endif
 267:/usr/include/newlib/c++/9.2.1/cmath **** 
 268:/usr/include/newlib/c++/9.2.1/cmath ****   template<typename _Tp>
 269:/usr/include/newlib/c++/9.2.1/cmath ****     inline _GLIBCXX_CONSTEXPR
 270:/usr/include/newlib/c++/9.2.1/cmath ****     typename __gnu_cxx::__enable_if<__is_integer<_Tp>::__value,
 271:/usr/include/newlib/c++/9.2.1/cmath ****                                     double>::__type
 272:/usr/include/newlib/c++/9.2.1/cmath ****     floor(_Tp __x)
 273:/usr/include/newlib/c++/9.2.1/cmath ****     { return __builtin_floor(__x); }
ARM GAS  /tmp/ccPAoVZi.s 			page 104


 274:/usr/include/newlib/c++/9.2.1/cmath **** 
 275:/usr/include/newlib/c++/9.2.1/cmath ****   using ::fmod;
 276:/usr/include/newlib/c++/9.2.1/cmath **** 
 277:/usr/include/newlib/c++/9.2.1/cmath **** #ifndef __CORRECT_ISO_CPP_MATH_H_PROTO
 278:/usr/include/newlib/c++/9.2.1/cmath ****   inline _GLIBCXX_CONSTEXPR float
 279:/usr/include/newlib/c++/9.2.1/cmath ****   fmod(float __x, float __y)
 280:/usr/include/newlib/c++/9.2.1/cmath ****   { return __builtin_fmodf(__x, __y); }
 281:/usr/include/newlib/c++/9.2.1/cmath **** 
 282:/usr/include/newlib/c++/9.2.1/cmath ****   inline _GLIBCXX_CONSTEXPR long double
 283:/usr/include/newlib/c++/9.2.1/cmath ****   fmod(long double __x, long double __y)
 284:/usr/include/newlib/c++/9.2.1/cmath ****   { return __builtin_fmodl(__x, __y); }
 285:/usr/include/newlib/c++/9.2.1/cmath **** #endif
 286:/usr/include/newlib/c++/9.2.1/cmath **** 
 287:/usr/include/newlib/c++/9.2.1/cmath ****   template<typename _Tp, typename _Up>
 288:/usr/include/newlib/c++/9.2.1/cmath ****     inline _GLIBCXX_CONSTEXPR
 289:/usr/include/newlib/c++/9.2.1/cmath ****     typename __gnu_cxx::__promote_2<_Tp, _Up>::__type
 290:/usr/include/newlib/c++/9.2.1/cmath ****     fmod(_Tp __x, _Up __y)
 291:/usr/include/newlib/c++/9.2.1/cmath ****     {
 292:/usr/include/newlib/c++/9.2.1/cmath ****       typedef typename __gnu_cxx::__promote_2<_Tp, _Up>::__type __type;
 293:/usr/include/newlib/c++/9.2.1/cmath ****       return fmod(__type(__x), __type(__y));
 294:/usr/include/newlib/c++/9.2.1/cmath ****     }
 295:/usr/include/newlib/c++/9.2.1/cmath **** 
 296:/usr/include/newlib/c++/9.2.1/cmath ****   using ::frexp;
 297:/usr/include/newlib/c++/9.2.1/cmath **** 
 298:/usr/include/newlib/c++/9.2.1/cmath **** #ifndef __CORRECT_ISO_CPP_MATH_H_PROTO
 299:/usr/include/newlib/c++/9.2.1/cmath ****   inline float
 300:/usr/include/newlib/c++/9.2.1/cmath ****   frexp(float __x, int* __exp)
 301:/usr/include/newlib/c++/9.2.1/cmath ****   { return __builtin_frexpf(__x, __exp); }
 302:/usr/include/newlib/c++/9.2.1/cmath **** 
 303:/usr/include/newlib/c++/9.2.1/cmath ****   inline long double
 304:/usr/include/newlib/c++/9.2.1/cmath ****   frexp(long double __x, int* __exp)
 305:/usr/include/newlib/c++/9.2.1/cmath ****   { return __builtin_frexpl(__x, __exp); }
 306:/usr/include/newlib/c++/9.2.1/cmath **** #endif
 307:/usr/include/newlib/c++/9.2.1/cmath **** 
 308:/usr/include/newlib/c++/9.2.1/cmath ****   template<typename _Tp>
 309:/usr/include/newlib/c++/9.2.1/cmath ****     inline _GLIBCXX_CONSTEXPR
 310:/usr/include/newlib/c++/9.2.1/cmath ****     typename __gnu_cxx::__enable_if<__is_integer<_Tp>::__value, 
 311:/usr/include/newlib/c++/9.2.1/cmath ****                                     double>::__type
 312:/usr/include/newlib/c++/9.2.1/cmath ****     frexp(_Tp __x, int* __exp)
 313:/usr/include/newlib/c++/9.2.1/cmath ****     { return __builtin_frexp(__x, __exp); }
 314:/usr/include/newlib/c++/9.2.1/cmath **** 
 315:/usr/include/newlib/c++/9.2.1/cmath ****   using ::ldexp;
 316:/usr/include/newlib/c++/9.2.1/cmath **** 
 317:/usr/include/newlib/c++/9.2.1/cmath **** #ifndef __CORRECT_ISO_CPP_MATH_H_PROTO
 318:/usr/include/newlib/c++/9.2.1/cmath ****   inline _GLIBCXX_CONSTEXPR float
 319:/usr/include/newlib/c++/9.2.1/cmath ****   ldexp(float __x, int __exp)
 320:/usr/include/newlib/c++/9.2.1/cmath ****   { return __builtin_ldexpf(__x, __exp); }
 321:/usr/include/newlib/c++/9.2.1/cmath **** 
 322:/usr/include/newlib/c++/9.2.1/cmath ****   inline _GLIBCXX_CONSTEXPR long double
 323:/usr/include/newlib/c++/9.2.1/cmath ****   ldexp(long double __x, int __exp)
 324:/usr/include/newlib/c++/9.2.1/cmath ****   { return __builtin_ldexpl(__x, __exp); }
 325:/usr/include/newlib/c++/9.2.1/cmath **** #endif
 326:/usr/include/newlib/c++/9.2.1/cmath **** 
 327:/usr/include/newlib/c++/9.2.1/cmath ****   template<typename _Tp>
 328:/usr/include/newlib/c++/9.2.1/cmath ****     inline _GLIBCXX_CONSTEXPR
 329:/usr/include/newlib/c++/9.2.1/cmath ****     typename __gnu_cxx::__enable_if<__is_integer<_Tp>::__value, 
 330:/usr/include/newlib/c++/9.2.1/cmath ****                                     double>::__type
ARM GAS  /tmp/ccPAoVZi.s 			page 105


 331:/usr/include/newlib/c++/9.2.1/cmath ****     ldexp(_Tp __x, int __exp)
 332:/usr/include/newlib/c++/9.2.1/cmath ****     { return __builtin_ldexp(__x, __exp); }
 333:/usr/include/newlib/c++/9.2.1/cmath **** 
 334:/usr/include/newlib/c++/9.2.1/cmath ****   using ::log;
 335:/usr/include/newlib/c++/9.2.1/cmath **** 
 336:/usr/include/newlib/c++/9.2.1/cmath **** #ifndef __CORRECT_ISO_CPP_MATH_H_PROTO
 337:/usr/include/newlib/c++/9.2.1/cmath ****   inline _GLIBCXX_CONSTEXPR float
 338:/usr/include/newlib/c++/9.2.1/cmath ****   log(float __x)
 339:/usr/include/newlib/c++/9.2.1/cmath ****   { return __builtin_logf(__x); }
 340:/usr/include/newlib/c++/9.2.1/cmath **** 
 341:/usr/include/newlib/c++/9.2.1/cmath ****   inline _GLIBCXX_CONSTEXPR long double
 342:/usr/include/newlib/c++/9.2.1/cmath ****   log(long double __x)
 343:/usr/include/newlib/c++/9.2.1/cmath ****   { return __builtin_logl(__x); }
 344:/usr/include/newlib/c++/9.2.1/cmath **** #endif
 345:/usr/include/newlib/c++/9.2.1/cmath **** 
 346:/usr/include/newlib/c++/9.2.1/cmath ****   template<typename _Tp>
 347:/usr/include/newlib/c++/9.2.1/cmath ****     inline _GLIBCXX_CONSTEXPR
 348:/usr/include/newlib/c++/9.2.1/cmath ****     typename __gnu_cxx::__enable_if<__is_integer<_Tp>::__value, 
 349:/usr/include/newlib/c++/9.2.1/cmath ****                                     double>::__type
 350:/usr/include/newlib/c++/9.2.1/cmath ****     log(_Tp __x)
 351:/usr/include/newlib/c++/9.2.1/cmath ****     { return __builtin_log(__x); }
 352:/usr/include/newlib/c++/9.2.1/cmath **** 
 353:/usr/include/newlib/c++/9.2.1/cmath ****   using ::log10;
 354:/usr/include/newlib/c++/9.2.1/cmath **** 
 355:/usr/include/newlib/c++/9.2.1/cmath **** #ifndef __CORRECT_ISO_CPP_MATH_H_PROTO
 356:/usr/include/newlib/c++/9.2.1/cmath ****   inline _GLIBCXX_CONSTEXPR float
 357:/usr/include/newlib/c++/9.2.1/cmath ****   log10(float __x)
 358:/usr/include/newlib/c++/9.2.1/cmath ****   { return __builtin_log10f(__x); }
 359:/usr/include/newlib/c++/9.2.1/cmath **** 
 360:/usr/include/newlib/c++/9.2.1/cmath ****   inline _GLIBCXX_CONSTEXPR long double
 361:/usr/include/newlib/c++/9.2.1/cmath ****   log10(long double __x)
 362:/usr/include/newlib/c++/9.2.1/cmath ****   { return __builtin_log10l(__x); }
 363:/usr/include/newlib/c++/9.2.1/cmath **** #endif
 364:/usr/include/newlib/c++/9.2.1/cmath **** 
 365:/usr/include/newlib/c++/9.2.1/cmath ****   template<typename _Tp>
 366:/usr/include/newlib/c++/9.2.1/cmath ****     inline _GLIBCXX_CONSTEXPR
 367:/usr/include/newlib/c++/9.2.1/cmath ****     typename __gnu_cxx::__enable_if<__is_integer<_Tp>::__value,
 368:/usr/include/newlib/c++/9.2.1/cmath ****                                     double>::__type
 369:/usr/include/newlib/c++/9.2.1/cmath ****     log10(_Tp __x)
 370:/usr/include/newlib/c++/9.2.1/cmath ****     { return __builtin_log10(__x); }
 371:/usr/include/newlib/c++/9.2.1/cmath **** 
 372:/usr/include/newlib/c++/9.2.1/cmath ****   using ::modf;
 373:/usr/include/newlib/c++/9.2.1/cmath **** 
 374:/usr/include/newlib/c++/9.2.1/cmath **** #ifndef __CORRECT_ISO_CPP_MATH_H_PROTO
 375:/usr/include/newlib/c++/9.2.1/cmath ****   inline float
 376:/usr/include/newlib/c++/9.2.1/cmath ****   modf(float __x, float* __iptr)
 377:/usr/include/newlib/c++/9.2.1/cmath ****   { return __builtin_modff(__x, __iptr); }
 378:/usr/include/newlib/c++/9.2.1/cmath **** 
 379:/usr/include/newlib/c++/9.2.1/cmath ****   inline long double
 380:/usr/include/newlib/c++/9.2.1/cmath ****   modf(long double __x, long double* __iptr)
 381:/usr/include/newlib/c++/9.2.1/cmath ****   { return __builtin_modfl(__x, __iptr); }
 382:/usr/include/newlib/c++/9.2.1/cmath **** #endif
 383:/usr/include/newlib/c++/9.2.1/cmath **** 
 384:/usr/include/newlib/c++/9.2.1/cmath ****   using ::pow;
 385:/usr/include/newlib/c++/9.2.1/cmath **** 
 386:/usr/include/newlib/c++/9.2.1/cmath **** #ifndef __CORRECT_ISO_CPP_MATH_H_PROTO
 387:/usr/include/newlib/c++/9.2.1/cmath ****   inline _GLIBCXX_CONSTEXPR float
ARM GAS  /tmp/ccPAoVZi.s 			page 106


 388:/usr/include/newlib/c++/9.2.1/cmath ****   pow(float __x, float __y)
 389:/usr/include/newlib/c++/9.2.1/cmath ****   { return __builtin_powf(__x, __y); }
 390:/usr/include/newlib/c++/9.2.1/cmath **** 
 391:/usr/include/newlib/c++/9.2.1/cmath ****   inline _GLIBCXX_CONSTEXPR long double
 392:/usr/include/newlib/c++/9.2.1/cmath ****   pow(long double __x, long double __y)
 393:/usr/include/newlib/c++/9.2.1/cmath ****   { return __builtin_powl(__x, __y); }
 394:/usr/include/newlib/c++/9.2.1/cmath **** 
 395:/usr/include/newlib/c++/9.2.1/cmath **** #if __cplusplus < 201103L
 396:/usr/include/newlib/c++/9.2.1/cmath ****   // _GLIBCXX_RESOLVE_LIB_DEFECTS
 397:/usr/include/newlib/c++/9.2.1/cmath ****   // DR 550. What should the return type of pow(float,int) be?
 398:/usr/include/newlib/c++/9.2.1/cmath ****   inline double
 399:/usr/include/newlib/c++/9.2.1/cmath ****   pow(double __x, int __i)
 400:/usr/include/newlib/c++/9.2.1/cmath ****   { return __builtin_powi(__x, __i); }
 401:/usr/include/newlib/c++/9.2.1/cmath **** 
 402:/usr/include/newlib/c++/9.2.1/cmath ****   inline float
 403:/usr/include/newlib/c++/9.2.1/cmath ****   pow(float __x, int __n)
 404:/usr/include/newlib/c++/9.2.1/cmath ****   { return __builtin_powif(__x, __n); }
 405:/usr/include/newlib/c++/9.2.1/cmath **** 
 406:/usr/include/newlib/c++/9.2.1/cmath ****   inline long double
 407:/usr/include/newlib/c++/9.2.1/cmath ****   pow(long double __x, int __n)
 408:/usr/include/newlib/c++/9.2.1/cmath ****   { return __builtin_powil(__x, __n); }
 409:/usr/include/newlib/c++/9.2.1/cmath **** #endif
 410:/usr/include/newlib/c++/9.2.1/cmath **** #endif
 411:/usr/include/newlib/c++/9.2.1/cmath **** 
 412:/usr/include/newlib/c++/9.2.1/cmath ****   template<typename _Tp, typename _Up>
 413:/usr/include/newlib/c++/9.2.1/cmath ****     inline _GLIBCXX_CONSTEXPR
 414:/usr/include/newlib/c++/9.2.1/cmath ****     typename __gnu_cxx::__promote_2<_Tp, _Up>::__type
 415:/usr/include/newlib/c++/9.2.1/cmath ****     pow(_Tp __x, _Up __y)
 416:/usr/include/newlib/c++/9.2.1/cmath ****     {
 417:/usr/include/newlib/c++/9.2.1/cmath ****       typedef typename __gnu_cxx::__promote_2<_Tp, _Up>::__type __type;
 418:/usr/include/newlib/c++/9.2.1/cmath ****       return pow(__type(__x), __type(__y));
 419:/usr/include/newlib/c++/9.2.1/cmath ****     }
 420:/usr/include/newlib/c++/9.2.1/cmath **** 
 421:/usr/include/newlib/c++/9.2.1/cmath ****   using ::sin;
 422:/usr/include/newlib/c++/9.2.1/cmath **** 
 423:/usr/include/newlib/c++/9.2.1/cmath **** #ifndef __CORRECT_ISO_CPP_MATH_H_PROTO
 424:/usr/include/newlib/c++/9.2.1/cmath ****   inline _GLIBCXX_CONSTEXPR float
 425:/usr/include/newlib/c++/9.2.1/cmath ****   sin(float __x)
 426:/usr/include/newlib/c++/9.2.1/cmath ****   { return __builtin_sinf(__x); }
 3358              		.loc 18 426 26 view .LVU751
 3359 0064 B0EE680A 		vmov.f32	s0, s17
 3360              	.LBE1292:
 3361              	.LBE1291:
 315:../../libdaisy/src/hid/disp/display.h ****         start_y = -sin(start_angle_rad) * radius;
 3362              		.loc 6 315 9 view .LVU752
 3363 0068 F8EE679A 		vcvt.f32.u32	s19, s15
 3364              	.LBB1295:
 3365              	.LBB1293:
 3366              		.loc 18 426 26 view .LVU753
 3367 006c FFF7FEFF 		bl	sinf
 3368              	.LVL239:
 3369 0070 F0EE408A 		vmov.f32	s17, s0
 3370              	.LVL240:
 3371              		.loc 18 426 26 view .LVU754
 3372              	.LBE1293:
 3373              	.LBE1295:
 3374              	.LBB1296:
ARM GAS  /tmp/ccPAoVZi.s 			page 107


 3375              	.LBB1297:
 185:/usr/include/newlib/c++/9.2.1/cmath **** 
 3376              		.loc 18 185 26 view .LVU755
 3377 0074 B0EE4A0A 		vmov.f32	s0, s20
 3378 0078 FFF7FEFF 		bl	cosf
 3379              	.LVL241:
 3380 007c B0EE409A 		vmov.f32	s18, s0
 3381              	.LBE1297:
 3382              	.LBE1296:
 3383              	.LBB1299:
 3384              	.LBB1300:
 3385              		.loc 18 426 26 view .LVU756
 3386 0080 B0EE4A0A 		vmov.f32	s0, s20
 3387 0084 FFF7FEFF 		bl	sinf
 3388              	.LVL242:
 3389              	.LBE1300:
 3390              	.LBE1299:
 316:../../libdaisy/src/hid/disp/display.h ****         end_x   = cos(end_angle_rad) * radius;
 3391              		.loc 6 316 9 view .LVU757
 3392 0088 68EEE98A 		vnmul.f32	s17, s17, s19
 318:../../libdaisy/src/hid/disp/display.h **** 
 3393              		.loc 6 318 9 view .LVU758
 3394 008c 20EE690A 		vnmul.f32	s0, s0, s19
 315:../../libdaisy/src/hid/disp/display.h ****         start_y = -sin(start_angle_rad) * radius;
 3395              		.loc 6 315 9 view .LVU759
 3396 0090 29EE888A 		vmul.f32	s16, s19, s16
 3397              	.LVL243:
 3398              	.LBB1302:
 3399              	.LBI1291:
 425:/usr/include/newlib/c++/9.2.1/cmath ****   { return __builtin_sinf(__x); }
 3400              		.loc 18 425 3 is_stmt 1 view .LVU760
 3401              	.LBB1294:
 3402              		.loc 18 426 5 view .LVU761
 3403              		.loc 18 426 5 is_stmt 0 view .LVU762
 3404              	.LBE1294:
 3405              	.LBE1302:
 3406              	.LBB1303:
 3407              	.LBI1296:
 184:/usr/include/newlib/c++/9.2.1/cmath ****   { return __builtin_cosf(__x); }
 3408              		.loc 18 184 3 is_stmt 1 view .LVU763
 3409              	.LBB1298:
 185:/usr/include/newlib/c++/9.2.1/cmath **** 
 3410              		.loc 18 185 5 view .LVU764
 185:/usr/include/newlib/c++/9.2.1/cmath **** 
 3411              		.loc 18 185 5 is_stmt 0 view .LVU765
 3412              	.LBE1298:
 3413              	.LBE1303:
 317:../../libdaisy/src/hid/disp/display.h ****         end_y   = -sin(end_angle_rad) * radius;
 3414              		.loc 6 317 9 view .LVU766
 3415 0094 29EE899A 		vmul.f32	s18, s19, s18
 3416              	.LVL244:
 3417              	.LBB1304:
 3418              	.LBI1299:
 425:/usr/include/newlib/c++/9.2.1/cmath ****   { return __builtin_sinf(__x); }
 3419              		.loc 18 425 3 is_stmt 1 view .LVU767
 3420              	.LBB1301:
 3421              		.loc 18 426 5 view .LVU768
ARM GAS  /tmp/ccPAoVZi.s 			page 108


 3422              		.loc 18 426 5 is_stmt 0 view .LVU769
 3423              	.LBE1301:
 3424              	.LBE1304:
 322:../../libdaisy/src/hid/disp/display.h ****            < 2.0f)
 3425              		.loc 6 322 25 view .LVU770
 3426 0098 70EE687A 		vsub.f32	s15, s0, s17
 321:../../libdaisy/src/hid/disp/display.h ****                + (end_y - start_y) * (end_y - start_y)
 3427              		.loc 6 321 9 view .LVU771
 3428 009c F0EE006A 		vmov.f32	s13, #2.0e+0
 321:../../libdaisy/src/hid/disp/display.h ****                + (end_y - start_y) * (end_y - start_y)
 3429              		.loc 6 321 19 view .LVU772
 3430 00a0 39EE487A 		vsub.f32	s14, s18, s16
 322:../../libdaisy/src/hid/disp/display.h ****            < 2.0f)
 3431              		.loc 6 322 36 view .LVU773
 3432 00a4 67EEA77A 		vmul.f32	s15, s15, s15
 322:../../libdaisy/src/hid/disp/display.h ****            < 2.0f)
 3433              		.loc 6 322 16 view .LVU774
 3434 00a8 E7EE077A 		vfma.f32	s15, s14, s14
 321:../../libdaisy/src/hid/disp/display.h ****                + (end_y - start_y) * (end_y - start_y)
 3435              		.loc 6 321 9 view .LVU775
 3436 00ac F4EEE67A 		vcmpe.f32	s15, s13
 3437 00b0 F1EE10FA 		vmrs	APSR_nzcv, FPSCR
 3438 00b4 06D5     		bpl	.L260
 325:../../libdaisy/src/hid/disp/display.h ****                 circle = true;
 3439              		.loc 6 325 13 view .LVU776
 3440 00b6 159B     		ldr	r3, [sp, #84]
 3441 00b8 B42B     		cmp	r3, #180
 3442 00ba 40F3EE80 		ble	.L201
 326:../../libdaisy/src/hid/disp/display.h ****             else
 3443              		.loc 6 326 17 view .LVU777
 3444 00be 4FF0010E 		mov	lr, #1
 3445 00c2 01E0     		b	.L204
 3446              	.L260:
 304:../../libdaisy/src/hid/disp/display.h **** 
 3447              		.loc 6 304 14 view .LVU778
 3448 00c4 4FF0000E 		mov	lr, #0
 3449              	.L204:
 3450              	.LVL245:
 302:../../libdaisy/src/hid/disp/display.h **** 
 3451              		.loc 6 302 9 view .LVU779
 3452 00c8 0126     		movs	r6, #1
 334:../../libdaisy/src/hid/disp/display.h **** 
 3453              		.loc 6 334 17 view .LVU780
 3454 00ca C4F10103 		rsb	r3, r4, #1
 302:../../libdaisy/src/hid/disp/display.h **** 
 3455              		.loc 6 302 9 view .LVU781
 3456 00ce 3A46     		mov	r2, r7
 332:../../libdaisy/src/hid/disp/display.h ****         t_y = 0;
 3457              		.loc 6 332 9 view .LVU782
 3458 00d0 6042     		rsbs	r0, r4, #0
 3459              	.LVL246:
 334:../../libdaisy/src/hid/disp/display.h **** 
 3460              		.loc 6 334 17 view .LVU783
 3461 00d2 B340     		lsls	r3, r3, r6
 3462              	.LVL247:
 333:../../libdaisy/src/hid/disp/display.h ****         err = 2 - 2 * radius;
 3463              		.loc 6 333 9 view .LVU784
ARM GAS  /tmp/ccPAoVZi.s 			page 109


 3464 00d4 0024     		movs	r4, #0
 3465              	.LVL248:
 302:../../libdaisy/src/hid/disp/display.h **** 
 3466              		.loc 6 302 9 view .LVU785
 3467 00d6 3146     		mov	r1, r6
 3468 00d8 3746     		mov	r7, r6
 3469              	.LVL249:
 302:../../libdaisy/src/hid/disp/display.h **** 
 3470              		.loc 6 302 9 view .LVU786
 3471 00da 9446     		mov	ip, r2
 3472 00dc 0196     		str	r6, [sp, #4]
 3473              	.LVL250:
 3474              	.L230:
 338:../../libdaisy/src/hid/disp/display.h ****             {
 3475              		.loc 6 338 13 view .LVU787
 3476 00de BEF1000F 		cmp	lr, #0
 3477 00e2 6AD1     		bne	.L206
 343:../../libdaisy/src/hid/disp/display.h ****                 t_exy  = end_x * t_y;
 3478              		.loc 6 343 34 view .LVU788
 3479 00e4 4242     		rsbs	r2, r0, #0
 340:../../libdaisy/src/hid/disp/display.h ****                 t_syx  = start_y * t_x;
 3480              		.loc 6 340 17 view .LVU789
 3481 00e6 06EE904A 		vmov	s13, r4	@ int
 342:../../libdaisy/src/hid/disp/display.h ****                 t_synx = start_y * -t_x;
 3482              		.loc 6 342 34 view .LVU790
 3483 00ea 6142     		rsbs	r1, r4, #0
 3484              	.LVL251:
 343:../../libdaisy/src/hid/disp/display.h ****                 t_exy  = end_x * t_y;
 3485              		.loc 6 343 34 view .LVU791
 3486 00ec 07EE102A 		vmov	s14, r2	@ int
 340:../../libdaisy/src/hid/disp/display.h ****                 t_syx  = start_y * t_x;
 3487              		.loc 6 340 17 view .LVU792
 3488 00f0 F8EEE66A 		vcvt.f32.s32	s13, s13
 342:../../libdaisy/src/hid/disp/display.h ****                 t_synx = start_y * -t_x;
 3489              		.loc 6 342 34 view .LVU793
 3490 00f4 07EE901A 		vmov	s15, r1	@ int
 349:../../libdaisy/src/hid/disp/display.h ****                 {
 3491              		.loc 6 349 17 view .LVU794
 3492 00f8 159A     		ldr	r2, [sp, #84]
 343:../../libdaisy/src/hid/disp/display.h ****                 t_exy  = end_x * t_y;
 3493              		.loc 6 343 34 view .LVU795
 3494 00fa B8EEC77A 		vcvt.f32.s32	s14, s14
 340:../../libdaisy/src/hid/disp/display.h ****                 t_syx  = start_y * t_x;
 3495              		.loc 6 340 17 view .LVU796
 3496 00fe 66EE884A 		vmul.f32	s9, s13, s16
 3497              	.LVL252:
 349:../../libdaisy/src/hid/disp/display.h ****                 {
 3498              		.loc 6 349 17 view .LVU797
 3499 0102 B42A     		cmp	r2, #180
 344:../../libdaisy/src/hid/disp/display.h ****                 t_eyx  = end_y * t_x;
 3500              		.loc 6 344 17 view .LVU798
 3501 0104 26EE896A 		vmul.f32	s12, s13, s18
 341:../../libdaisy/src/hid/disp/display.h ****                 t_sxny = start_x * -t_y;
 3502              		.loc 6 341 17 view .LVU799
 3503 0108 06EE900A 		vmov	s13, r0	@ int
 343:../../libdaisy/src/hid/disp/display.h ****                 t_exy  = end_x * t_y;
 3504              		.loc 6 343 17 view .LVU800
ARM GAS  /tmp/ccPAoVZi.s 			page 110


 3505 010c 27EE284A 		vmul.f32	s8, s14, s17
 342:../../libdaisy/src/hid/disp/display.h ****                 t_synx = start_y * -t_x;
 3506              		.loc 6 342 34 view .LVU801
 3507 0110 F8EEE77A 		vcvt.f32.s32	s15, s15
 341:../../libdaisy/src/hid/disp/display.h ****                 t_sxny = start_x * -t_y;
 3508              		.loc 6 341 17 view .LVU802
 3509 0114 F8EEE66A 		vcvt.f32.s32	s13, s13
 351:../../libdaisy/src/hid/disp/display.h ****                     d2 = (t_sxy - t_syx < 0 || t_exy - t_eyx > 0);
 3510              		.loc 6 351 33 view .LVU803
 3511 0118 74EEC43A 		vsub.f32	s7, s9, s8
 342:../../libdaisy/src/hid/disp/display.h ****                 t_synx = start_y * -t_x;
 3512              		.loc 6 342 17 view .LVU804
 3513 011c 67EE885A 		vmul.f32	s11, s15, s16
 341:../../libdaisy/src/hid/disp/display.h ****                 t_sxny = start_x * -t_y;
 3514              		.loc 6 341 17 view .LVU805
 3515 0120 26EEA85A 		vmul.f32	s10, s13, s17
 3516              	.LVL253:
 346:../../libdaisy/src/hid/disp/display.h ****                 t_eynx = end_y * -t_x;
 3517              		.loc 6 346 17 view .LVU806
 3518 0124 67EE897A 		vmul.f32	s15, s15, s18
 347:../../libdaisy/src/hid/disp/display.h **** 
 3519              		.loc 6 347 17 view .LVU807
 3520 0128 27EE007A 		vmul.f32	s14, s14, s0
 345:../../libdaisy/src/hid/disp/display.h ****                 t_exny = end_x * -t_y;
 3521              		.loc 6 345 17 view .LVU808
 3522 012c 66EE806A 		vmul.f32	s13, s13, s0
 3523              	.LVL254:
 351:../../libdaisy/src/hid/disp/display.h ****                     d2 = (t_sxy - t_syx < 0 || t_exy - t_eyx > 0);
 3524              		.loc 6 351 46 view .LVU809
 3525 0130 F5EEC03A 		vcmpe.f32	s7, #0
 349:../../libdaisy/src/hid/disp/display.h ****                 {
 3526              		.loc 6 349 17 view .LVU810
 3527 0134 40F3DC80 		ble	.L207
 351:../../libdaisy/src/hid/disp/display.h ****                     d2 = (t_sxy - t_syx < 0 || t_exy - t_eyx > 0);
 3528              		.loc 6 351 46 view .LVU811
 3529 0138 F1EE10FA 		vmrs	APSR_nzcv, FPSCR
 3530 013c 00F14D81 		bmi	.L233
 351:../../libdaisy/src/hid/disp/display.h ****                     d2 = (t_sxy - t_syx < 0 || t_exy - t_eyx > 0);
 3531              		.loc 6 351 55 discriminator 2 view .LVU812
 3532 0140 76EE473A 		vsub.f32	s7, s12, s14
 352:../../libdaisy/src/hid/disp/display.h ****                     d3 = (t_sxny - t_syx < 0 || t_exny - t_eyx > 0);
 3533              		.loc 6 352 33 discriminator 2 view .LVU813
 3534 0144 74EEC54A 		vsub.f32	s9, s9, s10
 3535              	.LVL255:
 351:../../libdaisy/src/hid/disp/display.h ****                     d2 = (t_sxy - t_syx < 0 || t_exy - t_eyx > 0);
 3536              		.loc 6 351 46 discriminator 2 view .LVU814
 3537 0148 F5EEC03A 		vcmpe.f32	s7, #0
 3538 014c F1EE10FA 		vmrs	APSR_nzcv, FPSCR
 352:../../libdaisy/src/hid/disp/display.h ****                     d3 = (t_sxny - t_syx < 0 || t_exny - t_eyx > 0);
 3539              		.loc 6 352 45 discriminator 2 view .LVU815
 3540 0150 F5EEC04A 		vcmpe.f32	s9, #0
 351:../../libdaisy/src/hid/disp/display.h ****                     d2 = (t_sxy - t_syx < 0 || t_exy - t_eyx > 0);
 3541              		.loc 6 351 46 discriminator 2 view .LVU816
 3542 0154 CCBF     		ite	gt
 3543 0156 0122     		movgt	r2, #1
 3544 0158 0022     		movle	r2, #0
 352:../../libdaisy/src/hid/disp/display.h ****                     d3 = (t_sxny - t_syx < 0 || t_exny - t_eyx > 0);
ARM GAS  /tmp/ccPAoVZi.s 			page 111


 3545              		.loc 6 352 45 discriminator 2 view .LVU817
 3546 015a F1EE10FA 		vmrs	APSR_nzcv, FPSCR
 351:../../libdaisy/src/hid/disp/display.h ****                     d2 = (t_sxy - t_syx < 0 || t_exy - t_eyx > 0);
 3547              		.loc 6 351 46 discriminator 2 view .LVU818
 3548 015e 0192     		str	r2, [sp, #4]
 3549              	.LVL256:
 352:../../libdaisy/src/hid/disp/display.h ****                     d3 = (t_sxny - t_syx < 0 || t_exny - t_eyx > 0);
 3550              		.loc 6 352 45 discriminator 2 view .LVU819
 3551 0160 00F14581 		bmi	.L234
 3552              	.L274:
 352:../../libdaisy/src/hid/disp/display.h ****                     d3 = (t_sxny - t_syx < 0 || t_exny - t_eyx > 0);
 3553              		.loc 6 352 54 discriminator 2 view .LVU820
 3554 0164 36EE666A 		vsub.f32	s12, s12, s13
 3555              	.LVL257:
 353:../../libdaisy/src/hid/disp/display.h ****                     d4 = (t_sxny - t_synx < 0 || t_exny - t_eynx > 0);
 3556              		.loc 6 353 34 discriminator 2 view .LVU821
 3557 0168 35EEC55A 		vsub.f32	s10, s11, s10
 3558              	.LVL258:
 352:../../libdaisy/src/hid/disp/display.h ****                     d3 = (t_sxny - t_syx < 0 || t_exny - t_eyx > 0);
 3559              		.loc 6 352 45 discriminator 2 view .LVU822
 3560 016c B5EEC06A 		vcmpe.f32	s12, #0
 3561 0170 F1EE10FA 		vmrs	APSR_nzcv, FPSCR
 353:../../libdaisy/src/hid/disp/display.h ****                     d4 = (t_sxny - t_synx < 0 || t_exny - t_eynx > 0);
 3562              		.loc 6 353 46 discriminator 2 view .LVU823
 3563 0174 B5EEC05A 		vcmpe.f32	s10, #0
 352:../../libdaisy/src/hid/disp/display.h ****                     d3 = (t_sxny - t_syx < 0 || t_exny - t_eyx > 0);
 3564              		.loc 6 352 45 discriminator 2 view .LVU824
 3565 0178 CCBF     		ite	gt
 3566 017a 0121     		movgt	r1, #1
 3567 017c 0021     		movle	r1, #0
 3568              	.LVL259:
 353:../../libdaisy/src/hid/disp/display.h ****                     d4 = (t_sxny - t_synx < 0 || t_exny - t_eynx > 0);
 3569              		.loc 6 353 46 discriminator 2 view .LVU825
 3570 017e F1EE10FA 		vmrs	APSR_nzcv, FPSCR
 3571 0182 00F13D81 		bmi	.L235
 3572              	.L275:
 353:../../libdaisy/src/hid/disp/display.h ****                     d4 = (t_sxny - t_synx < 0 || t_exny - t_eynx > 0);
 3573              		.loc 6 353 56 discriminator 2 view .LVU826
 3574 0186 77EEE66A 		vsub.f32	s13, s15, s13
 3575              	.LVL260:
 353:../../libdaisy/src/hid/disp/display.h ****                     d4 = (t_sxny - t_synx < 0 || t_exny - t_eynx > 0);
 3576              		.loc 6 353 46 discriminator 2 view .LVU827
 3577 018a F5EEC06A 		vcmpe.f32	s13, #0
 3578 018e F1EE10FA 		vmrs	APSR_nzcv, FPSCR
 3579 0192 CCBF     		ite	gt
 3580 0194 0126     		movgt	r6, #1
 3581              	.LVL261:
 353:../../libdaisy/src/hid/disp/display.h ****                     d4 = (t_sxny - t_synx < 0 || t_exny - t_eynx > 0);
 3582              		.loc 6 353 46 discriminator 2 view .LVU828
 3583 0196 0026     		movle	r6, #0
 3584              	.L210:
 3585              	.LVL262:
 354:../../libdaisy/src/hid/disp/display.h ****                 }
 3586              		.loc 6 354 34 discriminator 6 view .LVU829
 3587 0198 75EEC45A 		vsub.f32	s11, s11, s8
 3588              	.LVL263:
 354:../../libdaisy/src/hid/disp/display.h ****                 }
ARM GAS  /tmp/ccPAoVZi.s 			page 112


 3589              		.loc 6 354 47 discriminator 6 view .LVU830
 3590 019c F5EEC05A 		vcmpe.f32	s11, #0
 3591 01a0 F1EE10FA 		vmrs	APSR_nzcv, FPSCR
 3592 01a4 00F11781 		bmi	.L236
 3593              	.L266:
 361:../../libdaisy/src/hid/disp/display.h ****                 }
 3594              		.loc 6 361 57 discriminator 1 view .LVU831
 3595 01a8 77EEC77A 		vsub.f32	s15, s15, s14
 3596              	.LVL264:
 361:../../libdaisy/src/hid/disp/display.h ****                 }
 3597              		.loc 6 361 47 discriminator 1 view .LVU832
 3598 01ac F5EEC07A 		vcmpe.f32	s15, #0
 3599 01b0 F1EE10FA 		vmrs	APSR_nzcv, FPSCR
 3600 01b4 CCBF     		ite	gt
 3601 01b6 0127     		movgt	r7, #1
 3602              	.LVL265:
 361:../../libdaisy/src/hid/disp/display.h ****                 }
 3603              		.loc 6 361 47 discriminator 1 view .LVU833
 3604 01b8 0027     		movle	r7, #0
 3605              	.LVL266:
 3606              	.L206:
 365:../../libdaisy/src/hid/disp/display.h ****                 ((ChildType*)(this))
 3607              		.loc 6 365 13 view .LVU834
 3608 01ba 019A     		ldr	r2, [sp, #4]
 3609 01bc F2B1     		cbz	r2, .L218
 366:../../libdaisy/src/hid/disp/display.h ****                     ->ChildType::DrawPixel(x - t_x, y + t_y, on);
 3610              		.loc 6 366 17 view .LVU835
 3611 01be ACEB0009 		sub	r9, ip, r0
 3612 01c2 04EB0805 		add	r5, r4, r8
 3613              	.LVL267:
 3614              	.LBB1305:
 3615              	.LBI1305:
  41:../../libdaisy/src/hid/disp/oled_display.h ****     {
 3616              		.loc 5 41 10 is_stmt 1 view .LVU836
 3617              	.LBB1306:
 3618              	.LBI1306:
 239:../../libdaisy/src/dev/oled_ssd130x.h ****     {
 3619              		.loc 15 239 10 view .LVU837
 3620              	.LBB1307:
 241:../../libdaisy/src/dev/oled_ssd130x.h ****             return;
 3621              		.loc 15 241 9 is_stmt 0 view .LVU838
 3622 01c6 B9F17F0F 		cmp	r9, #127
 3623 01ca 17D8     		bhi	.L218
 3624 01cc 3F2D     		cmp	r5, #63
 3625 01ce 15D8     		bhi	.L218
 244:../../libdaisy/src/dev/oled_ssd130x.h ****         else
 3626              		.loc 15 244 28 view .LVU839
 3627 01d0 4FEAD50A 		lsr	r10, r5, #3
 244:../../libdaisy/src/dev/oled_ssd130x.h ****         else
 3628              		.loc 15 244 48 view .LVU840
 3629 01d4 4FF0010B 		mov	fp, #1
 244:../../libdaisy/src/dev/oled_ssd130x.h ****         else
 3630              		.loc 15 244 54 view .LVU841
 3631 01d8 05F00705 		and	r5, r5, #7
 3632              	.LVL268:
 243:../../libdaisy/src/dev/oled_ssd130x.h ****             buffer_[x + (y / 8) * width] |= (1 << (y % 8));
 3633              		.loc 15 243 9 view .LVU842
ARM GAS  /tmp/ccPAoVZi.s 			page 113


 3634 01dc 029A     		ldr	r2, [sp, #8]
 244:../../libdaisy/src/dev/oled_ssd130x.h ****         else
 3635              		.loc 15 244 42 view .LVU843
 3636 01de 09EBCA19 		add	r9, r9, r10, lsl #7
 3637              	.LVL269:
 244:../../libdaisy/src/dev/oled_ssd130x.h ****         else
 3638              		.loc 15 244 48 view .LVU844
 3639 01e2 0BFA05F5 		lsl	r5, fp, r5
 243:../../libdaisy/src/dev/oled_ssd130x.h ****             buffer_[x + (y / 8) * width] |= (1 << (y % 8));
 3640              		.loc 15 243 9 view .LVU845
 3641 01e6 002A     		cmp	r2, #0
 3642 01e8 00F0C280 		beq	.L219
 244:../../libdaisy/src/dev/oled_ssd130x.h ****         else
 3643              		.loc 15 244 13 view .LVU846
 3644 01ec 039A     		ldr	r2, [sp, #12]
 3645 01ee 9144     		add	r9, r9, r2
 244:../../libdaisy/src/dev/oled_ssd130x.h ****         else
 3646              		.loc 15 244 42 view .LVU847
 3647 01f0 99F814B0 		ldrb	fp, [r9, #20]	@ zero_extendqisi2
 3648 01f4 45EA0B05 		orr	r5, r5, fp
 244:../../libdaisy/src/dev/oled_ssd130x.h ****         else
 3649              		.loc 15 244 13 view .LVU848
 3650 01f8 89F81450 		strb	r5, [r9, #20]
 3651              	.LVL270:
 3652              	.L218:
 244:../../libdaisy/src/dev/oled_ssd130x.h ****         else
 3653              		.loc 15 244 13 view .LVU849
 3654              	.LBE1307:
 3655              	.LBE1306:
 3656              	.LBE1305:
 368:../../libdaisy/src/hid/disp/display.h ****                 ((ChildType*)(this))
 3657              		.loc 6 368 13 view .LVU850
 3658 01fc F1B1     		cbz	r1, .L220
 3659              	.L273:
 369:../../libdaisy/src/hid/disp/display.h ****                     ->ChildType::DrawPixel(x + t_x, y + t_y, on);
 3660              		.loc 6 369 17 view .LVU851
 3661 01fe 00EB0C09 		add	r9, r0, ip
 3662 0202 04EB0805 		add	r5, r4, r8
 3663              	.LVL271:
 3664              	.LBB1312:
 3665              	.LBI1312:
  41:../../libdaisy/src/hid/disp/oled_display.h ****     {
 3666              		.loc 5 41 10 is_stmt 1 view .LVU852
 3667              	.LBB1313:
 3668              	.LBI1313:
 239:../../libdaisy/src/dev/oled_ssd130x.h ****     {
 3669              		.loc 15 239 10 view .LVU853
 3670              	.LBB1314:
 241:../../libdaisy/src/dev/oled_ssd130x.h ****             return;
 3671              		.loc 15 241 9 is_stmt 0 view .LVU854
 3672 0206 B9F17F0F 		cmp	r9, #127
 3673 020a 17D8     		bhi	.L220
 3674 020c 3F2D     		cmp	r5, #63
 3675 020e 15D8     		bhi	.L220
 244:../../libdaisy/src/dev/oled_ssd130x.h ****         else
 3676              		.loc 15 244 28 view .LVU855
 3677 0210 4FEAD50A 		lsr	r10, r5, #3
ARM GAS  /tmp/ccPAoVZi.s 			page 114


 244:../../libdaisy/src/dev/oled_ssd130x.h ****         else
 3678              		.loc 15 244 48 view .LVU856
 3679 0214 4FF0010B 		mov	fp, #1
 244:../../libdaisy/src/dev/oled_ssd130x.h ****         else
 3680              		.loc 15 244 54 view .LVU857
 3681 0218 05F00705 		and	r5, r5, #7
 3682              	.LVL272:
 243:../../libdaisy/src/dev/oled_ssd130x.h ****             buffer_[x + (y / 8) * width] |= (1 << (y % 8));
 3683              		.loc 15 243 9 view .LVU858
 3684 021c 029A     		ldr	r2, [sp, #8]
 244:../../libdaisy/src/dev/oled_ssd130x.h ****         else
 3685              		.loc 15 244 42 view .LVU859
 3686 021e 09EBCA19 		add	r9, r9, r10, lsl #7
 3687              	.LVL273:
 244:../../libdaisy/src/dev/oled_ssd130x.h ****         else
 3688              		.loc 15 244 48 view .LVU860
 3689 0222 0BFA05F5 		lsl	r5, fp, r5
 243:../../libdaisy/src/dev/oled_ssd130x.h ****             buffer_[x + (y / 8) * width] |= (1 << (y % 8));
 3690              		.loc 15 243 9 view .LVU861
 3691 0226 002A     		cmp	r2, #0
 3692 0228 00F08E80 		beq	.L221
 244:../../libdaisy/src/dev/oled_ssd130x.h ****         else
 3693              		.loc 15 244 13 view .LVU862
 3694 022c 039A     		ldr	r2, [sp, #12]
 3695 022e 9144     		add	r9, r9, r2
 244:../../libdaisy/src/dev/oled_ssd130x.h ****         else
 3696              		.loc 15 244 42 view .LVU863
 3697 0230 99F814B0 		ldrb	fp, [r9, #20]	@ zero_extendqisi2
 3698 0234 45EA0B05 		orr	r5, r5, fp
 244:../../libdaisy/src/dev/oled_ssd130x.h ****         else
 3699              		.loc 15 244 13 view .LVU864
 3700 0238 89F81450 		strb	r5, [r9, #20]
 3701              	.LVL274:
 3702              	.L220:
 244:../../libdaisy/src/dev/oled_ssd130x.h ****         else
 3703              		.loc 15 244 13 view .LVU865
 3704              	.LBE1314:
 3705              	.LBE1313:
 3706              	.LBE1312:
 371:../../libdaisy/src/hid/disp/display.h ****                 ((ChildType*)(this))
 3707              		.loc 6 371 13 view .LVU866
 3708 023c EEB1     		cbz	r6, .L222
 3709              	.L272:
 372:../../libdaisy/src/hid/disp/display.h ****                     ->ChildType::DrawPixel(x + t_x, y - t_y, on);
 3710              		.loc 6 372 17 view .LVU867
 3711 023e 00EB0C09 		add	r9, r0, ip
 3712 0242 A8EB0405 		sub	r5, r8, r4
 3713              	.LVL275:
 3714              	.LBB1319:
 3715              	.LBI1319:
  41:../../libdaisy/src/hid/disp/oled_display.h ****     {
 3716              		.loc 5 41 10 is_stmt 1 view .LVU868
 3717              	.LBB1320:
 3718              	.LBI1320:
 239:../../libdaisy/src/dev/oled_ssd130x.h ****     {
 3719              		.loc 15 239 10 view .LVU869
 3720              	.LBB1321:
ARM GAS  /tmp/ccPAoVZi.s 			page 115


 241:../../libdaisy/src/dev/oled_ssd130x.h ****             return;
 3721              		.loc 15 241 9 is_stmt 0 view .LVU870
 3722 0246 B9F17F0F 		cmp	r9, #127
 3723 024a 16D8     		bhi	.L222
 3724 024c 3F2D     		cmp	r5, #63
 3725 024e 14D8     		bhi	.L222
 244:../../libdaisy/src/dev/oled_ssd130x.h ****         else
 3726              		.loc 15 244 28 view .LVU871
 3727 0250 4FEAD50A 		lsr	r10, r5, #3
 244:../../libdaisy/src/dev/oled_ssd130x.h ****         else
 3728              		.loc 15 244 48 view .LVU872
 3729 0254 4FF0010B 		mov	fp, #1
 244:../../libdaisy/src/dev/oled_ssd130x.h ****         else
 3730              		.loc 15 244 54 view .LVU873
 3731 0258 05F00705 		and	r5, r5, #7
 3732              	.LVL276:
 243:../../libdaisy/src/dev/oled_ssd130x.h ****             buffer_[x + (y / 8) * width] |= (1 << (y % 8));
 3733              		.loc 15 243 9 view .LVU874
 3734 025c 029A     		ldr	r2, [sp, #8]
 244:../../libdaisy/src/dev/oled_ssd130x.h ****         else
 3735              		.loc 15 244 42 view .LVU875
 3736 025e 09EBCA19 		add	r9, r9, r10, lsl #7
 3737              	.LVL277:
 244:../../libdaisy/src/dev/oled_ssd130x.h ****         else
 3738              		.loc 15 244 48 view .LVU876
 3739 0262 0BFA05F5 		lsl	r5, fp, r5
 243:../../libdaisy/src/dev/oled_ssd130x.h ****             buffer_[x + (y / 8) * width] |= (1 << (y % 8));
 3740              		.loc 15 243 9 view .LVU877
 3741 0266 002A     		cmp	r2, #0
 3742 0268 65D0     		beq	.L223
 244:../../libdaisy/src/dev/oled_ssd130x.h ****         else
 3743              		.loc 15 244 13 view .LVU878
 3744 026a 039A     		ldr	r2, [sp, #12]
 3745 026c 9144     		add	r9, r9, r2
 244:../../libdaisy/src/dev/oled_ssd130x.h ****         else
 3746              		.loc 15 244 42 view .LVU879
 3747 026e 99F814B0 		ldrb	fp, [r9, #20]	@ zero_extendqisi2
 3748 0272 45EA0B05 		orr	r5, r5, fp
 244:../../libdaisy/src/dev/oled_ssd130x.h ****         else
 3749              		.loc 15 244 13 view .LVU880
 3750 0276 89F81450 		strb	r5, [r9, #20]
 3751              	.LVL278:
 3752              	.L222:
 244:../../libdaisy/src/dev/oled_ssd130x.h ****         else
 3753              		.loc 15 244 13 view .LVU881
 3754              	.LBE1321:
 3755              	.LBE1320:
 3756              	.LBE1319:
 374:../../libdaisy/src/hid/disp/display.h ****                 ((ChildType*)(this))
 3757              		.loc 6 374 13 view .LVU882
 3758 027a D7B9     		cbnz	r7, .L267
 3759              	.L224:
 3760              	.LVL279:
 379:../../libdaisy/src/hid/disp/display.h ****             {
 3761              		.loc 6 379 13 view .LVU883
 3762 027c 9C42     		cmp	r4, r3
 3763 027e 16DB     		blt	.L241
ARM GAS  /tmp/ccPAoVZi.s 			page 116


 381:../../libdaisy/src/hid/disp/display.h ****                 err = err + (t_y * 2 + 1);
 3764              		.loc 6 381 17 view .LVU884
 3765 0280 0134     		adds	r4, r4, #1
 3766              	.LVL280:
 382:../../libdaisy/src/hid/disp/display.h ****                 if(-t_x == t_y && e2 <= t_x)
 3767              		.loc 6 382 38 view .LVU885
 3768 0282 03EB4405 		add	r5, r3, r4, lsl #1
 383:../../libdaisy/src/hid/disp/display.h ****                 {
 3769              		.loc 6 383 17 view .LVU886
 3770 0286 C442     		cmn	r4, r0
 382:../../libdaisy/src/hid/disp/display.h ****                 if(-t_x == t_y && e2 <= t_x)
 3771              		.loc 6 382 17 view .LVU887
 3772 0288 05F10105 		add	r5, r5, #1
 3773              	.LVL281:
 383:../../libdaisy/src/hid/disp/display.h ****                 {
 3774              		.loc 6 383 17 view .LVU888
 3775 028c 4FD0     		beq	.L268
 3776              	.LVL282:
 3777              	.L226:
 388:../../libdaisy/src/hid/disp/display.h ****             {
 3778              		.loc 6 388 13 view .LVU889
 3779 028e 9842     		cmp	r0, r3
 3780 0290 08DB     		blt	.L227
 388:../../libdaisy/src/hid/disp/display.h ****             {
 3781              		.loc 6 388 13 view .LVU890
 3782 0292 2B46     		mov	r3, r5
 3783              	.LVL283:
 3784              	.L228:
 393:../../libdaisy/src/hid/disp/display.h ****     }
 3785              		.loc 6 393 21 is_stmt 1 view .LVU891
 3786 0294 0028     		cmp	r0, #0
 3787 0296 7FF722AF 		ble	.L230
 3788              	.LVL284:
 3789              	.L201:
 394:../../libdaisy/src/hid/disp/display.h **** 
 3790              		.loc 6 394 5 is_stmt 0 view .LVU892
 3791 029a 05B0     		add	sp, sp, #20
 3792              		.cfi_remember_state
 3793              		.cfi_def_cfa_offset 60
 3794              		@ sp needed
 3795 029c BDEC068B 		vldm	sp!, {d8-d10}
 3796              		.cfi_restore 84
 3797              		.cfi_restore 85
 3798              		.cfi_restore 82
 3799              		.cfi_restore 83
 3800              		.cfi_restore 80
 3801              		.cfi_restore 81
 3802              		.cfi_def_cfa_offset 36
 3803              	.LVL285:
 394:../../libdaisy/src/hid/disp/display.h **** 
 3804              		.loc 6 394 5 view .LVU893
 3805 02a0 BDE8F08F 		pop	{r4, r5, r6, r7, r8, r9, r10, fp, pc}
 3806              	.LVL286:
 3807              	.L227:
 3808              		.cfi_restore_state
 390:../../libdaisy/src/hid/disp/display.h ****                 err = err + (t_x * 2 + 1);
 3809              		.loc 6 390 17 view .LVU894
ARM GAS  /tmp/ccPAoVZi.s 			page 117


 3810 02a4 0130     		adds	r0, r0, #1
 3811              	.LVL287:
 391:../../libdaisy/src/hid/disp/display.h ****             }
 3812              		.loc 6 391 38 view .LVU895
 3813 02a6 05EB4003 		add	r3, r5, r0, lsl #1
 391:../../libdaisy/src/hid/disp/display.h ****             }
 3814              		.loc 6 391 17 view .LVU896
 3815 02aa 0133     		adds	r3, r3, #1
 3816              	.LVL288:
 391:../../libdaisy/src/hid/disp/display.h ****             }
 3817              		.loc 6 391 17 view .LVU897
 3818 02ac F2E7     		b	.L228
 3819              	.LVL289:
 3820              	.L241:
 391:../../libdaisy/src/hid/disp/display.h ****             }
 3821              		.loc 6 391 17 view .LVU898
 3822 02ae 1D46     		mov	r5, r3
 3823 02b0 EDE7     		b	.L226
 3824              	.LVL290:
 3825              	.L267:
 375:../../libdaisy/src/hid/disp/display.h ****                     ->ChildType::DrawPixel(x - t_x, y - t_y, on);
 3826              		.loc 6 375 17 view .LVU899
 3827 02b2 ACEB0009 		sub	r9, ip, r0
 3828 02b6 A8EB0405 		sub	r5, r8, r4
 3829              	.LVL291:
 3830              	.LBB1326:
 3831              	.LBI1326:
  41:../../libdaisy/src/hid/disp/oled_display.h ****     {
 3832              		.loc 5 41 10 is_stmt 1 view .LVU900
 3833              	.LBB1327:
 3834              	.LBI1327:
 239:../../libdaisy/src/dev/oled_ssd130x.h ****     {
 3835              		.loc 15 239 10 view .LVU901
 3836              	.LBB1328:
 241:../../libdaisy/src/dev/oled_ssd130x.h ****             return;
 3837              		.loc 15 241 9 is_stmt 0 view .LVU902
 3838 02ba B9F17F0F 		cmp	r9, #127
 3839 02be DDD8     		bhi	.L224
 3840 02c0 3F2D     		cmp	r5, #63
 3841 02c2 DBD8     		bhi	.L224
 244:../../libdaisy/src/dev/oled_ssd130x.h ****         else
 3842              		.loc 15 244 28 view .LVU903
 3843 02c4 4FEAD50A 		lsr	r10, r5, #3
 244:../../libdaisy/src/dev/oled_ssd130x.h ****         else
 3844              		.loc 15 244 48 view .LVU904
 3845 02c8 4FF0010B 		mov	fp, #1
 244:../../libdaisy/src/dev/oled_ssd130x.h ****         else
 3846              		.loc 15 244 54 view .LVU905
 3847 02cc 05F00705 		and	r5, r5, #7
 3848              	.LVL292:
 243:../../libdaisy/src/dev/oled_ssd130x.h ****             buffer_[x + (y / 8) * width] |= (1 << (y % 8));
 3849              		.loc 15 243 9 view .LVU906
 3850 02d0 029A     		ldr	r2, [sp, #8]
 244:../../libdaisy/src/dev/oled_ssd130x.h ****         else
 3851              		.loc 15 244 42 view .LVU907
 3852 02d2 09EBCA19 		add	r9, r9, r10, lsl #7
 3853              	.LVL293:
ARM GAS  /tmp/ccPAoVZi.s 			page 118


 244:../../libdaisy/src/dev/oled_ssd130x.h ****         else
 3854              		.loc 15 244 48 view .LVU908
 3855 02d6 0BFA05F5 		lsl	r5, fp, r5
 243:../../libdaisy/src/dev/oled_ssd130x.h ****             buffer_[x + (y / 8) * width] |= (1 << (y % 8));
 3856              		.loc 15 243 9 view .LVU909
 3857 02da 002A     		cmp	r2, #0
 3858 02dc 3FD0     		beq	.L225
 244:../../libdaisy/src/dev/oled_ssd130x.h ****         else
 3859              		.loc 15 244 13 view .LVU910
 3860 02de 039A     		ldr	r2, [sp, #12]
 3861 02e0 9144     		add	r9, r9, r2
 244:../../libdaisy/src/dev/oled_ssd130x.h ****         else
 3862              		.loc 15 244 42 view .LVU911
 3863 02e2 99F814B0 		ldrb	fp, [r9, #20]	@ zero_extendqisi2
 3864 02e6 45EA0B05 		orr	r5, r5, fp
 244:../../libdaisy/src/dev/oled_ssd130x.h ****         else
 3865              		.loc 15 244 13 view .LVU912
 3866 02ea 89F81450 		strb	r5, [r9, #20]
 3867 02ee C5E7     		b	.L224
 3868              	.LVL294:
 3869              	.L207:
 244:../../libdaisy/src/dev/oled_ssd130x.h ****         else
 3870              		.loc 15 244 13 view .LVU913
 3871              	.LBE1328:
 3872              	.LBE1327:
 3873              	.LBE1326:
 358:../../libdaisy/src/hid/disp/display.h ****                     d2 = (t_sxy - t_syx < 0 && t_exy - t_eyx > 0);
 3874              		.loc 6 358 46 view .LVU914
 3875 02f0 F1EE10FA 		vmrs	APSR_nzcv, FPSCR
 3876 02f4 64D4     		bmi	.L269
 3877 02f6 CDF804E0 		str	lr, [sp, #4]
 3878              	.LVL295:
 3879              	.L211:
 359:../../libdaisy/src/hid/disp/display.h ****                     d3 = (t_sxny - t_syx < 0 && t_exny - t_eyx > 0);
 3880              		.loc 6 359 33 discriminator 6 view .LVU915
 3881 02fa 74EEC54A 		vsub.f32	s9, s9, s10
 3882              	.LVL296:
 359:../../libdaisy/src/hid/disp/display.h ****                     d3 = (t_sxny - t_syx < 0 && t_exny - t_eyx > 0);
 3883              		.loc 6 359 45 discriminator 6 view .LVU916
 3884 02fe F5EEC04A 		vcmpe.f32	s9, #0
 3885 0302 F1EE10FA 		vmrs	APSR_nzcv, FPSCR
 3886 0306 51D4     		bmi	.L270
 359:../../libdaisy/src/hid/disp/display.h ****                     d3 = (t_sxny - t_syx < 0 && t_exny - t_eyx > 0);
 3887              		.loc 6 359 45 view .LVU917
 3888 0308 0021     		movs	r1, #0
 3889              	.LVL297:
 3890              	.L213:
 360:../../libdaisy/src/hid/disp/display.h ****                     d4 = (t_sxny - t_synx < 0 && t_exny - t_eynx > 0);
 3891              		.loc 6 360 34 discriminator 6 view .LVU918
 3892 030a 35EEC55A 		vsub.f32	s10, s11, s10
 3893              	.LVL298:
 360:../../libdaisy/src/hid/disp/display.h ****                     d4 = (t_sxny - t_synx < 0 && t_exny - t_eynx > 0);
 3894              		.loc 6 360 46 discriminator 6 view .LVU919
 3895 030e B5EEC05A 		vcmpe.f32	s10, #0
 3896 0312 F1EE10FA 		vmrs	APSR_nzcv, FPSCR
 3897 0316 3FD4     		bmi	.L271
 360:../../libdaisy/src/hid/disp/display.h ****                     d4 = (t_sxny - t_synx < 0 && t_exny - t_eynx > 0);
ARM GAS  /tmp/ccPAoVZi.s 			page 119


 3898              		.loc 6 360 46 view .LVU920
 3899 0318 0026     		movs	r6, #0
 3900              	.LVL299:
 3901              	.L215:
 361:../../libdaisy/src/hid/disp/display.h ****                 }
 3902              		.loc 6 361 34 discriminator 6 view .LVU921
 3903 031a 75EEC45A 		vsub.f32	s11, s11, s8
 3904              	.LVL300:
 361:../../libdaisy/src/hid/disp/display.h ****                 }
 3905              		.loc 6 361 47 discriminator 6 view .LVU922
 3906 031e F5EEC05A 		vcmpe.f32	s11, #0
 3907 0322 F1EE10FA 		vmrs	APSR_nzcv, FPSCR
 3908 0326 3FF53FAF 		bmi	.L266
 361:../../libdaisy/src/hid/disp/display.h ****                 }
 3909              		.loc 6 361 47 view .LVU923
 3910 032a 0027     		movs	r7, #0
 3911              	.LVL301:
 361:../../libdaisy/src/hid/disp/display.h ****                 }
 3912              		.loc 6 361 47 view .LVU924
 3913 032c 45E7     		b	.L206
 3914              	.LVL302:
 3915              	.L268:
 383:../../libdaisy/src/hid/disp/display.h ****                 {
 3916              		.loc 6 383 32 discriminator 1 view .LVU925
 3917 032e 9842     		cmp	r0, r3
 3918 0330 B8DB     		blt	.L227
 385:../../libdaisy/src/hid/disp/display.h ****                 }
 3919              		.loc 6 385 21 view .LVU926
 3920 0332 0023     		movs	r3, #0
 3921              	.LVL303:
 385:../../libdaisy/src/hid/disp/display.h ****                 }
 3922              		.loc 6 385 21 view .LVU927
 3923 0334 ABE7     		b	.L226
 3924              	.LVL304:
 3925              	.L223:
 3926              	.LBB1333:
 3927              	.LBB1325:
 3928              	.LBB1324:
 3929              	.LBB1322:
 3930              	.LBI1322:
 239:../../libdaisy/src/dev/oled_ssd130x.h ****     {
 3931              		.loc 15 239 10 is_stmt 1 view .LVU928
 3932              	.LBB1323:
 246:../../libdaisy/src/dev/oled_ssd130x.h ****     }
 3933              		.loc 15 246 13 is_stmt 0 view .LVU929
 3934 0336 039A     		ldr	r2, [sp, #12]
 3935 0338 9144     		add	r9, r9, r2
 3936              	.LVL305:
 246:../../libdaisy/src/dev/oled_ssd130x.h ****     }
 3937              		.loc 15 246 42 view .LVU930
 3938 033a 99F814B0 		ldrb	fp, [r9, #20]	@ zero_extendqisi2
 3939 033e 2BEA0505 		bic	r5, fp, r5
 3940              	.LVL306:
 246:../../libdaisy/src/dev/oled_ssd130x.h ****     }
 3941              		.loc 15 246 13 view .LVU931
 3942 0342 89F81450 		strb	r5, [r9, #20]
 3943 0346 98E7     		b	.L222
ARM GAS  /tmp/ccPAoVZi.s 			page 120


 3944              	.LVL307:
 3945              	.L221:
 246:../../libdaisy/src/dev/oled_ssd130x.h ****     }
 3946              		.loc 15 246 13 view .LVU932
 3947              	.LBE1323:
 3948              	.LBE1322:
 3949              	.LBE1324:
 3950              	.LBE1325:
 3951              	.LBE1333:
 3952              	.LBB1334:
 3953              	.LBB1318:
 3954              	.LBB1317:
 3955              	.LBB1315:
 3956              	.LBI1315:
 239:../../libdaisy/src/dev/oled_ssd130x.h ****     {
 3957              		.loc 15 239 10 is_stmt 1 view .LVU933
 3958              	.LBB1316:
 246:../../libdaisy/src/dev/oled_ssd130x.h ****     }
 3959              		.loc 15 246 13 is_stmt 0 view .LVU934
 3960 0348 039A     		ldr	r2, [sp, #12]
 3961 034a 9144     		add	r9, r9, r2
 3962              	.LVL308:
 246:../../libdaisy/src/dev/oled_ssd130x.h ****     }
 3963              		.loc 15 246 42 view .LVU935
 3964 034c 99F814B0 		ldrb	fp, [r9, #20]	@ zero_extendqisi2
 3965 0350 2BEA0505 		bic	r5, fp, r5
 3966              	.LVL309:
 246:../../libdaisy/src/dev/oled_ssd130x.h ****     }
 3967              		.loc 15 246 13 view .LVU936
 3968 0354 89F81450 		strb	r5, [r9, #20]
 3969              	.LVL310:
 246:../../libdaisy/src/dev/oled_ssd130x.h ****     }
 3970              		.loc 15 246 13 view .LVU937
 3971              	.LBE1316:
 3972              	.LBE1315:
 3973              	.LBE1317:
 3974              	.LBE1318:
 3975              	.LBE1334:
 371:../../libdaisy/src/hid/disp/display.h ****                 ((ChildType*)(this))
 3976              		.loc 6 371 13 view .LVU938
 3977 0358 002E     		cmp	r6, #0
 3978 035a 8ED0     		beq	.L222
 3979 035c 6FE7     		b	.L272
 3980              	.LVL311:
 3981              	.L225:
 3982              	.LBB1335:
 3983              	.LBB1332:
 3984              	.LBB1331:
 3985              	.LBB1329:
 3986              	.LBI1329:
 239:../../libdaisy/src/dev/oled_ssd130x.h ****     {
 3987              		.loc 15 239 10 is_stmt 1 view .LVU939
 3988              	.LBB1330:
 246:../../libdaisy/src/dev/oled_ssd130x.h ****     }
 3989              		.loc 15 246 13 is_stmt 0 view .LVU940
 3990 035e 039A     		ldr	r2, [sp, #12]
 3991 0360 9144     		add	r9, r9, r2
ARM GAS  /tmp/ccPAoVZi.s 			page 121


 3992              	.LVL312:
 246:../../libdaisy/src/dev/oled_ssd130x.h ****     }
 3993              		.loc 15 246 42 view .LVU941
 3994 0362 99F814B0 		ldrb	fp, [r9, #20]	@ zero_extendqisi2
 3995 0366 2BEA0505 		bic	r5, fp, r5
 3996              	.LVL313:
 246:../../libdaisy/src/dev/oled_ssd130x.h ****     }
 3997              		.loc 15 246 13 view .LVU942
 3998 036a 89F81450 		strb	r5, [r9, #20]
 3999 036e 85E7     		b	.L224
 4000              	.LVL314:
 4001              	.L219:
 246:../../libdaisy/src/dev/oled_ssd130x.h ****     }
 4002              		.loc 15 246 13 view .LVU943
 4003              	.LBE1330:
 4004              	.LBE1329:
 4005              	.LBE1331:
 4006              	.LBE1332:
 4007              	.LBE1335:
 4008              	.LBB1336:
 4009              	.LBB1311:
 4010              	.LBB1310:
 4011              	.LBB1308:
 4012              	.LBI1308:
 239:../../libdaisy/src/dev/oled_ssd130x.h ****     {
 4013              		.loc 15 239 10 is_stmt 1 view .LVU944
 4014              	.LBB1309:
 246:../../libdaisy/src/dev/oled_ssd130x.h ****     }
 4015              		.loc 15 246 13 is_stmt 0 view .LVU945
 4016 0370 039A     		ldr	r2, [sp, #12]
 4017 0372 9144     		add	r9, r9, r2
 4018              	.LVL315:
 246:../../libdaisy/src/dev/oled_ssd130x.h ****     }
 4019              		.loc 15 246 42 view .LVU946
 4020 0374 99F814B0 		ldrb	fp, [r9, #20]	@ zero_extendqisi2
 4021 0378 2BEA0505 		bic	r5, fp, r5
 4022              	.LVL316:
 246:../../libdaisy/src/dev/oled_ssd130x.h ****     }
 4023              		.loc 15 246 13 view .LVU947
 4024 037c 89F81450 		strb	r5, [r9, #20]
 4025              	.LVL317:
 246:../../libdaisy/src/dev/oled_ssd130x.h ****     }
 4026              		.loc 15 246 13 view .LVU948
 4027              	.LBE1309:
 4028              	.LBE1308:
 4029              	.LBE1310:
 4030              	.LBE1311:
 4031              	.LBE1336:
 368:../../libdaisy/src/hid/disp/display.h ****                 ((ChildType*)(this))
 4032              		.loc 6 368 13 view .LVU949
 4033 0380 0029     		cmp	r1, #0
 4034 0382 3FF45BAF 		beq	.L220
 4035 0386 3AE7     		b	.L273
 4036              	.L277:
 4037              		.align	3
 4038              	.L276:
 4039 0388 7A008BFC 		.word	4236968058
ARM GAS  /tmp/ccPAoVZi.s 			page 122


 4040 038c FA210940 		.word	1074340346
 4041 0390 00000000 		.word	0
 4042 0394 00806640 		.word	1080459264
 4043              	.LVL318:
 4044              	.L271:
 360:../../libdaisy/src/hid/disp/display.h ****                     d4 = (t_sxny - t_synx < 0 && t_exny - t_eynx > 0);
 4045              		.loc 6 360 56 discriminator 1 view .LVU950
 4046 0398 77EEE66A 		vsub.f32	s13, s15, s13
 4047              	.LVL319:
 360:../../libdaisy/src/hid/disp/display.h ****                     d4 = (t_sxny - t_synx < 0 && t_exny - t_eynx > 0);
 4048              		.loc 6 360 46 discriminator 1 view .LVU951
 4049 039c F5EEC06A 		vcmpe.f32	s13, #0
 4050 03a0 F1EE10FA 		vmrs	APSR_nzcv, FPSCR
 4051 03a4 CCBF     		ite	gt
 4052 03a6 0126     		movgt	r6, #1
 4053              	.LVL320:
 360:../../libdaisy/src/hid/disp/display.h ****                     d4 = (t_sxny - t_synx < 0 && t_exny - t_eynx > 0);
 4054              		.loc 6 360 46 discriminator 1 view .LVU952
 4055 03a8 0026     		movle	r6, #0
 4056 03aa B6E7     		b	.L215
 4057              	.LVL321:
 4058              	.L270:
 359:../../libdaisy/src/hid/disp/display.h ****                     d3 = (t_sxny - t_syx < 0 && t_exny - t_eyx > 0);
 4059              		.loc 6 359 54 discriminator 1 view .LVU953
 4060 03ac 36EE666A 		vsub.f32	s12, s12, s13
 4061              	.LVL322:
 359:../../libdaisy/src/hid/disp/display.h ****                     d3 = (t_sxny - t_syx < 0 && t_exny - t_eyx > 0);
 4062              		.loc 6 359 45 discriminator 1 view .LVU954
 4063 03b0 B5EEC06A 		vcmpe.f32	s12, #0
 4064 03b4 F1EE10FA 		vmrs	APSR_nzcv, FPSCR
 4065 03b8 CCBF     		ite	gt
 4066 03ba 0121     		movgt	r1, #1
 4067 03bc 0021     		movle	r1, #0
 4068 03be A4E7     		b	.L213
 4069              	.LVL323:
 4070              	.L269:
 358:../../libdaisy/src/hid/disp/display.h ****                     d2 = (t_sxy - t_syx < 0 && t_exy - t_eyx > 0);
 4071              		.loc 6 358 55 discriminator 1 view .LVU955
 4072 03c0 76EE473A 		vsub.f32	s7, s12, s14
 358:../../libdaisy/src/hid/disp/display.h ****                     d2 = (t_sxy - t_syx < 0 && t_exy - t_eyx > 0);
 4073              		.loc 6 358 46 discriminator 1 view .LVU956
 4074 03c4 F5EEC03A 		vcmpe.f32	s7, #0
 4075 03c8 F1EE10FA 		vmrs	APSR_nzcv, FPSCR
 4076 03cc CCBF     		ite	gt
 4077 03ce 0122     		movgt	r2, #1
 4078 03d0 0022     		movle	r2, #0
 4079 03d2 0192     		str	r2, [sp, #4]
 4080              	.LVL324:
 358:../../libdaisy/src/hid/disp/display.h ****                     d2 = (t_sxy - t_syx < 0 && t_exy - t_eyx > 0);
 4081              		.loc 6 358 46 discriminator 1 view .LVU957
 4082 03d4 91E7     		b	.L211
 4083              	.LVL325:
 4084              	.L236:
 354:../../libdaisy/src/hid/disp/display.h ****                 }
 4085              		.loc 6 354 47 view .LVU958
 4086 03d6 0127     		movs	r7, #1
 4087              	.LVL326:
ARM GAS  /tmp/ccPAoVZi.s 			page 123


 354:../../libdaisy/src/hid/disp/display.h ****                 }
 4088              		.loc 6 354 47 view .LVU959
 4089 03d8 EFE6     		b	.L206
 4090              	.LVL327:
 4091              	.L233:
 352:../../libdaisy/src/hid/disp/display.h ****                     d3 = (t_sxny - t_syx < 0 || t_exny - t_eyx > 0);
 4092              		.loc 6 352 33 view .LVU960
 4093 03da 74EEC54A 		vsub.f32	s9, s9, s10
 4094              	.LVL328:
 351:../../libdaisy/src/hid/disp/display.h ****                     d2 = (t_sxy - t_syx < 0 || t_exy - t_eyx > 0);
 4095              		.loc 6 351 46 view .LVU961
 4096 03de 0122     		movs	r2, #1
 4097 03e0 0192     		str	r2, [sp, #4]
 4098              	.LVL329:
 352:../../libdaisy/src/hid/disp/display.h ****                     d3 = (t_sxny - t_syx < 0 || t_exny - t_eyx > 0);
 4099              		.loc 6 352 45 view .LVU962
 4100 03e2 F5EEC04A 		vcmpe.f32	s9, #0
 4101 03e6 F1EE10FA 		vmrs	APSR_nzcv, FPSCR
 4102 03ea 7FF5BBAE 		bpl	.L274
 4103              	.L234:
 353:../../libdaisy/src/hid/disp/display.h ****                     d4 = (t_sxny - t_synx < 0 || t_exny - t_eynx > 0);
 4104              		.loc 6 353 34 view .LVU963
 4105 03ee 35EEC55A 		vsub.f32	s10, s11, s10
 4106              	.LVL330:
 352:../../libdaisy/src/hid/disp/display.h ****                     d3 = (t_sxny - t_syx < 0 || t_exny - t_eyx > 0);
 4107              		.loc 6 352 45 view .LVU964
 4108 03f2 0121     		movs	r1, #1
 4109              	.LVL331:
 353:../../libdaisy/src/hid/disp/display.h ****                     d4 = (t_sxny - t_synx < 0 || t_exny - t_eynx > 0);
 4110              		.loc 6 353 46 view .LVU965
 4111 03f4 B5EEC05A 		vcmpe.f32	s10, #0
 4112 03f8 F1EE10FA 		vmrs	APSR_nzcv, FPSCR
 4113 03fc 7FF5C3AE 		bpl	.L275
 4114              	.LVL332:
 4115              	.L235:
 353:../../libdaisy/src/hid/disp/display.h ****                     d4 = (t_sxny - t_synx < 0 || t_exny - t_eynx > 0);
 4116              		.loc 6 353 46 view .LVU966
 4117 0400 0126     		movs	r6, #1
 4118              	.LVL333:
 353:../../libdaisy/src/hid/disp/display.h ****                     d4 = (t_sxny - t_synx < 0 || t_exny - t_eynx > 0);
 4119              		.loc 6 353 46 view .LVU967
 4120 0402 C9E6     		b	.L210
 4121              	.LVL334:
 4122              	.L202:
 308:../../libdaisy/src/hid/disp/display.h ****             sweep = -sweep;
 4123              		.loc 6 308 13 view .LVU968
 4124 0404 DDE91423 		ldrd	r2, r3, [sp, #80]
 4125              	.LVL335:
 308:../../libdaisy/src/hid/disp/display.h ****             sweep = -sweep;
 4126              		.loc 6 308 13 view .LVU969
 4127 0408 1344     		add	r3, r3, r2
 4128              	.LVL336:
 308:../../libdaisy/src/hid/disp/display.h ****             sweep = -sweep;
 4129              		.loc 6 308 13 view .LVU970
 4130 040a 06EE102A 		vmov	s12, r2	@ int
 4131 040e 1493     		str	r3, [sp, #80]
 4132 0410 159B     		ldr	r3, [sp, #84]
ARM GAS  /tmp/ccPAoVZi.s 			page 124


 4133              	.LVL337:
 308:../../libdaisy/src/hid/disp/display.h ****             sweep = -sweep;
 4134              		.loc 6 308 13 view .LVU971
 4135 0412 5B42     		rsbs	r3, r3, #0
 4136 0414 1593     		str	r3, [sp, #84]
 4137              	.LVL338:
 308:../../libdaisy/src/hid/disp/display.h ****             sweep = -sweep;
 4138              		.loc 6 308 13 view .LVU972
 4139 0416 07E6     		b	.L203
 4140              		.cfi_endproc
 4141              	.LFE4827:
 4143              		.section	.text._ZN5daisy25OneBitGraphicsDisplayImplINS_11OledDisplayINS_13SSD130xDriverILj128ELj64
 4144              		.align	1
 4145              		.p2align 2,,3
 4146              		.weak	_ZN5daisy25OneBitGraphicsDisplayImplINS_11OledDisplayINS_13SSD130xDriverILj128ELj64ENS_24SSD
 4147              		.syntax unified
 4148              		.thumb
 4149              		.thumb_func
 4150              		.fpu fpv5-d16
 4152              	_ZN5daisy25OneBitGraphicsDisplayImplINS_11OledDisplayINS_13SSD130xDriverILj128ELj64ENS_24SSD130x4Wi
 4153              	.LVL339:
 4154              	.LFB4681:
 396:../../libdaisy/src/hid/disp/display.h ****     {
 4155              		.loc 6 396 10 is_stmt 1 view -0
 4156              		.cfi_startproc
 4157              		@ args = 4, pretend = 0, frame = 16
 4158              		@ frame_needed = 0, uses_anonymous_args = 0
 396:../../libdaisy/src/hid/disp/display.h ****     {
 4159              		.loc 6 396 10 is_stmt 0 view .LVU974
 4160 0000 2DE9F04F 		push	{r4, r5, r6, r7, r8, r9, r10, fp, lr}
 4161              		.cfi_def_cfa_offset 36
 4162              		.cfi_offset 4, -36
 4163              		.cfi_offset 5, -32
 4164              		.cfi_offset 6, -28
 4165              		.cfi_offset 7, -24
 4166              		.cfi_offset 8, -20
 4167              		.cfi_offset 9, -16
 4168              		.cfi_offset 10, -12
 4169              		.cfi_offset 11, -8
 4170              		.cfi_offset 14, -4
 4171 0004 85B0     		sub	sp, sp, #20
 4172              		.cfi_def_cfa_offset 56
 4173              	.LVL340:
 401:../../libdaisy/src/hid/disp/display.h ****             return 0;
 4174              		.loc 6 401 20 view .LVU975
 4175 0006 A1F12004 		sub	r4, r1, #32
 396:../../libdaisy/src/hid/disp/display.h ****     {
 4176              		.loc 6 396 10 view .LVU976
 4177 000a 0091     		str	r1, [sp]
 4178 000c 04A9     		add	r1, sp, #16
 4179              	.LVL341:
 396:../../libdaisy/src/hid/disp/display.h ****     {
 4180              		.loc 6 396 10 view .LVU977
 4181 000e 9DF83880 		ldrb	r8, [sp, #56]	@ zero_extendqisi2
 4182 0012 01E90C00 		stmdb	r1, {r2, r3}
 4183              	.LVL342:
 401:../../libdaisy/src/hid/disp/display.h ****             return 0;
ARM GAS  /tmp/ccPAoVZi.s 			page 125


 4184              		.loc 6 401 9 view .LVU978
 4185 0016 E3B2     		uxtb	r3, r4
 4186 0018 5E2B     		cmp	r3, #94
 4187 001a 00F29480 		bhi	.L282
 405:../../libdaisy/src/hid/disp/display.h ****            || Height() < (currentY_ + font.FontHeight))
 4188              		.loc 6 405 17 view .LVU979
 4189 001e 0368     		ldr	r3, [r0]
 4190 0020 8146     		mov	r9, r0
 4191 0022 5C4A     		ldr	r2, .L318
 4192 0024 DB68     		ldr	r3, [r3, #12]
 4193 0026 9DF80860 		ldrb	r6, [sp, #8]	@ zero_extendqisi2
 4194 002a 9342     		cmp	r3, r2
 4195 002c 9DF80950 		ldrb	r5, [sp, #9]	@ zero_extendqisi2
 4196 0030 40F09380 		bne	.L309
 4197 0034 8020     		movs	r0, #128
 4198              	.LVL343:
 4199              	.L281:
 405:../../libdaisy/src/hid/disp/display.h ****            || Height() < (currentY_ + font.FontHeight))
 4200              		.loc 6 405 23 view .LVU980
 4201 0036 B9F80430 		ldrh	r3, [r9, #4]
 405:../../libdaisy/src/hid/disp/display.h ****            || Height() < (currentY_ + font.FontHeight))
 4202              		.loc 6 405 33 view .LVU981
 4203 003a 3344     		add	r3, r3, r6
 406:../../libdaisy/src/hid/disp/display.h ****         {
 4204              		.loc 6 406 12 view .LVU982
 4205 003c 8342     		cmp	r3, r0
 4206 003e 00F38280 		bgt	.L282
 406:../../libdaisy/src/hid/disp/display.h ****         {
 4207              		.loc 6 406 21 discriminator 2 view .LVU983
 4208 0042 D9F80030 		ldr	r3, [r9]
 4209 0046 544A     		ldr	r2, .L318+4
 4210 0048 9B68     		ldr	r3, [r3, #8]
 4211 004a 9342     		cmp	r3, r2
 4212 004c 40F08780 		bne	.L310
 406:../../libdaisy/src/hid/disp/display.h ****         {
 4213              		.loc 6 406 21 view .LVU984
 4214 0050 4020     		movs	r0, #64
 4215              	.L283:
 406:../../libdaisy/src/hid/disp/display.h ****         {
 4216              		.loc 6 406 27 discriminator 2 view .LVU985
 4217 0052 B9F80610 		ldrh	r1, [r9, #6]
 406:../../libdaisy/src/hid/disp/display.h ****         {
 4218              		.loc 6 406 37 discriminator 2 view .LVU986
 4219 0056 4B19     		adds	r3, r1, r5
 406:../../libdaisy/src/hid/disp/display.h ****         {
 4220              		.loc 6 406 27 discriminator 2 view .LVU987
 4221 0058 0191     		str	r1, [sp, #4]
 406:../../libdaisy/src/hid/disp/display.h ****         {
 4222              		.loc 6 406 12 discriminator 2 view .LVU988
 4223 005a 8342     		cmp	r3, r0
 4224 005c 73DC     		bgt	.L282
 4225              	.LVL344:
 413:../../libdaisy/src/hid/disp/display.h ****         {
 4226              		.loc 6 413 22 is_stmt 1 view .LVU989
 4227 005e 002D     		cmp	r5, #0
 4228 0060 00F08880 		beq	.L284
 415:../../libdaisy/src/hid/disp/display.h ****             for(j = 0; j < font.FontWidth; j++)
ARM GAS  /tmp/ccPAoVZi.s 			page 126


 4229              		.loc 6 415 37 is_stmt 0 view .LVU990
 4230 0064 05FB04F4 		mul	r4, r5, r4
 415:../../libdaisy/src/hid/disp/display.h ****             for(j = 0; j < font.FontWidth; j++)
 4231              		.loc 6 415 22 view .LVU991
 4232 0068 039A     		ldr	r2, [sp, #12]
 4233 006a 6FF00043 		mvn	r3, #-2147483648
 4234 006e B9F804A0 		ldrh	r10, [r9, #4]
 4235 0072 2544     		add	r5, r5, r4
 4236 0074 A2F1020B 		sub	fp, r2, #2
 4237 0078 2344     		add	r3, r3, r4
 4238 007a 0BEB450B 		add	fp, fp, r5, lsl #1
 4239 007e 0D46     		mov	r5, r1
 4240 0080 02EB430E 		add	lr, r2, r3, lsl #1
 4241              	.LVL345:
 4242              	.L287:
 415:../../libdaisy/src/hid/disp/display.h ****             for(j = 0; j < font.FontWidth; j++)
 4243              		.loc 6 415 13 view .LVU992
 4244 0084 3EF8024F 		ldrh	r4, [lr, #2]!
 4245              	.LVL346:
 416:../../libdaisy/src/hid/disp/display.h ****             {
 4246              		.loc 6 416 26 is_stmt 1 view .LVU993
 4247 0088 A6B3     		cbz	r6, .L292
 4248              	.LBB1363:
 4249              	.LBB1364:
 4250              	.LBB1365:
 4251              	.LBB1366:
 4252              	.LBB1367:
 246:../../libdaisy/src/dev/oled_ssd130x.h ****     }
 4253              		.loc 15 246 55 is_stmt 0 view .LVU994
 4254 008a 05F00703 		and	r3, r5, #7
 246:../../libdaisy/src/dev/oled_ssd130x.h ****     }
 4255              		.loc 15 246 49 view .LVU995
 4256 008e 0127     		movs	r7, #1
 246:../../libdaisy/src/dev/oled_ssd130x.h ****     }
 4257              		.loc 15 246 28 view .LVU996
 4258 0090 E808     		lsrs	r0, r5, #3
 246:../../libdaisy/src/dev/oled_ssd130x.h ****     }
 4259              		.loc 15 246 42 view .LVU997
 4260 0092 4146     		mov	r1, r8
 246:../../libdaisy/src/dev/oled_ssd130x.h ****     }
 4261              		.loc 15 246 49 view .LVU998
 4262 0094 9F40     		lsls	r7, r7, r3
 4263              	.LBE1367:
 4264              	.LBE1366:
 4265              	.LBE1365:
 4266              	.LBE1364:
 4267              	.LBE1363:
 416:../../libdaisy/src/hid/disp/display.h ****             {
 4268              		.loc 6 416 19 view .LVU999
 4269 0096 0022     		movs	r2, #0
 4270 0098 0AEBC013 		add	r3, r10, r0, lsl #7
 4271              	.LBB1385:
 4272              	.LBB1380:
 4273              	.LBB1375:
 4274              	.LBB1371:
 4275              	.LBB1368:
 246:../../libdaisy/src/dev/oled_ssd130x.h ****     }
ARM GAS  /tmp/ccPAoVZi.s 			page 127


 4276              		.loc 15 246 42 view .LVU1000
 4277 009c 7FB2     		sxtb	r7, r7
 4278 009e 4B44     		add	r3, r3, r9
 4279 00a0 09EBC010 		add	r0, r9, r0, lsl #7
 4280 00a4 6FEA070C 		mvn	ip, r7
 4281 00a8 B846     		mov	r8, r7
 4282 00aa 0F46     		mov	r7, r1
 4283 00ac 0CE0     		b	.L293
 4284              	.LVL347:
 4285              	.L312:
 246:../../libdaisy/src/dev/oled_ssd130x.h ****     }
 4286              		.loc 15 246 42 view .LVU1001
 4287              	.LBE1368:
 4288              	.LBE1371:
 4289              	.LBE1375:
 4290              	.LBE1380:
 4291              	.LBE1385:
 4292              	.LBB1386:
 4293              	.LBI1386:
  41:../../libdaisy/src/hid/disp/oled_display.h ****     {
 4294              		.loc 5 41 10 is_stmt 1 view .LVU1002
 4295              	.LBB1387:
 4296              	.LBI1387:
 239:../../libdaisy/src/dev/oled_ssd130x.h ****     {
 4297              		.loc 15 239 10 view .LVU1003
 4298              	.LBB1388:
 241:../../libdaisy/src/dev/oled_ssd130x.h ****             return;
 4299              		.loc 15 241 9 is_stmt 0 view .LVU1004
 4300 00ae 7F29     		cmp	r1, #127
 4301 00b0 06D8     		bhi	.L289
 4302 00b2 3F2D     		cmp	r5, #63
 4303 00b4 04D8     		bhi	.L289
 244:../../libdaisy/src/dev/oled_ssd130x.h ****         else
 4304              		.loc 15 244 42 view .LVU1005
 4305 00b6 197D     		ldrb	r1, [r3, #20]	@ zero_extendqisi2
 243:../../libdaisy/src/dev/oled_ssd130x.h ****             buffer_[x + (y / 8) * width] |= (1 << (y % 8));
 4306              		.loc 15 243 9 view .LVU1006
 4307 00b8 A7B1     		cbz	r7, .L291
 4308              	.L308:
 243:../../libdaisy/src/dev/oled_ssd130x.h ****             buffer_[x + (y / 8) * width] |= (1 << (y % 8));
 4309              		.loc 15 243 9 view .LVU1007
 4310              	.LBE1388:
 4311              	.LBE1387:
 4312              	.LBE1386:
 4313              	.LBB1391:
 4314              	.LBB1381:
 4315              	.LBB1376:
 244:../../libdaisy/src/dev/oled_ssd130x.h ****         else
 4316              		.loc 15 244 42 view .LVU1008
 4317 00ba 48EA0101 		orr	r1, r8, r1
 244:../../libdaisy/src/dev/oled_ssd130x.h ****         else
 4318              		.loc 15 244 13 view .LVU1009
 4319 00be 1975     		strb	r1, [r3, #20]
 4320              	.L289:
 4321              	.LBE1376:
 4322              	.LBE1381:
 4323              	.LBE1391:
ARM GAS  /tmp/ccPAoVZi.s 			page 128


 416:../../libdaisy/src/hid/disp/display.h ****             {
 4324              		.loc 6 416 13 is_stmt 1 discriminator 2 view .LVU1010
 4325 00c0 0132     		adds	r2, r2, #1
 4326              	.LVL348:
 416:../../libdaisy/src/hid/disp/display.h ****             {
 4327              		.loc 6 416 26 discriminator 2 view .LVU1011
 4328 00c2 0133     		adds	r3, r3, #1
 4329 00c4 9642     		cmp	r6, r2
 4330 00c6 14D0     		beq	.L311
 4331              	.LVL349:
 4332              	.L293:
 418:../../libdaisy/src/hid/disp/display.h ****                 {
 4333              		.loc 6 418 23 is_stmt 0 view .LVU1012
 4334 00c8 04FA02F1 		lsl	r1, r4, r2
 418:../../libdaisy/src/hid/disp/display.h ****                 {
 4335              		.loc 6 418 17 view .LVU1013
 4336 00cc 11F4004F 		tst	r1, #32768
 4337              	.LBB1392:
 4338              	.LBB1390:
 4339              	.LBB1389:
 241:../../libdaisy/src/dev/oled_ssd130x.h ****             return;
 4340              		.loc 15 241 14 view .LVU1014
 4341 00d0 A3EB0001 		sub	r1, r3, r0
 4342              	.LBE1389:
 4343              	.LBE1390:
 4344              	.LBE1392:
 418:../../libdaisy/src/hid/disp/display.h ****                 {
 4345              		.loc 6 418 17 view .LVU1015
 4346 00d4 EBD1     		bne	.L312
 4347              	.LVL350:
 4348              	.LBB1393:
 4349              	.LBI1363:
  41:../../libdaisy/src/hid/disp/oled_display.h ****     {
 4350              		.loc 5 41 10 is_stmt 1 view .LVU1016
 4351              	.LBB1382:
 4352              	.LBI1364:
 239:../../libdaisy/src/dev/oled_ssd130x.h ****     {
 4353              		.loc 15 239 10 view .LVU1017
 4354              	.LBB1377:
 241:../../libdaisy/src/dev/oled_ssd130x.h ****             return;
 4355              		.loc 15 241 9 is_stmt 0 view .LVU1018
 4356 00d6 7F29     		cmp	r1, #127
 4357 00d8 F2D8     		bhi	.L289
 4358 00da 3F2D     		cmp	r5, #63
 4359 00dc F0D8     		bhi	.L289
 244:../../libdaisy/src/dev/oled_ssd130x.h ****         else
 4360              		.loc 15 244 42 view .LVU1019
 4361 00de 197D     		ldrb	r1, [r3, #20]	@ zero_extendqisi2
 243:../../libdaisy/src/dev/oled_ssd130x.h ****             buffer_[x + (y / 8) * width] |= (1 << (y % 8));
 4362              		.loc 15 243 9 view .LVU1020
 4363 00e0 002F     		cmp	r7, #0
 4364 00e2 EAD0     		beq	.L308
 4365              	.L291:
 4366              	.LVL351:
 4367              	.LBB1372:
 4368              	.LBI1366:
 239:../../libdaisy/src/dev/oled_ssd130x.h ****     {
ARM GAS  /tmp/ccPAoVZi.s 			page 129


 4369              		.loc 15 239 10 is_stmt 1 view .LVU1021
 239:../../libdaisy/src/dev/oled_ssd130x.h ****     {
 4370              		.loc 15 239 10 is_stmt 0 view .LVU1022
 4371              	.LBE1372:
 4372              	.LBE1377:
 4373              	.LBE1382:
 4374              	.LBE1393:
 416:../../libdaisy/src/hid/disp/display.h ****             {
 4375              		.loc 6 416 13 view .LVU1023
 4376 00e4 0132     		adds	r2, r2, #1
 4377              	.LVL352:
 4378              	.LBB1394:
 4379              	.LBB1383:
 4380              	.LBB1378:
 4381              	.LBB1373:
 4382              	.LBB1369:
 246:../../libdaisy/src/dev/oled_ssd130x.h ****     }
 4383              		.loc 15 246 42 view .LVU1024
 4384 00e6 0CEA0101 		and	r1, ip, r1
 4385 00ea 0133     		adds	r3, r3, #1
 4386              	.LBE1369:
 4387              	.LBE1373:
 4388              	.LBE1378:
 4389              	.LBE1383:
 4390              	.LBE1394:
 416:../../libdaisy/src/hid/disp/display.h ****             {
 4391              		.loc 6 416 26 view .LVU1025
 4392 00ec 9642     		cmp	r6, r2
 4393              	.LBB1395:
 4394              	.LBB1384:
 4395              	.LBB1379:
 4396              	.LBB1374:
 4397              	.LBB1370:
 246:../../libdaisy/src/dev/oled_ssd130x.h ****     }
 4398              		.loc 15 246 13 view .LVU1026
 4399 00ee D974     		strb	r1, [r3, #19]
 246:../../libdaisy/src/dev/oled_ssd130x.h ****     }
 4400              		.loc 15 246 13 view .LVU1027
 4401              	.LBE1370:
 4402              	.LBE1374:
 4403              	.LBE1379:
 4404              	.LBE1384:
 4405              	.LBE1395:
 416:../../libdaisy/src/hid/disp/display.h ****             {
 4406              		.loc 6 416 13 is_stmt 1 view .LVU1028
 4407              	.LVL353:
 416:../../libdaisy/src/hid/disp/display.h ****             {
 4408              		.loc 6 416 26 view .LVU1029
 4409 00f0 EAD1     		bne	.L293
 4410              	.L311:
 416:../../libdaisy/src/hid/disp/display.h ****             {
 4411              		.loc 6 416 26 is_stmt 0 view .LVU1030
 4412 00f2 B846     		mov	r8, r7
 4413              	.LVL354:
 4414              	.L292:
 413:../../libdaisy/src/hid/disp/display.h ****         {
 4415              		.loc 6 413 9 is_stmt 1 view .LVU1031
ARM GAS  /tmp/ccPAoVZi.s 			page 130


 413:../../libdaisy/src/hid/disp/display.h ****         {
 4416              		.loc 6 413 22 view .LVU1032
 4417 00f4 F345     		cmp	fp, lr
 4418 00f6 05F10105 		add	r5, r5, #1
 4419 00fa C3D1     		bne	.L287
 4420              	.LVL355:
 4421              	.L286:
 4422              	.LBB1396:
 4423              	.LBB1397:
 173:../../libdaisy/src/hid/disp/display.h ****         currentY_ = (y >= Height()) ? Height() - 1 : y;
 4424              		.loc 6 173 33 is_stmt 0 view .LVU1033
 4425 00fc D9F80030 		ldr	r3, [r9]
 4426              	.LBE1397:
 4427              	.LBE1396:
 434:../../libdaisy/src/hid/disp/display.h **** 
 4428              		.loc 6 434 18 view .LVU1034
 4429 0100 0AEB0604 		add	r4, r10, r6
 4430 0104 2349     		ldr	r1, .L318
 4431              	.LBB1402:
 4432              	.LBB1398:
 173:../../libdaisy/src/hid/disp/display.h ****         currentY_ = (y >= Height()) ? Height() - 1 : y;
 4433              		.loc 6 173 33 view .LVU1035
 4434 0106 DA68     		ldr	r2, [r3, #12]
 4435              	.LBE1398:
 4436              	.LBE1402:
 434:../../libdaisy/src/hid/disp/display.h **** 
 4437              		.loc 6 434 18 view .LVU1036
 4438 0108 A4B2     		uxth	r4, r4
 4439              	.LVL356:
 4440              	.LBB1403:
 4441              	.LBI1396:
 171:../../libdaisy/src/hid/disp/display.h ****     {
 4442              		.loc 6 171 10 is_stmt 1 view .LVU1037
 4443              	.LBB1399:
 173:../../libdaisy/src/hid/disp/display.h ****         currentY_ = (y >= Height()) ? Height() - 1 : y;
 4444              		.loc 6 173 9 view .LVU1038
 4445 010a 8A42     		cmp	r2, r1
 4446 010c 2DD1     		bne	.L313
 173:../../libdaisy/src/hid/disp/display.h ****         currentY_ = (y >= Height()) ? Height() - 1 : y;
 4447              		.loc 6 173 33 is_stmt 0 view .LVU1039
 4448 010e 8020     		movs	r0, #128
 4449              	.L294:
 173:../../libdaisy/src/hid/disp/display.h ****         currentY_ = (y >= Height()) ? Height() - 1 : y;
 4450              		.loc 6 173 19 view .LVU1040
 4451 0110 8442     		cmp	r4, r0
 4452 0112 1CD2     		bcs	.L314
 4453              	.LVL357:
 4454              	.L295:
 174:../../libdaisy/src/hid/disp/display.h ****     }
 4455              		.loc 6 174 34 view .LVU1041
 4456 0114 9B68     		ldr	r3, [r3, #8]
 4457 0116 204A     		ldr	r2, .L318+4
 173:../../libdaisy/src/hid/disp/display.h ****         currentY_ = (y >= Height()) ? Height() - 1 : y;
 4458              		.loc 6 173 19 view .LVU1042
 4459 0118 A9F80440 		strh	r4, [r9, #4]	@ movhi
 174:../../libdaisy/src/hid/disp/display.h ****     }
 4460              		.loc 6 174 9 is_stmt 1 view .LVU1043
ARM GAS  /tmp/ccPAoVZi.s 			page 131


 4461 011c 9342     		cmp	r3, r2
 4462 011e 21D1     		bne	.L315
 174:../../libdaisy/src/hid/disp/display.h ****     }
 4463              		.loc 6 174 34 is_stmt 0 view .LVU1044
 4464 0120 4020     		movs	r0, #64
 4465              	.L297:
 174:../../libdaisy/src/hid/disp/display.h ****     }
 4466              		.loc 6 174 19 view .LVU1045
 4467 0122 019B     		ldr	r3, [sp, #4]
 4468 0124 8342     		cmp	r3, r0
 4469 0126 07D3     		bcc	.L298
 174:../../libdaisy/src/hid/disp/display.h ****     }
 4470              		.loc 6 174 46 view .LVU1046
 4471 0128 D9F80030 		ldr	r3, [r9]
 4472 012c 1A4A     		ldr	r2, .L318+4
 4473 012e 9B68     		ldr	r3, [r3, #8]
 4474 0130 9342     		cmp	r3, r2
 4475 0132 29D1     		bne	.L316
 4476 0134 3F23     		movs	r3, #63
 4477 0136 0193     		str	r3, [sp, #4]
 4478              	.LVL358:
 4479              	.L298:
 174:../../libdaisy/src/hid/disp/display.h ****     }
 4480              		.loc 6 174 19 view .LVU1047
 4481 0138 DDE90003 		ldrd	r0, r3, [sp]
 4482 013c A9F80630 		strh	r3, [r9, #6]	@ movhi
 4483              	.LVL359:
 174:../../libdaisy/src/hid/disp/display.h ****     }
 4484              		.loc 6 174 19 view .LVU1048
 4485              	.LBE1399:
 4486              	.LBE1403:
 438:../../libdaisy/src/hid/disp/display.h **** 
 4487              		.loc 6 438 5 view .LVU1049
 4488 0140 05B0     		add	sp, sp, #20
 4489              		.cfi_remember_state
 4490              		.cfi_def_cfa_offset 36
 4491              		@ sp needed
 4492 0142 BDE8F08F 		pop	{r4, r5, r6, r7, r8, r9, r10, fp, pc}
 4493              	.LVL360:
 4494              	.L282:
 4495              		.cfi_restore_state
 402:../../libdaisy/src/hid/disp/display.h **** 
 4496              		.loc 6 402 20 view .LVU1050
 4497 0146 0020     		movs	r0, #0
 438:../../libdaisy/src/hid/disp/display.h **** 
 4498              		.loc 6 438 5 view .LVU1051
 4499 0148 05B0     		add	sp, sp, #20
 4500              		.cfi_remember_state
 4501              		.cfi_def_cfa_offset 36
 4502              		@ sp needed
 4503 014a BDE8F08F 		pop	{r4, r5, r6, r7, r8, r9, r10, fp, pc}
 4504              	.LVL361:
 4505              	.L314:
 4506              		.cfi_restore_state
 4507              	.LBB1404:
 4508              	.LBB1400:
 173:../../libdaisy/src/hid/disp/display.h ****         currentY_ = (y >= Height()) ? Height() - 1 : y;
ARM GAS  /tmp/ccPAoVZi.s 			page 132


 4509              		.loc 6 173 44 view .LVU1052
 4510 014e DA68     		ldr	r2, [r3, #12]
 4511 0150 1049     		ldr	r1, .L318
 4512 0152 8A42     		cmp	r2, r1
 4513 0154 11D1     		bne	.L317
 4514 0156 7F24     		movs	r4, #127
 4515              	.LVL362:
 173:../../libdaisy/src/hid/disp/display.h ****         currentY_ = (y >= Height()) ? Height() - 1 : y;
 4516              		.loc 6 173 44 view .LVU1053
 4517 0158 DCE7     		b	.L295
 4518              	.LVL363:
 4519              	.L309:
 173:../../libdaisy/src/hid/disp/display.h ****         currentY_ = (y >= Height()) ? Height() - 1 : y;
 4520              		.loc 6 173 44 view .LVU1054
 4521              	.LBE1400:
 4522              	.LBE1404:
 405:../../libdaisy/src/hid/disp/display.h ****            || Height() < (currentY_ + font.FontHeight))
 4523              		.loc 6 405 17 view .LVU1055
 4524 015a 9847     		blx	r3
 4525              	.LVL364:
 405:../../libdaisy/src/hid/disp/display.h ****            || Height() < (currentY_ + font.FontHeight))
 4526              		.loc 6 405 17 view .LVU1056
 4527 015c 6BE7     		b	.L281
 4528              	.L310:
 406:../../libdaisy/src/hid/disp/display.h ****         {
 4529              		.loc 6 406 21 discriminator 2 view .LVU1057
 4530 015e 4846     		mov	r0, r9
 4531 0160 9847     		blx	r3
 4532              	.LVL365:
 4533 0162 76E7     		b	.L283
 4534              	.LVL366:
 4535              	.L315:
 4536              	.LBB1405:
 4537              	.LBB1401:
 174:../../libdaisy/src/hid/disp/display.h ****     }
 4538              		.loc 6 174 33 view .LVU1058
 4539 0164 4846     		mov	r0, r9
 4540 0166 9847     		blx	r3
 4541              	.LVL367:
 4542 0168 DBE7     		b	.L297
 4543              	.LVL368:
 4544              	.L313:
 173:../../libdaisy/src/hid/disp/display.h ****         currentY_ = (y >= Height()) ? Height() - 1 : y;
 4545              		.loc 6 173 32 view .LVU1059
 4546 016a 4846     		mov	r0, r9
 4547 016c 9047     		blx	r2
 4548              	.LVL369:
 4549 016e D9F80030 		ldr	r3, [r9]
 4550 0172 CDE7     		b	.L294
 4551              	.LVL370:
 4552              	.L284:
 173:../../libdaisy/src/hid/disp/display.h ****         currentY_ = (y >= Height()) ? Height() - 1 : y;
 4553              		.loc 6 173 32 view .LVU1060
 4554 0174 B9F804A0 		ldrh	r10, [r9, #4]
 4555 0178 C0E7     		b	.L286
 4556              	.LVL371:
 4557              	.L317:
ARM GAS  /tmp/ccPAoVZi.s 			page 133


 173:../../libdaisy/src/hid/disp/display.h ****         currentY_ = (y >= Height()) ? Height() - 1 : y;
 4558              		.loc 6 173 43 view .LVU1061
 4559 017a 4846     		mov	r0, r9
 4560 017c 9047     		blx	r2
 4561              	.LVL372:
 4562 017e 0138     		subs	r0, r0, #1
 4563 0180 D9F80030 		ldr	r3, [r9]
 4564 0184 84B2     		uxth	r4, r0
 4565              	.LVL373:
 173:../../libdaisy/src/hid/disp/display.h ****         currentY_ = (y >= Height()) ? Height() - 1 : y;
 4566              		.loc 6 173 43 view .LVU1062
 4567 0186 C5E7     		b	.L295
 4568              	.L316:
 174:../../libdaisy/src/hid/disp/display.h ****     }
 4569              		.loc 6 174 45 view .LVU1063
 4570 0188 4846     		mov	r0, r9
 4571 018a 9847     		blx	r3
 4572              	.LVL374:
 4573 018c 0138     		subs	r0, r0, #1
 4574 018e 83B2     		uxth	r3, r0
 4575 0190 0193     		str	r3, [sp, #4]
 4576              	.LVL375:
 174:../../libdaisy/src/hid/disp/display.h ****     }
 4577              		.loc 6 174 45 view .LVU1064
 4578 0192 D1E7     		b	.L298
 4579              	.L319:
 4580              		.align	2
 4581              	.L318:
 4582 0194 00000000 		.word	_ZNK5daisy11OledDisplayINS_13SSD130xDriverILj128ELj64ENS_24SSD130x4WireSpiTransportEEEE5Widt
 4583 0198 00000000 		.word	_ZNK5daisy11OledDisplayINS_13SSD130xDriverILj128ELj64ENS_24SSD130x4WireSpiTransportEEEE6Heig
 4584              	.LBE1401:
 4585              	.LBE1405:
 4586              		.cfi_endproc
 4587              	.LFE4681:
 4589              		.section	.text._ZN5daisy25OneBitGraphicsDisplayImplINS_11OledDisplayINS_13SSD130xDriverILj128ELj64
 4590              		.align	1
 4591              		.p2align 2,,3
 4592              		.weak	_ZN5daisy25OneBitGraphicsDisplayImplINS_11OledDisplayINS_13SSD130xDriverILj128ELj64ENS_24SSD
 4593              		.syntax unified
 4594              		.thumb
 4595              		.thumb_func
 4596              		.fpu fpv5-d16
 4598              	_ZN5daisy25OneBitGraphicsDisplayImplINS_11OledDisplayINS_13SSD130xDriverILj128ELj64ENS_24SSD130x4Wi
 4599              	.LVL376:
 4600              	.LFB4826:
 257:../../libdaisy/src/hid/disp/display.h ****                   uint_fast8_t y1,
 4601              		.loc 6 257 10 is_stmt 1 view -0
 4602              		.cfi_startproc
 4603              		@ args = 12, pretend = 0, frame = 24
 4604              		@ frame_needed = 0, uses_anonymous_args = 0
 257:../../libdaisy/src/hid/disp/display.h ****                   uint_fast8_t y1,
 4605              		.loc 6 257 10 is_stmt 0 view .LVU1066
 4606 0000 2DE9F04F 		push	{r4, r5, r6, r7, r8, r9, r10, fp, lr}
 4607              		.cfi_def_cfa_offset 36
 4608              		.cfi_offset 4, -36
 4609              		.cfi_offset 5, -32
 4610              		.cfi_offset 6, -28
ARM GAS  /tmp/ccPAoVZi.s 			page 134


 4611              		.cfi_offset 7, -24
 4612              		.cfi_offset 8, -20
 4613              		.cfi_offset 9, -16
 4614              		.cfi_offset 10, -12
 4615              		.cfi_offset 11, -8
 4616              		.cfi_offset 14, -4
 4617 0004 87B0     		sub	sp, sp, #28
 4618              		.cfi_def_cfa_offset 64
 257:../../libdaisy/src/hid/disp/display.h ****                   uint_fast8_t y1,
 4619              		.loc 6 257 10 view .LVU1067
 4620 0006 9DF84860 		ldrb	r6, [sp, #72]	@ zero_extendqisi2
 4621 000a 109C     		ldr	r4, [sp, #64]
 4622 000c 9DF84450 		ldrb	r5, [sp, #68]	@ zero_extendqisi2
 4623 0010 0196     		str	r6, [sp, #4]
 4624              	.LBB1478:
 264:../../libdaisy/src/hid/disp/display.h ****         {
 4625              		.loc 6 264 9 view .LVU1068
 4626 0012 9EB3     		cbz	r6, .L321
 4627              	.LVL377:
 4628              	.LBB1479:
 266:../../libdaisy/src/hid/disp/display.h ****             {
 4629              		.loc 6 266 40 is_stmt 1 view .LVU1069
 4630 0014 9942     		cmp	r1, r3
 4631 0016 2ED8     		bhi	.L320
 4632 0018 9A46     		mov	r10, r3
 4633              	.LVL378:
 4634              	.L324:
 4635              	.LBB1480:
 268:../../libdaisy/src/hid/disp/display.h ****                 {
 4636              		.loc 6 268 44 view .LVU1070
 4637 001a A242     		cmp	r2, r4
 4638 001c 28D8     		bhi	.L327
 268:../../libdaisy/src/hid/disp/display.h ****                 {
 4639              		.loc 6 268 44 is_stmt 0 view .LVU1071
 4640 001e 7F29     		cmp	r1, #127
 4641 0020 1646     		mov	r6, r2
 4642 0022 94BF     		ite	ls
 4643 0024 0023     		movls	r3, #0
 4644 0026 0123     		movhi	r3, #1
 4645 0028 08E0     		b	.L328
 4646              	.LVL379:
 4647              	.L410:
 4648              	.LBB1481:
 4649              	.LBB1482:
 4650              	.LBB1483:
 244:../../libdaisy/src/dev/oled_ssd130x.h ****         else
 4651              		.loc 15 244 42 view .LVU1072
 4652 002a 9CF81490 		ldrb	r9, [ip, #20]	@ zero_extendqisi2
 4653 002e 4EEA090E 		orr	lr, lr, r9
 244:../../libdaisy/src/dev/oled_ssd130x.h ****         else
 4654              		.loc 15 244 13 view .LVU1073
 4655 0032 8CF814E0 		strb	lr, [ip, #20]
 4656              	.LVL380:
 4657              	.L325:
 244:../../libdaisy/src/dev/oled_ssd130x.h ****         else
 4658              		.loc 15 244 13 view .LVU1074
 4659              	.LBE1483:
ARM GAS  /tmp/ccPAoVZi.s 			page 135


 4660              	.LBE1482:
 4661              	.LBE1481:
 268:../../libdaisy/src/hid/disp/display.h ****                 {
 4662              		.loc 6 268 17 is_stmt 1 view .LVU1075
 4663 0036 0136     		adds	r6, r6, #1
 4664              	.LVL381:
 268:../../libdaisy/src/hid/disp/display.h ****                 {
 4665              		.loc 6 268 44 view .LVU1076
 4666 0038 B442     		cmp	r4, r6
 4667 003a 19D3     		bcc	.L327
 4668              	.L328:
 4669              	.LVL382:
 4670              	.LBB1497:
 4671              	.LBI1481:
  41:../../libdaisy/src/hid/disp/oled_display.h ****     {
 4672              		.loc 5 41 10 view .LVU1077
 4673              	.LBB1494:
 4674              	.LBI1482:
 239:../../libdaisy/src/dev/oled_ssd130x.h ****     {
 4675              		.loc 15 239 10 view .LVU1078
 4676              	.LBB1491:
 241:../../libdaisy/src/dev/oled_ssd130x.h ****             return;
 4677              		.loc 15 241 9 is_stmt 0 view .LVU1079
 4678 003c 3F2E     		cmp	r6, #63
 4679 003e FAD8     		bhi	.L325
 241:../../libdaisy/src/dev/oled_ssd130x.h ****             return;
 4680              		.loc 15 241 9 view .LVU1080
 4681 0040 002B     		cmp	r3, #0
 4682 0042 F8D1     		bne	.L325
 4683              	.LVL383:
 4684              	.LBB1484:
 4685              	.LBI1484:
 239:../../libdaisy/src/dev/oled_ssd130x.h ****     {
 4686              		.loc 15 239 10 is_stmt 1 view .LVU1081
 239:../../libdaisy/src/dev/oled_ssd130x.h ****     {
 4687              		.loc 15 239 10 is_stmt 0 view .LVU1082
 4688              	.LBE1484:
 244:../../libdaisy/src/dev/oled_ssd130x.h ****         else
 4689              		.loc 15 244 28 view .LVU1083
 4690 0044 4FEAD60C 		lsr	ip, r6, #3
 244:../../libdaisy/src/dev/oled_ssd130x.h ****         else
 4691              		.loc 15 244 54 view .LVU1084
 4692 0048 06F0070E 		and	lr, r6, #7
 244:../../libdaisy/src/dev/oled_ssd130x.h ****         else
 4693              		.loc 15 244 48 view .LVU1085
 4694 004c 4FF00109 		mov	r9, #1
 244:../../libdaisy/src/dev/oled_ssd130x.h ****         else
 4695              		.loc 15 244 42 view .LVU1086
 4696 0050 01EBCC1C 		add	ip, r1, ip, lsl #7
 244:../../libdaisy/src/dev/oled_ssd130x.h ****         else
 4697              		.loc 15 244 48 view .LVU1087
 4698 0054 09FA0EFE 		lsl	lr, r9, lr
 244:../../libdaisy/src/dev/oled_ssd130x.h ****         else
 4699              		.loc 15 244 13 view .LVU1088
 4700 0058 8444     		add	ip, ip, r0
 243:../../libdaisy/src/dev/oled_ssd130x.h ****             buffer_[x + (y / 8) * width] |= (1 << (y % 8));
 4701              		.loc 15 243 9 view .LVU1089
ARM GAS  /tmp/ccPAoVZi.s 			page 136


 4702 005a 002D     		cmp	r5, #0
 4703 005c E5D1     		bne	.L410
 4704              	.LBB1488:
 4705              	.LBB1485:
 246:../../libdaisy/src/dev/oled_ssd130x.h ****     }
 4706              		.loc 15 246 42 view .LVU1090
 4707 005e 9CF814B0 		ldrb	fp, [ip, #20]	@ zero_extendqisi2
 4708              	.LBE1485:
 4709              	.LBE1488:
 4710              	.LBE1491:
 4711              	.LBE1494:
 4712              	.LBE1497:
 268:../../libdaisy/src/hid/disp/display.h ****                 {
 4713              		.loc 6 268 17 view .LVU1091
 4714 0062 0136     		adds	r6, r6, #1
 4715              	.LVL384:
 4716              	.LBB1498:
 4717              	.LBB1495:
 4718              	.LBB1492:
 4719              	.LBB1489:
 4720              	.LBB1486:
 246:../../libdaisy/src/dev/oled_ssd130x.h ****     }
 4721              		.loc 15 246 42 view .LVU1092
 4722 0064 2BEA0E08 		bic	r8, fp, lr
 4723              	.LBE1486:
 4724              	.LBE1489:
 4725              	.LBE1492:
 4726              	.LBE1495:
 4727              	.LBE1498:
 268:../../libdaisy/src/hid/disp/display.h ****                 {
 4728              		.loc 6 268 44 view .LVU1093
 4729 0068 B442     		cmp	r4, r6
 4730              	.LBB1499:
 4731              	.LBB1496:
 4732              	.LBB1493:
 4733              	.LBB1490:
 4734              	.LBB1487:
 246:../../libdaisy/src/dev/oled_ssd130x.h ****     }
 4735              		.loc 15 246 13 view .LVU1094
 4736 006a 8CF81480 		strb	r8, [ip, #20]
 4737              	.LVL385:
 246:../../libdaisy/src/dev/oled_ssd130x.h ****     }
 4738              		.loc 15 246 13 view .LVU1095
 4739              	.LBE1487:
 4740              	.LBE1490:
 4741              	.LBE1493:
 4742              	.LBE1496:
 4743              	.LBE1499:
 268:../../libdaisy/src/hid/disp/display.h ****                 {
 4744              		.loc 6 268 17 is_stmt 1 view .LVU1096
 268:../../libdaisy/src/hid/disp/display.h ****                 {
 4745              		.loc 6 268 44 view .LVU1097
 4746 006e E5D2     		bcs	.L328
 4747              	.LVL386:
 4748              	.L327:
 268:../../libdaisy/src/hid/disp/display.h ****                 {
 4749              		.loc 6 268 44 is_stmt 0 view .LVU1098
ARM GAS  /tmp/ccPAoVZi.s 			page 137


 4750              	.LBE1480:
 266:../../libdaisy/src/hid/disp/display.h ****             {
 4751              		.loc 6 266 13 is_stmt 1 view .LVU1099
 4752 0070 0131     		adds	r1, r1, #1
 4753              	.LVL387:
 266:../../libdaisy/src/hid/disp/display.h ****             {
 4754              		.loc 6 266 40 view .LVU1100
 4755 0072 8A45     		cmp	r10, r1
 4756 0074 D1D2     		bcs	.L324
 4757              	.LVL388:
 4758              	.L320:
 266:../../libdaisy/src/hid/disp/display.h ****             {
 4759              		.loc 6 266 40 is_stmt 0 view .LVU1101
 4760              	.LBE1479:
 4761              	.LBE1478:
 281:../../libdaisy/src/hid/disp/display.h **** 
 4762              		.loc 6 281 5 view .LVU1102
 4763 0076 07B0     		add	sp, sp, #28
 4764              		.cfi_remember_state
 4765              		.cfi_def_cfa_offset 36
 4766              		@ sp needed
 4767 0078 BDE8F08F 		pop	{r4, r5, r6, r7, r8, r9, r10, fp, pc}
 4768              	.LVL389:
 4769              	.L321:
 4770              		.cfi_restore_state
 4771              	.LBB1500:
 4772              	.LBI1500:
 257:../../libdaisy/src/hid/disp/display.h ****                   uint_fast8_t y1,
 4773              		.loc 6 257 10 is_stmt 1 view .LVU1103
 4774              	.LBB1501:
 4775              	.LBI1501:
 221:../../libdaisy/src/hid/disp/display.h ****                   uint_fast8_t y1,
 4776              		.loc 6 221 10 view .LVU1104
 4777              	.LBB1502:
 227:../../libdaisy/src/hid/disp/display.h ****         int_fast16_t deltaY = abs((int_fast16_t)y2 - (int_fast16_t)y1);
 4778              		.loc 6 227 52 is_stmt 0 view .LVU1105
 4779 007c A3EB0108 		sub	r8, r3, r1
 227:../../libdaisy/src/hid/disp/display.h ****         int_fast16_t deltaY = abs((int_fast16_t)y2 - (int_fast16_t)y1);
 4780              		.loc 6 227 22 view .LVU1106
 4781 0080 B8F1000F 		cmp	r8, #0
 4782 0084 B8BF     		it	lt
 4783 0086 C8F10008 		rsblt	r8, r8, #0
 4784              	.LVL390:
 229:../../libdaisy/src/hid/disp/display.h ****         int_fast16_t signY  = ((y1 < y2) ? 1 : -1);
 4785              		.loc 6 229 22 view .LVU1107
 4786 008a 9942     		cmp	r1, r3
 4787 008c 80F05481 		bcs	.L411
 4788              	.LVL391:
 4789              	.LBB1503:
 4790              	.LBI1503:
  41:../../libdaisy/src/hid/disp/oled_display.h ****     {
 4791              		.loc 5 41 10 is_stmt 1 view .LVU1108
 4792              	.LBB1504:
 4793              	.LBI1504:
 239:../../libdaisy/src/dev/oled_ssd130x.h ****     {
 4794              		.loc 15 239 10 view .LVU1109
 4795              	.LBB1505:
ARM GAS  /tmp/ccPAoVZi.s 			page 138


 241:../../libdaisy/src/dev/oled_ssd130x.h ****             return;
 4796              		.loc 15 241 28 is_stmt 0 view .LVU1110
 4797 0090 3F2A     		cmp	r2, #63
 4798              	.LBE1505:
 4799              	.LBE1504:
 4800              	.LBE1503:
 229:../../libdaisy/src/hid/disp/display.h ****         int_fast16_t signY  = ((y1 < y2) ? 1 : -1);
 4801              		.loc 6 229 22 view .LVU1111
 4802 0092 4FF00109 		mov	r9, #1
 4803              	.LBB1514:
 4804              	.LBB1511:
 4805              	.LBB1508:
 241:../../libdaisy/src/dev/oled_ssd130x.h ****             return;
 4806              		.loc 15 241 28 view .LVU1112
 4807 0096 94BF     		ite	ls
 4808 0098 0026     		movls	r6, #0
 4809 009a 0126     		movhi	r6, #1
 241:../../libdaisy/src/dev/oled_ssd130x.h ****             return;
 4810              		.loc 15 241 14 view .LVU1113
 4811 009c 7F2B     		cmp	r3, #127
 241:../../libdaisy/src/dev/oled_ssd130x.h ****             return;
 4812              		.loc 15 241 28 view .LVU1114
 4813 009e 0296     		str	r6, [sp, #8]
 241:../../libdaisy/src/dev/oled_ssd130x.h ****             return;
 4814              		.loc 15 241 14 view .LVU1115
 4815 00a0 94BF     		ite	ls
 4816 00a2 0027     		movls	r7, #0
 4817 00a4 0127     		movhi	r7, #1
 4818 00a6 0097     		str	r7, [sp]
 241:../../libdaisy/src/dev/oled_ssd130x.h ****             return;
 4819              		.loc 15 241 9 view .LVU1116
 4820 00a8 DEB9     		cbnz	r6, .L333
 4821 00aa D7B9     		cbnz	r7, .L333
 243:../../libdaisy/src/dev/oled_ssd130x.h ****             buffer_[x + (y / 8) * width] |= (1 << (y % 8));
 4822              		.loc 15 243 9 view .LVU1117
 4823 00ac 002D     		cmp	r5, #0
 4824 00ae 00F05881 		beq	.L331
 4825              	.LVL392:
 4826              	.L414:
 243:../../libdaisy/src/dev/oled_ssd130x.h ****             buffer_[x + (y / 8) * width] |= (1 << (y % 8));
 4827              		.loc 15 243 9 view .LVU1118
 4828 00b2 0026     		movs	r6, #0
 244:../../libdaisy/src/dev/oled_ssd130x.h ****         else
 4829              		.loc 15 244 28 view .LVU1119
 4830 00b4 4FEAD20E 		lsr	lr, r2, #3
 244:../../libdaisy/src/dev/oled_ssd130x.h ****         else
 4831              		.loc 15 244 48 view .LVU1120
 4832 00b8 4FF0010C 		mov	ip, #1
 244:../../libdaisy/src/dev/oled_ssd130x.h ****         else
 4833              		.loc 15 244 54 view .LVU1121
 4834 00bc 02F00707 		and	r7, r2, #7
 244:../../libdaisy/src/dev/oled_ssd130x.h ****         else
 4835              		.loc 15 244 42 view .LVU1122
 4836 00c0 03EBCE1E 		add	lr, r3, lr, lsl #7
 4837 00c4 0296     		str	r6, [sp, #8]
 4838 00c6 0026     		movs	r6, #0
 244:../../libdaisy/src/dev/oled_ssd130x.h ****         else
ARM GAS  /tmp/ccPAoVZi.s 			page 139


 4839              		.loc 15 244 48 view .LVU1123
 4840 00c8 0CFA07F7 		lsl	r7, ip, r7
 4841 00cc 0096     		str	r6, [sp]
 244:../../libdaisy/src/dev/oled_ssd130x.h ****         else
 4842              		.loc 15 244 13 view .LVU1124
 4843 00ce 0EEB0006 		add	r6, lr, r0
 244:../../libdaisy/src/dev/oled_ssd130x.h ****         else
 4844              		.loc 15 244 42 view .LVU1125
 4845 00d2 96F814C0 		ldrb	ip, [r6, #20]	@ zero_extendqisi2
 4846 00d6 47EA0C07 		orr	r7, r7, ip
 244:../../libdaisy/src/dev/oled_ssd130x.h ****         else
 4847              		.loc 15 244 13 view .LVU1126
 4848 00da 3775     		strb	r7, [r6, #20]
 4849              	.L330:
 4850              	.LVL393:
 244:../../libdaisy/src/dev/oled_ssd130x.h ****         else
 4851              		.loc 15 244 13 view .LVU1127
 4852              	.LBE1508:
 4853              	.LBE1511:
 4854              	.LBE1514:
 239:../../libdaisy/src/hid/disp/display.h ****         {
 4855              		.loc 6 239 26 is_stmt 1 view .LVU1128
 4856 00dc 9942     		cmp	r1, r3
 4857 00de 00F09781 		beq	.L412
 4858              	.L333:
 4859              	.LVL394:
 227:../../libdaisy/src/hid/disp/display.h ****         int_fast16_t deltaY = abs((int_fast16_t)y2 - (int_fast16_t)y1);
 4860              		.loc 6 227 22 is_stmt 0 view .LVU1129
 4861 00e2 C446     		mov	ip, r8
 4862 00e4 1646     		mov	r6, r2
 4863 00e6 0F46     		mov	r7, r1
 4864              	.L335:
 4865              	.LVL395:
 4866              	.LBB1515:
 4867              	.LBI1515:
  41:../../libdaisy/src/hid/disp/oled_display.h ****     {
 4868              		.loc 5 41 10 is_stmt 1 view .LVU1130
 4869              	.LBB1516:
 4870              	.LBI1516:
 239:../../libdaisy/src/dev/oled_ssd130x.h ****     {
 4871              		.loc 15 239 10 view .LVU1131
 4872              	.LBB1517:
 241:../../libdaisy/src/dev/oled_ssd130x.h ****             return;
 4873              		.loc 15 241 9 is_stmt 0 view .LVU1132
 4874 00e8 7F2F     		cmp	r7, #127
 4875 00ea 15D8     		bhi	.L336
 4876 00ec 3F2E     		cmp	r6, #63
 4877 00ee 13D8     		bhi	.L336
 244:../../libdaisy/src/dev/oled_ssd130x.h ****         else
 4878              		.loc 15 244 28 view .LVU1133
 4879 00f0 4FEAD60E 		lsr	lr, r6, #3
 244:../../libdaisy/src/dev/oled_ssd130x.h ****         else
 4880              		.loc 15 244 48 view .LVU1134
 4881 00f4 4FF0010B 		mov	fp, #1
 244:../../libdaisy/src/dev/oled_ssd130x.h ****         else
 4882              		.loc 15 244 54 view .LVU1135
 4883 00f8 06F0070A 		and	r10, r6, #7
ARM GAS  /tmp/ccPAoVZi.s 			page 140


 244:../../libdaisy/src/dev/oled_ssd130x.h ****         else
 4884              		.loc 15 244 42 view .LVU1136
 4885 00fc 07EBCE1E 		add	lr, r7, lr, lsl #7
 244:../../libdaisy/src/dev/oled_ssd130x.h ****         else
 4886              		.loc 15 244 48 view .LVU1137
 4887 0100 0BFA0AFA 		lsl	r10, fp, r10
 244:../../libdaisy/src/dev/oled_ssd130x.h ****         else
 4888              		.loc 15 244 13 view .LVU1138
 4889 0104 8644     		add	lr, lr, r0
 244:../../libdaisy/src/dev/oled_ssd130x.h ****         else
 4890              		.loc 15 244 42 view .LVU1139
 4891 0106 9EF814B0 		ldrb	fp, [lr, #20]	@ zero_extendqisi2
 243:../../libdaisy/src/dev/oled_ssd130x.h ****             buffer_[x + (y / 8) * width] |= (1 << (y % 8));
 4892              		.loc 15 243 9 view .LVU1140
 4893 010a 002D     		cmp	r5, #0
 4894 010c 00F04581 		beq	.L337
 244:../../libdaisy/src/dev/oled_ssd130x.h ****         else
 4895              		.loc 15 244 42 view .LVU1141
 4896 0110 4AEA0B0A 		orr	r10, r10, fp
 244:../../libdaisy/src/dev/oled_ssd130x.h ****         else
 4897              		.loc 15 244 13 view .LVU1142
 4898 0114 8EF814A0 		strb	r10, [lr, #20]
 4899              	.L336:
 4900              	.LVL396:
 244:../../libdaisy/src/dev/oled_ssd130x.h ****         else
 4901              		.loc 15 244 13 view .LVU1143
 4902              	.LBE1517:
 4903              	.LBE1516:
 4904              	.LBE1515:
 243:../../libdaisy/src/hid/disp/display.h ****             {
 4905              		.loc 6 243 13 view .LVU1144
 4906 0118 5FEA4C0E 		lsls	lr, ip, #1
 4907              	.LVL397:
 246:../../libdaisy/src/hid/disp/display.h ****             }
 4908              		.loc 6 246 17 view .LVU1145
 4909 011c 18BF     		it	ne
 4910 011e 4F44     		addne	r7, r7, r9
 4911              	.LVL398:
 249:../../libdaisy/src/hid/disp/display.h ****             {
 4912              		.loc 6 249 13 view .LVU1146
 4913 0120 F045     		cmp	r8, lr
 4914 0122 01DD     		ble	.L339
 251:../../libdaisy/src/hid/disp/display.h ****                 y1 += signY;
 4915              		.loc 6 251 17 view .LVU1147
 4916 0124 C444     		add	ip, ip, r8
 4917              	.LVL399:
 252:../../libdaisy/src/hid/disp/display.h ****             }
 4918              		.loc 6 252 17 view .LVU1148
 4919 0126 013E     		subs	r6, r6, #1
 4920              	.LVL400:
 4921              	.L339:
 239:../../libdaisy/src/hid/disp/display.h ****         {
 4922              		.loc 6 239 26 is_stmt 1 view .LVU1149
 4923 0128 BB42     		cmp	r3, r7
 4924 012a DDD1     		bne	.L335
 239:../../libdaisy/src/hid/disp/display.h ****         {
 4925              		.loc 6 239 26 is_stmt 0 view .LVU1150
ARM GAS  /tmp/ccPAoVZi.s 			page 141


 4926 012c B242     		cmp	r2, r6
 4927 012e DBD1     		bne	.L335
 4928 0130 0026     		movs	r6, #0
 4929              	.LVL401:
 239:../../libdaisy/src/hid/disp/display.h ****         {
 4930              		.loc 6 239 26 view .LVU1151
 4931 0132 0496     		str	r6, [sp, #16]
 4932              	.LVL402:
 4933              	.L332:
 239:../../libdaisy/src/hid/disp/display.h ****         {
 4934              		.loc 6 239 26 view .LVU1152
 4935              	.LBE1502:
 4936              	.LBE1501:
 4937              	.LBB1528:
 4938              	.LBI1528:
 221:../../libdaisy/src/hid/disp/display.h ****                   uint_fast8_t y1,
 4939              		.loc 6 221 10 is_stmt 1 view .LVU1153
 4940              	.LBB1529:
 228:../../libdaisy/src/hid/disp/display.h ****         int_fast16_t signX  = ((x1 < x2) ? 1 : -1);
 4941              		.loc 6 228 52 is_stmt 0 view .LVU1154
 4942 0134 A4EB0209 		sub	r9, r4, r2
 228:../../libdaisy/src/hid/disp/display.h ****         int_fast16_t signX  = ((x1 < x2) ? 1 : -1);
 4943              		.loc 6 228 22 view .LVU1155
 4944 0138 B9F1000F 		cmp	r9, #0
 4945 013c B8BF     		it	lt
 4946 013e C9F10009 		rsblt	r9, r9, #0
 4947              	.LVL403:
 4948              	.LBB1530:
 4949              	.LBB1531:
 4950              	.LBB1532:
 241:../../libdaisy/src/dev/oled_ssd130x.h ****             return;
 4951              		.loc 15 241 28 view .LVU1156
 4952 0142 3F2C     		cmp	r4, #63
 4953 0144 94BF     		ite	ls
 4954 0146 0026     		movls	r6, #0
 4955 0148 0126     		movhi	r6, #1
 4956              	.LBE1532:
 4957              	.LBE1531:
 4958              	.LBE1530:
 230:../../libdaisy/src/hid/disp/display.h ****         int_fast16_t error  = deltaX - deltaY;
 4959              		.loc 6 230 22 view .LVU1157
 4960 014a A242     		cmp	r2, r4
 231:../../libdaisy/src/hid/disp/display.h ****         int_fast16_t error2;
 4961              		.loc 6 231 22 view .LVU1158
 4962 014c C9F10008 		rsb	r8, r9, #0
 4963              	.LBB1545:
 4964              	.LBB1540:
 4965              	.LBB1535:
 241:../../libdaisy/src/dev/oled_ssd130x.h ****             return;
 4966              		.loc 15 241 28 view .LVU1159
 4967 0150 0396     		str	r6, [sp, #12]
 4968              	.LBE1535:
 4969              	.LBE1540:
 4970              	.LBE1545:
 230:../../libdaisy/src/hid/disp/display.h ****         int_fast16_t error  = deltaX - deltaY;
 4971              		.loc 6 230 22 view .LVU1160
 4972 0152 C0F03181 		bcc	.L340
ARM GAS  /tmp/ccPAoVZi.s 			page 142


 4973              	.LVL404:
 4974              	.LBB1546:
 4975              	.LBI1530:
  41:../../libdaisy/src/hid/disp/oled_display.h ****     {
 4976              		.loc 5 41 10 is_stmt 1 view .LVU1161
 4977              	.LBB1541:
 4978              	.LBI1531:
 239:../../libdaisy/src/dev/oled_ssd130x.h ****     {
 4979              		.loc 15 239 10 view .LVU1162
 4980              	.LBB1536:
 241:../../libdaisy/src/dev/oled_ssd130x.h ****             return;
 4981              		.loc 15 241 9 is_stmt 0 view .LVU1163
 4982 0156 002E     		cmp	r6, #0
 4983 0158 40F05381 		bne	.L375
 4984 015c 009E     		ldr	r6, [sp]
 4985 015e 002E     		cmp	r6, #0
 4986 0160 40F04F81 		bne	.L375
 4987              	.LBE1536:
 4988              	.LBE1541:
 4989              	.LBE1546:
 230:../../libdaisy/src/hid/disp/display.h ****         int_fast16_t error  = deltaX - deltaY;
 4990              		.loc 6 230 22 view .LVU1164
 4991 0164 4FF0FF36 		mov	r6, #-1
 4992 0168 0096     		str	r6, [sp]
 4993              	.LBB1547:
 4994              	.LBB1542:
 4995              	.LBB1537:
 243:../../libdaisy/src/dev/oled_ssd130x.h ****             buffer_[x + (y / 8) * width] |= (1 << (y % 8));
 4996              		.loc 15 243 9 view .LVU1165
 4997 016a 002D     		cmp	r5, #0
 4998 016c 00F02C81 		beq	.L342
 4999              	.LVL405:
 5000              	.L415:
 243:../../libdaisy/src/dev/oled_ssd130x.h ****             buffer_[x + (y / 8) * width] |= (1 << (y % 8));
 5001              		.loc 15 243 9 view .LVU1166
 5002 0170 0026     		movs	r6, #0
 244:../../libdaisy/src/dev/oled_ssd130x.h ****         else
 5003              		.loc 15 244 28 view .LVU1167
 5004 0172 4FEAD40E 		lsr	lr, r4, #3
 244:../../libdaisy/src/dev/oled_ssd130x.h ****         else
 5005              		.loc 15 244 48 view .LVU1168
 5006 0176 4FF0010C 		mov	ip, #1
 244:../../libdaisy/src/dev/oled_ssd130x.h ****         else
 5007              		.loc 15 244 54 view .LVU1169
 5008 017a 04F00707 		and	r7, r4, #7
 5009 017e 0396     		str	r6, [sp, #12]
 244:../../libdaisy/src/dev/oled_ssd130x.h ****         else
 5010              		.loc 15 244 42 view .LVU1170
 5011 0180 03EBCE16 		add	r6, r3, lr, lsl #7
 244:../../libdaisy/src/dev/oled_ssd130x.h ****         else
 5012              		.loc 15 244 48 view .LVU1171
 5013 0184 0CFA07F7 		lsl	r7, ip, r7
 244:../../libdaisy/src/dev/oled_ssd130x.h ****         else
 5014              		.loc 15 244 13 view .LVU1172
 5015 0188 0644     		add	r6, r6, r0
 244:../../libdaisy/src/dev/oled_ssd130x.h ****         else
 5016              		.loc 15 244 42 view .LVU1173
ARM GAS  /tmp/ccPAoVZi.s 			page 143


 5017 018a 96F814C0 		ldrb	ip, [r6, #20]	@ zero_extendqisi2
 5018 018e 47EA0C07 		orr	r7, r7, ip
 244:../../libdaisy/src/dev/oled_ssd130x.h ****         else
 5019              		.loc 15 244 13 view .LVU1174
 5020 0192 3775     		strb	r7, [r6, #20]
 5021              	.L341:
 5022              	.LVL406:
 244:../../libdaisy/src/dev/oled_ssd130x.h ****         else
 5023              		.loc 15 244 13 view .LVU1175
 5024              	.LBE1537:
 5025              	.LBE1542:
 5026              	.LBE1547:
 239:../../libdaisy/src/hid/disp/display.h ****         {
 5027              		.loc 6 239 26 is_stmt 1 view .LVU1176
 5028 0194 A242     		cmp	r2, r4
 5029 0196 00F03E81 		beq	.L413
 5030              	.L344:
 5031              	.LVL407:
 230:../../libdaisy/src/hid/disp/display.h ****         int_fast16_t error  = deltaX - deltaY;
 5032              		.loc 6 230 22 is_stmt 0 view .LVU1177
 5033 019a C446     		mov	ip, r8
 5034 019c 1646     		mov	r6, r2
 5035 019e 1F46     		mov	r7, r3
 5036 01a0 0592     		str	r2, [sp, #20]
 5037              	.LVL408:
 5038              	.L346:
 5039              	.LBB1548:
 5040              	.LBI1548:
  41:../../libdaisy/src/hid/disp/oled_display.h ****     {
 5041              		.loc 5 41 10 is_stmt 1 view .LVU1178
 5042              	.LBB1549:
 5043              	.LBI1549:
 239:../../libdaisy/src/dev/oled_ssd130x.h ****     {
 5044              		.loc 15 239 10 view .LVU1179
 5045              	.LBB1550:
 241:../../libdaisy/src/dev/oled_ssd130x.h ****             return;
 5046              		.loc 15 241 9 is_stmt 0 view .LVU1180
 5047 01a2 7F2F     		cmp	r7, #127
 5048 01a4 15D8     		bhi	.L347
 5049 01a6 3F2E     		cmp	r6, #63
 5050 01a8 13D8     		bhi	.L347
 244:../../libdaisy/src/dev/oled_ssd130x.h ****         else
 5051              		.loc 15 244 28 view .LVU1181
 5052 01aa 4FEAD60E 		lsr	lr, r6, #3
 244:../../libdaisy/src/dev/oled_ssd130x.h ****         else
 5053              		.loc 15 244 48 view .LVU1182
 5054 01ae 4FF0010B 		mov	fp, #1
 244:../../libdaisy/src/dev/oled_ssd130x.h ****         else
 5055              		.loc 15 244 54 view .LVU1183
 5056 01b2 06F0070A 		and	r10, r6, #7
 244:../../libdaisy/src/dev/oled_ssd130x.h ****         else
 5057              		.loc 15 244 42 view .LVU1184
 5058 01b6 07EBCE1E 		add	lr, r7, lr, lsl #7
 244:../../libdaisy/src/dev/oled_ssd130x.h ****         else
 5059              		.loc 15 244 48 view .LVU1185
 5060 01ba 0BFA0AFA 		lsl	r10, fp, r10
 244:../../libdaisy/src/dev/oled_ssd130x.h ****         else
ARM GAS  /tmp/ccPAoVZi.s 			page 144


 5061              		.loc 15 244 13 view .LVU1186
 5062 01be 8644     		add	lr, lr, r0
 244:../../libdaisy/src/dev/oled_ssd130x.h ****         else
 5063              		.loc 15 244 42 view .LVU1187
 5064 01c0 9EF814B0 		ldrb	fp, [lr, #20]	@ zero_extendqisi2
 243:../../libdaisy/src/dev/oled_ssd130x.h ****             buffer_[x + (y / 8) * width] |= (1 << (y % 8));
 5065              		.loc 15 243 9 view .LVU1188
 5066 01c4 002D     		cmp	r5, #0
 5067 01c6 00F0ED80 		beq	.L348
 244:../../libdaisy/src/dev/oled_ssd130x.h ****         else
 5068              		.loc 15 244 42 view .LVU1189
 5069 01ca 4AEA0B0A 		orr	r10, r10, fp
 244:../../libdaisy/src/dev/oled_ssd130x.h ****         else
 5070              		.loc 15 244 13 view .LVU1190
 5071 01ce 8EF814A0 		strb	r10, [lr, #20]
 5072              	.L347:
 5073              	.LVL409:
 244:../../libdaisy/src/dev/oled_ssd130x.h ****         else
 5074              		.loc 15 244 13 view .LVU1191
 5075              	.LBE1550:
 5076              	.LBE1549:
 5077              	.LBE1548:
 243:../../libdaisy/src/hid/disp/display.h ****             {
 5078              		.loc 6 243 13 view .LVU1192
 5079 01d2 B8EB4C0F 		cmp	r8, ip, lsl #1
 242:../../libdaisy/src/hid/disp/display.h ****             if(error2 > -deltaY)
 5080              		.loc 6 242 13 view .LVU1193
 5081 01d6 4FEA4C0E 		lsl	lr, ip, #1
 5082              	.LVL410:
 243:../../libdaisy/src/hid/disp/display.h ****             {
 5083              		.loc 6 243 13 view .LVU1194
 5084 01da 02DA     		bge	.L349
 245:../../libdaisy/src/hid/disp/display.h ****                 x1 += signX;
 5085              		.loc 6 245 17 view .LVU1195
 5086 01dc ACEB090C 		sub	ip, ip, r9
 5087              	.LVL411:
 246:../../libdaisy/src/hid/disp/display.h ****             }
 5088              		.loc 6 246 17 view .LVU1196
 5089 01e0 013F     		subs	r7, r7, #1
 5090              	.LVL412:
 5091              	.L349:
 249:../../libdaisy/src/hid/disp/display.h ****             {
 5092              		.loc 6 249 13 view .LVU1197
 5093 01e2 BEF1000F 		cmp	lr, #0
 5094 01e6 01D0     		beq	.L350
 252:../../libdaisy/src/hid/disp/display.h ****             }
 5095              		.loc 6 252 17 view .LVU1198
 5096 01e8 009A     		ldr	r2, [sp]
 5097 01ea 1644     		add	r6, r6, r2
 5098              	.LVL413:
 5099              	.L350:
 239:../../libdaisy/src/hid/disp/display.h ****         {
 5100              		.loc 6 239 26 is_stmt 1 view .LVU1199
 5101 01ec BB42     		cmp	r3, r7
 5102 01ee D8D1     		bne	.L346
 239:../../libdaisy/src/hid/disp/display.h ****         {
 5103              		.loc 6 239 26 is_stmt 0 view .LVU1200
ARM GAS  /tmp/ccPAoVZi.s 			page 145


 5104 01f0 B442     		cmp	r4, r6
 5105 01f2 D6D1     		bne	.L346
 5106 01f4 059A     		ldr	r2, [sp, #20]
 5107              	.LVL414:
 5108              	.L343:
 239:../../libdaisy/src/hid/disp/display.h ****         {
 5109              		.loc 6 239 26 view .LVU1201
 5110              	.LBE1529:
 5111              	.LBE1528:
 5112              	.LBB1562:
 5113              	.LBI1562:
 221:../../libdaisy/src/hid/disp/display.h ****                   uint_fast8_t y1,
 5114              		.loc 6 221 10 is_stmt 1 view .LVU1202
 5115              	.LBB1563:
 5116              	.LBB1564:
 5117              	.LBB1565:
 5118              	.LBB1566:
 241:../../libdaisy/src/dev/oled_ssd130x.h ****             return;
 5119              		.loc 15 241 14 is_stmt 0 view .LVU1203
 5120 01f6 7F29     		cmp	r1, #127
 5121              	.LBE1566:
 5122              	.LBE1565:
 5123              	.LBE1564:
 227:../../libdaisy/src/hid/disp/display.h ****         int_fast16_t deltaY = abs((int_fast16_t)y2 - (int_fast16_t)y1);
 5124              		.loc 6 227 52 view .LVU1204
 5125 01f8 A1EB030E 		sub	lr, r1, r3
 5126              	.LBB1575:
 5127              	.LBB1572:
 5128              	.LBB1569:
 241:../../libdaisy/src/dev/oled_ssd130x.h ****             return;
 5129              		.loc 15 241 14 view .LVU1205
 5130 01fc 94BF     		ite	ls
 5131 01fe 4FF00009 		movls	r9, #0
 5132 0202 4FF00109 		movhi	r9, #1
 5133              	.LBE1569:
 5134              	.LBE1572:
 5135              	.LBE1575:
 229:../../libdaisy/src/hid/disp/display.h ****         int_fast16_t signY  = ((y1 < y2) ? 1 : -1);
 5136              		.loc 6 229 22 view .LVU1206
 5137 0206 9942     		cmp	r1, r3
 5138 0208 8CBF     		ite	hi
 5139 020a 4FF00108 		movhi	r8, #1
 5140 020e 4FF0FF38 		movls	r8, #-1
 227:../../libdaisy/src/hid/disp/display.h ****         int_fast16_t deltaY = abs((int_fast16_t)y2 - (int_fast16_t)y1);
 5141              		.loc 6 227 22 view .LVU1207
 5142 0212 BEF1000F 		cmp	lr, #0
 5143 0216 B8BF     		it	lt
 5144 0218 CEF1000E 		rsblt	lr, lr, #0
 5145              	.LVL415:
 5146              	.LBB1576:
 5147              	.LBI1564:
  41:../../libdaisy/src/hid/disp/oled_display.h ****     {
 5148              		.loc 5 41 10 is_stmt 1 view .LVU1208
 5149              	.LBB1573:
 5150              	.LBI1565:
 239:../../libdaisy/src/dev/oled_ssd130x.h ****     {
 5151              		.loc 15 239 10 view .LVU1209
ARM GAS  /tmp/ccPAoVZi.s 			page 146


 5152              	.LBB1570:
 241:../../libdaisy/src/dev/oled_ssd130x.h ****             return;
 5153              		.loc 15 241 9 is_stmt 0 view .LVU1210
 5154 021c B9F1000F 		cmp	r9, #0
 5155 0220 13D1     		bne	.L352
 5156 0222 039E     		ldr	r6, [sp, #12]
 5157 0224 8EB9     		cbnz	r6, .L352
 244:../../libdaisy/src/dev/oled_ssd130x.h ****         else
 5158              		.loc 15 244 28 view .LVU1211
 5159 0226 E608     		lsrs	r6, r4, #3
 244:../../libdaisy/src/dev/oled_ssd130x.h ****         else
 5160              		.loc 15 244 48 view .LVU1212
 5161 0228 4FF0010C 		mov	ip, #1
 244:../../libdaisy/src/dev/oled_ssd130x.h ****         else
 5162              		.loc 15 244 54 view .LVU1213
 5163 022c 04F00707 		and	r7, r4, #7
 244:../../libdaisy/src/dev/oled_ssd130x.h ****         else
 5164              		.loc 15 244 42 view .LVU1214
 5165 0230 01EBC616 		add	r6, r1, r6, lsl #7
 244:../../libdaisy/src/dev/oled_ssd130x.h ****         else
 5166              		.loc 15 244 48 view .LVU1215
 5167 0234 0CFA07F7 		lsl	r7, ip, r7
 244:../../libdaisy/src/dev/oled_ssd130x.h ****         else
 5168              		.loc 15 244 13 view .LVU1216
 5169 0238 0644     		add	r6, r6, r0
 244:../../libdaisy/src/dev/oled_ssd130x.h ****         else
 5170              		.loc 15 244 42 view .LVU1217
 5171 023a 96F814C0 		ldrb	ip, [r6, #20]	@ zero_extendqisi2
 243:../../libdaisy/src/dev/oled_ssd130x.h ****             buffer_[x + (y / 8) * width] |= (1 << (y % 8));
 5172              		.loc 15 243 9 view .LVU1218
 5173 023e 002D     		cmp	r5, #0
 5174 0240 00F0DB80 		beq	.L353
 244:../../libdaisy/src/dev/oled_ssd130x.h ****         else
 5175              		.loc 15 244 42 view .LVU1219
 5176 0244 47EA0C07 		orr	r7, r7, ip
 244:../../libdaisy/src/dev/oled_ssd130x.h ****         else
 5177              		.loc 15 244 13 view .LVU1220
 5178 0248 3775     		strb	r7, [r6, #20]
 5179              	.L352:
 5180              	.LVL416:
 244:../../libdaisy/src/dev/oled_ssd130x.h ****         else
 5181              		.loc 15 244 13 view .LVU1221
 5182              	.LBE1570:
 5183              	.LBE1573:
 5184              	.LBE1576:
 239:../../libdaisy/src/hid/disp/display.h ****         {
 5185              		.loc 6 239 26 is_stmt 1 view .LVU1222
 5186 024a 049E     		ldr	r6, [sp, #16]
 5187 024c 2EBB     		cbnz	r6, .L354
 227:../../libdaisy/src/hid/disp/display.h ****         int_fast16_t deltaY = abs((int_fast16_t)y2 - (int_fast16_t)y1);
 5188              		.loc 6 227 22 is_stmt 0 view .LVU1223
 5189 024e 7746     		mov	r7, lr
 239:../../libdaisy/src/hid/disp/display.h ****         {
 5190              		.loc 6 239 26 view .LVU1224
 5191 0250 2646     		mov	r6, r4
 5192              	.LVL417:
 5193              	.L355:
ARM GAS  /tmp/ccPAoVZi.s 			page 147


 5194              	.LBB1577:
 5195              	.LBI1577:
  41:../../libdaisy/src/hid/disp/oled_display.h ****     {
 5196              		.loc 5 41 10 is_stmt 1 view .LVU1225
 5197              	.LBB1578:
 5198              	.LBI1578:
 239:../../libdaisy/src/dev/oled_ssd130x.h ****     {
 5199              		.loc 15 239 10 view .LVU1226
 5200              	.LBB1579:
 241:../../libdaisy/src/dev/oled_ssd130x.h ****             return;
 5201              		.loc 15 241 9 is_stmt 0 view .LVU1227
 5202 0252 7F2B     		cmp	r3, #127
 5203 0254 15D8     		bhi	.L357
 241:../../libdaisy/src/dev/oled_ssd130x.h ****             return;
 5204              		.loc 15 241 9 view .LVU1228
 5205 0256 3F2E     		cmp	r6, #63
 5206 0258 13D8     		bhi	.L357
 244:../../libdaisy/src/dev/oled_ssd130x.h ****         else
 5207              		.loc 15 244 28 view .LVU1229
 5208 025a 4FEAD60C 		lsr	ip, r6, #3
 244:../../libdaisy/src/dev/oled_ssd130x.h ****         else
 5209              		.loc 15 244 48 view .LVU1230
 5210 025e 4FF0010B 		mov	fp, #1
 244:../../libdaisy/src/dev/oled_ssd130x.h ****         else
 5211              		.loc 15 244 54 view .LVU1231
 5212 0262 06F0070A 		and	r10, r6, #7
 244:../../libdaisy/src/dev/oled_ssd130x.h ****         else
 5213              		.loc 15 244 42 view .LVU1232
 5214 0266 03EBCC1C 		add	ip, r3, ip, lsl #7
 244:../../libdaisy/src/dev/oled_ssd130x.h ****         else
 5215              		.loc 15 244 48 view .LVU1233
 5216 026a 0BFA0AFA 		lsl	r10, fp, r10
 244:../../libdaisy/src/dev/oled_ssd130x.h ****         else
 5217              		.loc 15 244 13 view .LVU1234
 5218 026e 8444     		add	ip, ip, r0
 244:../../libdaisy/src/dev/oled_ssd130x.h ****         else
 5219              		.loc 15 244 42 view .LVU1235
 5220 0270 9CF814B0 		ldrb	fp, [ip, #20]	@ zero_extendqisi2
 243:../../libdaisy/src/dev/oled_ssd130x.h ****             buffer_[x + (y / 8) * width] |= (1 << (y % 8));
 5221              		.loc 15 243 9 view .LVU1236
 5222 0274 002D     		cmp	r5, #0
 5223 0276 00F09A80 		beq	.L358
 244:../../libdaisy/src/dev/oled_ssd130x.h ****         else
 5224              		.loc 15 244 42 view .LVU1237
 5225 027a 4AEA0B0A 		orr	r10, r10, fp
 244:../../libdaisy/src/dev/oled_ssd130x.h ****         else
 5226              		.loc 15 244 13 view .LVU1238
 5227 027e 8CF814A0 		strb	r10, [ip, #20]
 5228              	.L357:
 5229              	.LVL418:
 244:../../libdaisy/src/dev/oled_ssd130x.h ****         else
 5230              		.loc 15 244 13 view .LVU1239
 5231              	.LBE1579:
 5232              	.LBE1578:
 5233              	.LBE1577:
 243:../../libdaisy/src/hid/disp/display.h ****             {
 5234              		.loc 6 243 13 view .LVU1240
ARM GAS  /tmp/ccPAoVZi.s 			page 148


 5235 0282 5FEA470C 		lsls	ip, r7, #1
 5236              	.LVL419:
 246:../../libdaisy/src/hid/disp/display.h ****             }
 5237              		.loc 6 246 17 view .LVU1241
 5238 0286 18BF     		it	ne
 5239 0288 4344     		addne	r3, r3, r8
 5240              	.LVL420:
 249:../../libdaisy/src/hid/disp/display.h ****             {
 5241              		.loc 6 249 13 view .LVU1242
 5242 028a E645     		cmp	lr, ip
 5243 028c 01DD     		ble	.L360
 251:../../libdaisy/src/hid/disp/display.h ****                 y1 += signY;
 5244              		.loc 6 251 17 view .LVU1243
 5245 028e 7744     		add	r7, r7, lr
 5246              	.LVL421:
 252:../../libdaisy/src/hid/disp/display.h ****             }
 5247              		.loc 6 252 17 view .LVU1244
 5248 0290 013E     		subs	r6, r6, #1
 5249              	.LVL422:
 5250              	.L360:
 239:../../libdaisy/src/hid/disp/display.h ****         {
 5251              		.loc 6 239 26 is_stmt 1 view .LVU1245
 5252 0292 9942     		cmp	r1, r3
 5253 0294 DDD1     		bne	.L355
 239:../../libdaisy/src/hid/disp/display.h ****         {
 5254              		.loc 6 239 26 is_stmt 0 view .LVU1246
 5255 0296 B442     		cmp	r4, r6
 5256 0298 DBD1     		bne	.L355
 5257              	.LVL423:
 5258              	.L354:
 239:../../libdaisy/src/hid/disp/display.h ****         {
 5259              		.loc 6 239 26 view .LVU1247
 5260              	.LBE1563:
 5261              	.LBE1562:
 5262              	.LBB1588:
 5263              	.LBI1588:
 221:../../libdaisy/src/hid/disp/display.h ****                   uint_fast8_t y1,
 5264              		.loc 6 221 10 is_stmt 1 view .LVU1248
 5265              	.LBB1589:
 228:../../libdaisy/src/hid/disp/display.h ****         int_fast16_t signX  = ((x1 < x2) ? 1 : -1);
 5266              		.loc 6 228 52 is_stmt 0 view .LVU1249
 5267 029a A2EB040E 		sub	lr, r2, r4
 230:../../libdaisy/src/hid/disp/display.h ****         int_fast16_t error  = deltaX - deltaY;
 5268              		.loc 6 230 22 view .LVU1250
 5269 029e A242     		cmp	r2, r4
 5270 02a0 8CBF     		ite	hi
 5271 02a2 4FF00108 		movhi	r8, #1
 5272 02a6 4FF0FF38 		movls	r8, #-1
 5273              	.LVL424:
 228:../../libdaisy/src/hid/disp/display.h ****         int_fast16_t signX  = ((x1 < x2) ? 1 : -1);
 5274              		.loc 6 228 22 view .LVU1251
 5275 02aa BEF1000F 		cmp	lr, #0
 5276 02ae B8BF     		it	lt
 5277 02b0 CEF1000E 		rsblt	lr, lr, #0
 5278              	.LVL425:
 231:../../libdaisy/src/hid/disp/display.h ****         int_fast16_t error2;
 5279              		.loc 6 231 22 view .LVU1252
ARM GAS  /tmp/ccPAoVZi.s 			page 149


 5280 02b4 CEF1000C 		rsb	ip, lr, #0
 5281              	.LVL426:
 5282              	.LBB1590:
 5283              	.LBI1590:
  41:../../libdaisy/src/hid/disp/oled_display.h ****     {
 5284              		.loc 5 41 10 is_stmt 1 view .LVU1253
 5285              	.LBB1591:
 5286              	.LBI1591:
 239:../../libdaisy/src/dev/oled_ssd130x.h ****     {
 5287              		.loc 15 239 10 view .LVU1254
 5288              	.LBB1592:
 241:../../libdaisy/src/dev/oled_ssd130x.h ****             return;
 5289              		.loc 15 241 9 is_stmt 0 view .LVU1255
 5290 02b8 B9F1000F 		cmp	r9, #0
 5291 02bc 0FD1     		bne	.L362
 5292 02be 029B     		ldr	r3, [sp, #8]
 5293 02c0 6BB9     		cbnz	r3, .L362
 244:../../libdaisy/src/dev/oled_ssd130x.h ****         else
 5294              		.loc 15 244 28 view .LVU1256
 5295 02c2 D308     		lsrs	r3, r2, #3
 244:../../libdaisy/src/dev/oled_ssd130x.h ****         else
 5296              		.loc 15 244 54 view .LVU1257
 5297 02c4 02F00707 		and	r7, r2, #7
 244:../../libdaisy/src/dev/oled_ssd130x.h ****         else
 5298              		.loc 15 244 48 view .LVU1258
 5299 02c8 0126     		movs	r6, #1
 244:../../libdaisy/src/dev/oled_ssd130x.h ****         else
 5300              		.loc 15 244 42 view .LVU1259
 5301 02ca 01EBC313 		add	r3, r1, r3, lsl #7
 243:../../libdaisy/src/dev/oled_ssd130x.h ****             buffer_[x + (y / 8) * width] |= (1 << (y % 8));
 5302              		.loc 15 243 9 view .LVU1260
 5303 02ce 002D     		cmp	r5, #0
 5304 02d0 00F08B80 		beq	.L363
 244:../../libdaisy/src/dev/oled_ssd130x.h ****         else
 5305              		.loc 15 244 13 view .LVU1261
 5306 02d4 0344     		add	r3, r3, r0
 244:../../libdaisy/src/dev/oled_ssd130x.h ****         else
 5307              		.loc 15 244 48 view .LVU1262
 5308 02d6 BE40     		lsls	r6, r6, r7
 244:../../libdaisy/src/dev/oled_ssd130x.h ****         else
 5309              		.loc 15 244 42 view .LVU1263
 5310 02d8 1F7D     		ldrb	r7, [r3, #20]	@ zero_extendqisi2
 5311 02da 3E43     		orrs	r6, r6, r7
 244:../../libdaisy/src/dev/oled_ssd130x.h ****         else
 5312              		.loc 15 244 13 view .LVU1264
 5313 02dc 1E75     		strb	r6, [r3, #20]
 5314              	.L362:
 5315              	.LVL427:
 244:../../libdaisy/src/dev/oled_ssd130x.h ****         else
 5316              		.loc 15 244 13 view .LVU1265
 5317              	.LBE1592:
 5318              	.LBE1591:
 5319              	.LBE1590:
 239:../../libdaisy/src/hid/disp/display.h ****         {
 5320              		.loc 6 239 26 is_stmt 1 view .LVU1266
 5321 02de 019B     		ldr	r3, [sp, #4]
 5322 02e0 002B     		cmp	r3, #0
ARM GAS  /tmp/ccPAoVZi.s 			page 150


 5323 02e2 7FF4C8AE 		bne	.L320
 5324 02e6 6646     		mov	r6, ip
 5325 02e8 0B46     		mov	r3, r1
 5326              	.LVL428:
 5327              	.L364:
 5328              	.LBB1597:
 5329              	.LBI1597:
  41:../../libdaisy/src/hid/disp/oled_display.h ****     {
 5330              		.loc 5 41 10 view .LVU1267
 5331              	.LBB1598:
 5332              	.LBI1598:
 239:../../libdaisy/src/dev/oled_ssd130x.h ****     {
 5333              		.loc 15 239 10 view .LVU1268
 5334              	.LBB1599:
 241:../../libdaisy/src/dev/oled_ssd130x.h ****             return;
 5335              		.loc 15 241 9 is_stmt 0 view .LVU1269
 5336 02ea 7F2B     		cmp	r3, #127
 5337 02ec 13D8     		bhi	.L366
 241:../../libdaisy/src/dev/oled_ssd130x.h ****             return;
 5338              		.loc 15 241 9 view .LVU1270
 5339 02ee 3F2C     		cmp	r4, #63
 5340 02f0 11D8     		bhi	.L366
 244:../../libdaisy/src/dev/oled_ssd130x.h ****         else
 5341              		.loc 15 244 28 view .LVU1271
 5342 02f2 E708     		lsrs	r7, r4, #3
 244:../../libdaisy/src/dev/oled_ssd130x.h ****         else
 5343              		.loc 15 244 54 view .LVU1272
 5344 02f4 04F0070A 		and	r10, r4, #7
 244:../../libdaisy/src/dev/oled_ssd130x.h ****         else
 5345              		.loc 15 244 48 view .LVU1273
 5346 02f8 4FF00109 		mov	r9, #1
 244:../../libdaisy/src/dev/oled_ssd130x.h ****         else
 5347              		.loc 15 244 42 view .LVU1274
 5348 02fc 03EBC717 		add	r7, r3, r7, lsl #7
 243:../../libdaisy/src/dev/oled_ssd130x.h ****             buffer_[x + (y / 8) * width] |= (1 << (y % 8));
 5349              		.loc 15 243 9 view .LVU1275
 5350 0300 002D     		cmp	r5, #0
 5351 0302 40D0     		beq	.L367
 244:../../libdaisy/src/dev/oled_ssd130x.h ****         else
 5352              		.loc 15 244 13 view .LVU1276
 5353 0304 0744     		add	r7, r7, r0
 244:../../libdaisy/src/dev/oled_ssd130x.h ****         else
 5354              		.loc 15 244 48 view .LVU1277
 5355 0306 09FA0AF9 		lsl	r9, r9, r10
 244:../../libdaisy/src/dev/oled_ssd130x.h ****         else
 5356              		.loc 15 244 42 view .LVU1278
 5357 030a 97F814A0 		ldrb	r10, [r7, #20]	@ zero_extendqisi2
 5358 030e 49EA0A09 		orr	r9, r9, r10
 244:../../libdaisy/src/dev/oled_ssd130x.h ****         else
 5359              		.loc 15 244 13 view .LVU1279
 5360 0312 87F81490 		strb	r9, [r7, #20]
 5361              	.L366:
 5362              	.LVL429:
 244:../../libdaisy/src/dev/oled_ssd130x.h ****         else
 5363              		.loc 15 244 13 view .LVU1280
 5364              	.LBE1599:
 5365              	.LBE1598:
ARM GAS  /tmp/ccPAoVZi.s 			page 151


 5366              	.LBE1597:
 243:../../libdaisy/src/hid/disp/display.h ****             {
 5367              		.loc 6 243 13 view .LVU1281
 5368 0316 BCEB460F 		cmp	ip, r6, lsl #1
 242:../../libdaisy/src/hid/disp/display.h ****             if(error2 > -deltaY)
 5369              		.loc 6 242 13 view .LVU1282
 5370 031a 4FEA4607 		lsl	r7, r6, #1
 5371              	.LVL430:
 243:../../libdaisy/src/hid/disp/display.h ****             {
 5372              		.loc 6 243 13 view .LVU1283
 5373 031e 02DA     		bge	.L368
 245:../../libdaisy/src/hid/disp/display.h ****                 x1 += signX;
 5374              		.loc 6 245 17 view .LVU1284
 5375 0320 A6EB0E06 		sub	r6, r6, lr
 5376              	.LVL431:
 246:../../libdaisy/src/hid/disp/display.h ****             }
 5377              		.loc 6 246 17 view .LVU1285
 5378 0324 013B     		subs	r3, r3, #1
 5379              	.LVL432:
 5380              	.L368:
 249:../../libdaisy/src/hid/disp/display.h ****             {
 5381              		.loc 6 249 13 view .LVU1286
 5382 0326 07B1     		cbz	r7, .L369
 252:../../libdaisy/src/hid/disp/display.h ****             }
 5383              		.loc 6 252 17 view .LVU1287
 5384 0328 4444     		add	r4, r4, r8
 5385              	.LVL433:
 5386              	.L369:
 239:../../libdaisy/src/hid/disp/display.h ****         {
 5387              		.loc 6 239 26 is_stmt 1 view .LVU1288
 5388 032a 9942     		cmp	r1, r3
 5389 032c DDD1     		bne	.L364
 239:../../libdaisy/src/hid/disp/display.h ****         {
 5390              		.loc 6 239 26 is_stmt 0 view .LVU1289
 5391 032e A242     		cmp	r2, r4
 5392 0330 DBD1     		bne	.L364
 5393              	.LBE1589:
 5394              	.LBE1588:
 5395              	.LBE1500:
 281:../../libdaisy/src/hid/disp/display.h **** 
 5396              		.loc 6 281 5 view .LVU1290
 5397 0332 07B0     		add	sp, sp, #28
 5398              		.cfi_remember_state
 5399              		.cfi_def_cfa_offset 36
 5400              		@ sp needed
 5401 0334 BDE8F08F 		pop	{r4, r5, r6, r7, r8, r9, r10, fp, pc}
 5402              	.LVL434:
 5403              	.L411:
 5404              		.cfi_restore_state
 5405              	.LBB1619:
 5406              	.LBB1608:
 5407              	.LBB1525:
 5408              	.LBB1522:
  41:../../libdaisy/src/hid/disp/oled_display.h ****     {
 5409              		.loc 5 41 10 is_stmt 1 view .LVU1291
 5410              	.LBB1512:
 239:../../libdaisy/src/dev/oled_ssd130x.h ****     {
ARM GAS  /tmp/ccPAoVZi.s 			page 152


 5411              		.loc 15 239 10 view .LVU1292
 5412              	.LBB1509:
 241:../../libdaisy/src/dev/oled_ssd130x.h ****             return;
 5413              		.loc 15 241 14 is_stmt 0 view .LVU1293
 5414 0338 7F2B     		cmp	r3, #127
 5415              	.LBE1509:
 5416              	.LBE1512:
 5417              	.LBE1522:
 229:../../libdaisy/src/hid/disp/display.h ****         int_fast16_t signY  = ((y1 < y2) ? 1 : -1);
 5418              		.loc 6 229 22 view .LVU1294
 5419 033a 4FF0FF39 		mov	r9, #-1
 5420              	.LBB1523:
 5421              	.LBB1513:
 5422              	.LBB1510:
 241:../../libdaisy/src/dev/oled_ssd130x.h ****             return;
 5423              		.loc 15 241 14 view .LVU1295
 5424 033e 94BF     		ite	ls
 5425 0340 0026     		movls	r6, #0
 5426 0342 0126     		movhi	r6, #1
 241:../../libdaisy/src/dev/oled_ssd130x.h ****             return;
 5427              		.loc 15 241 28 view .LVU1296
 5428 0344 3F2A     		cmp	r2, #63
 241:../../libdaisy/src/dev/oled_ssd130x.h ****             return;
 5429              		.loc 15 241 14 view .LVU1297
 5430 0346 0096     		str	r6, [sp]
 241:../../libdaisy/src/dev/oled_ssd130x.h ****             return;
 5431              		.loc 15 241 28 view .LVU1298
 5432 0348 94BF     		ite	ls
 5433 034a 0027     		movls	r7, #0
 5434 034c 0127     		movhi	r7, #1
 5435 034e 0297     		str	r7, [sp, #8]
 241:../../libdaisy/src/dev/oled_ssd130x.h ****             return;
 5436              		.loc 15 241 9 view .LVU1299
 5437 0350 002E     		cmp	r6, #0
 5438 0352 7FF4C3AE 		bne	.L330
 5439 0356 002F     		cmp	r7, #0
 5440 0358 7FF4C0AE 		bne	.L330
 243:../../libdaisy/src/dev/oled_ssd130x.h ****             buffer_[x + (y / 8) * width] |= (1 << (y % 8));
 5441              		.loc 15 243 9 view .LVU1300
 5442 035c 002D     		cmp	r5, #0
 5443 035e 7FF4A8AE 		bne	.L414
 5444              	.LVL435:
 5445              	.L331:
 5446              	.LBB1506:
 5447              	.LBI1506:
 239:../../libdaisy/src/dev/oled_ssd130x.h ****     {
 5448              		.loc 15 239 10 is_stmt 1 view .LVU1301
 5449              	.LBB1507:
 246:../../libdaisy/src/dev/oled_ssd130x.h ****     }
 5450              		.loc 15 246 28 is_stmt 0 view .LVU1302
 5451 0362 D608     		lsrs	r6, r2, #3
 246:../../libdaisy/src/dev/oled_ssd130x.h ****     }
 5452              		.loc 15 246 49 view .LVU1303
 5453 0364 4FF0010C 		mov	ip, #1
 246:../../libdaisy/src/dev/oled_ssd130x.h ****     }
 5454              		.loc 15 246 55 view .LVU1304
 5455 0368 02F00707 		and	r7, r2, #7
ARM GAS  /tmp/ccPAoVZi.s 			page 153


 246:../../libdaisy/src/dev/oled_ssd130x.h ****     }
 5456              		.loc 15 246 13 view .LVU1305
 5457 036c 0295     		str	r5, [sp, #8]
 246:../../libdaisy/src/dev/oled_ssd130x.h ****     }
 5458              		.loc 15 246 42 view .LVU1306
 5459 036e 03EBC616 		add	r6, r3, r6, lsl #7
 246:../../libdaisy/src/dev/oled_ssd130x.h ****     }
 5460              		.loc 15 246 13 view .LVU1307
 5461 0372 0095     		str	r5, [sp]
 246:../../libdaisy/src/dev/oled_ssd130x.h ****     }
 5462              		.loc 15 246 49 view .LVU1308
 5463 0374 0CFA07F7 		lsl	r7, ip, r7
 246:../../libdaisy/src/dev/oled_ssd130x.h ****     }
 5464              		.loc 15 246 13 view .LVU1309
 5465 0378 0644     		add	r6, r6, r0
 246:../../libdaisy/src/dev/oled_ssd130x.h ****     }
 5466              		.loc 15 246 42 view .LVU1310
 5467 037a 96F814C0 		ldrb	ip, [r6, #20]	@ zero_extendqisi2
 5468 037e 2CEA0707 		bic	r7, ip, r7
 246:../../libdaisy/src/dev/oled_ssd130x.h ****     }
 5469              		.loc 15 246 13 view .LVU1311
 5470 0382 3775     		strb	r7, [r6, #20]
 5471 0384 AAE6     		b	.L330
 5472              	.LVL436:
 5473              	.L367:
 246:../../libdaisy/src/dev/oled_ssd130x.h ****     }
 5474              		.loc 15 246 13 view .LVU1312
 5475              	.LBE1507:
 5476              	.LBE1506:
 5477              	.LBE1510:
 5478              	.LBE1513:
 5479              	.LBE1523:
 5480              	.LBE1525:
 5481              	.LBE1608:
 5482              	.LBB1609:
 5483              	.LBB1606:
 5484              	.LBB1604:
 5485              	.LBB1603:
 5486              	.LBB1602:
 5487              	.LBB1600:
 5488              	.LBI1600:
 239:../../libdaisy/src/dev/oled_ssd130x.h ****     {
 5489              		.loc 15 239 10 is_stmt 1 view .LVU1313
 5490              	.LBB1601:
 246:../../libdaisy/src/dev/oled_ssd130x.h ****     }
 5491              		.loc 15 246 13 is_stmt 0 view .LVU1314
 5492 0386 0744     		add	r7, r7, r0
 246:../../libdaisy/src/dev/oled_ssd130x.h ****     }
 5493              		.loc 15 246 49 view .LVU1315
 5494 0388 09FA0AFA 		lsl	r10, r9, r10
 246:../../libdaisy/src/dev/oled_ssd130x.h ****     }
 5495              		.loc 15 246 42 view .LVU1316
 5496 038c 97F81490 		ldrb	r9, [r7, #20]	@ zero_extendqisi2
 5497 0390 29EA0A09 		bic	r9, r9, r10
 246:../../libdaisy/src/dev/oled_ssd130x.h ****     }
 5498              		.loc 15 246 13 view .LVU1317
 5499 0394 87F81490 		strb	r9, [r7, #20]
ARM GAS  /tmp/ccPAoVZi.s 			page 154


 5500 0398 BDE7     		b	.L366
 5501              	.LVL437:
 5502              	.L337:
 246:../../libdaisy/src/dev/oled_ssd130x.h ****     }
 5503              		.loc 15 246 13 view .LVU1318
 5504              	.LBE1601:
 5505              	.LBE1600:
 5506              	.LBE1602:
 5507              	.LBE1603:
 5508              	.LBE1604:
 5509              	.LBE1606:
 5510              	.LBE1609:
 5511              	.LBB1610:
 5512              	.LBB1526:
 5513              	.LBB1524:
 5514              	.LBB1521:
 5515              	.LBB1520:
 5516              	.LBB1518:
 5517              	.LBI1518:
 239:../../libdaisy/src/dev/oled_ssd130x.h ****     {
 5518              		.loc 15 239 10 is_stmt 1 view .LVU1319
 5519              	.LBB1519:
 246:../../libdaisy/src/dev/oled_ssd130x.h ****     }
 5520              		.loc 15 246 42 is_stmt 0 view .LVU1320
 5521 039a 2BEA0A0A 		bic	r10, fp, r10
 246:../../libdaisy/src/dev/oled_ssd130x.h ****     }
 5522              		.loc 15 246 13 view .LVU1321
 5523 039e 8EF814A0 		strb	r10, [lr, #20]
 5524 03a2 B9E6     		b	.L336
 5525              	.LVL438:
 5526              	.L348:
 246:../../libdaisy/src/dev/oled_ssd130x.h ****     }
 5527              		.loc 15 246 13 view .LVU1322
 5528              	.LBE1519:
 5529              	.LBE1518:
 5530              	.LBE1520:
 5531              	.LBE1521:
 5532              	.LBE1524:
 5533              	.LBE1526:
 5534              	.LBE1610:
 5535              	.LBB1611:
 5536              	.LBB1558:
 5537              	.LBB1555:
 5538              	.LBB1554:
 5539              	.LBB1553:
 5540              	.LBB1551:
 5541              	.LBI1551:
 239:../../libdaisy/src/dev/oled_ssd130x.h ****     {
 5542              		.loc 15 239 10 is_stmt 1 view .LVU1323
 5543              	.LBB1552:
 246:../../libdaisy/src/dev/oled_ssd130x.h ****     }
 5544              		.loc 15 246 42 is_stmt 0 view .LVU1324
 5545 03a4 2BEA0A0A 		bic	r10, fp, r10
 246:../../libdaisy/src/dev/oled_ssd130x.h ****     }
 5546              		.loc 15 246 13 view .LVU1325
 5547 03a8 8EF814A0 		strb	r10, [lr, #20]
 5548 03ac 11E7     		b	.L347
ARM GAS  /tmp/ccPAoVZi.s 			page 155


 5549              	.LVL439:
 5550              	.L358:
 246:../../libdaisy/src/dev/oled_ssd130x.h ****     }
 5551              		.loc 15 246 13 view .LVU1326
 5552              	.LBE1552:
 5553              	.LBE1551:
 5554              	.LBE1553:
 5555              	.LBE1554:
 5556              	.LBE1555:
 5557              	.LBE1558:
 5558              	.LBE1611:
 5559              	.LBB1612:
 5560              	.LBB1586:
 5561              	.LBB1584:
 5562              	.LBB1583:
 5563              	.LBB1582:
 5564              	.LBB1580:
 5565              	.LBI1580:
 239:../../libdaisy/src/dev/oled_ssd130x.h ****     {
 5566              		.loc 15 239 10 is_stmt 1 view .LVU1327
 5567              	.LBB1581:
 246:../../libdaisy/src/dev/oled_ssd130x.h ****     }
 5568              		.loc 15 246 42 is_stmt 0 view .LVU1328
 5569 03ae 2BEA0A0A 		bic	r10, fp, r10
 246:../../libdaisy/src/dev/oled_ssd130x.h ****     }
 5570              		.loc 15 246 13 view .LVU1329
 5571 03b2 8CF814A0 		strb	r10, [ip, #20]
 5572 03b6 64E7     		b	.L357
 5573              	.LVL440:
 5574              	.L340:
 246:../../libdaisy/src/dev/oled_ssd130x.h ****     }
 5575              		.loc 15 246 13 view .LVU1330
 5576              	.LBE1581:
 5577              	.LBE1580:
 5578              	.LBE1582:
 5579              	.LBE1583:
 5580              	.LBE1584:
 5581              	.LBE1586:
 5582              	.LBE1612:
 5583              	.LBB1613:
 5584              	.LBB1559:
 5585              	.LBB1556:
  41:../../libdaisy/src/hid/disp/oled_display.h ****     {
 5586              		.loc 5 41 10 is_stmt 1 view .LVU1331
 5587              	.LBB1543:
 239:../../libdaisy/src/dev/oled_ssd130x.h ****     {
 5588              		.loc 15 239 10 view .LVU1332
 5589              	.LBB1538:
 241:../../libdaisy/src/dev/oled_ssd130x.h ****             return;
 5590              		.loc 15 241 9 is_stmt 0 view .LVU1333
 5591 03b8 3EBB     		cbnz	r6, .L379
 5592 03ba 009E     		ldr	r6, [sp]
 5593 03bc 2EBB     		cbnz	r6, .L379
 5594              	.LBE1538:
 5595              	.LBE1543:
 5596              	.LBE1556:
 230:../../libdaisy/src/hid/disp/display.h ****         int_fast16_t error  = deltaX - deltaY;
ARM GAS  /tmp/ccPAoVZi.s 			page 156


 5597              		.loc 6 230 22 view .LVU1334
 5598 03be 0126     		movs	r6, #1
 5599 03c0 0096     		str	r6, [sp]
 5600              	.LBB1557:
 5601              	.LBB1544:
 5602              	.LBB1539:
 243:../../libdaisy/src/dev/oled_ssd130x.h ****             buffer_[x + (y / 8) * width] |= (1 << (y % 8));
 5603              		.loc 15 243 9 view .LVU1335
 5604 03c2 002D     		cmp	r5, #0
 5605 03c4 7FF4D4AE 		bne	.L415
 5606              	.LVL441:
 5607              	.L342:
 5608              	.LBB1533:
 5609              	.LBI1533:
 239:../../libdaisy/src/dev/oled_ssd130x.h ****     {
 5610              		.loc 15 239 10 is_stmt 1 view .LVU1336
 5611              	.LBB1534:
 246:../../libdaisy/src/dev/oled_ssd130x.h ****     }
 5612              		.loc 15 246 28 is_stmt 0 view .LVU1337
 5613 03c8 E608     		lsrs	r6, r4, #3
 246:../../libdaisy/src/dev/oled_ssd130x.h ****     }
 5614              		.loc 15 246 49 view .LVU1338
 5615 03ca 4FF0010C 		mov	ip, #1
 246:../../libdaisy/src/dev/oled_ssd130x.h ****     }
 5616              		.loc 15 246 55 view .LVU1339
 5617 03ce 04F00707 		and	r7, r4, #7
 246:../../libdaisy/src/dev/oled_ssd130x.h ****     }
 5618              		.loc 15 246 13 view .LVU1340
 5619 03d2 0395     		str	r5, [sp, #12]
 246:../../libdaisy/src/dev/oled_ssd130x.h ****     }
 5620              		.loc 15 246 42 view .LVU1341
 5621 03d4 03EBC616 		add	r6, r3, r6, lsl #7
 246:../../libdaisy/src/dev/oled_ssd130x.h ****     }
 5622              		.loc 15 246 49 view .LVU1342
 5623 03d8 0CFA07F7 		lsl	r7, ip, r7
 246:../../libdaisy/src/dev/oled_ssd130x.h ****     }
 5624              		.loc 15 246 13 view .LVU1343
 5625 03dc 0644     		add	r6, r6, r0
 246:../../libdaisy/src/dev/oled_ssd130x.h ****     }
 5626              		.loc 15 246 42 view .LVU1344
 5627 03de 96F814C0 		ldrb	ip, [r6, #20]	@ zero_extendqisi2
 5628 03e2 2CEA0707 		bic	r7, ip, r7
 246:../../libdaisy/src/dev/oled_ssd130x.h ****     }
 5629              		.loc 15 246 13 view .LVU1345
 5630 03e6 3775     		strb	r7, [r6, #20]
 5631 03e8 D4E6     		b	.L341
 5632              	.LVL442:
 5633              	.L363:
 246:../../libdaisy/src/dev/oled_ssd130x.h ****     }
 5634              		.loc 15 246 13 view .LVU1346
 5635              	.LBE1534:
 5636              	.LBE1533:
 5637              	.LBE1539:
 5638              	.LBE1544:
 5639              	.LBE1557:
 5640              	.LBE1559:
 5641              	.LBE1613:
ARM GAS  /tmp/ccPAoVZi.s 			page 157


 5642              	.LBB1614:
 5643              	.LBB1607:
 5644              	.LBB1605:
 5645              	.LBB1596:
 5646              	.LBB1595:
 5647              	.LBB1593:
 5648              	.LBI1593:
 239:../../libdaisy/src/dev/oled_ssd130x.h ****     {
 5649              		.loc 15 239 10 is_stmt 1 view .LVU1347
 5650              	.LBB1594:
 246:../../libdaisy/src/dev/oled_ssd130x.h ****     }
 5651              		.loc 15 246 13 is_stmt 0 view .LVU1348
 5652 03ea 0344     		add	r3, r3, r0
 246:../../libdaisy/src/dev/oled_ssd130x.h ****     }
 5653              		.loc 15 246 49 view .LVU1349
 5654 03ec 06FA07F7 		lsl	r7, r6, r7
 246:../../libdaisy/src/dev/oled_ssd130x.h ****     }
 5655              		.loc 15 246 42 view .LVU1350
 5656 03f0 1E7D     		ldrb	r6, [r3, #20]	@ zero_extendqisi2
 5657 03f2 26EA0706 		bic	r6, r6, r7
 246:../../libdaisy/src/dev/oled_ssd130x.h ****     }
 5658              		.loc 15 246 13 view .LVU1351
 5659 03f6 1E75     		strb	r6, [r3, #20]
 5660 03f8 71E7     		b	.L362
 5661              	.LVL443:
 5662              	.L353:
 246:../../libdaisy/src/dev/oled_ssd130x.h ****     }
 5663              		.loc 15 246 13 view .LVU1352
 5664              	.LBE1594:
 5665              	.LBE1593:
 5666              	.LBE1595:
 5667              	.LBE1596:
 5668              	.LBE1605:
 5669              	.LBE1607:
 5670              	.LBE1614:
 5671              	.LBB1615:
 5672              	.LBB1587:
 5673              	.LBB1585:
 5674              	.LBB1574:
 5675              	.LBB1571:
 5676              	.LBB1567:
 5677              	.LBI1567:
 239:../../libdaisy/src/dev/oled_ssd130x.h ****     {
 5678              		.loc 15 239 10 is_stmt 1 view .LVU1353
 5679              	.LBB1568:
 246:../../libdaisy/src/dev/oled_ssd130x.h ****     }
 5680              		.loc 15 246 42 is_stmt 0 view .LVU1354
 5681 03fa 2CEA0707 		bic	r7, ip, r7
 246:../../libdaisy/src/dev/oled_ssd130x.h ****     }
 5682              		.loc 15 246 13 view .LVU1355
 5683 03fe 3775     		strb	r7, [r6, #20]
 5684 0400 23E7     		b	.L352
 5685              	.LVL444:
 5686              	.L375:
 246:../../libdaisy/src/dev/oled_ssd130x.h ****     }
 5687              		.loc 15 246 13 view .LVU1356
 5688              	.LBE1568:
ARM GAS  /tmp/ccPAoVZi.s 			page 158


 5689              	.LBE1567:
 5690              	.LBE1571:
 5691              	.LBE1574:
 5692              	.LBE1585:
 5693              	.LBE1587:
 5694              	.LBE1615:
 5695              	.LBB1616:
 5696              	.LBB1560:
 230:../../libdaisy/src/hid/disp/display.h ****         int_fast16_t error  = deltaX - deltaY;
 5697              		.loc 6 230 22 view .LVU1357
 5698 0402 4FF0FF36 		mov	r6, #-1
 5699 0406 0096     		str	r6, [sp]
 5700 0408 C4E6     		b	.L341
 5701              	.LVL445:
 5702              	.L379:
 230:../../libdaisy/src/hid/disp/display.h ****         int_fast16_t error  = deltaX - deltaY;
 5703              		.loc 6 230 22 view .LVU1358
 5704 040a 0126     		movs	r6, #1
 5705 040c 0096     		str	r6, [sp]
 5706 040e C4E6     		b	.L344
 5707              	.LVL446:
 5708              	.L412:
 230:../../libdaisy/src/hid/disp/display.h ****         int_fast16_t error  = deltaX - deltaY;
 5709              		.loc 6 230 22 view .LVU1359
 5710              	.LBE1560:
 5711              	.LBE1616:
 5712              	.LBB1617:
 5713              	.LBB1527:
 239:../../libdaisy/src/hid/disp/display.h ****         {
 5714              		.loc 6 239 19 view .LVU1360
 5715 0410 0126     		movs	r6, #1
 5716 0412 0496     		str	r6, [sp, #16]
 5717 0414 8EE6     		b	.L332
 5718              	.LVL447:
 5719              	.L413:
 239:../../libdaisy/src/hid/disp/display.h ****         {
 5720              		.loc 6 239 19 view .LVU1361
 5721              	.LBE1527:
 5722              	.LBE1617:
 5723              	.LBB1618:
 5724              	.LBB1561:
 239:../../libdaisy/src/hid/disp/display.h ****         {
 5725              		.loc 6 239 33 view .LVU1362
 5726 0416 0126     		movs	r6, #1
 5727 0418 0196     		str	r6, [sp, #4]
 5728 041a ECE6     		b	.L343
 5729              	.LBE1561:
 5730              	.LBE1618:
 5731              	.LBE1619:
 5732              		.cfi_endproc
 5733              	.LFE4826:
 5735              		.section	.text._ZN5daisy13SSD130xDriverILj128ELj64ENS_24SSD130x4WireSpiTransportEE6UpdateEv,"axG",
 5736              		.align	1
 5737              		.p2align 2,,3
 5738              		.weak	_ZN5daisy13SSD130xDriverILj128ELj64ENS_24SSD130x4WireSpiTransportEE6UpdateEv
 5739              		.syntax unified
 5740              		.thumb
ARM GAS  /tmp/ccPAoVZi.s 			page 159


 5741              		.thumb_func
 5742              		.fpu fpv5-d16
 5744              	_ZN5daisy13SSD130xDriverILj128ELj64ENS_24SSD130x4WireSpiTransportEE6UpdateEv:
 5745              	.LVL448:
 5746              	.LFB4683:
 260:../../libdaisy/src/dev/oled_ssd130x.h ****     {
 5747              		.loc 15 260 10 is_stmt 1 view -0
 5748              		.cfi_startproc
 5749              		@ args = 0, pretend = 0, frame = 8
 5750              		@ frame_needed = 0, uses_anonymous_args = 0
 5751              		.loc 15 270 22 view .LVU1364
 260:../../libdaisy/src/dev/oled_ssd130x.h ****     {
 5752              		.loc 15 260 10 is_stmt 0 view .LVU1365
 5753 0000 2DE9F041 		push	{r4, r5, r6, r7, r8, lr}
 5754              		.cfi_def_cfa_offset 24
 5755              		.cfi_offset 4, -24
 5756              		.cfi_offset 5, -20
 5757              		.cfi_offset 6, -16
 5758              		.cfi_offset 7, -12
 5759              		.cfi_offset 8, -8
 5760              		.cfi_offset 14, -4
 5761 0004 B024     		movs	r4, #176
 5762 0006 82B0     		sub	sp, sp, #8
 5763              		.cfi_def_cfa_offset 32
 260:../../libdaisy/src/dev/oled_ssd130x.h ****     {
 5764              		.loc 15 260 10 view .LVU1366
 5765 0008 0546     		mov	r5, r0
 5766 000a 00F10806 		add	r6, r0, #8
 5767 000e 00F10C08 		add	r8, r0, #12
 5768              	.LVL449:
 5769              	.L417:
 5770              	.LBB1628:
 5771              	.LBB1629:
 111:../../libdaisy/src/dev/oled_ssd130x.h ****         spi_.BlockingTransmit(&cmd, 1);
 5772              		.loc 15 111 23 discriminator 2 view .LVU1367
 5773 0012 0021     		movs	r1, #0
 5774 0014 3046     		mov	r0, r6
 5775 0016 8DF80740 		strb	r4, [sp, #7]
 5776              	.LVL450:
 111:../../libdaisy/src/dev/oled_ssd130x.h ****         spi_.BlockingTransmit(&cmd, 1);
 5777              		.loc 15 111 23 discriminator 2 view .LVU1368
 5778              	.LBE1629:
 5779              	.LBI1628:
 109:../../libdaisy/src/dev/oled_ssd130x.h ****     {
 5780              		.loc 15 109 10 is_stmt 1 discriminator 2 view .LVU1369
 5781              	.LBB1630:
 111:../../libdaisy/src/dev/oled_ssd130x.h ****         spi_.BlockingTransmit(&cmd, 1);
 5782              		.loc 15 111 9 discriminator 2 view .LVU1370
 5783 001a 0134     		adds	r4, r4, #1
 5784              	.LVL451:
 111:../../libdaisy/src/dev/oled_ssd130x.h ****         spi_.BlockingTransmit(&cmd, 1);
 5785              		.loc 15 111 9 is_stmt 0 discriminator 2 view .LVU1371
 5786 001c 0F46     		mov	r7, r1
 111:../../libdaisy/src/dev/oled_ssd130x.h ****         spi_.BlockingTransmit(&cmd, 1);
 5787              		.loc 15 111 23 discriminator 2 view .LVU1372
 5788 001e FFF7FEFF 		bl	dsy_gpio_write
 5789              	.LVL452:
ARM GAS  /tmp/ccPAoVZi.s 			page 160


 112:../../libdaisy/src/dev/oled_ssd130x.h ****     };
 5790              		.loc 15 112 9 is_stmt 1 discriminator 2 view .LVU1373
 112:../../libdaisy/src/dev/oled_ssd130x.h ****     };
 5791              		.loc 15 112 30 is_stmt 0 discriminator 2 view .LVU1374
 5792 0022 6423     		movs	r3, #100
 5793 0024 0122     		movs	r2, #1
 5794 0026 0DF10701 		add	r1, sp, #7
 5795 002a 2846     		mov	r0, r5
 5796 002c FFF7FEFF 		bl	_ZN5daisy9SpiHandle16BlockingTransmitEPhjm
 5797              	.LVL453:
 112:../../libdaisy/src/dev/oled_ssd130x.h ****     };
 5798              		.loc 15 112 30 discriminator 2 view .LVU1375
 5799              	.LBE1630:
 5800              	.LBE1628:
 5801              	.LBB1631:
 5802              	.LBB1632:
 111:../../libdaisy/src/dev/oled_ssd130x.h ****         spi_.BlockingTransmit(&cmd, 1);
 5803              		.loc 15 111 23 discriminator 2 view .LVU1376
 5804 0030 3946     		mov	r1, r7
 5805 0032 3046     		mov	r0, r6
 5806 0034 8DF80770 		strb	r7, [sp, #7]
 5807              	.LVL454:
 111:../../libdaisy/src/dev/oled_ssd130x.h ****         spi_.BlockingTransmit(&cmd, 1);
 5808              		.loc 15 111 23 discriminator 2 view .LVU1377
 5809              	.LBE1632:
 5810              	.LBI1631:
 109:../../libdaisy/src/dev/oled_ssd130x.h ****     {
 5811              		.loc 15 109 10 is_stmt 1 discriminator 2 view .LVU1378
 5812              	.LBB1633:
 111:../../libdaisy/src/dev/oled_ssd130x.h ****         spi_.BlockingTransmit(&cmd, 1);
 5813              		.loc 15 111 9 discriminator 2 view .LVU1379
 111:../../libdaisy/src/dev/oled_ssd130x.h ****         spi_.BlockingTransmit(&cmd, 1);
 5814              		.loc 15 111 23 is_stmt 0 discriminator 2 view .LVU1380
 5815 0038 FFF7FEFF 		bl	dsy_gpio_write
 5816              	.LVL455:
 112:../../libdaisy/src/dev/oled_ssd130x.h ****     };
 5817              		.loc 15 112 9 is_stmt 1 discriminator 2 view .LVU1381
 112:../../libdaisy/src/dev/oled_ssd130x.h ****     };
 5818              		.loc 15 112 30 is_stmt 0 discriminator 2 view .LVU1382
 5819 003c 0122     		movs	r2, #1
 5820 003e 6423     		movs	r3, #100
 5821 0040 0DF10701 		add	r1, sp, #7
 5822 0044 2846     		mov	r0, r5
 5823 0046 E4B2     		uxtb	r4, r4
 5824 0048 FFF7FEFF 		bl	_ZN5daisy9SpiHandle16BlockingTransmitEPhjm
 5825              	.LVL456:
 112:../../libdaisy/src/dev/oled_ssd130x.h ****     };
 5826              		.loc 15 112 30 discriminator 2 view .LVU1383
 5827 004c 1023     		movs	r3, #16
 5828              	.LBE1633:
 5829              	.LBE1631:
 5830              	.LBB1634:
 5831              	.LBB1635:
 111:../../libdaisy/src/dev/oled_ssd130x.h ****         spi_.BlockingTransmit(&cmd, 1);
 5832              		.loc 15 111 23 discriminator 2 view .LVU1384
 5833 004e 3946     		mov	r1, r7
 5834 0050 3046     		mov	r0, r6
ARM GAS  /tmp/ccPAoVZi.s 			page 161


 5835 0052 8DF80730 		strb	r3, [sp, #7]
 5836              	.LVL457:
 111:../../libdaisy/src/dev/oled_ssd130x.h ****         spi_.BlockingTransmit(&cmd, 1);
 5837              		.loc 15 111 23 discriminator 2 view .LVU1385
 5838              	.LBE1635:
 5839              	.LBI1634:
 109:../../libdaisy/src/dev/oled_ssd130x.h ****     {
 5840              		.loc 15 109 10 is_stmt 1 discriminator 2 view .LVU1386
 5841              	.LBB1636:
 111:../../libdaisy/src/dev/oled_ssd130x.h ****         spi_.BlockingTransmit(&cmd, 1);
 5842              		.loc 15 111 9 discriminator 2 view .LVU1387
 111:../../libdaisy/src/dev/oled_ssd130x.h ****         spi_.BlockingTransmit(&cmd, 1);
 5843              		.loc 15 111 23 is_stmt 0 discriminator 2 view .LVU1388
 5844 0056 FFF7FEFF 		bl	dsy_gpio_write
 5845              	.LVL458:
 112:../../libdaisy/src/dev/oled_ssd130x.h ****     };
 5846              		.loc 15 112 9 is_stmt 1 discriminator 2 view .LVU1389
 112:../../libdaisy/src/dev/oled_ssd130x.h ****     };
 5847              		.loc 15 112 30 is_stmt 0 discriminator 2 view .LVU1390
 5848 005a 6423     		movs	r3, #100
 5849 005c 0122     		movs	r2, #1
 5850 005e 0DF10701 		add	r1, sp, #7
 5851 0062 2846     		mov	r0, r5
 5852 0064 FFF7FEFF 		bl	_ZN5daisy9SpiHandle16BlockingTransmitEPhjm
 5853              	.LVL459:
 112:../../libdaisy/src/dev/oled_ssd130x.h ****     };
 5854              		.loc 15 112 30 discriminator 2 view .LVU1391
 5855              	.LBE1636:
 5856              	.LBE1634:
 5857              	.LBB1637:
 5858              	.LBI1637:
 115:../../libdaisy/src/dev/oled_ssd130x.h ****     {
 5859              		.loc 15 115 10 is_stmt 1 discriminator 2 view .LVU1392
 5860              	.LBB1638:
 117:../../libdaisy/src/dev/oled_ssd130x.h ****         spi_.BlockingTransmit(buff, size);
 5861              		.loc 15 117 9 discriminator 2 view .LVU1393
 117:../../libdaisy/src/dev/oled_ssd130x.h ****         spi_.BlockingTransmit(buff, size);
 5862              		.loc 15 117 23 is_stmt 0 discriminator 2 view .LVU1394
 5863 0068 0121     		movs	r1, #1
 5864 006a 3046     		mov	r0, r6
 5865 006c FFF7FEFF 		bl	dsy_gpio_write
 5866              	.LVL460:
 118:../../libdaisy/src/dev/oled_ssd130x.h ****     };
 5867              		.loc 15 118 9 is_stmt 1 discriminator 2 view .LVU1395
 118:../../libdaisy/src/dev/oled_ssd130x.h ****     };
 5868              		.loc 15 118 30 is_stmt 0 discriminator 2 view .LVU1396
 5869 0070 8022     		movs	r2, #128
 5870 0072 4146     		mov	r1, r8
 5871 0074 6423     		movs	r3, #100
 5872 0076 2846     		mov	r0, r5
 5873 0078 9044     		add	r8, r8, r2
 5874              	.LVL461:
 118:../../libdaisy/src/dev/oled_ssd130x.h ****     };
 5875              		.loc 15 118 30 discriminator 2 view .LVU1397
 5876 007a FFF7FEFF 		bl	_ZN5daisy9SpiHandle16BlockingTransmitEPhjm
 5877              	.LVL462:
 118:../../libdaisy/src/dev/oled_ssd130x.h ****     };
ARM GAS  /tmp/ccPAoVZi.s 			page 162


 5878              		.loc 15 118 30 discriminator 2 view .LVU1398
 5879              	.LBE1638:
 5880              	.LBE1637:
 5881              		.loc 15 270 9 is_stmt 1 discriminator 2 view .LVU1399
 5882              		.loc 15 270 22 discriminator 2 view .LVU1400
 5883 007e B82C     		cmp	r4, #184
 5884 0080 C7D1     		bne	.L417
 271:../../libdaisy/src/dev/oled_ssd130x.h ****         {
 272:../../libdaisy/src/dev/oled_ssd130x.h ****             transport_.SendCommand(0xB0 + i);
 273:../../libdaisy/src/dev/oled_ssd130x.h ****             transport_.SendCommand(0x00);
 274:../../libdaisy/src/dev/oled_ssd130x.h ****             transport_.SendCommand(high_column_addr);
 275:../../libdaisy/src/dev/oled_ssd130x.h ****             transport_.SendData(&buffer_[width * i], width);
 276:../../libdaisy/src/dev/oled_ssd130x.h ****         }
 277:../../libdaisy/src/dev/oled_ssd130x.h ****     };
 5885              		.loc 15 277 5 is_stmt 0 view .LVU1401
 5886 0082 02B0     		add	sp, sp, #8
 5887              		.cfi_def_cfa_offset 24
 5888              		@ sp needed
 5889 0084 BDE8F081 		pop	{r4, r5, r6, r7, r8, pc}
 5890              		.loc 15 277 5 view .LVU1402
 5891              		.cfi_endproc
 5892              	.LFE4683:
 5894              		.section	.rodata.main.str1.4,"aMS",%progbits,1
 5895              		.align	2
 5896              	.LC2:
 5897 0000 43757420 		.ascii	"Cut  Res  Drive  \000"
 5897      20526573 
 5897      20204472 
 5897      69766520 
 5897      2000
 5898 0012 0000     		.align	2
 5899              	.LC3:
 5900 0014 4C502020 		.ascii	"LP  HP  BP  Notch\000"
 5900      48502020 
 5900      42502020 
 5900      4E6F7463 
 5900      6800
 5901              		.section	.text.startup.main,"ax",%progbits
 5902              		.align	1
 5903              		.p2align 2,,3
 5904              		.global	main
 5905              		.syntax unified
 5906              		.thumb
 5907              		.thumb_func
 5908              		.fpu fpv5-d16
 5910              	main:
 5911              	.LFB4234:
  38:Svf.cpp       **** 
  39:Svf.cpp       **** int main(void)
  40:Svf.cpp       **** {
 5912              		.loc 16 40 1 is_stmt 1 view -0
 5913              		.cfi_startproc
 5914              		@ args = 0, pretend = 0, frame = 40
 5915              		@ frame_needed = 0, uses_anonymous_args = 0
  41:Svf.cpp       ****     float samplerate;
 5916              		.loc 16 41 5 view .LVU1404
  42:Svf.cpp       ****     patch.Init(); // Initialize hardware (daisy seed, and patch)
ARM GAS  /tmp/ccPAoVZi.s 			page 163


 5917              		.loc 16 42 5 view .LVU1405
  40:Svf.cpp       ****     float samplerate;
 5918              		.loc 16 40 1 is_stmt 0 view .LVU1406
 5919 0000 F0B5     		push	{r4, r5, r6, r7, lr}
 5920              		.cfi_def_cfa_offset 20
 5921              		.cfi_offset 4, -20
 5922              		.cfi_offset 5, -16
 5923              		.cfi_offset 6, -12
 5924              		.cfi_offset 7, -8
 5925              		.cfi_offset 14, -4
 5926              		.loc 16 42 15 view .LVU1407
 5927 0002 444E     		ldr	r6, .L423
  40:Svf.cpp       ****     float samplerate;
 5928              		.loc 16 40 1 view .LVU1408
 5929 0004 8DB0     		sub	sp, sp, #52
 5930              		.cfi_def_cfa_offset 72
 5931              		.loc 16 42 15 view .LVU1409
 5932 0006 0021     		movs	r1, #0
  43:Svf.cpp       ****     samplerate = patch.AudioSampleRate();
  44:Svf.cpp       **** 
  45:Svf.cpp       ****     //Initialize filter
  46:Svf.cpp       ****     svf.Init(samplerate);
  47:Svf.cpp       **** 
  48:Svf.cpp       ****     //setup controls
  49:Svf.cpp       ****     cutoff_ctrl.Init(patch.controls[0], 20, 20000, Parameter::LOGARITHMIC);
  50:Svf.cpp       ****     res_ctrl.Init(patch.controls[1], .3, 1, Parameter::LINEAR);
  51:Svf.cpp       ****     drive_ctrl.Init(patch.controls[2], .3, 1, Parameter::LINEAR);
  52:Svf.cpp       **** 
  53:Svf.cpp       ****     //Put controls onscreen
  54:Svf.cpp       ****     std::string str  = "Cut  Res  Drive  ";
  55:Svf.cpp       ****     char*       cstr = &str[0];
  56:Svf.cpp       ****     patch.display.WriteString(cstr, Font_7x10, true);
 5933              		.loc 16 56 30 view .LVU1410
 5934 0008 434F     		ldr	r7, .L423+4
  42:Svf.cpp       ****     samplerate = patch.AudioSampleRate();
 5935              		.loc 16 42 15 view .LVU1411
 5936 000a 3046     		mov	r0, r6
  49:Svf.cpp       ****     res_ctrl.Init(patch.controls[1], .3, 1, Parameter::LINEAR);
 5937              		.loc 16 49 38 view .LVU1412
 5938 000c 06F15C05 		add	r5, r6, #92
  42:Svf.cpp       ****     samplerate = patch.AudioSampleRate();
 5939              		.loc 16 42 15 view .LVU1413
 5940 0010 FFF7FEFF 		bl	_ZN5daisy10DaisyPatch4InitEb
 5941              	.LVL463:
  43:Svf.cpp       ****     samplerate = patch.AudioSampleRate();
 5942              		.loc 16 43 5 is_stmt 1 view .LVU1414
  43:Svf.cpp       ****     samplerate = patch.AudioSampleRate();
 5943              		.loc 16 43 39 is_stmt 0 view .LVU1415
 5944 0014 3046     		mov	r0, r6
 5945 0016 FFF7FEFF 		bl	_ZN5daisy10DaisyPatch15AudioSampleRateEv
 5946              	.LVL464:
  46:Svf.cpp       **** 
 5947              		.loc 16 46 5 is_stmt 1 view .LVU1416
  46:Svf.cpp       **** 
 5948              		.loc 16 46 13 is_stmt 0 view .LVU1417
 5949 001a 4048     		ldr	r0, .L423+8
 5950 001c FFF7FEFF 		bl	_ZN7daisysp3Svf4InitEf
ARM GAS  /tmp/ccPAoVZi.s 			page 164


 5951              	.LVL465:
  49:Svf.cpp       ****     res_ctrl.Init(patch.controls[1], .3, 1, Parameter::LINEAR);
 5952              		.loc 16 49 5 is_stmt 1 view .LVU1418
  49:Svf.cpp       ****     res_ctrl.Init(patch.controls[1], .3, 1, Parameter::LINEAR);
 5953              		.loc 16 49 38 is_stmt 0 view .LVU1419
 5954 0020 04AC     		add	r4, sp, #16
  49:Svf.cpp       ****     res_ctrl.Init(patch.controls[1], .3, 1, Parameter::LINEAR);
 5955              		.loc 16 49 21 view .LVU1420
 5956 0022 B3EE040A 		vmov.f32	s0, #2.0e+1
 5957 0026 DFED3E0A 		vldr.32	s1, .L423+12
  49:Svf.cpp       ****     res_ctrl.Init(patch.controls[1], .3, 1, Parameter::LINEAR);
 5958              		.loc 16 49 38 view .LVU1421
 5959 002a 0FCD     		ldmia	r5!, {r0, r1, r2, r3}
 5960 002c 0FC4     		stmia	r4!, {r0, r1, r2, r3}
 5961 002e 95E80F00 		ldm	r5, {r0, r1, r2, r3}
  50:Svf.cpp       ****     drive_ctrl.Init(patch.controls[2], .3, 1, Parameter::LINEAR);
 5962              		.loc 16 50 35 view .LVU1422
 5963 0032 06F17C05 		add	r5, r6, #124
  49:Svf.cpp       ****     res_ctrl.Init(patch.controls[1], .3, 1, Parameter::LINEAR);
 5964              		.loc 16 49 38 view .LVU1423
 5965 0036 84E80F00 		stm	r4, {r0, r1, r2, r3}
  49:Svf.cpp       ****     res_ctrl.Init(patch.controls[1], .3, 1, Parameter::LINEAR);
 5966              		.loc 16 49 21 view .LVU1424
 5967 003a 04A9     		add	r1, sp, #16
 5968 003c 0222     		movs	r2, #2
 5969 003e 3948     		ldr	r0, .L423+16
 5970 0040 FFF7FEFF 		bl	_ZN5daisy9Parameter4InitENS_13AnalogControlEffNS0_5CurveE
 5971              	.LVL466:
 5972              	.LBB1704:
 5973              	.LBI1704:
 5974              		.loc 3 23 5 is_stmt 1 view .LVU1425
 5975              		.loc 3 23 5 is_stmt 0 view .LVU1426
 5976              	.LBE1704:
  50:Svf.cpp       ****     drive_ctrl.Init(patch.controls[2], .3, 1, Parameter::LINEAR);
 5977              		.loc 16 50 5 is_stmt 1 view .LVU1427
  50:Svf.cpp       ****     drive_ctrl.Init(patch.controls[2], .3, 1, Parameter::LINEAR);
 5978              		.loc 16 50 35 is_stmt 0 view .LVU1428
 5979 0044 0DF1100C 		add	ip, sp, #16
  50:Svf.cpp       ****     drive_ctrl.Init(patch.controls[2], .3, 1, Parameter::LINEAR);
 5980              		.loc 16 50 18 view .LVU1429
 5981 0048 F7EE000A 		vmov.f32	s1, #1.0e+0
 5982 004c 9FED360A 		vldr.32	s0, .L423+20
  50:Svf.cpp       ****     drive_ctrl.Init(patch.controls[2], .3, 1, Parameter::LINEAR);
 5983              		.loc 16 50 35 view .LVU1430
 5984 0050 0FCD     		ldmia	r5!, {r0, r1, r2, r3}
 5985 0052 ACE80F00 		stmia	ip!, {r0, r1, r2, r3}
 5986 0056 95E80F00 		ldm	r5, {r0, r1, r2, r3}
  51:Svf.cpp       **** 
 5987              		.loc 16 51 37 view .LVU1431
 5988 005a 06F19C05 		add	r5, r6, #156
  50:Svf.cpp       ****     drive_ctrl.Init(patch.controls[2], .3, 1, Parameter::LINEAR);
 5989              		.loc 16 50 35 view .LVU1432
 5990 005e 84E80F00 		stm	r4, {r0, r1, r2, r3}
  50:Svf.cpp       ****     drive_ctrl.Init(patch.controls[2], .3, 1, Parameter::LINEAR);
 5991              		.loc 16 50 18 view .LVU1433
 5992 0062 04A9     		add	r1, sp, #16
 5993 0064 0022     		movs	r2, #0
ARM GAS  /tmp/ccPAoVZi.s 			page 165


 5994 0066 3148     		ldr	r0, .L423+24
 5995 0068 FFF7FEFF 		bl	_ZN5daisy9Parameter4InitENS_13AnalogControlEffNS0_5CurveE
 5996              	.LVL467:
 5997              	.LBB1705:
 5998              	.LBI1705:
 5999              		.loc 3 23 5 is_stmt 1 view .LVU1434
 6000              		.loc 3 23 5 is_stmt 0 view .LVU1435
 6001              	.LBE1705:
  51:Svf.cpp       **** 
 6002              		.loc 16 51 5 is_stmt 1 view .LVU1436
  51:Svf.cpp       **** 
 6003              		.loc 16 51 37 is_stmt 0 view .LVU1437
 6004 006c 0DF1100C 		add	ip, sp, #16
  51:Svf.cpp       **** 
 6005              		.loc 16 51 20 view .LVU1438
 6006 0070 F7EE000A 		vmov.f32	s1, #1.0e+0
 6007 0074 9FED2C0A 		vldr.32	s0, .L423+20
  51:Svf.cpp       **** 
 6008              		.loc 16 51 37 view .LVU1439
 6009 0078 0FCD     		ldmia	r5!, {r0, r1, r2, r3}
 6010 007a ACE80F00 		stmia	ip!, {r0, r1, r2, r3}
 6011 007e 95E80F00 		ldm	r5, {r0, r1, r2, r3}
 6012 0082 84E80F00 		stm	r4, {r0, r1, r2, r3}
  51:Svf.cpp       **** 
 6013              		.loc 16 51 20 view .LVU1440
 6014 0086 04A9     		add	r1, sp, #16
 6015 0088 0022     		movs	r2, #0
 6016 008a 2948     		ldr	r0, .L423+28
 6017              	.LBB1706:
 6018              	.LBB1707:
 6019              	.LBB1708:
 6020              	.LBB1709:
 6021              	.LBB1710:
 6022              		.file 19 "/usr/include/newlib/c++/9.2.1/bits/basic_string.h"
   1:/usr/include/newlib/c++/9.2.1/bits/basic_string.h **** // Components for manipulating sequences of characters -*- C++ -*-
   2:/usr/include/newlib/c++/9.2.1/bits/basic_string.h **** 
   3:/usr/include/newlib/c++/9.2.1/bits/basic_string.h **** // Copyright (C) 1997-2019 Free Software Foundation, Inc.
   4:/usr/include/newlib/c++/9.2.1/bits/basic_string.h **** //
   5:/usr/include/newlib/c++/9.2.1/bits/basic_string.h **** // This file is part of the GNU ISO C++ Library.  This library is free
   6:/usr/include/newlib/c++/9.2.1/bits/basic_string.h **** // software; you can redistribute it and/or modify it under the
   7:/usr/include/newlib/c++/9.2.1/bits/basic_string.h **** // terms of the GNU General Public License as published by the
   8:/usr/include/newlib/c++/9.2.1/bits/basic_string.h **** // Free Software Foundation; either version 3, or (at your option)
   9:/usr/include/newlib/c++/9.2.1/bits/basic_string.h **** // any later version.
  10:/usr/include/newlib/c++/9.2.1/bits/basic_string.h **** 
  11:/usr/include/newlib/c++/9.2.1/bits/basic_string.h **** // This library is distributed in the hope that it will be useful,
  12:/usr/include/newlib/c++/9.2.1/bits/basic_string.h **** // but WITHOUT ANY WARRANTY; without even the implied warranty of
  13:/usr/include/newlib/c++/9.2.1/bits/basic_string.h **** // MERCHANTABILITY or FITNESS FOR A PARTICULAR PURPOSE.  See the
  14:/usr/include/newlib/c++/9.2.1/bits/basic_string.h **** // GNU General Public License for more details.
  15:/usr/include/newlib/c++/9.2.1/bits/basic_string.h **** 
  16:/usr/include/newlib/c++/9.2.1/bits/basic_string.h **** // Under Section 7 of GPL version 3, you are granted additional
  17:/usr/include/newlib/c++/9.2.1/bits/basic_string.h **** // permissions described in the GCC Runtime Library Exception, version
  18:/usr/include/newlib/c++/9.2.1/bits/basic_string.h **** // 3.1, as published by the Free Software Foundation.
  19:/usr/include/newlib/c++/9.2.1/bits/basic_string.h **** 
  20:/usr/include/newlib/c++/9.2.1/bits/basic_string.h **** // You should have received a copy of the GNU General Public License and
  21:/usr/include/newlib/c++/9.2.1/bits/basic_string.h **** // a copy of the GCC Runtime Library Exception along with this program;
  22:/usr/include/newlib/c++/9.2.1/bits/basic_string.h **** // see the files COPYING3 and COPYING.RUNTIME respectively.  If not, see
  23:/usr/include/newlib/c++/9.2.1/bits/basic_string.h **** // <http://www.gnu.org/licenses/>.
ARM GAS  /tmp/ccPAoVZi.s 			page 166


  24:/usr/include/newlib/c++/9.2.1/bits/basic_string.h **** 
  25:/usr/include/newlib/c++/9.2.1/bits/basic_string.h **** /** @file bits/basic_string.h
  26:/usr/include/newlib/c++/9.2.1/bits/basic_string.h ****  *  This is an internal header file, included by other library headers.
  27:/usr/include/newlib/c++/9.2.1/bits/basic_string.h ****  *  Do not attempt to use it directly. @headername{string}
  28:/usr/include/newlib/c++/9.2.1/bits/basic_string.h ****  */
  29:/usr/include/newlib/c++/9.2.1/bits/basic_string.h **** 
  30:/usr/include/newlib/c++/9.2.1/bits/basic_string.h **** //
  31:/usr/include/newlib/c++/9.2.1/bits/basic_string.h **** // ISO C++ 14882: 21 Strings library
  32:/usr/include/newlib/c++/9.2.1/bits/basic_string.h **** //
  33:/usr/include/newlib/c++/9.2.1/bits/basic_string.h **** 
  34:/usr/include/newlib/c++/9.2.1/bits/basic_string.h **** #ifndef _BASIC_STRING_H
  35:/usr/include/newlib/c++/9.2.1/bits/basic_string.h **** #define _BASIC_STRING_H 1
  36:/usr/include/newlib/c++/9.2.1/bits/basic_string.h **** 
  37:/usr/include/newlib/c++/9.2.1/bits/basic_string.h **** #pragma GCC system_header
  38:/usr/include/newlib/c++/9.2.1/bits/basic_string.h **** 
  39:/usr/include/newlib/c++/9.2.1/bits/basic_string.h **** #include <ext/atomicity.h>
  40:/usr/include/newlib/c++/9.2.1/bits/basic_string.h **** #include <ext/alloc_traits.h>
  41:/usr/include/newlib/c++/9.2.1/bits/basic_string.h **** #include <debug/debug.h>
  42:/usr/include/newlib/c++/9.2.1/bits/basic_string.h **** 
  43:/usr/include/newlib/c++/9.2.1/bits/basic_string.h **** #if __cplusplus >= 201103L
  44:/usr/include/newlib/c++/9.2.1/bits/basic_string.h **** #include <initializer_list>
  45:/usr/include/newlib/c++/9.2.1/bits/basic_string.h **** #endif
  46:/usr/include/newlib/c++/9.2.1/bits/basic_string.h **** 
  47:/usr/include/newlib/c++/9.2.1/bits/basic_string.h **** #if __cplusplus >= 201703L
  48:/usr/include/newlib/c++/9.2.1/bits/basic_string.h **** # include <string_view>
  49:/usr/include/newlib/c++/9.2.1/bits/basic_string.h **** #endif
  50:/usr/include/newlib/c++/9.2.1/bits/basic_string.h **** 
  51:/usr/include/newlib/c++/9.2.1/bits/basic_string.h **** 
  52:/usr/include/newlib/c++/9.2.1/bits/basic_string.h **** namespace std _GLIBCXX_VISIBILITY(default)
  53:/usr/include/newlib/c++/9.2.1/bits/basic_string.h **** {
  54:/usr/include/newlib/c++/9.2.1/bits/basic_string.h **** _GLIBCXX_BEGIN_NAMESPACE_VERSION
  55:/usr/include/newlib/c++/9.2.1/bits/basic_string.h **** 
  56:/usr/include/newlib/c++/9.2.1/bits/basic_string.h **** #if _GLIBCXX_USE_CXX11_ABI
  57:/usr/include/newlib/c++/9.2.1/bits/basic_string.h **** _GLIBCXX_BEGIN_NAMESPACE_CXX11
  58:/usr/include/newlib/c++/9.2.1/bits/basic_string.h ****   /**
  59:/usr/include/newlib/c++/9.2.1/bits/basic_string.h ****    *  @class basic_string basic_string.h <string>
  60:/usr/include/newlib/c++/9.2.1/bits/basic_string.h ****    *  @brief  Managing sequences of characters and character-like objects.
  61:/usr/include/newlib/c++/9.2.1/bits/basic_string.h ****    *
  62:/usr/include/newlib/c++/9.2.1/bits/basic_string.h ****    *  @ingroup strings
  63:/usr/include/newlib/c++/9.2.1/bits/basic_string.h ****    *  @ingroup sequences
  64:/usr/include/newlib/c++/9.2.1/bits/basic_string.h ****    *
  65:/usr/include/newlib/c++/9.2.1/bits/basic_string.h ****    *  @tparam _CharT  Type of character
  66:/usr/include/newlib/c++/9.2.1/bits/basic_string.h ****    *  @tparam _Traits  Traits for character type, defaults to
  67:/usr/include/newlib/c++/9.2.1/bits/basic_string.h ****    *                   char_traits<_CharT>.
  68:/usr/include/newlib/c++/9.2.1/bits/basic_string.h ****    *  @tparam _Alloc  Allocator type, defaults to allocator<_CharT>.
  69:/usr/include/newlib/c++/9.2.1/bits/basic_string.h ****    *
  70:/usr/include/newlib/c++/9.2.1/bits/basic_string.h ****    *  Meets the requirements of a <a href="tables.html#65">container</a>, a
  71:/usr/include/newlib/c++/9.2.1/bits/basic_string.h ****    *  <a href="tables.html#66">reversible container</a>, and a
  72:/usr/include/newlib/c++/9.2.1/bits/basic_string.h ****    *  <a href="tables.html#67">sequence</a>.  Of the
  73:/usr/include/newlib/c++/9.2.1/bits/basic_string.h ****    *  <a href="tables.html#68">optional sequence requirements</a>, only
  74:/usr/include/newlib/c++/9.2.1/bits/basic_string.h ****    *  @c push_back, @c at, and @c %array access are supported.
  75:/usr/include/newlib/c++/9.2.1/bits/basic_string.h ****    */
  76:/usr/include/newlib/c++/9.2.1/bits/basic_string.h ****   template<typename _CharT, typename _Traits, typename _Alloc>
  77:/usr/include/newlib/c++/9.2.1/bits/basic_string.h ****     class basic_string
  78:/usr/include/newlib/c++/9.2.1/bits/basic_string.h ****     {
  79:/usr/include/newlib/c++/9.2.1/bits/basic_string.h ****       typedef typename __gnu_cxx::__alloc_traits<_Alloc>::template
  80:/usr/include/newlib/c++/9.2.1/bits/basic_string.h **** 	rebind<_CharT>::other _Char_alloc_type;
ARM GAS  /tmp/ccPAoVZi.s 			page 167


  81:/usr/include/newlib/c++/9.2.1/bits/basic_string.h ****       typedef __gnu_cxx::__alloc_traits<_Char_alloc_type> _Alloc_traits;
  82:/usr/include/newlib/c++/9.2.1/bits/basic_string.h **** 
  83:/usr/include/newlib/c++/9.2.1/bits/basic_string.h ****       // Types:
  84:/usr/include/newlib/c++/9.2.1/bits/basic_string.h ****     public:
  85:/usr/include/newlib/c++/9.2.1/bits/basic_string.h ****       typedef _Traits					traits_type;
  86:/usr/include/newlib/c++/9.2.1/bits/basic_string.h ****       typedef typename _Traits::char_type		value_type;
  87:/usr/include/newlib/c++/9.2.1/bits/basic_string.h ****       typedef _Char_alloc_type				allocator_type;
  88:/usr/include/newlib/c++/9.2.1/bits/basic_string.h ****       typedef typename _Alloc_traits::size_type		size_type;
  89:/usr/include/newlib/c++/9.2.1/bits/basic_string.h ****       typedef typename _Alloc_traits::difference_type	difference_type;
  90:/usr/include/newlib/c++/9.2.1/bits/basic_string.h ****       typedef typename _Alloc_traits::reference		reference;
  91:/usr/include/newlib/c++/9.2.1/bits/basic_string.h ****       typedef typename _Alloc_traits::const_reference	const_reference;
  92:/usr/include/newlib/c++/9.2.1/bits/basic_string.h ****       typedef typename _Alloc_traits::pointer		pointer;
  93:/usr/include/newlib/c++/9.2.1/bits/basic_string.h ****       typedef typename _Alloc_traits::const_pointer	const_pointer;
  94:/usr/include/newlib/c++/9.2.1/bits/basic_string.h ****       typedef __gnu_cxx::__normal_iterator<pointer, basic_string>  iterator;
  95:/usr/include/newlib/c++/9.2.1/bits/basic_string.h ****       typedef __gnu_cxx::__normal_iterator<const_pointer, basic_string>
  96:/usr/include/newlib/c++/9.2.1/bits/basic_string.h **** 							const_iterator;
  97:/usr/include/newlib/c++/9.2.1/bits/basic_string.h ****       typedef std::reverse_iterator<const_iterator>	const_reverse_iterator;
  98:/usr/include/newlib/c++/9.2.1/bits/basic_string.h ****       typedef std::reverse_iterator<iterator>		reverse_iterator;
  99:/usr/include/newlib/c++/9.2.1/bits/basic_string.h **** 
 100:/usr/include/newlib/c++/9.2.1/bits/basic_string.h ****       ///  Value returned by various member functions when they fail.
 101:/usr/include/newlib/c++/9.2.1/bits/basic_string.h ****       static const size_type	npos = static_cast<size_type>(-1);
 102:/usr/include/newlib/c++/9.2.1/bits/basic_string.h **** 
 103:/usr/include/newlib/c++/9.2.1/bits/basic_string.h ****     protected:
 104:/usr/include/newlib/c++/9.2.1/bits/basic_string.h ****       // type used for positions in insert, erase etc.
 105:/usr/include/newlib/c++/9.2.1/bits/basic_string.h **** #if __cplusplus < 201103L
 106:/usr/include/newlib/c++/9.2.1/bits/basic_string.h ****       typedef iterator __const_iterator;
 107:/usr/include/newlib/c++/9.2.1/bits/basic_string.h **** #else
 108:/usr/include/newlib/c++/9.2.1/bits/basic_string.h ****       typedef const_iterator __const_iterator;
 109:/usr/include/newlib/c++/9.2.1/bits/basic_string.h **** #endif
 110:/usr/include/newlib/c++/9.2.1/bits/basic_string.h **** 
 111:/usr/include/newlib/c++/9.2.1/bits/basic_string.h ****     private:
 112:/usr/include/newlib/c++/9.2.1/bits/basic_string.h **** #if __cplusplus >= 201703L
 113:/usr/include/newlib/c++/9.2.1/bits/basic_string.h ****       // A helper type for avoiding boiler-plate.
 114:/usr/include/newlib/c++/9.2.1/bits/basic_string.h ****       typedef basic_string_view<_CharT, _Traits> __sv_type;
 115:/usr/include/newlib/c++/9.2.1/bits/basic_string.h **** 
 116:/usr/include/newlib/c++/9.2.1/bits/basic_string.h ****       template<typename _Tp, typename _Res>
 117:/usr/include/newlib/c++/9.2.1/bits/basic_string.h **** 	using _If_sv = enable_if_t<
 118:/usr/include/newlib/c++/9.2.1/bits/basic_string.h **** 	  __and_<is_convertible<const _Tp&, __sv_type>,
 119:/usr/include/newlib/c++/9.2.1/bits/basic_string.h **** 		 __not_<is_convertible<const _Tp*, const basic_string*>>,
 120:/usr/include/newlib/c++/9.2.1/bits/basic_string.h **** 		 __not_<is_convertible<const _Tp&, const _CharT*>>>::value,
 121:/usr/include/newlib/c++/9.2.1/bits/basic_string.h **** 	  _Res>;
 122:/usr/include/newlib/c++/9.2.1/bits/basic_string.h **** 
 123:/usr/include/newlib/c++/9.2.1/bits/basic_string.h ****       // Allows an implicit conversion to __sv_type.
 124:/usr/include/newlib/c++/9.2.1/bits/basic_string.h ****       static __sv_type
 125:/usr/include/newlib/c++/9.2.1/bits/basic_string.h ****       _S_to_string_view(__sv_type __svt) noexcept
 126:/usr/include/newlib/c++/9.2.1/bits/basic_string.h ****       { return __svt; }
 127:/usr/include/newlib/c++/9.2.1/bits/basic_string.h **** 
 128:/usr/include/newlib/c++/9.2.1/bits/basic_string.h ****       // Wraps a string_view by explicit conversion and thus
 129:/usr/include/newlib/c++/9.2.1/bits/basic_string.h ****       // allows to add an internal constructor that does not
 130:/usr/include/newlib/c++/9.2.1/bits/basic_string.h ****       // participate in overload resolution when a string_view
 131:/usr/include/newlib/c++/9.2.1/bits/basic_string.h ****       // is provided.
 132:/usr/include/newlib/c++/9.2.1/bits/basic_string.h ****       struct __sv_wrapper
 133:/usr/include/newlib/c++/9.2.1/bits/basic_string.h ****       {
 134:/usr/include/newlib/c++/9.2.1/bits/basic_string.h **** 	explicit __sv_wrapper(__sv_type __sv) noexcept : _M_sv(__sv) { }
 135:/usr/include/newlib/c++/9.2.1/bits/basic_string.h **** 	__sv_type _M_sv;
 136:/usr/include/newlib/c++/9.2.1/bits/basic_string.h ****       };
 137:/usr/include/newlib/c++/9.2.1/bits/basic_string.h **** 
ARM GAS  /tmp/ccPAoVZi.s 			page 168


 138:/usr/include/newlib/c++/9.2.1/bits/basic_string.h ****       /**
 139:/usr/include/newlib/c++/9.2.1/bits/basic_string.h ****        *  @brief  Only internally used: Construct string from a string view
 140:/usr/include/newlib/c++/9.2.1/bits/basic_string.h ****        *          wrapper.
 141:/usr/include/newlib/c++/9.2.1/bits/basic_string.h ****        *  @param  __svw  string view wrapper.
 142:/usr/include/newlib/c++/9.2.1/bits/basic_string.h ****        *  @param  __a  Allocator to use.
 143:/usr/include/newlib/c++/9.2.1/bits/basic_string.h ****        */
 144:/usr/include/newlib/c++/9.2.1/bits/basic_string.h ****       explicit
 145:/usr/include/newlib/c++/9.2.1/bits/basic_string.h ****       basic_string(__sv_wrapper __svw, const _Alloc& __a)
 146:/usr/include/newlib/c++/9.2.1/bits/basic_string.h ****       : basic_string(__svw._M_sv.data(), __svw._M_sv.size(), __a) { }
 147:/usr/include/newlib/c++/9.2.1/bits/basic_string.h **** #endif
 148:/usr/include/newlib/c++/9.2.1/bits/basic_string.h **** 
 149:/usr/include/newlib/c++/9.2.1/bits/basic_string.h ****       // Use empty-base optimization: http://www.cantrip.org/emptyopt.html
 150:/usr/include/newlib/c++/9.2.1/bits/basic_string.h ****       struct _Alloc_hider : allocator_type // TODO check __is_final
 151:/usr/include/newlib/c++/9.2.1/bits/basic_string.h ****       {
 152:/usr/include/newlib/c++/9.2.1/bits/basic_string.h **** #if __cplusplus < 201103L
 153:/usr/include/newlib/c++/9.2.1/bits/basic_string.h **** 	_Alloc_hider(pointer __dat, const _Alloc& __a = _Alloc())
 154:/usr/include/newlib/c++/9.2.1/bits/basic_string.h **** 	: allocator_type(__a), _M_p(__dat) { }
 155:/usr/include/newlib/c++/9.2.1/bits/basic_string.h **** #else
 156:/usr/include/newlib/c++/9.2.1/bits/basic_string.h **** 	_Alloc_hider(pointer __dat, const _Alloc& __a)
 157:/usr/include/newlib/c++/9.2.1/bits/basic_string.h **** 	: allocator_type(__a), _M_p(__dat) { }
 6023              		.loc 19 157 35 view .LVU1441
 6024 008c 06AC     		add	r4, sp, #24
 6025              	.LBE1710:
 6026              	.LBE1709:
 6027              	.LBE1708:
 6028              	.LBE1707:
 6029              	.LBE1706:
  51:Svf.cpp       **** 
 6030              		.loc 16 51 20 view .LVU1442
 6031 008e FFF7FEFF 		bl	_ZN5daisy9Parameter4InitENS_13AnalogControlEffNS0_5CurveE
 6032              	.LVL468:
 6033              	.LBB1776:
 6034              	.LBI1776:
 6035              		.loc 3 23 5 is_stmt 1 view .LVU1443
 6036              		.loc 3 23 5 is_stmt 0 view .LVU1444
 6037              	.LBE1776:
  54:Svf.cpp       ****     char*       cstr = &str[0];
 6038              		.loc 16 54 5 is_stmt 1 view .LVU1445
 6039              	.LBB1777:
 6040              	.LBI1777:
 6041              		.file 20 "/usr/include/newlib/c++/9.2.1/bits/allocator.h"
   1:/usr/include/newlib/c++/9.2.1/bits/allocator.h **** // Allocators -*- C++ -*-
   2:/usr/include/newlib/c++/9.2.1/bits/allocator.h **** 
   3:/usr/include/newlib/c++/9.2.1/bits/allocator.h **** // Copyright (C) 2001-2019 Free Software Foundation, Inc.
   4:/usr/include/newlib/c++/9.2.1/bits/allocator.h **** //
   5:/usr/include/newlib/c++/9.2.1/bits/allocator.h **** // This file is part of the GNU ISO C++ Library.  This library is free
   6:/usr/include/newlib/c++/9.2.1/bits/allocator.h **** // software; you can redistribute it and/or modify it under the
   7:/usr/include/newlib/c++/9.2.1/bits/allocator.h **** // terms of the GNU General Public License as published by the
   8:/usr/include/newlib/c++/9.2.1/bits/allocator.h **** // Free Software Foundation; either version 3, or (at your option)
   9:/usr/include/newlib/c++/9.2.1/bits/allocator.h **** // any later version.
  10:/usr/include/newlib/c++/9.2.1/bits/allocator.h **** 
  11:/usr/include/newlib/c++/9.2.1/bits/allocator.h **** // This library is distributed in the hope that it will be useful,
  12:/usr/include/newlib/c++/9.2.1/bits/allocator.h **** // but WITHOUT ANY WARRANTY; without even the implied warranty of
  13:/usr/include/newlib/c++/9.2.1/bits/allocator.h **** // MERCHANTABILITY or FITNESS FOR A PARTICULAR PURPOSE.  See the
  14:/usr/include/newlib/c++/9.2.1/bits/allocator.h **** // GNU General Public License for more details.
  15:/usr/include/newlib/c++/9.2.1/bits/allocator.h **** 
  16:/usr/include/newlib/c++/9.2.1/bits/allocator.h **** // Under Section 7 of GPL version 3, you are granted additional
ARM GAS  /tmp/ccPAoVZi.s 			page 169


  17:/usr/include/newlib/c++/9.2.1/bits/allocator.h **** // permissions described in the GCC Runtime Library Exception, version
  18:/usr/include/newlib/c++/9.2.1/bits/allocator.h **** // 3.1, as published by the Free Software Foundation.
  19:/usr/include/newlib/c++/9.2.1/bits/allocator.h **** 
  20:/usr/include/newlib/c++/9.2.1/bits/allocator.h **** // You should have received a copy of the GNU General Public License and
  21:/usr/include/newlib/c++/9.2.1/bits/allocator.h **** // a copy of the GCC Runtime Library Exception along with this program;
  22:/usr/include/newlib/c++/9.2.1/bits/allocator.h **** // see the files COPYING3 and COPYING.RUNTIME respectively.  If not, see
  23:/usr/include/newlib/c++/9.2.1/bits/allocator.h **** // <http://www.gnu.org/licenses/>.
  24:/usr/include/newlib/c++/9.2.1/bits/allocator.h **** 
  25:/usr/include/newlib/c++/9.2.1/bits/allocator.h **** /*
  26:/usr/include/newlib/c++/9.2.1/bits/allocator.h ****  * Copyright (c) 1996-1997
  27:/usr/include/newlib/c++/9.2.1/bits/allocator.h ****  * Silicon Graphics Computer Systems, Inc.
  28:/usr/include/newlib/c++/9.2.1/bits/allocator.h ****  *
  29:/usr/include/newlib/c++/9.2.1/bits/allocator.h ****  * Permission to use, copy, modify, distribute and sell this software
  30:/usr/include/newlib/c++/9.2.1/bits/allocator.h ****  * and its documentation for any purpose is hereby granted without fee,
  31:/usr/include/newlib/c++/9.2.1/bits/allocator.h ****  * provided that the above copyright notice appear in all copies and
  32:/usr/include/newlib/c++/9.2.1/bits/allocator.h ****  * that both that copyright notice and this permission notice appear
  33:/usr/include/newlib/c++/9.2.1/bits/allocator.h ****  * in supporting documentation.  Silicon Graphics makes no
  34:/usr/include/newlib/c++/9.2.1/bits/allocator.h ****  * representations about the suitability of this software for any
  35:/usr/include/newlib/c++/9.2.1/bits/allocator.h ****  * purpose.  It is provided "as is" without express or implied warranty.
  36:/usr/include/newlib/c++/9.2.1/bits/allocator.h ****  */
  37:/usr/include/newlib/c++/9.2.1/bits/allocator.h **** 
  38:/usr/include/newlib/c++/9.2.1/bits/allocator.h **** /** @file bits/allocator.h
  39:/usr/include/newlib/c++/9.2.1/bits/allocator.h ****  *  This is an internal header file, included by other library headers.
  40:/usr/include/newlib/c++/9.2.1/bits/allocator.h ****  *  Do not attempt to use it directly. @headername{memory}
  41:/usr/include/newlib/c++/9.2.1/bits/allocator.h ****  */
  42:/usr/include/newlib/c++/9.2.1/bits/allocator.h **** 
  43:/usr/include/newlib/c++/9.2.1/bits/allocator.h **** #ifndef _ALLOCATOR_H
  44:/usr/include/newlib/c++/9.2.1/bits/allocator.h **** #define _ALLOCATOR_H 1
  45:/usr/include/newlib/c++/9.2.1/bits/allocator.h **** 
  46:/usr/include/newlib/c++/9.2.1/bits/allocator.h **** #include <bits/c++allocator.h> // Define the base class to std::allocator.
  47:/usr/include/newlib/c++/9.2.1/bits/allocator.h **** #include <bits/memoryfwd.h>
  48:/usr/include/newlib/c++/9.2.1/bits/allocator.h **** #if __cplusplus >= 201103L
  49:/usr/include/newlib/c++/9.2.1/bits/allocator.h **** #include <type_traits>
  50:/usr/include/newlib/c++/9.2.1/bits/allocator.h **** #endif
  51:/usr/include/newlib/c++/9.2.1/bits/allocator.h **** 
  52:/usr/include/newlib/c++/9.2.1/bits/allocator.h **** #define __cpp_lib_incomplete_container_elements 201505
  53:/usr/include/newlib/c++/9.2.1/bits/allocator.h **** #if __cplusplus >= 201103L
  54:/usr/include/newlib/c++/9.2.1/bits/allocator.h **** # define __cpp_lib_allocator_is_always_equal 201411
  55:/usr/include/newlib/c++/9.2.1/bits/allocator.h **** #endif
  56:/usr/include/newlib/c++/9.2.1/bits/allocator.h **** 
  57:/usr/include/newlib/c++/9.2.1/bits/allocator.h **** namespace std _GLIBCXX_VISIBILITY(default)
  58:/usr/include/newlib/c++/9.2.1/bits/allocator.h **** {
  59:/usr/include/newlib/c++/9.2.1/bits/allocator.h **** _GLIBCXX_BEGIN_NAMESPACE_VERSION
  60:/usr/include/newlib/c++/9.2.1/bits/allocator.h **** 
  61:/usr/include/newlib/c++/9.2.1/bits/allocator.h ****   /**
  62:/usr/include/newlib/c++/9.2.1/bits/allocator.h ****    *  @addtogroup allocators
  63:/usr/include/newlib/c++/9.2.1/bits/allocator.h ****    *  @{
  64:/usr/include/newlib/c++/9.2.1/bits/allocator.h ****    */
  65:/usr/include/newlib/c++/9.2.1/bits/allocator.h **** 
  66:/usr/include/newlib/c++/9.2.1/bits/allocator.h ****   /// allocator<void> specialization.
  67:/usr/include/newlib/c++/9.2.1/bits/allocator.h ****   template<>
  68:/usr/include/newlib/c++/9.2.1/bits/allocator.h ****     class allocator<void>
  69:/usr/include/newlib/c++/9.2.1/bits/allocator.h ****     {
  70:/usr/include/newlib/c++/9.2.1/bits/allocator.h ****     public:
  71:/usr/include/newlib/c++/9.2.1/bits/allocator.h ****       typedef size_t      size_type;
  72:/usr/include/newlib/c++/9.2.1/bits/allocator.h ****       typedef ptrdiff_t   difference_type;
  73:/usr/include/newlib/c++/9.2.1/bits/allocator.h ****       typedef void*       pointer;
ARM GAS  /tmp/ccPAoVZi.s 			page 170


  74:/usr/include/newlib/c++/9.2.1/bits/allocator.h ****       typedef const void* const_pointer;
  75:/usr/include/newlib/c++/9.2.1/bits/allocator.h ****       typedef void        value_type;
  76:/usr/include/newlib/c++/9.2.1/bits/allocator.h **** 
  77:/usr/include/newlib/c++/9.2.1/bits/allocator.h ****       template<typename _Tp1>
  78:/usr/include/newlib/c++/9.2.1/bits/allocator.h **** 	struct rebind
  79:/usr/include/newlib/c++/9.2.1/bits/allocator.h **** 	{ typedef allocator<_Tp1> other; };
  80:/usr/include/newlib/c++/9.2.1/bits/allocator.h **** 
  81:/usr/include/newlib/c++/9.2.1/bits/allocator.h **** #if __cplusplus >= 201103L
  82:/usr/include/newlib/c++/9.2.1/bits/allocator.h ****       // _GLIBCXX_RESOLVE_LIB_DEFECTS
  83:/usr/include/newlib/c++/9.2.1/bits/allocator.h ****       // 2103. std::allocator propagate_on_container_move_assignment
  84:/usr/include/newlib/c++/9.2.1/bits/allocator.h ****       typedef true_type propagate_on_container_move_assignment;
  85:/usr/include/newlib/c++/9.2.1/bits/allocator.h **** 
  86:/usr/include/newlib/c++/9.2.1/bits/allocator.h ****       typedef true_type is_always_equal;
  87:/usr/include/newlib/c++/9.2.1/bits/allocator.h **** 
  88:/usr/include/newlib/c++/9.2.1/bits/allocator.h ****       template<typename _Up, typename... _Args>
  89:/usr/include/newlib/c++/9.2.1/bits/allocator.h **** 	void
  90:/usr/include/newlib/c++/9.2.1/bits/allocator.h **** 	construct(_Up* __p, _Args&&... __args)
  91:/usr/include/newlib/c++/9.2.1/bits/allocator.h **** 	noexcept(noexcept(::new((void *)__p)
  92:/usr/include/newlib/c++/9.2.1/bits/allocator.h **** 			    _Up(std::forward<_Args>(__args)...)))
  93:/usr/include/newlib/c++/9.2.1/bits/allocator.h **** 	{ ::new((void *)__p) _Up(std::forward<_Args>(__args)...); }
  94:/usr/include/newlib/c++/9.2.1/bits/allocator.h **** 
  95:/usr/include/newlib/c++/9.2.1/bits/allocator.h ****       template<typename _Up>
  96:/usr/include/newlib/c++/9.2.1/bits/allocator.h **** 	void
  97:/usr/include/newlib/c++/9.2.1/bits/allocator.h **** 	destroy(_Up* __p)
  98:/usr/include/newlib/c++/9.2.1/bits/allocator.h **** 	noexcept(noexcept(__p->~_Up()))
  99:/usr/include/newlib/c++/9.2.1/bits/allocator.h **** 	{ __p->~_Up(); }
 100:/usr/include/newlib/c++/9.2.1/bits/allocator.h **** #endif
 101:/usr/include/newlib/c++/9.2.1/bits/allocator.h ****     };
 102:/usr/include/newlib/c++/9.2.1/bits/allocator.h **** 
 103:/usr/include/newlib/c++/9.2.1/bits/allocator.h ****   /**
 104:/usr/include/newlib/c++/9.2.1/bits/allocator.h ****    * @brief  The @a standard allocator, as per [20.4].
 105:/usr/include/newlib/c++/9.2.1/bits/allocator.h ****    *
 106:/usr/include/newlib/c++/9.2.1/bits/allocator.h ****    *  See https://gcc.gnu.org/onlinedocs/libstdc++/manual/memory.html#std.util.memory.allocator
 107:/usr/include/newlib/c++/9.2.1/bits/allocator.h ****    *  for further details.
 108:/usr/include/newlib/c++/9.2.1/bits/allocator.h ****    *
 109:/usr/include/newlib/c++/9.2.1/bits/allocator.h ****    *  @tparam  _Tp  Type of allocated object.
 110:/usr/include/newlib/c++/9.2.1/bits/allocator.h ****    */
 111:/usr/include/newlib/c++/9.2.1/bits/allocator.h ****   template<typename _Tp>
 112:/usr/include/newlib/c++/9.2.1/bits/allocator.h ****     class allocator : public __allocator_base<_Tp>
 113:/usr/include/newlib/c++/9.2.1/bits/allocator.h ****     {
 114:/usr/include/newlib/c++/9.2.1/bits/allocator.h ****    public:
 115:/usr/include/newlib/c++/9.2.1/bits/allocator.h ****       typedef size_t     size_type;
 116:/usr/include/newlib/c++/9.2.1/bits/allocator.h ****       typedef ptrdiff_t  difference_type;
 117:/usr/include/newlib/c++/9.2.1/bits/allocator.h ****       typedef _Tp*       pointer;
 118:/usr/include/newlib/c++/9.2.1/bits/allocator.h ****       typedef const _Tp* const_pointer;
 119:/usr/include/newlib/c++/9.2.1/bits/allocator.h ****       typedef _Tp&       reference;
 120:/usr/include/newlib/c++/9.2.1/bits/allocator.h ****       typedef const _Tp& const_reference;
 121:/usr/include/newlib/c++/9.2.1/bits/allocator.h ****       typedef _Tp        value_type;
 122:/usr/include/newlib/c++/9.2.1/bits/allocator.h **** 
 123:/usr/include/newlib/c++/9.2.1/bits/allocator.h ****       template<typename _Tp1>
 124:/usr/include/newlib/c++/9.2.1/bits/allocator.h **** 	struct rebind
 125:/usr/include/newlib/c++/9.2.1/bits/allocator.h **** 	{ typedef allocator<_Tp1> other; };
 126:/usr/include/newlib/c++/9.2.1/bits/allocator.h **** 
 127:/usr/include/newlib/c++/9.2.1/bits/allocator.h **** #if __cplusplus >= 201103L
 128:/usr/include/newlib/c++/9.2.1/bits/allocator.h ****       // _GLIBCXX_RESOLVE_LIB_DEFECTS
 129:/usr/include/newlib/c++/9.2.1/bits/allocator.h ****       // 2103. std::allocator propagate_on_container_move_assignment
 130:/usr/include/newlib/c++/9.2.1/bits/allocator.h ****       typedef true_type propagate_on_container_move_assignment;
ARM GAS  /tmp/ccPAoVZi.s 			page 171


 131:/usr/include/newlib/c++/9.2.1/bits/allocator.h **** 
 132:/usr/include/newlib/c++/9.2.1/bits/allocator.h ****       typedef true_type is_always_equal;
 133:/usr/include/newlib/c++/9.2.1/bits/allocator.h **** #endif
 134:/usr/include/newlib/c++/9.2.1/bits/allocator.h **** 
 135:/usr/include/newlib/c++/9.2.1/bits/allocator.h ****       // _GLIBCXX_RESOLVE_LIB_DEFECTS
 136:/usr/include/newlib/c++/9.2.1/bits/allocator.h ****       // 3035. std::allocator's constructors should be constexpr
 137:/usr/include/newlib/c++/9.2.1/bits/allocator.h ****       _GLIBCXX20_CONSTEXPR
 138:/usr/include/newlib/c++/9.2.1/bits/allocator.h ****       allocator() _GLIBCXX_NOTHROW { }
 6042              		.loc 20 138 7 view .LVU1446
 6043              	.LBB1778:
 6044              	.LBI1778:
 6045              		.file 21 "/usr/include/newlib/c++/9.2.1/ext/new_allocator.h"
   1:/usr/include/newlib/c++/9.2.1/ext/new_allocator.h **** // Allocator that wraps operator new -*- C++ -*-
   2:/usr/include/newlib/c++/9.2.1/ext/new_allocator.h **** 
   3:/usr/include/newlib/c++/9.2.1/ext/new_allocator.h **** // Copyright (C) 2001-2019 Free Software Foundation, Inc.
   4:/usr/include/newlib/c++/9.2.1/ext/new_allocator.h **** //
   5:/usr/include/newlib/c++/9.2.1/ext/new_allocator.h **** // This file is part of the GNU ISO C++ Library.  This library is free
   6:/usr/include/newlib/c++/9.2.1/ext/new_allocator.h **** // software; you can redistribute it and/or modify it under the
   7:/usr/include/newlib/c++/9.2.1/ext/new_allocator.h **** // terms of the GNU General Public License as published by the
   8:/usr/include/newlib/c++/9.2.1/ext/new_allocator.h **** // Free Software Foundation; either version 3, or (at your option)
   9:/usr/include/newlib/c++/9.2.1/ext/new_allocator.h **** // any later version.
  10:/usr/include/newlib/c++/9.2.1/ext/new_allocator.h **** 
  11:/usr/include/newlib/c++/9.2.1/ext/new_allocator.h **** // This library is distributed in the hope that it will be useful,
  12:/usr/include/newlib/c++/9.2.1/ext/new_allocator.h **** // but WITHOUT ANY WARRANTY; without even the implied warranty of
  13:/usr/include/newlib/c++/9.2.1/ext/new_allocator.h **** // MERCHANTABILITY or FITNESS FOR A PARTICULAR PURPOSE.  See the
  14:/usr/include/newlib/c++/9.2.1/ext/new_allocator.h **** // GNU General Public License for more details.
  15:/usr/include/newlib/c++/9.2.1/ext/new_allocator.h **** 
  16:/usr/include/newlib/c++/9.2.1/ext/new_allocator.h **** // Under Section 7 of GPL version 3, you are granted additional
  17:/usr/include/newlib/c++/9.2.1/ext/new_allocator.h **** // permissions described in the GCC Runtime Library Exception, version
  18:/usr/include/newlib/c++/9.2.1/ext/new_allocator.h **** // 3.1, as published by the Free Software Foundation.
  19:/usr/include/newlib/c++/9.2.1/ext/new_allocator.h **** 
  20:/usr/include/newlib/c++/9.2.1/ext/new_allocator.h **** // You should have received a copy of the GNU General Public License and
  21:/usr/include/newlib/c++/9.2.1/ext/new_allocator.h **** // a copy of the GCC Runtime Library Exception along with this program;
  22:/usr/include/newlib/c++/9.2.1/ext/new_allocator.h **** // see the files COPYING3 and COPYING.RUNTIME respectively.  If not, see
  23:/usr/include/newlib/c++/9.2.1/ext/new_allocator.h **** // <http://www.gnu.org/licenses/>.
  24:/usr/include/newlib/c++/9.2.1/ext/new_allocator.h **** 
  25:/usr/include/newlib/c++/9.2.1/ext/new_allocator.h **** /** @file ext/new_allocator.h
  26:/usr/include/newlib/c++/9.2.1/ext/new_allocator.h ****  *  This file is a GNU extension to the Standard C++ Library.
  27:/usr/include/newlib/c++/9.2.1/ext/new_allocator.h ****  */
  28:/usr/include/newlib/c++/9.2.1/ext/new_allocator.h **** 
  29:/usr/include/newlib/c++/9.2.1/ext/new_allocator.h **** #ifndef _NEW_ALLOCATOR_H
  30:/usr/include/newlib/c++/9.2.1/ext/new_allocator.h **** #define _NEW_ALLOCATOR_H 1
  31:/usr/include/newlib/c++/9.2.1/ext/new_allocator.h **** 
  32:/usr/include/newlib/c++/9.2.1/ext/new_allocator.h **** #include <bits/c++config.h>
  33:/usr/include/newlib/c++/9.2.1/ext/new_allocator.h **** #include <new>
  34:/usr/include/newlib/c++/9.2.1/ext/new_allocator.h **** #include <bits/functexcept.h>
  35:/usr/include/newlib/c++/9.2.1/ext/new_allocator.h **** #include <bits/move.h>
  36:/usr/include/newlib/c++/9.2.1/ext/new_allocator.h **** #if __cplusplus >= 201103L
  37:/usr/include/newlib/c++/9.2.1/ext/new_allocator.h **** #include <type_traits>
  38:/usr/include/newlib/c++/9.2.1/ext/new_allocator.h **** #endif
  39:/usr/include/newlib/c++/9.2.1/ext/new_allocator.h **** 
  40:/usr/include/newlib/c++/9.2.1/ext/new_allocator.h **** namespace __gnu_cxx _GLIBCXX_VISIBILITY(default)
  41:/usr/include/newlib/c++/9.2.1/ext/new_allocator.h **** {
  42:/usr/include/newlib/c++/9.2.1/ext/new_allocator.h **** _GLIBCXX_BEGIN_NAMESPACE_VERSION
  43:/usr/include/newlib/c++/9.2.1/ext/new_allocator.h **** 
  44:/usr/include/newlib/c++/9.2.1/ext/new_allocator.h ****   using std::size_t;
  45:/usr/include/newlib/c++/9.2.1/ext/new_allocator.h ****   using std::ptrdiff_t;
ARM GAS  /tmp/ccPAoVZi.s 			page 172


  46:/usr/include/newlib/c++/9.2.1/ext/new_allocator.h **** 
  47:/usr/include/newlib/c++/9.2.1/ext/new_allocator.h ****   /**
  48:/usr/include/newlib/c++/9.2.1/ext/new_allocator.h ****    *  @brief  An allocator that uses global new, as per [20.4].
  49:/usr/include/newlib/c++/9.2.1/ext/new_allocator.h ****    *  @ingroup allocators
  50:/usr/include/newlib/c++/9.2.1/ext/new_allocator.h ****    *
  51:/usr/include/newlib/c++/9.2.1/ext/new_allocator.h ****    *  This is precisely the allocator defined in the C++ Standard.
  52:/usr/include/newlib/c++/9.2.1/ext/new_allocator.h ****    *    - all allocation calls operator new
  53:/usr/include/newlib/c++/9.2.1/ext/new_allocator.h ****    *    - all deallocation calls operator delete
  54:/usr/include/newlib/c++/9.2.1/ext/new_allocator.h ****    *
  55:/usr/include/newlib/c++/9.2.1/ext/new_allocator.h ****    *  @tparam  _Tp  Type of allocated object.
  56:/usr/include/newlib/c++/9.2.1/ext/new_allocator.h ****    */
  57:/usr/include/newlib/c++/9.2.1/ext/new_allocator.h ****   template<typename _Tp>
  58:/usr/include/newlib/c++/9.2.1/ext/new_allocator.h ****     class new_allocator
  59:/usr/include/newlib/c++/9.2.1/ext/new_allocator.h ****     {
  60:/usr/include/newlib/c++/9.2.1/ext/new_allocator.h ****     public:
  61:/usr/include/newlib/c++/9.2.1/ext/new_allocator.h ****       typedef size_t     size_type;
  62:/usr/include/newlib/c++/9.2.1/ext/new_allocator.h ****       typedef ptrdiff_t  difference_type;
  63:/usr/include/newlib/c++/9.2.1/ext/new_allocator.h ****       typedef _Tp*       pointer;
  64:/usr/include/newlib/c++/9.2.1/ext/new_allocator.h ****       typedef const _Tp* const_pointer;
  65:/usr/include/newlib/c++/9.2.1/ext/new_allocator.h ****       typedef _Tp&       reference;
  66:/usr/include/newlib/c++/9.2.1/ext/new_allocator.h ****       typedef const _Tp& const_reference;
  67:/usr/include/newlib/c++/9.2.1/ext/new_allocator.h ****       typedef _Tp        value_type;
  68:/usr/include/newlib/c++/9.2.1/ext/new_allocator.h **** 
  69:/usr/include/newlib/c++/9.2.1/ext/new_allocator.h ****       template<typename _Tp1>
  70:/usr/include/newlib/c++/9.2.1/ext/new_allocator.h **** 	struct rebind
  71:/usr/include/newlib/c++/9.2.1/ext/new_allocator.h **** 	{ typedef new_allocator<_Tp1> other; };
  72:/usr/include/newlib/c++/9.2.1/ext/new_allocator.h **** 
  73:/usr/include/newlib/c++/9.2.1/ext/new_allocator.h **** #if __cplusplus >= 201103L
  74:/usr/include/newlib/c++/9.2.1/ext/new_allocator.h ****       // _GLIBCXX_RESOLVE_LIB_DEFECTS
  75:/usr/include/newlib/c++/9.2.1/ext/new_allocator.h ****       // 2103. propagate_on_container_move_assignment
  76:/usr/include/newlib/c++/9.2.1/ext/new_allocator.h ****       typedef std::true_type propagate_on_container_move_assignment;
  77:/usr/include/newlib/c++/9.2.1/ext/new_allocator.h **** #endif
  78:/usr/include/newlib/c++/9.2.1/ext/new_allocator.h **** 
  79:/usr/include/newlib/c++/9.2.1/ext/new_allocator.h ****       _GLIBCXX20_CONSTEXPR
  80:/usr/include/newlib/c++/9.2.1/ext/new_allocator.h ****       new_allocator() _GLIBCXX_USE_NOEXCEPT { }
 6046              		.loc 21 80 7 view .LVU1447
 6047              		.loc 21 80 7 is_stmt 0 view .LVU1448
 6048              	.LBE1778:
 6049              	.LBE1777:
 6050              	.LBB1779:
 6051              	.LBI1706:
 158:/usr/include/newlib/c++/9.2.1/bits/basic_string.h **** 
 159:/usr/include/newlib/c++/9.2.1/bits/basic_string.h **** 	_Alloc_hider(pointer __dat, _Alloc&& __a = _Alloc())
 160:/usr/include/newlib/c++/9.2.1/bits/basic_string.h **** 	: allocator_type(std::move(__a)), _M_p(__dat) { }
 161:/usr/include/newlib/c++/9.2.1/bits/basic_string.h **** #endif
 162:/usr/include/newlib/c++/9.2.1/bits/basic_string.h **** 
 163:/usr/include/newlib/c++/9.2.1/bits/basic_string.h **** 	pointer _M_p; // The actual data.
 164:/usr/include/newlib/c++/9.2.1/bits/basic_string.h ****       };
 165:/usr/include/newlib/c++/9.2.1/bits/basic_string.h **** 
 166:/usr/include/newlib/c++/9.2.1/bits/basic_string.h ****       _Alloc_hider	_M_dataplus;
 167:/usr/include/newlib/c++/9.2.1/bits/basic_string.h ****       size_type		_M_string_length;
 168:/usr/include/newlib/c++/9.2.1/bits/basic_string.h **** 
 169:/usr/include/newlib/c++/9.2.1/bits/basic_string.h ****       enum { _S_local_capacity = 15 / sizeof(_CharT) };
 170:/usr/include/newlib/c++/9.2.1/bits/basic_string.h **** 
 171:/usr/include/newlib/c++/9.2.1/bits/basic_string.h ****       union
 172:/usr/include/newlib/c++/9.2.1/bits/basic_string.h ****       {
 173:/usr/include/newlib/c++/9.2.1/bits/basic_string.h **** 	_CharT           _M_local_buf[_S_local_capacity + 1];
ARM GAS  /tmp/ccPAoVZi.s 			page 173


 174:/usr/include/newlib/c++/9.2.1/bits/basic_string.h **** 	size_type        _M_allocated_capacity;
 175:/usr/include/newlib/c++/9.2.1/bits/basic_string.h ****       };
 176:/usr/include/newlib/c++/9.2.1/bits/basic_string.h **** 
 177:/usr/include/newlib/c++/9.2.1/bits/basic_string.h ****       void
 178:/usr/include/newlib/c++/9.2.1/bits/basic_string.h ****       _M_data(pointer __p)
 179:/usr/include/newlib/c++/9.2.1/bits/basic_string.h ****       { _M_dataplus._M_p = __p; }
 180:/usr/include/newlib/c++/9.2.1/bits/basic_string.h **** 
 181:/usr/include/newlib/c++/9.2.1/bits/basic_string.h ****       void
 182:/usr/include/newlib/c++/9.2.1/bits/basic_string.h ****       _M_length(size_type __length)
 183:/usr/include/newlib/c++/9.2.1/bits/basic_string.h ****       { _M_string_length = __length; }
 184:/usr/include/newlib/c++/9.2.1/bits/basic_string.h **** 
 185:/usr/include/newlib/c++/9.2.1/bits/basic_string.h ****       pointer
 186:/usr/include/newlib/c++/9.2.1/bits/basic_string.h ****       _M_data() const
 187:/usr/include/newlib/c++/9.2.1/bits/basic_string.h ****       { return _M_dataplus._M_p; }
 188:/usr/include/newlib/c++/9.2.1/bits/basic_string.h **** 
 189:/usr/include/newlib/c++/9.2.1/bits/basic_string.h ****       pointer
 190:/usr/include/newlib/c++/9.2.1/bits/basic_string.h ****       _M_local_data()
 191:/usr/include/newlib/c++/9.2.1/bits/basic_string.h ****       {
 192:/usr/include/newlib/c++/9.2.1/bits/basic_string.h **** #if __cplusplus >= 201103L
 193:/usr/include/newlib/c++/9.2.1/bits/basic_string.h **** 	return std::pointer_traits<pointer>::pointer_to(*_M_local_buf);
 194:/usr/include/newlib/c++/9.2.1/bits/basic_string.h **** #else
 195:/usr/include/newlib/c++/9.2.1/bits/basic_string.h **** 	return pointer(_M_local_buf);
 196:/usr/include/newlib/c++/9.2.1/bits/basic_string.h **** #endif
 197:/usr/include/newlib/c++/9.2.1/bits/basic_string.h ****       }
 198:/usr/include/newlib/c++/9.2.1/bits/basic_string.h **** 
 199:/usr/include/newlib/c++/9.2.1/bits/basic_string.h ****       const_pointer
 200:/usr/include/newlib/c++/9.2.1/bits/basic_string.h ****       _M_local_data() const
 201:/usr/include/newlib/c++/9.2.1/bits/basic_string.h ****       {
 202:/usr/include/newlib/c++/9.2.1/bits/basic_string.h **** #if __cplusplus >= 201103L
 203:/usr/include/newlib/c++/9.2.1/bits/basic_string.h **** 	return std::pointer_traits<const_pointer>::pointer_to(*_M_local_buf);
 204:/usr/include/newlib/c++/9.2.1/bits/basic_string.h **** #else
 205:/usr/include/newlib/c++/9.2.1/bits/basic_string.h **** 	return const_pointer(_M_local_buf);
 206:/usr/include/newlib/c++/9.2.1/bits/basic_string.h **** #endif
 207:/usr/include/newlib/c++/9.2.1/bits/basic_string.h ****       }
 208:/usr/include/newlib/c++/9.2.1/bits/basic_string.h **** 
 209:/usr/include/newlib/c++/9.2.1/bits/basic_string.h ****       void
 210:/usr/include/newlib/c++/9.2.1/bits/basic_string.h ****       _M_capacity(size_type __capacity)
 211:/usr/include/newlib/c++/9.2.1/bits/basic_string.h ****       { _M_allocated_capacity = __capacity; }
 212:/usr/include/newlib/c++/9.2.1/bits/basic_string.h **** 
 213:/usr/include/newlib/c++/9.2.1/bits/basic_string.h ****       void
 214:/usr/include/newlib/c++/9.2.1/bits/basic_string.h ****       _M_set_length(size_type __n)
 215:/usr/include/newlib/c++/9.2.1/bits/basic_string.h ****       {
 216:/usr/include/newlib/c++/9.2.1/bits/basic_string.h **** 	_M_length(__n);
 217:/usr/include/newlib/c++/9.2.1/bits/basic_string.h **** 	traits_type::assign(_M_data()[__n], _CharT());
 218:/usr/include/newlib/c++/9.2.1/bits/basic_string.h ****       }
 219:/usr/include/newlib/c++/9.2.1/bits/basic_string.h **** 
 220:/usr/include/newlib/c++/9.2.1/bits/basic_string.h ****       bool
 221:/usr/include/newlib/c++/9.2.1/bits/basic_string.h ****       _M_is_local() const
 222:/usr/include/newlib/c++/9.2.1/bits/basic_string.h ****       { return _M_data() == _M_local_data(); }
 223:/usr/include/newlib/c++/9.2.1/bits/basic_string.h **** 
 224:/usr/include/newlib/c++/9.2.1/bits/basic_string.h ****       // Create & Destroy
 225:/usr/include/newlib/c++/9.2.1/bits/basic_string.h ****       pointer
 226:/usr/include/newlib/c++/9.2.1/bits/basic_string.h ****       _M_create(size_type&, size_type);
 227:/usr/include/newlib/c++/9.2.1/bits/basic_string.h **** 
 228:/usr/include/newlib/c++/9.2.1/bits/basic_string.h ****       void
 229:/usr/include/newlib/c++/9.2.1/bits/basic_string.h ****       _M_dispose()
 230:/usr/include/newlib/c++/9.2.1/bits/basic_string.h ****       {
ARM GAS  /tmp/ccPAoVZi.s 			page 174


 231:/usr/include/newlib/c++/9.2.1/bits/basic_string.h **** 	if (!_M_is_local())
 232:/usr/include/newlib/c++/9.2.1/bits/basic_string.h **** 	  _M_destroy(_M_allocated_capacity);
 233:/usr/include/newlib/c++/9.2.1/bits/basic_string.h ****       }
 234:/usr/include/newlib/c++/9.2.1/bits/basic_string.h **** 
 235:/usr/include/newlib/c++/9.2.1/bits/basic_string.h ****       void
 236:/usr/include/newlib/c++/9.2.1/bits/basic_string.h ****       _M_destroy(size_type __size) throw()
 237:/usr/include/newlib/c++/9.2.1/bits/basic_string.h ****       { _Alloc_traits::deallocate(_M_get_allocator(), _M_data(), __size + 1); }
 238:/usr/include/newlib/c++/9.2.1/bits/basic_string.h **** 
 239:/usr/include/newlib/c++/9.2.1/bits/basic_string.h ****       // _M_construct_aux is used to implement the 21.3.1 para 15 which
 240:/usr/include/newlib/c++/9.2.1/bits/basic_string.h ****       // requires special behaviour if _InIterator is an integral type
 241:/usr/include/newlib/c++/9.2.1/bits/basic_string.h ****       template<typename _InIterator>
 242:/usr/include/newlib/c++/9.2.1/bits/basic_string.h ****         void
 243:/usr/include/newlib/c++/9.2.1/bits/basic_string.h ****         _M_construct_aux(_InIterator __beg, _InIterator __end,
 244:/usr/include/newlib/c++/9.2.1/bits/basic_string.h **** 			 std::__false_type)
 245:/usr/include/newlib/c++/9.2.1/bits/basic_string.h **** 	{
 246:/usr/include/newlib/c++/9.2.1/bits/basic_string.h ****           typedef typename iterator_traits<_InIterator>::iterator_category _Tag;
 247:/usr/include/newlib/c++/9.2.1/bits/basic_string.h ****           _M_construct(__beg, __end, _Tag());
 248:/usr/include/newlib/c++/9.2.1/bits/basic_string.h **** 	}
 249:/usr/include/newlib/c++/9.2.1/bits/basic_string.h **** 
 250:/usr/include/newlib/c++/9.2.1/bits/basic_string.h ****       // _GLIBCXX_RESOLVE_LIB_DEFECTS
 251:/usr/include/newlib/c++/9.2.1/bits/basic_string.h ****       // 438. Ambiguity in the "do the right thing" clause
 252:/usr/include/newlib/c++/9.2.1/bits/basic_string.h ****       template<typename _Integer>
 253:/usr/include/newlib/c++/9.2.1/bits/basic_string.h ****         void
 254:/usr/include/newlib/c++/9.2.1/bits/basic_string.h ****         _M_construct_aux(_Integer __beg, _Integer __end, std::__true_type)
 255:/usr/include/newlib/c++/9.2.1/bits/basic_string.h **** 	{ _M_construct_aux_2(static_cast<size_type>(__beg), __end); }
 256:/usr/include/newlib/c++/9.2.1/bits/basic_string.h **** 
 257:/usr/include/newlib/c++/9.2.1/bits/basic_string.h ****       void
 258:/usr/include/newlib/c++/9.2.1/bits/basic_string.h ****       _M_construct_aux_2(size_type __req, _CharT __c)
 259:/usr/include/newlib/c++/9.2.1/bits/basic_string.h ****       { _M_construct(__req, __c); }
 260:/usr/include/newlib/c++/9.2.1/bits/basic_string.h **** 
 261:/usr/include/newlib/c++/9.2.1/bits/basic_string.h ****       template<typename _InIterator>
 262:/usr/include/newlib/c++/9.2.1/bits/basic_string.h ****         void
 263:/usr/include/newlib/c++/9.2.1/bits/basic_string.h ****         _M_construct(_InIterator __beg, _InIterator __end)
 264:/usr/include/newlib/c++/9.2.1/bits/basic_string.h **** 	{
 265:/usr/include/newlib/c++/9.2.1/bits/basic_string.h **** 	  typedef typename std::__is_integer<_InIterator>::__type _Integral;
 266:/usr/include/newlib/c++/9.2.1/bits/basic_string.h **** 	  _M_construct_aux(__beg, __end, _Integral());
 267:/usr/include/newlib/c++/9.2.1/bits/basic_string.h ****         }
 268:/usr/include/newlib/c++/9.2.1/bits/basic_string.h **** 
 269:/usr/include/newlib/c++/9.2.1/bits/basic_string.h ****       // For Input Iterators, used in istreambuf_iterators, etc.
 270:/usr/include/newlib/c++/9.2.1/bits/basic_string.h ****       template<typename _InIterator>
 271:/usr/include/newlib/c++/9.2.1/bits/basic_string.h ****         void
 272:/usr/include/newlib/c++/9.2.1/bits/basic_string.h ****         _M_construct(_InIterator __beg, _InIterator __end,
 273:/usr/include/newlib/c++/9.2.1/bits/basic_string.h **** 		     std::input_iterator_tag);
 274:/usr/include/newlib/c++/9.2.1/bits/basic_string.h **** 
 275:/usr/include/newlib/c++/9.2.1/bits/basic_string.h ****       // For forward_iterators up to random_access_iterators, used for
 276:/usr/include/newlib/c++/9.2.1/bits/basic_string.h ****       // string::iterator, _CharT*, etc.
 277:/usr/include/newlib/c++/9.2.1/bits/basic_string.h ****       template<typename _FwdIterator>
 278:/usr/include/newlib/c++/9.2.1/bits/basic_string.h ****         void
 279:/usr/include/newlib/c++/9.2.1/bits/basic_string.h ****         _M_construct(_FwdIterator __beg, _FwdIterator __end,
 280:/usr/include/newlib/c++/9.2.1/bits/basic_string.h **** 		     std::forward_iterator_tag);
 281:/usr/include/newlib/c++/9.2.1/bits/basic_string.h **** 
 282:/usr/include/newlib/c++/9.2.1/bits/basic_string.h ****       void
 283:/usr/include/newlib/c++/9.2.1/bits/basic_string.h ****       _M_construct(size_type __req, _CharT __c);
 284:/usr/include/newlib/c++/9.2.1/bits/basic_string.h **** 
 285:/usr/include/newlib/c++/9.2.1/bits/basic_string.h ****       allocator_type&
 286:/usr/include/newlib/c++/9.2.1/bits/basic_string.h ****       _M_get_allocator()
 287:/usr/include/newlib/c++/9.2.1/bits/basic_string.h ****       { return _M_dataplus; }
ARM GAS  /tmp/ccPAoVZi.s 			page 175


 288:/usr/include/newlib/c++/9.2.1/bits/basic_string.h **** 
 289:/usr/include/newlib/c++/9.2.1/bits/basic_string.h ****       const allocator_type&
 290:/usr/include/newlib/c++/9.2.1/bits/basic_string.h ****       _M_get_allocator() const
 291:/usr/include/newlib/c++/9.2.1/bits/basic_string.h ****       { return _M_dataplus; }
 292:/usr/include/newlib/c++/9.2.1/bits/basic_string.h **** 
 293:/usr/include/newlib/c++/9.2.1/bits/basic_string.h ****     private:
 294:/usr/include/newlib/c++/9.2.1/bits/basic_string.h **** 
 295:/usr/include/newlib/c++/9.2.1/bits/basic_string.h **** #ifdef _GLIBCXX_DISAMBIGUATE_REPLACE_INST
 296:/usr/include/newlib/c++/9.2.1/bits/basic_string.h ****       // The explicit instantiations in misc-inst.cc require this due to
 297:/usr/include/newlib/c++/9.2.1/bits/basic_string.h ****       // https://gcc.gnu.org/bugzilla/show_bug.cgi?id=64063
 298:/usr/include/newlib/c++/9.2.1/bits/basic_string.h ****       template<typename _Tp, bool _Requires =
 299:/usr/include/newlib/c++/9.2.1/bits/basic_string.h **** 	       !__are_same<_Tp, _CharT*>::__value
 300:/usr/include/newlib/c++/9.2.1/bits/basic_string.h **** 	       && !__are_same<_Tp, const _CharT*>::__value
 301:/usr/include/newlib/c++/9.2.1/bits/basic_string.h **** 	       && !__are_same<_Tp, iterator>::__value
 302:/usr/include/newlib/c++/9.2.1/bits/basic_string.h **** 	       && !__are_same<_Tp, const_iterator>::__value>
 303:/usr/include/newlib/c++/9.2.1/bits/basic_string.h **** 	struct __enable_if_not_native_iterator
 304:/usr/include/newlib/c++/9.2.1/bits/basic_string.h **** 	{ typedef basic_string& __type; };
 305:/usr/include/newlib/c++/9.2.1/bits/basic_string.h ****       template<typename _Tp>
 306:/usr/include/newlib/c++/9.2.1/bits/basic_string.h **** 	struct __enable_if_not_native_iterator<_Tp, false> { };
 307:/usr/include/newlib/c++/9.2.1/bits/basic_string.h **** #endif
 308:/usr/include/newlib/c++/9.2.1/bits/basic_string.h **** 
 309:/usr/include/newlib/c++/9.2.1/bits/basic_string.h ****       size_type
 310:/usr/include/newlib/c++/9.2.1/bits/basic_string.h ****       _M_check(size_type __pos, const char* __s) const
 311:/usr/include/newlib/c++/9.2.1/bits/basic_string.h ****       {
 312:/usr/include/newlib/c++/9.2.1/bits/basic_string.h **** 	if (__pos > this->size())
 313:/usr/include/newlib/c++/9.2.1/bits/basic_string.h **** 	  __throw_out_of_range_fmt(__N("%s: __pos (which is %zu) > "
 314:/usr/include/newlib/c++/9.2.1/bits/basic_string.h **** 				       "this->size() (which is %zu)"),
 315:/usr/include/newlib/c++/9.2.1/bits/basic_string.h **** 				   __s, __pos, this->size());
 316:/usr/include/newlib/c++/9.2.1/bits/basic_string.h **** 	return __pos;
 317:/usr/include/newlib/c++/9.2.1/bits/basic_string.h ****       }
 318:/usr/include/newlib/c++/9.2.1/bits/basic_string.h **** 
 319:/usr/include/newlib/c++/9.2.1/bits/basic_string.h ****       void
 320:/usr/include/newlib/c++/9.2.1/bits/basic_string.h ****       _M_check_length(size_type __n1, size_type __n2, const char* __s) const
 321:/usr/include/newlib/c++/9.2.1/bits/basic_string.h ****       {
 322:/usr/include/newlib/c++/9.2.1/bits/basic_string.h **** 	if (this->max_size() - (this->size() - __n1) < __n2)
 323:/usr/include/newlib/c++/9.2.1/bits/basic_string.h **** 	  __throw_length_error(__N(__s));
 324:/usr/include/newlib/c++/9.2.1/bits/basic_string.h ****       }
 325:/usr/include/newlib/c++/9.2.1/bits/basic_string.h **** 
 326:/usr/include/newlib/c++/9.2.1/bits/basic_string.h **** 
 327:/usr/include/newlib/c++/9.2.1/bits/basic_string.h ****       // NB: _M_limit doesn't check for a bad __pos value.
 328:/usr/include/newlib/c++/9.2.1/bits/basic_string.h ****       size_type
 329:/usr/include/newlib/c++/9.2.1/bits/basic_string.h ****       _M_limit(size_type __pos, size_type __off) const _GLIBCXX_NOEXCEPT
 330:/usr/include/newlib/c++/9.2.1/bits/basic_string.h ****       {
 331:/usr/include/newlib/c++/9.2.1/bits/basic_string.h **** 	const bool __testoff =  __off < this->size() - __pos;
 332:/usr/include/newlib/c++/9.2.1/bits/basic_string.h **** 	return __testoff ? __off : this->size() - __pos;
 333:/usr/include/newlib/c++/9.2.1/bits/basic_string.h ****       }
 334:/usr/include/newlib/c++/9.2.1/bits/basic_string.h **** 
 335:/usr/include/newlib/c++/9.2.1/bits/basic_string.h ****       // True if _Rep and source do not overlap.
 336:/usr/include/newlib/c++/9.2.1/bits/basic_string.h ****       bool
 337:/usr/include/newlib/c++/9.2.1/bits/basic_string.h ****       _M_disjunct(const _CharT* __s) const _GLIBCXX_NOEXCEPT
 338:/usr/include/newlib/c++/9.2.1/bits/basic_string.h ****       {
 339:/usr/include/newlib/c++/9.2.1/bits/basic_string.h **** 	return (less<const _CharT*>()(__s, _M_data())
 340:/usr/include/newlib/c++/9.2.1/bits/basic_string.h **** 		|| less<const _CharT*>()(_M_data() + this->size(), __s));
 341:/usr/include/newlib/c++/9.2.1/bits/basic_string.h ****       }
 342:/usr/include/newlib/c++/9.2.1/bits/basic_string.h **** 
 343:/usr/include/newlib/c++/9.2.1/bits/basic_string.h ****       // When __n = 1 way faster than the general multichar
 344:/usr/include/newlib/c++/9.2.1/bits/basic_string.h ****       // traits_type::copy/move/assign.
ARM GAS  /tmp/ccPAoVZi.s 			page 176


 345:/usr/include/newlib/c++/9.2.1/bits/basic_string.h ****       static void
 346:/usr/include/newlib/c++/9.2.1/bits/basic_string.h ****       _S_copy(_CharT* __d, const _CharT* __s, size_type __n)
 347:/usr/include/newlib/c++/9.2.1/bits/basic_string.h ****       {
 348:/usr/include/newlib/c++/9.2.1/bits/basic_string.h **** 	if (__n == 1)
 349:/usr/include/newlib/c++/9.2.1/bits/basic_string.h **** 	  traits_type::assign(*__d, *__s);
 350:/usr/include/newlib/c++/9.2.1/bits/basic_string.h **** 	else
 351:/usr/include/newlib/c++/9.2.1/bits/basic_string.h **** 	  traits_type::copy(__d, __s, __n);
 352:/usr/include/newlib/c++/9.2.1/bits/basic_string.h ****       }
 353:/usr/include/newlib/c++/9.2.1/bits/basic_string.h **** 
 354:/usr/include/newlib/c++/9.2.1/bits/basic_string.h ****       static void
 355:/usr/include/newlib/c++/9.2.1/bits/basic_string.h ****       _S_move(_CharT* __d, const _CharT* __s, size_type __n)
 356:/usr/include/newlib/c++/9.2.1/bits/basic_string.h ****       {
 357:/usr/include/newlib/c++/9.2.1/bits/basic_string.h **** 	if (__n == 1)
 358:/usr/include/newlib/c++/9.2.1/bits/basic_string.h **** 	  traits_type::assign(*__d, *__s);
 359:/usr/include/newlib/c++/9.2.1/bits/basic_string.h **** 	else
 360:/usr/include/newlib/c++/9.2.1/bits/basic_string.h **** 	  traits_type::move(__d, __s, __n);
 361:/usr/include/newlib/c++/9.2.1/bits/basic_string.h ****       }
 362:/usr/include/newlib/c++/9.2.1/bits/basic_string.h **** 
 363:/usr/include/newlib/c++/9.2.1/bits/basic_string.h ****       static void
 364:/usr/include/newlib/c++/9.2.1/bits/basic_string.h ****       _S_assign(_CharT* __d, size_type __n, _CharT __c)
 365:/usr/include/newlib/c++/9.2.1/bits/basic_string.h ****       {
 366:/usr/include/newlib/c++/9.2.1/bits/basic_string.h **** 	if (__n == 1)
 367:/usr/include/newlib/c++/9.2.1/bits/basic_string.h **** 	  traits_type::assign(*__d, __c);
 368:/usr/include/newlib/c++/9.2.1/bits/basic_string.h **** 	else
 369:/usr/include/newlib/c++/9.2.1/bits/basic_string.h **** 	  traits_type::assign(__d, __n, __c);
 370:/usr/include/newlib/c++/9.2.1/bits/basic_string.h ****       }
 371:/usr/include/newlib/c++/9.2.1/bits/basic_string.h **** 
 372:/usr/include/newlib/c++/9.2.1/bits/basic_string.h ****       // _S_copy_chars is a separate template to permit specialization
 373:/usr/include/newlib/c++/9.2.1/bits/basic_string.h ****       // to optimize for the common case of pointers as iterators.
 374:/usr/include/newlib/c++/9.2.1/bits/basic_string.h ****       template<class _Iterator>
 375:/usr/include/newlib/c++/9.2.1/bits/basic_string.h ****         static void
 376:/usr/include/newlib/c++/9.2.1/bits/basic_string.h ****         _S_copy_chars(_CharT* __p, _Iterator __k1, _Iterator __k2)
 377:/usr/include/newlib/c++/9.2.1/bits/basic_string.h ****         {
 378:/usr/include/newlib/c++/9.2.1/bits/basic_string.h **** 	  for (; __k1 != __k2; ++__k1, (void)++__p)
 379:/usr/include/newlib/c++/9.2.1/bits/basic_string.h **** 	    traits_type::assign(*__p, *__k1); // These types are off.
 380:/usr/include/newlib/c++/9.2.1/bits/basic_string.h **** 	}
 381:/usr/include/newlib/c++/9.2.1/bits/basic_string.h **** 
 382:/usr/include/newlib/c++/9.2.1/bits/basic_string.h ****       static void
 383:/usr/include/newlib/c++/9.2.1/bits/basic_string.h ****       _S_copy_chars(_CharT* __p, iterator __k1, iterator __k2) _GLIBCXX_NOEXCEPT
 384:/usr/include/newlib/c++/9.2.1/bits/basic_string.h ****       { _S_copy_chars(__p, __k1.base(), __k2.base()); }
 385:/usr/include/newlib/c++/9.2.1/bits/basic_string.h **** 
 386:/usr/include/newlib/c++/9.2.1/bits/basic_string.h ****       static void
 387:/usr/include/newlib/c++/9.2.1/bits/basic_string.h ****       _S_copy_chars(_CharT* __p, const_iterator __k1, const_iterator __k2)
 388:/usr/include/newlib/c++/9.2.1/bits/basic_string.h ****       _GLIBCXX_NOEXCEPT
 389:/usr/include/newlib/c++/9.2.1/bits/basic_string.h ****       { _S_copy_chars(__p, __k1.base(), __k2.base()); }
 390:/usr/include/newlib/c++/9.2.1/bits/basic_string.h **** 
 391:/usr/include/newlib/c++/9.2.1/bits/basic_string.h ****       static void
 392:/usr/include/newlib/c++/9.2.1/bits/basic_string.h ****       _S_copy_chars(_CharT* __p, _CharT* __k1, _CharT* __k2) _GLIBCXX_NOEXCEPT
 393:/usr/include/newlib/c++/9.2.1/bits/basic_string.h ****       { _S_copy(__p, __k1, __k2 - __k1); }
 394:/usr/include/newlib/c++/9.2.1/bits/basic_string.h **** 
 395:/usr/include/newlib/c++/9.2.1/bits/basic_string.h ****       static void
 396:/usr/include/newlib/c++/9.2.1/bits/basic_string.h ****       _S_copy_chars(_CharT* __p, const _CharT* __k1, const _CharT* __k2)
 397:/usr/include/newlib/c++/9.2.1/bits/basic_string.h ****       _GLIBCXX_NOEXCEPT
 398:/usr/include/newlib/c++/9.2.1/bits/basic_string.h ****       { _S_copy(__p, __k1, __k2 - __k1); }
 399:/usr/include/newlib/c++/9.2.1/bits/basic_string.h **** 
 400:/usr/include/newlib/c++/9.2.1/bits/basic_string.h ****       static int
 401:/usr/include/newlib/c++/9.2.1/bits/basic_string.h ****       _S_compare(size_type __n1, size_type __n2) _GLIBCXX_NOEXCEPT
ARM GAS  /tmp/ccPAoVZi.s 			page 177


 402:/usr/include/newlib/c++/9.2.1/bits/basic_string.h ****       {
 403:/usr/include/newlib/c++/9.2.1/bits/basic_string.h **** 	const difference_type __d = difference_type(__n1 - __n2);
 404:/usr/include/newlib/c++/9.2.1/bits/basic_string.h **** 
 405:/usr/include/newlib/c++/9.2.1/bits/basic_string.h **** 	if (__d > __gnu_cxx::__numeric_traits<int>::__max)
 406:/usr/include/newlib/c++/9.2.1/bits/basic_string.h **** 	  return __gnu_cxx::__numeric_traits<int>::__max;
 407:/usr/include/newlib/c++/9.2.1/bits/basic_string.h **** 	else if (__d < __gnu_cxx::__numeric_traits<int>::__min)
 408:/usr/include/newlib/c++/9.2.1/bits/basic_string.h **** 	  return __gnu_cxx::__numeric_traits<int>::__min;
 409:/usr/include/newlib/c++/9.2.1/bits/basic_string.h **** 	else
 410:/usr/include/newlib/c++/9.2.1/bits/basic_string.h **** 	  return int(__d);
 411:/usr/include/newlib/c++/9.2.1/bits/basic_string.h ****       }
 412:/usr/include/newlib/c++/9.2.1/bits/basic_string.h **** 
 413:/usr/include/newlib/c++/9.2.1/bits/basic_string.h ****       void
 414:/usr/include/newlib/c++/9.2.1/bits/basic_string.h ****       _M_assign(const basic_string&);
 415:/usr/include/newlib/c++/9.2.1/bits/basic_string.h **** 
 416:/usr/include/newlib/c++/9.2.1/bits/basic_string.h ****       void
 417:/usr/include/newlib/c++/9.2.1/bits/basic_string.h ****       _M_mutate(size_type __pos, size_type __len1, const _CharT* __s,
 418:/usr/include/newlib/c++/9.2.1/bits/basic_string.h **** 		size_type __len2);
 419:/usr/include/newlib/c++/9.2.1/bits/basic_string.h **** 
 420:/usr/include/newlib/c++/9.2.1/bits/basic_string.h ****       void
 421:/usr/include/newlib/c++/9.2.1/bits/basic_string.h ****       _M_erase(size_type __pos, size_type __n);
 422:/usr/include/newlib/c++/9.2.1/bits/basic_string.h **** 
 423:/usr/include/newlib/c++/9.2.1/bits/basic_string.h ****     public:
 424:/usr/include/newlib/c++/9.2.1/bits/basic_string.h ****       // Construct/copy/destroy:
 425:/usr/include/newlib/c++/9.2.1/bits/basic_string.h ****       // NB: We overload ctors in some cases instead of using default
 426:/usr/include/newlib/c++/9.2.1/bits/basic_string.h ****       // arguments, per 17.4.4.4 para. 2 item 2.
 427:/usr/include/newlib/c++/9.2.1/bits/basic_string.h **** 
 428:/usr/include/newlib/c++/9.2.1/bits/basic_string.h ****       /**
 429:/usr/include/newlib/c++/9.2.1/bits/basic_string.h ****        *  @brief  Default constructor creates an empty string.
 430:/usr/include/newlib/c++/9.2.1/bits/basic_string.h ****        */
 431:/usr/include/newlib/c++/9.2.1/bits/basic_string.h ****       basic_string()
 432:/usr/include/newlib/c++/9.2.1/bits/basic_string.h ****       _GLIBCXX_NOEXCEPT_IF(is_nothrow_default_constructible<_Alloc>::value)
 433:/usr/include/newlib/c++/9.2.1/bits/basic_string.h ****       : _M_dataplus(_M_local_data())
 434:/usr/include/newlib/c++/9.2.1/bits/basic_string.h ****       { _M_set_length(0); }
 435:/usr/include/newlib/c++/9.2.1/bits/basic_string.h **** 
 436:/usr/include/newlib/c++/9.2.1/bits/basic_string.h ****       /**
 437:/usr/include/newlib/c++/9.2.1/bits/basic_string.h ****        *  @brief  Construct an empty string using allocator @a a.
 438:/usr/include/newlib/c++/9.2.1/bits/basic_string.h ****        */
 439:/usr/include/newlib/c++/9.2.1/bits/basic_string.h ****       explicit
 440:/usr/include/newlib/c++/9.2.1/bits/basic_string.h ****       basic_string(const _Alloc& __a) _GLIBCXX_NOEXCEPT
 441:/usr/include/newlib/c++/9.2.1/bits/basic_string.h ****       : _M_dataplus(_M_local_data(), __a)
 442:/usr/include/newlib/c++/9.2.1/bits/basic_string.h ****       { _M_set_length(0); }
 443:/usr/include/newlib/c++/9.2.1/bits/basic_string.h **** 
 444:/usr/include/newlib/c++/9.2.1/bits/basic_string.h ****       /**
 445:/usr/include/newlib/c++/9.2.1/bits/basic_string.h ****        *  @brief  Construct string with copy of value of @a __str.
 446:/usr/include/newlib/c++/9.2.1/bits/basic_string.h ****        *  @param  __str  Source string.
 447:/usr/include/newlib/c++/9.2.1/bits/basic_string.h ****        */
 448:/usr/include/newlib/c++/9.2.1/bits/basic_string.h ****       basic_string(const basic_string& __str)
 449:/usr/include/newlib/c++/9.2.1/bits/basic_string.h ****       : _M_dataplus(_M_local_data(),
 450:/usr/include/newlib/c++/9.2.1/bits/basic_string.h **** 		    _Alloc_traits::_S_select_on_copy(__str._M_get_allocator()))
 451:/usr/include/newlib/c++/9.2.1/bits/basic_string.h ****       { _M_construct(__str._M_data(), __str._M_data() + __str.length()); }
 452:/usr/include/newlib/c++/9.2.1/bits/basic_string.h **** 
 453:/usr/include/newlib/c++/9.2.1/bits/basic_string.h ****       // _GLIBCXX_RESOLVE_LIB_DEFECTS
 454:/usr/include/newlib/c++/9.2.1/bits/basic_string.h ****       // 2583. no way to supply an allocator for basic_string(str, pos)
 455:/usr/include/newlib/c++/9.2.1/bits/basic_string.h ****       /**
 456:/usr/include/newlib/c++/9.2.1/bits/basic_string.h ****        *  @brief  Construct string as copy of a substring.
 457:/usr/include/newlib/c++/9.2.1/bits/basic_string.h ****        *  @param  __str  Source string.
 458:/usr/include/newlib/c++/9.2.1/bits/basic_string.h ****        *  @param  __pos  Index of first character to copy from.
ARM GAS  /tmp/ccPAoVZi.s 			page 178


 459:/usr/include/newlib/c++/9.2.1/bits/basic_string.h ****        *  @param  __a  Allocator to use.
 460:/usr/include/newlib/c++/9.2.1/bits/basic_string.h ****        */
 461:/usr/include/newlib/c++/9.2.1/bits/basic_string.h ****       basic_string(const basic_string& __str, size_type __pos,
 462:/usr/include/newlib/c++/9.2.1/bits/basic_string.h **** 		   const _Alloc& __a = _Alloc())
 463:/usr/include/newlib/c++/9.2.1/bits/basic_string.h ****       : _M_dataplus(_M_local_data(), __a)
 464:/usr/include/newlib/c++/9.2.1/bits/basic_string.h ****       {
 465:/usr/include/newlib/c++/9.2.1/bits/basic_string.h **** 	const _CharT* __start = __str._M_data()
 466:/usr/include/newlib/c++/9.2.1/bits/basic_string.h **** 	  + __str._M_check(__pos, "basic_string::basic_string");
 467:/usr/include/newlib/c++/9.2.1/bits/basic_string.h **** 	_M_construct(__start, __start + __str._M_limit(__pos, npos));
 468:/usr/include/newlib/c++/9.2.1/bits/basic_string.h ****       }
 469:/usr/include/newlib/c++/9.2.1/bits/basic_string.h **** 
 470:/usr/include/newlib/c++/9.2.1/bits/basic_string.h ****       /**
 471:/usr/include/newlib/c++/9.2.1/bits/basic_string.h ****        *  @brief  Construct string as copy of a substring.
 472:/usr/include/newlib/c++/9.2.1/bits/basic_string.h ****        *  @param  __str  Source string.
 473:/usr/include/newlib/c++/9.2.1/bits/basic_string.h ****        *  @param  __pos  Index of first character to copy from.
 474:/usr/include/newlib/c++/9.2.1/bits/basic_string.h ****        *  @param  __n  Number of characters to copy.
 475:/usr/include/newlib/c++/9.2.1/bits/basic_string.h ****        */
 476:/usr/include/newlib/c++/9.2.1/bits/basic_string.h ****       basic_string(const basic_string& __str, size_type __pos,
 477:/usr/include/newlib/c++/9.2.1/bits/basic_string.h **** 		   size_type __n)
 478:/usr/include/newlib/c++/9.2.1/bits/basic_string.h ****       : _M_dataplus(_M_local_data())
 479:/usr/include/newlib/c++/9.2.1/bits/basic_string.h ****       {
 480:/usr/include/newlib/c++/9.2.1/bits/basic_string.h **** 	const _CharT* __start = __str._M_data()
 481:/usr/include/newlib/c++/9.2.1/bits/basic_string.h **** 	  + __str._M_check(__pos, "basic_string::basic_string");
 482:/usr/include/newlib/c++/9.2.1/bits/basic_string.h **** 	_M_construct(__start, __start + __str._M_limit(__pos, __n));
 483:/usr/include/newlib/c++/9.2.1/bits/basic_string.h ****       }
 484:/usr/include/newlib/c++/9.2.1/bits/basic_string.h **** 
 485:/usr/include/newlib/c++/9.2.1/bits/basic_string.h ****       /**
 486:/usr/include/newlib/c++/9.2.1/bits/basic_string.h ****        *  @brief  Construct string as copy of a substring.
 487:/usr/include/newlib/c++/9.2.1/bits/basic_string.h ****        *  @param  __str  Source string.
 488:/usr/include/newlib/c++/9.2.1/bits/basic_string.h ****        *  @param  __pos  Index of first character to copy from.
 489:/usr/include/newlib/c++/9.2.1/bits/basic_string.h ****        *  @param  __n  Number of characters to copy.
 490:/usr/include/newlib/c++/9.2.1/bits/basic_string.h ****        *  @param  __a  Allocator to use.
 491:/usr/include/newlib/c++/9.2.1/bits/basic_string.h ****        */
 492:/usr/include/newlib/c++/9.2.1/bits/basic_string.h ****       basic_string(const basic_string& __str, size_type __pos,
 493:/usr/include/newlib/c++/9.2.1/bits/basic_string.h **** 		   size_type __n, const _Alloc& __a)
 494:/usr/include/newlib/c++/9.2.1/bits/basic_string.h ****       : _M_dataplus(_M_local_data(), __a)
 495:/usr/include/newlib/c++/9.2.1/bits/basic_string.h ****       {
 496:/usr/include/newlib/c++/9.2.1/bits/basic_string.h **** 	const _CharT* __start
 497:/usr/include/newlib/c++/9.2.1/bits/basic_string.h **** 	  = __str._M_data() + __str._M_check(__pos, "string::string");
 498:/usr/include/newlib/c++/9.2.1/bits/basic_string.h **** 	_M_construct(__start, __start + __str._M_limit(__pos, __n));
 499:/usr/include/newlib/c++/9.2.1/bits/basic_string.h ****       }
 500:/usr/include/newlib/c++/9.2.1/bits/basic_string.h **** 
 501:/usr/include/newlib/c++/9.2.1/bits/basic_string.h ****       /**
 502:/usr/include/newlib/c++/9.2.1/bits/basic_string.h ****        *  @brief  Construct string initialized by a character %array.
 503:/usr/include/newlib/c++/9.2.1/bits/basic_string.h ****        *  @param  __s  Source character %array.
 504:/usr/include/newlib/c++/9.2.1/bits/basic_string.h ****        *  @param  __n  Number of characters to copy.
 505:/usr/include/newlib/c++/9.2.1/bits/basic_string.h ****        *  @param  __a  Allocator to use (default is default allocator).
 506:/usr/include/newlib/c++/9.2.1/bits/basic_string.h ****        *
 507:/usr/include/newlib/c++/9.2.1/bits/basic_string.h ****        *  NB: @a __s must have at least @a __n characters, &apos;\\0&apos;
 508:/usr/include/newlib/c++/9.2.1/bits/basic_string.h ****        *  has no special meaning.
 509:/usr/include/newlib/c++/9.2.1/bits/basic_string.h ****        */
 510:/usr/include/newlib/c++/9.2.1/bits/basic_string.h ****       basic_string(const _CharT* __s, size_type __n,
 511:/usr/include/newlib/c++/9.2.1/bits/basic_string.h **** 		   const _Alloc& __a = _Alloc())
 512:/usr/include/newlib/c++/9.2.1/bits/basic_string.h ****       : _M_dataplus(_M_local_data(), __a)
 513:/usr/include/newlib/c++/9.2.1/bits/basic_string.h ****       { _M_construct(__s, __s + __n); }
 514:/usr/include/newlib/c++/9.2.1/bits/basic_string.h **** 
 515:/usr/include/newlib/c++/9.2.1/bits/basic_string.h ****       /**
ARM GAS  /tmp/ccPAoVZi.s 			page 179


 516:/usr/include/newlib/c++/9.2.1/bits/basic_string.h ****        *  @brief  Construct string as copy of a C string.
 517:/usr/include/newlib/c++/9.2.1/bits/basic_string.h ****        *  @param  __s  Source C string.
 518:/usr/include/newlib/c++/9.2.1/bits/basic_string.h ****        *  @param  __a  Allocator to use (default is default allocator).
 519:/usr/include/newlib/c++/9.2.1/bits/basic_string.h ****        */
 520:/usr/include/newlib/c++/9.2.1/bits/basic_string.h **** #if __cpp_deduction_guides && ! defined _GLIBCXX_DEFINING_STRING_INSTANTIATIONS
 521:/usr/include/newlib/c++/9.2.1/bits/basic_string.h ****       // _GLIBCXX_RESOLVE_LIB_DEFECTS
 522:/usr/include/newlib/c++/9.2.1/bits/basic_string.h ****       // 3076. basic_string CTAD ambiguity
 523:/usr/include/newlib/c++/9.2.1/bits/basic_string.h ****       template<typename = _RequireAllocator<_Alloc>>
 524:/usr/include/newlib/c++/9.2.1/bits/basic_string.h **** #endif
 525:/usr/include/newlib/c++/9.2.1/bits/basic_string.h ****       basic_string(const _CharT* __s, const _Alloc& __a = _Alloc())
 6052              		.loc 19 525 7 is_stmt 1 view .LVU1449
 6053              	.LBB1773:
 6054              	.LBB1715:
 6055              	.LBI1715:
 190:/usr/include/newlib/c++/9.2.1/bits/basic_string.h ****       {
 6056              		.loc 19 190 7 view .LVU1450
 190:/usr/include/newlib/c++/9.2.1/bits/basic_string.h ****       {
 6057              		.loc 19 190 7 is_stmt 0 view .LVU1451
 6058              	.LBE1715:
 6059              	.LBB1716:
 6060              	.LBI1708:
 156:/usr/include/newlib/c++/9.2.1/bits/basic_string.h **** 	: allocator_type(__a), _M_p(__dat) { }
 6061              		.loc 19 156 2 is_stmt 1 view .LVU1452
 6062              	.LBB1714:
 6063              	.LBB1713:
 6064              	.LBB1711:
 6065              	.LBI1711:
 139:/usr/include/newlib/c++/9.2.1/bits/allocator.h **** 
 140:/usr/include/newlib/c++/9.2.1/bits/allocator.h ****       _GLIBCXX20_CONSTEXPR
 141:/usr/include/newlib/c++/9.2.1/bits/allocator.h ****       allocator(const allocator& __a) _GLIBCXX_NOTHROW
 6066              		.loc 20 141 7 view .LVU1453
 6067              	.LBB1712:
 6068              	.LBI1712:
  81:/usr/include/newlib/c++/9.2.1/ext/new_allocator.h **** 
  82:/usr/include/newlib/c++/9.2.1/ext/new_allocator.h ****       _GLIBCXX20_CONSTEXPR
  83:/usr/include/newlib/c++/9.2.1/ext/new_allocator.h ****       new_allocator(const new_allocator&) _GLIBCXX_USE_NOEXCEPT { }
 6069              		.loc 21 83 7 view .LVU1454
 6070              		.loc 21 83 7 is_stmt 0 view .LVU1455
 6071              	.LBE1712:
 6072              	.LBE1711:
 6073              	.LBE1713:
 6074              	.LBE1714:
 6075              	.LBE1716:
 6076              	.LBB1717:
 6077              	.LBB1718:
 6078              	.LBB1719:
 6079              	.LBB1720:
 6080              	.LBB1721:
 6081              	.LBB1722:
 6082              		.file 22 "/usr/include/newlib/c++/9.2.1/bits/basic_string.tcc"
   1:/usr/include/newlib/c++/9.2.1/bits/basic_string.tcc **** // Components for manipulating sequences of characters -*- C++ -*-
   2:/usr/include/newlib/c++/9.2.1/bits/basic_string.tcc **** 
   3:/usr/include/newlib/c++/9.2.1/bits/basic_string.tcc **** // Copyright (C) 1997-2019 Free Software Foundation, Inc.
   4:/usr/include/newlib/c++/9.2.1/bits/basic_string.tcc **** //
   5:/usr/include/newlib/c++/9.2.1/bits/basic_string.tcc **** // This file is part of the GNU ISO C++ Library.  This library is free
   6:/usr/include/newlib/c++/9.2.1/bits/basic_string.tcc **** // software; you can redistribute it and/or modify it under the
   7:/usr/include/newlib/c++/9.2.1/bits/basic_string.tcc **** // terms of the GNU General Public License as published by the
ARM GAS  /tmp/ccPAoVZi.s 			page 180


   8:/usr/include/newlib/c++/9.2.1/bits/basic_string.tcc **** // Free Software Foundation; either version 3, or (at your option)
   9:/usr/include/newlib/c++/9.2.1/bits/basic_string.tcc **** // any later version.
  10:/usr/include/newlib/c++/9.2.1/bits/basic_string.tcc **** 
  11:/usr/include/newlib/c++/9.2.1/bits/basic_string.tcc **** // This library is distributed in the hope that it will be useful,
  12:/usr/include/newlib/c++/9.2.1/bits/basic_string.tcc **** // but WITHOUT ANY WARRANTY; without even the implied warranty of
  13:/usr/include/newlib/c++/9.2.1/bits/basic_string.tcc **** // MERCHANTABILITY or FITNESS FOR A PARTICULAR PURPOSE.  See the
  14:/usr/include/newlib/c++/9.2.1/bits/basic_string.tcc **** // GNU General Public License for more details.
  15:/usr/include/newlib/c++/9.2.1/bits/basic_string.tcc **** 
  16:/usr/include/newlib/c++/9.2.1/bits/basic_string.tcc **** // Under Section 7 of GPL version 3, you are granted additional
  17:/usr/include/newlib/c++/9.2.1/bits/basic_string.tcc **** // permissions described in the GCC Runtime Library Exception, version
  18:/usr/include/newlib/c++/9.2.1/bits/basic_string.tcc **** // 3.1, as published by the Free Software Foundation.
  19:/usr/include/newlib/c++/9.2.1/bits/basic_string.tcc **** 
  20:/usr/include/newlib/c++/9.2.1/bits/basic_string.tcc **** // You should have received a copy of the GNU General Public License and
  21:/usr/include/newlib/c++/9.2.1/bits/basic_string.tcc **** // a copy of the GCC Runtime Library Exception along with this program;
  22:/usr/include/newlib/c++/9.2.1/bits/basic_string.tcc **** // see the files COPYING3 and COPYING.RUNTIME respectively.  If not, see
  23:/usr/include/newlib/c++/9.2.1/bits/basic_string.tcc **** // <http://www.gnu.org/licenses/>.
  24:/usr/include/newlib/c++/9.2.1/bits/basic_string.tcc **** 
  25:/usr/include/newlib/c++/9.2.1/bits/basic_string.tcc **** /** @file bits/basic_string.tcc
  26:/usr/include/newlib/c++/9.2.1/bits/basic_string.tcc ****  *  This is an internal header file, included by other library headers.
  27:/usr/include/newlib/c++/9.2.1/bits/basic_string.tcc ****  *  Do not attempt to use it directly. @headername{string}
  28:/usr/include/newlib/c++/9.2.1/bits/basic_string.tcc ****  */
  29:/usr/include/newlib/c++/9.2.1/bits/basic_string.tcc **** 
  30:/usr/include/newlib/c++/9.2.1/bits/basic_string.tcc **** //
  31:/usr/include/newlib/c++/9.2.1/bits/basic_string.tcc **** // ISO C++ 14882: 21  Strings library
  32:/usr/include/newlib/c++/9.2.1/bits/basic_string.tcc **** //
  33:/usr/include/newlib/c++/9.2.1/bits/basic_string.tcc **** 
  34:/usr/include/newlib/c++/9.2.1/bits/basic_string.tcc **** // Written by Jason Merrill based upon the specification by Takanori Adachi
  35:/usr/include/newlib/c++/9.2.1/bits/basic_string.tcc **** // in ANSI X3J16/94-0013R2.  Rewritten by Nathan Myers to ISO-14882.
  36:/usr/include/newlib/c++/9.2.1/bits/basic_string.tcc **** // Non-reference-counted implementation written by Paolo Carlini and
  37:/usr/include/newlib/c++/9.2.1/bits/basic_string.tcc **** // updated by Jonathan Wakely for ISO-14882-2011.
  38:/usr/include/newlib/c++/9.2.1/bits/basic_string.tcc **** 
  39:/usr/include/newlib/c++/9.2.1/bits/basic_string.tcc **** #ifndef _BASIC_STRING_TCC
  40:/usr/include/newlib/c++/9.2.1/bits/basic_string.tcc **** #define _BASIC_STRING_TCC 1
  41:/usr/include/newlib/c++/9.2.1/bits/basic_string.tcc **** 
  42:/usr/include/newlib/c++/9.2.1/bits/basic_string.tcc **** #pragma GCC system_header
  43:/usr/include/newlib/c++/9.2.1/bits/basic_string.tcc **** 
  44:/usr/include/newlib/c++/9.2.1/bits/basic_string.tcc **** #include <bits/cxxabi_forced.h>
  45:/usr/include/newlib/c++/9.2.1/bits/basic_string.tcc **** 
  46:/usr/include/newlib/c++/9.2.1/bits/basic_string.tcc **** namespace std _GLIBCXX_VISIBILITY(default)
  47:/usr/include/newlib/c++/9.2.1/bits/basic_string.tcc **** {
  48:/usr/include/newlib/c++/9.2.1/bits/basic_string.tcc **** _GLIBCXX_BEGIN_NAMESPACE_VERSION
  49:/usr/include/newlib/c++/9.2.1/bits/basic_string.tcc **** 
  50:/usr/include/newlib/c++/9.2.1/bits/basic_string.tcc **** #if _GLIBCXX_USE_CXX11_ABI
  51:/usr/include/newlib/c++/9.2.1/bits/basic_string.tcc **** 
  52:/usr/include/newlib/c++/9.2.1/bits/basic_string.tcc ****   template<typename _CharT, typename _Traits, typename _Alloc>
  53:/usr/include/newlib/c++/9.2.1/bits/basic_string.tcc ****     const typename basic_string<_CharT, _Traits, _Alloc>::size_type
  54:/usr/include/newlib/c++/9.2.1/bits/basic_string.tcc ****     basic_string<_CharT, _Traits, _Alloc>::npos;
  55:/usr/include/newlib/c++/9.2.1/bits/basic_string.tcc **** 
  56:/usr/include/newlib/c++/9.2.1/bits/basic_string.tcc ****   template<typename _CharT, typename _Traits, typename _Alloc>
  57:/usr/include/newlib/c++/9.2.1/bits/basic_string.tcc ****     void
  58:/usr/include/newlib/c++/9.2.1/bits/basic_string.tcc ****     basic_string<_CharT, _Traits, _Alloc>::
  59:/usr/include/newlib/c++/9.2.1/bits/basic_string.tcc ****     swap(basic_string& __s) _GLIBCXX_NOEXCEPT
  60:/usr/include/newlib/c++/9.2.1/bits/basic_string.tcc ****     {
  61:/usr/include/newlib/c++/9.2.1/bits/basic_string.tcc ****       if (this == &__s)
  62:/usr/include/newlib/c++/9.2.1/bits/basic_string.tcc **** 	return;
  63:/usr/include/newlib/c++/9.2.1/bits/basic_string.tcc **** 
  64:/usr/include/newlib/c++/9.2.1/bits/basic_string.tcc ****       _Alloc_traits::_S_on_swap(_M_get_allocator(), __s._M_get_allocator());
ARM GAS  /tmp/ccPAoVZi.s 			page 181


  65:/usr/include/newlib/c++/9.2.1/bits/basic_string.tcc **** 
  66:/usr/include/newlib/c++/9.2.1/bits/basic_string.tcc ****       if (_M_is_local())
  67:/usr/include/newlib/c++/9.2.1/bits/basic_string.tcc **** 	if (__s._M_is_local())
  68:/usr/include/newlib/c++/9.2.1/bits/basic_string.tcc **** 	  {
  69:/usr/include/newlib/c++/9.2.1/bits/basic_string.tcc **** 	    if (length() && __s.length())
  70:/usr/include/newlib/c++/9.2.1/bits/basic_string.tcc **** 	      {
  71:/usr/include/newlib/c++/9.2.1/bits/basic_string.tcc **** 		_CharT __tmp_data[_S_local_capacity + 1];
  72:/usr/include/newlib/c++/9.2.1/bits/basic_string.tcc **** 		traits_type::copy(__tmp_data, __s._M_local_buf,
  73:/usr/include/newlib/c++/9.2.1/bits/basic_string.tcc **** 				  _S_local_capacity + 1);
  74:/usr/include/newlib/c++/9.2.1/bits/basic_string.tcc **** 		traits_type::copy(__s._M_local_buf, _M_local_buf,
  75:/usr/include/newlib/c++/9.2.1/bits/basic_string.tcc **** 				  _S_local_capacity + 1);
  76:/usr/include/newlib/c++/9.2.1/bits/basic_string.tcc **** 		traits_type::copy(_M_local_buf, __tmp_data,
  77:/usr/include/newlib/c++/9.2.1/bits/basic_string.tcc **** 				  _S_local_capacity + 1);
  78:/usr/include/newlib/c++/9.2.1/bits/basic_string.tcc **** 	      }
  79:/usr/include/newlib/c++/9.2.1/bits/basic_string.tcc **** 	    else if (__s.length())
  80:/usr/include/newlib/c++/9.2.1/bits/basic_string.tcc **** 	      {
  81:/usr/include/newlib/c++/9.2.1/bits/basic_string.tcc **** 		traits_type::copy(_M_local_buf, __s._M_local_buf,
  82:/usr/include/newlib/c++/9.2.1/bits/basic_string.tcc **** 				  _S_local_capacity + 1);
  83:/usr/include/newlib/c++/9.2.1/bits/basic_string.tcc **** 		_M_length(__s.length());
  84:/usr/include/newlib/c++/9.2.1/bits/basic_string.tcc **** 		__s._M_set_length(0);
  85:/usr/include/newlib/c++/9.2.1/bits/basic_string.tcc **** 		return;
  86:/usr/include/newlib/c++/9.2.1/bits/basic_string.tcc **** 	      }
  87:/usr/include/newlib/c++/9.2.1/bits/basic_string.tcc **** 	    else if (length())
  88:/usr/include/newlib/c++/9.2.1/bits/basic_string.tcc **** 	      {
  89:/usr/include/newlib/c++/9.2.1/bits/basic_string.tcc **** 		traits_type::copy(__s._M_local_buf, _M_local_buf,
  90:/usr/include/newlib/c++/9.2.1/bits/basic_string.tcc **** 				  _S_local_capacity + 1);
  91:/usr/include/newlib/c++/9.2.1/bits/basic_string.tcc **** 		__s._M_length(length());
  92:/usr/include/newlib/c++/9.2.1/bits/basic_string.tcc **** 		_M_set_length(0);
  93:/usr/include/newlib/c++/9.2.1/bits/basic_string.tcc **** 		return;
  94:/usr/include/newlib/c++/9.2.1/bits/basic_string.tcc **** 	      }
  95:/usr/include/newlib/c++/9.2.1/bits/basic_string.tcc **** 	  }
  96:/usr/include/newlib/c++/9.2.1/bits/basic_string.tcc **** 	else
  97:/usr/include/newlib/c++/9.2.1/bits/basic_string.tcc **** 	  {
  98:/usr/include/newlib/c++/9.2.1/bits/basic_string.tcc **** 	    const size_type __tmp_capacity = __s._M_allocated_capacity;
  99:/usr/include/newlib/c++/9.2.1/bits/basic_string.tcc **** 	    traits_type::copy(__s._M_local_buf, _M_local_buf,
 100:/usr/include/newlib/c++/9.2.1/bits/basic_string.tcc **** 			      _S_local_capacity + 1);
 101:/usr/include/newlib/c++/9.2.1/bits/basic_string.tcc **** 	    _M_data(__s._M_data());
 102:/usr/include/newlib/c++/9.2.1/bits/basic_string.tcc **** 	    __s._M_data(__s._M_local_buf);
 103:/usr/include/newlib/c++/9.2.1/bits/basic_string.tcc **** 	    _M_capacity(__tmp_capacity);
 104:/usr/include/newlib/c++/9.2.1/bits/basic_string.tcc **** 	  }
 105:/usr/include/newlib/c++/9.2.1/bits/basic_string.tcc ****       else
 106:/usr/include/newlib/c++/9.2.1/bits/basic_string.tcc **** 	{
 107:/usr/include/newlib/c++/9.2.1/bits/basic_string.tcc **** 	  const size_type __tmp_capacity = _M_allocated_capacity;
 108:/usr/include/newlib/c++/9.2.1/bits/basic_string.tcc **** 	  if (__s._M_is_local())
 109:/usr/include/newlib/c++/9.2.1/bits/basic_string.tcc **** 	    {
 110:/usr/include/newlib/c++/9.2.1/bits/basic_string.tcc **** 	      traits_type::copy(_M_local_buf, __s._M_local_buf,
 111:/usr/include/newlib/c++/9.2.1/bits/basic_string.tcc **** 				_S_local_capacity + 1);
 112:/usr/include/newlib/c++/9.2.1/bits/basic_string.tcc **** 	      __s._M_data(_M_data());
 113:/usr/include/newlib/c++/9.2.1/bits/basic_string.tcc **** 	      _M_data(_M_local_buf);
 114:/usr/include/newlib/c++/9.2.1/bits/basic_string.tcc **** 	    }
 115:/usr/include/newlib/c++/9.2.1/bits/basic_string.tcc **** 	  else
 116:/usr/include/newlib/c++/9.2.1/bits/basic_string.tcc **** 	    {
 117:/usr/include/newlib/c++/9.2.1/bits/basic_string.tcc **** 	      pointer __tmp_ptr = _M_data();
 118:/usr/include/newlib/c++/9.2.1/bits/basic_string.tcc **** 	      _M_data(__s._M_data());
 119:/usr/include/newlib/c++/9.2.1/bits/basic_string.tcc **** 	      __s._M_data(__tmp_ptr);
 120:/usr/include/newlib/c++/9.2.1/bits/basic_string.tcc **** 	      _M_capacity(__s._M_allocated_capacity);
 121:/usr/include/newlib/c++/9.2.1/bits/basic_string.tcc **** 	    }
ARM GAS  /tmp/ccPAoVZi.s 			page 182


 122:/usr/include/newlib/c++/9.2.1/bits/basic_string.tcc **** 	  __s._M_capacity(__tmp_capacity);
 123:/usr/include/newlib/c++/9.2.1/bits/basic_string.tcc **** 	}
 124:/usr/include/newlib/c++/9.2.1/bits/basic_string.tcc **** 
 125:/usr/include/newlib/c++/9.2.1/bits/basic_string.tcc ****       const size_type __tmp_length = length();
 126:/usr/include/newlib/c++/9.2.1/bits/basic_string.tcc ****       _M_length(__s.length());
 127:/usr/include/newlib/c++/9.2.1/bits/basic_string.tcc ****       __s._M_length(__tmp_length);
 128:/usr/include/newlib/c++/9.2.1/bits/basic_string.tcc ****     }
 129:/usr/include/newlib/c++/9.2.1/bits/basic_string.tcc **** 
 130:/usr/include/newlib/c++/9.2.1/bits/basic_string.tcc ****   template<typename _CharT, typename _Traits, typename _Alloc>
 131:/usr/include/newlib/c++/9.2.1/bits/basic_string.tcc ****     typename basic_string<_CharT, _Traits, _Alloc>::pointer
 132:/usr/include/newlib/c++/9.2.1/bits/basic_string.tcc ****     basic_string<_CharT, _Traits, _Alloc>::
 133:/usr/include/newlib/c++/9.2.1/bits/basic_string.tcc ****     _M_create(size_type& __capacity, size_type __old_capacity)
 134:/usr/include/newlib/c++/9.2.1/bits/basic_string.tcc ****     {
 135:/usr/include/newlib/c++/9.2.1/bits/basic_string.tcc ****       // _GLIBCXX_RESOLVE_LIB_DEFECTS
 136:/usr/include/newlib/c++/9.2.1/bits/basic_string.tcc ****       // 83.  String::npos vs. string::max_size()
 137:/usr/include/newlib/c++/9.2.1/bits/basic_string.tcc ****       if (__capacity > max_size())
 138:/usr/include/newlib/c++/9.2.1/bits/basic_string.tcc **** 	std::__throw_length_error(__N("basic_string::_M_create"));
 139:/usr/include/newlib/c++/9.2.1/bits/basic_string.tcc **** 
 140:/usr/include/newlib/c++/9.2.1/bits/basic_string.tcc ****       // The below implements an exponential growth policy, necessary to
 141:/usr/include/newlib/c++/9.2.1/bits/basic_string.tcc ****       // meet amortized linear time requirements of the library: see
 142:/usr/include/newlib/c++/9.2.1/bits/basic_string.tcc ****       // http://gcc.gnu.org/ml/libstdc++/2001-07/msg00085.html.
 143:/usr/include/newlib/c++/9.2.1/bits/basic_string.tcc ****       if (__capacity > __old_capacity && __capacity < 2 * __old_capacity)
 144:/usr/include/newlib/c++/9.2.1/bits/basic_string.tcc **** 	{
 145:/usr/include/newlib/c++/9.2.1/bits/basic_string.tcc **** 	  __capacity = 2 * __old_capacity;
 146:/usr/include/newlib/c++/9.2.1/bits/basic_string.tcc **** 	  // Never allocate a string bigger than max_size.
 147:/usr/include/newlib/c++/9.2.1/bits/basic_string.tcc **** 	  if (__capacity > max_size())
 148:/usr/include/newlib/c++/9.2.1/bits/basic_string.tcc **** 	    __capacity = max_size();
 149:/usr/include/newlib/c++/9.2.1/bits/basic_string.tcc **** 	}
 150:/usr/include/newlib/c++/9.2.1/bits/basic_string.tcc **** 
 151:/usr/include/newlib/c++/9.2.1/bits/basic_string.tcc ****       // NB: Need an array of char_type[__capacity], plus a terminating
 152:/usr/include/newlib/c++/9.2.1/bits/basic_string.tcc ****       // null char_type() element.
 153:/usr/include/newlib/c++/9.2.1/bits/basic_string.tcc ****       return _Alloc_traits::allocate(_M_get_allocator(), __capacity + 1);
 154:/usr/include/newlib/c++/9.2.1/bits/basic_string.tcc ****     }
 155:/usr/include/newlib/c++/9.2.1/bits/basic_string.tcc **** 
 156:/usr/include/newlib/c++/9.2.1/bits/basic_string.tcc ****   // NB: This is the special case for Input Iterators, used in
 157:/usr/include/newlib/c++/9.2.1/bits/basic_string.tcc ****   // istreambuf_iterators, etc.
 158:/usr/include/newlib/c++/9.2.1/bits/basic_string.tcc ****   // Input Iterators have a cost structure very different from
 159:/usr/include/newlib/c++/9.2.1/bits/basic_string.tcc ****   // pointers, calling for a different coding style.
 160:/usr/include/newlib/c++/9.2.1/bits/basic_string.tcc ****   template<typename _CharT, typename _Traits, typename _Alloc>
 161:/usr/include/newlib/c++/9.2.1/bits/basic_string.tcc ****     template<typename _InIterator>
 162:/usr/include/newlib/c++/9.2.1/bits/basic_string.tcc ****       void
 163:/usr/include/newlib/c++/9.2.1/bits/basic_string.tcc ****       basic_string<_CharT, _Traits, _Alloc>::
 164:/usr/include/newlib/c++/9.2.1/bits/basic_string.tcc ****       _M_construct(_InIterator __beg, _InIterator __end,
 165:/usr/include/newlib/c++/9.2.1/bits/basic_string.tcc **** 		   std::input_iterator_tag)
 166:/usr/include/newlib/c++/9.2.1/bits/basic_string.tcc ****       {
 167:/usr/include/newlib/c++/9.2.1/bits/basic_string.tcc **** 	size_type __len = 0;
 168:/usr/include/newlib/c++/9.2.1/bits/basic_string.tcc **** 	size_type __capacity = size_type(_S_local_capacity);
 169:/usr/include/newlib/c++/9.2.1/bits/basic_string.tcc **** 
 170:/usr/include/newlib/c++/9.2.1/bits/basic_string.tcc **** 	while (__beg != __end && __len < __capacity)
 171:/usr/include/newlib/c++/9.2.1/bits/basic_string.tcc **** 	  {
 172:/usr/include/newlib/c++/9.2.1/bits/basic_string.tcc **** 	    _M_data()[__len++] = *__beg;
 173:/usr/include/newlib/c++/9.2.1/bits/basic_string.tcc **** 	    ++__beg;
 174:/usr/include/newlib/c++/9.2.1/bits/basic_string.tcc **** 	  }
 175:/usr/include/newlib/c++/9.2.1/bits/basic_string.tcc **** 
 176:/usr/include/newlib/c++/9.2.1/bits/basic_string.tcc **** 	__try
 177:/usr/include/newlib/c++/9.2.1/bits/basic_string.tcc **** 	  {
 178:/usr/include/newlib/c++/9.2.1/bits/basic_string.tcc **** 	    while (__beg != __end)
ARM GAS  /tmp/ccPAoVZi.s 			page 183


 179:/usr/include/newlib/c++/9.2.1/bits/basic_string.tcc **** 	      {
 180:/usr/include/newlib/c++/9.2.1/bits/basic_string.tcc **** 		if (__len == __capacity)
 181:/usr/include/newlib/c++/9.2.1/bits/basic_string.tcc **** 		  {
 182:/usr/include/newlib/c++/9.2.1/bits/basic_string.tcc **** 		    // Allocate more space.
 183:/usr/include/newlib/c++/9.2.1/bits/basic_string.tcc **** 		    __capacity = __len + 1;
 184:/usr/include/newlib/c++/9.2.1/bits/basic_string.tcc **** 		    pointer __another = _M_create(__capacity, __len);
 185:/usr/include/newlib/c++/9.2.1/bits/basic_string.tcc **** 		    this->_S_copy(__another, _M_data(), __len);
 186:/usr/include/newlib/c++/9.2.1/bits/basic_string.tcc **** 		    _M_dispose();
 187:/usr/include/newlib/c++/9.2.1/bits/basic_string.tcc **** 		    _M_data(__another);
 188:/usr/include/newlib/c++/9.2.1/bits/basic_string.tcc **** 		    _M_capacity(__capacity);
 189:/usr/include/newlib/c++/9.2.1/bits/basic_string.tcc **** 		  }
 190:/usr/include/newlib/c++/9.2.1/bits/basic_string.tcc **** 		_M_data()[__len++] = *__beg;
 191:/usr/include/newlib/c++/9.2.1/bits/basic_string.tcc **** 		++__beg;
 192:/usr/include/newlib/c++/9.2.1/bits/basic_string.tcc **** 	      }
 193:/usr/include/newlib/c++/9.2.1/bits/basic_string.tcc **** 	  }
 194:/usr/include/newlib/c++/9.2.1/bits/basic_string.tcc **** 	__catch(...)
 195:/usr/include/newlib/c++/9.2.1/bits/basic_string.tcc **** 	  {
 196:/usr/include/newlib/c++/9.2.1/bits/basic_string.tcc **** 	    _M_dispose();
 197:/usr/include/newlib/c++/9.2.1/bits/basic_string.tcc **** 	    __throw_exception_again;
 198:/usr/include/newlib/c++/9.2.1/bits/basic_string.tcc **** 	  }
 199:/usr/include/newlib/c++/9.2.1/bits/basic_string.tcc **** 
 200:/usr/include/newlib/c++/9.2.1/bits/basic_string.tcc **** 	_M_set_length(__len);
 201:/usr/include/newlib/c++/9.2.1/bits/basic_string.tcc ****       }
 202:/usr/include/newlib/c++/9.2.1/bits/basic_string.tcc **** 
 203:/usr/include/newlib/c++/9.2.1/bits/basic_string.tcc ****   template<typename _CharT, typename _Traits, typename _Alloc>
 204:/usr/include/newlib/c++/9.2.1/bits/basic_string.tcc ****     template<typename _InIterator>
 205:/usr/include/newlib/c++/9.2.1/bits/basic_string.tcc ****       void
 206:/usr/include/newlib/c++/9.2.1/bits/basic_string.tcc ****       basic_string<_CharT, _Traits, _Alloc>::
 207:/usr/include/newlib/c++/9.2.1/bits/basic_string.tcc ****       _M_construct(_InIterator __beg, _InIterator __end,
 208:/usr/include/newlib/c++/9.2.1/bits/basic_string.tcc **** 		   std::forward_iterator_tag)
 209:/usr/include/newlib/c++/9.2.1/bits/basic_string.tcc ****       {
 210:/usr/include/newlib/c++/9.2.1/bits/basic_string.tcc **** 	// NB: Not required, but considered best practice.
 211:/usr/include/newlib/c++/9.2.1/bits/basic_string.tcc **** 	if (__gnu_cxx::__is_null_pointer(__beg) && __beg != __end)
 212:/usr/include/newlib/c++/9.2.1/bits/basic_string.tcc **** 	  std::__throw_logic_error(__N("basic_string::"
 213:/usr/include/newlib/c++/9.2.1/bits/basic_string.tcc **** 				       "_M_construct null not valid"));
 214:/usr/include/newlib/c++/9.2.1/bits/basic_string.tcc **** 
 215:/usr/include/newlib/c++/9.2.1/bits/basic_string.tcc **** 	size_type __dnew = static_cast<size_type>(std::distance(__beg, __end));
 6083              		.loc 22 215 12 view .LVU1456
 6084 0092 1123     		movs	r3, #17
 216:/usr/include/newlib/c++/9.2.1/bits/basic_string.tcc **** 
 217:/usr/include/newlib/c++/9.2.1/bits/basic_string.tcc **** 	if (__dnew > size_type(_S_local_capacity))
 218:/usr/include/newlib/c++/9.2.1/bits/basic_string.tcc **** 	  {
 219:/usr/include/newlib/c++/9.2.1/bits/basic_string.tcc **** 	    _M_data(_M_create(__dnew, size_type(0)));
 6085              		.loc 22 219 6 view .LVU1457
 6086 0094 0022     		movs	r2, #0
 6087 0096 03A9     		add	r1, sp, #12
 6088 0098 04A8     		add	r0, sp, #16
 6089              	.LVL469:
 6090              	.LBB1723:
 6091              	.LBB1724:
 6092              	.LBB1725:
 6093              	.LBB1726:
 6094              	.LBB1727:
 6095              		.file 23 "/usr/include/newlib/c++/9.2.1/bits/char_traits.h"
   1:/usr/include/newlib/c++/9.2.1/bits/char_traits.h **** // Character Traits for use by standard string and iostream -*- C++ -*-
   2:/usr/include/newlib/c++/9.2.1/bits/char_traits.h **** 
   3:/usr/include/newlib/c++/9.2.1/bits/char_traits.h **** // Copyright (C) 1997-2019 Free Software Foundation, Inc.
ARM GAS  /tmp/ccPAoVZi.s 			page 184


   4:/usr/include/newlib/c++/9.2.1/bits/char_traits.h **** //
   5:/usr/include/newlib/c++/9.2.1/bits/char_traits.h **** // This file is part of the GNU ISO C++ Library.  This library is free
   6:/usr/include/newlib/c++/9.2.1/bits/char_traits.h **** // software; you can redistribute it and/or modify it under the
   7:/usr/include/newlib/c++/9.2.1/bits/char_traits.h **** // terms of the GNU General Public License as published by the
   8:/usr/include/newlib/c++/9.2.1/bits/char_traits.h **** // Free Software Foundation; either version 3, or (at your option)
   9:/usr/include/newlib/c++/9.2.1/bits/char_traits.h **** // any later version.
  10:/usr/include/newlib/c++/9.2.1/bits/char_traits.h **** 
  11:/usr/include/newlib/c++/9.2.1/bits/char_traits.h **** // This library is distributed in the hope that it will be useful,
  12:/usr/include/newlib/c++/9.2.1/bits/char_traits.h **** // but WITHOUT ANY WARRANTY; without even the implied warranty of
  13:/usr/include/newlib/c++/9.2.1/bits/char_traits.h **** // MERCHANTABILITY or FITNESS FOR A PARTICULAR PURPOSE.  See the
  14:/usr/include/newlib/c++/9.2.1/bits/char_traits.h **** // GNU General Public License for more details.
  15:/usr/include/newlib/c++/9.2.1/bits/char_traits.h **** 
  16:/usr/include/newlib/c++/9.2.1/bits/char_traits.h **** // Under Section 7 of GPL version 3, you are granted additional
  17:/usr/include/newlib/c++/9.2.1/bits/char_traits.h **** // permissions described in the GCC Runtime Library Exception, version
  18:/usr/include/newlib/c++/9.2.1/bits/char_traits.h **** // 3.1, as published by the Free Software Foundation.
  19:/usr/include/newlib/c++/9.2.1/bits/char_traits.h **** 
  20:/usr/include/newlib/c++/9.2.1/bits/char_traits.h **** // You should have received a copy of the GNU General Public License and
  21:/usr/include/newlib/c++/9.2.1/bits/char_traits.h **** // a copy of the GCC Runtime Library Exception along with this program;
  22:/usr/include/newlib/c++/9.2.1/bits/char_traits.h **** // see the files COPYING3 and COPYING.RUNTIME respectively.  If not, see
  23:/usr/include/newlib/c++/9.2.1/bits/char_traits.h **** // <http://www.gnu.org/licenses/>.
  24:/usr/include/newlib/c++/9.2.1/bits/char_traits.h **** 
  25:/usr/include/newlib/c++/9.2.1/bits/char_traits.h **** /** @file bits/char_traits.h
  26:/usr/include/newlib/c++/9.2.1/bits/char_traits.h ****  *  This is an internal header file, included by other library headers.
  27:/usr/include/newlib/c++/9.2.1/bits/char_traits.h ****  *  Do not attempt to use it directly. @headername{string}
  28:/usr/include/newlib/c++/9.2.1/bits/char_traits.h ****  */
  29:/usr/include/newlib/c++/9.2.1/bits/char_traits.h **** 
  30:/usr/include/newlib/c++/9.2.1/bits/char_traits.h **** //
  31:/usr/include/newlib/c++/9.2.1/bits/char_traits.h **** // ISO C++ 14882: 21  Strings library
  32:/usr/include/newlib/c++/9.2.1/bits/char_traits.h **** //
  33:/usr/include/newlib/c++/9.2.1/bits/char_traits.h **** 
  34:/usr/include/newlib/c++/9.2.1/bits/char_traits.h **** #ifndef _CHAR_TRAITS_H
  35:/usr/include/newlib/c++/9.2.1/bits/char_traits.h **** #define _CHAR_TRAITS_H 1
  36:/usr/include/newlib/c++/9.2.1/bits/char_traits.h **** 
  37:/usr/include/newlib/c++/9.2.1/bits/char_traits.h **** #pragma GCC system_header
  38:/usr/include/newlib/c++/9.2.1/bits/char_traits.h **** 
  39:/usr/include/newlib/c++/9.2.1/bits/char_traits.h **** #include <bits/stl_algobase.h>  // std::copy, std::fill_n
  40:/usr/include/newlib/c++/9.2.1/bits/char_traits.h **** #include <bits/postypes.h>      // For streampos
  41:/usr/include/newlib/c++/9.2.1/bits/char_traits.h **** #include <cwchar>               // For WEOF, wmemmove, wmemset, etc.
  42:/usr/include/newlib/c++/9.2.1/bits/char_traits.h **** 
  43:/usr/include/newlib/c++/9.2.1/bits/char_traits.h **** #ifndef _GLIBCXX_ALWAYS_INLINE
  44:/usr/include/newlib/c++/9.2.1/bits/char_traits.h **** # define _GLIBCXX_ALWAYS_INLINE inline __attribute__((__always_inline__))
  45:/usr/include/newlib/c++/9.2.1/bits/char_traits.h **** #endif
  46:/usr/include/newlib/c++/9.2.1/bits/char_traits.h **** 
  47:/usr/include/newlib/c++/9.2.1/bits/char_traits.h **** namespace __gnu_cxx _GLIBCXX_VISIBILITY(default)
  48:/usr/include/newlib/c++/9.2.1/bits/char_traits.h **** {
  49:/usr/include/newlib/c++/9.2.1/bits/char_traits.h **** _GLIBCXX_BEGIN_NAMESPACE_VERSION
  50:/usr/include/newlib/c++/9.2.1/bits/char_traits.h **** 
  51:/usr/include/newlib/c++/9.2.1/bits/char_traits.h ****   /**
  52:/usr/include/newlib/c++/9.2.1/bits/char_traits.h ****    *  @brief  Mapping from character type to associated types.
  53:/usr/include/newlib/c++/9.2.1/bits/char_traits.h ****    *
  54:/usr/include/newlib/c++/9.2.1/bits/char_traits.h ****    *  @note This is an implementation class for the generic version
  55:/usr/include/newlib/c++/9.2.1/bits/char_traits.h ****    *  of char_traits.  It defines int_type, off_type, pos_type, and
  56:/usr/include/newlib/c++/9.2.1/bits/char_traits.h ****    *  state_type.  By default these are unsigned long, streamoff,
  57:/usr/include/newlib/c++/9.2.1/bits/char_traits.h ****    *  streampos, and mbstate_t.  Users who need a different set of
  58:/usr/include/newlib/c++/9.2.1/bits/char_traits.h ****    *  types, but who don't need to change the definitions of any function
  59:/usr/include/newlib/c++/9.2.1/bits/char_traits.h ****    *  defined in char_traits, can specialize __gnu_cxx::_Char_types
  60:/usr/include/newlib/c++/9.2.1/bits/char_traits.h ****    *  while leaving __gnu_cxx::char_traits alone. */
ARM GAS  /tmp/ccPAoVZi.s 			page 185


  61:/usr/include/newlib/c++/9.2.1/bits/char_traits.h ****   template<typename _CharT>
  62:/usr/include/newlib/c++/9.2.1/bits/char_traits.h ****     struct _Char_types
  63:/usr/include/newlib/c++/9.2.1/bits/char_traits.h ****     {
  64:/usr/include/newlib/c++/9.2.1/bits/char_traits.h ****       typedef unsigned long   int_type;
  65:/usr/include/newlib/c++/9.2.1/bits/char_traits.h ****       typedef std::streampos  pos_type;
  66:/usr/include/newlib/c++/9.2.1/bits/char_traits.h ****       typedef std::streamoff  off_type;
  67:/usr/include/newlib/c++/9.2.1/bits/char_traits.h ****       typedef std::mbstate_t  state_type;
  68:/usr/include/newlib/c++/9.2.1/bits/char_traits.h ****     };
  69:/usr/include/newlib/c++/9.2.1/bits/char_traits.h **** 
  70:/usr/include/newlib/c++/9.2.1/bits/char_traits.h **** 
  71:/usr/include/newlib/c++/9.2.1/bits/char_traits.h ****   /**
  72:/usr/include/newlib/c++/9.2.1/bits/char_traits.h ****    *  @brief  Base class used to implement std::char_traits.
  73:/usr/include/newlib/c++/9.2.1/bits/char_traits.h ****    *
  74:/usr/include/newlib/c++/9.2.1/bits/char_traits.h ****    *  @note For any given actual character type, this definition is
  75:/usr/include/newlib/c++/9.2.1/bits/char_traits.h ****    *  probably wrong.  (Most of the member functions are likely to be
  76:/usr/include/newlib/c++/9.2.1/bits/char_traits.h ****    *  right, but the int_type and state_type typedefs, and the eof()
  77:/usr/include/newlib/c++/9.2.1/bits/char_traits.h ****    *  member function, are likely to be wrong.)  The reason this class
  78:/usr/include/newlib/c++/9.2.1/bits/char_traits.h ****    *  exists is so users can specialize it.  Classes in namespace std
  79:/usr/include/newlib/c++/9.2.1/bits/char_traits.h ****    *  may not be specialized for fundamental types, but classes in
  80:/usr/include/newlib/c++/9.2.1/bits/char_traits.h ****    *  namespace __gnu_cxx may be.
  81:/usr/include/newlib/c++/9.2.1/bits/char_traits.h ****    *
  82:/usr/include/newlib/c++/9.2.1/bits/char_traits.h ****    *  See https://gcc.gnu.org/onlinedocs/libstdc++/manual/strings.html#strings.string.character_typ
  83:/usr/include/newlib/c++/9.2.1/bits/char_traits.h ****    *  for advice on how to make use of this class for @a unusual character
  84:/usr/include/newlib/c++/9.2.1/bits/char_traits.h ****    *  types. Also, check out include/ext/pod_char_traits.h.  
  85:/usr/include/newlib/c++/9.2.1/bits/char_traits.h ****    */
  86:/usr/include/newlib/c++/9.2.1/bits/char_traits.h ****   template<typename _CharT>
  87:/usr/include/newlib/c++/9.2.1/bits/char_traits.h ****     struct char_traits
  88:/usr/include/newlib/c++/9.2.1/bits/char_traits.h ****     {
  89:/usr/include/newlib/c++/9.2.1/bits/char_traits.h ****       typedef _CharT                                    char_type;
  90:/usr/include/newlib/c++/9.2.1/bits/char_traits.h ****       typedef typename _Char_types<_CharT>::int_type    int_type;
  91:/usr/include/newlib/c++/9.2.1/bits/char_traits.h ****       typedef typename _Char_types<_CharT>::pos_type    pos_type;
  92:/usr/include/newlib/c++/9.2.1/bits/char_traits.h ****       typedef typename _Char_types<_CharT>::off_type    off_type;
  93:/usr/include/newlib/c++/9.2.1/bits/char_traits.h ****       typedef typename _Char_types<_CharT>::state_type  state_type;
  94:/usr/include/newlib/c++/9.2.1/bits/char_traits.h **** 
  95:/usr/include/newlib/c++/9.2.1/bits/char_traits.h ****       static _GLIBCXX14_CONSTEXPR void
  96:/usr/include/newlib/c++/9.2.1/bits/char_traits.h ****       assign(char_type& __c1, const char_type& __c2)
  97:/usr/include/newlib/c++/9.2.1/bits/char_traits.h ****       { __c1 = __c2; }
  98:/usr/include/newlib/c++/9.2.1/bits/char_traits.h **** 
  99:/usr/include/newlib/c++/9.2.1/bits/char_traits.h ****       static _GLIBCXX_CONSTEXPR bool
 100:/usr/include/newlib/c++/9.2.1/bits/char_traits.h ****       eq(const char_type& __c1, const char_type& __c2)
 101:/usr/include/newlib/c++/9.2.1/bits/char_traits.h ****       { return __c1 == __c2; }
 102:/usr/include/newlib/c++/9.2.1/bits/char_traits.h **** 
 103:/usr/include/newlib/c++/9.2.1/bits/char_traits.h ****       static _GLIBCXX_CONSTEXPR bool
 104:/usr/include/newlib/c++/9.2.1/bits/char_traits.h ****       lt(const char_type& __c1, const char_type& __c2)
 105:/usr/include/newlib/c++/9.2.1/bits/char_traits.h ****       { return __c1 < __c2; }
 106:/usr/include/newlib/c++/9.2.1/bits/char_traits.h **** 
 107:/usr/include/newlib/c++/9.2.1/bits/char_traits.h ****       static _GLIBCXX14_CONSTEXPR int
 108:/usr/include/newlib/c++/9.2.1/bits/char_traits.h ****       compare(const char_type* __s1, const char_type* __s2, std::size_t __n);
 109:/usr/include/newlib/c++/9.2.1/bits/char_traits.h **** 
 110:/usr/include/newlib/c++/9.2.1/bits/char_traits.h ****       static _GLIBCXX14_CONSTEXPR std::size_t
 111:/usr/include/newlib/c++/9.2.1/bits/char_traits.h ****       length(const char_type* __s);
 112:/usr/include/newlib/c++/9.2.1/bits/char_traits.h **** 
 113:/usr/include/newlib/c++/9.2.1/bits/char_traits.h ****       static _GLIBCXX14_CONSTEXPR const char_type*
 114:/usr/include/newlib/c++/9.2.1/bits/char_traits.h ****       find(const char_type* __s, std::size_t __n, const char_type& __a);
 115:/usr/include/newlib/c++/9.2.1/bits/char_traits.h **** 
 116:/usr/include/newlib/c++/9.2.1/bits/char_traits.h ****       static char_type*
 117:/usr/include/newlib/c++/9.2.1/bits/char_traits.h ****       move(char_type* __s1, const char_type* __s2, std::size_t __n);
ARM GAS  /tmp/ccPAoVZi.s 			page 186


 118:/usr/include/newlib/c++/9.2.1/bits/char_traits.h **** 
 119:/usr/include/newlib/c++/9.2.1/bits/char_traits.h ****       static char_type*
 120:/usr/include/newlib/c++/9.2.1/bits/char_traits.h ****       copy(char_type* __s1, const char_type* __s2, std::size_t __n);
 121:/usr/include/newlib/c++/9.2.1/bits/char_traits.h **** 
 122:/usr/include/newlib/c++/9.2.1/bits/char_traits.h ****       static char_type*
 123:/usr/include/newlib/c++/9.2.1/bits/char_traits.h ****       assign(char_type* __s, std::size_t __n, char_type __a);
 124:/usr/include/newlib/c++/9.2.1/bits/char_traits.h **** 
 125:/usr/include/newlib/c++/9.2.1/bits/char_traits.h ****       static _GLIBCXX_CONSTEXPR char_type
 126:/usr/include/newlib/c++/9.2.1/bits/char_traits.h ****       to_char_type(const int_type& __c)
 127:/usr/include/newlib/c++/9.2.1/bits/char_traits.h ****       { return static_cast<char_type>(__c); }
 128:/usr/include/newlib/c++/9.2.1/bits/char_traits.h **** 
 129:/usr/include/newlib/c++/9.2.1/bits/char_traits.h ****       static _GLIBCXX_CONSTEXPR int_type
 130:/usr/include/newlib/c++/9.2.1/bits/char_traits.h ****       to_int_type(const char_type& __c)
 131:/usr/include/newlib/c++/9.2.1/bits/char_traits.h ****       { return static_cast<int_type>(__c); }
 132:/usr/include/newlib/c++/9.2.1/bits/char_traits.h **** 
 133:/usr/include/newlib/c++/9.2.1/bits/char_traits.h ****       static _GLIBCXX_CONSTEXPR bool
 134:/usr/include/newlib/c++/9.2.1/bits/char_traits.h ****       eq_int_type(const int_type& __c1, const int_type& __c2)
 135:/usr/include/newlib/c++/9.2.1/bits/char_traits.h ****       { return __c1 == __c2; }
 136:/usr/include/newlib/c++/9.2.1/bits/char_traits.h **** 
 137:/usr/include/newlib/c++/9.2.1/bits/char_traits.h ****       static _GLIBCXX_CONSTEXPR int_type
 138:/usr/include/newlib/c++/9.2.1/bits/char_traits.h ****       eof()
 139:/usr/include/newlib/c++/9.2.1/bits/char_traits.h ****       { return static_cast<int_type>(_GLIBCXX_STDIO_EOF); }
 140:/usr/include/newlib/c++/9.2.1/bits/char_traits.h **** 
 141:/usr/include/newlib/c++/9.2.1/bits/char_traits.h ****       static _GLIBCXX_CONSTEXPR int_type
 142:/usr/include/newlib/c++/9.2.1/bits/char_traits.h ****       not_eof(const int_type& __c)
 143:/usr/include/newlib/c++/9.2.1/bits/char_traits.h ****       { return !eq_int_type(__c, eof()) ? __c : to_int_type(char_type()); }
 144:/usr/include/newlib/c++/9.2.1/bits/char_traits.h ****     };
 145:/usr/include/newlib/c++/9.2.1/bits/char_traits.h **** 
 146:/usr/include/newlib/c++/9.2.1/bits/char_traits.h ****   template<typename _CharT>
 147:/usr/include/newlib/c++/9.2.1/bits/char_traits.h ****     _GLIBCXX14_CONSTEXPR int
 148:/usr/include/newlib/c++/9.2.1/bits/char_traits.h ****     char_traits<_CharT>::
 149:/usr/include/newlib/c++/9.2.1/bits/char_traits.h ****     compare(const char_type* __s1, const char_type* __s2, std::size_t __n)
 150:/usr/include/newlib/c++/9.2.1/bits/char_traits.h ****     {
 151:/usr/include/newlib/c++/9.2.1/bits/char_traits.h ****       for (std::size_t __i = 0; __i < __n; ++__i)
 152:/usr/include/newlib/c++/9.2.1/bits/char_traits.h **** 	if (lt(__s1[__i], __s2[__i]))
 153:/usr/include/newlib/c++/9.2.1/bits/char_traits.h **** 	  return -1;
 154:/usr/include/newlib/c++/9.2.1/bits/char_traits.h **** 	else if (lt(__s2[__i], __s1[__i]))
 155:/usr/include/newlib/c++/9.2.1/bits/char_traits.h **** 	  return 1;
 156:/usr/include/newlib/c++/9.2.1/bits/char_traits.h ****       return 0;
 157:/usr/include/newlib/c++/9.2.1/bits/char_traits.h ****     }
 158:/usr/include/newlib/c++/9.2.1/bits/char_traits.h **** 
 159:/usr/include/newlib/c++/9.2.1/bits/char_traits.h ****   template<typename _CharT>
 160:/usr/include/newlib/c++/9.2.1/bits/char_traits.h ****     _GLIBCXX14_CONSTEXPR std::size_t
 161:/usr/include/newlib/c++/9.2.1/bits/char_traits.h ****     char_traits<_CharT>::
 162:/usr/include/newlib/c++/9.2.1/bits/char_traits.h ****     length(const char_type* __p)
 163:/usr/include/newlib/c++/9.2.1/bits/char_traits.h ****     {
 164:/usr/include/newlib/c++/9.2.1/bits/char_traits.h ****       std::size_t __i = 0;
 165:/usr/include/newlib/c++/9.2.1/bits/char_traits.h ****       while (!eq(__p[__i], char_type()))
 166:/usr/include/newlib/c++/9.2.1/bits/char_traits.h ****         ++__i;
 167:/usr/include/newlib/c++/9.2.1/bits/char_traits.h ****       return __i;
 168:/usr/include/newlib/c++/9.2.1/bits/char_traits.h ****     }
 169:/usr/include/newlib/c++/9.2.1/bits/char_traits.h **** 
 170:/usr/include/newlib/c++/9.2.1/bits/char_traits.h ****   template<typename _CharT>
 171:/usr/include/newlib/c++/9.2.1/bits/char_traits.h ****     _GLIBCXX14_CONSTEXPR const typename char_traits<_CharT>::char_type*
 172:/usr/include/newlib/c++/9.2.1/bits/char_traits.h ****     char_traits<_CharT>::
 173:/usr/include/newlib/c++/9.2.1/bits/char_traits.h ****     find(const char_type* __s, std::size_t __n, const char_type& __a)
 174:/usr/include/newlib/c++/9.2.1/bits/char_traits.h ****     {
ARM GAS  /tmp/ccPAoVZi.s 			page 187


 175:/usr/include/newlib/c++/9.2.1/bits/char_traits.h ****       for (std::size_t __i = 0; __i < __n; ++__i)
 176:/usr/include/newlib/c++/9.2.1/bits/char_traits.h ****         if (eq(__s[__i], __a))
 177:/usr/include/newlib/c++/9.2.1/bits/char_traits.h ****           return __s + __i;
 178:/usr/include/newlib/c++/9.2.1/bits/char_traits.h ****       return 0;
 179:/usr/include/newlib/c++/9.2.1/bits/char_traits.h ****     }
 180:/usr/include/newlib/c++/9.2.1/bits/char_traits.h **** 
 181:/usr/include/newlib/c++/9.2.1/bits/char_traits.h ****   template<typename _CharT>
 182:/usr/include/newlib/c++/9.2.1/bits/char_traits.h ****     typename char_traits<_CharT>::char_type*
 183:/usr/include/newlib/c++/9.2.1/bits/char_traits.h ****     char_traits<_CharT>::
 184:/usr/include/newlib/c++/9.2.1/bits/char_traits.h ****     move(char_type* __s1, const char_type* __s2, std::size_t __n)
 185:/usr/include/newlib/c++/9.2.1/bits/char_traits.h ****     {
 186:/usr/include/newlib/c++/9.2.1/bits/char_traits.h ****       if (__n == 0)
 187:/usr/include/newlib/c++/9.2.1/bits/char_traits.h **** 	return __s1;
 188:/usr/include/newlib/c++/9.2.1/bits/char_traits.h ****       return static_cast<_CharT*>(__builtin_memmove(__s1, __s2,
 189:/usr/include/newlib/c++/9.2.1/bits/char_traits.h **** 						    __n * sizeof(char_type)));
 190:/usr/include/newlib/c++/9.2.1/bits/char_traits.h ****     }
 191:/usr/include/newlib/c++/9.2.1/bits/char_traits.h **** 
 192:/usr/include/newlib/c++/9.2.1/bits/char_traits.h ****   template<typename _CharT>
 193:/usr/include/newlib/c++/9.2.1/bits/char_traits.h ****     typename char_traits<_CharT>::char_type*
 194:/usr/include/newlib/c++/9.2.1/bits/char_traits.h ****     char_traits<_CharT>::
 195:/usr/include/newlib/c++/9.2.1/bits/char_traits.h ****     copy(char_type* __s1, const char_type* __s2, std::size_t __n)
 196:/usr/include/newlib/c++/9.2.1/bits/char_traits.h ****     {
 197:/usr/include/newlib/c++/9.2.1/bits/char_traits.h ****       // NB: Inline std::copy so no recursive dependencies.
 198:/usr/include/newlib/c++/9.2.1/bits/char_traits.h ****       std::copy(__s2, __s2 + __n, __s1);
 199:/usr/include/newlib/c++/9.2.1/bits/char_traits.h ****       return __s1;
 200:/usr/include/newlib/c++/9.2.1/bits/char_traits.h ****     }
 201:/usr/include/newlib/c++/9.2.1/bits/char_traits.h **** 
 202:/usr/include/newlib/c++/9.2.1/bits/char_traits.h ****   template<typename _CharT>
 203:/usr/include/newlib/c++/9.2.1/bits/char_traits.h ****     typename char_traits<_CharT>::char_type*
 204:/usr/include/newlib/c++/9.2.1/bits/char_traits.h ****     char_traits<_CharT>::
 205:/usr/include/newlib/c++/9.2.1/bits/char_traits.h ****     assign(char_type* __s, std::size_t __n, char_type __a)
 206:/usr/include/newlib/c++/9.2.1/bits/char_traits.h ****     {
 207:/usr/include/newlib/c++/9.2.1/bits/char_traits.h ****       // NB: Inline std::fill_n so no recursive dependencies.
 208:/usr/include/newlib/c++/9.2.1/bits/char_traits.h ****       std::fill_n(__s, __n, __a);
 209:/usr/include/newlib/c++/9.2.1/bits/char_traits.h ****       return __s;
 210:/usr/include/newlib/c++/9.2.1/bits/char_traits.h ****     }
 211:/usr/include/newlib/c++/9.2.1/bits/char_traits.h **** 
 212:/usr/include/newlib/c++/9.2.1/bits/char_traits.h **** _GLIBCXX_END_NAMESPACE_VERSION
 213:/usr/include/newlib/c++/9.2.1/bits/char_traits.h **** } // namespace
 214:/usr/include/newlib/c++/9.2.1/bits/char_traits.h **** 
 215:/usr/include/newlib/c++/9.2.1/bits/char_traits.h **** namespace std _GLIBCXX_VISIBILITY(default)
 216:/usr/include/newlib/c++/9.2.1/bits/char_traits.h **** {
 217:/usr/include/newlib/c++/9.2.1/bits/char_traits.h **** _GLIBCXX_BEGIN_NAMESPACE_VERSION
 218:/usr/include/newlib/c++/9.2.1/bits/char_traits.h **** 
 219:/usr/include/newlib/c++/9.2.1/bits/char_traits.h **** #if __cplusplus >= 201703L
 220:/usr/include/newlib/c++/9.2.1/bits/char_traits.h **** #define __cpp_lib_constexpr_char_traits 201611
 221:/usr/include/newlib/c++/9.2.1/bits/char_traits.h **** 
 222:/usr/include/newlib/c++/9.2.1/bits/char_traits.h ****   /**
 223:/usr/include/newlib/c++/9.2.1/bits/char_traits.h ****    *  @brief Determine whether the characters of a NULL-terminated
 224:/usr/include/newlib/c++/9.2.1/bits/char_traits.h ****    *  string are known at compile time.
 225:/usr/include/newlib/c++/9.2.1/bits/char_traits.h ****    *  @param  __s  The string.
 226:/usr/include/newlib/c++/9.2.1/bits/char_traits.h ****    *
 227:/usr/include/newlib/c++/9.2.1/bits/char_traits.h ****    *  Assumes that _CharT is a built-in character type.
 228:/usr/include/newlib/c++/9.2.1/bits/char_traits.h ****    */
 229:/usr/include/newlib/c++/9.2.1/bits/char_traits.h ****   template<typename _CharT>
 230:/usr/include/newlib/c++/9.2.1/bits/char_traits.h ****     static _GLIBCXX_ALWAYS_INLINE constexpr bool
 231:/usr/include/newlib/c++/9.2.1/bits/char_traits.h ****     __constant_string_p(const _CharT* __s)
ARM GAS  /tmp/ccPAoVZi.s 			page 188


 232:/usr/include/newlib/c++/9.2.1/bits/char_traits.h ****     {
 233:/usr/include/newlib/c++/9.2.1/bits/char_traits.h **** #ifdef _GLIBCXX_HAVE_BUILTIN_IS_CONSTANT_EVALUATED
 234:/usr/include/newlib/c++/9.2.1/bits/char_traits.h ****       (void) __s;
 235:/usr/include/newlib/c++/9.2.1/bits/char_traits.h ****       // In constexpr contexts all strings should be constant.
 236:/usr/include/newlib/c++/9.2.1/bits/char_traits.h ****       return __builtin_is_constant_evaluated();
 237:/usr/include/newlib/c++/9.2.1/bits/char_traits.h **** #else
 238:/usr/include/newlib/c++/9.2.1/bits/char_traits.h ****       while (__builtin_constant_p(*__s) && *__s)
 239:/usr/include/newlib/c++/9.2.1/bits/char_traits.h **** 	__s++;
 240:/usr/include/newlib/c++/9.2.1/bits/char_traits.h ****       return __builtin_constant_p(*__s);
 241:/usr/include/newlib/c++/9.2.1/bits/char_traits.h **** #endif
 242:/usr/include/newlib/c++/9.2.1/bits/char_traits.h ****     }
 243:/usr/include/newlib/c++/9.2.1/bits/char_traits.h **** 
 244:/usr/include/newlib/c++/9.2.1/bits/char_traits.h ****   /**
 245:/usr/include/newlib/c++/9.2.1/bits/char_traits.h ****    *  @brief Determine whether the characters of a character array are
 246:/usr/include/newlib/c++/9.2.1/bits/char_traits.h ****    *  known at compile time.
 247:/usr/include/newlib/c++/9.2.1/bits/char_traits.h ****    *  @param  __a  The character array.
 248:/usr/include/newlib/c++/9.2.1/bits/char_traits.h ****    *  @param  __n  Number of characters.
 249:/usr/include/newlib/c++/9.2.1/bits/char_traits.h ****    *
 250:/usr/include/newlib/c++/9.2.1/bits/char_traits.h ****    *  Assumes that _CharT is a built-in character type.
 251:/usr/include/newlib/c++/9.2.1/bits/char_traits.h ****    */
 252:/usr/include/newlib/c++/9.2.1/bits/char_traits.h ****   template<typename _CharT>
 253:/usr/include/newlib/c++/9.2.1/bits/char_traits.h ****     static _GLIBCXX_ALWAYS_INLINE constexpr bool
 254:/usr/include/newlib/c++/9.2.1/bits/char_traits.h ****     __constant_char_array_p(const _CharT* __a, size_t __n)
 255:/usr/include/newlib/c++/9.2.1/bits/char_traits.h ****     {
 256:/usr/include/newlib/c++/9.2.1/bits/char_traits.h **** #ifdef _GLIBCXX_HAVE_BUILTIN_IS_CONSTANT_EVALUATED
 257:/usr/include/newlib/c++/9.2.1/bits/char_traits.h ****       (void) __a;
 258:/usr/include/newlib/c++/9.2.1/bits/char_traits.h ****       (void) __n;
 259:/usr/include/newlib/c++/9.2.1/bits/char_traits.h ****       // In constexpr contexts all character arrays should be constant.
 260:/usr/include/newlib/c++/9.2.1/bits/char_traits.h ****       return __builtin_is_constant_evaluated();
 261:/usr/include/newlib/c++/9.2.1/bits/char_traits.h **** #else
 262:/usr/include/newlib/c++/9.2.1/bits/char_traits.h ****       size_t __i = 0;
 263:/usr/include/newlib/c++/9.2.1/bits/char_traits.h ****       while (__i < __n && __builtin_constant_p(__a[__i]))
 264:/usr/include/newlib/c++/9.2.1/bits/char_traits.h **** 	__i++;
 265:/usr/include/newlib/c++/9.2.1/bits/char_traits.h ****       return __i == __n;
 266:/usr/include/newlib/c++/9.2.1/bits/char_traits.h **** #endif
 267:/usr/include/newlib/c++/9.2.1/bits/char_traits.h ****     }
 268:/usr/include/newlib/c++/9.2.1/bits/char_traits.h **** #endif
 269:/usr/include/newlib/c++/9.2.1/bits/char_traits.h **** 
 270:/usr/include/newlib/c++/9.2.1/bits/char_traits.h ****   // 21.1
 271:/usr/include/newlib/c++/9.2.1/bits/char_traits.h ****   /**
 272:/usr/include/newlib/c++/9.2.1/bits/char_traits.h ****    *  @brief  Basis for explicit traits specializations.
 273:/usr/include/newlib/c++/9.2.1/bits/char_traits.h ****    *
 274:/usr/include/newlib/c++/9.2.1/bits/char_traits.h ****    *  @note  For any given actual character type, this definition is
 275:/usr/include/newlib/c++/9.2.1/bits/char_traits.h ****    *  probably wrong.  Since this is just a thin wrapper around
 276:/usr/include/newlib/c++/9.2.1/bits/char_traits.h ****    *  __gnu_cxx::char_traits, it is possible to achieve a more
 277:/usr/include/newlib/c++/9.2.1/bits/char_traits.h ****    *  appropriate definition by specializing __gnu_cxx::char_traits.
 278:/usr/include/newlib/c++/9.2.1/bits/char_traits.h ****    *
 279:/usr/include/newlib/c++/9.2.1/bits/char_traits.h ****    *  See https://gcc.gnu.org/onlinedocs/libstdc++/manual/strings.html#strings.string.character_typ
 280:/usr/include/newlib/c++/9.2.1/bits/char_traits.h ****    *  for advice on how to make use of this class for @a unusual character
 281:/usr/include/newlib/c++/9.2.1/bits/char_traits.h ****    *  types. Also, check out include/ext/pod_char_traits.h.
 282:/usr/include/newlib/c++/9.2.1/bits/char_traits.h ****   */
 283:/usr/include/newlib/c++/9.2.1/bits/char_traits.h ****   template<class _CharT>
 284:/usr/include/newlib/c++/9.2.1/bits/char_traits.h ****     struct char_traits : public __gnu_cxx::char_traits<_CharT>
 285:/usr/include/newlib/c++/9.2.1/bits/char_traits.h ****     { };
 286:/usr/include/newlib/c++/9.2.1/bits/char_traits.h **** 
 287:/usr/include/newlib/c++/9.2.1/bits/char_traits.h **** 
 288:/usr/include/newlib/c++/9.2.1/bits/char_traits.h ****   /// 21.1.3.1  char_traits specializations
ARM GAS  /tmp/ccPAoVZi.s 			page 189


 289:/usr/include/newlib/c++/9.2.1/bits/char_traits.h ****   template<>
 290:/usr/include/newlib/c++/9.2.1/bits/char_traits.h ****     struct char_traits<char>
 291:/usr/include/newlib/c++/9.2.1/bits/char_traits.h ****     {
 292:/usr/include/newlib/c++/9.2.1/bits/char_traits.h ****       typedef char              char_type;
 293:/usr/include/newlib/c++/9.2.1/bits/char_traits.h ****       typedef int               int_type;
 294:/usr/include/newlib/c++/9.2.1/bits/char_traits.h ****       typedef streampos         pos_type;
 295:/usr/include/newlib/c++/9.2.1/bits/char_traits.h ****       typedef streamoff         off_type;
 296:/usr/include/newlib/c++/9.2.1/bits/char_traits.h ****       typedef mbstate_t         state_type;
 297:/usr/include/newlib/c++/9.2.1/bits/char_traits.h **** 
 298:/usr/include/newlib/c++/9.2.1/bits/char_traits.h ****       static _GLIBCXX17_CONSTEXPR void
 299:/usr/include/newlib/c++/9.2.1/bits/char_traits.h ****       assign(char_type& __c1, const char_type& __c2) _GLIBCXX_NOEXCEPT
 300:/usr/include/newlib/c++/9.2.1/bits/char_traits.h ****       { __c1 = __c2; }
 301:/usr/include/newlib/c++/9.2.1/bits/char_traits.h **** 
 302:/usr/include/newlib/c++/9.2.1/bits/char_traits.h ****       static _GLIBCXX_CONSTEXPR bool
 303:/usr/include/newlib/c++/9.2.1/bits/char_traits.h ****       eq(const char_type& __c1, const char_type& __c2) _GLIBCXX_NOEXCEPT
 304:/usr/include/newlib/c++/9.2.1/bits/char_traits.h ****       { return __c1 == __c2; }
 305:/usr/include/newlib/c++/9.2.1/bits/char_traits.h **** 
 306:/usr/include/newlib/c++/9.2.1/bits/char_traits.h ****       static _GLIBCXX_CONSTEXPR bool
 307:/usr/include/newlib/c++/9.2.1/bits/char_traits.h ****       lt(const char_type& __c1, const char_type& __c2) _GLIBCXX_NOEXCEPT
 308:/usr/include/newlib/c++/9.2.1/bits/char_traits.h ****       {
 309:/usr/include/newlib/c++/9.2.1/bits/char_traits.h **** 	// LWG 467.
 310:/usr/include/newlib/c++/9.2.1/bits/char_traits.h **** 	return (static_cast<unsigned char>(__c1)
 311:/usr/include/newlib/c++/9.2.1/bits/char_traits.h **** 		< static_cast<unsigned char>(__c2));
 312:/usr/include/newlib/c++/9.2.1/bits/char_traits.h ****       }
 313:/usr/include/newlib/c++/9.2.1/bits/char_traits.h **** 
 314:/usr/include/newlib/c++/9.2.1/bits/char_traits.h ****       static _GLIBCXX17_CONSTEXPR int
 315:/usr/include/newlib/c++/9.2.1/bits/char_traits.h ****       compare(const char_type* __s1, const char_type* __s2, size_t __n)
 316:/usr/include/newlib/c++/9.2.1/bits/char_traits.h ****       {
 317:/usr/include/newlib/c++/9.2.1/bits/char_traits.h **** 	if (__n == 0)
 318:/usr/include/newlib/c++/9.2.1/bits/char_traits.h **** 	  return 0;
 319:/usr/include/newlib/c++/9.2.1/bits/char_traits.h **** #if __cplusplus >= 201703L
 320:/usr/include/newlib/c++/9.2.1/bits/char_traits.h **** 	if (__builtin_constant_p(__n)
 321:/usr/include/newlib/c++/9.2.1/bits/char_traits.h **** 	    && __constant_char_array_p(__s1, __n)
 322:/usr/include/newlib/c++/9.2.1/bits/char_traits.h **** 	    && __constant_char_array_p(__s2, __n))
 323:/usr/include/newlib/c++/9.2.1/bits/char_traits.h **** 	  return __gnu_cxx::char_traits<char_type>::compare(__s1, __s2, __n);
 324:/usr/include/newlib/c++/9.2.1/bits/char_traits.h **** #endif
 325:/usr/include/newlib/c++/9.2.1/bits/char_traits.h **** 	return __builtin_memcmp(__s1, __s2, __n);
 326:/usr/include/newlib/c++/9.2.1/bits/char_traits.h ****       }
 327:/usr/include/newlib/c++/9.2.1/bits/char_traits.h **** 
 328:/usr/include/newlib/c++/9.2.1/bits/char_traits.h ****       static _GLIBCXX17_CONSTEXPR size_t
 329:/usr/include/newlib/c++/9.2.1/bits/char_traits.h ****       length(const char_type* __s)
 330:/usr/include/newlib/c++/9.2.1/bits/char_traits.h ****       {
 331:/usr/include/newlib/c++/9.2.1/bits/char_traits.h **** #if __cplusplus >= 201703L
 332:/usr/include/newlib/c++/9.2.1/bits/char_traits.h **** 	if (__constant_string_p(__s))
 333:/usr/include/newlib/c++/9.2.1/bits/char_traits.h **** 	  return __gnu_cxx::char_traits<char_type>::length(__s);
 334:/usr/include/newlib/c++/9.2.1/bits/char_traits.h **** #endif
 335:/usr/include/newlib/c++/9.2.1/bits/char_traits.h **** 	return __builtin_strlen(__s);
 336:/usr/include/newlib/c++/9.2.1/bits/char_traits.h ****       }
 337:/usr/include/newlib/c++/9.2.1/bits/char_traits.h **** 
 338:/usr/include/newlib/c++/9.2.1/bits/char_traits.h ****       static _GLIBCXX17_CONSTEXPR const char_type*
 339:/usr/include/newlib/c++/9.2.1/bits/char_traits.h ****       find(const char_type* __s, size_t __n, const char_type& __a)
 340:/usr/include/newlib/c++/9.2.1/bits/char_traits.h ****       {
 341:/usr/include/newlib/c++/9.2.1/bits/char_traits.h **** 	if (__n == 0)
 342:/usr/include/newlib/c++/9.2.1/bits/char_traits.h **** 	  return 0;
 343:/usr/include/newlib/c++/9.2.1/bits/char_traits.h **** #if __cplusplus >= 201703L
 344:/usr/include/newlib/c++/9.2.1/bits/char_traits.h **** 	if (__builtin_constant_p(__n)
 345:/usr/include/newlib/c++/9.2.1/bits/char_traits.h **** 	    && __builtin_constant_p(__a)
ARM GAS  /tmp/ccPAoVZi.s 			page 190


 346:/usr/include/newlib/c++/9.2.1/bits/char_traits.h **** 	    && __constant_char_array_p(__s, __n))
 347:/usr/include/newlib/c++/9.2.1/bits/char_traits.h **** 	  return __gnu_cxx::char_traits<char_type>::find(__s, __n, __a);
 348:/usr/include/newlib/c++/9.2.1/bits/char_traits.h **** #endif
 349:/usr/include/newlib/c++/9.2.1/bits/char_traits.h **** 	return static_cast<const char_type*>(__builtin_memchr(__s, __a, __n));
 350:/usr/include/newlib/c++/9.2.1/bits/char_traits.h ****       }
 351:/usr/include/newlib/c++/9.2.1/bits/char_traits.h **** 
 352:/usr/include/newlib/c++/9.2.1/bits/char_traits.h ****       static char_type*
 353:/usr/include/newlib/c++/9.2.1/bits/char_traits.h ****       move(char_type* __s1, const char_type* __s2, size_t __n)
 354:/usr/include/newlib/c++/9.2.1/bits/char_traits.h ****       {
 355:/usr/include/newlib/c++/9.2.1/bits/char_traits.h **** 	if (__n == 0)
 356:/usr/include/newlib/c++/9.2.1/bits/char_traits.h **** 	  return __s1;
 357:/usr/include/newlib/c++/9.2.1/bits/char_traits.h **** 	return static_cast<char_type*>(__builtin_memmove(__s1, __s2, __n));
 358:/usr/include/newlib/c++/9.2.1/bits/char_traits.h ****       }
 359:/usr/include/newlib/c++/9.2.1/bits/char_traits.h **** 
 360:/usr/include/newlib/c++/9.2.1/bits/char_traits.h ****       static char_type*
 361:/usr/include/newlib/c++/9.2.1/bits/char_traits.h ****       copy(char_type* __s1, const char_type* __s2, size_t __n)
 362:/usr/include/newlib/c++/9.2.1/bits/char_traits.h ****       {
 363:/usr/include/newlib/c++/9.2.1/bits/char_traits.h **** 	if (__n == 0)
 364:/usr/include/newlib/c++/9.2.1/bits/char_traits.h **** 	  return __s1;
 365:/usr/include/newlib/c++/9.2.1/bits/char_traits.h **** 	return static_cast<char_type*>(__builtin_memcpy(__s1, __s2, __n));
 6096              		.loc 23 365 49 view .LVU1458
 6097 009a 264D     		ldr	r5, .L423+32
 6098              	.LBE1727:
 6099              	.LBE1726:
 6100              	.LBE1725:
 6101              	.LBE1724:
 6102              	.LBE1723:
 215:/usr/include/newlib/c++/9.2.1/bits/basic_string.tcc **** 
 6103              		.loc 22 215 12 view .LVU1459
 6104 009c CDE90334 		strd	r3, r4, [sp, #12]
 6105              		.loc 22 219 6 view .LVU1460
 6106 00a0 FFF7FEFF 		bl	_ZNSt7__cxx1112basic_stringIcSt11char_traitsIcESaIcEE9_M_createERjj
 6107              	.LVL470:
 6108              	.LBB1740:
 6109              	.LBB1741:
 211:/usr/include/newlib/c++/9.2.1/bits/basic_string.h **** 
 6110              		.loc 19 211 9 view .LVU1461
 6111 00a4 039B     		ldr	r3, [sp, #12]
 6112              	.LBE1741:
 6113              	.LBE1740:
 6114              	.LBB1743:
 6115              	.LBB1744:
 179:/usr/include/newlib/c++/9.2.1/bits/basic_string.h **** 
 6116              		.loc 19 179 9 view .LVU1462
 6117 00a6 0490     		str	r0, [sp, #16]
 6118              	.LBE1744:
 6119              	.LBE1743:
 6120              		.loc 22 219 6 view .LVU1463
 6121 00a8 0446     		mov	r4, r0
 6122              	.LVL471:
 6123              	.LBB1745:
 6124              	.LBI1743:
 178:/usr/include/newlib/c++/9.2.1/bits/basic_string.h ****       { _M_dataplus._M_p = __p; }
 6125              		.loc 19 178 7 is_stmt 1 view .LVU1464
 178:/usr/include/newlib/c++/9.2.1/bits/basic_string.h ****       { _M_dataplus._M_p = __p; }
 6126              		.loc 19 178 7 is_stmt 0 view .LVU1465
 6127              	.LBE1745:
ARM GAS  /tmp/ccPAoVZi.s 			page 191


 6128              	.LBB1746:
 6129              	.LBI1740:
 210:/usr/include/newlib/c++/9.2.1/bits/basic_string.h ****       { _M_allocated_capacity = __capacity; }
 6130              		.loc 19 210 7 is_stmt 1 view .LVU1466
 210:/usr/include/newlib/c++/9.2.1/bits/basic_string.h ****       { _M_allocated_capacity = __capacity; }
 6131              		.loc 19 210 7 is_stmt 0 view .LVU1467
 6132              	.LBE1746:
 6133              	.LBB1747:
 6134              	.LBI1723:
 396:/usr/include/newlib/c++/9.2.1/bits/basic_string.h ****       _GLIBCXX_NOEXCEPT
 6135              		.loc 19 396 7 is_stmt 1 view .LVU1468
 6136              	.LBB1737:
 6137              	.LBI1724:
 346:/usr/include/newlib/c++/9.2.1/bits/basic_string.h ****       {
 6138              		.loc 19 346 7 view .LVU1469
 6139              	.LBB1734:
 6140              	.LBI1725:
 346:/usr/include/newlib/c++/9.2.1/bits/basic_string.h ****       {
 6141              		.loc 19 346 7 view .LVU1470
 6142              	.LBB1731:
 6143              	.LBI1726:
 361:/usr/include/newlib/c++/9.2.1/bits/char_traits.h ****       {
 6144              		.loc 23 361 7 view .LVU1471
 6145              	.LBB1728:
 363:/usr/include/newlib/c++/9.2.1/bits/char_traits.h **** 	  return __s1;
 6146              		.loc 23 363 2 view .LVU1472
 6147              		.loc 23 365 2 view .LVU1473
 6148              	.LBE1728:
 6149              	.LBE1731:
 6150              	.LBE1734:
 6151              	.LBE1737:
 6152              	.LBE1747:
 6153              	.LBB1748:
 6154              	.LBB1742:
 211:/usr/include/newlib/c++/9.2.1/bits/basic_string.h **** 
 6155              		.loc 19 211 9 is_stmt 0 view .LVU1474
 6156 00aa 0693     		str	r3, [sp, #24]
 6157              	.LBE1742:
 6158              	.LBE1748:
 6159              	.LBB1749:
 6160              	.LBB1750:
 6161              	.LBB1751:
 6162              	.LBB1752:
 300:/usr/include/newlib/c++/9.2.1/bits/char_traits.h **** 
 6163              		.loc 23 300 14 view .LVU1475
 6164 00ac 4FF0000C 		mov	ip, #0
 6165              	.LBE1752:
 6166              	.LBE1751:
 6167              	.LBE1750:
 6168              	.LBE1749:
 6169              	.LBB1758:
 6170              	.LBB1738:
 6171              	.LBB1735:
 6172              	.LBB1732:
 6173              	.LBB1729:
 6174              		.loc 23 365 49 view .LVU1476
 6175 00b0 0FCD     		ldmia	r5!, {r0, r1, r2, r3}
ARM GAS  /tmp/ccPAoVZi.s 			page 192


 6176              	.LVL472:
 6177              		.loc 23 365 49 view .LVU1477
 6178 00b2 95F800E0 		ldrb	lr, [r5]	@ zero_extendqisi2
 6179              	.LBE1729:
 6180              	.LBE1732:
 6181              	.LBE1735:
 6182              	.LBE1738:
 6183              	.LBE1758:
 6184              	.LBE1722:
 6185              	.LBE1721:
 6186              	.LBE1720:
 6187              	.LBE1719:
 6188              	.LBE1718:
 6189              	.LBE1717:
 6190              	.LBE1773:
 6191              	.LBE1779:
 6192              		.loc 16 56 30 view .LVU1478
 6193 00b6 0125     		movs	r5, #1
 6194              	.LBB1780:
 6195              	.LBB1774:
 6196              	.LBB1771:
 6197              	.LBB1769:
 6198              	.LBB1767:
 6199              	.LBB1765:
 6200              	.LBB1763:
 6201              	.LBB1761:
 6202              	.LBB1759:
 6203              	.LBB1739:
 6204              	.LBB1736:
 6205              	.LBB1733:
 6206              	.LBB1730:
 6207              		.loc 23 365 49 view .LVU1479
 6208 00b8 2060     		str	r0, [r4]	@ unaligned
 6209 00ba 84F810E0 		strb	lr, [r4, #16]
 6210              	.LVL473:
 6211              		.loc 23 365 49 view .LVU1480
 6212 00be 6160     		str	r1, [r4, #4]	@ unaligned
 6213 00c0 A260     		str	r2, [r4, #8]	@ unaligned
 6214 00c2 E360     		str	r3, [r4, #12]	@ unaligned
 6215              	.LBE1730:
 6216              	.LBE1733:
 6217              	.LBE1736:
 6218              	.LBE1739:
 6219              	.LBE1759:
 6220              	.LBE1761:
 6221              	.LBE1763:
 6222              	.LBE1765:
 6223              	.LBE1767:
 6224              	.LBE1769:
 6225              	.LBE1771:
 6226              	.LBE1774:
 6227              	.LBE1780:
 6228              		.loc 16 56 30 view .LVU1481
 6229 00c4 1C48     		ldr	r0, .L423+36
 6230              	.LBB1781:
 6231              	.LBB1775:
 6232              	.LBB1772:
ARM GAS  /tmp/ccPAoVZi.s 			page 193


 6233              	.LBB1770:
 6234              	.LBB1768:
 6235              	.LBB1766:
 6236              	.LBB1764:
 6237              	.LBB1762:
 220:/usr/include/newlib/c++/9.2.1/bits/basic_string.tcc **** 	    _M_capacity(__dnew);
 221:/usr/include/newlib/c++/9.2.1/bits/basic_string.tcc **** 	  }
 222:/usr/include/newlib/c++/9.2.1/bits/basic_string.tcc **** 
 223:/usr/include/newlib/c++/9.2.1/bits/basic_string.tcc **** 	// Check for out_of_range and length_error exceptions.
 224:/usr/include/newlib/c++/9.2.1/bits/basic_string.tcc **** 	__try
 225:/usr/include/newlib/c++/9.2.1/bits/basic_string.tcc **** 	  { this->_S_copy_chars(_M_data(), __beg, __end); }
 226:/usr/include/newlib/c++/9.2.1/bits/basic_string.tcc **** 	__catch(...)
 227:/usr/include/newlib/c++/9.2.1/bits/basic_string.tcc **** 	  {
 228:/usr/include/newlib/c++/9.2.1/bits/basic_string.tcc **** 	    _M_dispose();
 229:/usr/include/newlib/c++/9.2.1/bits/basic_string.tcc **** 	    __throw_exception_again;
 230:/usr/include/newlib/c++/9.2.1/bits/basic_string.tcc **** 	  }
 231:/usr/include/newlib/c++/9.2.1/bits/basic_string.tcc **** 
 232:/usr/include/newlib/c++/9.2.1/bits/basic_string.tcc **** 	_M_set_length(__dnew);
 6238              		.loc 22 232 2 view .LVU1482
 6239 00c6 DDE90332 		ldrd	r3, r2, [sp, #12]
 6240              	.LVL474:
 6241              	.LBB1760:
 6242              	.LBI1749:
 214:/usr/include/newlib/c++/9.2.1/bits/basic_string.h ****       {
 6243              		.loc 19 214 7 is_stmt 1 view .LVU1483
 6244              	.LBB1757:
 6245              	.LBB1754:
 6246              	.LBI1754:
 182:/usr/include/newlib/c++/9.2.1/bits/basic_string.h ****       { _M_string_length = __length; }
 6247              		.loc 19 182 7 view .LVU1484
 6248              	.LBB1755:
 183:/usr/include/newlib/c++/9.2.1/bits/basic_string.h **** 
 6249              		.loc 19 183 9 is_stmt 0 view .LVU1485
 6250 00ca 0593     		str	r3, [sp, #20]
 6251              	.LVL475:
 183:/usr/include/newlib/c++/9.2.1/bits/basic_string.h **** 
 6252              		.loc 19 183 9 view .LVU1486
 6253              	.LBE1755:
 6254              	.LBE1754:
 6255              	.LBB1756:
 6256              	.LBI1751:
 299:/usr/include/newlib/c++/9.2.1/bits/char_traits.h ****       { __c1 = __c2; }
 6257              		.loc 23 299 7 is_stmt 1 view .LVU1487
 6258              	.LBB1753:
 300:/usr/include/newlib/c++/9.2.1/bits/char_traits.h **** 
 6259              		.loc 23 300 9 view .LVU1488
 300:/usr/include/newlib/c++/9.2.1/bits/char_traits.h **** 
 6260              		.loc 23 300 14 is_stmt 0 view .LVU1489
 6261 00cc 02F803C0 		strb	ip, [r2, r3]
 6262              	.LVL476:
 300:/usr/include/newlib/c++/9.2.1/bits/char_traits.h **** 
 6263              		.loc 23 300 14 view .LVU1490
 6264              	.LBE1753:
 6265              	.LBE1756:
 6266              	.LBE1757:
 6267              	.LBE1760:
 6268              	.LBE1762:
ARM GAS  /tmp/ccPAoVZi.s 			page 194


 6269              	.LBE1764:
 6270              	.LBE1766:
 6271              	.LBE1768:
 6272              	.LBE1770:
 6273              	.LBE1772:
 6274              	.LBE1775:
 6275              	.LBE1781:
 6276              	.LBB1782:
 6277              	.LBI1782:
 142:/usr/include/newlib/c++/9.2.1/bits/allocator.h ****       : __allocator_base<_Tp>(__a) { }
 143:/usr/include/newlib/c++/9.2.1/bits/allocator.h **** 
 144:/usr/include/newlib/c++/9.2.1/bits/allocator.h **** #if __cplusplus >= 201103L
 145:/usr/include/newlib/c++/9.2.1/bits/allocator.h ****       // Avoid implicit deprecation.
 146:/usr/include/newlib/c++/9.2.1/bits/allocator.h ****       allocator& operator=(const allocator&) = default;
 147:/usr/include/newlib/c++/9.2.1/bits/allocator.h **** #endif
 148:/usr/include/newlib/c++/9.2.1/bits/allocator.h **** 
 149:/usr/include/newlib/c++/9.2.1/bits/allocator.h ****       template<typename _Tp1>
 150:/usr/include/newlib/c++/9.2.1/bits/allocator.h **** 	_GLIBCXX20_CONSTEXPR
 151:/usr/include/newlib/c++/9.2.1/bits/allocator.h **** 	allocator(const allocator<_Tp1>&) _GLIBCXX_NOTHROW { }
 152:/usr/include/newlib/c++/9.2.1/bits/allocator.h **** 
 153:/usr/include/newlib/c++/9.2.1/bits/allocator.h ****       ~allocator() _GLIBCXX_NOTHROW { }
 6278              		.loc 20 153 7 is_stmt 1 view .LVU1491
 6279              	.LBB1783:
 6280              	.LBI1783:
  84:/usr/include/newlib/c++/9.2.1/ext/new_allocator.h **** 
  85:/usr/include/newlib/c++/9.2.1/ext/new_allocator.h ****       template<typename _Tp1>
  86:/usr/include/newlib/c++/9.2.1/ext/new_allocator.h **** 	_GLIBCXX20_CONSTEXPR
  87:/usr/include/newlib/c++/9.2.1/ext/new_allocator.h **** 	new_allocator(const new_allocator<_Tp1>&) _GLIBCXX_USE_NOEXCEPT { }
  88:/usr/include/newlib/c++/9.2.1/ext/new_allocator.h **** 
  89:/usr/include/newlib/c++/9.2.1/ext/new_allocator.h ****       ~new_allocator() _GLIBCXX_USE_NOEXCEPT { }
 6281              		.loc 21 89 7 view .LVU1492
 6282              		.loc 21 89 7 is_stmt 0 view .LVU1493
 6283              	.LBE1783:
 6284              	.LBE1782:
  55:Svf.cpp       ****     patch.display.WriteString(cstr, Font_7x10, true);
 6285              		.loc 16 55 5 is_stmt 1 view .LVU1494
 6286              	.LBB1784:
 6287              	.LBI1784:
 526:/usr/include/newlib/c++/9.2.1/bits/basic_string.h ****       : _M_dataplus(_M_local_data(), __a)
 527:/usr/include/newlib/c++/9.2.1/bits/basic_string.h ****       { _M_construct(__s, __s ? __s + traits_type::length(__s) : __s+npos); }
 528:/usr/include/newlib/c++/9.2.1/bits/basic_string.h **** 
 529:/usr/include/newlib/c++/9.2.1/bits/basic_string.h ****       /**
 530:/usr/include/newlib/c++/9.2.1/bits/basic_string.h ****        *  @brief  Construct string as multiple characters.
 531:/usr/include/newlib/c++/9.2.1/bits/basic_string.h ****        *  @param  __n  Number of characters.
 532:/usr/include/newlib/c++/9.2.1/bits/basic_string.h ****        *  @param  __c  Character to use.
 533:/usr/include/newlib/c++/9.2.1/bits/basic_string.h ****        *  @param  __a  Allocator to use (default is default allocator).
 534:/usr/include/newlib/c++/9.2.1/bits/basic_string.h ****        */
 535:/usr/include/newlib/c++/9.2.1/bits/basic_string.h **** #if __cpp_deduction_guides && ! defined _GLIBCXX_DEFINING_STRING_INSTANTIATIONS
 536:/usr/include/newlib/c++/9.2.1/bits/basic_string.h ****       // _GLIBCXX_RESOLVE_LIB_DEFECTS
 537:/usr/include/newlib/c++/9.2.1/bits/basic_string.h ****       // 3076. basic_string CTAD ambiguity
 538:/usr/include/newlib/c++/9.2.1/bits/basic_string.h ****       template<typename = _RequireAllocator<_Alloc>>
 539:/usr/include/newlib/c++/9.2.1/bits/basic_string.h **** #endif
 540:/usr/include/newlib/c++/9.2.1/bits/basic_string.h ****       basic_string(size_type __n, _CharT __c, const _Alloc& __a = _Alloc())
 541:/usr/include/newlib/c++/9.2.1/bits/basic_string.h ****       : _M_dataplus(_M_local_data(), __a)
 542:/usr/include/newlib/c++/9.2.1/bits/basic_string.h ****       { _M_construct(__n, __c); }
 543:/usr/include/newlib/c++/9.2.1/bits/basic_string.h **** 
 544:/usr/include/newlib/c++/9.2.1/bits/basic_string.h **** #if __cplusplus >= 201103L
ARM GAS  /tmp/ccPAoVZi.s 			page 195


 545:/usr/include/newlib/c++/9.2.1/bits/basic_string.h ****       /**
 546:/usr/include/newlib/c++/9.2.1/bits/basic_string.h ****        *  @brief  Move construct string.
 547:/usr/include/newlib/c++/9.2.1/bits/basic_string.h ****        *  @param  __str  Source string.
 548:/usr/include/newlib/c++/9.2.1/bits/basic_string.h ****        *
 549:/usr/include/newlib/c++/9.2.1/bits/basic_string.h ****        *  The newly-created string contains the exact contents of @a __str.
 550:/usr/include/newlib/c++/9.2.1/bits/basic_string.h ****        *  @a __str is a valid, but unspecified string.
 551:/usr/include/newlib/c++/9.2.1/bits/basic_string.h ****        **/
 552:/usr/include/newlib/c++/9.2.1/bits/basic_string.h ****       basic_string(basic_string&& __str) noexcept
 553:/usr/include/newlib/c++/9.2.1/bits/basic_string.h ****       : _M_dataplus(_M_local_data(), std::move(__str._M_get_allocator()))
 554:/usr/include/newlib/c++/9.2.1/bits/basic_string.h ****       {
 555:/usr/include/newlib/c++/9.2.1/bits/basic_string.h **** 	if (__str._M_is_local())
 556:/usr/include/newlib/c++/9.2.1/bits/basic_string.h **** 	  {
 557:/usr/include/newlib/c++/9.2.1/bits/basic_string.h **** 	    traits_type::copy(_M_local_buf, __str._M_local_buf,
 558:/usr/include/newlib/c++/9.2.1/bits/basic_string.h **** 			      _S_local_capacity + 1);
 559:/usr/include/newlib/c++/9.2.1/bits/basic_string.h **** 	  }
 560:/usr/include/newlib/c++/9.2.1/bits/basic_string.h **** 	else
 561:/usr/include/newlib/c++/9.2.1/bits/basic_string.h **** 	  {
 562:/usr/include/newlib/c++/9.2.1/bits/basic_string.h **** 	    _M_data(__str._M_data());
 563:/usr/include/newlib/c++/9.2.1/bits/basic_string.h **** 	    _M_capacity(__str._M_allocated_capacity);
 564:/usr/include/newlib/c++/9.2.1/bits/basic_string.h **** 	  }
 565:/usr/include/newlib/c++/9.2.1/bits/basic_string.h **** 
 566:/usr/include/newlib/c++/9.2.1/bits/basic_string.h **** 	// Must use _M_length() here not _M_set_length() because
 567:/usr/include/newlib/c++/9.2.1/bits/basic_string.h **** 	// basic_stringbuf relies on writing into unallocated capacity so
 568:/usr/include/newlib/c++/9.2.1/bits/basic_string.h **** 	// we mess up the contents if we put a '\0' in the string.
 569:/usr/include/newlib/c++/9.2.1/bits/basic_string.h **** 	_M_length(__str.length());
 570:/usr/include/newlib/c++/9.2.1/bits/basic_string.h **** 	__str._M_data(__str._M_local_data());
 571:/usr/include/newlib/c++/9.2.1/bits/basic_string.h **** 	__str._M_set_length(0);
 572:/usr/include/newlib/c++/9.2.1/bits/basic_string.h ****       }
 573:/usr/include/newlib/c++/9.2.1/bits/basic_string.h **** 
 574:/usr/include/newlib/c++/9.2.1/bits/basic_string.h ****       /**
 575:/usr/include/newlib/c++/9.2.1/bits/basic_string.h ****        *  @brief  Construct string from an initializer %list.
 576:/usr/include/newlib/c++/9.2.1/bits/basic_string.h ****        *  @param  __l  std::initializer_list of characters.
 577:/usr/include/newlib/c++/9.2.1/bits/basic_string.h ****        *  @param  __a  Allocator to use (default is default allocator).
 578:/usr/include/newlib/c++/9.2.1/bits/basic_string.h ****        */
 579:/usr/include/newlib/c++/9.2.1/bits/basic_string.h ****       basic_string(initializer_list<_CharT> __l, const _Alloc& __a = _Alloc())
 580:/usr/include/newlib/c++/9.2.1/bits/basic_string.h ****       : _M_dataplus(_M_local_data(), __a)
 581:/usr/include/newlib/c++/9.2.1/bits/basic_string.h ****       { _M_construct(__l.begin(), __l.end()); }
 582:/usr/include/newlib/c++/9.2.1/bits/basic_string.h **** 
 583:/usr/include/newlib/c++/9.2.1/bits/basic_string.h ****       basic_string(const basic_string& __str, const _Alloc& __a)
 584:/usr/include/newlib/c++/9.2.1/bits/basic_string.h ****       : _M_dataplus(_M_local_data(), __a)
 585:/usr/include/newlib/c++/9.2.1/bits/basic_string.h ****       { _M_construct(__str.begin(), __str.end()); }
 586:/usr/include/newlib/c++/9.2.1/bits/basic_string.h **** 
 587:/usr/include/newlib/c++/9.2.1/bits/basic_string.h ****       basic_string(basic_string&& __str, const _Alloc& __a)
 588:/usr/include/newlib/c++/9.2.1/bits/basic_string.h ****       noexcept(_Alloc_traits::_S_always_equal())
 589:/usr/include/newlib/c++/9.2.1/bits/basic_string.h ****       : _M_dataplus(_M_local_data(), __a)
 590:/usr/include/newlib/c++/9.2.1/bits/basic_string.h ****       {
 591:/usr/include/newlib/c++/9.2.1/bits/basic_string.h **** 	if (__str._M_is_local())
 592:/usr/include/newlib/c++/9.2.1/bits/basic_string.h **** 	  {
 593:/usr/include/newlib/c++/9.2.1/bits/basic_string.h **** 	    traits_type::copy(_M_local_buf, __str._M_local_buf,
 594:/usr/include/newlib/c++/9.2.1/bits/basic_string.h **** 			      _S_local_capacity + 1);
 595:/usr/include/newlib/c++/9.2.1/bits/basic_string.h **** 	    _M_length(__str.length());
 596:/usr/include/newlib/c++/9.2.1/bits/basic_string.h **** 	    __str._M_set_length(0);
 597:/usr/include/newlib/c++/9.2.1/bits/basic_string.h **** 	  }
 598:/usr/include/newlib/c++/9.2.1/bits/basic_string.h **** 	else if (_Alloc_traits::_S_always_equal()
 599:/usr/include/newlib/c++/9.2.1/bits/basic_string.h **** 	    || __str.get_allocator() == __a)
 600:/usr/include/newlib/c++/9.2.1/bits/basic_string.h **** 	  {
 601:/usr/include/newlib/c++/9.2.1/bits/basic_string.h **** 	    _M_data(__str._M_data());
ARM GAS  /tmp/ccPAoVZi.s 			page 196


 602:/usr/include/newlib/c++/9.2.1/bits/basic_string.h **** 	    _M_length(__str.length());
 603:/usr/include/newlib/c++/9.2.1/bits/basic_string.h **** 	    _M_capacity(__str._M_allocated_capacity);
 604:/usr/include/newlib/c++/9.2.1/bits/basic_string.h **** 	    __str._M_data(__str._M_local_buf);
 605:/usr/include/newlib/c++/9.2.1/bits/basic_string.h **** 	    __str._M_set_length(0);
 606:/usr/include/newlib/c++/9.2.1/bits/basic_string.h **** 	  }
 607:/usr/include/newlib/c++/9.2.1/bits/basic_string.h **** 	else
 608:/usr/include/newlib/c++/9.2.1/bits/basic_string.h **** 	  _M_construct(__str.begin(), __str.end());
 609:/usr/include/newlib/c++/9.2.1/bits/basic_string.h ****       }
 610:/usr/include/newlib/c++/9.2.1/bits/basic_string.h **** 
 611:/usr/include/newlib/c++/9.2.1/bits/basic_string.h **** #endif // C++11
 612:/usr/include/newlib/c++/9.2.1/bits/basic_string.h **** 
 613:/usr/include/newlib/c++/9.2.1/bits/basic_string.h ****       /**
 614:/usr/include/newlib/c++/9.2.1/bits/basic_string.h ****        *  @brief  Construct string as copy of a range.
 615:/usr/include/newlib/c++/9.2.1/bits/basic_string.h ****        *  @param  __beg  Start of range.
 616:/usr/include/newlib/c++/9.2.1/bits/basic_string.h ****        *  @param  __end  End of range.
 617:/usr/include/newlib/c++/9.2.1/bits/basic_string.h ****        *  @param  __a  Allocator to use (default is default allocator).
 618:/usr/include/newlib/c++/9.2.1/bits/basic_string.h ****        */
 619:/usr/include/newlib/c++/9.2.1/bits/basic_string.h **** #if __cplusplus >= 201103L
 620:/usr/include/newlib/c++/9.2.1/bits/basic_string.h ****       template<typename _InputIterator,
 621:/usr/include/newlib/c++/9.2.1/bits/basic_string.h **** 	       typename = std::_RequireInputIter<_InputIterator>>
 622:/usr/include/newlib/c++/9.2.1/bits/basic_string.h **** #else
 623:/usr/include/newlib/c++/9.2.1/bits/basic_string.h ****       template<typename _InputIterator>
 624:/usr/include/newlib/c++/9.2.1/bits/basic_string.h **** #endif
 625:/usr/include/newlib/c++/9.2.1/bits/basic_string.h ****         basic_string(_InputIterator __beg, _InputIterator __end,
 626:/usr/include/newlib/c++/9.2.1/bits/basic_string.h **** 		     const _Alloc& __a = _Alloc())
 627:/usr/include/newlib/c++/9.2.1/bits/basic_string.h **** 	: _M_dataplus(_M_local_data(), __a)
 628:/usr/include/newlib/c++/9.2.1/bits/basic_string.h **** 	{ _M_construct(__beg, __end); }
 629:/usr/include/newlib/c++/9.2.1/bits/basic_string.h **** 
 630:/usr/include/newlib/c++/9.2.1/bits/basic_string.h **** #if __cplusplus >= 201703L
 631:/usr/include/newlib/c++/9.2.1/bits/basic_string.h ****       /**
 632:/usr/include/newlib/c++/9.2.1/bits/basic_string.h ****        *  @brief  Construct string from a substring of a string_view.
 633:/usr/include/newlib/c++/9.2.1/bits/basic_string.h ****        *  @param  __t   Source object convertible to string view.
 634:/usr/include/newlib/c++/9.2.1/bits/basic_string.h ****        *  @param  __pos The index of the first character to copy from __t.
 635:/usr/include/newlib/c++/9.2.1/bits/basic_string.h ****        *  @param  __n   The number of characters to copy from __t.
 636:/usr/include/newlib/c++/9.2.1/bits/basic_string.h ****        *  @param  __a   Allocator to use.
 637:/usr/include/newlib/c++/9.2.1/bits/basic_string.h ****        */
 638:/usr/include/newlib/c++/9.2.1/bits/basic_string.h ****       template<typename _Tp, typename = _If_sv<_Tp, void>>
 639:/usr/include/newlib/c++/9.2.1/bits/basic_string.h **** 	basic_string(const _Tp& __t, size_type __pos, size_type __n,
 640:/usr/include/newlib/c++/9.2.1/bits/basic_string.h **** 		     const _Alloc& __a = _Alloc())
 641:/usr/include/newlib/c++/9.2.1/bits/basic_string.h **** 	: basic_string(_S_to_string_view(__t).substr(__pos, __n), __a) { }
 642:/usr/include/newlib/c++/9.2.1/bits/basic_string.h **** 
 643:/usr/include/newlib/c++/9.2.1/bits/basic_string.h ****       /**
 644:/usr/include/newlib/c++/9.2.1/bits/basic_string.h ****        *  @brief  Construct string from a string_view.
 645:/usr/include/newlib/c++/9.2.1/bits/basic_string.h ****        *  @param  __t  Source object convertible to string view.
 646:/usr/include/newlib/c++/9.2.1/bits/basic_string.h ****        *  @param  __a  Allocator to use (default is default allocator).
 647:/usr/include/newlib/c++/9.2.1/bits/basic_string.h ****        */
 648:/usr/include/newlib/c++/9.2.1/bits/basic_string.h ****       template<typename _Tp, typename = _If_sv<_Tp, void>>
 649:/usr/include/newlib/c++/9.2.1/bits/basic_string.h **** 	explicit
 650:/usr/include/newlib/c++/9.2.1/bits/basic_string.h **** 	basic_string(const _Tp& __t, const _Alloc& __a = _Alloc())
 651:/usr/include/newlib/c++/9.2.1/bits/basic_string.h **** 	: basic_string(__sv_wrapper(_S_to_string_view(__t)), __a) { }
 652:/usr/include/newlib/c++/9.2.1/bits/basic_string.h **** #endif // C++17
 653:/usr/include/newlib/c++/9.2.1/bits/basic_string.h **** 
 654:/usr/include/newlib/c++/9.2.1/bits/basic_string.h ****       /**
 655:/usr/include/newlib/c++/9.2.1/bits/basic_string.h ****        *  @brief  Destroy the string instance.
 656:/usr/include/newlib/c++/9.2.1/bits/basic_string.h ****        */
 657:/usr/include/newlib/c++/9.2.1/bits/basic_string.h ****       ~basic_string()
 658:/usr/include/newlib/c++/9.2.1/bits/basic_string.h ****       { _M_dispose(); }
ARM GAS  /tmp/ccPAoVZi.s 			page 197


 659:/usr/include/newlib/c++/9.2.1/bits/basic_string.h **** 
 660:/usr/include/newlib/c++/9.2.1/bits/basic_string.h ****       /**
 661:/usr/include/newlib/c++/9.2.1/bits/basic_string.h ****        *  @brief  Assign the value of @a str to this string.
 662:/usr/include/newlib/c++/9.2.1/bits/basic_string.h ****        *  @param  __str  Source string.
 663:/usr/include/newlib/c++/9.2.1/bits/basic_string.h ****        */
 664:/usr/include/newlib/c++/9.2.1/bits/basic_string.h ****       basic_string&
 665:/usr/include/newlib/c++/9.2.1/bits/basic_string.h ****       operator=(const basic_string& __str)
 666:/usr/include/newlib/c++/9.2.1/bits/basic_string.h ****       {
 667:/usr/include/newlib/c++/9.2.1/bits/basic_string.h **** #if __cplusplus >= 201103L
 668:/usr/include/newlib/c++/9.2.1/bits/basic_string.h **** 	if (_Alloc_traits::_S_propagate_on_copy_assign())
 669:/usr/include/newlib/c++/9.2.1/bits/basic_string.h **** 	  {
 670:/usr/include/newlib/c++/9.2.1/bits/basic_string.h **** 	    if (!_Alloc_traits::_S_always_equal() && !_M_is_local()
 671:/usr/include/newlib/c++/9.2.1/bits/basic_string.h **** 		&& _M_get_allocator() != __str._M_get_allocator())
 672:/usr/include/newlib/c++/9.2.1/bits/basic_string.h **** 	      {
 673:/usr/include/newlib/c++/9.2.1/bits/basic_string.h **** 		// Propagating allocator cannot free existing storage so must
 674:/usr/include/newlib/c++/9.2.1/bits/basic_string.h **** 		// deallocate it before replacing current allocator.
 675:/usr/include/newlib/c++/9.2.1/bits/basic_string.h **** 		if (__str.size() <= _S_local_capacity)
 676:/usr/include/newlib/c++/9.2.1/bits/basic_string.h **** 		  {
 677:/usr/include/newlib/c++/9.2.1/bits/basic_string.h **** 		    _M_destroy(_M_allocated_capacity);
 678:/usr/include/newlib/c++/9.2.1/bits/basic_string.h **** 		    _M_data(_M_local_data());
 679:/usr/include/newlib/c++/9.2.1/bits/basic_string.h **** 		    _M_set_length(0);
 680:/usr/include/newlib/c++/9.2.1/bits/basic_string.h **** 		  }
 681:/usr/include/newlib/c++/9.2.1/bits/basic_string.h **** 		else
 682:/usr/include/newlib/c++/9.2.1/bits/basic_string.h **** 		  {
 683:/usr/include/newlib/c++/9.2.1/bits/basic_string.h **** 		    const auto __len = __str.size();
 684:/usr/include/newlib/c++/9.2.1/bits/basic_string.h **** 		    auto __alloc = __str._M_get_allocator();
 685:/usr/include/newlib/c++/9.2.1/bits/basic_string.h **** 		    // If this allocation throws there are no effects:
 686:/usr/include/newlib/c++/9.2.1/bits/basic_string.h **** 		    auto __ptr = _Alloc_traits::allocate(__alloc, __len + 1);
 687:/usr/include/newlib/c++/9.2.1/bits/basic_string.h **** 		    _M_destroy(_M_allocated_capacity);
 688:/usr/include/newlib/c++/9.2.1/bits/basic_string.h **** 		    _M_data(__ptr);
 689:/usr/include/newlib/c++/9.2.1/bits/basic_string.h **** 		    _M_capacity(__len);
 690:/usr/include/newlib/c++/9.2.1/bits/basic_string.h **** 		    _M_set_length(__len);
 691:/usr/include/newlib/c++/9.2.1/bits/basic_string.h **** 		  }
 692:/usr/include/newlib/c++/9.2.1/bits/basic_string.h **** 	      }
 693:/usr/include/newlib/c++/9.2.1/bits/basic_string.h **** 	    std::__alloc_on_copy(_M_get_allocator(), __str._M_get_allocator());
 694:/usr/include/newlib/c++/9.2.1/bits/basic_string.h **** 	  }
 695:/usr/include/newlib/c++/9.2.1/bits/basic_string.h **** #endif
 696:/usr/include/newlib/c++/9.2.1/bits/basic_string.h **** 	return this->assign(__str);
 697:/usr/include/newlib/c++/9.2.1/bits/basic_string.h ****       }
 698:/usr/include/newlib/c++/9.2.1/bits/basic_string.h **** 
 699:/usr/include/newlib/c++/9.2.1/bits/basic_string.h ****       /**
 700:/usr/include/newlib/c++/9.2.1/bits/basic_string.h ****        *  @brief  Copy contents of @a s into this string.
 701:/usr/include/newlib/c++/9.2.1/bits/basic_string.h ****        *  @param  __s  Source null-terminated string.
 702:/usr/include/newlib/c++/9.2.1/bits/basic_string.h ****        */
 703:/usr/include/newlib/c++/9.2.1/bits/basic_string.h ****       basic_string&
 704:/usr/include/newlib/c++/9.2.1/bits/basic_string.h ****       operator=(const _CharT* __s)
 705:/usr/include/newlib/c++/9.2.1/bits/basic_string.h ****       { return this->assign(__s); }
 706:/usr/include/newlib/c++/9.2.1/bits/basic_string.h **** 
 707:/usr/include/newlib/c++/9.2.1/bits/basic_string.h ****       /**
 708:/usr/include/newlib/c++/9.2.1/bits/basic_string.h ****        *  @brief  Set value to string of length 1.
 709:/usr/include/newlib/c++/9.2.1/bits/basic_string.h ****        *  @param  __c  Source character.
 710:/usr/include/newlib/c++/9.2.1/bits/basic_string.h ****        *
 711:/usr/include/newlib/c++/9.2.1/bits/basic_string.h ****        *  Assigning to a character makes this string length 1 and
 712:/usr/include/newlib/c++/9.2.1/bits/basic_string.h ****        *  (*this)[0] == @a c.
 713:/usr/include/newlib/c++/9.2.1/bits/basic_string.h ****        */
 714:/usr/include/newlib/c++/9.2.1/bits/basic_string.h ****       basic_string&
 715:/usr/include/newlib/c++/9.2.1/bits/basic_string.h ****       operator=(_CharT __c)
ARM GAS  /tmp/ccPAoVZi.s 			page 198


 716:/usr/include/newlib/c++/9.2.1/bits/basic_string.h ****       {
 717:/usr/include/newlib/c++/9.2.1/bits/basic_string.h **** 	this->assign(1, __c);
 718:/usr/include/newlib/c++/9.2.1/bits/basic_string.h **** 	return *this;
 719:/usr/include/newlib/c++/9.2.1/bits/basic_string.h ****       }
 720:/usr/include/newlib/c++/9.2.1/bits/basic_string.h **** 
 721:/usr/include/newlib/c++/9.2.1/bits/basic_string.h **** #if __cplusplus >= 201103L
 722:/usr/include/newlib/c++/9.2.1/bits/basic_string.h ****       /**
 723:/usr/include/newlib/c++/9.2.1/bits/basic_string.h ****        *  @brief  Move assign the value of @a str to this string.
 724:/usr/include/newlib/c++/9.2.1/bits/basic_string.h ****        *  @param  __str  Source string.
 725:/usr/include/newlib/c++/9.2.1/bits/basic_string.h ****        *
 726:/usr/include/newlib/c++/9.2.1/bits/basic_string.h ****        *  The contents of @a str are moved into this string (without copying).
 727:/usr/include/newlib/c++/9.2.1/bits/basic_string.h ****        *  @a str is a valid, but unspecified string.
 728:/usr/include/newlib/c++/9.2.1/bits/basic_string.h ****        **/
 729:/usr/include/newlib/c++/9.2.1/bits/basic_string.h ****       // _GLIBCXX_RESOLVE_LIB_DEFECTS
 730:/usr/include/newlib/c++/9.2.1/bits/basic_string.h ****       // 2063. Contradictory requirements for string move assignment
 731:/usr/include/newlib/c++/9.2.1/bits/basic_string.h ****       basic_string&
 732:/usr/include/newlib/c++/9.2.1/bits/basic_string.h ****       operator=(basic_string&& __str)
 733:/usr/include/newlib/c++/9.2.1/bits/basic_string.h ****       noexcept(_Alloc_traits::_S_nothrow_move())
 734:/usr/include/newlib/c++/9.2.1/bits/basic_string.h ****       {
 735:/usr/include/newlib/c++/9.2.1/bits/basic_string.h **** 	if (!_M_is_local() && _Alloc_traits::_S_propagate_on_move_assign()
 736:/usr/include/newlib/c++/9.2.1/bits/basic_string.h **** 	    && !_Alloc_traits::_S_always_equal()
 737:/usr/include/newlib/c++/9.2.1/bits/basic_string.h **** 	    && _M_get_allocator() != __str._M_get_allocator())
 738:/usr/include/newlib/c++/9.2.1/bits/basic_string.h **** 	  {
 739:/usr/include/newlib/c++/9.2.1/bits/basic_string.h **** 	    // Destroy existing storage before replacing allocator.
 740:/usr/include/newlib/c++/9.2.1/bits/basic_string.h **** 	    _M_destroy(_M_allocated_capacity);
 741:/usr/include/newlib/c++/9.2.1/bits/basic_string.h **** 	    _M_data(_M_local_data());
 742:/usr/include/newlib/c++/9.2.1/bits/basic_string.h **** 	    _M_set_length(0);
 743:/usr/include/newlib/c++/9.2.1/bits/basic_string.h **** 	  }
 744:/usr/include/newlib/c++/9.2.1/bits/basic_string.h **** 	// Replace allocator if POCMA is true.
 745:/usr/include/newlib/c++/9.2.1/bits/basic_string.h **** 	std::__alloc_on_move(_M_get_allocator(), __str._M_get_allocator());
 746:/usr/include/newlib/c++/9.2.1/bits/basic_string.h **** 
 747:/usr/include/newlib/c++/9.2.1/bits/basic_string.h **** 	if (__str._M_is_local())
 748:/usr/include/newlib/c++/9.2.1/bits/basic_string.h **** 	  {
 749:/usr/include/newlib/c++/9.2.1/bits/basic_string.h **** 	    // We've always got room for a short string, just copy it.
 750:/usr/include/newlib/c++/9.2.1/bits/basic_string.h **** 	    if (__str.size())
 751:/usr/include/newlib/c++/9.2.1/bits/basic_string.h **** 	      this->_S_copy(_M_data(), __str._M_data(), __str.size());
 752:/usr/include/newlib/c++/9.2.1/bits/basic_string.h **** 	    _M_set_length(__str.size());
 753:/usr/include/newlib/c++/9.2.1/bits/basic_string.h **** 	  }
 754:/usr/include/newlib/c++/9.2.1/bits/basic_string.h **** 	else if (_Alloc_traits::_S_propagate_on_move_assign()
 755:/usr/include/newlib/c++/9.2.1/bits/basic_string.h **** 	    || _Alloc_traits::_S_always_equal()
 756:/usr/include/newlib/c++/9.2.1/bits/basic_string.h **** 	    || _M_get_allocator() == __str._M_get_allocator())
 757:/usr/include/newlib/c++/9.2.1/bits/basic_string.h **** 	  {
 758:/usr/include/newlib/c++/9.2.1/bits/basic_string.h **** 	    // Just move the allocated pointer, our allocator can free it.
 759:/usr/include/newlib/c++/9.2.1/bits/basic_string.h **** 	    pointer __data = nullptr;
 760:/usr/include/newlib/c++/9.2.1/bits/basic_string.h **** 	    size_type __capacity;
 761:/usr/include/newlib/c++/9.2.1/bits/basic_string.h **** 	    if (!_M_is_local())
 762:/usr/include/newlib/c++/9.2.1/bits/basic_string.h **** 	      {
 763:/usr/include/newlib/c++/9.2.1/bits/basic_string.h **** 		if (_Alloc_traits::_S_always_equal())
 764:/usr/include/newlib/c++/9.2.1/bits/basic_string.h **** 		  {
 765:/usr/include/newlib/c++/9.2.1/bits/basic_string.h **** 		    // __str can reuse our existing storage.
 766:/usr/include/newlib/c++/9.2.1/bits/basic_string.h **** 		    __data = _M_data();
 767:/usr/include/newlib/c++/9.2.1/bits/basic_string.h **** 		    __capacity = _M_allocated_capacity;
 768:/usr/include/newlib/c++/9.2.1/bits/basic_string.h **** 		  }
 769:/usr/include/newlib/c++/9.2.1/bits/basic_string.h **** 		else // __str can't use it, so free it.
 770:/usr/include/newlib/c++/9.2.1/bits/basic_string.h **** 		  _M_destroy(_M_allocated_capacity);
 771:/usr/include/newlib/c++/9.2.1/bits/basic_string.h **** 	      }
 772:/usr/include/newlib/c++/9.2.1/bits/basic_string.h **** 
ARM GAS  /tmp/ccPAoVZi.s 			page 199


 773:/usr/include/newlib/c++/9.2.1/bits/basic_string.h **** 	    _M_data(__str._M_data());
 774:/usr/include/newlib/c++/9.2.1/bits/basic_string.h **** 	    _M_length(__str.length());
 775:/usr/include/newlib/c++/9.2.1/bits/basic_string.h **** 	    _M_capacity(__str._M_allocated_capacity);
 776:/usr/include/newlib/c++/9.2.1/bits/basic_string.h **** 	    if (__data)
 777:/usr/include/newlib/c++/9.2.1/bits/basic_string.h **** 	      {
 778:/usr/include/newlib/c++/9.2.1/bits/basic_string.h **** 		__str._M_data(__data);
 779:/usr/include/newlib/c++/9.2.1/bits/basic_string.h **** 		__str._M_capacity(__capacity);
 780:/usr/include/newlib/c++/9.2.1/bits/basic_string.h **** 	      }
 781:/usr/include/newlib/c++/9.2.1/bits/basic_string.h **** 	    else
 782:/usr/include/newlib/c++/9.2.1/bits/basic_string.h **** 	      __str._M_data(__str._M_local_buf);
 783:/usr/include/newlib/c++/9.2.1/bits/basic_string.h **** 	  }
 784:/usr/include/newlib/c++/9.2.1/bits/basic_string.h **** 	else // Need to do a deep copy
 785:/usr/include/newlib/c++/9.2.1/bits/basic_string.h **** 	  assign(__str);
 786:/usr/include/newlib/c++/9.2.1/bits/basic_string.h **** 	__str.clear();
 787:/usr/include/newlib/c++/9.2.1/bits/basic_string.h **** 	return *this;
 788:/usr/include/newlib/c++/9.2.1/bits/basic_string.h ****       }
 789:/usr/include/newlib/c++/9.2.1/bits/basic_string.h **** 
 790:/usr/include/newlib/c++/9.2.1/bits/basic_string.h ****       /**
 791:/usr/include/newlib/c++/9.2.1/bits/basic_string.h ****        *  @brief  Set value to string constructed from initializer %list.
 792:/usr/include/newlib/c++/9.2.1/bits/basic_string.h ****        *  @param  __l  std::initializer_list.
 793:/usr/include/newlib/c++/9.2.1/bits/basic_string.h ****        */
 794:/usr/include/newlib/c++/9.2.1/bits/basic_string.h ****       basic_string&
 795:/usr/include/newlib/c++/9.2.1/bits/basic_string.h ****       operator=(initializer_list<_CharT> __l)
 796:/usr/include/newlib/c++/9.2.1/bits/basic_string.h ****       {
 797:/usr/include/newlib/c++/9.2.1/bits/basic_string.h **** 	this->assign(__l.begin(), __l.size());
 798:/usr/include/newlib/c++/9.2.1/bits/basic_string.h **** 	return *this;
 799:/usr/include/newlib/c++/9.2.1/bits/basic_string.h ****       }
 800:/usr/include/newlib/c++/9.2.1/bits/basic_string.h **** #endif // C++11
 801:/usr/include/newlib/c++/9.2.1/bits/basic_string.h **** 
 802:/usr/include/newlib/c++/9.2.1/bits/basic_string.h **** #if __cplusplus >= 201703L
 803:/usr/include/newlib/c++/9.2.1/bits/basic_string.h ****       /**
 804:/usr/include/newlib/c++/9.2.1/bits/basic_string.h ****        *  @brief  Set value to string constructed from a string_view.
 805:/usr/include/newlib/c++/9.2.1/bits/basic_string.h ****        *  @param  __svt  An object convertible to string_view.
 806:/usr/include/newlib/c++/9.2.1/bits/basic_string.h ****        */
 807:/usr/include/newlib/c++/9.2.1/bits/basic_string.h ****      template<typename _Tp>
 808:/usr/include/newlib/c++/9.2.1/bits/basic_string.h ****        _If_sv<_Tp, basic_string&>
 809:/usr/include/newlib/c++/9.2.1/bits/basic_string.h ****        operator=(const _Tp& __svt)
 810:/usr/include/newlib/c++/9.2.1/bits/basic_string.h ****        { return this->assign(__svt); }
 811:/usr/include/newlib/c++/9.2.1/bits/basic_string.h **** 
 812:/usr/include/newlib/c++/9.2.1/bits/basic_string.h ****       /**
 813:/usr/include/newlib/c++/9.2.1/bits/basic_string.h ****        *  @brief  Convert to a string_view.
 814:/usr/include/newlib/c++/9.2.1/bits/basic_string.h ****        *  @return A string_view.
 815:/usr/include/newlib/c++/9.2.1/bits/basic_string.h ****        */
 816:/usr/include/newlib/c++/9.2.1/bits/basic_string.h ****       operator __sv_type() const noexcept
 817:/usr/include/newlib/c++/9.2.1/bits/basic_string.h ****       { return __sv_type(data(), size()); }
 818:/usr/include/newlib/c++/9.2.1/bits/basic_string.h **** #endif // C++17
 819:/usr/include/newlib/c++/9.2.1/bits/basic_string.h **** 
 820:/usr/include/newlib/c++/9.2.1/bits/basic_string.h ****       // Iterators:
 821:/usr/include/newlib/c++/9.2.1/bits/basic_string.h ****       /**
 822:/usr/include/newlib/c++/9.2.1/bits/basic_string.h ****        *  Returns a read/write iterator that points to the first character in
 823:/usr/include/newlib/c++/9.2.1/bits/basic_string.h ****        *  the %string.
 824:/usr/include/newlib/c++/9.2.1/bits/basic_string.h ****        */
 825:/usr/include/newlib/c++/9.2.1/bits/basic_string.h ****       iterator
 826:/usr/include/newlib/c++/9.2.1/bits/basic_string.h ****       begin() _GLIBCXX_NOEXCEPT
 827:/usr/include/newlib/c++/9.2.1/bits/basic_string.h ****       { return iterator(_M_data()); }
 828:/usr/include/newlib/c++/9.2.1/bits/basic_string.h **** 
 829:/usr/include/newlib/c++/9.2.1/bits/basic_string.h ****       /**
ARM GAS  /tmp/ccPAoVZi.s 			page 200


 830:/usr/include/newlib/c++/9.2.1/bits/basic_string.h ****        *  Returns a read-only (constant) iterator that points to the first
 831:/usr/include/newlib/c++/9.2.1/bits/basic_string.h ****        *  character in the %string.
 832:/usr/include/newlib/c++/9.2.1/bits/basic_string.h ****        */
 833:/usr/include/newlib/c++/9.2.1/bits/basic_string.h ****       const_iterator
 834:/usr/include/newlib/c++/9.2.1/bits/basic_string.h ****       begin() const _GLIBCXX_NOEXCEPT
 835:/usr/include/newlib/c++/9.2.1/bits/basic_string.h ****       { return const_iterator(_M_data()); }
 836:/usr/include/newlib/c++/9.2.1/bits/basic_string.h **** 
 837:/usr/include/newlib/c++/9.2.1/bits/basic_string.h ****       /**
 838:/usr/include/newlib/c++/9.2.1/bits/basic_string.h ****        *  Returns a read/write iterator that points one past the last
 839:/usr/include/newlib/c++/9.2.1/bits/basic_string.h ****        *  character in the %string.
 840:/usr/include/newlib/c++/9.2.1/bits/basic_string.h ****        */
 841:/usr/include/newlib/c++/9.2.1/bits/basic_string.h ****       iterator
 842:/usr/include/newlib/c++/9.2.1/bits/basic_string.h ****       end() _GLIBCXX_NOEXCEPT
 843:/usr/include/newlib/c++/9.2.1/bits/basic_string.h ****       { return iterator(_M_data() + this->size()); }
 844:/usr/include/newlib/c++/9.2.1/bits/basic_string.h **** 
 845:/usr/include/newlib/c++/9.2.1/bits/basic_string.h ****       /**
 846:/usr/include/newlib/c++/9.2.1/bits/basic_string.h ****        *  Returns a read-only (constant) iterator that points one past the
 847:/usr/include/newlib/c++/9.2.1/bits/basic_string.h ****        *  last character in the %string.
 848:/usr/include/newlib/c++/9.2.1/bits/basic_string.h ****        */
 849:/usr/include/newlib/c++/9.2.1/bits/basic_string.h ****       const_iterator
 850:/usr/include/newlib/c++/9.2.1/bits/basic_string.h ****       end() const _GLIBCXX_NOEXCEPT
 851:/usr/include/newlib/c++/9.2.1/bits/basic_string.h ****       { return const_iterator(_M_data() + this->size()); }
 852:/usr/include/newlib/c++/9.2.1/bits/basic_string.h **** 
 853:/usr/include/newlib/c++/9.2.1/bits/basic_string.h ****       /**
 854:/usr/include/newlib/c++/9.2.1/bits/basic_string.h ****        *  Returns a read/write reverse iterator that points to the last
 855:/usr/include/newlib/c++/9.2.1/bits/basic_string.h ****        *  character in the %string.  Iteration is done in reverse element
 856:/usr/include/newlib/c++/9.2.1/bits/basic_string.h ****        *  order.
 857:/usr/include/newlib/c++/9.2.1/bits/basic_string.h ****        */
 858:/usr/include/newlib/c++/9.2.1/bits/basic_string.h ****       reverse_iterator
 859:/usr/include/newlib/c++/9.2.1/bits/basic_string.h ****       rbegin() _GLIBCXX_NOEXCEPT
 860:/usr/include/newlib/c++/9.2.1/bits/basic_string.h ****       { return reverse_iterator(this->end()); }
 861:/usr/include/newlib/c++/9.2.1/bits/basic_string.h **** 
 862:/usr/include/newlib/c++/9.2.1/bits/basic_string.h ****       /**
 863:/usr/include/newlib/c++/9.2.1/bits/basic_string.h ****        *  Returns a read-only (constant) reverse iterator that points
 864:/usr/include/newlib/c++/9.2.1/bits/basic_string.h ****        *  to the last character in the %string.  Iteration is done in
 865:/usr/include/newlib/c++/9.2.1/bits/basic_string.h ****        *  reverse element order.
 866:/usr/include/newlib/c++/9.2.1/bits/basic_string.h ****        */
 867:/usr/include/newlib/c++/9.2.1/bits/basic_string.h ****       const_reverse_iterator
 868:/usr/include/newlib/c++/9.2.1/bits/basic_string.h ****       rbegin() const _GLIBCXX_NOEXCEPT
 869:/usr/include/newlib/c++/9.2.1/bits/basic_string.h ****       { return const_reverse_iterator(this->end()); }
 870:/usr/include/newlib/c++/9.2.1/bits/basic_string.h **** 
 871:/usr/include/newlib/c++/9.2.1/bits/basic_string.h ****       /**
 872:/usr/include/newlib/c++/9.2.1/bits/basic_string.h ****        *  Returns a read/write reverse iterator that points to one before the
 873:/usr/include/newlib/c++/9.2.1/bits/basic_string.h ****        *  first character in the %string.  Iteration is done in reverse
 874:/usr/include/newlib/c++/9.2.1/bits/basic_string.h ****        *  element order.
 875:/usr/include/newlib/c++/9.2.1/bits/basic_string.h ****        */
 876:/usr/include/newlib/c++/9.2.1/bits/basic_string.h ****       reverse_iterator
 877:/usr/include/newlib/c++/9.2.1/bits/basic_string.h ****       rend() _GLIBCXX_NOEXCEPT
 878:/usr/include/newlib/c++/9.2.1/bits/basic_string.h ****       { return reverse_iterator(this->begin()); }
 879:/usr/include/newlib/c++/9.2.1/bits/basic_string.h **** 
 880:/usr/include/newlib/c++/9.2.1/bits/basic_string.h ****       /**
 881:/usr/include/newlib/c++/9.2.1/bits/basic_string.h ****        *  Returns a read-only (constant) reverse iterator that points
 882:/usr/include/newlib/c++/9.2.1/bits/basic_string.h ****        *  to one before the first character in the %string.  Iteration
 883:/usr/include/newlib/c++/9.2.1/bits/basic_string.h ****        *  is done in reverse element order.
 884:/usr/include/newlib/c++/9.2.1/bits/basic_string.h ****        */
 885:/usr/include/newlib/c++/9.2.1/bits/basic_string.h ****       const_reverse_iterator
 886:/usr/include/newlib/c++/9.2.1/bits/basic_string.h ****       rend() const _GLIBCXX_NOEXCEPT
ARM GAS  /tmp/ccPAoVZi.s 			page 201


 887:/usr/include/newlib/c++/9.2.1/bits/basic_string.h ****       { return const_reverse_iterator(this->begin()); }
 888:/usr/include/newlib/c++/9.2.1/bits/basic_string.h **** 
 889:/usr/include/newlib/c++/9.2.1/bits/basic_string.h **** #if __cplusplus >= 201103L
 890:/usr/include/newlib/c++/9.2.1/bits/basic_string.h ****       /**
 891:/usr/include/newlib/c++/9.2.1/bits/basic_string.h ****        *  Returns a read-only (constant) iterator that points to the first
 892:/usr/include/newlib/c++/9.2.1/bits/basic_string.h ****        *  character in the %string.
 893:/usr/include/newlib/c++/9.2.1/bits/basic_string.h ****        */
 894:/usr/include/newlib/c++/9.2.1/bits/basic_string.h ****       const_iterator
 895:/usr/include/newlib/c++/9.2.1/bits/basic_string.h ****       cbegin() const noexcept
 896:/usr/include/newlib/c++/9.2.1/bits/basic_string.h ****       { return const_iterator(this->_M_data()); }
 897:/usr/include/newlib/c++/9.2.1/bits/basic_string.h **** 
 898:/usr/include/newlib/c++/9.2.1/bits/basic_string.h ****       /**
 899:/usr/include/newlib/c++/9.2.1/bits/basic_string.h ****        *  Returns a read-only (constant) iterator that points one past the
 900:/usr/include/newlib/c++/9.2.1/bits/basic_string.h ****        *  last character in the %string.
 901:/usr/include/newlib/c++/9.2.1/bits/basic_string.h ****        */
 902:/usr/include/newlib/c++/9.2.1/bits/basic_string.h ****       const_iterator
 903:/usr/include/newlib/c++/9.2.1/bits/basic_string.h ****       cend() const noexcept
 904:/usr/include/newlib/c++/9.2.1/bits/basic_string.h ****       { return const_iterator(this->_M_data() + this->size()); }
 905:/usr/include/newlib/c++/9.2.1/bits/basic_string.h **** 
 906:/usr/include/newlib/c++/9.2.1/bits/basic_string.h ****       /**
 907:/usr/include/newlib/c++/9.2.1/bits/basic_string.h ****        *  Returns a read-only (constant) reverse iterator that points
 908:/usr/include/newlib/c++/9.2.1/bits/basic_string.h ****        *  to the last character in the %string.  Iteration is done in
 909:/usr/include/newlib/c++/9.2.1/bits/basic_string.h ****        *  reverse element order.
 910:/usr/include/newlib/c++/9.2.1/bits/basic_string.h ****        */
 911:/usr/include/newlib/c++/9.2.1/bits/basic_string.h ****       const_reverse_iterator
 912:/usr/include/newlib/c++/9.2.1/bits/basic_string.h ****       crbegin() const noexcept
 913:/usr/include/newlib/c++/9.2.1/bits/basic_string.h ****       { return const_reverse_iterator(this->end()); }
 914:/usr/include/newlib/c++/9.2.1/bits/basic_string.h **** 
 915:/usr/include/newlib/c++/9.2.1/bits/basic_string.h ****       /**
 916:/usr/include/newlib/c++/9.2.1/bits/basic_string.h ****        *  Returns a read-only (constant) reverse iterator that points
 917:/usr/include/newlib/c++/9.2.1/bits/basic_string.h ****        *  to one before the first character in the %string.  Iteration
 918:/usr/include/newlib/c++/9.2.1/bits/basic_string.h ****        *  is done in reverse element order.
 919:/usr/include/newlib/c++/9.2.1/bits/basic_string.h ****        */
 920:/usr/include/newlib/c++/9.2.1/bits/basic_string.h ****       const_reverse_iterator
 921:/usr/include/newlib/c++/9.2.1/bits/basic_string.h ****       crend() const noexcept
 922:/usr/include/newlib/c++/9.2.1/bits/basic_string.h ****       { return const_reverse_iterator(this->begin()); }
 923:/usr/include/newlib/c++/9.2.1/bits/basic_string.h **** #endif
 924:/usr/include/newlib/c++/9.2.1/bits/basic_string.h **** 
 925:/usr/include/newlib/c++/9.2.1/bits/basic_string.h ****     public:
 926:/usr/include/newlib/c++/9.2.1/bits/basic_string.h ****       // Capacity:
 927:/usr/include/newlib/c++/9.2.1/bits/basic_string.h ****       ///  Returns the number of characters in the string, not including any
 928:/usr/include/newlib/c++/9.2.1/bits/basic_string.h ****       ///  null-termination.
 929:/usr/include/newlib/c++/9.2.1/bits/basic_string.h ****       size_type
 930:/usr/include/newlib/c++/9.2.1/bits/basic_string.h ****       size() const _GLIBCXX_NOEXCEPT
 931:/usr/include/newlib/c++/9.2.1/bits/basic_string.h ****       { return _M_string_length; }
 932:/usr/include/newlib/c++/9.2.1/bits/basic_string.h **** 
 933:/usr/include/newlib/c++/9.2.1/bits/basic_string.h ****       ///  Returns the number of characters in the string, not including any
 934:/usr/include/newlib/c++/9.2.1/bits/basic_string.h ****       ///  null-termination.
 935:/usr/include/newlib/c++/9.2.1/bits/basic_string.h ****       size_type
 936:/usr/include/newlib/c++/9.2.1/bits/basic_string.h ****       length() const _GLIBCXX_NOEXCEPT
 937:/usr/include/newlib/c++/9.2.1/bits/basic_string.h ****       { return _M_string_length; }
 938:/usr/include/newlib/c++/9.2.1/bits/basic_string.h **** 
 939:/usr/include/newlib/c++/9.2.1/bits/basic_string.h ****       ///  Returns the size() of the largest possible %string.
 940:/usr/include/newlib/c++/9.2.1/bits/basic_string.h ****       size_type
 941:/usr/include/newlib/c++/9.2.1/bits/basic_string.h ****       max_size() const _GLIBCXX_NOEXCEPT
 942:/usr/include/newlib/c++/9.2.1/bits/basic_string.h ****       { return (_Alloc_traits::max_size(_M_get_allocator()) - 1) / 2; }
 943:/usr/include/newlib/c++/9.2.1/bits/basic_string.h **** 
ARM GAS  /tmp/ccPAoVZi.s 			page 202


 944:/usr/include/newlib/c++/9.2.1/bits/basic_string.h ****       /**
 945:/usr/include/newlib/c++/9.2.1/bits/basic_string.h ****        *  @brief  Resizes the %string to the specified number of characters.
 946:/usr/include/newlib/c++/9.2.1/bits/basic_string.h ****        *  @param  __n  Number of characters the %string should contain.
 947:/usr/include/newlib/c++/9.2.1/bits/basic_string.h ****        *  @param  __c  Character to fill any new elements.
 948:/usr/include/newlib/c++/9.2.1/bits/basic_string.h ****        *
 949:/usr/include/newlib/c++/9.2.1/bits/basic_string.h ****        *  This function will %resize the %string to the specified
 950:/usr/include/newlib/c++/9.2.1/bits/basic_string.h ****        *  number of characters.  If the number is smaller than the
 951:/usr/include/newlib/c++/9.2.1/bits/basic_string.h ****        *  %string's current size the %string is truncated, otherwise
 952:/usr/include/newlib/c++/9.2.1/bits/basic_string.h ****        *  the %string is extended and new elements are %set to @a __c.
 953:/usr/include/newlib/c++/9.2.1/bits/basic_string.h ****        */
 954:/usr/include/newlib/c++/9.2.1/bits/basic_string.h ****       void
 955:/usr/include/newlib/c++/9.2.1/bits/basic_string.h ****       resize(size_type __n, _CharT __c);
 956:/usr/include/newlib/c++/9.2.1/bits/basic_string.h **** 
 957:/usr/include/newlib/c++/9.2.1/bits/basic_string.h ****       /**
 958:/usr/include/newlib/c++/9.2.1/bits/basic_string.h ****        *  @brief  Resizes the %string to the specified number of characters.
 959:/usr/include/newlib/c++/9.2.1/bits/basic_string.h ****        *  @param  __n  Number of characters the %string should contain.
 960:/usr/include/newlib/c++/9.2.1/bits/basic_string.h ****        *
 961:/usr/include/newlib/c++/9.2.1/bits/basic_string.h ****        *  This function will resize the %string to the specified length.  If
 962:/usr/include/newlib/c++/9.2.1/bits/basic_string.h ****        *  the new size is smaller than the %string's current size the %string
 963:/usr/include/newlib/c++/9.2.1/bits/basic_string.h ****        *  is truncated, otherwise the %string is extended and new characters
 964:/usr/include/newlib/c++/9.2.1/bits/basic_string.h ****        *  are default-constructed.  For basic types such as char, this means
 965:/usr/include/newlib/c++/9.2.1/bits/basic_string.h ****        *  setting them to 0.
 966:/usr/include/newlib/c++/9.2.1/bits/basic_string.h ****        */
 967:/usr/include/newlib/c++/9.2.1/bits/basic_string.h ****       void
 968:/usr/include/newlib/c++/9.2.1/bits/basic_string.h ****       resize(size_type __n)
 969:/usr/include/newlib/c++/9.2.1/bits/basic_string.h ****       { this->resize(__n, _CharT()); }
 970:/usr/include/newlib/c++/9.2.1/bits/basic_string.h **** 
 971:/usr/include/newlib/c++/9.2.1/bits/basic_string.h **** #if __cplusplus >= 201103L
 972:/usr/include/newlib/c++/9.2.1/bits/basic_string.h ****       ///  A non-binding request to reduce capacity() to size().
 973:/usr/include/newlib/c++/9.2.1/bits/basic_string.h ****       void
 974:/usr/include/newlib/c++/9.2.1/bits/basic_string.h ****       shrink_to_fit() noexcept
 975:/usr/include/newlib/c++/9.2.1/bits/basic_string.h ****       {
 976:/usr/include/newlib/c++/9.2.1/bits/basic_string.h **** #if __cpp_exceptions
 977:/usr/include/newlib/c++/9.2.1/bits/basic_string.h **** 	if (capacity() > size())
 978:/usr/include/newlib/c++/9.2.1/bits/basic_string.h **** 	  {
 979:/usr/include/newlib/c++/9.2.1/bits/basic_string.h **** 	    try
 980:/usr/include/newlib/c++/9.2.1/bits/basic_string.h **** 	      { reserve(0); }
 981:/usr/include/newlib/c++/9.2.1/bits/basic_string.h **** 	    catch(...)
 982:/usr/include/newlib/c++/9.2.1/bits/basic_string.h **** 	      { }
 983:/usr/include/newlib/c++/9.2.1/bits/basic_string.h **** 	  }
 984:/usr/include/newlib/c++/9.2.1/bits/basic_string.h **** #endif
 985:/usr/include/newlib/c++/9.2.1/bits/basic_string.h ****       }
 986:/usr/include/newlib/c++/9.2.1/bits/basic_string.h **** #endif
 987:/usr/include/newlib/c++/9.2.1/bits/basic_string.h **** 
 988:/usr/include/newlib/c++/9.2.1/bits/basic_string.h ****       /**
 989:/usr/include/newlib/c++/9.2.1/bits/basic_string.h ****        *  Returns the total number of characters that the %string can hold
 990:/usr/include/newlib/c++/9.2.1/bits/basic_string.h ****        *  before needing to allocate more memory.
 991:/usr/include/newlib/c++/9.2.1/bits/basic_string.h ****        */
 992:/usr/include/newlib/c++/9.2.1/bits/basic_string.h ****       size_type
 993:/usr/include/newlib/c++/9.2.1/bits/basic_string.h ****       capacity() const _GLIBCXX_NOEXCEPT
 994:/usr/include/newlib/c++/9.2.1/bits/basic_string.h ****       {
 995:/usr/include/newlib/c++/9.2.1/bits/basic_string.h **** 	return _M_is_local() ? size_type(_S_local_capacity)
 996:/usr/include/newlib/c++/9.2.1/bits/basic_string.h **** 	                     : _M_allocated_capacity;
 997:/usr/include/newlib/c++/9.2.1/bits/basic_string.h ****       }
 998:/usr/include/newlib/c++/9.2.1/bits/basic_string.h **** 
 999:/usr/include/newlib/c++/9.2.1/bits/basic_string.h ****       /**
1000:/usr/include/newlib/c++/9.2.1/bits/basic_string.h ****        *  @brief  Attempt to preallocate enough memory for specified number of
ARM GAS  /tmp/ccPAoVZi.s 			page 203


1001:/usr/include/newlib/c++/9.2.1/bits/basic_string.h ****        *          characters.
1002:/usr/include/newlib/c++/9.2.1/bits/basic_string.h ****        *  @param  __res_arg  Number of characters required.
1003:/usr/include/newlib/c++/9.2.1/bits/basic_string.h ****        *  @throw  std::length_error  If @a __res_arg exceeds @c max_size().
1004:/usr/include/newlib/c++/9.2.1/bits/basic_string.h ****        *
1005:/usr/include/newlib/c++/9.2.1/bits/basic_string.h ****        *  This function attempts to reserve enough memory for the
1006:/usr/include/newlib/c++/9.2.1/bits/basic_string.h ****        *  %string to hold the specified number of characters.  If the
1007:/usr/include/newlib/c++/9.2.1/bits/basic_string.h ****        *  number requested is more than max_size(), length_error is
1008:/usr/include/newlib/c++/9.2.1/bits/basic_string.h ****        *  thrown.
1009:/usr/include/newlib/c++/9.2.1/bits/basic_string.h ****        *
1010:/usr/include/newlib/c++/9.2.1/bits/basic_string.h ****        *  The advantage of this function is that if optimal code is a
1011:/usr/include/newlib/c++/9.2.1/bits/basic_string.h ****        *  necessity and the user can determine the string length that will be
1012:/usr/include/newlib/c++/9.2.1/bits/basic_string.h ****        *  required, the user can reserve the memory in %advance, and thus
1013:/usr/include/newlib/c++/9.2.1/bits/basic_string.h ****        *  prevent a possible reallocation of memory and copying of %string
1014:/usr/include/newlib/c++/9.2.1/bits/basic_string.h ****        *  data.
1015:/usr/include/newlib/c++/9.2.1/bits/basic_string.h ****        */
1016:/usr/include/newlib/c++/9.2.1/bits/basic_string.h ****       void
1017:/usr/include/newlib/c++/9.2.1/bits/basic_string.h ****       reserve(size_type __res_arg = 0);
1018:/usr/include/newlib/c++/9.2.1/bits/basic_string.h **** 
1019:/usr/include/newlib/c++/9.2.1/bits/basic_string.h ****       /**
1020:/usr/include/newlib/c++/9.2.1/bits/basic_string.h ****        *  Erases the string, making it empty.
1021:/usr/include/newlib/c++/9.2.1/bits/basic_string.h ****        */
1022:/usr/include/newlib/c++/9.2.1/bits/basic_string.h ****       void
1023:/usr/include/newlib/c++/9.2.1/bits/basic_string.h ****       clear() _GLIBCXX_NOEXCEPT
1024:/usr/include/newlib/c++/9.2.1/bits/basic_string.h ****       { _M_set_length(0); }
1025:/usr/include/newlib/c++/9.2.1/bits/basic_string.h **** 
1026:/usr/include/newlib/c++/9.2.1/bits/basic_string.h ****       /**
1027:/usr/include/newlib/c++/9.2.1/bits/basic_string.h ****        *  Returns true if the %string is empty.  Equivalent to 
1028:/usr/include/newlib/c++/9.2.1/bits/basic_string.h ****        *  <code>*this == ""</code>.
1029:/usr/include/newlib/c++/9.2.1/bits/basic_string.h ****        */
1030:/usr/include/newlib/c++/9.2.1/bits/basic_string.h ****       _GLIBCXX_NODISCARD bool
1031:/usr/include/newlib/c++/9.2.1/bits/basic_string.h ****       empty() const _GLIBCXX_NOEXCEPT
1032:/usr/include/newlib/c++/9.2.1/bits/basic_string.h ****       { return this->size() == 0; }
1033:/usr/include/newlib/c++/9.2.1/bits/basic_string.h **** 
1034:/usr/include/newlib/c++/9.2.1/bits/basic_string.h ****       // Element access:
1035:/usr/include/newlib/c++/9.2.1/bits/basic_string.h ****       /**
1036:/usr/include/newlib/c++/9.2.1/bits/basic_string.h ****        *  @brief  Subscript access to the data contained in the %string.
1037:/usr/include/newlib/c++/9.2.1/bits/basic_string.h ****        *  @param  __pos  The index of the character to access.
1038:/usr/include/newlib/c++/9.2.1/bits/basic_string.h ****        *  @return  Read-only (constant) reference to the character.
1039:/usr/include/newlib/c++/9.2.1/bits/basic_string.h ****        *
1040:/usr/include/newlib/c++/9.2.1/bits/basic_string.h ****        *  This operator allows for easy, array-style, data access.
1041:/usr/include/newlib/c++/9.2.1/bits/basic_string.h ****        *  Note that data access with this operator is unchecked and
1042:/usr/include/newlib/c++/9.2.1/bits/basic_string.h ****        *  out_of_range lookups are not defined. (For checked lookups
1043:/usr/include/newlib/c++/9.2.1/bits/basic_string.h ****        *  see at().)
1044:/usr/include/newlib/c++/9.2.1/bits/basic_string.h ****        */
1045:/usr/include/newlib/c++/9.2.1/bits/basic_string.h ****       const_reference
1046:/usr/include/newlib/c++/9.2.1/bits/basic_string.h ****       operator[] (size_type __pos) const _GLIBCXX_NOEXCEPT
1047:/usr/include/newlib/c++/9.2.1/bits/basic_string.h ****       {
1048:/usr/include/newlib/c++/9.2.1/bits/basic_string.h **** 	__glibcxx_assert(__pos <= size());
1049:/usr/include/newlib/c++/9.2.1/bits/basic_string.h **** 	return _M_data()[__pos];
1050:/usr/include/newlib/c++/9.2.1/bits/basic_string.h ****       }
1051:/usr/include/newlib/c++/9.2.1/bits/basic_string.h **** 
1052:/usr/include/newlib/c++/9.2.1/bits/basic_string.h ****       /**
1053:/usr/include/newlib/c++/9.2.1/bits/basic_string.h ****        *  @brief  Subscript access to the data contained in the %string.
1054:/usr/include/newlib/c++/9.2.1/bits/basic_string.h ****        *  @param  __pos  The index of the character to access.
1055:/usr/include/newlib/c++/9.2.1/bits/basic_string.h ****        *  @return  Read/write reference to the character.
1056:/usr/include/newlib/c++/9.2.1/bits/basic_string.h ****        *
1057:/usr/include/newlib/c++/9.2.1/bits/basic_string.h ****        *  This operator allows for easy, array-style, data access.
ARM GAS  /tmp/ccPAoVZi.s 			page 204


1058:/usr/include/newlib/c++/9.2.1/bits/basic_string.h ****        *  Note that data access with this operator is unchecked and
1059:/usr/include/newlib/c++/9.2.1/bits/basic_string.h ****        *  out_of_range lookups are not defined. (For checked lookups
1060:/usr/include/newlib/c++/9.2.1/bits/basic_string.h ****        *  see at().)
1061:/usr/include/newlib/c++/9.2.1/bits/basic_string.h ****        */
1062:/usr/include/newlib/c++/9.2.1/bits/basic_string.h ****       reference
1063:/usr/include/newlib/c++/9.2.1/bits/basic_string.h ****       operator[](size_type __pos)
 6288              		.loc 19 1063 7 view .LVU1495
 6289              	.LBB1785:
1064:/usr/include/newlib/c++/9.2.1/bits/basic_string.h ****       {
1065:/usr/include/newlib/c++/9.2.1/bits/basic_string.h ****         // Allow pos == size() both in C++98 mode, as v3 extension,
1066:/usr/include/newlib/c++/9.2.1/bits/basic_string.h **** 	// and in C++11 mode.
1067:/usr/include/newlib/c++/9.2.1/bits/basic_string.h **** 	__glibcxx_assert(__pos <= size());
1068:/usr/include/newlib/c++/9.2.1/bits/basic_string.h ****         // In pedantic mode be strict in C++98 mode.
1069:/usr/include/newlib/c++/9.2.1/bits/basic_string.h **** 	_GLIBCXX_DEBUG_PEDASSERT(__cplusplus >= 201103L || __pos < size());
1070:/usr/include/newlib/c++/9.2.1/bits/basic_string.h **** 	return _M_data()[__pos];
 6290              		.loc 19 1070 18 is_stmt 0 view .LVU1496
 6291 00d0 049C     		ldr	r4, [sp, #16]
 6292              	.LVL477:
 6293              		.loc 19 1070 18 view .LVU1497
 6294              	.LBE1785:
 6295              	.LBE1784:
 6296              		.loc 16 56 5 is_stmt 1 view .LVU1498
 6297              		.loc 16 56 30 is_stmt 0 view .LVU1499
 6298 00d2 0095     		str	r5, [sp]
 6299 00d4 2146     		mov	r1, r4
 6300 00d6 97E80C00 		ldm	r7, {r2, r3}
 6301 00da FFF7FEFF 		bl	_ZN5daisy25OneBitGraphicsDisplayImplINS_11OledDisplayINS_13SSD130xDriverILj128ELj64ENS_24SSD130
 6302              	.LVL478:
  57:Svf.cpp       **** 
  58:Svf.cpp       ****     patch.display.SetCursor(0, 50);
 6303              		.loc 16 58 5 is_stmt 1 view .LVU1500
 6304              	.LBB1786:
 6305              	.LBI1786:
 171:../../libdaisy/src/hid/disp/display.h ****     {
 6306              		.loc 6 171 10 view .LVU1501
 6307              	.LBB1787:
 173:../../libdaisy/src/hid/disp/display.h ****         currentY_ = (y >= Height()) ? Height() - 1 : y;
 6308              		.loc 6 173 9 view .LVU1502
 174:../../libdaisy/src/hid/disp/display.h ****     }
 6309              		.loc 6 174 9 view .LVU1503
 173:../../libdaisy/src/hid/disp/display.h ****         currentY_ = (y >= Height()) ? Height() - 1 : y;
 6310              		.loc 6 173 19 is_stmt 0 view .LVU1504
 6311 00de 49F2A813 		movw	r3, #37288
 6312 00e2 4FF44812 		mov	r2, #3276800
 6313              	.LBE1787:
 6314              	.LBE1786:
 6315              	.LBB1789:
 6316              	.LBB1790:
 705:/usr/include/newlib/c++/9.2.1/bits/basic_string.h **** 
 6317              		.loc 19 705 32 view .LVU1505
 6318 00e6 1549     		ldr	r1, .L423+40
 6319 00e8 04A8     		add	r0, sp, #16
 6320              	.LVL479:
 705:/usr/include/newlib/c++/9.2.1/bits/basic_string.h **** 
 6321              		.loc 19 705 32 view .LVU1506
 6322              	.LBE1790:
 6323              	.LBE1789:
ARM GAS  /tmp/ccPAoVZi.s 			page 205


 6324              	.LBB1792:
 6325              	.LBB1788:
 173:../../libdaisy/src/hid/disp/display.h ****         currentY_ = (y >= Height()) ? Height() - 1 : y;
 6326              		.loc 6 173 19 view .LVU1507
 6327 00ea F250     		str	r2, [r6, r3]
 6328              	.LVL480:
 173:../../libdaisy/src/hid/disp/display.h ****         currentY_ = (y >= Height()) ? Height() - 1 : y;
 6329              		.loc 6 173 19 view .LVU1508
 6330              	.LBE1788:
 6331              	.LBE1792:
  59:Svf.cpp       ****     str = "LP  HP  BP  Notch";
 6332              		.loc 16 59 5 is_stmt 1 view .LVU1509
 6333              	.LBB1793:
 6334              	.LBI1789:
 704:/usr/include/newlib/c++/9.2.1/bits/basic_string.h ****       { return this->assign(__s); }
 6335              		.loc 19 704 7 view .LVU1510
 6336              	.LBB1791:
 705:/usr/include/newlib/c++/9.2.1/bits/basic_string.h **** 
 6337              		.loc 19 705 32 is_stmt 0 view .LVU1511
 6338 00ec FFF7FEFF 		bl	_ZNSt7__cxx1112basic_stringIcSt11char_traitsIcESaIcEE6assignEPKc
 6339              	.LVL481:
 705:/usr/include/newlib/c++/9.2.1/bits/basic_string.h **** 
 6340              		.loc 19 705 32 view .LVU1512
 6341              	.LBE1791:
 6342              	.LBE1793:
  60:Svf.cpp       ****     patch.display.WriteString(cstr, Font_7x10, true);
 6343              		.loc 16 60 5 is_stmt 1 view .LVU1513
 6344              		.loc 16 60 30 is_stmt 0 view .LVU1514
 6345 00f0 2146     		mov	r1, r4
 6346 00f2 1148     		ldr	r0, .L423+36
 6347 00f4 0095     		str	r5, [sp]
 6348 00f6 97E80C00 		ldm	r7, {r2, r3}
 6349 00fa FFF7FEFF 		bl	_ZN5daisy25OneBitGraphicsDisplayImplINS_11OledDisplayINS_13SSD130xDriverILj128ELj64ENS_24SSD130
 6350              	.LVL482:
  61:Svf.cpp       ****     patch.display.Update();
 6351              		.loc 16 61 5 is_stmt 1 view .LVU1515
 6352              	.LBB1794:
 6353              	.LBI1794:
 6354              		.loc 5 50 10 view .LVU1516
 6355              	.LBB1795:
 6356              		.loc 5 50 30 is_stmt 0 view .LVU1517
 6357 00fe 1048     		ldr	r0, .L423+44
 6358 0100 FFF7FEFF 		bl	_ZN5daisy13SSD130xDriverILj128ELj64ENS_24SSD130x4WireSpiTransportEE6UpdateEv
 6359              	.LVL483:
 6360              		.loc 5 50 30 view .LVU1518
 6361              	.LBE1795:
 6362              	.LBE1794:
  62:Svf.cpp       **** 
  63:Svf.cpp       ****     //start audio
  64:Svf.cpp       ****     patch.StartAdc();
 6363              		.loc 16 64 5 is_stmt 1 view .LVU1519
 6364              		.loc 16 64 19 is_stmt 0 view .LVU1520
 6365 0104 3046     		mov	r0, r6
 6366 0106 FFF7FEFF 		bl	_ZN5daisy10DaisyPatch8StartAdcEv
 6367              	.LVL484:
  65:Svf.cpp       ****     patch.StartAudio(AudioCallback);
 6368              		.loc 16 65 5 is_stmt 1 view .LVU1521
ARM GAS  /tmp/ccPAoVZi.s 			page 206


 6369              		.loc 16 65 21 is_stmt 0 view .LVU1522
 6370 010a 3046     		mov	r0, r6
 6371 010c 0D49     		ldr	r1, .L423+48
 6372 010e FFF7FEFF 		bl	_ZN5daisy10DaisyPatch10StartAudioEPFvPKPKfPPfjE
 6373              	.LVL485:
 6374              	.L421:
  66:Svf.cpp       ****     while(1) {}
 6375              		.loc 16 66 5 is_stmt 1 discriminator 1 view .LVU1523
 6376              		.loc 16 66 5 discriminator 1 view .LVU1524
 6377              		.loc 16 66 5 discriminator 1 view .LVU1525
 6378              		.loc 16 66 5 discriminator 1 view .LVU1526
 6379 0112 FEE7     		b	.L421
 6380              	.L424:
 6381              		.align	2
 6382              	.L423:
 6383 0114 00000000 		.word	patch
 6384 0118 00000000 		.word	Font_7x10
 6385 011c 00000000 		.word	.LANCHOR3
 6386 0120 00409C46 		.word	1184645120
 6387 0124 00000000 		.word	.LANCHOR0
 6388 0128 9A99993E 		.word	1050253722
 6389 012c 00000000 		.word	.LANCHOR1
 6390 0130 00000000 		.word	.LANCHOR2
 6391 0134 00000000 		.word	.LC2
 6392 0138 A4910000 		.word	patch+37284
 6393 013c 14000000 		.word	.LC3
 6394 0140 AC910000 		.word	patch+37292
 6395 0144 00000000 		.word	_ZL13AudioCallbackPKPKfPPfj
 6396              		.cfi_endproc
 6397              	.LFE4234:
 6399              		.section	.text.startup._GLOBAL__sub_I_patch,"ax",%progbits
 6400              		.align	1
 6401              		.p2align 2,,3
 6402              		.syntax unified
 6403              		.thumb
 6404              		.thumb_func
 6405              		.fpu fpv5-d16
 6407              	_GLOBAL__sub_I_patch:
 6408              	.LFB4834:
  67:Svf.cpp       **** }
 6409              		.loc 16 67 1 view -0
 6410              		.cfi_startproc
 6411              		@ args = 0, pretend = 0, frame = 0
 6412              		@ frame_needed = 0, uses_anonymous_args = 0
 6413              	.LBB1860:
 6414              	.LBI1860:
 6415              		.loc 16 67 1 view .LVU1528
 6416              	.LVL486:
 6417              	.LBB1861:
 6418              	.LBB1862:
 6419              	.LBI1862:
  39:../../libdaisy/src/daisy_patch.h ****     /** Destructor */
 6420              		.loc 4 39 5 view .LVU1529
 6421              	.LBB1863:
 6422              	.LBB1864:
 6423              	.LBI1864:
  21:../../libdaisy/src/daisy_seed.h ****     ~DaisySeed() {}
ARM GAS  /tmp/ccPAoVZi.s 			page 207


 6424              		.loc 10 21 5 view .LVU1530
 6425              	.LBB1865:
 6426              	.LBB1866:
 6427              	.LBI1866:
  62:../../libdaisy/src/hid/audio.h ****     ~AudioHandle() {}
 6428              		.loc 14 62 5 view .LVU1531
 6429              	.LBE1866:
 6430              	.LBE1865:
 6431              	.LBE1864:
 6432              	.LBB1885:
 6433              	.LBB1886:
 6434              	.LBB1887:
 6435              	.LBB1888:
 6436              	.LBB1889:
 6437              	.LBB1890:
 6438              	.LBB1891:
  36:../../libdaisy/src/hid/midi.h ****             tx     = {DSY_GPIOB, 6};
 6439              		.loc 7 36 20 is_stmt 0 view .LVU1532
 6440 0000 2249     		ldr	r1, .L427
 6441              	.LBE1891:
 6442              	.LBE1890:
 6443              	.LBE1889:
 6444              	.LBE1888:
 6445              	.LBE1887:
 6446              	.LBE1886:
 6447              	.LBE1885:
 6448              	.LBB1934:
 6449              	.LBB1882:
 6450              	.LBB1873:
 6451              	.LBB1867:
 6452              	.LBB1868:
  62:../../libdaisy/src/hid/audio.h ****     ~AudioHandle() {}
 6453              		.loc 14 62 35 view .LVU1533
 6454 0002 2348     		ldr	r0, .L427+4
 6455              	.LBE1868:
 6456              	.LBE1867:
 6457              	.LBE1873:
 6458              	.LBE1882:
 6459              	.LBE1934:
 6460              	.LBE1863:
 6461              	.LBE1862:
   8:Svf.cpp       **** Parameter  cutoff_ctrl, res_ctrl, drive_ctrl;
 6462              		.loc 16 8 12 view .LVU1534
 6463 0004 234A     		ldr	r2, .L427+8
 6464              	.LBE1861:
 6465              	.LBE1860:
 6466              		.loc 16 67 1 view .LVU1535
 6467 0006 F8B5     		push	{r3, r4, r5, r6, r7, lr}
 6468              		.cfi_def_cfa_offset 24
 6469              		.cfi_offset 3, -24
 6470              		.cfi_offset 4, -20
 6471              		.cfi_offset 5, -16
 6472              		.cfi_offset 6, -12
 6473              		.cfi_offset 7, -8
 6474              		.cfi_offset 14, -4
 6475              	.LBB1990:
 6476              	.LBB1987:
ARM GAS  /tmp/ccPAoVZi.s 			page 208


 6477              	.LBB1974:
 6478              	.LBB1971:
 6479              	.LBB1935:
 6480              	.LBB1930:
 6481              	.LBB1926:
 6482              	.LBB1907:
 6483              	.LBB1902:
 6484              	.LBB1897:
 6485              	.LBB1892:
  36:../../libdaisy/src/hid/midi.h ****             tx     = {DSY_GPIOB, 6};
 6486              		.loc 7 36 20 view .LVU1536
 6487 0008 0E88     		ldrh	r6, [r1]
 6488 000a 49F29415 		movw	r5, #37268
  37:../../libdaisy/src/hid/midi.h ****         }
 6489              		.loc 7 37 20 view .LVU1537
 6490 000e 8988     		ldrh	r1, [r1, #4]
 6491 0010 49F29614 		movw	r4, #37270
 6492              	.LBE1892:
 6493              	.LBE1897:
 6494              	.LBE1902:
 6495              	.LBE1907:
 6496              	.LBE1926:
 6497              	.LBE1930:
 6498              	.LBE1935:
 6499              	.LBB1936:
 6500              	.LBB1883:
 6501              	.LBB1874:
 6502              	.LBB1871:
 6503              	.LBB1869:
  62:../../libdaisy/src/hid/audio.h ****     ~AudioHandle() {}
 6504              		.loc 14 62 35 view .LVU1538
 6505 0014 0023     		movs	r3, #0
 6506              	.LBE1869:
 6507              	.LBE1871:
 6508              	.LBE1874:
 6509              	.LBE1883:
 6510              	.LBE1936:
 6511              	.LBB1937:
 6512              	.LBB1931:
 6513              	.LBB1927:
 6514              	.LBB1908:
 6515              	.LBB1903:
 6516              	.LBB1898:
 6517              	.LBB1893:
  36:../../libdaisy/src/hid/midi.h ****             tx     = {DSY_GPIOB, 6};
 6518              		.loc 7 36 20 view .LVU1539
 6519 0016 4653     		strh	r6, [r0, r5]	@ movhi
 6520              	.LBE1893:
 6521              	.LBE1898:
 6522              	.LBE1903:
 6523              	.LBE1908:
 6524              	.LBB1909:
 6525              	.LBB1910:
 6526              	.LBB1911:
 6527              	.LBB1912:
 6528              		.file 24 "../../libdaisy/src/per/uart.h"
   1:../../libdaisy/src/per/uart.h **** /* 
ARM GAS  /tmp/ccPAoVZi.s 			page 209


   2:../../libdaisy/src/per/uart.h **** TODO
   3:../../libdaisy/src/per/uart.h **** - UART1 defaults to DMA, add flexible config for DMA on all periphs
   4:../../libdaisy/src/per/uart.h **** - Transmit function improvements.
   5:../../libdaisy/src/per/uart.h **** - Overflow handling, etc. for Rx Queue.
   6:../../libdaisy/src/per/uart.h **** */
   7:../../libdaisy/src/per/uart.h **** 
   8:../../libdaisy/src/per/uart.h **** #pragma once
   9:../../libdaisy/src/per/uart.h **** #ifndef DSY_UART_H
  10:../../libdaisy/src/per/uart.h **** #define DSY_UART_H /**< macro */
  11:../../libdaisy/src/per/uart.h **** #include "daisy_core.h"
  12:../../libdaisy/src/per/uart.h **** 
  13:../../libdaisy/src/per/uart.h **** 
  14:../../libdaisy/src/per/uart.h **** namespace daisy
  15:../../libdaisy/src/per/uart.h **** {
  16:../../libdaisy/src/per/uart.h **** /** @addtogroup serial
  17:../../libdaisy/src/per/uart.h ****     @{
  18:../../libdaisy/src/per/uart.h ****     */
  19:../../libdaisy/src/per/uart.h **** 
  20:../../libdaisy/src/per/uart.h **** /** 
  21:../../libdaisy/src/per/uart.h ****     Uart Peripheral
  22:../../libdaisy/src/per/uart.h ****     @author shensley
  23:../../libdaisy/src/per/uart.h ****     @date March 2020
  24:../../libdaisy/src/per/uart.h ****     */
  25:../../libdaisy/src/per/uart.h **** class UartHandler
  26:../../libdaisy/src/per/uart.h **** {
  27:../../libdaisy/src/per/uart.h ****   public:
  28:../../libdaisy/src/per/uart.h ****     struct Config
  29:../../libdaisy/src/per/uart.h ****     {
  30:../../libdaisy/src/per/uart.h ****         enum class Peripheral
  31:../../libdaisy/src/per/uart.h ****         {
  32:../../libdaisy/src/per/uart.h ****             USART_1,
  33:../../libdaisy/src/per/uart.h ****             USART_2,
  34:../../libdaisy/src/per/uart.h ****             USART_3,
  35:../../libdaisy/src/per/uart.h ****             UART_4,
  36:../../libdaisy/src/per/uart.h ****             UART_5,
  37:../../libdaisy/src/per/uart.h ****             USART_6,
  38:../../libdaisy/src/per/uart.h ****             UART_7,
  39:../../libdaisy/src/per/uart.h ****             UART_8,
  40:../../libdaisy/src/per/uart.h ****             LPUART_1,
  41:../../libdaisy/src/per/uart.h ****         };
  42:../../libdaisy/src/per/uart.h **** 
  43:../../libdaisy/src/per/uart.h ****         enum class StopBits
  44:../../libdaisy/src/per/uart.h ****         {
  45:../../libdaisy/src/per/uart.h ****             BITS_0_5,
  46:../../libdaisy/src/per/uart.h ****             BITS_1,
  47:../../libdaisy/src/per/uart.h ****             BITS_1_5,
  48:../../libdaisy/src/per/uart.h ****             BITS_2,
  49:../../libdaisy/src/per/uart.h ****         };
  50:../../libdaisy/src/per/uart.h **** 
  51:../../libdaisy/src/per/uart.h ****         enum class Parity
  52:../../libdaisy/src/per/uart.h ****         {
  53:../../libdaisy/src/per/uart.h ****             NONE,
  54:../../libdaisy/src/per/uart.h ****             EVEN,
  55:../../libdaisy/src/per/uart.h ****             ODD,
  56:../../libdaisy/src/per/uart.h ****         };
  57:../../libdaisy/src/per/uart.h **** 
  58:../../libdaisy/src/per/uart.h ****         enum class Mode
ARM GAS  /tmp/ccPAoVZi.s 			page 210


  59:../../libdaisy/src/per/uart.h ****         {
  60:../../libdaisy/src/per/uart.h ****             RX,
  61:../../libdaisy/src/per/uart.h ****             TX,
  62:../../libdaisy/src/per/uart.h ****             TX_RX,
  63:../../libdaisy/src/per/uart.h ****         };
  64:../../libdaisy/src/per/uart.h **** 
  65:../../libdaisy/src/per/uart.h ****         enum class WordLength
  66:../../libdaisy/src/per/uart.h ****         {
  67:../../libdaisy/src/per/uart.h ****             BITS_7,
  68:../../libdaisy/src/per/uart.h ****             BITS_8,
  69:../../libdaisy/src/per/uart.h ****             BITS_9,
  70:../../libdaisy/src/per/uart.h ****         };
  71:../../libdaisy/src/per/uart.h **** 
  72:../../libdaisy/src/per/uart.h ****         struct
  73:../../libdaisy/src/per/uart.h ****         {
  74:../../libdaisy/src/per/uart.h ****             dsy_gpio_pin tx; /**< & */
  75:../../libdaisy/src/per/uart.h ****             dsy_gpio_pin rx; /**< & */
  76:../../libdaisy/src/per/uart.h ****         } pin_config;        /**< & */
  77:../../libdaisy/src/per/uart.h **** 
  78:../../libdaisy/src/per/uart.h ****         Peripheral periph;
  79:../../libdaisy/src/per/uart.h ****         StopBits   stopbits;
  80:../../libdaisy/src/per/uart.h ****         Parity     parity;
  81:../../libdaisy/src/per/uart.h ****         Mode       mode;
  82:../../libdaisy/src/per/uart.h ****         WordLength wordlength;
  83:../../libdaisy/src/per/uart.h ****         uint32_t   baudrate;
  84:../../libdaisy/src/per/uart.h ****     };
  85:../../libdaisy/src/per/uart.h **** 
  86:../../libdaisy/src/per/uart.h **** 
  87:../../libdaisy/src/per/uart.h ****     UartHandler() : pimpl_(nullptr) {}
 6529              		.loc 24 87 35 view .LVU1540
 6530 0018 49F29815 		movw	r5, #37272
 6531              	.LBE1912:
 6532              	.LBE1911:
 6533              	.LBE1910:
 6534              	.LBE1909:
 6535              	.LBB1917:
 6536              	.LBB1904:
 6537              	.LBB1899:
 6538              	.LBB1894:
  37:../../libdaisy/src/hid/midi.h ****         }
 6539              		.loc 7 37 20 view .LVU1541
 6540 001c 0153     		strh	r1, [r0, r4]	@ movhi
 6541              	.LBE1894:
 6542              	.LBE1899:
 6543              	.LBE1904:
 6544              	.LBE1917:
  82:../../libdaisy/src/hid/midi.h ****     ~MidiHandler() {}
 6545              		.loc 7 82 19 view .LVU1542
 6546 001e 4FF60F06 		movw	r6, #63503
 6547 0022 49F2A011 		movw	r1, #37280
 6548              	.LBB1918:
 6549              	.LBB1915:
 6550              	.LBB1914:
 6551              	.LBB1913:
 6552              		.loc 24 87 35 view .LVU1543
 6553 0026 4351     		str	r3, [r0, r5]
 6554              	.LBE1913:
ARM GAS  /tmp/ccPAoVZi.s 			page 211


 6555              	.LBE1914:
 6556              	.LBE1915:
 6557              	.LBE1918:
  82:../../libdaisy/src/hid/midi.h ****     ~MidiHandler() {}
 6558              		.loc 7 82 19 view .LVU1544
 6559 0028 49F29C14 		movw	r4, #37276
 6560 002c 1A4D     		ldr	r5, .L427+12
 6561              	.LBB1919:
 6562              	.LBB1905:
 6563              	.LBB1900:
 6564              	.LBB1895:
  35:../../libdaisy/src/hid/midi.h ****             rx     = {DSY_GPIOB, 7};
 6565              		.loc 7 35 20 view .LVU1545
 6566 002e 49F29017 		movw	r7, #37264
 6567              	.LBE1895:
 6568              	.LBE1900:
 6569              	.LBE1905:
 6570              	.LBE1919:
  82:../../libdaisy/src/hid/midi.h ****     ~MidiHandler() {}
 6571              		.loc 7 82 19 view .LVU1546
 6572 0032 4652     		strh	r6, [r0, r1]	@ movhi
 6573 0034 49F2A211 		movw	r1, #37282
 6574 0038 0726     		movs	r6, #7
 6575 003a 0551     		str	r5, [r0, r4]
 6576              	.LBE1927:
 6577              	.LBE1931:
 6578              	.LBE1937:
 6579              	.LBB1938:
 6580              	.LBB1939:
 6581              	.LBB1940:
  16:../../libdaisy/src/hid/disp/oled_display.h ****     virtual ~OledDisplay() {}
 6582              		.loc 5 16 19 view .LVU1547
 6583 003c 49F2A414 		movw	r4, #37284
 6584 0040 164D     		ldr	r5, .L427+16
 6585              	.LBE1940:
 6586              	.LBE1939:
 6587              	.LBE1938:
 6588              	.LBB1962:
 6589              	.LBB1932:
 6590              	.LBB1928:
  82:../../libdaisy/src/hid/midi.h ****     ~MidiHandler() {}
 6591              		.loc 7 82 19 view .LVU1548
 6592 0042 4654     		strb	r6, [r0, r1]
 6593              	.LBE1928:
 6594              	.LBE1932:
 6595              	.LBE1962:
 6596              	.LBB1963:
 6597              	.LBB1959:
 6598              	.LBB1956:
 6599              	.LBB1941:
 6600              	.LBB1942:
 6601              	.LBB1943:
 6602              	.LBB1944:
 6603              	.LBB1945:
 6604              		.file 25 "../../libdaisy/src/per/spi.h"
   1:../../libdaisy/src/per/spi.h **** #pragma once
   2:../../libdaisy/src/per/spi.h **** #ifndef DSY_SPI_H
ARM GAS  /tmp/ccPAoVZi.s 			page 212


   3:../../libdaisy/src/per/spi.h **** #define DSY_SPI_H
   4:../../libdaisy/src/per/spi.h **** 
   5:../../libdaisy/src/per/spi.h **** #include "daisy_core.h"
   6:../../libdaisy/src/per/spi.h **** 
   7:../../libdaisy/src/per/spi.h **** /* TODO:
   8:../../libdaisy/src/per/spi.h **** - Add documentation
   9:../../libdaisy/src/per/spi.h **** - Add reception
  10:../../libdaisy/src/per/spi.h **** - Add IT
  11:../../libdaisy/src/per/spi.h **** - Add DMA
  12:../../libdaisy/src/per/spi.h **** */
  13:../../libdaisy/src/per/spi.h **** 
  14:../../libdaisy/src/per/spi.h **** namespace daisy
  15:../../libdaisy/src/per/spi.h **** {
  16:../../libdaisy/src/per/spi.h **** /** @addtogroup serial
  17:../../libdaisy/src/per/spi.h **** @{
  18:../../libdaisy/src/per/spi.h **** */
  19:../../libdaisy/src/per/spi.h **** 
  20:../../libdaisy/src/per/spi.h **** /**  Handler for serial peripheral interface */
  21:../../libdaisy/src/per/spi.h **** class SpiHandle
  22:../../libdaisy/src/per/spi.h **** {
  23:../../libdaisy/src/per/spi.h ****   public:
  24:../../libdaisy/src/per/spi.h ****     struct Config
  25:../../libdaisy/src/per/spi.h ****     {
  26:../../libdaisy/src/per/spi.h ****         enum class Peripheral
  27:../../libdaisy/src/per/spi.h ****         {
  28:../../libdaisy/src/per/spi.h ****             SPI_1,
  29:../../libdaisy/src/per/spi.h ****             SPI_2,
  30:../../libdaisy/src/per/spi.h ****             SPI_3,
  31:../../libdaisy/src/per/spi.h ****             SPI_4,
  32:../../libdaisy/src/per/spi.h ****             SPI_5,
  33:../../libdaisy/src/per/spi.h ****             SPI_6,
  34:../../libdaisy/src/per/spi.h ****         };
  35:../../libdaisy/src/per/spi.h **** 
  36:../../libdaisy/src/per/spi.h ****         enum class Mode
  37:../../libdaisy/src/per/spi.h ****         {
  38:../../libdaisy/src/per/spi.h ****             MASTER,
  39:../../libdaisy/src/per/spi.h ****             SLAVE,
  40:../../libdaisy/src/per/spi.h ****         };
  41:../../libdaisy/src/per/spi.h **** 
  42:../../libdaisy/src/per/spi.h ****         enum class Direction
  43:../../libdaisy/src/per/spi.h ****         {
  44:../../libdaisy/src/per/spi.h ****             TWO_LINES,
  45:../../libdaisy/src/per/spi.h ****             TWO_LINES_TX_ONLY,
  46:../../libdaisy/src/per/spi.h ****             TWO_LINES_RX_ONLY,
  47:../../libdaisy/src/per/spi.h ****             ONE_LINE,
  48:../../libdaisy/src/per/spi.h ****         };
  49:../../libdaisy/src/per/spi.h **** 
  50:../../libdaisy/src/per/spi.h ****         enum class ClockPolarity
  51:../../libdaisy/src/per/spi.h ****         {
  52:../../libdaisy/src/per/spi.h ****             LOW,
  53:../../libdaisy/src/per/spi.h ****             HIGH,
  54:../../libdaisy/src/per/spi.h ****         };
  55:../../libdaisy/src/per/spi.h **** 
  56:../../libdaisy/src/per/spi.h ****         enum class ClockPhase
  57:../../libdaisy/src/per/spi.h ****         {
  58:../../libdaisy/src/per/spi.h ****             ONE_EDGE,
  59:../../libdaisy/src/per/spi.h ****             TWO_EDGE,
ARM GAS  /tmp/ccPAoVZi.s 			page 213


  60:../../libdaisy/src/per/spi.h ****         };
  61:../../libdaisy/src/per/spi.h **** 
  62:../../libdaisy/src/per/spi.h ****         enum class NSS
  63:../../libdaisy/src/per/spi.h ****         {
  64:../../libdaisy/src/per/spi.h ****             SOFT,
  65:../../libdaisy/src/per/spi.h ****             HARD_INPUT,
  66:../../libdaisy/src/per/spi.h ****             HARD_OUTPUT,
  67:../../libdaisy/src/per/spi.h ****         };
  68:../../libdaisy/src/per/spi.h **** 
  69:../../libdaisy/src/per/spi.h ****         enum class BaudPrescaler
  70:../../libdaisy/src/per/spi.h ****         {
  71:../../libdaisy/src/per/spi.h ****             PS_2,
  72:../../libdaisy/src/per/spi.h ****             PS_4,
  73:../../libdaisy/src/per/spi.h ****             PS_8,
  74:../../libdaisy/src/per/spi.h ****             PS_16,
  75:../../libdaisy/src/per/spi.h ****             PS_32,
  76:../../libdaisy/src/per/spi.h ****             PS_64,
  77:../../libdaisy/src/per/spi.h ****             PS_128,
  78:../../libdaisy/src/per/spi.h ****             PS_256,
  79:../../libdaisy/src/per/spi.h ****         };
  80:../../libdaisy/src/per/spi.h **** 
  81:../../libdaisy/src/per/spi.h ****         struct
  82:../../libdaisy/src/per/spi.h ****         {
  83:../../libdaisy/src/per/spi.h ****             dsy_gpio_pin sclk; /**< & */
  84:../../libdaisy/src/per/spi.h ****             dsy_gpio_pin miso; /**< & */
  85:../../libdaisy/src/per/spi.h ****             dsy_gpio_pin mosi; /**< & */
  86:../../libdaisy/src/per/spi.h ****             dsy_gpio_pin nss;  /**< & */
  87:../../libdaisy/src/per/spi.h ****         } pin_config;
  88:../../libdaisy/src/per/spi.h **** 
  89:../../libdaisy/src/per/spi.h ****         Peripheral    periph;
  90:../../libdaisy/src/per/spi.h ****         Mode          mode;
  91:../../libdaisy/src/per/spi.h ****         Direction     direction;
  92:../../libdaisy/src/per/spi.h ****         unsigned long datasize;
  93:../../libdaisy/src/per/spi.h ****         ClockPolarity clock_polarity;
  94:../../libdaisy/src/per/spi.h ****         ClockPhase    clock_phase;
  95:../../libdaisy/src/per/spi.h ****         NSS           nss;
  96:../../libdaisy/src/per/spi.h ****         BaudPrescaler baud_prescaler;
  97:../../libdaisy/src/per/spi.h ****     };
  98:../../libdaisy/src/per/spi.h **** 
  99:../../libdaisy/src/per/spi.h ****     SpiHandle() : pimpl_(nullptr) {}
 6605              		.loc 25 99 33 view .LVU1549
 6606 0044 49F2AC11 		movw	r1, #37292
 6607              	.LBE1945:
 6608              	.LBE1944:
 6609              	.LBE1943:
 6610              	.LBE1942:
 6611              	.LBE1941:
  16:../../libdaisy/src/hid/disp/oled_display.h ****     virtual ~OledDisplay() {}
 6612              		.loc 5 16 19 view .LVU1550
 6613 0048 0551     		str	r5, [r0, r4]
 6614              	.LBE1956:
 6615              	.LBE1959:
 6616              	.LBE1963:
 6617              	.LBE1971:
 6618              	.LBE1974:
   9:Svf.cpp       **** Svf        svf;
 6619              		.loc 16 9 12 view .LVU1551
ARM GAS  /tmp/ccPAoVZi.s 			page 214


 6620 004a 154C     		ldr	r4, .L427+20
 6621              	.LBB1975:
 6622              	.LBB1972:
 6623              	.LBB1964:
 6624              	.LBB1960:
 6625              	.LBB1957:
 6626              	.LBB1952:
 6627              	.LBB1950:
 6628              	.LBB1948:
 6629              	.LBB1947:
 6630              	.LBB1946:
 6631              		.loc 25 99 33 view .LVU1552
 6632 004c 4350     		str	r3, [r0, r1]
 6633              	.LBE1946:
 6634              	.LBE1947:
 6635              	.LBE1948:
 6636              	.LBE1950:
 6637              	.LBE1952:
 6638              	.LBE1957:
 6639              	.LBE1960:
 6640              	.LBE1964:
 6641              	.LBB1965:
 6642              	.LBB1884:
 6643              	.LBB1875:
 6644              	.LBB1872:
 6645              	.LBB1870:
  62:../../libdaisy/src/hid/audio.h ****     ~AudioHandle() {}
 6646              		.loc 14 62 35 view .LVU1553
 6647 004e 4361     		str	r3, [r0, #20]
 6648              	.LVL487:
  62:../../libdaisy/src/hid/audio.h ****     ~AudioHandle() {}
 6649              		.loc 14 62 35 view .LVU1554
 6650              	.LBE1870:
 6651              	.LBE1872:
 6652              	.LBE1875:
 6653              	.LBB1876:
 6654              	.LBI1876:
  84:../../libdaisy/src/per/adc.h ****     ~AdcHandle() {}
 6655              		.loc 13 84 5 is_stmt 1 view .LVU1555
  84:../../libdaisy/src/per/adc.h ****     ~AdcHandle() {}
 6656              		.loc 13 84 5 is_stmt 0 view .LVU1556
 6657              	.LBE1876:
 6658              	.LBB1877:
 6659              	.LBI1877:
 6660              		.file 26 "../../libdaisy/src/per/dac.h"
   1:../../libdaisy/src/per/dac.h **** #pragma once
   2:../../libdaisy/src/per/dac.h **** #ifndef DSY_DAC_H
   3:../../libdaisy/src/per/dac.h **** #define DSY_DAC_H
   4:../../libdaisy/src/per/dac.h **** 
   5:../../libdaisy/src/per/dac.h **** #include "daisy_core.h"
   6:../../libdaisy/src/per/dac.h **** 
   7:../../libdaisy/src/per/dac.h **** namespace daisy
   8:../../libdaisy/src/per/dac.h **** {
   9:../../libdaisy/src/per/dac.h **** /** DAC handle for Built-in DAC Peripheral 
  10:../../libdaisy/src/per/dac.h ****  ** 
  11:../../libdaisy/src/per/dac.h ****  ** For now only Normal Mode is supported,
  12:../../libdaisy/src/per/dac.h ****  ** Sample and hold mode provides reduced power consumption, but requires a bit more setup.
ARM GAS  /tmp/ccPAoVZi.s 			page 215


  13:../../libdaisy/src/per/dac.h ****  **
  14:../../libdaisy/src/per/dac.h ****  ** For now connecting the DAC through other internal periphearls is also not supported.
  15:../../libdaisy/src/per/dac.h ****  **
  16:../../libdaisy/src/per/dac.h ****  ** Since the DAC channels have dedicated pins we don't need to pass in a pin config like with
  17:../../libdaisy/src/per/dac.h ****  ** other modules. However, it is still important to not try to use the DAC pins for anything else.
  18:../../libdaisy/src/per/dac.h ****  ** DAC Channel 1 is on PA4, and DAC Channel 2 is on PA5
  19:../../libdaisy/src/per/dac.h ****  ***/
  20:../../libdaisy/src/per/dac.h **** class DacHandle
  21:../../libdaisy/src/per/dac.h **** {
  22:../../libdaisy/src/per/dac.h ****   public:
  23:../../libdaisy/src/per/dac.h ****     /** Return Values for the DacHandle class */
  24:../../libdaisy/src/per/dac.h ****     enum class Result
  25:../../libdaisy/src/per/dac.h ****     {
  26:../../libdaisy/src/per/dac.h ****         OK,
  27:../../libdaisy/src/per/dac.h ****         ERR,
  28:../../libdaisy/src/per/dac.h ****     };
  29:../../libdaisy/src/per/dac.h **** 
  30:../../libdaisy/src/per/dac.h ****     /** Selects which channel(s) will be configured for use. */
  31:../../libdaisy/src/per/dac.h ****     enum class Channel
  32:../../libdaisy/src/per/dac.h ****     {
  33:../../libdaisy/src/per/dac.h ****         ONE,
  34:../../libdaisy/src/per/dac.h ****         TWO,
  35:../../libdaisy/src/per/dac.h ****         BOTH,
  36:../../libdaisy/src/per/dac.h ****     };
  37:../../libdaisy/src/per/dac.h **** 
  38:../../libdaisy/src/per/dac.h ****     /** Sets the Mode for the DAC channels.
  39:../../libdaisy/src/per/dac.h ****      **
  40:../../libdaisy/src/per/dac.h ****      ** Polling mode uses the blocking mode to transmit a single value at a time.
  41:../../libdaisy/src/per/dac.h ****      **
  42:../../libdaisy/src/per/dac.h ****      ** DMA mode uses a buffer, and periodically transmits it triggering a 
  43:../../libdaisy/src/per/dac.h ****      ** callback to fill the buffer when it is ready for more samples.
  44:../../libdaisy/src/per/dac.h ****      ***/
  45:../../libdaisy/src/per/dac.h ****     enum class Mode
  46:../../libdaisy/src/per/dac.h ****     {
  47:../../libdaisy/src/per/dac.h ****         POLLING,
  48:../../libdaisy/src/per/dac.h ****         DMA,
  49:../../libdaisy/src/per/dac.h ****     };
  50:../../libdaisy/src/per/dac.h **** 
  51:../../libdaisy/src/per/dac.h ****     /** Sets the number of bits per sample transmitted out of the DAC.
  52:../../libdaisy/src/per/dac.h ****      ** The output range will be: 0V - VDDA
  53:../../libdaisy/src/per/dac.h ****      ** The resolution will be roughly: bitdepth / (VDDA - 0V) 
  54:../../libdaisy/src/per/dac.h ****      ***/
  55:../../libdaisy/src/per/dac.h ****     enum class BitDepth
  56:../../libdaisy/src/per/dac.h ****     {
  57:../../libdaisy/src/per/dac.h ****         BITS_8,
  58:../../libdaisy/src/per/dac.h ****         BITS_12
  59:../../libdaisy/src/per/dac.h ****     };
  60:../../libdaisy/src/per/dac.h **** 
  61:../../libdaisy/src/per/dac.h ****     /** Sets whether the DAC output is buffered for higher drive ability. */
  62:../../libdaisy/src/per/dac.h ****     enum class BufferState
  63:../../libdaisy/src/per/dac.h ****     {
  64:../../libdaisy/src/per/dac.h ****         ENABLED,
  65:../../libdaisy/src/per/dac.h ****         DISABLED,
  66:../../libdaisy/src/per/dac.h ****     };
  67:../../libdaisy/src/per/dac.h **** 
  68:../../libdaisy/src/per/dac.h ****     /** Configuration structure for initializing the DAC structure. */
  69:../../libdaisy/src/per/dac.h ****     struct Config
ARM GAS  /tmp/ccPAoVZi.s 			page 216


  70:../../libdaisy/src/per/dac.h ****     {
  71:../../libdaisy/src/per/dac.h ****         /** Target Samplerate in Hz used to configure the internal 
  72:../../libdaisy/src/per/dac.h ****          ** timebase for DMA mode. Does nothing in POLLING mode.
  73:../../libdaisy/src/per/dac.h ****          ** If the value is 0 at Init time this will default to 48000Hz 
  74:../../libdaisy/src/per/dac.h ****          ** otherwise the driver will attempt meet the target.*/
  75:../../libdaisy/src/per/dac.h ****         uint32_t target_samplerate;
  76:../../libdaisy/src/per/dac.h **** 
  77:../../libdaisy/src/per/dac.h ****         Channel     chn;
  78:../../libdaisy/src/per/dac.h ****         Mode        mode;
  79:../../libdaisy/src/per/dac.h ****         BitDepth    bitdepth;
  80:../../libdaisy/src/per/dac.h ****         BufferState buff_state;
  81:../../libdaisy/src/per/dac.h ****     };
  82:../../libdaisy/src/per/dac.h **** 
  83:../../libdaisy/src/per/dac.h ****     DacHandle() : pimpl_(nullptr) {}
 6661              		.loc 26 83 5 is_stmt 1 view .LVU1557
 6662              	.LBB1878:
 6663              	.LBB1879:
 6664              		.loc 26 83 33 is_stmt 0 view .LVU1558
 6665 0050 0362     		str	r3, [r0, #32]
 6666              	.LVL488:
 6667              		.loc 26 83 33 view .LVU1559
 6668              	.LBE1879:
 6669              	.LBE1878:
 6670              	.LBE1877:
 6671              	.LBB1880:
 6672              	.LBI1880:
  40:../../libdaisy/src/hid/usb.h **** 
 6673              		.loc 12 40 5 is_stmt 1 view .LVU1560
  40:../../libdaisy/src/hid/usb.h **** 
 6674              		.loc 12 40 5 is_stmt 0 view .LVU1561
 6675              	.LBE1880:
 6676              	.LBB1881:
 6677              	.LBI1881:
  58:../../libdaisy/src/sys/system.h ****     ~System() {}
 6678              		.loc 11 58 5 is_stmt 1 view .LVU1562
  58:../../libdaisy/src/sys/system.h ****     ~System() {}
 6679              		.loc 11 58 5 is_stmt 0 view .LVU1563
 6680              	.LBE1881:
 6681              	.LBE1884:
 6682              	.LBE1965:
 6683              	.LBB1966:
 6684              	.LBI1966:
  20:../../libdaisy/src/hid/encoder.h ****     ~Encoder() {}
 6685              		.loc 8 20 5 is_stmt 1 view .LVU1564
 6686              	.LBB1967:
 6687              	.LBB1968:
 6688              	.LBI1968:
  40:../../libdaisy/src/hid/switch.h ****     ~Switch() {}
 6689              		.loc 9 40 5 view .LVU1565
  40:../../libdaisy/src/hid/switch.h ****     ~Switch() {}
 6690              		.loc 9 40 5 is_stmt 0 view .LVU1566
 6691              	.LBE1968:
 6692              	.LBE1967:
 6693              	.LBE1966:
 6694              	.LBE1972:
 6695              	.LBE1975:
 6696              	.LBE1987:
ARM GAS  /tmp/ccPAoVZi.s 			page 217


 6697              	.LBE1990:
  39:../../libdaisy/src/daisy_patch.h ****     /** Destructor */
 6698              		.loc 4 39 18 is_stmt 1 view .LVU1567
  39:../../libdaisy/src/daisy_patch.h ****     /** Destructor */
 6699              		.loc 4 39 18 view .LVU1568
 6700              	.LBB1991:
 6701              	.LBB1988:
 6702              	.LBB1976:
 6703              	.LBB1973:
 6704              	.LBB1969:
 6705              	.LBI1885:
  82:../../libdaisy/src/hid/midi.h ****     ~MidiHandler() {}
 6706              		.loc 7 82 5 view .LVU1569
 6707              	.LBB1933:
 6708              	.LBB1929:
 6709              	.LBB1920:
 6710              	.LBI1920:
 6711              		.loc 24 87 5 view .LVU1570
 6712              	.LBB1921:
 6713              	.LBB1922:
 6714              		.loc 24 87 35 is_stmt 0 view .LVU1571
 6715 0052 C0F8E830 		str	r3, [r0, #232]
 6716              	.LVL489:
 6717              		.loc 24 87 35 view .LVU1572
 6718              	.LBE1922:
 6719              	.LBE1921:
 6720              	.LBE1920:
 6721              	.LBB1923:
 6722              	.LBI1923:
 6723              		.file 27 "../../libdaisy/src/util/ringbuffer.h"
   1:../../libdaisy/src/util/ringbuffer.h **** #pragma once
   2:../../libdaisy/src/util/ringbuffer.h **** #ifndef DSY_RINGBUFFER_H
   3:../../libdaisy/src/util/ringbuffer.h **** #define DSY_RINGBUFFER_H
   4:../../libdaisy/src/util/ringbuffer.h **** 
   5:../../libdaisy/src/util/ringbuffer.h **** #include <algorithm>
   6:../../libdaisy/src/util/ringbuffer.h **** 
   7:../../libdaisy/src/util/ringbuffer.h **** namespace daisy
   8:../../libdaisy/src/util/ringbuffer.h **** {
   9:../../libdaisy/src/util/ringbuffer.h **** /** @addtogroup utility
  10:../../libdaisy/src/util/ringbuffer.h ****     @{
  11:../../libdaisy/src/util/ringbuffer.h **** */
  12:../../libdaisy/src/util/ringbuffer.h **** 
  13:../../libdaisy/src/util/ringbuffer.h **** /**
  14:../../libdaisy/src/util/ringbuffer.h **** Utility Ring Buffer \n 
  15:../../libdaisy/src/util/ringbuffer.h **** imported from pichenettes/stmlib
  16:../../libdaisy/src/util/ringbuffer.h **** */
  17:../../libdaisy/src/util/ringbuffer.h **** template <typename T, size_t size>
  18:../../libdaisy/src/util/ringbuffer.h **** class RingBuffer
  19:../../libdaisy/src/util/ringbuffer.h **** {
  20:../../libdaisy/src/util/ringbuffer.h ****   public:
  21:../../libdaisy/src/util/ringbuffer.h ****     RingBuffer() {}
 6724              		.loc 27 21 5 is_stmt 1 view .LVU1573
 6725              		.loc 27 21 5 is_stmt 0 view .LVU1574
 6726              	.LBE1923:
 6727              	.LBB1924:
 6728              	.LBI1888:
  84:../../libdaisy/src/hid/midi.h **** 
ARM GAS  /tmp/ccPAoVZi.s 			page 218


  85:../../libdaisy/src/hid/midi.h ****     struct Config
 6729              		.loc 7 85 12 is_stmt 1 view .LVU1575
 6730              	.LBB1906:
 6731              	.LBI1889:
  33:../../libdaisy/src/hid/midi.h ****         {
 6732              		.loc 7 33 9 view .LVU1576
 6733              	.LBB1901:
 6734              	.LBB1896:
  35:../../libdaisy/src/hid/midi.h ****             rx     = {DSY_GPIOB, 7};
 6735              		.loc 7 35 13 view .LVU1577
  35:../../libdaisy/src/hid/midi.h ****             rx     = {DSY_GPIOB, 7};
 6736              		.loc 7 35 20 is_stmt 0 view .LVU1578
 6737 0056 C351     		str	r3, [r0, r7]
  36:../../libdaisy/src/hid/midi.h ****             tx     = {DSY_GPIOB, 6};
 6738              		.loc 7 36 13 is_stmt 1 view .LVU1579
  37:../../libdaisy/src/hid/midi.h ****         }
 6739              		.loc 7 37 13 view .LVU1580
 6740              	.LVL490:
  37:../../libdaisy/src/hid/midi.h ****         }
 6741              		.loc 7 37 13 is_stmt 0 view .LVU1581
 6742              	.LBE1896:
 6743              	.LBE1901:
 6744              	.LBE1906:
 6745              	.LBE1924:
 6746              	.LBB1925:
 6747              	.LBI1909:
  24:../../libdaisy/src/hid/midi.h ****     ~MidiUartTransport() {}
 6748              		.loc 7 24 5 is_stmt 1 view .LVU1582
 6749              	.LBB1916:
 6750              	.LBI1910:
 6751              		.loc 24 87 5 view .LVU1583
 6752              		.loc 24 87 5 is_stmt 0 view .LVU1584
 6753              	.LBE1916:
 6754              	.LBE1925:
 6755              	.LBE1929:
 6756              	.LBE1933:
 6757              	.LBE1969:
 6758              	.LBB1970:
 6759              	.LBI1938:
  16:../../libdaisy/src/hid/disp/oled_display.h ****     virtual ~OledDisplay() {}
 6760              		.loc 5 16 5 is_stmt 1 view .LVU1585
 6761              	.LBB1961:
 6762              	.LBB1958:
 6763              	.LBB1953:
 6764              	.LBI1953:
 218:../../libdaisy/src/hid/disp/display.h ****     virtual ~OneBitGraphicsDisplayImpl() {}
 6765              		.loc 6 218 5 view .LVU1586
 6766              	.LBB1954:
 6767              	.LBI1954:
  22:../../libdaisy/src/hid/disp/display.h ****     virtual ~OneBitGraphicsDisplay() {}
 6768              		.loc 6 22 5 view .LVU1587
  22:../../libdaisy/src/hid/disp/display.h ****     virtual ~OneBitGraphicsDisplay() {}
 6769              		.loc 6 22 5 is_stmt 0 view .LVU1588
 6770              	.LBE1954:
 6771              	.LBE1953:
 6772              	.LBB1955:
 6773              	.LBI1941:
ARM GAS  /tmp/ccPAoVZi.s 			page 219


 132:../../libdaisy/src/dev/oled_ssd130x.h **** {
 6774              		.loc 15 132 7 is_stmt 1 view .LVU1589
 6775              	.LBB1951:
 6776              	.LBI1942:
  60:../../libdaisy/src/dev/oled_ssd130x.h **** {
 6777              		.loc 15 60 7 view .LVU1590
 6778              	.LBB1949:
 6779              	.LBI1943:
 6780              		.loc 25 99 5 view .LVU1591
 6781              		.loc 25 99 5 is_stmt 0 view .LVU1592
 6782              	.LBE1949:
 6783              	.LBE1951:
 6784              	.LBE1955:
 6785              	.LBE1958:
 6786              	.LBE1961:
 6787              	.LBE1970:
 6788              	.LBE1973:
 6789              	.LBE1976:
   8:Svf.cpp       **** Parameter  cutoff_ctrl, res_ctrl, drive_ctrl;
 6790              		.loc 16 8 12 view .LVU1593
 6791 0058 1249     		ldr	r1, .L427+24
 6792 005a FFF7FEFF 		bl	__aeabi_atexit
 6793              	.LVL491:
 6794              	.LBB1977:
 6795              	.LBI1977:
  25:../../libdaisy/src/hid/parameter.h ****     /** Destructor */
 6796              		.loc 2 25 5 is_stmt 1 view .LVU1594
 6797              	.LBB1978:
 6798              	.LBB1979:
 6799              	.LBI1979:
  21:../../libdaisy/src/hid/ctrl.h ****     /** destructor */
 6800              		.loc 3 21 5 view .LVU1595
  21:../../libdaisy/src/hid/ctrl.h ****     /** destructor */
 6801              		.loc 3 21 5 is_stmt 0 view .LVU1596
 6802              	.LBE1979:
 6803              	.LBE1978:
 6804              	.LBE1977:
   9:Svf.cpp       **** Svf        svf;
 6805              		.loc 16 9 12 view .LVU1597
 6806 005e 2146     		mov	r1, r4
 6807 0060 0C4A     		ldr	r2, .L427+8
 6808 0062 1148     		ldr	r0, .L427+28
 6809 0064 FFF7FEFF 		bl	__aeabi_atexit
 6810              	.LVL492:
 6811              	.LBB1980:
 6812              	.LBI1980:
  25:../../libdaisy/src/hid/parameter.h ****     /** Destructor */
 6813              		.loc 2 25 5 is_stmt 1 view .LVU1598
 6814              	.LBB1981:
 6815              	.LBB1982:
 6816              	.LBI1982:
  21:../../libdaisy/src/hid/ctrl.h ****     /** destructor */
 6817              		.loc 3 21 5 view .LVU1599
  21:../../libdaisy/src/hid/ctrl.h ****     /** destructor */
 6818              		.loc 3 21 5 is_stmt 0 view .LVU1600
 6819              	.LBE1982:
 6820              	.LBE1981:
ARM GAS  /tmp/ccPAoVZi.s 			page 220


 6821              	.LBE1980:
   9:Svf.cpp       **** Svf        svf;
 6822              		.loc 16 9 25 view .LVU1601
 6823 0068 2146     		mov	r1, r4
 6824 006a 0A4A     		ldr	r2, .L427+8
 6825 006c 0F48     		ldr	r0, .L427+32
 6826 006e FFF7FEFF 		bl	__aeabi_atexit
 6827              	.LVL493:
 6828              	.LBB1983:
 6829              	.LBI1983:
  25:../../libdaisy/src/hid/parameter.h ****     /** Destructor */
 6830              		.loc 2 25 5 is_stmt 1 view .LVU1602
 6831              	.LBB1984:
 6832              	.LBB1985:
 6833              	.LBI1985:
  21:../../libdaisy/src/hid/ctrl.h ****     /** destructor */
 6834              		.loc 3 21 5 view .LVU1603
  21:../../libdaisy/src/hid/ctrl.h ****     /** destructor */
 6835              		.loc 3 21 5 is_stmt 0 view .LVU1604
 6836              	.LBE1985:
 6837              	.LBE1984:
 6838              	.LBE1983:
   9:Svf.cpp       **** Svf        svf;
 6839              		.loc 16 9 35 view .LVU1605
 6840 0072 2146     		mov	r1, r4
 6841 0074 074A     		ldr	r2, .L427+8
 6842 0076 0E48     		ldr	r0, .L427+36
 6843 0078 FFF7FEFF 		bl	__aeabi_atexit
 6844              	.LVL494:
 6845              	.LBB1986:
 6846              	.LBI1986:
  21:../../DaisySP/Source/Filters/svf.h ****     ~Svf() {}
 6847              		.loc 1 21 5 is_stmt 1 view .LVU1606
  21:../../DaisySP/Source/Filters/svf.h ****     ~Svf() {}
 6848              		.loc 1 21 5 is_stmt 0 view .LVU1607
 6849              	.LBE1986:
  10:Svf.cpp       **** 
 6850              		.loc 16 10 12 view .LVU1608
 6851 007c 054A     		ldr	r2, .L427+8
 6852 007e 0D49     		ldr	r1, .L427+40
 6853 0080 0D48     		ldr	r0, .L427+44
 6854              	.LBE1988:
 6855              	.LBE1991:
 6856              		.loc 16 67 1 view .LVU1609
 6857 0082 BDE8F840 		pop	{r3, r4, r5, r6, r7, lr}
 6858              		.cfi_restore 14
 6859              		.cfi_restore 7
 6860              		.cfi_restore 6
 6861              		.cfi_restore 5
 6862              		.cfi_restore 4
 6863              		.cfi_restore 3
 6864              		.cfi_def_cfa_offset 0
 6865              	.LBB1992:
 6866              	.LBB1989:
  10:Svf.cpp       **** 
 6867              		.loc 16 10 12 view .LVU1610
 6868 0086 FFF7FEBF 		b	__aeabi_atexit
ARM GAS  /tmp/ccPAoVZi.s 			page 221


 6869              	.LVL495:
 6870              	.L428:
 6871 008a 00BF     		.align	2
 6872              	.L427:
 6873 008c 00000000 		.word	.LANCHOR4
 6874 0090 00000000 		.word	patch
 6875 0094 00000000 		.word	__dso_handle
 6876 0098 80707FF0 		.word	-260083584
 6877 009c 08000000 		.word	_ZTVN5daisy11OledDisplayINS_13SSD130xDriverILj128ELj64ENS_24SSD130x4WireSpiTransportEEEEE+8
 6878 00a0 00000000 		.word	_ZN5daisy9ParameterD1Ev
 6879 00a4 00000000 		.word	_ZN5daisy10DaisyPatchD1Ev
 6880 00a8 00000000 		.word	.LANCHOR0
 6881 00ac 00000000 		.word	.LANCHOR1
 6882 00b0 00000000 		.word	.LANCHOR2
 6883 00b4 00000000 		.word	_ZN7daisysp3SvfD1Ev
 6884 00b8 00000000 		.word	.LANCHOR3
 6885              	.LBE1989:
 6886              	.LBE1992:
 6887              		.cfi_endproc
 6888              	.LFE4834:
 6890              		.section	.init_array,"aw",%init_array
 6891              		.align	2
 6892 0000 00000000 		.word	_GLOBAL__sub_I_patch(target1)
 6893              		.weak	_ZTSN5daisy21OneBitGraphicsDisplayE
 6894              		.section	.rodata._ZTSN5daisy21OneBitGraphicsDisplayE,"aG",%progbits,_ZTSN5daisy21OneBitGraphicsDis
 6895              		.align	2
 6898              	_ZTSN5daisy21OneBitGraphicsDisplayE:
 6899 0000 4E356461 		.ascii	"N5daisy21OneBitGraphicsDisplayE\000"
 6899      69737932 
 6899      314F6E65 
 6899      42697447 
 6899      72617068 
 6900              		.weak	_ZTIN5daisy21OneBitGraphicsDisplayE
 6901              		.section	.rodata._ZTIN5daisy21OneBitGraphicsDisplayE,"aG",%progbits,_ZTIN5daisy21OneBitGraphicsDis
 6902              		.align	2
 6905              	_ZTIN5daisy21OneBitGraphicsDisplayE:
 6906 0000 08000000 		.word	_ZTVN10__cxxabiv117__class_type_infoE+8
 6907 0004 00000000 		.word	_ZTSN5daisy21OneBitGraphicsDisplayE
 6908              		.weak	_ZTSN5daisy25OneBitGraphicsDisplayImplINS_11OledDisplayINS_13SSD130xDriverILj128ELj64ENS_24S
 6909              		.section	.rodata._ZTSN5daisy25OneBitGraphicsDisplayImplINS_11OledDisplayINS_13SSD130xDriverILj128E
 6910              		.align	2
 6913              	_ZTSN5daisy25OneBitGraphicsDisplayImplINS_11OledDisplayINS_13SSD130xDriverILj128ELj64ENS_24SSD130x4
 6914 0000 4E356461 		.ascii	"N5daisy25OneBitGraphicsDisplayImplINS_11OledDisplay"
 6914      69737932 
 6914      354F6E65 
 6914      42697447 
 6914      72617068 
 6915 0033 494E535F 		.ascii	"INS_13SSD130xDriverILj128ELj64ENS_24SSD130x4WireSpi"
 6915      31335353 
 6915      44313330 
 6915      78447269 
 6915      76657249 
 6916 0066 5472616E 		.ascii	"TransportEEEEEEE\000"
 6916      73706F72 
 6916      74454545 
 6916      45454545 
 6916      00
ARM GAS  /tmp/ccPAoVZi.s 			page 222


 6917              		.weak	_ZTIN5daisy25OneBitGraphicsDisplayImplINS_11OledDisplayINS_13SSD130xDriverILj128ELj64ENS_24S
 6918              		.section	.rodata._ZTIN5daisy25OneBitGraphicsDisplayImplINS_11OledDisplayINS_13SSD130xDriverILj128E
 6919              		.align	2
 6922              	_ZTIN5daisy25OneBitGraphicsDisplayImplINS_11OledDisplayINS_13SSD130xDriverILj128ELj64ENS_24SSD130x4
 6923 0000 08000000 		.word	_ZTVN10__cxxabiv120__si_class_type_infoE+8
 6924 0004 00000000 		.word	_ZTSN5daisy25OneBitGraphicsDisplayImplINS_11OledDisplayINS_13SSD130xDriverILj128ELj64ENS_24S
 6925 0008 00000000 		.word	_ZTIN5daisy21OneBitGraphicsDisplayE
 6926              		.weak	_ZTSN5daisy11OledDisplayINS_13SSD130xDriverILj128ELj64ENS_24SSD130x4WireSpiTransportEEEEE
 6927              		.section	.rodata._ZTSN5daisy11OledDisplayINS_13SSD130xDriverILj128ELj64ENS_24SSD130x4WireSpiTransp
 6928              		.align	2
 6931              	_ZTSN5daisy11OledDisplayINS_13SSD130xDriverILj128ELj64ENS_24SSD130x4WireSpiTransportEEEEE:
 6932 0000 4E356461 		.ascii	"N5daisy11OledDisplayINS_13SSD130xDriverILj128ELj64E"
 6932      69737931 
 6932      314F6C65 
 6932      64446973 
 6932      706C6179 
 6933 0033 4E535F32 		.ascii	"NS_24SSD130x4WireSpiTransportEEEEE\000"
 6933      34535344 
 6933      31333078 
 6933      34576972 
 6933      65537069 
 6934              		.weak	_ZTIN5daisy11OledDisplayINS_13SSD130xDriverILj128ELj64ENS_24SSD130x4WireSpiTransportEEEEE
 6935              		.section	.rodata._ZTIN5daisy11OledDisplayINS_13SSD130xDriverILj128ELj64ENS_24SSD130x4WireSpiTransp
 6936              		.align	2
 6939              	_ZTIN5daisy11OledDisplayINS_13SSD130xDriverILj128ELj64ENS_24SSD130x4WireSpiTransportEEEEE:
 6940 0000 08000000 		.word	_ZTVN10__cxxabiv120__si_class_type_infoE+8
 6941 0004 00000000 		.word	_ZTSN5daisy11OledDisplayINS_13SSD130xDriverILj128ELj64ENS_24SSD130x4WireSpiTransportEEEEE
 6942 0008 00000000 		.word	_ZTIN5daisy25OneBitGraphicsDisplayImplINS_11OledDisplayINS_13SSD130xDriverILj128ELj64ENS_24S
 6943              		.weak	_ZTVN5daisy11OledDisplayINS_13SSD130xDriverILj128ELj64ENS_24SSD130x4WireSpiTransportEEEEE
 6944              		.section	.rodata._ZTVN5daisy11OledDisplayINS_13SSD130xDriverILj128ELj64ENS_24SSD130x4WireSpiTransp
 6945              		.align	2
 6948              	_ZTVN5daisy11OledDisplayINS_13SSD130xDriverILj128ELj64ENS_24SSD130x4WireSpiTransportEEEEE:
 6949 0000 00000000 		.word	0
 6950 0004 00000000 		.word	_ZTIN5daisy11OledDisplayINS_13SSD130xDriverILj128ELj64ENS_24SSD130x4WireSpiTransportEEEEE
 6951 0008 00000000 		.word	_ZN5daisy11OledDisplayINS_13SSD130xDriverILj128ELj64ENS_24SSD130x4WireSpiTransportEEEED1Ev
 6952 000c 00000000 		.word	_ZN5daisy11OledDisplayINS_13SSD130xDriverILj128ELj64ENS_24SSD130x4WireSpiTransportEEEED0Ev
 6953 0010 00000000 		.word	_ZNK5daisy11OledDisplayINS_13SSD130xDriverILj128ELj64ENS_24SSD130x4WireSpiTransportEEEE6Heig
 6954 0014 00000000 		.word	_ZNK5daisy11OledDisplayINS_13SSD130xDriverILj128ELj64ENS_24SSD130x4WireSpiTransportEEEE5Widt
 6955 0018 00000000 		.word	_ZN5daisy11OledDisplayINS_13SSD130xDriverILj128ELj64ENS_24SSD130x4WireSpiTransportEEEE4FillE
 6956 001c 00000000 		.word	_ZN5daisy11OledDisplayINS_13SSD130xDriverILj128ELj64ENS_24SSD130x4WireSpiTransportEEEE9DrawP
 6957 0020 00000000 		.word	_ZN5daisy25OneBitGraphicsDisplayImplINS_11OledDisplayINS_13SSD130xDriverILj128ELj64ENS_24SSD
 6958 0024 00000000 		.word	_ZN5daisy25OneBitGraphicsDisplayImplINS_11OledDisplayINS_13SSD130xDriverILj128ELj64ENS_24SSD
 6959 0028 00000000 		.word	_ZN5daisy25OneBitGraphicsDisplayImplINS_11OledDisplayINS_13SSD130xDriverILj128ELj64ENS_24SSD
 6960 002c 00000000 		.word	_ZN5daisy25OneBitGraphicsDisplayImplINS_11OledDisplayINS_13SSD130xDriverILj128ELj64ENS_24SSD
 6961 0030 00000000 		.word	_ZN5daisy25OneBitGraphicsDisplayImplINS_11OledDisplayINS_13SSD130xDriverILj128ELj64ENS_24SSD
 6962 0034 00000000 		.word	_ZN5daisy25OneBitGraphicsDisplayImplINS_11OledDisplayINS_13SSD130xDriverILj128ELj64ENS_24SSD
 6963 0038 00000000 		.word	_ZN5daisy11OledDisplayINS_13SSD130xDriverILj128ELj64ENS_24SSD130x4WireSpiTransportEEEE6Updat
 6964              		.global	svf
 6965              		.global	drive_ctrl
 6966              		.global	res_ctrl
 6967              		.global	cutoff_ctrl
 6968              		.global	patch
 6969              		.section	.rodata
 6970              		.align	2
 6971              		.set	.LANCHOR4,. + 0
 6972              	.LC0:
 6973 0000 01       		.byte	1
ARM GAS  /tmp/ccPAoVZi.s 			page 223


 6974 0001 07       		.byte	7
 6975 0002 0000     		.space	2
 6976              	.LC1:
 6977 0004 01       		.byte	1
 6978 0005 06       		.byte	6
 6979              		.section	.bss.cutoff_ctrl,"aw",%nobits
 6980              		.align	2
 6981              		.set	.LANCHOR0,. + 0
 6984              	cutoff_ctrl:
 6985 0000 00000000 		.space	56
 6985      00000000 
 6985      00000000 
 6985      00000000 
 6985      00000000 
 6986              		.section	.bss.drive_ctrl,"aw",%nobits
 6987              		.align	2
 6988              		.set	.LANCHOR2,. + 0
 6991              	drive_ctrl:
 6992 0000 00000000 		.space	56
 6992      00000000 
 6992      00000000 
 6992      00000000 
 6992      00000000 
 6993              		.section	.bss.patch,"aw",%nobits
 6994              		.align	2
 6997              	patch:
 6998 0000 00000000 		.space	38340
 6998      00000000 
 6998      00000000 
 6998      00000000 
 6998      00000000 
 6999              		.section	.bss.res_ctrl,"aw",%nobits
 7000              		.align	2
 7001              		.set	.LANCHOR1,. + 0
 7004              	res_ctrl:
 7005 0000 00000000 		.space	56
 7005      00000000 
 7005      00000000 
 7005      00000000 
 7005      00000000 
 7006              		.section	.bss.svf,"aw",%nobits
 7007              		.align	2
 7008              		.set	.LANCHOR3,. + 0
 7011              	svf:
 7012 0000 00000000 		.space	76
 7012      00000000 
 7012      00000000 
 7012      00000000 
 7012      00000000 
 7013              		.text
 7014              	.Letext0:
 7015              		.file 28 "/usr/lib/gcc/arm-none-eabi/9.2.1/include/stdint.h"
 7016              		.file 29 "../../libdaisy/Drivers/CMSIS/Include/core_cm7.h"
 7017              		.file 30 "../../libdaisy/Drivers/CMSIS/Device/ST/STM32H7xx/Include/system_stm32h7xx.h"
 7018              		.file 31 "/usr/lib/gcc/arm-none-eabi/9.2.1/include/stddef.h"
 7019              		.file 32 "/usr/include/newlib/c++/9.2.1/bits/std_abs.h"
 7020              		.file 33 "/usr/include/newlib/c++/9.2.1/cstdint"
ARM GAS  /tmp/ccPAoVZi.s 			page 224


 7021              		.file 34 "/usr/include/newlib/c++/9.2.1/cstdlib"
 7022              		.file 35 "/usr/include/newlib/c++/9.2.1/type_traits"
 7023              		.file 36 "/usr/include/newlib/c++/9.2.1/arm-none-eabi/thumb/v7e-m+dp/hard/bits/c++config.h"
 7024              		.file 37 "/usr/include/newlib/c++/9.2.1/bits/stl_pair.h"
 7025              		.file 38 "/usr/include/newlib/c++/9.2.1/bits/cpp_type_traits.h"
 7026              		.file 39 "/usr/include/newlib/c++/9.2.1/bits/stl_iterator_base_types.h"
 7027              		.file 40 "/usr/include/newlib/c++/9.2.1/debug/debug.h"
 7028              		.file 41 "/usr/include/newlib/c++/9.2.1/cwchar"
 7029              		.file 42 "/usr/include/newlib/c++/9.2.1/bits/exception_ptr.h"
 7030              		.file 43 "/usr/include/newlib/c++/9.2.1/new"
 7031              		.file 44 "/usr/include/newlib/c++/9.2.1/clocale"
 7032              		.file 45 "/usr/include/newlib/c++/9.2.1/cstdio"
 7033              		.file 46 "/usr/include/newlib/c++/9.2.1/bits/alloc_traits.h"
 7034              		.file 47 "/usr/include/newlib/c++/9.2.1/initializer_list"
 7035              		.file 48 "/usr/include/newlib/c++/9.2.1/bits/stringfwd.h"
 7036              		.file 49 "/usr/include/newlib/c++/9.2.1/bits/uniform_int_dist.h"
 7037              		.file 50 "/usr/include/newlib/c++/9.2.1/bits/random.h"
 7038              		.file 51 "/usr/include/newlib/c++/9.2.1/cstring"
 7039              		.file 52 "/usr/include/newlib/c++/9.2.1/bits/algorithmfwd.h"
 7040              		.file 53 "/usr/include/newlib/c++/9.2.1/cstdarg"
 7041              		.file 54 "/usr/include/newlib/c++/9.2.1/bits/ptr_traits.h"
 7042              		.file 55 "/usr/include/newlib/c++/9.2.1/bits/stl_iterator_base_funcs.h"
 7043              		.file 56 "/usr/include/newlib/c++/9.2.1/bits/move.h"
 7044              		.file 57 "/usr/include/newlib/c++/9.2.1/bits/predefined_ops.h"
 7045              		.file 58 "/usr/include/newlib/c++/9.2.1/ext/numeric_traits.h"
 7046              		.file 59 "/usr/include/newlib/c++/9.2.1/ext/alloc_traits.h"
 7047              		.file 60 "/usr/include/newlib/c++/9.2.1/bits/stl_iterator.h"
 7048              		.file 61 "/usr/include/newlib/c++/9.2.1/ext/type_traits.h"
 7049              		.file 62 "/usr/include/newlib/sys/_types.h"
 7050              		.file 63 "/usr/include/newlib/sys/reent.h"
 7051              		.file 64 "/usr/include/newlib/sys/lock.h"
 7052              		.file 65 "/usr/include/newlib/math.h"
 7053              		.file 66 "/usr/include/newlib/stdlib.h"
 7054              		.file 67 "/usr/include/newlib/c++/9.2.1/math.h"
 7055              		.file 68 "../../libdaisy/Drivers/STM32H7xx_HAL_Driver/Inc/stm32h7xx_hal_def.h"
 7056              		.file 69 "../../libdaisy/Drivers/STM32H7xx_HAL_Driver/Inc/stm32h7xx_hal_flash.h"
 7057              		.file 70 "../../DaisySP/Source/Control/adenv.h"
 7058              		.file 71 "../../DaisySP/Source/Utility/dsp.h"
 7059              		.file 72 "/usr/lib/gcc/arm-none-eabi/9.2.1/include/stdarg.h"
 7060              		.file 73 "/usr/include/newlib/wchar.h"
 7061              		.file 74 "/usr/include/newlib/locale.h"
 7062              		.file 75 "/usr/include/newlib/ctype.h"
 7063              		.file 76 "/usr/include/newlib/stdio.h"
 7064              		.file 77 "/usr/include/newlib/sys/errno.h"
 7065              		.file 78 "/usr/include/newlib/c++/9.2.1/stdlib.h"
 7066              		.file 79 "/usr/include/newlib/string.h"
 7067              		.file 80 "../../libdaisy/src/daisy_core.h"
 7068              		.file 81 "../../libdaisy/src/per/tim.h"
 7069              		.file 82 "../../libdaisy/src/per/sai.h"
 7070              		.file 83 "../../libdaisy/src/hid/MidiEvent.h"
 7071              		.file 84 "../../libdaisy/src/hid/gatein.h"
 7072              		.file 85 "../../libdaisy/src/hid/logger_impl.h"
 7073              		.file 86 "../../libdaisy/src/util/wav_format.h"
 7074              		.file 87 "../../libdaisy/src/per/qspi.h"
 7075              		.file 88 "../../libdaisy/src/per/gpio.h"
 7076              		.file 89 "../../libdaisy/src/dev/sdram.h"
 7077              		.file 90 "/usr/include/newlib/sys/unistd.h"
ARM GAS  /tmp/ccPAoVZi.s 			page 225


 7078              		.file 91 "../../libdaisy/src/util/oled_fonts.h"
 7079              		.file 92 "../../libdaisy/Middlewares/Third_Party/FatFs/src/integer.h"
 7080              		.file 93 "../../libdaisy/Middlewares/Third_Party/FatFs/src/ff.h"
 7081              		.file 94 "../../libdaisy/Middlewares/Third_Party/FatFs/src/diskio.h"
 7082              		.file 95 "../../libdaisy/Middlewares/Third_Party/FatFs/src/ff_gen_drv.h"
 7083              		.file 96 "../../libdaisy/src/util/sd_diskio.h"
 7084              		.file 97 "../../libdaisy/src/sys/fatfs.h"
 7085              		.file 98 "<built-in>"
 7086              		.file 99 "../../libdaisy/src/dev/sr_595.h"
ARM GAS  /tmp/ccPAoVZi.s 			page 226


DEFINED SYMBOLS
                            *ABS*:0000000000000000 Svf.cpp
     /tmp/ccPAoVZi.s:17     .text._ZN7daisysp3SvfD2Ev:0000000000000000 $t
     /tmp/ccPAoVZi.s:26     .text._ZN7daisysp3SvfD2Ev:0000000000000000 _ZN7daisysp3SvfD2Ev
     /tmp/ccPAoVZi.s:26     .text._ZN7daisysp3SvfD2Ev:0000000000000000 _ZN7daisysp3SvfD1Ev
     /tmp/ccPAoVZi.s:43     .text._ZN5daisy9ParameterD2Ev:0000000000000000 $t
     /tmp/ccPAoVZi.s:51     .text._ZN5daisy9ParameterD2Ev:0000000000000000 _ZN5daisy9ParameterD2Ev
     /tmp/ccPAoVZi.s:51     .text._ZN5daisy9ParameterD2Ev:0000000000000000 _ZN5daisy9ParameterD1Ev
     /tmp/ccPAoVZi.s:74     .text._ZN5daisy10DaisyPatchD2Ev:0000000000000000 $t
     /tmp/ccPAoVZi.s:82     .text._ZN5daisy10DaisyPatchD2Ev:0000000000000000 _ZN5daisy10DaisyPatchD2Ev
     /tmp/ccPAoVZi.s:82     .text._ZN5daisy10DaisyPatchD2Ev:0000000000000000 _ZN5daisy10DaisyPatchD1Ev
     /tmp/ccPAoVZi.s:164    .text._ZN5daisy11OledDisplayINS_13SSD130xDriverILj128ELj64ENS_24SSD130x4WireSpiTransportEEEED2Ev:0000000000000000 $t
     /tmp/ccPAoVZi.s:172    .text._ZN5daisy11OledDisplayINS_13SSD130xDriverILj128ELj64ENS_24SSD130x4WireSpiTransportEEEED2Ev:0000000000000000 _ZN5daisy11OledDisplayINS_13SSD130xDriverILj128ELj64ENS_24SSD130x4WireSpiTransportEEEED2Ev
     /tmp/ccPAoVZi.s:172    .text._ZN5daisy11OledDisplayINS_13SSD130xDriverILj128ELj64ENS_24SSD130x4WireSpiTransportEEEED2Ev:0000000000000000 _ZN5daisy11OledDisplayINS_13SSD130xDriverILj128ELj64ENS_24SSD130x4WireSpiTransportEEEED1Ev
     /tmp/ccPAoVZi.s:197    .text._ZNK5daisy11OledDisplayINS_13SSD130xDriverILj128ELj64ENS_24SSD130x4WireSpiTransportEEEE6HeightEv:0000000000000000 $t
     /tmp/ccPAoVZi.s:205    .text._ZNK5daisy11OledDisplayINS_13SSD130xDriverILj128ELj64ENS_24SSD130x4WireSpiTransportEEEE6HeightEv:0000000000000000 _ZNK5daisy11OledDisplayINS_13SSD130xDriverILj128ELj64ENS_24SSD130x4WireSpiTransportEEEE6HeightEv
     /tmp/ccPAoVZi.s:222    .text._ZNK5daisy11OledDisplayINS_13SSD130xDriverILj128ELj64ENS_24SSD130x4WireSpiTransportEEEE5WidthEv:0000000000000000 $t
     /tmp/ccPAoVZi.s:230    .text._ZNK5daisy11OledDisplayINS_13SSD130xDriverILj128ELj64ENS_24SSD130x4WireSpiTransportEEEE5WidthEv:0000000000000000 _ZNK5daisy11OledDisplayINS_13SSD130xDriverILj128ELj64ENS_24SSD130x4WireSpiTransportEEEE5WidthEv
     /tmp/ccPAoVZi.s:247    .text._ZN5daisy11OledDisplayINS_13SSD130xDriverILj128ELj64ENS_24SSD130x4WireSpiTransportEEEE4FillEb:0000000000000000 $t
     /tmp/ccPAoVZi.s:255    .text._ZN5daisy11OledDisplayINS_13SSD130xDriverILj128ELj64ENS_24SSD130x4WireSpiTransportEEEE4FillEb:0000000000000000 _ZN5daisy11OledDisplayINS_13SSD130xDriverILj128ELj64ENS_24SSD130x4WireSpiTransportEEEE4FillEb
     /tmp/ccPAoVZi.s:292    .text._ZL13AudioCallbackPKPKfPPfj:0000000000000000 $t
     /tmp/ccPAoVZi.s:299    .text._ZL13AudioCallbackPKPKfPPfj:0000000000000000 _ZL13AudioCallbackPKPKfPPfj
     /tmp/ccPAoVZi.s:479    .text._ZL13AudioCallbackPKPKfPPfj:0000000000000098 $d
     /tmp/ccPAoVZi.s:487    .text._ZN5daisy11OledDisplayINS_13SSD130xDriverILj128ELj64ENS_24SSD130x4WireSpiTransportEEEED0Ev:0000000000000000 $t
     /tmp/ccPAoVZi.s:495    .text._ZN5daisy11OledDisplayINS_13SSD130xDriverILj128ELj64ENS_24SSD130x4WireSpiTransportEEEED0Ev:0000000000000000 _ZN5daisy11OledDisplayINS_13SSD130xDriverILj128ELj64ENS_24SSD130x4WireSpiTransportEEEED0Ev
     /tmp/ccPAoVZi.s:535    .text._ZN5daisy11OledDisplayINS_13SSD130xDriverILj128ELj64ENS_24SSD130x4WireSpiTransportEEEE6UpdateEv:0000000000000000 $t
     /tmp/ccPAoVZi.s:543    .text._ZN5daisy11OledDisplayINS_13SSD130xDriverILj128ELj64ENS_24SSD130x4WireSpiTransportEEEE6UpdateEv:0000000000000000 _ZN5daisy11OledDisplayINS_13SSD130xDriverILj128ELj64ENS_24SSD130x4WireSpiTransportEEEE6UpdateEv
     /tmp/ccPAoVZi.s:703    .text._ZN5daisy25OneBitGraphicsDisplayImplINS_11OledDisplayINS_13SSD130xDriverILj128ELj64ENS_24SSD130x4WireSpiTransportEEEEEE11WriteStringEPKc7FontDefb:0000000000000000 $t
     /tmp/ccPAoVZi.s:711    .text._ZN5daisy25OneBitGraphicsDisplayImplINS_11OledDisplayINS_13SSD130xDriverILj128ELj64ENS_24SSD130x4WireSpiTransportEEEEEE11WriteStringEPKc7FontDefb:0000000000000000 _ZN5daisy25OneBitGraphicsDisplayImplINS_11OledDisplayINS_13SSD130xDriverILj128ELj64ENS_24SSD130x4WireSpiTransportEEEEEE11WriteStringEPKc7FontDefb
     /tmp/ccPAoVZi.s:1170   .text._ZN5daisy25OneBitGraphicsDisplayImplINS_11OledDisplayINS_13SSD130xDriverILj128ELj64ENS_24SSD130x4WireSpiTransportEEEEEE11WriteStringEPKc7FontDefb:00000000000001d8 $d
     /tmp/ccPAoVZi.s:1180   .text._ZN5daisy11OledDisplayINS_13SSD130xDriverILj128ELj64ENS_24SSD130x4WireSpiTransportEEEE9DrawPixelEjjb:0000000000000000 $t
     /tmp/ccPAoVZi.s:1188   .text._ZN5daisy11OledDisplayINS_13SSD130xDriverILj128ELj64ENS_24SSD130x4WireSpiTransportEEEE9DrawPixelEjjb:0000000000000000 _ZN5daisy11OledDisplayINS_13SSD130xDriverILj128ELj64ENS_24SSD130x4WireSpiTransportEEEE9DrawPixelEjjb
     /tmp/ccPAoVZi.s:1292   .text._ZN5daisy25OneBitGraphicsDisplayImplINS_11OledDisplayINS_13SSD130xDriverILj128ELj64ENS_24SSD130x4WireSpiTransportEEEEEE18WriteStringAlignedEPKcRK7FontDefNS_9RectangleENS_9AlignmentEb:0000000000000000 $t
     /tmp/ccPAoVZi.s:1300   .text._ZN5daisy25OneBitGraphicsDisplayImplINS_11OledDisplayINS_13SSD130xDriverILj128ELj64ENS_24SSD130x4WireSpiTransportEEEEEE18WriteStringAlignedEPKcRK7FontDefNS_9RectangleENS_9AlignmentEb:0000000000000000 _ZN5daisy25OneBitGraphicsDisplayImplINS_11OledDisplayINS_13SSD130xDriverILj128ELj64ENS_24SSD130x4WireSpiTransportEEEEEE18WriteStringAlignedEPKcRK7FontDefNS_9RectangleENS_9AlignmentEb
     /tmp/ccPAoVZi.s:1440   .text._ZN5daisy25OneBitGraphicsDisplayImplINS_11OledDisplayINS_13SSD130xDriverILj128ELj64ENS_24SSD130x4WireSpiTransportEEEEEE18WriteStringAlignedEPKcRK7FontDefNS_9RectangleENS_9AlignmentEb:0000000000000048 $d
     /tmp/ccPAoVZi.s:1449   .text._ZN5daisy25OneBitGraphicsDisplayImplINS_11OledDisplayINS_13SSD130xDriverILj128ELj64ENS_24SSD130x4WireSpiTransportEEEEEE18WriteStringAlignedEPKcRK7FontDefNS_9RectangleENS_9AlignmentEb:000000000000005a $t
     /tmp/ccPAoVZi.s:2777   .text._ZN5daisy25OneBitGraphicsDisplayImplINS_11OledDisplayINS_13SSD130xDriverILj128ELj64ENS_24SSD130x4WireSpiTransportEEEEEE18WriteStringAlignedEPKcRK7FontDefNS_9RectangleENS_9AlignmentEb:0000000000000364 $d
     /tmp/ccPAoVZi.s:2781   .text._ZN5daisy25OneBitGraphicsDisplayImplINS_11OledDisplayINS_13SSD130xDriverILj128ELj64ENS_24SSD130x4WireSpiTransportEEEEEE18WriteStringAlignedEPKcRK7FontDefNS_9RectangleENS_9AlignmentEb:000000000000036c $t
     /tmp/ccPAoVZi.s:2950   .text._ZN5daisy25OneBitGraphicsDisplayImplINS_11OledDisplayINS_13SSD130xDriverILj128ELj64ENS_24SSD130x4WireSpiTransportEEEEEE18WriteStringAlignedEPKcRK7FontDefNS_9RectangleENS_9AlignmentEb:00000000000003ec $d
     /tmp/ccPAoVZi.s:2958   .text._ZN5daisy25OneBitGraphicsDisplayImplINS_11OledDisplayINS_13SSD130xDriverILj128ELj64ENS_24SSD130x4WireSpiTransportEEEEEE8DrawLineEjjjjb:0000000000000000 $t
     /tmp/ccPAoVZi.s:2966   .text._ZN5daisy25OneBitGraphicsDisplayImplINS_11OledDisplayINS_13SSD130xDriverILj128ELj64ENS_24SSD130x4WireSpiTransportEEEEEE8DrawLineEjjjjb:0000000000000000 _ZN5daisy25OneBitGraphicsDisplayImplINS_11OledDisplayINS_13SSD130xDriverILj128ELj64ENS_24SSD130x4WireSpiTransportEEEEEE8DrawLineEjjjjb
     /tmp/ccPAoVZi.s:3252   .text._ZN5daisy25OneBitGraphicsDisplayImplINS_11OledDisplayINS_13SSD130xDriverILj128ELj64ENS_24SSD130x4WireSpiTransportEEEEEE7DrawArcEjjjiib:0000000000000000 $t
     /tmp/ccPAoVZi.s:3260   .text._ZN5daisy25OneBitGraphicsDisplayImplINS_11OledDisplayINS_13SSD130xDriverILj128ELj64ENS_24SSD130x4WireSpiTransportEEEEEE7DrawArcEjjjiib:0000000000000000 _ZN5daisy25OneBitGraphicsDisplayImplINS_11OledDisplayINS_13SSD130xDriverILj128ELj64ENS_24SSD130x4WireSpiTransportEEEEEE7DrawArcEjjjiib
     /tmp/ccPAoVZi.s:4039   .text._ZN5daisy25OneBitGraphicsDisplayImplINS_11OledDisplayINS_13SSD130xDriverILj128ELj64ENS_24SSD130x4WireSpiTransportEEEEEE7DrawArcEjjjiib:0000000000000388 $d
     /tmp/ccPAoVZi.s:4046   .text._ZN5daisy25OneBitGraphicsDisplayImplINS_11OledDisplayINS_13SSD130xDriverILj128ELj64ENS_24SSD130x4WireSpiTransportEEEEEE7DrawArcEjjjiib:0000000000000398 $t
     /tmp/ccPAoVZi.s:4144   .text._ZN5daisy25OneBitGraphicsDisplayImplINS_11OledDisplayINS_13SSD130xDriverILj128ELj64ENS_24SSD130x4WireSpiTransportEEEEEE9WriteCharEc7FontDefb:0000000000000000 $t
     /tmp/ccPAoVZi.s:4152   .text._ZN5daisy25OneBitGraphicsDisplayImplINS_11OledDisplayINS_13SSD130xDriverILj128ELj64ENS_24SSD130x4WireSpiTransportEEEEEE9WriteCharEc7FontDefb:0000000000000000 _ZN5daisy25OneBitGraphicsDisplayImplINS_11OledDisplayINS_13SSD130xDriverILj128ELj64ENS_24SSD130x4WireSpiTransportEEEEEE9WriteCharEc7FontDefb
     /tmp/ccPAoVZi.s:4582   .text._ZN5daisy25OneBitGraphicsDisplayImplINS_11OledDisplayINS_13SSD130xDriverILj128ELj64ENS_24SSD130x4WireSpiTransportEEEEEE9WriteCharEc7FontDefb:0000000000000194 $d
     /tmp/ccPAoVZi.s:4590   .text._ZN5daisy25OneBitGraphicsDisplayImplINS_11OledDisplayINS_13SSD130xDriverILj128ELj64ENS_24SSD130x4WireSpiTransportEEEEEE8DrawRectEjjjjbb:0000000000000000 $t
     /tmp/ccPAoVZi.s:4598   .text._ZN5daisy25OneBitGraphicsDisplayImplINS_11OledDisplayINS_13SSD130xDriverILj128ELj64ENS_24SSD130x4WireSpiTransportEEEEEE8DrawRectEjjjjbb:0000000000000000 _ZN5daisy25OneBitGraphicsDisplayImplINS_11OledDisplayINS_13SSD130xDriverILj128ELj64ENS_24SSD130x4WireSpiTransportEEEEEE8DrawRectEjjjjbb
     /tmp/ccPAoVZi.s:5736   .text._ZN5daisy13SSD130xDriverILj128ELj64ENS_24SSD130x4WireSpiTransportEE6UpdateEv:0000000000000000 $t
     /tmp/ccPAoVZi.s:5744   .text._ZN5daisy13SSD130xDriverILj128ELj64ENS_24SSD130x4WireSpiTransportEE6UpdateEv:0000000000000000 _ZN5daisy13SSD130xDriverILj128ELj64ENS_24SSD130x4WireSpiTransportEE6UpdateEv
     /tmp/ccPAoVZi.s:5895   .rodata.main.str1.4:0000000000000000 $d
     /tmp/ccPAoVZi.s:5896   .rodata.main.str1.4:0000000000000000 .LC2
     /tmp/ccPAoVZi.s:5902   .text.startup.main:0000000000000000 $t
     /tmp/ccPAoVZi.s:5910   .text.startup.main:0000000000000000 main
     /tmp/ccPAoVZi.s:6383   .text.startup.main:0000000000000114 $d
ARM GAS  /tmp/ccPAoVZi.s 			page 227


     /tmp/ccPAoVZi.s:6997   .bss.patch:0000000000000000 patch
     /tmp/ccPAoVZi.s:6400   .text.startup._GLOBAL__sub_I_patch:0000000000000000 $t
     /tmp/ccPAoVZi.s:6407   .text.startup._GLOBAL__sub_I_patch:0000000000000000 _GLOBAL__sub_I_patch
     /tmp/ccPAoVZi.s:6873   .text.startup._GLOBAL__sub_I_patch:000000000000008c $d
     /tmp/ccPAoVZi.s:6948   .rodata._ZTVN5daisy11OledDisplayINS_13SSD130xDriverILj128ELj64ENS_24SSD130x4WireSpiTransportEEEEE:0000000000000000 _ZTVN5daisy11OledDisplayINS_13SSD130xDriverILj128ELj64ENS_24SSD130x4WireSpiTransportEEEEE
     /tmp/ccPAoVZi.s:6891   .init_array:0000000000000000 $d
     /tmp/ccPAoVZi.s:6898   .rodata._ZTSN5daisy21OneBitGraphicsDisplayE:0000000000000000 _ZTSN5daisy21OneBitGraphicsDisplayE
     /tmp/ccPAoVZi.s:6895   .rodata._ZTSN5daisy21OneBitGraphicsDisplayE:0000000000000000 $d
     /tmp/ccPAoVZi.s:6905   .rodata._ZTIN5daisy21OneBitGraphicsDisplayE:0000000000000000 _ZTIN5daisy21OneBitGraphicsDisplayE
     /tmp/ccPAoVZi.s:6902   .rodata._ZTIN5daisy21OneBitGraphicsDisplayE:0000000000000000 $d
     /tmp/ccPAoVZi.s:6913   .rodata._ZTSN5daisy25OneBitGraphicsDisplayImplINS_11OledDisplayINS_13SSD130xDriverILj128ELj64ENS_24SSD130x4WireSpiTransportEEEEEEE:0000000000000000 _ZTSN5daisy25OneBitGraphicsDisplayImplINS_11OledDisplayINS_13SSD130xDriverILj128ELj64ENS_24SSD130x4WireSpiTransportEEEEEEE
     /tmp/ccPAoVZi.s:6910   .rodata._ZTSN5daisy25OneBitGraphicsDisplayImplINS_11OledDisplayINS_13SSD130xDriverILj128ELj64ENS_24SSD130x4WireSpiTransportEEEEEEE:0000000000000000 $d
     /tmp/ccPAoVZi.s:6922   .rodata._ZTIN5daisy25OneBitGraphicsDisplayImplINS_11OledDisplayINS_13SSD130xDriverILj128ELj64ENS_24SSD130x4WireSpiTransportEEEEEEE:0000000000000000 _ZTIN5daisy25OneBitGraphicsDisplayImplINS_11OledDisplayINS_13SSD130xDriverILj128ELj64ENS_24SSD130x4WireSpiTransportEEEEEEE
     /tmp/ccPAoVZi.s:6919   .rodata._ZTIN5daisy25OneBitGraphicsDisplayImplINS_11OledDisplayINS_13SSD130xDriverILj128ELj64ENS_24SSD130x4WireSpiTransportEEEEEEE:0000000000000000 $d
     /tmp/ccPAoVZi.s:6931   .rodata._ZTSN5daisy11OledDisplayINS_13SSD130xDriverILj128ELj64ENS_24SSD130x4WireSpiTransportEEEEE:0000000000000000 _ZTSN5daisy11OledDisplayINS_13SSD130xDriverILj128ELj64ENS_24SSD130x4WireSpiTransportEEEEE
     /tmp/ccPAoVZi.s:6928   .rodata._ZTSN5daisy11OledDisplayINS_13SSD130xDriverILj128ELj64ENS_24SSD130x4WireSpiTransportEEEEE:0000000000000000 $d
     /tmp/ccPAoVZi.s:6939   .rodata._ZTIN5daisy11OledDisplayINS_13SSD130xDriverILj128ELj64ENS_24SSD130x4WireSpiTransportEEEEE:0000000000000000 _ZTIN5daisy11OledDisplayINS_13SSD130xDriverILj128ELj64ENS_24SSD130x4WireSpiTransportEEEEE
     /tmp/ccPAoVZi.s:6936   .rodata._ZTIN5daisy11OledDisplayINS_13SSD130xDriverILj128ELj64ENS_24SSD130x4WireSpiTransportEEEEE:0000000000000000 $d
     /tmp/ccPAoVZi.s:6945   .rodata._ZTVN5daisy11OledDisplayINS_13SSD130xDriverILj128ELj64ENS_24SSD130x4WireSpiTransportEEEEE:0000000000000000 $d
     /tmp/ccPAoVZi.s:7011   .bss.svf:0000000000000000 svf
     /tmp/ccPAoVZi.s:6991   .bss.drive_ctrl:0000000000000000 drive_ctrl
     /tmp/ccPAoVZi.s:7004   .bss.res_ctrl:0000000000000000 res_ctrl
     /tmp/ccPAoVZi.s:6984   .bss.cutoff_ctrl:0000000000000000 cutoff_ctrl
     /tmp/ccPAoVZi.s:6970   .rodata:0000000000000000 $d
     /tmp/ccPAoVZi.s:6980   .bss.cutoff_ctrl:0000000000000000 $d
     /tmp/ccPAoVZi.s:6987   .bss.drive_ctrl:0000000000000000 $d
     /tmp/ccPAoVZi.s:6994   .bss.patch:0000000000000000 $d
     /tmp/ccPAoVZi.s:7000   .bss.res_ctrl:0000000000000000 $d
     /tmp/ccPAoVZi.s:7007   .bss.svf:0000000000000000 $d
                           .group:0000000000000000 _ZN7daisysp3SvfD5Ev
                           .group:0000000000000000 _ZN5daisy9ParameterD5Ev
                           .group:0000000000000000 _ZN5daisy10DaisyPatchD5Ev
                           .group:0000000000000000 _ZN5daisy11OledDisplayINS_13SSD130xDriverILj128ELj64ENS_24SSD130x4WireSpiTransportEEEED5Ev

UNDEFINED SYMBOLS
_ZN5daisy9Parameter7ProcessEv
_ZN7daisysp3Svf7SetFreqEf
_ZN7daisysp3Svf6SetResEf
_ZN7daisysp3Svf8SetDriveEf
_ZN7daisysp3Svf7ProcessEf
_ZdlPvj
dsy_gpio_write
_ZN5daisy9SpiHandle16BlockingTransmitEPhjm
cosf
sinf
_ZN5daisy10DaisyPatch4InitEb
_ZN5daisy10DaisyPatch15AudioSampleRateEv
_ZN7daisysp3Svf4InitEf
_ZN5daisy9Parameter4InitENS_13AnalogControlEffNS0_5CurveE
_ZNSt7__cxx1112basic_stringIcSt11char_traitsIcESaIcEE9_M_createERjj
_ZNSt7__cxx1112basic_stringIcSt11char_traitsIcESaIcEE6assignEPKc
_ZN5daisy10DaisyPatch8StartAdcEv
_ZN5daisy10DaisyPatch10StartAudioEPFvPKPKfPPfjE
Font_7x10
__aeabi_atexit
__dso_handle
_ZTVN10__cxxabiv117__class_type_infoE
ARM GAS  /tmp/ccPAoVZi.s 			page 228


_ZTVN10__cxxabiv120__si_class_type_infoE
