ARM GAS  /tmp/ccPAoVZi.s 			page 1


   1              		.cpu cortex-m7
   2              		.eabi_attribute 28, 1
   3              		.eabi_attribute 20, 1
   4              		.eabi_attribute 21, 1
   5              		.eabi_attribute 23, 3
   6              		.eabi_attribute 24, 1
   7              		.eabi_attribute 25, 1
   8              		.eabi_attribute 26, 1
   9              		.eabi_attribute 30, 2
  10              		.eabi_attribute 34, 1
  11              		.eabi_attribute 18, 4
  12              		.file	"Svf.cpp"
  13              		.text
  14              	.Ltext0:
  15              		.cfi_sections	.debug_frame
  16              		.section	.text._ZN7daisysp3SvfD2Ev,"axG",%progbits,_ZN7daisysp3SvfD5Ev,comdat
  17              		.align	1
  18              		.p2align 2,,3
  19              		.weak	_ZN7daisysp3SvfD2Ev
  20              		.arch armv7e-m
  21              		.syntax unified
  22              		.thumb
  23              		.thumb_func
  24              		.fpu fpv5-d16
  26              	_ZN7daisysp3SvfD2Ev:
  27              	.LVL0:
  28              	.LFB2813:
  29              		.file 1 "../../DaisySP/Source/Filters/svf.h"
   1:../../DaisySP/Source/Filters/svf.h **** #pragma once
   2:../../DaisySP/Source/Filters/svf.h **** #ifndef DSY_SVF_H
   3:../../DaisySP/Source/Filters/svf.h **** #define DSY_SVF_H
   4:../../DaisySP/Source/Filters/svf.h **** 
   5:../../DaisySP/Source/Filters/svf.h **** namespace daisysp
   6:../../DaisySP/Source/Filters/svf.h **** {
   7:../../DaisySP/Source/Filters/svf.h **** /**      Double Sampled, Stable State Variable Filter
   8:../../DaisySP/Source/Filters/svf.h **** 
   9:../../DaisySP/Source/Filters/svf.h **** Credit to Andrew Simper from musicdsp.org
  10:../../DaisySP/Source/Filters/svf.h **** 
  11:../../DaisySP/Source/Filters/svf.h **** This is his "State Variable Filter (Double Sampled, Stable)"
  12:../../DaisySP/Source/Filters/svf.h **** 
  13:../../DaisySP/Source/Filters/svf.h **** Additional thanks to Laurent de Soras for stability limit, and 
  14:../../DaisySP/Source/Filters/svf.h **** Stefan Diedrichsen for the correct notch output
  15:../../DaisySP/Source/Filters/svf.h **** 
  16:../../DaisySP/Source/Filters/svf.h **** Ported by: Stephen Hensley
  17:../../DaisySP/Source/Filters/svf.h **** */
  18:../../DaisySP/Source/Filters/svf.h **** class Svf
  19:../../DaisySP/Source/Filters/svf.h **** {
  20:../../DaisySP/Source/Filters/svf.h ****   public:
  21:../../DaisySP/Source/Filters/svf.h ****     Svf() {}
  22:../../DaisySP/Source/Filters/svf.h ****     ~Svf() {}
  30              		.loc 1 22 5 view -0
  31              		.cfi_startproc
  32              		@ args = 0, pretend = 0, frame = 0
  33              		@ frame_needed = 0, uses_anonymous_args = 0
  34              		@ link register save eliminated.
  35              		.loc 1 22 13 is_stmt 0 view .LVU1
  36 0000 7047     		bx	lr
ARM GAS  /tmp/ccPAoVZi.s 			page 2


  37              		.cfi_endproc
  38              	.LFE2813:
  40              		.weak	_ZN7daisysp3SvfD1Ev
  41              		.thumb_set _ZN7daisysp3SvfD1Ev,_ZN7daisysp3SvfD2Ev
  42 0002 00BF     		.section	.text._ZN5daisy9ParameterD2Ev,"axG",%progbits,_ZN5daisy9ParameterD5Ev,comdat
  43              		.align	1
  44              		.p2align 2,,3
  45              		.weak	_ZN5daisy9ParameterD2Ev
  46              		.syntax unified
  47              		.thumb
  48              		.thumb_func
  49              		.fpu fpv5-d16
  51              	_ZN5daisy9ParameterD2Ev:
  52              	.LVL1:
  53              	.LFB3778:
  54              		.file 2 "../../libdaisy/src/hid/parameter.h"
   1:../../libdaisy/src/hid/parameter.h **** #pragma once
   2:../../libdaisy/src/hid/parameter.h **** #include <stdint.h>
   3:../../libdaisy/src/hid/parameter.h **** #include "hid/ctrl.h"
   4:../../libdaisy/src/hid/parameter.h **** 
   5:../../libdaisy/src/hid/parameter.h **** namespace daisy
   6:../../libdaisy/src/hid/parameter.h **** {
   7:../../libdaisy/src/hid/parameter.h **** /** @addtogroup controls
   8:../../libdaisy/src/hid/parameter.h ****     @{
   9:../../libdaisy/src/hid/parameter.h **** */
  10:../../libdaisy/src/hid/parameter.h **** 
  11:../../libdaisy/src/hid/parameter.h **** /**      Simple parameter mapping tool that takes a 0-1 input from an hid_ctrl. */
  12:../../libdaisy/src/hid/parameter.h **** class Parameter
  13:../../libdaisy/src/hid/parameter.h **** {
  14:../../libdaisy/src/hid/parameter.h ****   public:
  15:../../libdaisy/src/hid/parameter.h ****     /** Curves are applied to the output signal */
  16:../../libdaisy/src/hid/parameter.h ****     enum Curve
  17:../../libdaisy/src/hid/parameter.h ****     {
  18:../../libdaisy/src/hid/parameter.h ****         LINEAR,      /**< Linear curve */
  19:../../libdaisy/src/hid/parameter.h ****         EXPONENTIAL, /**< Exponential curve */
  20:../../libdaisy/src/hid/parameter.h ****         LOGARITHMIC, /**<  Logarithmic curve */
  21:../../libdaisy/src/hid/parameter.h ****         CUBE,        /**< Cubic curve */
  22:../../libdaisy/src/hid/parameter.h ****         LAST,        /**< Final enum element. */
  23:../../libdaisy/src/hid/parameter.h ****     };
  24:../../libdaisy/src/hid/parameter.h ****     /** Constructor */
  25:../../libdaisy/src/hid/parameter.h ****     Parameter() {}
  26:../../libdaisy/src/hid/parameter.h ****     /** Destructor */
  27:../../libdaisy/src/hid/parameter.h ****     ~Parameter() {}
  55              		.loc 2 27 5 is_stmt 1 view -0
  56              		.cfi_startproc
  57              		@ args = 0, pretend = 0, frame = 0
  58              		@ frame_needed = 0, uses_anonymous_args = 0
  59              		@ link register save eliminated.
  60              	.LBB625:
  61              	.LBI625:
  62              		.file 3 "../../libdaisy/src/hid/ctrl.h"
   1:../../libdaisy/src/hid/ctrl.h **** #pragma once
   2:../../libdaisy/src/hid/ctrl.h **** #ifndef DSY_KNOB_H
   3:../../libdaisy/src/hid/ctrl.h **** #define DSY_KNOB_H /**< & */
   4:../../libdaisy/src/hid/ctrl.h **** #include <stdint.h>
   5:../../libdaisy/src/hid/ctrl.h **** 
   6:../../libdaisy/src/hid/ctrl.h **** #ifdef __cplusplus
ARM GAS  /tmp/ccPAoVZi.s 			page 3


   7:../../libdaisy/src/hid/ctrl.h **** namespace daisy
   8:../../libdaisy/src/hid/ctrl.h **** {
   9:../../libdaisy/src/hid/ctrl.h **** /**
  10:../../libdaisy/src/hid/ctrl.h ****     @brief Hardware Interface for control inputs \n 
  11:../../libdaisy/src/hid/ctrl.h ****     Primarily designed for ADC input controls such as \n 
  12:../../libdaisy/src/hid/ctrl.h ****     potentiometers, and control voltage. \n 
  13:../../libdaisy/src/hid/ctrl.h ****     @author Stephen Hensley
  14:../../libdaisy/src/hid/ctrl.h ****     @date November 2019
  15:../../libdaisy/src/hid/ctrl.h ****     @ingroup controls
  16:../../libdaisy/src/hid/ctrl.h **** */
  17:../../libdaisy/src/hid/ctrl.h **** class AnalogControl
  18:../../libdaisy/src/hid/ctrl.h **** {
  19:../../libdaisy/src/hid/ctrl.h ****   public:
  20:../../libdaisy/src/hid/ctrl.h ****     /** Constructor */
  21:../../libdaisy/src/hid/ctrl.h ****     AnalogControl() {}
  22:../../libdaisy/src/hid/ctrl.h ****     /** destructor */
  23:../../libdaisy/src/hid/ctrl.h ****     ~AnalogControl() {}
  63              		.loc 3 23 5 view .LVU3
  64              		.loc 3 23 5 is_stmt 0 view .LVU4
  65              	.LBE625:
  66              		.loc 2 27 19 view .LVU5
  67 0000 7047     		bx	lr
  68              		.cfi_endproc
  69              	.LFE3778:
  71              		.weak	_ZN5daisy9ParameterD1Ev
  72              		.thumb_set _ZN5daisy9ParameterD1Ev,_ZN5daisy9ParameterD2Ev
  73 0002 00BF     		.section	.text._ZN5daisy10DaisyPatchD2Ev,"axG",%progbits,_ZN5daisy10DaisyPatchD5Ev,comdat
  74              		.align	1
  75              		.p2align 2,,3
  76              		.weak	_ZN5daisy10DaisyPatchD2Ev
  77              		.syntax unified
  78              		.thumb
  79              		.thumb_func
  80              		.fpu fpv5-d16
  82              	_ZN5daisy10DaisyPatchD2Ev:
  83              	.LVL2:
  84              	.LFB4230:
  85              		.file 4 "../../libdaisy/src/daisy_patch.h"
   1:../../libdaisy/src/daisy_patch.h **** #pragma once
   2:../../libdaisy/src/daisy_patch.h **** #ifndef DSY_PATCH_BSP_H
   3:../../libdaisy/src/daisy_patch.h **** #define DSY_PATCH_BSP_H
   4:../../libdaisy/src/daisy_patch.h **** #include "daisy_seed.h"
   5:../../libdaisy/src/daisy_patch.h **** #include "dev/oled_ssd130x.h"
   6:../../libdaisy/src/daisy_patch.h **** 
   7:../../libdaisy/src/daisy_patch.h **** namespace daisy
   8:../../libdaisy/src/daisy_patch.h **** {
   9:../../libdaisy/src/daisy_patch.h **** /**
  10:../../libdaisy/src/daisy_patch.h ****     @brief Class that handles initializing all of the hardware specific to the Daisy Patch Board. \
  11:../../libdaisy/src/daisy_patch.h ****     Helper funtions are also in place to provide easy access to built-in controls and peripherals.
  12:../../libdaisy/src/daisy_patch.h ****     @author Stephen Hensley
  13:../../libdaisy/src/daisy_patch.h ****     @date November 2019
  14:../../libdaisy/src/daisy_patch.h ****     @ingroup boards
  15:../../libdaisy/src/daisy_patch.h **** */
  16:../../libdaisy/src/daisy_patch.h **** class DaisyPatch
  17:../../libdaisy/src/daisy_patch.h **** {
  18:../../libdaisy/src/daisy_patch.h ****   public:
  19:../../libdaisy/src/daisy_patch.h ****     /** Enum of Ctrls to represent the four CV/Knob combos on the Patch
ARM GAS  /tmp/ccPAoVZi.s 			page 4


  20:../../libdaisy/src/daisy_patch.h ****      */
  21:../../libdaisy/src/daisy_patch.h ****     enum Ctrl
  22:../../libdaisy/src/daisy_patch.h ****     {
  23:../../libdaisy/src/daisy_patch.h ****         CTRL_1,    /**< */
  24:../../libdaisy/src/daisy_patch.h ****         CTRL_2,    /**< */
  25:../../libdaisy/src/daisy_patch.h ****         CTRL_3,    /**< */
  26:../../libdaisy/src/daisy_patch.h ****         CTRL_4,    /**< */
  27:../../libdaisy/src/daisy_patch.h ****         CTRL_LAST, /**< */
  28:../../libdaisy/src/daisy_patch.h ****     };
  29:../../libdaisy/src/daisy_patch.h **** 
  30:../../libdaisy/src/daisy_patch.h ****     /** Daisy patch gate inputs */
  31:../../libdaisy/src/daisy_patch.h ****     enum GateInput
  32:../../libdaisy/src/daisy_patch.h ****     {
  33:../../libdaisy/src/daisy_patch.h ****         GATE_IN_1,    /**< */
  34:../../libdaisy/src/daisy_patch.h ****         GATE_IN_2,    /** <*/
  35:../../libdaisy/src/daisy_patch.h ****         GATE_IN_LAST, /**< */
  36:../../libdaisy/src/daisy_patch.h ****     };
  37:../../libdaisy/src/daisy_patch.h **** 
  38:../../libdaisy/src/daisy_patch.h ****     /** Constructor */
  39:../../libdaisy/src/daisy_patch.h ****     DaisyPatch() {}
  40:../../libdaisy/src/daisy_patch.h ****     /** Destructor */
  41:../../libdaisy/src/daisy_patch.h ****     ~DaisyPatch() {}
  86              		.loc 4 41 5 is_stmt 1 view -0
  87              		.cfi_startproc
  88              		@ args = 0, pretend = 0, frame = 0
  89              		@ frame_needed = 0, uses_anonymous_args = 0
  90              		@ link register save eliminated.
  91              	.LBB626:
  92              	.LBI626:
  93              		.file 5 "../../libdaisy/src/hid/disp/oled_display.h"
   1:../../libdaisy/src/hid/disp/oled_display.h **** #pragma once
   2:../../libdaisy/src/hid/disp/oled_display.h **** #ifndef DSY_OLED_DISPLAY_H
   3:../../libdaisy/src/hid/disp/oled_display.h **** #define DSY_OLED_DISPLAY_H /**< Macro */
   4:../../libdaisy/src/hid/disp/oled_display.h **** 
   5:../../libdaisy/src/hid/disp/oled_display.h **** #include "display.h"
   6:../../libdaisy/src/hid/disp/oled_display.h **** 
   7:../../libdaisy/src/hid/disp/oled_display.h **** namespace daisy
   8:../../libdaisy/src/hid/disp/oled_display.h **** {
   9:../../libdaisy/src/hid/disp/oled_display.h **** /** 
  10:../../libdaisy/src/hid/disp/oled_display.h ****  * This class is for drawing to a monochrome OLED display. 
  11:../../libdaisy/src/hid/disp/oled_display.h **** */
  12:../../libdaisy/src/hid/disp/oled_display.h **** template <typename DisplayDriver>
  13:../../libdaisy/src/hid/disp/oled_display.h **** class OledDisplay : public OneBitGraphicsDisplayImpl<OledDisplay<DisplayDriver>>
  14:../../libdaisy/src/hid/disp/oled_display.h **** {
  15:../../libdaisy/src/hid/disp/oled_display.h ****   public:
  16:../../libdaisy/src/hid/disp/oled_display.h ****     OledDisplay() {}
  17:../../libdaisy/src/hid/disp/oled_display.h ****     virtual ~OledDisplay() {}
  94              		.loc 5 17 13 view .LVU7
  95              	.LBB627:
  96              	.LBI627:
  97              		.file 6 "../../libdaisy/src/hid/disp/display.h"
   1:../../libdaisy/src/hid/disp/display.h **** #pragma once
   2:../../libdaisy/src/hid/disp/display.h **** #ifndef DSY_DISPLAY_H
   3:../../libdaisy/src/hid/disp/display.h **** #define DSY_DISPLAY_H /**< Macro */
   4:../../libdaisy/src/hid/disp/display.h **** #include <cmath>
   5:../../libdaisy/src/hid/disp/display.h **** #include "util/oled_fonts.h"
   6:../../libdaisy/src/hid/disp/display.h **** #include "daisy_core.h"
ARM GAS  /tmp/ccPAoVZi.s 			page 5


   7:../../libdaisy/src/hid/disp/display.h **** #include "graphics_common.h"
   8:../../libdaisy/src/hid/disp/display.h **** 
   9:../../libdaisy/src/hid/disp/display.h **** #ifndef deg2rad
  10:../../libdaisy/src/hid/disp/display.h **** #define deg2rad(deg) ((deg)*3.141592 / 180.0)
  11:../../libdaisy/src/hid/disp/display.h **** #endif
  12:../../libdaisy/src/hid/disp/display.h **** 
  13:../../libdaisy/src/hid/disp/display.h **** namespace daisy
  14:../../libdaisy/src/hid/disp/display.h **** {
  15:../../libdaisy/src/hid/disp/display.h **** /** 
  16:../../libdaisy/src/hid/disp/display.h ****  * This interface is used as a base class for all types of 1bit-per-pixel
  17:../../libdaisy/src/hid/disp/display.h ****  * graphics displays.
  18:../../libdaisy/src/hid/disp/display.h **** */
  19:../../libdaisy/src/hid/disp/display.h **** class OneBitGraphicsDisplay
  20:../../libdaisy/src/hid/disp/display.h **** {
  21:../../libdaisy/src/hid/disp/display.h ****   public:
  22:../../libdaisy/src/hid/disp/display.h ****     OneBitGraphicsDisplay() {}
  23:../../libdaisy/src/hid/disp/display.h ****     virtual ~OneBitGraphicsDisplay() {}
  24:../../libdaisy/src/hid/disp/display.h **** 
  25:../../libdaisy/src/hid/disp/display.h ****     virtual uint16_t Height() const = 0;
  26:../../libdaisy/src/hid/disp/display.h ****     virtual uint16_t Width() const  = 0;
  27:../../libdaisy/src/hid/disp/display.h **** 
  28:../../libdaisy/src/hid/disp/display.h ****     Rectangle GetBounds() const
  29:../../libdaisy/src/hid/disp/display.h ****     {
  30:../../libdaisy/src/hid/disp/display.h ****         return Rectangle(int16_t(Width()), int16_t(Height()));
  31:../../libdaisy/src/hid/disp/display.h ****     }
  32:../../libdaisy/src/hid/disp/display.h **** 
  33:../../libdaisy/src/hid/disp/display.h **** 
  34:../../libdaisy/src/hid/disp/display.h ****     size_t CurrentX() { return currentX_; };
  35:../../libdaisy/src/hid/disp/display.h ****     size_t CurrentY() { return currentY_; };
  36:../../libdaisy/src/hid/disp/display.h **** 
  37:../../libdaisy/src/hid/disp/display.h ****     /** 
  38:../../libdaisy/src/hid/disp/display.h ****     Fills the entire display with either on/off.
  39:../../libdaisy/src/hid/disp/display.h ****     \param on Sets on or off.
  40:../../libdaisy/src/hid/disp/display.h ****     */
  41:../../libdaisy/src/hid/disp/display.h ****     virtual void Fill(bool on) = 0;
  42:../../libdaisy/src/hid/disp/display.h **** 
  43:../../libdaisy/src/hid/disp/display.h ****     /**
  44:../../libdaisy/src/hid/disp/display.h ****     Sets the pixel at the specified coordinate to be on/off.
  45:../../libdaisy/src/hid/disp/display.h ****     \param x   x Coordinate
  46:../../libdaisy/src/hid/disp/display.h ****     \param y   y coordinate
  47:../../libdaisy/src/hid/disp/display.h ****     \param on  on or off
  48:../../libdaisy/src/hid/disp/display.h ****     */
  49:../../libdaisy/src/hid/disp/display.h ****     virtual void DrawPixel(uint_fast8_t x, uint_fast8_t y, bool on) = 0;
  50:../../libdaisy/src/hid/disp/display.h **** 
  51:../../libdaisy/src/hid/disp/display.h ****     /**
  52:../../libdaisy/src/hid/disp/display.h ****     Draws a line from (x1, y1) to (y1, y2)
  53:../../libdaisy/src/hid/disp/display.h ****     \param x1  x Coordinate of the starting point
  54:../../libdaisy/src/hid/disp/display.h ****     \param y1  y Coordinate of the starting point
  55:../../libdaisy/src/hid/disp/display.h ****     \param x2  x Coordinate of the ending point
  56:../../libdaisy/src/hid/disp/display.h ****     \param y2  y Coordinate of the ending point
  57:../../libdaisy/src/hid/disp/display.h ****     \param on  on or off
  58:../../libdaisy/src/hid/disp/display.h ****     */
  59:../../libdaisy/src/hid/disp/display.h ****     virtual void DrawLine(uint_fast8_t x1,
  60:../../libdaisy/src/hid/disp/display.h ****                           uint_fast8_t y1,
  61:../../libdaisy/src/hid/disp/display.h ****                           uint_fast8_t x2,
  62:../../libdaisy/src/hid/disp/display.h ****                           uint_fast8_t y2,
  63:../../libdaisy/src/hid/disp/display.h ****                           bool         on)
ARM GAS  /tmp/ccPAoVZi.s 			page 6


  64:../../libdaisy/src/hid/disp/display.h ****         = 0;
  65:../../libdaisy/src/hid/disp/display.h **** 
  66:../../libdaisy/src/hid/disp/display.h ****     /**
  67:../../libdaisy/src/hid/disp/display.h ****     Draws a rectangle based on two coordinates.
  68:../../libdaisy/src/hid/disp/display.h ****     \param x1 x Coordinate of the first point
  69:../../libdaisy/src/hid/disp/display.h ****     \param y1 y Coordinate of the first point
  70:../../libdaisy/src/hid/disp/display.h ****     \param x2 x Coordinate of the second point
  71:../../libdaisy/src/hid/disp/display.h ****     \param y2 y Coordinate of the second point
  72:../../libdaisy/src/hid/disp/display.h ****     \param on on or off
  73:../../libdaisy/src/hid/disp/display.h ****     \param fill fill the rectangle or draw only the outline
  74:../../libdaisy/src/hid/disp/display.h ****     */
  75:../../libdaisy/src/hid/disp/display.h ****     virtual void DrawRect(uint_fast8_t x1,
  76:../../libdaisy/src/hid/disp/display.h ****                           uint_fast8_t y1,
  77:../../libdaisy/src/hid/disp/display.h ****                           uint_fast8_t x2,
  78:../../libdaisy/src/hid/disp/display.h ****                           uint_fast8_t y2,
  79:../../libdaisy/src/hid/disp/display.h ****                           bool         on,
  80:../../libdaisy/src/hid/disp/display.h ****                           bool         fill = false)
  81:../../libdaisy/src/hid/disp/display.h ****         = 0;
  82:../../libdaisy/src/hid/disp/display.h **** 
  83:../../libdaisy/src/hid/disp/display.h ****     /**
  84:../../libdaisy/src/hid/disp/display.h ****     Draws a rectangle.
  85:../../libdaisy/src/hid/disp/display.h ****     \param rect the rectangle
  86:../../libdaisy/src/hid/disp/display.h ****     \param on   on or off
  87:../../libdaisy/src/hid/disp/display.h ****     \param fill fill the rectangle or draw only the outline
  88:../../libdaisy/src/hid/disp/display.h ****     */
  89:../../libdaisy/src/hid/disp/display.h ****     void DrawRect(const Rectangle& rect, bool on, bool fill = false)
  90:../../libdaisy/src/hid/disp/display.h ****     {
  91:../../libdaisy/src/hid/disp/display.h ****         DrawRect(rect.GetX(),
  92:../../libdaisy/src/hid/disp/display.h ****                  rect.GetY(),
  93:../../libdaisy/src/hid/disp/display.h ****                  rect.GetRight(),
  94:../../libdaisy/src/hid/disp/display.h ****                  rect.GetBottom(),
  95:../../libdaisy/src/hid/disp/display.h ****                  on,
  96:../../libdaisy/src/hid/disp/display.h ****                  fill);
  97:../../libdaisy/src/hid/disp/display.h ****     }
  98:../../libdaisy/src/hid/disp/display.h **** 
  99:../../libdaisy/src/hid/disp/display.h ****     /**
 100:../../libdaisy/src/hid/disp/display.h ****     Draws an arc around the specified coordinate
 101:../../libdaisy/src/hid/disp/display.h ****     \param x           x Coordinate of the center of the arc
 102:../../libdaisy/src/hid/disp/display.h ****     \param y           y Coordinate of the center of the arc
 103:../../libdaisy/src/hid/disp/display.h ****     \param radius      radius of the arc
 104:../../libdaisy/src/hid/disp/display.h ****     \param start_angle angle where to start the arc
 105:../../libdaisy/src/hid/disp/display.h ****     \param sweep       total angle of the arc
 106:../../libdaisy/src/hid/disp/display.h ****     \param on  on or off
 107:../../libdaisy/src/hid/disp/display.h ****     */
 108:../../libdaisy/src/hid/disp/display.h ****     virtual void DrawArc(uint_fast8_t x,
 109:../../libdaisy/src/hid/disp/display.h ****                          uint_fast8_t y,
 110:../../libdaisy/src/hid/disp/display.h ****                          uint_fast8_t radius,
 111:../../libdaisy/src/hid/disp/display.h ****                          int_fast16_t start_angle,
 112:../../libdaisy/src/hid/disp/display.h ****                          int_fast16_t sweep,
 113:../../libdaisy/src/hid/disp/display.h ****                          bool         on)
 114:../../libdaisy/src/hid/disp/display.h ****         = 0;
 115:../../libdaisy/src/hid/disp/display.h **** 
 116:../../libdaisy/src/hid/disp/display.h ****     /**
 117:../../libdaisy/src/hid/disp/display.h ****     Draws a circle around the specified coordinate
 118:../../libdaisy/src/hid/disp/display.h ****     \param x           x Coordinate of the center of the circle
 119:../../libdaisy/src/hid/disp/display.h ****     \param y           y Coordinate of the center of the circle
 120:../../libdaisy/src/hid/disp/display.h ****     \param radius      radius of the circle
ARM GAS  /tmp/ccPAoVZi.s 			page 7


 121:../../libdaisy/src/hid/disp/display.h ****     \param on  on or off
 122:../../libdaisy/src/hid/disp/display.h ****     */
 123:../../libdaisy/src/hid/disp/display.h ****     void
 124:../../libdaisy/src/hid/disp/display.h ****     DrawCircle(uint_fast8_t x, uint_fast8_t y, uint_fast8_t radius, bool on)
 125:../../libdaisy/src/hid/disp/display.h ****     {
 126:../../libdaisy/src/hid/disp/display.h ****         DrawArc(x, y, radius, 0, 360, on);
 127:../../libdaisy/src/hid/disp/display.h ****     };
 128:../../libdaisy/src/hid/disp/display.h **** 
 129:../../libdaisy/src/hid/disp/display.h ****     /** 
 130:../../libdaisy/src/hid/disp/display.h ****     Writes the character with the specific FontDef
 131:../../libdaisy/src/hid/disp/display.h ****     to the display buffer at the current Cursor position.
 132:../../libdaisy/src/hid/disp/display.h ****     \param ch character to be written
 133:../../libdaisy/src/hid/disp/display.h ****     \param font font to be written in
 134:../../libdaisy/src/hid/disp/display.h ****     \param on    on or off
 135:../../libdaisy/src/hid/disp/display.h ****     \return &
 136:../../libdaisy/src/hid/disp/display.h ****     */
 137:../../libdaisy/src/hid/disp/display.h ****     virtual char WriteChar(char ch, FontDef font, bool on) = 0;
 138:../../libdaisy/src/hid/disp/display.h **** 
 139:../../libdaisy/src/hid/disp/display.h ****     /** 
 140:../../libdaisy/src/hid/disp/display.h ****     Similar to WriteChar, except it will handle an entire String.
 141:../../libdaisy/src/hid/disp/display.h ****     Wrapping does not happen automatically, so the width
 142:../../libdaisy/src/hid/disp/display.h ****     of the string must be kept within the dimensions of the screen.
 143:../../libdaisy/src/hid/disp/display.h ****     \param str string to be written
 144:../../libdaisy/src/hid/disp/display.h ****     \param font font to use
 145:../../libdaisy/src/hid/disp/display.h ****     \param on  on or off
 146:../../libdaisy/src/hid/disp/display.h ****     \return &
 147:../../libdaisy/src/hid/disp/display.h ****     */
 148:../../libdaisy/src/hid/disp/display.h ****     virtual char WriteString(const char* str, FontDef font, bool on) = 0;
 149:../../libdaisy/src/hid/disp/display.h **** 
 150:../../libdaisy/src/hid/disp/display.h ****     /** 
 151:../../libdaisy/src/hid/disp/display.h ****     Similar to WriteString but justified within a bounding box.
 152:../../libdaisy/src/hid/disp/display.h ****     \param str          string to be written
 153:../../libdaisy/src/hid/disp/display.h ****     \param font         font to use
 154:../../libdaisy/src/hid/disp/display.h ****     \param boundingBox  the bounding box to draw the text in
 155:../../libdaisy/src/hid/disp/display.h ****     \param alignment    the alignment to use
 156:../../libdaisy/src/hid/disp/display.h ****     \param on           on or off
 157:../../libdaisy/src/hid/disp/display.h ****     \return The rectangle that was drawn to
 158:../../libdaisy/src/hid/disp/display.h ****     */
 159:../../libdaisy/src/hid/disp/display.h ****     virtual Rectangle WriteStringAligned(const char*    str,
 160:../../libdaisy/src/hid/disp/display.h ****                                          const FontDef& font,
 161:../../libdaisy/src/hid/disp/display.h ****                                          Rectangle      boundingBox,
 162:../../libdaisy/src/hid/disp/display.h ****                                          Alignment      alignment,
 163:../../libdaisy/src/hid/disp/display.h ****                                          bool           on)
 164:../../libdaisy/src/hid/disp/display.h ****         = 0;
 165:../../libdaisy/src/hid/disp/display.h **** 
 166:../../libdaisy/src/hid/disp/display.h ****     /** 
 167:../../libdaisy/src/hid/disp/display.h ****     Moves the 'Cursor' position used for WriteChar, and WriteStr to the specified coordinate.
 168:../../libdaisy/src/hid/disp/display.h ****     \param x x pos
 169:../../libdaisy/src/hid/disp/display.h ****     \param y y pos
 170:../../libdaisy/src/hid/disp/display.h ****     */
 171:../../libdaisy/src/hid/disp/display.h ****     void SetCursor(uint16_t x, uint16_t y)
 172:../../libdaisy/src/hid/disp/display.h ****     {
 173:../../libdaisy/src/hid/disp/display.h ****         currentX_ = (x >= Width()) ? Width() - 1 : x;
 174:../../libdaisy/src/hid/disp/display.h ****         currentY_ = (y >= Height()) ? Height() - 1 : y;
 175:../../libdaisy/src/hid/disp/display.h ****     }
 176:../../libdaisy/src/hid/disp/display.h **** 
 177:../../libdaisy/src/hid/disp/display.h ****     /** 
ARM GAS  /tmp/ccPAoVZi.s 			page 8


 178:../../libdaisy/src/hid/disp/display.h ****     Writes the current display buffer to the OLED device using SPI or I2C depending on 
 179:../../libdaisy/src/hid/disp/display.h ****     how the object was initialized.
 180:../../libdaisy/src/hid/disp/display.h ****     */
 181:../../libdaisy/src/hid/disp/display.h ****     virtual void Update() = 0;
 182:../../libdaisy/src/hid/disp/display.h **** 
 183:../../libdaisy/src/hid/disp/display.h ****   protected:
 184:../../libdaisy/src/hid/disp/display.h ****     uint16_t currentX_;
 185:../../libdaisy/src/hid/disp/display.h ****     uint16_t currentY_;
 186:../../libdaisy/src/hid/disp/display.h **** };
 187:../../libdaisy/src/hid/disp/display.h **** 
 188:../../libdaisy/src/hid/disp/display.h **** /** This class is intended as a intermediary class for your actual implementation of the OneBitGrap
 189:../../libdaisy/src/hid/disp/display.h ****  *  interface. It uses the CRTP design pattern where the template argument is the child class. It p
 190:../../libdaisy/src/hid/disp/display.h ****  *  implementations for most of the functions, except DrawPixel(), Update() and Fill(), which you'l
 191:../../libdaisy/src/hid/disp/display.h ****  *  to provide in your child class.
 192:../../libdaisy/src/hid/disp/display.h ****  *  The main goal of this class is to provide common drawing functions without relying on massive a
 193:../../libdaisy/src/hid/disp/display.h ****  *  virtual function calls that would result in a performance loss. To achieve this, any drawing fu
 194:../../libdaisy/src/hid/disp/display.h ****  *  is implemented here and internally calls other drawing functions (e.g. DrawRect() which interna
 195:../../libdaisy/src/hid/disp/display.h ****  *  DrawPixel() and DrawLine()) makes these calls via the qualified name of these functions to expl
 196:../../libdaisy/src/hid/disp/display.h ****  *  suppress the virtual dispatch mechanism like this:
 197:../../libdaisy/src/hid/disp/display.h ****  * 
 198:../../libdaisy/src/hid/disp/display.h ****  *      ChildType::DrawPixel(...); // no virtual function call; direct call into the child class fu
 199:../../libdaisy/src/hid/disp/display.h ****  *  
 200:../../libdaisy/src/hid/disp/display.h ****  *  To create a custom OneBitGraphicsDisplay implementation, you can 
 201:../../libdaisy/src/hid/disp/display.h ****  *  A) inherit from OneBitGraphicsDisplay directly and provide all the drawing functions yourself
 202:../../libdaisy/src/hid/disp/display.h ****  *  B) Inherit from OneBitGraphicsDisplayImpl and only provide DrawPixel(), Fill() and Update()
 203:../../libdaisy/src/hid/disp/display.h ****  *     like this:
 204:../../libdaisy/src/hid/disp/display.h ****  *  
 205:../../libdaisy/src/hid/disp/display.h ****  *      class MyDisplayClass : public OneBitGraphicsDisplayImpl<MyDisplayClass> 
 206:../../libdaisy/src/hid/disp/display.h ****  *      {
 207:../../libdaisy/src/hid/disp/display.h ****  *      public:
 208:../../libdaisy/src/hid/disp/display.h ****  *          void Fill() override { ... };
 209:../../libdaisy/src/hid/disp/display.h ****  *          void DrawPixel(uint_fast8_t x, uint_fast8_t y, bool on) override { ... };
 210:../../libdaisy/src/hid/disp/display.h ****  *          void Update() override { ... }
 211:../../libdaisy/src/hid/disp/display.h ****  *      };
 212:../../libdaisy/src/hid/disp/display.h ****  *  
 213:../../libdaisy/src/hid/disp/display.h ****  */
 214:../../libdaisy/src/hid/disp/display.h **** template <class ChildType>
 215:../../libdaisy/src/hid/disp/display.h **** class OneBitGraphicsDisplayImpl : public OneBitGraphicsDisplay
 216:../../libdaisy/src/hid/disp/display.h **** {
 217:../../libdaisy/src/hid/disp/display.h ****   public:
 218:../../libdaisy/src/hid/disp/display.h ****     OneBitGraphicsDisplayImpl() {}
 219:../../libdaisy/src/hid/disp/display.h ****     virtual ~OneBitGraphicsDisplayImpl() {}
  98              		.loc 6 219 13 view .LVU8
  99              	.LBB628:
 100              	.LBI628:
  23:../../libdaisy/src/hid/disp/display.h **** 
 101              		.loc 6 23 13 view .LVU9
  23:../../libdaisy/src/hid/disp/display.h **** 
 102              		.loc 6 23 13 is_stmt 0 view .LVU10
 103              	.LBE628:
 104              	.LBE627:
 105              	.LBE626:
 106              	.LBB629:
 107              	.LBI629:
 108              		.file 7 "../../libdaisy/src/hid/midi.h"
   1:../../libdaisy/src/hid/midi.h **** #pragma once
   2:../../libdaisy/src/hid/midi.h **** #ifndef DSY_MIDI_H
ARM GAS  /tmp/ccPAoVZi.s 			page 9


   3:../../libdaisy/src/hid/midi.h **** #define DSY_MIDI_H
   4:../../libdaisy/src/hid/midi.h **** 
   5:../../libdaisy/src/hid/midi.h **** // TODO: make this adjustable
   6:../../libdaisy/src/hid/midi.h **** #define SYSEX_BUFFER_LEN 128
   7:../../libdaisy/src/hid/midi.h **** 
   8:../../libdaisy/src/hid/midi.h **** #include <stdint.h>
   9:../../libdaisy/src/hid/midi.h **** #include <stdlib.h>
  10:../../libdaisy/src/hid/midi.h **** #include "per/uart.h"
  11:../../libdaisy/src/hid/midi.h **** #include "util/ringbuffer.h"
  12:../../libdaisy/src/hid/midi.h **** #include "hid/MidiEvent.h"
  13:../../libdaisy/src/hid/midi.h **** #include "sys/system.h"
  14:../../libdaisy/src/hid/midi.h **** 
  15:../../libdaisy/src/hid/midi.h **** namespace daisy
  16:../../libdaisy/src/hid/midi.h **** {
  17:../../libdaisy/src/hid/midi.h **** /** @addtogroup external 
  18:../../libdaisy/src/hid/midi.h ****     @{ 
  19:../../libdaisy/src/hid/midi.h **** */
  20:../../libdaisy/src/hid/midi.h **** 
  21:../../libdaisy/src/hid/midi.h **** class MidiUartTransport
  22:../../libdaisy/src/hid/midi.h **** {
  23:../../libdaisy/src/hid/midi.h ****   public:
  24:../../libdaisy/src/hid/midi.h ****     MidiUartTransport() {}
  25:../../libdaisy/src/hid/midi.h ****     ~MidiUartTransport() {}
  26:../../libdaisy/src/hid/midi.h **** 
  27:../../libdaisy/src/hid/midi.h ****     struct Config
  28:../../libdaisy/src/hid/midi.h ****     {
  29:../../libdaisy/src/hid/midi.h ****         UartHandler::Config::Peripheral periph;
  30:../../libdaisy/src/hid/midi.h ****         dsy_gpio_pin                    rx;
  31:../../libdaisy/src/hid/midi.h ****         dsy_gpio_pin                    tx;
  32:../../libdaisy/src/hid/midi.h **** 
  33:../../libdaisy/src/hid/midi.h ****         Config()
  34:../../libdaisy/src/hid/midi.h ****         {
  35:../../libdaisy/src/hid/midi.h ****             periph = UartHandler::Config::Peripheral::USART_1;
  36:../../libdaisy/src/hid/midi.h ****             rx     = {DSY_GPIOB, 7};
  37:../../libdaisy/src/hid/midi.h ****             tx     = {DSY_GPIOB, 6};
  38:../../libdaisy/src/hid/midi.h ****         }
  39:../../libdaisy/src/hid/midi.h ****     };
  40:../../libdaisy/src/hid/midi.h **** 
  41:../../libdaisy/src/hid/midi.h ****     inline void Init(Config config)
  42:../../libdaisy/src/hid/midi.h ****     {
  43:../../libdaisy/src/hid/midi.h ****         UartHandler::Config uart_config;
  44:../../libdaisy/src/hid/midi.h **** 
  45:../../libdaisy/src/hid/midi.h ****         //defaults
  46:../../libdaisy/src/hid/midi.h ****         uart_config.baudrate   = 31250;
  47:../../libdaisy/src/hid/midi.h ****         uart_config.stopbits   = UartHandler::Config::StopBits::BITS_1;
  48:../../libdaisy/src/hid/midi.h ****         uart_config.parity     = UartHandler::Config::Parity::NONE;
  49:../../libdaisy/src/hid/midi.h ****         uart_config.mode       = UartHandler::Config::Mode::TX_RX;
  50:../../libdaisy/src/hid/midi.h ****         uart_config.wordlength = UartHandler::Config::WordLength::BITS_8;
  51:../../libdaisy/src/hid/midi.h **** 
  52:../../libdaisy/src/hid/midi.h ****         //user settings
  53:../../libdaisy/src/hid/midi.h ****         uart_config.periph        = config.periph;
  54:../../libdaisy/src/hid/midi.h ****         uart_config.pin_config.rx = config.rx;
  55:../../libdaisy/src/hid/midi.h ****         uart_config.pin_config.tx = config.tx;
  56:../../libdaisy/src/hid/midi.h **** 
  57:../../libdaisy/src/hid/midi.h ****         uart_.Init(uart_config);
  58:../../libdaisy/src/hid/midi.h ****     }
  59:../../libdaisy/src/hid/midi.h **** 
ARM GAS  /tmp/ccPAoVZi.s 			page 10


  60:../../libdaisy/src/hid/midi.h ****     inline void    StartRx() { uart_.StartRx(); }
  61:../../libdaisy/src/hid/midi.h ****     inline size_t  Readable() { return uart_.Readable(); }
  62:../../libdaisy/src/hid/midi.h ****     inline uint8_t Rx() { return uart_.PopRx(); }
  63:../../libdaisy/src/hid/midi.h ****     inline bool    RxActive() { return uart_.RxActive(); }
  64:../../libdaisy/src/hid/midi.h ****     inline void    FlushRx() { uart_.FlushRx(); }
  65:../../libdaisy/src/hid/midi.h ****     inline void    Tx(uint8_t* buff, size_t size) { uart_.PollTx(buff, size); }
  66:../../libdaisy/src/hid/midi.h **** 
  67:../../libdaisy/src/hid/midi.h ****   private:
  68:../../libdaisy/src/hid/midi.h ****     UartHandler uart_;
  69:../../libdaisy/src/hid/midi.h **** };
  70:../../libdaisy/src/hid/midi.h **** 
  71:../../libdaisy/src/hid/midi.h **** /** 
  72:../../libdaisy/src/hid/midi.h ****     @brief Simple MIDI Handler \n 
  73:../../libdaisy/src/hid/midi.h ****     Parses bytes from an input into valid MidiEvents. \n 
  74:../../libdaisy/src/hid/midi.h ****     The MidiEvents fill a FIFO queue that the user can pop messages from.
  75:../../libdaisy/src/hid/midi.h ****     @author shensley
  76:../../libdaisy/src/hid/midi.h ****     @date March 2020
  77:../../libdaisy/src/hid/midi.h **** */
  78:../../libdaisy/src/hid/midi.h **** template <typename Transport>
  79:../../libdaisy/src/hid/midi.h **** class MidiHandler
  80:../../libdaisy/src/hid/midi.h **** {
  81:../../libdaisy/src/hid/midi.h ****   public:
  82:../../libdaisy/src/hid/midi.h ****     MidiHandler() {}
  83:../../libdaisy/src/hid/midi.h ****     ~MidiHandler() {}
 109              		.loc 7 83 5 is_stmt 1 view .LVU11
 110              	.LBB630:
 111              	.LBI630:
  25:../../libdaisy/src/hid/midi.h **** 
 112              		.loc 7 25 5 view .LVU12
  25:../../libdaisy/src/hid/midi.h **** 
 113              		.loc 7 25 5 is_stmt 0 view .LVU13
 114              	.LBE630:
 115              	.LBE629:
 116              	.LBB631:
 117              	.LBI631:
 118              		.file 8 "../../libdaisy/src/hid/encoder.h"
   1:../../libdaisy/src/hid/encoder.h **** #pragma once
   2:../../libdaisy/src/hid/encoder.h **** #ifndef DSY_ENCODER_H
   3:../../libdaisy/src/hid/encoder.h **** #define DSY_ENCODER_H
   4:../../libdaisy/src/hid/encoder.h **** #include "daisy_core.h"
   5:../../libdaisy/src/hid/encoder.h **** #include "per/gpio.h"
   6:../../libdaisy/src/hid/encoder.h **** #include "hid/switch.h"
   7:../../libdaisy/src/hid/encoder.h **** 
   8:../../libdaisy/src/hid/encoder.h **** namespace daisy
   9:../../libdaisy/src/hid/encoder.h **** {
  10:../../libdaisy/src/hid/encoder.h **** /** 
  11:../../libdaisy/src/hid/encoder.h ****     @brief Generic Class for handling Quadrature Encoders \n 
  12:../../libdaisy/src/hid/encoder.h ****     Inspired/influenced by Mutable Instruments (pichenettes) Encoder classes
  13:../../libdaisy/src/hid/encoder.h ****     @author Stephen Hensley
  14:../../libdaisy/src/hid/encoder.h ****     @date December 2019
  15:../../libdaisy/src/hid/encoder.h ****     @ingroup controls
  16:../../libdaisy/src/hid/encoder.h **** */
  17:../../libdaisy/src/hid/encoder.h **** class Encoder
  18:../../libdaisy/src/hid/encoder.h **** {
  19:../../libdaisy/src/hid/encoder.h ****   public:
  20:../../libdaisy/src/hid/encoder.h ****     Encoder() {}
  21:../../libdaisy/src/hid/encoder.h ****     ~Encoder() {}
ARM GAS  /tmp/ccPAoVZi.s 			page 11


 119              		.loc 8 21 5 is_stmt 1 view .LVU14
 120              	.LBB632:
 121              	.LBI632:
 122              		.file 9 "../../libdaisy/src/hid/switch.h"
   1:../../libdaisy/src/hid/switch.h **** #pragma once
   2:../../libdaisy/src/hid/switch.h **** #ifndef DSY_SWITCH_H
   3:../../libdaisy/src/hid/switch.h **** #define DSY_SWITCH_H
   4:../../libdaisy/src/hid/switch.h **** #include "daisy_core.h"
   5:../../libdaisy/src/hid/switch.h **** #include "per/gpio.h"
   6:../../libdaisy/src/hid/switch.h **** 
   7:../../libdaisy/src/hid/switch.h **** namespace daisy
   8:../../libdaisy/src/hid/switch.h **** {
   9:../../libdaisy/src/hid/switch.h **** /** 
  10:../../libdaisy/src/hid/switch.h ****     Generic Class for handling momentary/latching switches \n 
  11:../../libdaisy/src/hid/switch.h ****     Inspired/influenced by Mutable Instruments (pichenettes) Switch classes
  12:../../libdaisy/src/hid/switch.h ****     @author Stephen Hensley
  13:../../libdaisy/src/hid/switch.h ****     @date December 2019
  14:../../libdaisy/src/hid/switch.h ****     @ingroup controls
  15:../../libdaisy/src/hid/switch.h **** */
  16:../../libdaisy/src/hid/switch.h **** class Switch
  17:../../libdaisy/src/hid/switch.h **** {
  18:../../libdaisy/src/hid/switch.h ****   public:
  19:../../libdaisy/src/hid/switch.h ****     /** Specifies the expected behavior of the switch */
  20:../../libdaisy/src/hid/switch.h ****     enum Type
  21:../../libdaisy/src/hid/switch.h ****     {
  22:../../libdaisy/src/hid/switch.h ****         TYPE_TOGGLE,    /**< & */
  23:../../libdaisy/src/hid/switch.h ****         TYPE_MOMENTARY, /**< & */
  24:../../libdaisy/src/hid/switch.h ****     };
  25:../../libdaisy/src/hid/switch.h ****     /** Specifies whether the pressed is HIGH or LOW. */
  26:../../libdaisy/src/hid/switch.h ****     enum Polarity
  27:../../libdaisy/src/hid/switch.h ****     {
  28:../../libdaisy/src/hid/switch.h ****         POLARITY_NORMAL,   /**< & */
  29:../../libdaisy/src/hid/switch.h ****         POLARITY_INVERTED, /**< & */
  30:../../libdaisy/src/hid/switch.h ****     };
  31:../../libdaisy/src/hid/switch.h **** 
  32:../../libdaisy/src/hid/switch.h ****     /** Specifies whether to use built-in Pull Up/Down resistors to hold button at a given state wh
  33:../../libdaisy/src/hid/switch.h ****     enum Pull
  34:../../libdaisy/src/hid/switch.h ****     {
  35:../../libdaisy/src/hid/switch.h ****         PULL_UP,   /**< & */
  36:../../libdaisy/src/hid/switch.h ****         PULL_DOWN, /**< & */
  37:../../libdaisy/src/hid/switch.h ****         PULL_NONE, /**< & */
  38:../../libdaisy/src/hid/switch.h ****     };
  39:../../libdaisy/src/hid/switch.h **** 
  40:../../libdaisy/src/hid/switch.h ****     Switch() {}
  41:../../libdaisy/src/hid/switch.h ****     ~Switch() {}
 123              		.loc 9 41 5 view .LVU15
 124              		.loc 9 41 5 is_stmt 0 view .LVU16
 125              	.LBE632:
 126              	.LBE631:
 127              	.LBB633:
 128              	.LBI633:
 129              		.file 10 "../../libdaisy/src/daisy_seed.h"
   1:../../libdaisy/src/daisy_seed.h **** #pragma once
   2:../../libdaisy/src/daisy_seed.h **** #ifndef DSY_SEED_H
   3:../../libdaisy/src/daisy_seed.h **** #define DSY_SEED_H
   4:../../libdaisy/src/daisy_seed.h **** 
   5:../../libdaisy/src/daisy_seed.h **** #include "daisy.h"
ARM GAS  /tmp/ccPAoVZi.s 			page 12


   6:../../libdaisy/src/daisy_seed.h **** 
   7:../../libdaisy/src/daisy_seed.h **** //Uncomment this out if you're still using the rev2 hardware
   8:../../libdaisy/src/daisy_seed.h **** //#define SEED_REV2
   9:../../libdaisy/src/daisy_seed.h **** 
  10:../../libdaisy/src/daisy_seed.h **** namespace daisy
  11:../../libdaisy/src/daisy_seed.h **** {
  12:../../libdaisy/src/daisy_seed.h **** /**
  13:../../libdaisy/src/daisy_seed.h ****    @brief This is the higher-level interface for the Daisy board. \n 
  14:../../libdaisy/src/daisy_seed.h ****     All basic peripheral configuration/initialization is setup here. \n
  15:../../libdaisy/src/daisy_seed.h **** 
  16:../../libdaisy/src/daisy_seed.h ****    @ingroup boards
  17:../../libdaisy/src/daisy_seed.h **** */
  18:../../libdaisy/src/daisy_seed.h **** class DaisySeed
  19:../../libdaisy/src/daisy_seed.h **** {
  20:../../libdaisy/src/daisy_seed.h ****   public:
  21:../../libdaisy/src/daisy_seed.h ****     DaisySeed() {}
  22:../../libdaisy/src/daisy_seed.h ****     ~DaisySeed() {}
 130              		.loc 10 22 5 is_stmt 1 view .LVU17
 131              	.LBB634:
 132              	.LBI634:
 133              		.file 11 "../../libdaisy/src/sys/system.h"
   1:../../libdaisy/src/sys/system.h **** #ifndef DSY_SYSTEM_H
   2:../../libdaisy/src/sys/system.h **** #define DSY_SYSTEM_H
   3:../../libdaisy/src/sys/system.h **** 
   4:../../libdaisy/src/sys/system.h **** #ifndef UNIT_TEST // for unit tests, a dummy implementation is provided below
   5:../../libdaisy/src/sys/system.h **** 
   6:../../libdaisy/src/sys/system.h **** #include <cstdint>
   7:../../libdaisy/src/sys/system.h **** #include "per/tim.h"
   8:../../libdaisy/src/sys/system.h **** 
   9:../../libdaisy/src/sys/system.h **** namespace daisy
  10:../../libdaisy/src/sys/system.h **** {
  11:../../libdaisy/src/sys/system.h **** /** A handle for interacting with the Core System. 
  12:../../libdaisy/src/sys/system.h ****  ** This includes the Clock tree, MPU, global DMA initialization,
  13:../../libdaisy/src/sys/system.h ****  ** cache handling, and any other necessary global initiailzation
  14:../../libdaisy/src/sys/system.h ****  **
  15:../../libdaisy/src/sys/system.h ****  ** @author shensley
  16:../../libdaisy/src/sys/system.h ****  ** @addtogroup system
  17:../../libdaisy/src/sys/system.h ****  */
  18:../../libdaisy/src/sys/system.h **** class System
  19:../../libdaisy/src/sys/system.h **** {
  20:../../libdaisy/src/sys/system.h ****   public:
  21:../../libdaisy/src/sys/system.h ****     /** Contains settings for initializing the System */
  22:../../libdaisy/src/sys/system.h ****     struct Config
  23:../../libdaisy/src/sys/system.h ****     {
  24:../../libdaisy/src/sys/system.h ****         /** Specifies the system clock frequency that feeds APB/AHB clocks, etc. */
  25:../../libdaisy/src/sys/system.h ****         enum class SysClkFreq
  26:../../libdaisy/src/sys/system.h ****         {
  27:../../libdaisy/src/sys/system.h ****             FREQ_400MHZ,
  28:../../libdaisy/src/sys/system.h ****             FREQ_480MHZ,
  29:../../libdaisy/src/sys/system.h ****         };
  30:../../libdaisy/src/sys/system.h **** 
  31:../../libdaisy/src/sys/system.h ****         /** Method to call on the struct to set to defaults
  32:../../libdaisy/src/sys/system.h ****          ** CPU Freq set to 400MHz
  33:../../libdaisy/src/sys/system.h ****          ** Cache Enabled 
  34:../../libdaisy/src/sys/system.h ****          ** */
  35:../../libdaisy/src/sys/system.h ****         void Defaults()
  36:../../libdaisy/src/sys/system.h ****         {
ARM GAS  /tmp/ccPAoVZi.s 			page 13


  37:../../libdaisy/src/sys/system.h ****             cpu_freq   = SysClkFreq::FREQ_400MHZ;
  38:../../libdaisy/src/sys/system.h ****             use_dcache = true;
  39:../../libdaisy/src/sys/system.h ****             use_icache = true;
  40:../../libdaisy/src/sys/system.h ****         }
  41:../../libdaisy/src/sys/system.h **** 
  42:../../libdaisy/src/sys/system.h ****         /** Method to call on the struct to set to boost mode:
  43:../../libdaisy/src/sys/system.h ****          ** CPU Freq set to 480MHz
  44:../../libdaisy/src/sys/system.h ****          ** Cache Enabled 
  45:../../libdaisy/src/sys/system.h ****          ** */
  46:../../libdaisy/src/sys/system.h ****         void Boost()
  47:../../libdaisy/src/sys/system.h ****         {
  48:../../libdaisy/src/sys/system.h ****             cpu_freq   = SysClkFreq::FREQ_480MHZ;
  49:../../libdaisy/src/sys/system.h ****             use_dcache = true;
  50:../../libdaisy/src/sys/system.h ****             use_icache = true;
  51:../../libdaisy/src/sys/system.h ****         }
  52:../../libdaisy/src/sys/system.h **** 
  53:../../libdaisy/src/sys/system.h ****         SysClkFreq cpu_freq;
  54:../../libdaisy/src/sys/system.h ****         bool       use_dcache;
  55:../../libdaisy/src/sys/system.h ****         bool       use_icache;
  56:../../libdaisy/src/sys/system.h ****     };
  57:../../libdaisy/src/sys/system.h **** 
  58:../../libdaisy/src/sys/system.h ****     System() {}
  59:../../libdaisy/src/sys/system.h ****     ~System() {}
 134              		.loc 11 59 5 view .LVU18
 135              		.loc 11 59 5 is_stmt 0 view .LVU19
 136              	.LBE634:
 137              	.LBB635:
 138              	.LBI635:
 139              		.file 12 "../../libdaisy/src/hid/usb.h"
   1:../../libdaisy/src/hid/usb.h **** #pragma once
   2:../../libdaisy/src/hid/usb.h **** #ifndef DSY_HID_USB_H
   3:../../libdaisy/src/hid/usb.h **** #define DSY_HID_USB_H
   4:../../libdaisy/src/hid/usb.h **** #include <stdint.h>
   5:../../libdaisy/src/hid/usb.h **** #include <stdlib.h>
   6:../../libdaisy/src/hid/usb.h **** 
   7:../../libdaisy/src/hid/usb.h **** namespace daisy
   8:../../libdaisy/src/hid/usb.h **** /** @addtogroup externals
   9:../../libdaisy/src/hid/usb.h ****     @{
  10:../../libdaisy/src/hid/usb.h **** */
  11:../../libdaisy/src/hid/usb.h **** 
  12:../../libdaisy/src/hid/usb.h **** {
  13:../../libdaisy/src/hid/usb.h **** /** 
  14:../../libdaisy/src/hid/usb.h ****     @brief Interface for initializing and using the USB Peripherals on the daisy
  15:../../libdaisy/src/hid/usb.h ****     @author Stephen Hensley
  16:../../libdaisy/src/hid/usb.h ****     @date December 2019
  17:../../libdaisy/src/hid/usb.h **** */
  18:../../libdaisy/src/hid/usb.h **** class UsbHandle
  19:../../libdaisy/src/hid/usb.h **** {
  20:../../libdaisy/src/hid/usb.h ****   public:
  21:../../libdaisy/src/hid/usb.h ****     /** Return values for USBHandle Functions */
  22:../../libdaisy/src/hid/usb.h ****     enum class Result
  23:../../libdaisy/src/hid/usb.h ****     {
  24:../../libdaisy/src/hid/usb.h ****         OK,
  25:../../libdaisy/src/hid/usb.h ****         ERR,
  26:../../libdaisy/src/hid/usb.h ****     };
  27:../../libdaisy/src/hid/usb.h **** 
  28:../../libdaisy/src/hid/usb.h ****     /** Specified which of the two USB Peripherals to initialize. */
ARM GAS  /tmp/ccPAoVZi.s 			page 14


  29:../../libdaisy/src/hid/usb.h ****     enum UsbPeriph
  30:../../libdaisy/src/hid/usb.h ****     {
  31:../../libdaisy/src/hid/usb.h ****         FS_INTERNAL, /**< Internal pin */
  32:../../libdaisy/src/hid/usb.h ****         FS_EXTERNAL, /**< FS External D+ pin is Pin 38 (GPIO32). FS External D- pin is Pin 37 (GPIO
  33:../../libdaisy/src/hid/usb.h ****         FS_BOTH,     /**< Both */
  34:../../libdaisy/src/hid/usb.h ****     };
  35:../../libdaisy/src/hid/usb.h **** 
  36:../../libdaisy/src/hid/usb.h **** 
  37:../../libdaisy/src/hid/usb.h ****     /** Function called upon reception of a buffer */
  38:../../libdaisy/src/hid/usb.h ****     typedef void (*ReceiveCallback)(uint8_t* buff, uint32_t* len);
  39:../../libdaisy/src/hid/usb.h **** 
  40:../../libdaisy/src/hid/usb.h ****     UsbHandle() {}
  41:../../libdaisy/src/hid/usb.h **** 
  42:../../libdaisy/src/hid/usb.h ****     ~UsbHandle() {}
 140              		.loc 12 42 5 is_stmt 1 view .LVU20
 141              		.loc 12 42 5 is_stmt 0 view .LVU21
 142              	.LBE635:
 143              	.LBB636:
 144              	.LBI636:
 145              		.file 13 "../../libdaisy/src/per/adc.h"
   1:../../libdaisy/src/per/adc.h **** #pragma once
   2:../../libdaisy/src/per/adc.h **** #ifndef DSY_ADC_H
   3:../../libdaisy/src/per/adc.h **** #define DSY_ADC_H /**< Macro */
   4:../../libdaisy/src/per/adc.h **** #include <stdint.h>
   5:../../libdaisy/src/per/adc.h **** #include <stdlib.h>
   6:../../libdaisy/src/per/adc.h **** #include "daisy_core.h"
   7:../../libdaisy/src/per/adc.h **** #include "per/gpio.h"
   8:../../libdaisy/src/per/adc.h **** 
   9:../../libdaisy/src/per/adc.h **** #define DSY_ADC_MAX_CHANNELS 14 /**< Maximum number of ADC channels */
  10:../../libdaisy/src/per/adc.h **** 
  11:../../libdaisy/src/per/adc.h **** namespace daisy
  12:../../libdaisy/src/per/adc.h **** {
  13:../../libdaisy/src/per/adc.h **** /** @addtogroup analog_digital_conversion
  14:../../libdaisy/src/per/adc.h ****     @{
  15:../../libdaisy/src/per/adc.h **** */
  16:../../libdaisy/src/per/adc.h **** 
  17:../../libdaisy/src/per/adc.h **** /* While there may not be many configuration options here,
  18:../../libdaisy/src/per/adc.h **** using a struct like this allows us to add more configuration
  19:../../libdaisy/src/per/adc.h **** later without breaking existing functionality.
  20:../../libdaisy/src/per/adc.h **** */
  21:../../libdaisy/src/per/adc.h **** 
  22:../../libdaisy/src/per/adc.h **** /** Configuration Structure for a given channel */
  23:../../libdaisy/src/per/adc.h **** struct AdcChannelConfig
  24:../../libdaisy/src/per/adc.h **** {
  25:../../libdaisy/src/per/adc.h ****     /** Which pin to use for multiplexing */
  26:../../libdaisy/src/per/adc.h ****     enum MuxPin
  27:../../libdaisy/src/per/adc.h ****     {
  28:../../libdaisy/src/per/adc.h ****         MUX_SEL_0,    /**< & */
  29:../../libdaisy/src/per/adc.h ****         MUX_SEL_1,    /**< & */
  30:../../libdaisy/src/per/adc.h ****         MUX_SEL_2,    /**< & */
  31:../../libdaisy/src/per/adc.h ****         MUX_SEL_LAST, /**< & */
  32:../../libdaisy/src/per/adc.h ****     };
  33:../../libdaisy/src/per/adc.h **** 
  34:../../libdaisy/src/per/adc.h ****     /** Initializes a single ADC pin as an ADC. 
  35:../../libdaisy/src/per/adc.h ****     \param pin Pin to init.
  36:../../libdaisy/src/per/adc.h ****      */
  37:../../libdaisy/src/per/adc.h ****     void InitSingle(dsy_gpio_pin pin);
ARM GAS  /tmp/ccPAoVZi.s 			page 15


  38:../../libdaisy/src/per/adc.h **** 
  39:../../libdaisy/src/per/adc.h ****     /** 
  40:../../libdaisy/src/per/adc.h ****     Initializes a single ADC pin as a Multiplexed ADC.
  41:../../libdaisy/src/per/adc.h ****     Requires a CD405X Multiplexer connected to the pin.
  42:../../libdaisy/src/per/adc.h ****     You only need to supply the mux pins that are required,
  43:../../libdaisy/src/per/adc.h ****     e.g. a 4052 mux would only require mux_0 and mux_1.
  44:../../libdaisy/src/per/adc.h ****     Internal Callbacks handle the pin addressing.
  45:../../libdaisy/src/per/adc.h ****     \param mux_channels must be 1-8
  46:../../libdaisy/src/per/adc.h ****     \param mux_0 First mux pin
  47:../../libdaisy/src/per/adc.h ****     \param mux_1 Second mux pin
  48:../../libdaisy/src/per/adc.h ****     \param mux_2 Third mux pin
  49:../../libdaisy/src/per/adc.h ****     \param adc_pin &
  50:../../libdaisy/src/per/adc.h ****     */
  51:../../libdaisy/src/per/adc.h ****     void InitMux(dsy_gpio_pin adc_pin,
  52:../../libdaisy/src/per/adc.h ****                  size_t       mux_channels,
  53:../../libdaisy/src/per/adc.h ****                  dsy_gpio_pin mux_0,
  54:../../libdaisy/src/per/adc.h ****                  dsy_gpio_pin mux_1 = {DSY_GPIOX, 0},
  55:../../libdaisy/src/per/adc.h ****                  dsy_gpio_pin mux_2 = {DSY_GPIOX, 0});
  56:../../libdaisy/src/per/adc.h **** 
  57:../../libdaisy/src/per/adc.h ****     dsy_gpio pin_;                   /**< & */
  58:../../libdaisy/src/per/adc.h ****     dsy_gpio mux_pin_[MUX_SEL_LAST]; /**< & */
  59:../../libdaisy/src/per/adc.h ****     uint8_t  mux_channels_;          /**< & */
  60:../../libdaisy/src/per/adc.h **** };
  61:../../libdaisy/src/per/adc.h **** 
  62:../../libdaisy/src/per/adc.h **** /**
  63:../../libdaisy/src/per/adc.h ****    Handler for analog to digital conversion
  64:../../libdaisy/src/per/adc.h **** */
  65:../../libdaisy/src/per/adc.h **** class AdcHandle
  66:../../libdaisy/src/per/adc.h **** {
  67:../../libdaisy/src/per/adc.h ****   public:
  68:../../libdaisy/src/per/adc.h ****     /** Supported oversampling amounts */
  69:../../libdaisy/src/per/adc.h ****     enum OverSampling
  70:../../libdaisy/src/per/adc.h ****     {
  71:../../libdaisy/src/per/adc.h ****         OVS_NONE, /**< & */
  72:../../libdaisy/src/per/adc.h ****         OVS_4,    /**< & */
  73:../../libdaisy/src/per/adc.h ****         OVS_8,    /**< & */
  74:../../libdaisy/src/per/adc.h ****         OVS_16,   /**< & */
  75:../../libdaisy/src/per/adc.h ****         OVS_32,   /**< & */
  76:../../libdaisy/src/per/adc.h ****         OVS_64,   /**< & */
  77:../../libdaisy/src/per/adc.h ****         OVS_128,  /**< & */
  78:../../libdaisy/src/per/adc.h ****         OVS_256,  /**< & */
  79:../../libdaisy/src/per/adc.h ****         OVS_512,  /**< & */
  80:../../libdaisy/src/per/adc.h ****         OVS_1024, /**< & */
  81:../../libdaisy/src/per/adc.h ****         OVS_LAST, /**< & */
  82:../../libdaisy/src/per/adc.h ****     };
  83:../../libdaisy/src/per/adc.h **** 
  84:../../libdaisy/src/per/adc.h ****     AdcHandle() {}
  85:../../libdaisy/src/per/adc.h ****     ~AdcHandle() {}
 146              		.loc 13 85 5 is_stmt 1 view .LVU22
 147              		.loc 13 85 5 is_stmt 0 view .LVU23
 148              	.LBE636:
 149              	.LBB637:
 150              	.LBI637:
 151              		.file 14 "../../libdaisy/src/hid/audio.h"
   1:../../libdaisy/src/hid/audio.h **** #ifndef DSY_AUDIO_H
   2:../../libdaisy/src/hid/audio.h **** #define DSY_AUDIO_H /**< & */
   3:../../libdaisy/src/hid/audio.h **** 
ARM GAS  /tmp/ccPAoVZi.s 			page 16


   4:../../libdaisy/src/hid/audio.h **** #include "per/sai.h"
   5:../../libdaisy/src/hid/audio.h **** 
   6:../../libdaisy/src/hid/audio.h **** namespace daisy
   7:../../libdaisy/src/hid/audio.h **** {
   8:../../libdaisy/src/hid/audio.h **** class AudioHandle
   9:../../libdaisy/src/hid/audio.h **** {
  10:../../libdaisy/src/hid/audio.h ****   public:
  11:../../libdaisy/src/hid/audio.h ****     /** Manually configurable details about the Audio Engine */
  12:../../libdaisy/src/hid/audio.h ****     /** TODO: Figure out how to get samplerate in here. */
  13:../../libdaisy/src/hid/audio.h ****     struct Config
  14:../../libdaisy/src/hid/audio.h ****     {
  15:../../libdaisy/src/hid/audio.h ****         size_t                        blocksize;
  16:../../libdaisy/src/hid/audio.h ****         SaiHandle::Config::SampleRate samplerate;
  17:../../libdaisy/src/hid/audio.h ****         float                         postgain;
  18:../../libdaisy/src/hid/audio.h ****     };
  19:../../libdaisy/src/hid/audio.h **** 
  20:../../libdaisy/src/hid/audio.h ****     enum class Result
  21:../../libdaisy/src/hid/audio.h ****     {
  22:../../libdaisy/src/hid/audio.h ****         OK,
  23:../../libdaisy/src/hid/audio.h ****         ERR,
  24:../../libdaisy/src/hid/audio.h ****     };
  25:../../libdaisy/src/hid/audio.h **** 
  26:../../libdaisy/src/hid/audio.h ****     /** Non-Interleaving input buffer
  27:../../libdaisy/src/hid/audio.h ****      * Buffer arranged by float[chn][sample] 
  28:../../libdaisy/src/hid/audio.h ****      * const so that the user can't modify the input
  29:../../libdaisy/src/hid/audio.h ****     */
  30:../../libdaisy/src/hid/audio.h ****     typedef const float* const* InputBuffer;
  31:../../libdaisy/src/hid/audio.h **** 
  32:../../libdaisy/src/hid/audio.h ****     /** Non-Interleaving output buffer
  33:../../libdaisy/src/hid/audio.h ****      * Arranged by float[chn][sample] 
  34:../../libdaisy/src/hid/audio.h ****     */
  35:../../libdaisy/src/hid/audio.h ****     typedef float** OutputBuffer;
  36:../../libdaisy/src/hid/audio.h **** 
  37:../../libdaisy/src/hid/audio.h ****     /** Type for a Non-Interleaving audio callback 
  38:../../libdaisy/src/hid/audio.h ****    * Non-Interleaving audio callbacks in daisy will be of this type
  39:../../libdaisy/src/hid/audio.h ****   */
  40:../../libdaisy/src/hid/audio.h ****     typedef void (*AudioCallback)(InputBuffer  in,
  41:../../libdaisy/src/hid/audio.h ****                                   OutputBuffer out,
  42:../../libdaisy/src/hid/audio.h ****                                   size_t       size);
  43:../../libdaisy/src/hid/audio.h **** 
  44:../../libdaisy/src/hid/audio.h ****     /** Interleaving Input buffer
  45:../../libdaisy/src/hid/audio.h ****      ** audio is prepared as { L0, R0, L1, R1, . . . LN, RN }]
  46:../../libdaisy/src/hid/audio.h ****      ** this is const, as the user shouldn't modify it
  47:../../libdaisy/src/hid/audio.h ****     */
  48:../../libdaisy/src/hid/audio.h ****     typedef const float* InterleavingInputBuffer;
  49:../../libdaisy/src/hid/audio.h **** 
  50:../../libdaisy/src/hid/audio.h ****     /** Interleaving Output buffer 
  51:../../libdaisy/src/hid/audio.h ****      ** audio is prepared as { L0, R0, L1, R1, . . . LN, RN }
  52:../../libdaisy/src/hid/audio.h ****     */
  53:../../libdaisy/src/hid/audio.h ****     typedef float* InterleavingOutputBuffer;
  54:../../libdaisy/src/hid/audio.h **** 
  55:../../libdaisy/src/hid/audio.h ****     /** Interleaving Audio Callback 
  56:../../libdaisy/src/hid/audio.h ****    * Interleaving audio callbacks in daisy must be of this type
  57:../../libdaisy/src/hid/audio.h ****   */
  58:../../libdaisy/src/hid/audio.h ****     typedef void (*InterleavingAudioCallback)(InterleavingInputBuffer  in,
  59:../../libdaisy/src/hid/audio.h ****                                               InterleavingOutputBuffer out,
  60:../../libdaisy/src/hid/audio.h ****                                               size_t                   size);
ARM GAS  /tmp/ccPAoVZi.s 			page 17


  61:../../libdaisy/src/hid/audio.h **** 
  62:../../libdaisy/src/hid/audio.h ****     AudioHandle() : pimpl_(nullptr) {}
  63:../../libdaisy/src/hid/audio.h ****     ~AudioHandle() {}
 152              		.loc 14 63 5 is_stmt 1 view .LVU24
 153              		.loc 14 63 5 is_stmt 0 view .LVU25
 154              	.LBE637:
 155              	.LBE633:
 156              		.loc 4 41 20 view .LVU26
 157 0000 7047     		bx	lr
 158              		.cfi_endproc
 159              	.LFE4230:
 161              		.weak	_ZN5daisy10DaisyPatchD1Ev
 162              		.thumb_set _ZN5daisy10DaisyPatchD1Ev,_ZN5daisy10DaisyPatchD2Ev
 163 0002 00BF     		.section	.text._ZN5daisy11OledDisplayINS_13SSD130xDriverILj128ELj64ENS_24SSD130x4WireSpiTransportE
 164              		.align	1
 165              		.p2align 2,,3
 166              		.weak	_ZN5daisy11OledDisplayINS_13SSD130xDriverILj128ELj64ENS_24SSD130x4WireSpiTransportEEEED2Ev
 167              		.syntax unified
 168              		.thumb
 169              		.thumb_func
 170              		.fpu fpv5-d16
 172              	_ZN5daisy11OledDisplayINS_13SSD130xDriverILj128ELj64ENS_24SSD130x4WireSpiTransportEEEED2Ev:
 173              	.LVL3:
 174              	.LFB4549:
 175              		.loc 5 17 13 is_stmt 1 view -0
 176              		.cfi_startproc
 177              		@ args = 0, pretend = 0, frame = 0
 178              		@ frame_needed = 0, uses_anonymous_args = 0
 179              		@ link register save eliminated.
 180              	.LBB638:
 181              	.LBI638:
 182              		.loc 6 219 13 view .LVU28
 183              	.LBB639:
 184              	.LBI639:
  23:../../libdaisy/src/hid/disp/display.h **** 
 185              		.loc 6 23 13 view .LVU29
  23:../../libdaisy/src/hid/disp/display.h **** 
 186              		.loc 6 23 13 is_stmt 0 view .LVU30
 187              	.LBE639:
 188              	.LBE638:
 189              		.loc 5 17 29 view .LVU31
 190 0000 7047     		bx	lr
 191              		.cfi_endproc
 192              	.LFE4549:
 194              		.weak	_ZN5daisy11OledDisplayINS_13SSD130xDriverILj128ELj64ENS_24SSD130x4WireSpiTransportEEEED1Ev
 195              		.thumb_set _ZN5daisy11OledDisplayINS_13SSD130xDriverILj128ELj64ENS_24SSD130x4WireSpiTransportEEEED
 196 0002 00BF     		.section	.text._ZNK5daisy11OledDisplayINS_13SSD130xDriverILj128ELj64ENS_24SSD130x4WireSpiTransport
 197              		.align	1
 198              		.p2align 2,,3
 199              		.weak	_ZNK5daisy11OledDisplayINS_13SSD130xDriverILj128ELj64ENS_24SSD130x4WireSpiTransportEEEE6Heig
 200              		.syntax unified
 201              		.thumb
 202              		.thumb_func
 203              		.fpu fpv5-d16
 205              	_ZNK5daisy11OledDisplayINS_13SSD130xDriverILj128ELj64ENS_24SSD130x4WireSpiTransportEEEE6HeightEv:
 206              	.LVL4:
 207              	.LFB4822:
ARM GAS  /tmp/ccPAoVZi.s 			page 18


  18:../../libdaisy/src/hid/disp/oled_display.h **** 
  19:../../libdaisy/src/hid/disp/oled_display.h ****     struct Config
  20:../../libdaisy/src/hid/disp/oled_display.h ****     {
  21:../../libdaisy/src/hid/disp/oled_display.h ****         typename DisplayDriver::Config driver_config;
  22:../../libdaisy/src/hid/disp/oled_display.h ****     };
  23:../../libdaisy/src/hid/disp/oled_display.h **** 
  24:../../libdaisy/src/hid/disp/oled_display.h ****     void Init(Config config) { driver_.Init(config.driver_config); }
  25:../../libdaisy/src/hid/disp/oled_display.h **** 
  26:../../libdaisy/src/hid/disp/oled_display.h ****     uint16_t Height() const override { return driver_.Height(); }
 208              		.loc 5 26 14 is_stmt 1 view -0
 209              		.cfi_startproc
 210              		@ args = 0, pretend = 0, frame = 0
 211              		@ frame_needed = 0, uses_anonymous_args = 0
 212              		@ link register save eliminated.
 213              		.loc 5 26 65 is_stmt 0 view .LVU33
 214 0000 4020     		movs	r0, #64
 215              	.LVL5:
 216              		.loc 5 26 65 view .LVU34
 217 0002 7047     		bx	lr
 218              		.cfi_endproc
 219              	.LFE4822:
 221              		.section	.text._ZNK5daisy11OledDisplayINS_13SSD130xDriverILj128ELj64ENS_24SSD130x4WireSpiTransport
 222              		.align	1
 223              		.p2align 2,,3
 224              		.weak	_ZNK5daisy11OledDisplayINS_13SSD130xDriverILj128ELj64ENS_24SSD130x4WireSpiTransportEEEE5Widt
 225              		.syntax unified
 226              		.thumb
 227              		.thumb_func
 228              		.fpu fpv5-d16
 230              	_ZNK5daisy11OledDisplayINS_13SSD130xDriverILj128ELj64ENS_24SSD130x4WireSpiTransportEEEE5WidthEv:
 231              	.LVL6:
 232              	.LFB4823:
  27:../../libdaisy/src/hid/disp/oled_display.h ****     uint16_t Width() const override { return driver_.Width(); }
 233              		.loc 5 27 14 is_stmt 1 view -0
 234              		.cfi_startproc
 235              		@ args = 0, pretend = 0, frame = 0
 236              		@ frame_needed = 0, uses_anonymous_args = 0
 237              		@ link register save eliminated.
 238              		.loc 5 27 63 is_stmt 0 view .LVU36
 239 0000 8020     		movs	r0, #128
 240              	.LVL7:
 241              		.loc 5 27 63 view .LVU37
 242 0002 7047     		bx	lr
 243              		.cfi_endproc
 244              	.LFE4823:
 246              		.section	.text._ZN5daisy11OledDisplayINS_13SSD130xDriverILj128ELj64ENS_24SSD130x4WireSpiTransportE
 247              		.align	1
 248              		.p2align 2,,3
 249              		.weak	_ZN5daisy11OledDisplayINS_13SSD130xDriverILj128ELj64ENS_24SSD130x4WireSpiTransportEEEE4FillE
 250              		.syntax unified
 251              		.thumb
 252              		.thumb_func
 253              		.fpu fpv5-d16
 255              	_ZN5daisy11OledDisplayINS_13SSD130xDriverILj128ELj64ENS_24SSD130x4WireSpiTransportEEEE4FillEb:
 256              	.LVL8:
 257              	.LFB4824:
  28:../../libdaisy/src/hid/disp/oled_display.h **** 
ARM GAS  /tmp/ccPAoVZi.s 			page 19


  29:../../libdaisy/src/hid/disp/oled_display.h ****     /** 
  30:../../libdaisy/src/hid/disp/oled_display.h ****     Fills the entire display with either on/off.
  31:../../libdaisy/src/hid/disp/oled_display.h ****     \param on Sets on or off.
  32:../../libdaisy/src/hid/disp/oled_display.h ****     */
  33:../../libdaisy/src/hid/disp/oled_display.h ****     void Fill(bool on) override { driver_.Fill(on); }
 258              		.loc 5 33 10 is_stmt 1 view -0
 259              		.cfi_startproc
 260              		@ args = 0, pretend = 0, frame = 0
 261              		@ frame_needed = 0, uses_anonymous_args = 0
 262              		@ link register save eliminated.
 263              	.LBB640:
 264              	.LBI640:
 265              		.file 15 "../../libdaisy/src/dev/oled_ssd130x.h"
   1:../../libdaisy/src/dev/oled_ssd130x.h **** #pragma once
   2:../../libdaisy/src/dev/oled_ssd130x.h **** #ifndef SA_OLED_SSD130X_H
   3:../../libdaisy/src/dev/oled_ssd130x.h **** #define SA_OLED_SSD130X_H /**< & */
   4:../../libdaisy/src/dev/oled_ssd130x.h **** 
   5:../../libdaisy/src/dev/oled_ssd130x.h **** #include "per/i2c.h"
   6:../../libdaisy/src/dev/oled_ssd130x.h **** #include "per/spi.h"
   7:../../libdaisy/src/dev/oled_ssd130x.h **** #include "per/gpio.h"
   8:../../libdaisy/src/dev/oled_ssd130x.h **** #include "sys/system.h"
   9:../../libdaisy/src/dev/oled_ssd130x.h **** 
  10:../../libdaisy/src/dev/oled_ssd130x.h **** namespace daisy
  11:../../libdaisy/src/dev/oled_ssd130x.h **** {
  12:../../libdaisy/src/dev/oled_ssd130x.h **** /**
  13:../../libdaisy/src/dev/oled_ssd130x.h ****  * I2C Transport for SSD1306 / SSD1309 OLED display devices
  14:../../libdaisy/src/dev/oled_ssd130x.h ****  */
  15:../../libdaisy/src/dev/oled_ssd130x.h **** class SSD130xI2CTransport
  16:../../libdaisy/src/dev/oled_ssd130x.h **** {
  17:../../libdaisy/src/dev/oled_ssd130x.h ****   public:
  18:../../libdaisy/src/dev/oled_ssd130x.h ****     struct Config
  19:../../libdaisy/src/dev/oled_ssd130x.h ****     {
  20:../../libdaisy/src/dev/oled_ssd130x.h ****         I2CHandle::Config i2c_config;
  21:../../libdaisy/src/dev/oled_ssd130x.h ****         uint8_t           i2c_address;
  22:../../libdaisy/src/dev/oled_ssd130x.h ****         void              Defaults()
  23:../../libdaisy/src/dev/oled_ssd130x.h ****         {
  24:../../libdaisy/src/dev/oled_ssd130x.h ****             i2c_config.periph         = I2CHandle::Config::Peripheral::I2C_1;
  25:../../libdaisy/src/dev/oled_ssd130x.h ****             i2c_config.speed          = I2CHandle::Config::Speed::I2C_1MHZ;
  26:../../libdaisy/src/dev/oled_ssd130x.h ****             i2c_config.mode           = I2CHandle::Config::Mode::I2C_MASTER;
  27:../../libdaisy/src/dev/oled_ssd130x.h ****             i2c_config.pin_config.scl = {DSY_GPIOB, 8};
  28:../../libdaisy/src/dev/oled_ssd130x.h ****             i2c_config.pin_config.sda = {DSY_GPIOB, 9};
  29:../../libdaisy/src/dev/oled_ssd130x.h ****             i2c_address               = 0x3C;
  30:../../libdaisy/src/dev/oled_ssd130x.h ****         }
  31:../../libdaisy/src/dev/oled_ssd130x.h ****     };
  32:../../libdaisy/src/dev/oled_ssd130x.h ****     void Init(const Config& config)
  33:../../libdaisy/src/dev/oled_ssd130x.h ****     {
  34:../../libdaisy/src/dev/oled_ssd130x.h ****         i2c_address_ = config.i2c_address;
  35:../../libdaisy/src/dev/oled_ssd130x.h ****         i2c_.Init(config.i2c_config);
  36:../../libdaisy/src/dev/oled_ssd130x.h ****     };
  37:../../libdaisy/src/dev/oled_ssd130x.h ****     void SendCommand(uint8_t cmd)
  38:../../libdaisy/src/dev/oled_ssd130x.h ****     {
  39:../../libdaisy/src/dev/oled_ssd130x.h ****         uint8_t buf[2] = {0X00, cmd};
  40:../../libdaisy/src/dev/oled_ssd130x.h ****         i2c_.TransmitBlocking(i2c_address_, buf, 2, 1000);
  41:../../libdaisy/src/dev/oled_ssd130x.h ****     };
  42:../../libdaisy/src/dev/oled_ssd130x.h **** 
  43:../../libdaisy/src/dev/oled_ssd130x.h ****     void SendData(uint8_t* buff, size_t size)
  44:../../libdaisy/src/dev/oled_ssd130x.h ****     {
ARM GAS  /tmp/ccPAoVZi.s 			page 20


  45:../../libdaisy/src/dev/oled_ssd130x.h ****         for(size_t i = 0; i < size; i++)
  46:../../libdaisy/src/dev/oled_ssd130x.h ****         {
  47:../../libdaisy/src/dev/oled_ssd130x.h ****             uint8_t buf[2] = {0X40, buff[i]};
  48:../../libdaisy/src/dev/oled_ssd130x.h ****             i2c_.TransmitBlocking(i2c_address_, buf, 2, 1000);
  49:../../libdaisy/src/dev/oled_ssd130x.h ****         }
  50:../../libdaisy/src/dev/oled_ssd130x.h ****     };
  51:../../libdaisy/src/dev/oled_ssd130x.h **** 
  52:../../libdaisy/src/dev/oled_ssd130x.h ****   private:
  53:../../libdaisy/src/dev/oled_ssd130x.h ****     daisy::I2CHandle i2c_;
  54:../../libdaisy/src/dev/oled_ssd130x.h ****     uint8_t          i2c_address_;
  55:../../libdaisy/src/dev/oled_ssd130x.h **** };
  56:../../libdaisy/src/dev/oled_ssd130x.h **** 
  57:../../libdaisy/src/dev/oled_ssd130x.h **** /**
  58:../../libdaisy/src/dev/oled_ssd130x.h ****  * 4 Wire SPI Transport for SSD1306 / SSD1309 OLED display devices
  59:../../libdaisy/src/dev/oled_ssd130x.h ****  */
  60:../../libdaisy/src/dev/oled_ssd130x.h **** class SSD130x4WireSpiTransport
  61:../../libdaisy/src/dev/oled_ssd130x.h **** {
  62:../../libdaisy/src/dev/oled_ssd130x.h ****   public:
  63:../../libdaisy/src/dev/oled_ssd130x.h ****     struct Config
  64:../../libdaisy/src/dev/oled_ssd130x.h ****     {
  65:../../libdaisy/src/dev/oled_ssd130x.h ****         struct
  66:../../libdaisy/src/dev/oled_ssd130x.h ****         {
  67:../../libdaisy/src/dev/oled_ssd130x.h ****             dsy_gpio_pin dc;    /**< & */
  68:../../libdaisy/src/dev/oled_ssd130x.h ****             dsy_gpio_pin reset; /**< & */
  69:../../libdaisy/src/dev/oled_ssd130x.h ****         } pin_config;
  70:../../libdaisy/src/dev/oled_ssd130x.h ****         void Defaults()
  71:../../libdaisy/src/dev/oled_ssd130x.h ****         {
  72:../../libdaisy/src/dev/oled_ssd130x.h ****             pin_config.dc    = {DSY_GPIOB, 4};
  73:../../libdaisy/src/dev/oled_ssd130x.h ****             pin_config.reset = {DSY_GPIOB, 15};
  74:../../libdaisy/src/dev/oled_ssd130x.h ****         }
  75:../../libdaisy/src/dev/oled_ssd130x.h ****     };
  76:../../libdaisy/src/dev/oled_ssd130x.h ****     void Init(const Config& config)
  77:../../libdaisy/src/dev/oled_ssd130x.h ****     {
  78:../../libdaisy/src/dev/oled_ssd130x.h ****         // Initialize both GPIO
  79:../../libdaisy/src/dev/oled_ssd130x.h ****         pin_dc_.mode = DSY_GPIO_MODE_OUTPUT_PP;
  80:../../libdaisy/src/dev/oled_ssd130x.h ****         pin_dc_.pin  = config.pin_config.dc;
  81:../../libdaisy/src/dev/oled_ssd130x.h ****         dsy_gpio_init(&pin_dc_);
  82:../../libdaisy/src/dev/oled_ssd130x.h ****         pin_reset_.mode = DSY_GPIO_MODE_OUTPUT_PP;
  83:../../libdaisy/src/dev/oled_ssd130x.h ****         pin_reset_.pin  = config.pin_config.reset;
  84:../../libdaisy/src/dev/oled_ssd130x.h ****         dsy_gpio_init(&pin_reset_);
  85:../../libdaisy/src/dev/oled_ssd130x.h ****         // Initialize SPI
  86:../../libdaisy/src/dev/oled_ssd130x.h ****         SpiHandle::Config spi_config;
  87:../../libdaisy/src/dev/oled_ssd130x.h ****         spi_config.periph    = SpiHandle::Config::Peripheral::SPI_1;
  88:../../libdaisy/src/dev/oled_ssd130x.h ****         spi_config.mode      = SpiHandle::Config::Mode::MASTER;
  89:../../libdaisy/src/dev/oled_ssd130x.h ****         spi_config.direction = SpiHandle::Config::Direction::TWO_LINES_TX_ONLY;
  90:../../libdaisy/src/dev/oled_ssd130x.h ****         spi_config.datasize  = 8;
  91:../../libdaisy/src/dev/oled_ssd130x.h ****         spi_config.clock_polarity = SpiHandle::Config::ClockPolarity::LOW;
  92:../../libdaisy/src/dev/oled_ssd130x.h ****         spi_config.clock_phase    = SpiHandle::Config::ClockPhase::ONE_EDGE;
  93:../../libdaisy/src/dev/oled_ssd130x.h ****         spi_config.nss            = SpiHandle::Config::NSS::HARD_OUTPUT;
  94:../../libdaisy/src/dev/oled_ssd130x.h ****         spi_config.baud_prescaler = SpiHandle::Config::BaudPrescaler::PS_8;
  95:../../libdaisy/src/dev/oled_ssd130x.h **** 
  96:../../libdaisy/src/dev/oled_ssd130x.h ****         spi_config.pin_config.sclk = {DSY_GPIOG, 11};
  97:../../libdaisy/src/dev/oled_ssd130x.h ****         spi_config.pin_config.miso = {DSY_GPIOX, 0};
  98:../../libdaisy/src/dev/oled_ssd130x.h ****         spi_config.pin_config.mosi = {DSY_GPIOB, 5};
  99:../../libdaisy/src/dev/oled_ssd130x.h ****         spi_config.pin_config.nss  = {DSY_GPIOG, 10};
 100:../../libdaisy/src/dev/oled_ssd130x.h **** 
 101:../../libdaisy/src/dev/oled_ssd130x.h ****         spi_.Init(spi_config);
ARM GAS  /tmp/ccPAoVZi.s 			page 21


 102:../../libdaisy/src/dev/oled_ssd130x.h **** 
 103:../../libdaisy/src/dev/oled_ssd130x.h ****         // Reset and Configure OLED.
 104:../../libdaisy/src/dev/oled_ssd130x.h ****         dsy_gpio_write(&pin_reset_, 0);
 105:../../libdaisy/src/dev/oled_ssd130x.h ****         System::Delay(10);
 106:../../libdaisy/src/dev/oled_ssd130x.h ****         dsy_gpio_write(&pin_reset_, 1);
 107:../../libdaisy/src/dev/oled_ssd130x.h ****         System::Delay(10);
 108:../../libdaisy/src/dev/oled_ssd130x.h ****     };
 109:../../libdaisy/src/dev/oled_ssd130x.h ****     void SendCommand(uint8_t cmd)
 110:../../libdaisy/src/dev/oled_ssd130x.h ****     {
 111:../../libdaisy/src/dev/oled_ssd130x.h ****         dsy_gpio_write(&pin_dc_, 0);
 112:../../libdaisy/src/dev/oled_ssd130x.h ****         spi_.BlockingTransmit(&cmd, 1);
 113:../../libdaisy/src/dev/oled_ssd130x.h ****     };
 114:../../libdaisy/src/dev/oled_ssd130x.h **** 
 115:../../libdaisy/src/dev/oled_ssd130x.h ****     void SendData(uint8_t* buff, size_t size)
 116:../../libdaisy/src/dev/oled_ssd130x.h ****     {
 117:../../libdaisy/src/dev/oled_ssd130x.h ****         dsy_gpio_write(&pin_dc_, 1);
 118:../../libdaisy/src/dev/oled_ssd130x.h ****         spi_.BlockingTransmit(buff, size);
 119:../../libdaisy/src/dev/oled_ssd130x.h ****     };
 120:../../libdaisy/src/dev/oled_ssd130x.h **** 
 121:../../libdaisy/src/dev/oled_ssd130x.h ****   private:
 122:../../libdaisy/src/dev/oled_ssd130x.h ****     SpiHandle spi_;
 123:../../libdaisy/src/dev/oled_ssd130x.h ****     dsy_gpio  pin_reset_;
 124:../../libdaisy/src/dev/oled_ssd130x.h ****     dsy_gpio  pin_dc_;
 125:../../libdaisy/src/dev/oled_ssd130x.h **** };
 126:../../libdaisy/src/dev/oled_ssd130x.h **** 
 127:../../libdaisy/src/dev/oled_ssd130x.h **** 
 128:../../libdaisy/src/dev/oled_ssd130x.h **** /**
 129:../../libdaisy/src/dev/oled_ssd130x.h ****  * A driver implementation for the SSD1306/SSD1309
 130:../../libdaisy/src/dev/oled_ssd130x.h ****  */
 131:../../libdaisy/src/dev/oled_ssd130x.h **** template <size_t width, size_t height, typename Transport>
 132:../../libdaisy/src/dev/oled_ssd130x.h **** class SSD130xDriver
 133:../../libdaisy/src/dev/oled_ssd130x.h **** {
 134:../../libdaisy/src/dev/oled_ssd130x.h ****   public:
 135:../../libdaisy/src/dev/oled_ssd130x.h ****     struct Config
 136:../../libdaisy/src/dev/oled_ssd130x.h ****     {
 137:../../libdaisy/src/dev/oled_ssd130x.h ****         typename Transport::Config transport_config;
 138:../../libdaisy/src/dev/oled_ssd130x.h ****     };
 139:../../libdaisy/src/dev/oled_ssd130x.h **** 
 140:../../libdaisy/src/dev/oled_ssd130x.h ****     void Init(Config config)
 141:../../libdaisy/src/dev/oled_ssd130x.h ****     {
 142:../../libdaisy/src/dev/oled_ssd130x.h ****         transport_.Init(config.transport_config);
 143:../../libdaisy/src/dev/oled_ssd130x.h **** 
 144:../../libdaisy/src/dev/oled_ssd130x.h ****         // Init routine...
 145:../../libdaisy/src/dev/oled_ssd130x.h **** 
 146:../../libdaisy/src/dev/oled_ssd130x.h ****         // Display Off
 147:../../libdaisy/src/dev/oled_ssd130x.h ****         transport_.SendCommand(0xaE);
 148:../../libdaisy/src/dev/oled_ssd130x.h ****         // Dimension dependent commands...
 149:../../libdaisy/src/dev/oled_ssd130x.h ****         switch(height)
 150:../../libdaisy/src/dev/oled_ssd130x.h ****         {
 151:../../libdaisy/src/dev/oled_ssd130x.h ****             case 16:
 152:../../libdaisy/src/dev/oled_ssd130x.h ****                 // Display Clock Divide Ratio
 153:../../libdaisy/src/dev/oled_ssd130x.h ****                 transport_.SendCommand(0xD5);
 154:../../libdaisy/src/dev/oled_ssd130x.h ****                 transport_.SendCommand(0x60);
 155:../../libdaisy/src/dev/oled_ssd130x.h ****                 // Multiplex Ratio
 156:../../libdaisy/src/dev/oled_ssd130x.h ****                 transport_.SendCommand(0xA8);
 157:../../libdaisy/src/dev/oled_ssd130x.h ****                 transport_.SendCommand(0x0F);
 158:../../libdaisy/src/dev/oled_ssd130x.h ****                 // COM Pins
ARM GAS  /tmp/ccPAoVZi.s 			page 22


 159:../../libdaisy/src/dev/oled_ssd130x.h ****                 transport_.SendCommand(0xDA);
 160:../../libdaisy/src/dev/oled_ssd130x.h ****                 transport_.SendCommand(0x02);
 161:../../libdaisy/src/dev/oled_ssd130x.h ****                 break;
 162:../../libdaisy/src/dev/oled_ssd130x.h ****             case 32:
 163:../../libdaisy/src/dev/oled_ssd130x.h ****                 // Display Clock Divide Ratio
 164:../../libdaisy/src/dev/oled_ssd130x.h ****                 transport_.SendCommand(0xD5);
 165:../../libdaisy/src/dev/oled_ssd130x.h ****                 transport_.SendCommand(0x80);
 166:../../libdaisy/src/dev/oled_ssd130x.h ****                 // Multiplex Ratio
 167:../../libdaisy/src/dev/oled_ssd130x.h ****                 transport_.SendCommand(0xA8);
 168:../../libdaisy/src/dev/oled_ssd130x.h ****                 transport_.SendCommand(0x1F);
 169:../../libdaisy/src/dev/oled_ssd130x.h ****                 // COM Pins
 170:../../libdaisy/src/dev/oled_ssd130x.h ****                 transport_.SendCommand(0xDA);
 171:../../libdaisy/src/dev/oled_ssd130x.h ****                 if(width == 64)
 172:../../libdaisy/src/dev/oled_ssd130x.h ****                 {
 173:../../libdaisy/src/dev/oled_ssd130x.h ****                     transport_.SendCommand(0x12);
 174:../../libdaisy/src/dev/oled_ssd130x.h ****                 }
 175:../../libdaisy/src/dev/oled_ssd130x.h ****                 else
 176:../../libdaisy/src/dev/oled_ssd130x.h ****                 {
 177:../../libdaisy/src/dev/oled_ssd130x.h ****                     transport_.SendCommand(0x02);
 178:../../libdaisy/src/dev/oled_ssd130x.h ****                 }
 179:../../libdaisy/src/dev/oled_ssd130x.h **** 
 180:../../libdaisy/src/dev/oled_ssd130x.h ****                 break;
 181:../../libdaisy/src/dev/oled_ssd130x.h ****             case 48:
 182:../../libdaisy/src/dev/oled_ssd130x.h ****                 // Display Clock Divide Ratio
 183:../../libdaisy/src/dev/oled_ssd130x.h ****                 transport_.SendCommand(0xD5);
 184:../../libdaisy/src/dev/oled_ssd130x.h ****                 transport_.SendCommand(0x80);
 185:../../libdaisy/src/dev/oled_ssd130x.h ****                 // Multiplex Ratio
 186:../../libdaisy/src/dev/oled_ssd130x.h ****                 transport_.SendCommand(0xA8);
 187:../../libdaisy/src/dev/oled_ssd130x.h ****                 transport_.SendCommand(0x2F);
 188:../../libdaisy/src/dev/oled_ssd130x.h ****                 // COM Pins
 189:../../libdaisy/src/dev/oled_ssd130x.h ****                 transport_.SendCommand(0xDA);
 190:../../libdaisy/src/dev/oled_ssd130x.h ****                 transport_.SendCommand(0x12);
 191:../../libdaisy/src/dev/oled_ssd130x.h ****                 break;
 192:../../libdaisy/src/dev/oled_ssd130x.h ****             default: // 128
 193:../../libdaisy/src/dev/oled_ssd130x.h ****                 // Display Clock Divide Ratio
 194:../../libdaisy/src/dev/oled_ssd130x.h ****                 transport_.SendCommand(0xD5);
 195:../../libdaisy/src/dev/oled_ssd130x.h ****                 transport_.SendCommand(0x80);
 196:../../libdaisy/src/dev/oled_ssd130x.h ****                 // Multiplex Ratio
 197:../../libdaisy/src/dev/oled_ssd130x.h ****                 transport_.SendCommand(0xA8);
 198:../../libdaisy/src/dev/oled_ssd130x.h ****                 transport_.SendCommand(0x3F);
 199:../../libdaisy/src/dev/oled_ssd130x.h ****                 // COM Pins
 200:../../libdaisy/src/dev/oled_ssd130x.h ****                 transport_.SendCommand(0xDA);
 201:../../libdaisy/src/dev/oled_ssd130x.h ****                 transport_.SendCommand(0x12);
 202:../../libdaisy/src/dev/oled_ssd130x.h ****                 break;
 203:../../libdaisy/src/dev/oled_ssd130x.h ****         }
 204:../../libdaisy/src/dev/oled_ssd130x.h **** 
 205:../../libdaisy/src/dev/oled_ssd130x.h ****         // Display Offset
 206:../../libdaisy/src/dev/oled_ssd130x.h ****         transport_.SendCommand(0xD3);
 207:../../libdaisy/src/dev/oled_ssd130x.h ****         transport_.SendCommand(0x00);
 208:../../libdaisy/src/dev/oled_ssd130x.h ****         // Start Line Address
 209:../../libdaisy/src/dev/oled_ssd130x.h ****         transport_.SendCommand(0x40);
 210:../../libdaisy/src/dev/oled_ssd130x.h ****         // Normal Display
 211:../../libdaisy/src/dev/oled_ssd130x.h ****         transport_.SendCommand(0xA6);
 212:../../libdaisy/src/dev/oled_ssd130x.h ****         // All On Resume
 213:../../libdaisy/src/dev/oled_ssd130x.h ****         transport_.SendCommand(0xA4);
 214:../../libdaisy/src/dev/oled_ssd130x.h ****         // Charge Pump
 215:../../libdaisy/src/dev/oled_ssd130x.h ****         transport_.SendCommand(0x8D);
ARM GAS  /tmp/ccPAoVZi.s 			page 23


 216:../../libdaisy/src/dev/oled_ssd130x.h ****         transport_.SendCommand(0x14);
 217:../../libdaisy/src/dev/oled_ssd130x.h ****         // Set Segment Remap
 218:../../libdaisy/src/dev/oled_ssd130x.h ****         transport_.SendCommand(0xA1);
 219:../../libdaisy/src/dev/oled_ssd130x.h ****         // COM Output Scan Direction
 220:../../libdaisy/src/dev/oled_ssd130x.h ****         transport_.SendCommand(0xC8);
 221:../../libdaisy/src/dev/oled_ssd130x.h ****         // Contrast Control
 222:../../libdaisy/src/dev/oled_ssd130x.h ****         transport_.SendCommand(0x81);
 223:../../libdaisy/src/dev/oled_ssd130x.h ****         transport_.SendCommand(0x8F);
 224:../../libdaisy/src/dev/oled_ssd130x.h ****         // Pre Charge
 225:../../libdaisy/src/dev/oled_ssd130x.h ****         transport_.SendCommand(0xD9);
 226:../../libdaisy/src/dev/oled_ssd130x.h ****         transport_.SendCommand(0x25);
 227:../../libdaisy/src/dev/oled_ssd130x.h ****         // VCOM Detect
 228:../../libdaisy/src/dev/oled_ssd130x.h ****         transport_.SendCommand(0xDB);
 229:../../libdaisy/src/dev/oled_ssd130x.h ****         transport_.SendCommand(0x34);
 230:../../libdaisy/src/dev/oled_ssd130x.h **** 
 231:../../libdaisy/src/dev/oled_ssd130x.h **** 
 232:../../libdaisy/src/dev/oled_ssd130x.h ****         // Display On
 233:../../libdaisy/src/dev/oled_ssd130x.h ****         transport_.SendCommand(0xAF); //--turn on oled panel
 234:../../libdaisy/src/dev/oled_ssd130x.h ****     };
 235:../../libdaisy/src/dev/oled_ssd130x.h **** 
 236:../../libdaisy/src/dev/oled_ssd130x.h ****     size_t Width() const { return width; };
 237:../../libdaisy/src/dev/oled_ssd130x.h ****     size_t Height() const { return height; };
 238:../../libdaisy/src/dev/oled_ssd130x.h **** 
 239:../../libdaisy/src/dev/oled_ssd130x.h ****     void DrawPixel(uint_fast8_t x, uint_fast8_t y, bool on)
 240:../../libdaisy/src/dev/oled_ssd130x.h ****     {
 241:../../libdaisy/src/dev/oled_ssd130x.h ****         if(x >= width || y >= height)
 242:../../libdaisy/src/dev/oled_ssd130x.h ****             return;
 243:../../libdaisy/src/dev/oled_ssd130x.h ****         if(on)
 244:../../libdaisy/src/dev/oled_ssd130x.h ****             buffer_[x + (y / 8) * width] |= (1 << (y % 8));
 245:../../libdaisy/src/dev/oled_ssd130x.h ****         else
 246:../../libdaisy/src/dev/oled_ssd130x.h ****             buffer_[x + (y / 8) * width] &= ~(1 << (y % 8));
 247:../../libdaisy/src/dev/oled_ssd130x.h ****     }
 248:../../libdaisy/src/dev/oled_ssd130x.h **** 
 249:../../libdaisy/src/dev/oled_ssd130x.h ****     void Fill(bool on)
 266              		.loc 15 249 10 view .LVU39
 267              	.LBB641:
 250:../../libdaisy/src/dev/oled_ssd130x.h ****     {
 251:../../libdaisy/src/dev/oled_ssd130x.h ****         for(size_t i = 0; i < sizeof(buffer_); i++)
 268              		.loc 15 251 29 view .LVU40
 269 0000 4942     		rsbs	r1, r1, #0
 270              	.LVL9:
 271              		.loc 15 251 29 is_stmt 0 view .LVU41
 272 0002 00F11303 		add	r3, r0, #19
 273 0006 00F21342 		addw	r2, r0, #1043
 274 000a C9B2     		uxtb	r1, r1
 275              	.LVL10:
 276              	.L9:
 252:../../libdaisy/src/dev/oled_ssd130x.h ****         {
 253:../../libdaisy/src/dev/oled_ssd130x.h ****             buffer_[i] = on ? 0xff : 0x00;
 277              		.loc 15 253 13 view .LVU42
 278 000c 03F8011F 		strb	r1, [r3, #1]!
 279              	.LVL11:
 251:../../libdaisy/src/dev/oled_ssd130x.h ****         {
 280              		.loc 15 251 9 is_stmt 1 view .LVU43
 251:../../libdaisy/src/dev/oled_ssd130x.h ****         {
 281              		.loc 15 251 29 view .LVU44
 282 0010 9342     		cmp	r3, r2
ARM GAS  /tmp/ccPAoVZi.s 			page 24


 283 0012 FBD1     		bne	.L9
 284              	.LBE641:
 285              	.LBE640:
 286              		.loc 5 33 53 is_stmt 0 view .LVU45
 287 0014 7047     		bx	lr
 288              		.cfi_endproc
 289              	.LFE4824:
 291 0016 00BF     		.section	.text._ZL13AudioCallbackPKPKfPPfj,"ax",%progbits
 292              		.align	1
 293              		.p2align 2,,3
 294              		.syntax unified
 295              		.thumb
 296              		.thumb_func
 297              		.fpu fpv5-d16
 299              	_ZL13AudioCallbackPKPKfPPfj:
 300              	.LVL12:
 301              	.LFB4233:
 302              		.file 16 "Svf.cpp"
   1:Svf.cpp       **** #include "daisysp.h"
   2:Svf.cpp       **** #include "daisy_patch.h"
   3:Svf.cpp       **** #include <string>
   4:Svf.cpp       **** 
   5:Svf.cpp       **** using namespace daisy;
   6:Svf.cpp       **** using namespace daisysp;
   7:Svf.cpp       **** 
   8:Svf.cpp       **** DaisyPatch patch;
   9:Svf.cpp       **** Parameter  cutoff_ctrl, res_ctrl, drive_ctrl;
  10:Svf.cpp       **** Svf        svf;
  11:Svf.cpp       **** 
  12:Svf.cpp       **** static void AudioCallback(AudioHandle::InputBuffer  in,
  13:Svf.cpp       ****                           AudioHandle::OutputBuffer out,
  14:Svf.cpp       ****                           size_t                    size)
  15:Svf.cpp       **** {
 303              		.loc 16 15 1 is_stmt 1 view -0
 304              		.cfi_startproc
 305              		@ args = 0, pretend = 0, frame = 0
 306              		@ frame_needed = 0, uses_anonymous_args = 0
  16:Svf.cpp       ****     //get new control values
  17:Svf.cpp       ****     float cutoff = cutoff_ctrl.Process();
 307              		.loc 16 17 5 view .LVU47
  15:Svf.cpp       ****     //get new control values
 308              		.loc 16 15 1 is_stmt 0 view .LVU48
 309 0000 2DE9F843 		push	{r3, r4, r5, r6, r7, r8, r9, lr}
 310              		.cfi_def_cfa_offset 32
 311              		.cfi_offset 3, -32
 312              		.cfi_offset 4, -28
 313              		.cfi_offset 5, -24
 314              		.cfi_offset 6, -20
 315              		.cfi_offset 7, -16
 316              		.cfi_offset 8, -12
 317              		.cfi_offset 9, -8
 318              		.cfi_offset 14, -4
 319 0004 8146     		mov	r9, r0
 320              		.loc 16 17 39 view .LVU49
 321 0006 2448     		ldr	r0, .L19
 322              	.LVL13:
  15:Svf.cpp       ****     //get new control values
ARM GAS  /tmp/ccPAoVZi.s 			page 25


 323              		.loc 16 15 1 view .LVU50
 324 0008 9046     		mov	r8, r2
 325 000a 0E46     		mov	r6, r1
 326 000c 2DED048B 		vpush.64	{d8, d9}
 327              		.cfi_def_cfa_offset 48
 328              		.cfi_offset 80, -48
 329              		.cfi_offset 81, -44
 330              		.cfi_offset 82, -40
 331              		.cfi_offset 83, -36
 332              		.loc 16 17 39 view .LVU51
 333 0010 FFF7FEFF 		bl	_ZN5daisy9Parameter7ProcessEv
 334              	.LVL14:
  18:Svf.cpp       ****     float res    = res_ctrl.Process();
 335              		.loc 16 18 36 view .LVU52
 336 0014 2148     		ldr	r0, .L19+4
  17:Svf.cpp       ****     float res    = res_ctrl.Process();
 337              		.loc 16 17 39 view .LVU53
 338 0016 B0EE409A 		vmov.f32	s18, s0
 339              	.LVL15:
 340              		.loc 16 18 5 is_stmt 1 view .LVU54
 341              		.loc 16 18 36 is_stmt 0 view .LVU55
 342 001a FFF7FEFF 		bl	_ZN5daisy9Parameter7ProcessEv
 343              	.LVL16:
  19:Svf.cpp       ****     float drive  = drive_ctrl.Process();
 344              		.loc 16 19 38 view .LVU56
 345 001e 2048     		ldr	r0, .L19+8
  18:Svf.cpp       ****     float res    = res_ctrl.Process();
 346              		.loc 16 18 36 view .LVU57
 347 0020 F0EE408A 		vmov.f32	s17, s0
 348              	.LVL17:
 349              		.loc 16 19 5 is_stmt 1 view .LVU58
 350              		.loc 16 19 38 is_stmt 0 view .LVU59
 351 0024 FFF7FEFF 		bl	_ZN5daisy9Parameter7ProcessEv
 352              	.LVL18:
 353              		.loc 16 19 38 view .LVU60
 354 0028 B0EE408A 		vmov.f32	s16, s0
  20:Svf.cpp       **** 
  21:Svf.cpp       ****     //Set filter to the values we got
  22:Svf.cpp       ****     svf.SetFreq(cutoff);
 355              		.loc 16 22 16 view .LVU61
 356 002c 1D48     		ldr	r0, .L19+12
 357              	.LVL19:
 358              		.loc 16 22 5 is_stmt 1 view .LVU62
 359              		.loc 16 22 16 is_stmt 0 view .LVU63
 360 002e B0EE490A 		vmov.f32	s0, s18
 361              	.LVL20:
 362              		.loc 16 22 16 view .LVU64
 363 0032 FFF7FEFF 		bl	_ZN7daisysp3Svf7SetFreqEf
 364              	.LVL21:
  23:Svf.cpp       ****     svf.SetRes(res);
 365              		.loc 16 23 5 is_stmt 1 view .LVU65
 366              		.loc 16 23 15 is_stmt 0 view .LVU66
 367 0036 B0EE680A 		vmov.f32	s0, s17
 368 003a 1A48     		ldr	r0, .L19+12
 369 003c FFF7FEFF 		bl	_ZN7daisysp3Svf6SetResEf
 370              	.LVL22:
  24:Svf.cpp       ****     svf.SetDrive(drive);
ARM GAS  /tmp/ccPAoVZi.s 			page 26


 371              		.loc 16 24 5 is_stmt 1 view .LVU67
 372              		.loc 16 24 17 is_stmt 0 view .LVU68
 373 0040 B0EE480A 		vmov.f32	s0, s16
 374 0044 1748     		ldr	r0, .L19+12
 375 0046 FFF7FEFF 		bl	_ZN7daisysp3Svf8SetDriveEf
 376              	.LVL23:
  25:Svf.cpp       **** 
  26:Svf.cpp       ****     for(size_t i = 0; i < size; i++)
 377              		.loc 16 26 5 is_stmt 1 view .LVU69
 378              	.LBB642:
 379              		.loc 16 26 25 view .LVU70
 380 004a B8F1000F 		cmp	r8, #0
 381 004e 1ED0     		beq	.L11
 382              		.loc 16 26 16 is_stmt 0 view .LVU71
 383 0050 0024     		movs	r4, #0
 384 0052 144F     		ldr	r7, .L19+12
 385              	.LVL24:
 386              	.L13:
  27:Svf.cpp       ****     {
  28:Svf.cpp       ****         //send the next sample to the filter
  29:Svf.cpp       ****         svf.Process(in[0][i]);
 387              		.loc 16 29 9 is_stmt 1 discriminator 2 view .LVU72
 388              		.loc 16 29 20 is_stmt 0 discriminator 2 view .LVU73
 389 0054 D9F80030 		ldr	r3, [r9]
 390 0058 A500     		lsls	r5, r4, #2
 391 005a 1248     		ldr	r0, .L19+12
 392 005c 03EB8403 		add	r3, r3, r4, lsl #2
  26:Svf.cpp       ****     {
 393              		.loc 16 26 5 discriminator 2 view .LVU74
 394 0060 0134     		adds	r4, r4, #1
 395              	.LVL25:
 396              		.loc 16 29 20 discriminator 2 view .LVU75
 397 0062 93ED000A 		vldr.32	s0, [r3]
 398 0066 FFF7FEFF 		bl	_ZN7daisysp3Svf7ProcessEf
 399              	.LVL26:
  30:Svf.cpp       **** 
  31:Svf.cpp       ****         //send the different filter types to the different outputs
  32:Svf.cpp       ****         out[0][i] = svf.Low();
 400              		.loc 16 32 9 is_stmt 1 discriminator 2 view .LVU76
 401              		.loc 16 32 19 is_stmt 0 discriminator 2 view .LVU77
 402 006a 3368     		ldr	r3, [r6]
 403              		.loc 16 32 28 discriminator 2 view .LVU78
 404 006c 386B     		ldr	r0, [r7, #48]	@ float
 405              	.LVL27:
 406              		.loc 16 32 28 discriminator 2 view .LVU79
 407              	.LBE642:
  23:../../DaisySP/Source/Filters/svf.h ****     /** Initializes the filter
  24:../../DaisySP/Source/Filters/svf.h ****         float sample_rate - sample rate of the audio engine being run, and the frequency that the P
  25:../../DaisySP/Source/Filters/svf.h ****     */
  26:../../DaisySP/Source/Filters/svf.h ****     void Init(float sample_rate);
  27:../../DaisySP/Source/Filters/svf.h **** 
  28:../../DaisySP/Source/Filters/svf.h **** 
  29:../../DaisySP/Source/Filters/svf.h ****     /** 
  30:../../DaisySP/Source/Filters/svf.h ****         Process the input signal, updating all of the outputs.
  31:../../DaisySP/Source/Filters/svf.h ****     */
  32:../../DaisySP/Source/Filters/svf.h ****     void Process(float in);
  33:../../DaisySP/Source/Filters/svf.h **** 
ARM GAS  /tmp/ccPAoVZi.s 			page 27


  34:../../DaisySP/Source/Filters/svf.h **** 
  35:../../DaisySP/Source/Filters/svf.h ****     /** sets the frequency of the cutoff frequency. 
  36:../../DaisySP/Source/Filters/svf.h ****         f must be between 0.0 and sample_rate / 3
  37:../../DaisySP/Source/Filters/svf.h ****     */
  38:../../DaisySP/Source/Filters/svf.h ****     void SetFreq(float f);
  39:../../DaisySP/Source/Filters/svf.h **** 
  40:../../DaisySP/Source/Filters/svf.h ****     /** sets the resonance of the filter.
  41:../../DaisySP/Source/Filters/svf.h ****         Must be between 0.0 and 1.0 to ensure stability.
  42:../../DaisySP/Source/Filters/svf.h ****     */
  43:../../DaisySP/Source/Filters/svf.h ****     void SetRes(float r);
  44:../../DaisySP/Source/Filters/svf.h **** 
  45:../../DaisySP/Source/Filters/svf.h ****     /** sets the drive of the filter 
  46:../../DaisySP/Source/Filters/svf.h ****         affects the response of the resonance of the filter
  47:../../DaisySP/Source/Filters/svf.h ****     */
  48:../../DaisySP/Source/Filters/svf.h ****     void SetDrive(float d);
  49:../../DaisySP/Source/Filters/svf.h ****     /** lowpass output
  50:../../DaisySP/Source/Filters/svf.h ****         \return low pass output of the filter
  51:../../DaisySP/Source/Filters/svf.h ****     */
  52:../../DaisySP/Source/Filters/svf.h ****     inline float Low() { return out_low_; }
 408              		.loc 1 52 26 is_stmt 1 discriminator 2 view .LVU80
 409              	.LBB643:
  26:Svf.cpp       ****     {
 410              		.loc 16 26 25 is_stmt 0 discriminator 2 view .LVU81
 411 006e A045     		cmp	r8, r4
 412              		.loc 16 32 19 discriminator 2 view .LVU82
 413 0070 2B44     		add	r3, r3, r5
  33:Svf.cpp       ****         out[1][i] = svf.High();
  34:Svf.cpp       ****         out[2][i] = svf.Band();
 414              		.loc 16 34 19 discriminator 2 view .LVU83
 415 0072 D6E90112 		ldrd	r1, r2, [r6, #4]
  32:Svf.cpp       ****         out[1][i] = svf.High();
 416              		.loc 16 32 19 discriminator 2 view .LVU84
 417 0076 1860     		str	r0, [r3]	@ float
  33:Svf.cpp       ****         out[1][i] = svf.High();
 418              		.loc 16 33 9 is_stmt 1 discriminator 2 view .LVU85
  33:Svf.cpp       ****         out[1][i] = svf.High();
 419              		.loc 16 33 19 is_stmt 0 discriminator 2 view .LVU86
 420 0078 2944     		add	r1, r1, r5
  33:Svf.cpp       ****         out[1][i] = svf.High();
 421              		.loc 16 33 29 discriminator 2 view .LVU87
 422 007a 786B     		ldr	r0, [r7, #52]	@ float
 423              	.LVL28:
  33:Svf.cpp       ****         out[1][i] = svf.High();
 424              		.loc 16 33 29 discriminator 2 view .LVU88
 425              	.LBE643:
  53:../../DaisySP/Source/Filters/svf.h ****     /** highpass output
  54:../../DaisySP/Source/Filters/svf.h ****         \return high pass output of the filter
  55:../../DaisySP/Source/Filters/svf.h ****     */
  56:../../DaisySP/Source/Filters/svf.h ****     inline float High() { return out_high_; }
 426              		.loc 1 56 27 is_stmt 1 discriminator 2 view .LVU89
 427              	.LBB644:
  35:Svf.cpp       ****         out[3][i] = svf.Notch();
 428              		.loc 16 35 19 is_stmt 0 discriminator 2 view .LVU90
 429 007c F368     		ldr	r3, [r6, #12]
  34:Svf.cpp       ****         out[3][i] = svf.Notch();
 430              		.loc 16 34 19 discriminator 2 view .LVU91
 431 007e 2A44     		add	r2, r2, r5
ARM GAS  /tmp/ccPAoVZi.s 			page 28


  33:Svf.cpp       ****         out[2][i] = svf.Band();
 432              		.loc 16 33 19 discriminator 2 view .LVU92
 433 0080 0860     		str	r0, [r1]	@ float
  34:Svf.cpp       ****         out[3][i] = svf.Notch();
 434              		.loc 16 34 9 is_stmt 1 discriminator 2 view .LVU93
  34:Svf.cpp       ****         out[3][i] = svf.Notch();
 435              		.loc 16 34 29 is_stmt 0 discriminator 2 view .LVU94
 436 0082 B96B     		ldr	r1, [r7, #56]	@ float
 437              	.LVL29:
  34:Svf.cpp       ****         out[3][i] = svf.Notch();
 438              		.loc 16 34 29 discriminator 2 view .LVU95
 439              	.LBE644:
  57:../../DaisySP/Source/Filters/svf.h ****     /** bandpass output
  58:../../DaisySP/Source/Filters/svf.h ****         \return band pass output of the filter
  59:../../DaisySP/Source/Filters/svf.h ****     */
  60:../../DaisySP/Source/Filters/svf.h ****     inline float Band() { return out_band_; }
 440              		.loc 1 60 27 is_stmt 1 discriminator 2 view .LVU96
 441              	.LBB645:
 442              		.loc 16 35 19 is_stmt 0 discriminator 2 view .LVU97
 443 0084 1D44     		add	r5, r5, r3
  34:Svf.cpp       ****         out[3][i] = svf.Notch();
 444              		.loc 16 34 19 discriminator 2 view .LVU98
 445 0086 1160     		str	r1, [r2]	@ float
 446              		.loc 16 35 9 is_stmt 1 discriminator 2 view .LVU99
 447              		.loc 16 35 30 is_stmt 0 discriminator 2 view .LVU100
 448 0088 3B6C     		ldr	r3, [r7, #64]	@ float
 449              	.LVL30:
 450              		.loc 16 35 30 discriminator 2 view .LVU101
 451              	.LBE645:
  61:../../DaisySP/Source/Filters/svf.h ****     /** notchpass output
  62:../../DaisySP/Source/Filters/svf.h ****         \return notch pass output of the filter
  63:../../DaisySP/Source/Filters/svf.h ****     */
  64:../../DaisySP/Source/Filters/svf.h ****     inline float Notch() { return out_notch_; }
 452              		.loc 1 64 28 is_stmt 1 discriminator 2 view .LVU102
 453              	.LBB646:
 454              		.loc 16 35 19 is_stmt 0 discriminator 2 view .LVU103
 455 008a 2B60     		str	r3, [r5]	@ float
  26:Svf.cpp       ****     {
 456              		.loc 16 26 5 is_stmt 1 discriminator 2 view .LVU104
 457              	.LVL31:
  26:Svf.cpp       ****     {
 458              		.loc 16 26 25 discriminator 2 view .LVU105
 459 008c E2D1     		bne	.L13
 460              	.LVL32:
 461              	.L11:
  26:Svf.cpp       ****     {
 462              		.loc 16 26 25 is_stmt 0 discriminator 2 view .LVU106
 463              	.LBE646:
  36:Svf.cpp       ****     }
  37:Svf.cpp       **** }
 464              		.loc 16 37 1 view .LVU107
 465 008e BDEC048B 		vldm	sp!, {d8-d9}
 466              		.cfi_restore 82
 467              		.cfi_restore 83
 468              		.cfi_restore 80
 469              		.cfi_restore 81
 470              		.cfi_def_cfa_offset 32
ARM GAS  /tmp/ccPAoVZi.s 			page 29


 471              	.LVL33:
 472              		.loc 16 37 1 view .LVU108
 473 0092 BDE8F883 		pop	{r3, r4, r5, r6, r7, r8, r9, pc}
 474              	.LVL34:
 475              	.L20:
 476              		.loc 16 37 1 view .LVU109
 477 0096 00BF     		.align	2
 478              	.L19:
 479 0098 00000000 		.word	.LANCHOR0
 480 009c 00000000 		.word	.LANCHOR1
 481 00a0 00000000 		.word	.LANCHOR2
 482 00a4 00000000 		.word	.LANCHOR3
 483              		.cfi_endproc
 484              	.LFE4233:
 486              		.section	.text._ZN5daisy11OledDisplayINS_13SSD130xDriverILj128ELj64ENS_24SSD130x4WireSpiTransportE
 487              		.align	1
 488              		.p2align 2,,3
 489              		.weak	_ZN5daisy11OledDisplayINS_13SSD130xDriverILj128ELj64ENS_24SSD130x4WireSpiTransportEEEED0Ev
 490              		.syntax unified
 491              		.thumb
 492              		.thumb_func
 493              		.fpu fpv5-d16
 495              	_ZN5daisy11OledDisplayINS_13SSD130xDriverILj128ELj64ENS_24SSD130x4WireSpiTransportEEEED0Ev:
 496              	.LVL35:
 497              	.LFB4551:
  17:../../libdaisy/src/hid/disp/oled_display.h **** 
 498              		.loc 5 17 13 is_stmt 1 view -0
 499              		.cfi_startproc
 500              		@ args = 0, pretend = 0, frame = 0
 501              		@ frame_needed = 0, uses_anonymous_args = 0
  17:../../libdaisy/src/hid/disp/oled_display.h **** 
 502              		.loc 5 17 13 is_stmt 0 view .LVU111
 503 0000 10B5     		push	{r4, lr}
 504              		.cfi_def_cfa_offset 8
 505              		.cfi_offset 4, -8
 506              		.cfi_offset 14, -4
  17:../../libdaisy/src/hid/disp/oled_display.h **** 
 507              		.loc 5 17 13 view .LVU112
 508 0002 0446     		mov	r4, r0
 509              	.LVL36:
 510              	.LBB647:
 511              	.LBI647:
  17:../../libdaisy/src/hid/disp/oled_display.h **** 
 512              		.loc 5 17 13 is_stmt 1 view .LVU113
 513              	.LBB648:
 514              	.LBI648:
 515              		.loc 6 219 13 view .LVU114
 516              	.LBB649:
 517              	.LBI649:
  23:../../libdaisy/src/hid/disp/display.h **** 
 518              		.loc 6 23 13 view .LVU115
  23:../../libdaisy/src/hid/disp/display.h **** 
 519              		.loc 6 23 13 is_stmt 0 view .LVU116
 520              	.LBE649:
 521              	.LBE648:
 522              	.LBE647:
  17:../../libdaisy/src/hid/disp/oled_display.h **** 
ARM GAS  /tmp/ccPAoVZi.s 			page 30


 523              		.loc 5 17 29 view .LVU117
 524 0004 40F21441 		movw	r1, #1044
 525 0008 FFF7FEFF 		bl	_ZdlPvj
 526              	.LVL37:
  17:../../libdaisy/src/hid/disp/oled_display.h **** 
 527              		.loc 5 17 29 view .LVU118
 528 000c 2046     		mov	r0, r4
 529 000e 10BD     		pop	{r4, pc}
  17:../../libdaisy/src/hid/disp/oled_display.h **** 
 530              		.loc 5 17 29 view .LVU119
 531              		.cfi_endproc
 532              	.LFE4551:
 534              		.section	.text._ZN5daisy11OledDisplayINS_13SSD130xDriverILj128ELj64ENS_24SSD130x4WireSpiTransportE
 535              		.align	1
 536              		.p2align 2,,3
 537              		.weak	_ZN5daisy11OledDisplayINS_13SSD130xDriverILj128ELj64ENS_24SSD130x4WireSpiTransportEEEE6Updat
 538              		.syntax unified
 539              		.thumb
 540              		.thumb_func
 541              		.fpu fpv5-d16
 543              	_ZN5daisy11OledDisplayINS_13SSD130xDriverILj128ELj64ENS_24SSD130x4WireSpiTransportEEEE6UpdateEv:
 544              	.LVL38:
 545              	.LFB4555:
  34:../../libdaisy/src/hid/disp/oled_display.h **** 
  35:../../libdaisy/src/hid/disp/oled_display.h ****     /**
  36:../../libdaisy/src/hid/disp/oled_display.h ****     Sets the pixel at the specified coordinate to be on/off.
  37:../../libdaisy/src/hid/disp/oled_display.h ****     \param x   x Coordinate
  38:../../libdaisy/src/hid/disp/oled_display.h ****     \param y   y coordinate
  39:../../libdaisy/src/hid/disp/oled_display.h ****     \param on  on or off
  40:../../libdaisy/src/hid/disp/oled_display.h ****     */
  41:../../libdaisy/src/hid/disp/oled_display.h ****     void DrawPixel(uint_fast8_t x, uint_fast8_t y, bool on) override
  42:../../libdaisy/src/hid/disp/oled_display.h ****     {
  43:../../libdaisy/src/hid/disp/oled_display.h ****         driver_.DrawPixel(x, y, on);
  44:../../libdaisy/src/hid/disp/oled_display.h ****     }
  45:../../libdaisy/src/hid/disp/oled_display.h **** 
  46:../../libdaisy/src/hid/disp/oled_display.h ****     /** 
  47:../../libdaisy/src/hid/disp/oled_display.h ****     Writes the current display buffer to the OLED device using SPI or I2C depending on 
  48:../../libdaisy/src/hid/disp/oled_display.h ****     how the object was initialized.
  49:../../libdaisy/src/hid/disp/oled_display.h ****     */
  50:../../libdaisy/src/hid/disp/oled_display.h ****     void Update() override { driver_.Update(); }
 546              		.loc 5 50 10 is_stmt 1 view -0
 547              		.cfi_startproc
 548              		@ args = 0, pretend = 0, frame = 8
 549              		@ frame_needed = 0, uses_anonymous_args = 0
 550              	.LBB660:
 551              	.LBI660:
 254:../../libdaisy/src/dev/oled_ssd130x.h ****         }
 255:../../libdaisy/src/dev/oled_ssd130x.h ****     };
 256:../../libdaisy/src/dev/oled_ssd130x.h **** 
 257:../../libdaisy/src/dev/oled_ssd130x.h ****     /**
 258:../../libdaisy/src/dev/oled_ssd130x.h ****      * Update the display 
 259:../../libdaisy/src/dev/oled_ssd130x.h ****     */
 260:../../libdaisy/src/dev/oled_ssd130x.h ****     void Update()
 552              		.loc 15 260 10 view .LVU121
 553              	.LBB661:
 261:../../libdaisy/src/dev/oled_ssd130x.h ****     {
 262:../../libdaisy/src/dev/oled_ssd130x.h ****         uint8_t i;
ARM GAS  /tmp/ccPAoVZi.s 			page 31


 263:../../libdaisy/src/dev/oled_ssd130x.h ****         uint8_t high_column_addr;
 264:../../libdaisy/src/dev/oled_ssd130x.h ****         switch(height)
 265:../../libdaisy/src/dev/oled_ssd130x.h ****         {
 266:../../libdaisy/src/dev/oled_ssd130x.h ****             case 32: high_column_addr = 0x12; break;
 267:../../libdaisy/src/dev/oled_ssd130x.h **** 
 268:../../libdaisy/src/dev/oled_ssd130x.h ****             default: high_column_addr = 0x10; break;
 269:../../libdaisy/src/dev/oled_ssd130x.h ****         }
 270:../../libdaisy/src/dev/oled_ssd130x.h ****         for(i = 0; i < (height / 8); i++)
 554              		.loc 15 270 22 view .LVU122
 555              	.LBE661:
 556              	.LBE660:
 557              		.loc 5 50 10 is_stmt 0 view .LVU123
 558 0000 2DE9F041 		push	{r4, r5, r6, r7, r8, lr}
 559              		.cfi_def_cfa_offset 24
 560              		.cfi_offset 4, -24
 561              		.cfi_offset 5, -20
 562              		.cfi_offset 6, -16
 563              		.cfi_offset 7, -12
 564              		.cfi_offset 8, -8
 565              		.cfi_offset 14, -4
 566 0004 B025     		movs	r5, #176
 567 0006 82B0     		sub	sp, sp, #8
 568              		.cfi_def_cfa_offset 32
 569 0008 00F10807 		add	r7, r0, #8
 570 000c 00F11006 		add	r6, r0, #16
 571 0010 00F11404 		add	r4, r0, #20
 572              	.LVL39:
 573              	.L24:
 574              	.LBB674:
 575              	.LBB673:
 576              	.LBB662:
 577              	.LBB663:
 111:../../libdaisy/src/dev/oled_ssd130x.h ****         spi_.BlockingTransmit(&cmd, 1);
 578              		.loc 15 111 23 view .LVU124
 579 0014 0021     		movs	r1, #0
 580 0016 3046     		mov	r0, r6
 581 0018 8DF80750 		strb	r5, [sp, #7]
 582              	.LVL40:
 111:../../libdaisy/src/dev/oled_ssd130x.h ****         spi_.BlockingTransmit(&cmd, 1);
 583              		.loc 15 111 23 view .LVU125
 584              	.LBE663:
 585              	.LBI662:
 109:../../libdaisy/src/dev/oled_ssd130x.h ****     {
 586              		.loc 15 109 10 is_stmt 1 view .LVU126
 587              	.LBB664:
 111:../../libdaisy/src/dev/oled_ssd130x.h ****         spi_.BlockingTransmit(&cmd, 1);
 588              		.loc 15 111 9 view .LVU127
 589 001c 0135     		adds	r5, r5, #1
 590              	.LVL41:
 111:../../libdaisy/src/dev/oled_ssd130x.h ****         spi_.BlockingTransmit(&cmd, 1);
 591              		.loc 15 111 9 is_stmt 0 view .LVU128
 592 001e 8846     		mov	r8, r1
 111:../../libdaisy/src/dev/oled_ssd130x.h ****         spi_.BlockingTransmit(&cmd, 1);
 593              		.loc 15 111 23 view .LVU129
 594 0020 FFF7FEFF 		bl	dsy_gpio_write
 595              	.LVL42:
 112:../../libdaisy/src/dev/oled_ssd130x.h ****     };
ARM GAS  /tmp/ccPAoVZi.s 			page 32


 596              		.loc 15 112 9 is_stmt 1 view .LVU130
 112:../../libdaisy/src/dev/oled_ssd130x.h ****     };
 597              		.loc 15 112 30 is_stmt 0 view .LVU131
 598 0024 6423     		movs	r3, #100
 599 0026 0122     		movs	r2, #1
 600 0028 0DF10701 		add	r1, sp, #7
 601 002c 3846     		mov	r0, r7
 602 002e FFF7FEFF 		bl	_ZN5daisy9SpiHandle16BlockingTransmitEPhjm
 603              	.LVL43:
 112:../../libdaisy/src/dev/oled_ssd130x.h ****     };
 604              		.loc 15 112 30 view .LVU132
 605              	.LBE664:
 606              	.LBE662:
 607              	.LBB665:
 608              	.LBB666:
 111:../../libdaisy/src/dev/oled_ssd130x.h ****         spi_.BlockingTransmit(&cmd, 1);
 609              		.loc 15 111 23 view .LVU133
 610 0032 4146     		mov	r1, r8
 611 0034 3046     		mov	r0, r6
 612 0036 8DF80780 		strb	r8, [sp, #7]
 613              	.LVL44:
 111:../../libdaisy/src/dev/oled_ssd130x.h ****         spi_.BlockingTransmit(&cmd, 1);
 614              		.loc 15 111 23 view .LVU134
 615              	.LBE666:
 616              	.LBI665:
 109:../../libdaisy/src/dev/oled_ssd130x.h ****     {
 617              		.loc 15 109 10 is_stmt 1 view .LVU135
 618              	.LBB667:
 111:../../libdaisy/src/dev/oled_ssd130x.h ****         spi_.BlockingTransmit(&cmd, 1);
 619              		.loc 15 111 9 view .LVU136
 111:../../libdaisy/src/dev/oled_ssd130x.h ****         spi_.BlockingTransmit(&cmd, 1);
 620              		.loc 15 111 23 is_stmt 0 view .LVU137
 621 003a FFF7FEFF 		bl	dsy_gpio_write
 622              	.LVL45:
 112:../../libdaisy/src/dev/oled_ssd130x.h ****     };
 623              		.loc 15 112 9 is_stmt 1 view .LVU138
 112:../../libdaisy/src/dev/oled_ssd130x.h ****     };
 624              		.loc 15 112 30 is_stmt 0 view .LVU139
 625 003e 0122     		movs	r2, #1
 626 0040 6423     		movs	r3, #100
 627 0042 0DF10701 		add	r1, sp, #7
 628 0046 3846     		mov	r0, r7
 629 0048 EDB2     		uxtb	r5, r5
 630 004a FFF7FEFF 		bl	_ZN5daisy9SpiHandle16BlockingTransmitEPhjm
 631              	.LVL46:
 112:../../libdaisy/src/dev/oled_ssd130x.h ****     };
 632              		.loc 15 112 30 view .LVU140
 633 004e 1023     		movs	r3, #16
 634              	.LBE667:
 635              	.LBE665:
 636              	.LBB668:
 637              	.LBB669:
 111:../../libdaisy/src/dev/oled_ssd130x.h ****         spi_.BlockingTransmit(&cmd, 1);
 638              		.loc 15 111 23 view .LVU141
 639 0050 4146     		mov	r1, r8
 640 0052 3046     		mov	r0, r6
 641 0054 8DF80730 		strb	r3, [sp, #7]
ARM GAS  /tmp/ccPAoVZi.s 			page 33


 642              	.LVL47:
 111:../../libdaisy/src/dev/oled_ssd130x.h ****         spi_.BlockingTransmit(&cmd, 1);
 643              		.loc 15 111 23 view .LVU142
 644              	.LBE669:
 645              	.LBI668:
 109:../../libdaisy/src/dev/oled_ssd130x.h ****     {
 646              		.loc 15 109 10 is_stmt 1 view .LVU143
 647              	.LBB670:
 111:../../libdaisy/src/dev/oled_ssd130x.h ****         spi_.BlockingTransmit(&cmd, 1);
 648              		.loc 15 111 9 view .LVU144
 111:../../libdaisy/src/dev/oled_ssd130x.h ****         spi_.BlockingTransmit(&cmd, 1);
 649              		.loc 15 111 23 is_stmt 0 view .LVU145
 650 0058 FFF7FEFF 		bl	dsy_gpio_write
 651              	.LVL48:
 112:../../libdaisy/src/dev/oled_ssd130x.h ****     };
 652              		.loc 15 112 9 is_stmt 1 view .LVU146
 112:../../libdaisy/src/dev/oled_ssd130x.h ****     };
 653              		.loc 15 112 30 is_stmt 0 view .LVU147
 654 005c 6423     		movs	r3, #100
 655 005e 0122     		movs	r2, #1
 656 0060 0DF10701 		add	r1, sp, #7
 657 0064 3846     		mov	r0, r7
 658 0066 FFF7FEFF 		bl	_ZN5daisy9SpiHandle16BlockingTransmitEPhjm
 659              	.LVL49:
 112:../../libdaisy/src/dev/oled_ssd130x.h ****     };
 660              		.loc 15 112 30 view .LVU148
 661              	.LBE670:
 662              	.LBE668:
 663              	.LBB671:
 664              	.LBI671:
 115:../../libdaisy/src/dev/oled_ssd130x.h ****     {
 665              		.loc 15 115 10 is_stmt 1 view .LVU149
 666              	.LBB672:
 117:../../libdaisy/src/dev/oled_ssd130x.h ****         spi_.BlockingTransmit(buff, size);
 667              		.loc 15 117 9 view .LVU150
 117:../../libdaisy/src/dev/oled_ssd130x.h ****         spi_.BlockingTransmit(buff, size);
 668              		.loc 15 117 23 is_stmt 0 view .LVU151
 669 006a 0121     		movs	r1, #1
 670 006c 3046     		mov	r0, r6
 671 006e FFF7FEFF 		bl	dsy_gpio_write
 672              	.LVL50:
 118:../../libdaisy/src/dev/oled_ssd130x.h ****     };
 673              		.loc 15 118 9 is_stmt 1 view .LVU152
 118:../../libdaisy/src/dev/oled_ssd130x.h ****     };
 674              		.loc 15 118 30 is_stmt 0 view .LVU153
 675 0072 8022     		movs	r2, #128
 676 0074 2146     		mov	r1, r4
 677 0076 6423     		movs	r3, #100
 678 0078 3846     		mov	r0, r7
 679 007a 1444     		add	r4, r4, r2
 680              	.LVL51:
 118:../../libdaisy/src/dev/oled_ssd130x.h ****     };
 681              		.loc 15 118 30 view .LVU154
 682 007c FFF7FEFF 		bl	_ZN5daisy9SpiHandle16BlockingTransmitEPhjm
 683              	.LVL52:
 118:../../libdaisy/src/dev/oled_ssd130x.h ****     };
 684              		.loc 15 118 30 view .LVU155
ARM GAS  /tmp/ccPAoVZi.s 			page 34


 685              	.LBE672:
 686              	.LBE671:
 687              		.loc 15 270 9 is_stmt 1 view .LVU156
 688              		.loc 15 270 22 view .LVU157
 689 0080 B82D     		cmp	r5, #184
 690 0082 C7D1     		bne	.L24
 691              	.LBE673:
 692              	.LBE674:
 693              		.loc 5 50 48 is_stmt 0 view .LVU158
 694 0084 02B0     		add	sp, sp, #8
 695              		.cfi_def_cfa_offset 24
 696              		@ sp needed
 697 0086 BDE8F081 		pop	{r4, r5, r6, r7, r8, pc}
 698              		.loc 5 50 48 view .LVU159
 699              		.cfi_endproc
 700              	.LFE4555:
 702 008a 00BF     		.section	.text._ZN5daisy25OneBitGraphicsDisplayImplINS_11OledDisplayINS_13SSD130xDriverILj128ELj64
 703              		.align	1
 704              		.p2align 2,,3
 705              		.weak	_ZN5daisy25OneBitGraphicsDisplayImplINS_11OledDisplayINS_13SSD130xDriverILj128ELj64ENS_24SSD
 706              		.syntax unified
 707              		.thumb
 708              		.thumb_func
 709              		.fpu fpv5-d16
 711              	_ZN5daisy25OneBitGraphicsDisplayImplINS_11OledDisplayINS_13SSD130xDriverILj128ELj64ENS_24SSD130x4Wi
 712              	.LVL53:
 713              	.LFB4553:
 220:../../libdaisy/src/hid/disp/display.h **** 
 221:../../libdaisy/src/hid/disp/display.h ****     void DrawLine(uint_fast8_t x1,
 222:../../libdaisy/src/hid/disp/display.h ****                   uint_fast8_t y1,
 223:../../libdaisy/src/hid/disp/display.h ****                   uint_fast8_t x2,
 224:../../libdaisy/src/hid/disp/display.h ****                   uint_fast8_t y2,
 225:../../libdaisy/src/hid/disp/display.h ****                   bool         on) override
 226:../../libdaisy/src/hid/disp/display.h ****     {
 227:../../libdaisy/src/hid/disp/display.h ****         int_fast16_t deltaX = abs((int_fast16_t)x2 - (int_fast16_t)x1);
 228:../../libdaisy/src/hid/disp/display.h ****         int_fast16_t deltaY = abs((int_fast16_t)y2 - (int_fast16_t)y1);
 229:../../libdaisy/src/hid/disp/display.h ****         int_fast16_t signX  = ((x1 < x2) ? 1 : -1);
 230:../../libdaisy/src/hid/disp/display.h ****         int_fast16_t signY  = ((y1 < y2) ? 1 : -1);
 231:../../libdaisy/src/hid/disp/display.h ****         int_fast16_t error  = deltaX - deltaY;
 232:../../libdaisy/src/hid/disp/display.h ****         int_fast16_t error2;
 233:../../libdaisy/src/hid/disp/display.h **** 
 234:../../libdaisy/src/hid/disp/display.h ****         // If we write "ChildType::DrawPixel(x2, y2, on);", we end up with
 235:../../libdaisy/src/hid/disp/display.h ****         // all sorts of weird compiler errors when the Child class is a template
 236:../../libdaisy/src/hid/disp/display.h ****         // class. The only way around this is to use this very verbose syntax:
 237:../../libdaisy/src/hid/disp/display.h ****         ((ChildType*)(this))->ChildType::DrawPixel(x2, y2, on);
 238:../../libdaisy/src/hid/disp/display.h **** 
 239:../../libdaisy/src/hid/disp/display.h ****         while((x1 != x2) || (y1 != y2))
 240:../../libdaisy/src/hid/disp/display.h ****         {
 241:../../libdaisy/src/hid/disp/display.h ****             ((ChildType*)(this))->ChildType::DrawPixel(x1, y1, on);
 242:../../libdaisy/src/hid/disp/display.h ****             error2 = error * 2;
 243:../../libdaisy/src/hid/disp/display.h ****             if(error2 > -deltaY)
 244:../../libdaisy/src/hid/disp/display.h ****             {
 245:../../libdaisy/src/hid/disp/display.h ****                 error -= deltaY;
 246:../../libdaisy/src/hid/disp/display.h ****                 x1 += signX;
 247:../../libdaisy/src/hid/disp/display.h ****             }
 248:../../libdaisy/src/hid/disp/display.h **** 
 249:../../libdaisy/src/hid/disp/display.h ****             if(error2 < deltaX)
ARM GAS  /tmp/ccPAoVZi.s 			page 35


 250:../../libdaisy/src/hid/disp/display.h ****             {
 251:../../libdaisy/src/hid/disp/display.h ****                 error += deltaX;
 252:../../libdaisy/src/hid/disp/display.h ****                 y1 += signY;
 253:../../libdaisy/src/hid/disp/display.h ****             }
 254:../../libdaisy/src/hid/disp/display.h ****         }
 255:../../libdaisy/src/hid/disp/display.h ****     }
 256:../../libdaisy/src/hid/disp/display.h **** 
 257:../../libdaisy/src/hid/disp/display.h ****     void DrawRect(uint_fast8_t x1,
 258:../../libdaisy/src/hid/disp/display.h ****                   uint_fast8_t y1,
 259:../../libdaisy/src/hid/disp/display.h ****                   uint_fast8_t x2,
 260:../../libdaisy/src/hid/disp/display.h ****                   uint_fast8_t y2,
 261:../../libdaisy/src/hid/disp/display.h ****                   bool         on,
 262:../../libdaisy/src/hid/disp/display.h ****                   bool         fill = false) override
 263:../../libdaisy/src/hid/disp/display.h ****     {
 264:../../libdaisy/src/hid/disp/display.h ****         if(fill)
 265:../../libdaisy/src/hid/disp/display.h ****         {
 266:../../libdaisy/src/hid/disp/display.h ****             for(uint_fast8_t x = x1; x <= x2; x++)
 267:../../libdaisy/src/hid/disp/display.h ****             {
 268:../../libdaisy/src/hid/disp/display.h ****                 for(uint_fast8_t y = y1; y <= y2; y++)
 269:../../libdaisy/src/hid/disp/display.h ****                 {
 270:../../libdaisy/src/hid/disp/display.h ****                     ((ChildType*)(this))->ChildType::DrawPixel(x, y, on);
 271:../../libdaisy/src/hid/disp/display.h ****                 }
 272:../../libdaisy/src/hid/disp/display.h ****             }
 273:../../libdaisy/src/hid/disp/display.h ****         }
 274:../../libdaisy/src/hid/disp/display.h ****         else
 275:../../libdaisy/src/hid/disp/display.h ****         {
 276:../../libdaisy/src/hid/disp/display.h ****             ((ChildType*)(this))->ChildType::DrawLine(x1, y1, x2, y1, on);
 277:../../libdaisy/src/hid/disp/display.h ****             ((ChildType*)(this))->ChildType::DrawLine(x2, y1, x2, y2, on);
 278:../../libdaisy/src/hid/disp/display.h ****             ((ChildType*)(this))->ChildType::DrawLine(x2, y2, x1, y2, on);
 279:../../libdaisy/src/hid/disp/display.h ****             ((ChildType*)(this))->ChildType::DrawLine(x1, y2, x1, y1, on);
 280:../../libdaisy/src/hid/disp/display.h ****         }
 281:../../libdaisy/src/hid/disp/display.h ****     }
 282:../../libdaisy/src/hid/disp/display.h **** 
 283:../../libdaisy/src/hid/disp/display.h ****     void DrawArc(uint_fast8_t x,
 284:../../libdaisy/src/hid/disp/display.h ****                  uint_fast8_t y,
 285:../../libdaisy/src/hid/disp/display.h ****                  uint_fast8_t radius,
 286:../../libdaisy/src/hid/disp/display.h ****                  int_fast16_t start_angle,
 287:../../libdaisy/src/hid/disp/display.h ****                  int_fast16_t sweep,
 288:../../libdaisy/src/hid/disp/display.h ****                  bool         on) override
 289:../../libdaisy/src/hid/disp/display.h ****     {
 290:../../libdaisy/src/hid/disp/display.h ****         // Values to calculate the circle
 291:../../libdaisy/src/hid/disp/display.h ****         int_fast16_t t_x, t_y, err, e2;
 292:../../libdaisy/src/hid/disp/display.h **** 
 293:../../libdaisy/src/hid/disp/display.h ****         // Temporary values to speed up comparisons
 294:../../libdaisy/src/hid/disp/display.h ****         float t_sxy, t_syx, t_sxny, t_synx;
 295:../../libdaisy/src/hid/disp/display.h ****         float t_exy, t_eyx, t_exny, t_eynx;
 296:../../libdaisy/src/hid/disp/display.h **** 
 297:../../libdaisy/src/hid/disp/display.h ****         float start_angle_rad, end_angle_rad;
 298:../../libdaisy/src/hid/disp/display.h ****         float start_x, start_y, end_x, end_y;
 299:../../libdaisy/src/hid/disp/display.h **** 
 300:../../libdaisy/src/hid/disp/display.h ****         bool d1, d2, d3, d4;
 301:../../libdaisy/src/hid/disp/display.h **** 
 302:../../libdaisy/src/hid/disp/display.h ****         d1 = d2 = d3 = d4 = true;
 303:../../libdaisy/src/hid/disp/display.h **** 
 304:../../libdaisy/src/hid/disp/display.h ****         bool circle = false;
 305:../../libdaisy/src/hid/disp/display.h **** 
 306:../../libdaisy/src/hid/disp/display.h ****         if(sweep < 0)
ARM GAS  /tmp/ccPAoVZi.s 			page 36


 307:../../libdaisy/src/hid/disp/display.h ****         {
 308:../../libdaisy/src/hid/disp/display.h ****             start_angle += sweep;
 309:../../libdaisy/src/hid/disp/display.h ****             sweep = -sweep;
 310:../../libdaisy/src/hid/disp/display.h ****         }
 311:../../libdaisy/src/hid/disp/display.h **** 
 312:../../libdaisy/src/hid/disp/display.h ****         start_angle_rad = deg2rad(start_angle);
 313:../../libdaisy/src/hid/disp/display.h ****         end_angle_rad   = deg2rad(start_angle + sweep);
 314:../../libdaisy/src/hid/disp/display.h **** 
 315:../../libdaisy/src/hid/disp/display.h ****         start_x = cos(start_angle_rad) * radius;
 316:../../libdaisy/src/hid/disp/display.h ****         start_y = -sin(start_angle_rad) * radius;
 317:../../libdaisy/src/hid/disp/display.h ****         end_x   = cos(end_angle_rad) * radius;
 318:../../libdaisy/src/hid/disp/display.h ****         end_y   = -sin(end_angle_rad) * radius;
 319:../../libdaisy/src/hid/disp/display.h **** 
 320:../../libdaisy/src/hid/disp/display.h ****         // Check if start and endpoint are very near
 321:../../libdaisy/src/hid/disp/display.h ****         if((end_x - start_x) * (end_x - start_x)
 322:../../libdaisy/src/hid/disp/display.h ****                + (end_y - start_y) * (end_y - start_y)
 323:../../libdaisy/src/hid/disp/display.h ****            < 2.0f)
 324:../../libdaisy/src/hid/disp/display.h ****         {
 325:../../libdaisy/src/hid/disp/display.h ****             if(sweep > 180)
 326:../../libdaisy/src/hid/disp/display.h ****                 circle = true;
 327:../../libdaisy/src/hid/disp/display.h ****             else
 328:../../libdaisy/src/hid/disp/display.h ****                 // Nothing to draw
 329:../../libdaisy/src/hid/disp/display.h ****                 return;
 330:../../libdaisy/src/hid/disp/display.h ****         }
 331:../../libdaisy/src/hid/disp/display.h **** 
 332:../../libdaisy/src/hid/disp/display.h ****         t_x = -radius;
 333:../../libdaisy/src/hid/disp/display.h ****         t_y = 0;
 334:../../libdaisy/src/hid/disp/display.h ****         err = 2 - 2 * radius;
 335:../../libdaisy/src/hid/disp/display.h **** 
 336:../../libdaisy/src/hid/disp/display.h ****         do
 337:../../libdaisy/src/hid/disp/display.h ****         {
 338:../../libdaisy/src/hid/disp/display.h ****             if(!circle)
 339:../../libdaisy/src/hid/disp/display.h ****             {
 340:../../libdaisy/src/hid/disp/display.h ****                 t_sxy  = start_x * t_y;
 341:../../libdaisy/src/hid/disp/display.h ****                 t_syx  = start_y * t_x;
 342:../../libdaisy/src/hid/disp/display.h ****                 t_sxny = start_x * -t_y;
 343:../../libdaisy/src/hid/disp/display.h ****                 t_synx = start_y * -t_x;
 344:../../libdaisy/src/hid/disp/display.h ****                 t_exy  = end_x * t_y;
 345:../../libdaisy/src/hid/disp/display.h ****                 t_eyx  = end_y * t_x;
 346:../../libdaisy/src/hid/disp/display.h ****                 t_exny = end_x * -t_y;
 347:../../libdaisy/src/hid/disp/display.h ****                 t_eynx = end_y * -t_x;
 348:../../libdaisy/src/hid/disp/display.h **** 
 349:../../libdaisy/src/hid/disp/display.h ****                 if(sweep > 180)
 350:../../libdaisy/src/hid/disp/display.h ****                 {
 351:../../libdaisy/src/hid/disp/display.h ****                     d1 = (t_sxy - t_synx < 0 || t_exy - t_eynx > 0);
 352:../../libdaisy/src/hid/disp/display.h ****                     d2 = (t_sxy - t_syx < 0 || t_exy - t_eyx > 0);
 353:../../libdaisy/src/hid/disp/display.h ****                     d3 = (t_sxny - t_syx < 0 || t_exny - t_eyx > 0);
 354:../../libdaisy/src/hid/disp/display.h ****                     d4 = (t_sxny - t_synx < 0 || t_exny - t_eynx > 0);
 355:../../libdaisy/src/hid/disp/display.h ****                 }
 356:../../libdaisy/src/hid/disp/display.h ****                 else
 357:../../libdaisy/src/hid/disp/display.h ****                 {
 358:../../libdaisy/src/hid/disp/display.h ****                     d1 = (t_sxy - t_synx < 0 && t_exy - t_eynx > 0);
 359:../../libdaisy/src/hid/disp/display.h ****                     d2 = (t_sxy - t_syx < 0 && t_exy - t_eyx > 0);
 360:../../libdaisy/src/hid/disp/display.h ****                     d3 = (t_sxny - t_syx < 0 && t_exny - t_eyx > 0);
 361:../../libdaisy/src/hid/disp/display.h ****                     d4 = (t_sxny - t_synx < 0 && t_exny - t_eynx > 0);
 362:../../libdaisy/src/hid/disp/display.h ****                 }
 363:../../libdaisy/src/hid/disp/display.h ****             }
ARM GAS  /tmp/ccPAoVZi.s 			page 37


 364:../../libdaisy/src/hid/disp/display.h **** 
 365:../../libdaisy/src/hid/disp/display.h ****             if(d1)
 366:../../libdaisy/src/hid/disp/display.h ****                 ((ChildType*)(this))
 367:../../libdaisy/src/hid/disp/display.h ****                     ->ChildType::DrawPixel(x - t_x, y + t_y, on);
 368:../../libdaisy/src/hid/disp/display.h ****             if(d2)
 369:../../libdaisy/src/hid/disp/display.h ****                 ((ChildType*)(this))
 370:../../libdaisy/src/hid/disp/display.h ****                     ->ChildType::DrawPixel(x + t_x, y + t_y, on);
 371:../../libdaisy/src/hid/disp/display.h ****             if(d3)
 372:../../libdaisy/src/hid/disp/display.h ****                 ((ChildType*)(this))
 373:../../libdaisy/src/hid/disp/display.h ****                     ->ChildType::DrawPixel(x + t_x, y - t_y, on);
 374:../../libdaisy/src/hid/disp/display.h ****             if(d4)
 375:../../libdaisy/src/hid/disp/display.h ****                 ((ChildType*)(this))
 376:../../libdaisy/src/hid/disp/display.h ****                     ->ChildType::DrawPixel(x - t_x, y - t_y, on);
 377:../../libdaisy/src/hid/disp/display.h **** 
 378:../../libdaisy/src/hid/disp/display.h ****             e2 = err;
 379:../../libdaisy/src/hid/disp/display.h ****             if(e2 <= t_y)
 380:../../libdaisy/src/hid/disp/display.h ****             {
 381:../../libdaisy/src/hid/disp/display.h ****                 t_y++;
 382:../../libdaisy/src/hid/disp/display.h ****                 err = err + (t_y * 2 + 1);
 383:../../libdaisy/src/hid/disp/display.h ****                 if(-t_x == t_y && e2 <= t_x)
 384:../../libdaisy/src/hid/disp/display.h ****                 {
 385:../../libdaisy/src/hid/disp/display.h ****                     e2 = 0;
 386:../../libdaisy/src/hid/disp/display.h ****                 }
 387:../../libdaisy/src/hid/disp/display.h ****             }
 388:../../libdaisy/src/hid/disp/display.h ****             if(e2 > t_x)
 389:../../libdaisy/src/hid/disp/display.h ****             {
 390:../../libdaisy/src/hid/disp/display.h ****                 t_x++;
 391:../../libdaisy/src/hid/disp/display.h ****                 err = err + (t_x * 2 + 1);
 392:../../libdaisy/src/hid/disp/display.h ****             }
 393:../../libdaisy/src/hid/disp/display.h ****         } while(t_x <= 0);
 394:../../libdaisy/src/hid/disp/display.h ****     }
 395:../../libdaisy/src/hid/disp/display.h **** 
 396:../../libdaisy/src/hid/disp/display.h ****     char WriteChar(char ch, FontDef font, bool on) override
 397:../../libdaisy/src/hid/disp/display.h ****     {
 398:../../libdaisy/src/hid/disp/display.h ****         uint32_t i, b, j;
 399:../../libdaisy/src/hid/disp/display.h **** 
 400:../../libdaisy/src/hid/disp/display.h ****         // Check if character is valid
 401:../../libdaisy/src/hid/disp/display.h ****         if(ch < 32 || ch > 126)
 402:../../libdaisy/src/hid/disp/display.h ****             return 0;
 403:../../libdaisy/src/hid/disp/display.h **** 
 404:../../libdaisy/src/hid/disp/display.h ****         // Check remaining space on current line
 405:../../libdaisy/src/hid/disp/display.h ****         if(Width() < (currentX_ + font.FontWidth)
 406:../../libdaisy/src/hid/disp/display.h ****            || Height() < (currentY_ + font.FontHeight))
 407:../../libdaisy/src/hid/disp/display.h ****         {
 408:../../libdaisy/src/hid/disp/display.h ****             // Not enough space on current line
 409:../../libdaisy/src/hid/disp/display.h ****             return 0;
 410:../../libdaisy/src/hid/disp/display.h ****         }
 411:../../libdaisy/src/hid/disp/display.h **** 
 412:../../libdaisy/src/hid/disp/display.h ****         // Use the font to write
 413:../../libdaisy/src/hid/disp/display.h ****         for(i = 0; i < font.FontHeight; i++)
 414:../../libdaisy/src/hid/disp/display.h ****         {
 415:../../libdaisy/src/hid/disp/display.h ****             b = font.data[(ch - 32) * font.FontHeight + i];
 416:../../libdaisy/src/hid/disp/display.h ****             for(j = 0; j < font.FontWidth; j++)
 417:../../libdaisy/src/hid/disp/display.h ****             {
 418:../../libdaisy/src/hid/disp/display.h ****                 if((b << j) & 0x8000)
 419:../../libdaisy/src/hid/disp/display.h ****                 {
 420:../../libdaisy/src/hid/disp/display.h ****                     ((ChildType*)(this))
ARM GAS  /tmp/ccPAoVZi.s 			page 38


 421:../../libdaisy/src/hid/disp/display.h ****                         ->ChildType::DrawPixel(
 422:../../libdaisy/src/hid/disp/display.h ****                             currentX_ + j, (currentY_ + i), on);
 423:../../libdaisy/src/hid/disp/display.h ****                 }
 424:../../libdaisy/src/hid/disp/display.h ****                 else
 425:../../libdaisy/src/hid/disp/display.h ****                 {
 426:../../libdaisy/src/hid/disp/display.h ****                     ((ChildType*)(this))
 427:../../libdaisy/src/hid/disp/display.h ****                         ->ChildType::DrawPixel(
 428:../../libdaisy/src/hid/disp/display.h ****                             currentX_ + j, (currentY_ + i), !on);
 429:../../libdaisy/src/hid/disp/display.h ****                 }
 430:../../libdaisy/src/hid/disp/display.h ****             }
 431:../../libdaisy/src/hid/disp/display.h ****         }
 432:../../libdaisy/src/hid/disp/display.h **** 
 433:../../libdaisy/src/hid/disp/display.h ****         // The current space is now taken
 434:../../libdaisy/src/hid/disp/display.h ****         SetCursor(currentX_ + font.FontWidth, currentY_);
 435:../../libdaisy/src/hid/disp/display.h **** 
 436:../../libdaisy/src/hid/disp/display.h ****         // Return written char for validation
 437:../../libdaisy/src/hid/disp/display.h ****         return ch;
 438:../../libdaisy/src/hid/disp/display.h ****     }
 439:../../libdaisy/src/hid/disp/display.h **** 
 440:../../libdaisy/src/hid/disp/display.h ****     char WriteString(const char* str, FontDef font, bool on) override
 714              		.loc 6 440 10 is_stmt 1 view -0
 715              		.cfi_startproc
 716              		@ args = 4, pretend = 0, frame = 32
 717              		@ frame_needed = 0, uses_anonymous_args = 0
 718              		.loc 6 440 10 is_stmt 0 view .LVU161
 719 0000 2DE9F04F 		push	{r4, r5, r6, r7, r8, r9, r10, fp, lr}
 720              		.cfi_def_cfa_offset 36
 721              		.cfi_offset 4, -36
 722              		.cfi_offset 5, -32
 723              		.cfi_offset 6, -28
 724              		.cfi_offset 7, -24
 725              		.cfi_offset 8, -20
 726              		.cfi_offset 9, -16
 727              		.cfi_offset 10, -12
 728              		.cfi_offset 11, -8
 729              		.cfi_offset 14, -4
 730 0004 89B0     		sub	sp, sp, #36
 731              		.cfi_def_cfa_offset 72
 732              		.loc 6 440 10 view .LVU162
 733 0006 8B46     		mov	fp, r1
 441:../../libdaisy/src/hid/disp/display.h ****     {
 442:../../libdaisy/src/hid/disp/display.h ****         // Write until null-byte
 443:../../libdaisy/src/hid/disp/display.h ****         while(*str)
 734              		.loc 6 443 9 is_stmt 1 view .LVU163
 735 0008 91F80090 		ldrb	r9, [r1]	@ zero_extendqisi2
 440:../../libdaisy/src/hid/disp/display.h ****     {
 736              		.loc 6 440 10 is_stmt 0 view .LVU164
 737 000c 9DF84840 		ldrb	r4, [sp, #72]	@ zero_extendqisi2
 738 0010 08A9     		add	r1, sp, #32
 739              	.LVL54:
 440:../../libdaisy/src/hid/disp/display.h ****     {
 740              		.loc 6 440 10 view .LVU165
 741 0012 0494     		str	r4, [sp, #16]
 742 0014 01E90C00 		stmdb	r1, {r2, r3}
 743              		.loc 6 443 9 view .LVU166
 744 0018 B9F1000F 		cmp	r9, #0
 745 001c 00F0B780 		beq	.L51
ARM GAS  /tmp/ccPAoVZi.s 			page 39


 746 0020 9DF81930 		ldrb	r3, [sp, #25]	@ zero_extendqisi2
 747 0024 8046     		mov	r8, r0
 748 0026 9DF818A0 		ldrb	r10, [sp, #24]	@ zero_extendqisi2
 749 002a 4D46     		mov	r5, r9
 750 002c 0193     		str	r3, [sp, #4]
 751 002e 079B     		ldr	r3, [sp, #28]
 752 0030 0593     		str	r3, [sp, #20]
 753              	.LVL55:
 754              	.L52:
 755              	.LBB703:
 756              	.LBI703:
 396:../../libdaisy/src/hid/disp/display.h ****     {
 757              		.loc 6 396 10 is_stmt 1 view .LVU167
 758              	.LBB704:
 401:../../libdaisy/src/hid/disp/display.h ****             return 0;
 759              		.loc 6 401 20 is_stmt 0 view .LVU168
 760 0032 A5F12004 		sub	r4, r5, #32
 401:../../libdaisy/src/hid/disp/display.h ****             return 0;
 761              		.loc 6 401 9 view .LVU169
 762 0036 E3B2     		uxtb	r3, r4
 763 0038 5E2B     		cmp	r3, #94
 764 003a 00F2AC80 		bhi	.L33
 405:../../libdaisy/src/hid/disp/display.h ****            || Height() < (currentY_ + font.FontHeight))
 765              		.loc 6 405 17 view .LVU170
 766 003e D8F80030 		ldr	r3, [r8]
 767 0042 654A     		ldr	r2, .L73
 768 0044 DB68     		ldr	r3, [r3, #12]
 769 0046 9342     		cmp	r3, r2
 770 0048 40F0A780 		bne	.L66
 771 004c 8020     		movs	r0, #128
 772              	.L32:
 405:../../libdaisy/src/hid/disp/display.h ****            || Height() < (currentY_ + font.FontHeight))
 773              		.loc 6 405 23 view .LVU171
 774 004e B8F80430 		ldrh	r3, [r8, #4]
 405:../../libdaisy/src/hid/disp/display.h ****            || Height() < (currentY_ + font.FontHeight))
 775              		.loc 6 405 33 view .LVU172
 776 0052 5344     		add	r3, r3, r10
 406:../../libdaisy/src/hid/disp/display.h ****         {
 777              		.loc 6 406 12 view .LVU173
 778 0054 8342     		cmp	r3, r0
 779 0056 00F39E80 		bgt	.L33
 406:../../libdaisy/src/hid/disp/display.h ****         {
 780              		.loc 6 406 21 view .LVU174
 781 005a D8F80030 		ldr	r3, [r8]
 782 005e 5F4A     		ldr	r2, .L73+4
 783 0060 9B68     		ldr	r3, [r3, #8]
 784 0062 9342     		cmp	r3, r2
 785 0064 40F09C80 		bne	.L67
 786 0068 4020     		movs	r0, #64
 787              	.L34:
 406:../../libdaisy/src/hid/disp/display.h ****         {
 788              		.loc 6 406 27 view .LVU175
 789 006a B8F80610 		ldrh	r1, [r8, #6]
 406:../../libdaisy/src/hid/disp/display.h ****         {
 790              		.loc 6 406 37 view .LVU176
 791 006e 019A     		ldr	r2, [sp, #4]
 406:../../libdaisy/src/hid/disp/display.h ****         {
ARM GAS  /tmp/ccPAoVZi.s 			page 40


 792              		.loc 6 406 27 view .LVU177
 793 0070 0091     		str	r1, [sp]
 406:../../libdaisy/src/hid/disp/display.h ****         {
 794              		.loc 6 406 37 view .LVU178
 795 0072 8B18     		adds	r3, r1, r2
 406:../../libdaisy/src/hid/disp/display.h ****         {
 796              		.loc 6 406 12 view .LVU179
 797 0074 8342     		cmp	r3, r0
 798 0076 00F38E80 		bgt	.L33
 799              	.LVL56:
 413:../../libdaisy/src/hid/disp/display.h ****         {
 800              		.loc 6 413 22 is_stmt 1 view .LVU180
 801 007a 1046     		mov	r0, r2
 802 007c 002A     		cmp	r2, #0
 803 007e 00F09A80 		beq	.L35
 415:../../libdaisy/src/hid/disp/display.h ****             for(j = 0; j < font.FontWidth; j++)
 804              		.loc 6 415 37 is_stmt 0 view .LVU181
 805 0082 1346     		mov	r3, r2
 806 0084 6FF00046 		mvn	r6, #-2147483648
 807 0088 B8F80470 		ldrh	r7, [r8, #4]
 808 008c 03FB04F3 		mul	r3, r3, r4
 809 0090 059C     		ldr	r4, [sp, #20]
 810 0092 BE46     		mov	lr, r7
 811 0094 CDF80CB0 		str	fp, [sp, #12]
 812 0098 1E44     		add	r6, r6, r3
 813 009a A21E     		subs	r2, r4, #2
 814 009c 0344     		add	r3, r3, r0
 815 009e 5746     		mov	r7, r10
 816 00a0 04EB4606 		add	r6, r4, r6, lsl #1
 817 00a4 DDF81090 		ldr	r9, [sp, #16]
 818 00a8 02EB4303 		add	r3, r2, r3, lsl #1
 819 00ac 0295     		str	r5, [sp, #8]
 820 00ae 9B46     		mov	fp, r3
 821              	.LVL57:
 822              	.L38:
 415:../../libdaisy/src/hid/disp/display.h ****             for(j = 0; j < font.FontWidth; j++)
 823              		.loc 6 415 13 view .LVU182
 824 00b0 36F802AF 		ldrh	r10, [r6, #2]!
 825              	.LVL58:
 416:../../libdaisy/src/hid/disp/display.h ****             {
 826              		.loc 6 416 26 is_stmt 1 view .LVU183
 827 00b4 A7B3     		cbz	r7, .L43
 828              	.LBB705:
 829              	.LBB706:
 830              	.LBB707:
 831              	.LBB708:
 832              	.LBB709:
 246:../../libdaisy/src/dev/oled_ssd130x.h ****     }
 833              		.loc 15 246 49 is_stmt 0 view .LVU184
 834 00b6 0124     		movs	r4, #1
 246:../../libdaisy/src/dev/oled_ssd130x.h ****     }
 835              		.loc 15 246 55 view .LVU185
 836 00b8 01F00702 		and	r2, r1, #7
 246:../../libdaisy/src/dev/oled_ssd130x.h ****     }
 837              		.loc 15 246 28 view .LVU186
 838 00bc C808     		lsrs	r0, r1, #3
 839 00be 0EF11403 		add	r3, lr, #20
ARM GAS  /tmp/ccPAoVZi.s 			page 41


 246:../../libdaisy/src/dev/oled_ssd130x.h ****     }
 840              		.loc 15 246 49 view .LVU187
 841 00c2 04FA02F2 		lsl	r2, r4, r2
 842 00c6 7446     		mov	r4, lr
 843 00c8 03EBC013 		add	r3, r3, r0, lsl #7
 844              	.LBE709:
 845              	.LBE708:
 846              	.LBE707:
 847              	.LBE706:
 848              	.LBE705:
 416:../../libdaisy/src/hid/disp/display.h ****             {
 849              		.loc 6 416 19 view .LVU188
 850 00cc 0020     		movs	r0, #0
 851              	.LBB727:
 852              	.LBB722:
 853              	.LBB717:
 854              	.LBB713:
 855              	.LBB710:
 246:../../libdaisy/src/dev/oled_ssd130x.h ****     }
 856              		.loc 15 246 42 view .LVU189
 857 00ce 52B2     		sxtb	r2, r2
 858 00d0 4344     		add	r3, r3, r8
 859 00d2 6FEA020C 		mvn	ip, r2
 860 00d6 0EE0     		b	.L44
 861              	.LVL59:
 862              	.L68:
 246:../../libdaisy/src/dev/oled_ssd130x.h ****     }
 863              		.loc 15 246 42 view .LVU190
 864              	.LBE710:
 865              	.LBE713:
 866              	.LBE717:
 867              	.LBE722:
 868              	.LBE727:
 869              	.LBB728:
 870              	.LBI728:
  41:../../libdaisy/src/hid/disp/oled_display.h ****     {
 871              		.loc 5 41 10 is_stmt 1 view .LVU191
 872              	.LBB729:
 873              	.LBI729:
 239:../../libdaisy/src/dev/oled_ssd130x.h ****     {
 874              		.loc 15 239 10 view .LVU192
 875              	.LBB730:
 241:../../libdaisy/src/dev/oled_ssd130x.h ****             return;
 876              		.loc 15 241 9 is_stmt 0 view .LVU193
 877 00d8 7F2C     		cmp	r4, #127
 878 00da 07D8     		bhi	.L40
 879 00dc 3F29     		cmp	r1, #63
 880 00de 05D8     		bhi	.L40
 244:../../libdaisy/src/dev/oled_ssd130x.h ****         else
 881              		.loc 15 244 42 view .LVU194
 882 00e0 1D78     		ldrb	r5, [r3]	@ zero_extendqisi2
 243:../../libdaisy/src/dev/oled_ssd130x.h ****             buffer_[x + (y / 8) * width] |= (1 << (y % 8));
 883              		.loc 15 243 9 view .LVU195
 884 00e2 B9F1000F 		cmp	r9, #0
 885 00e6 12D0     		beq	.L42
 886              	.L65:
 243:../../libdaisy/src/dev/oled_ssd130x.h ****             buffer_[x + (y / 8) * width] |= (1 << (y % 8));
ARM GAS  /tmp/ccPAoVZi.s 			page 42


 887              		.loc 15 243 9 view .LVU196
 888              	.LBE730:
 889              	.LBE729:
 890              	.LBE728:
 891              	.LBB731:
 892              	.LBB723:
 893              	.LBB718:
 244:../../libdaisy/src/dev/oled_ssd130x.h ****         else
 894              		.loc 15 244 42 view .LVU197
 895 00e8 1543     		orrs	r5, r5, r2
 244:../../libdaisy/src/dev/oled_ssd130x.h ****         else
 896              		.loc 15 244 13 view .LVU198
 897 00ea 1D70     		strb	r5, [r3]
 898              	.L40:
 899              	.LBE718:
 900              	.LBE723:
 901              	.LBE731:
 416:../../libdaisy/src/hid/disp/display.h ****             {
 902              		.loc 6 416 13 is_stmt 1 view .LVU199
 903 00ec 0130     		adds	r0, r0, #1
 904              	.LVL60:
 416:../../libdaisy/src/hid/disp/display.h ****             {
 905              		.loc 6 416 26 view .LVU200
 906 00ee 0133     		adds	r3, r3, #1
 907 00f0 0134     		adds	r4, r4, #1
 908 00f2 B842     		cmp	r0, r7
 909 00f4 14D0     		beq	.L43
 910              	.LVL61:
 911              	.L44:
 418:../../libdaisy/src/hid/disp/display.h ****                 {
 912              		.loc 6 418 23 is_stmt 0 view .LVU201
 913 00f6 0AFA00F5 		lsl	r5, r10, r0
 418:../../libdaisy/src/hid/disp/display.h ****                 {
 914              		.loc 6 418 17 view .LVU202
 915 00fa 2D04     		lsls	r5, r5, #16
 916 00fc ECD4     		bmi	.L68
 917              	.LVL62:
 918              	.LBB732:
 919              	.LBI705:
  41:../../libdaisy/src/hid/disp/oled_display.h ****     {
 920              		.loc 5 41 10 is_stmt 1 view .LVU203
 921              	.LBB724:
 922              	.LBI706:
 239:../../libdaisy/src/dev/oled_ssd130x.h ****     {
 923              		.loc 15 239 10 view .LVU204
 924              	.LBB719:
 241:../../libdaisy/src/dev/oled_ssd130x.h ****             return;
 925              		.loc 15 241 9 is_stmt 0 view .LVU205
 926 00fe 7F2C     		cmp	r4, #127
 927 0100 F4D8     		bhi	.L40
 928 0102 3F29     		cmp	r1, #63
 929 0104 F2D8     		bhi	.L40
 244:../../libdaisy/src/dev/oled_ssd130x.h ****         else
 930              		.loc 15 244 42 view .LVU206
 931 0106 1D78     		ldrb	r5, [r3]	@ zero_extendqisi2
 243:../../libdaisy/src/dev/oled_ssd130x.h ****             buffer_[x + (y / 8) * width] |= (1 << (y % 8));
 932              		.loc 15 243 9 view .LVU207
ARM GAS  /tmp/ccPAoVZi.s 			page 43


 933 0108 B9F1000F 		cmp	r9, #0
 934 010c ECD0     		beq	.L65
 935              	.L42:
 936              	.LVL63:
 937              	.LBB714:
 938              	.LBI708:
 239:../../libdaisy/src/dev/oled_ssd130x.h ****     {
 939              		.loc 15 239 10 is_stmt 1 view .LVU208
 239:../../libdaisy/src/dev/oled_ssd130x.h ****     {
 940              		.loc 15 239 10 is_stmt 0 view .LVU209
 941              	.LBE714:
 942              	.LBE719:
 943              	.LBE724:
 944              	.LBE732:
 416:../../libdaisy/src/hid/disp/display.h ****             {
 945              		.loc 6 416 13 view .LVU210
 946 010e 0130     		adds	r0, r0, #1
 947              	.LVL64:
 948              	.LBB733:
 949              	.LBB725:
 950              	.LBB720:
 951              	.LBB715:
 952              	.LBB711:
 246:../../libdaisy/src/dev/oled_ssd130x.h ****     }
 953              		.loc 15 246 42 view .LVU211
 954 0110 0CEA0505 		and	r5, ip, r5
 955 0114 0133     		adds	r3, r3, #1
 956 0116 0134     		adds	r4, r4, #1
 957              	.LBE711:
 958              	.LBE715:
 959              	.LBE720:
 960              	.LBE725:
 961              	.LBE733:
 416:../../libdaisy/src/hid/disp/display.h ****             {
 962              		.loc 6 416 26 view .LVU212
 963 0118 B842     		cmp	r0, r7
 964              	.LBB734:
 965              	.LBB726:
 966              	.LBB721:
 967              	.LBB716:
 968              	.LBB712:
 246:../../libdaisy/src/dev/oled_ssd130x.h ****     }
 969              		.loc 15 246 13 view .LVU213
 970 011a 03F8015C 		strb	r5, [r3, #-1]
 246:../../libdaisy/src/dev/oled_ssd130x.h ****     }
 971              		.loc 15 246 13 view .LVU214
 972              	.LBE712:
 973              	.LBE716:
 974              	.LBE721:
 975              	.LBE726:
 976              	.LBE734:
 416:../../libdaisy/src/hid/disp/display.h ****             {
 977              		.loc 6 416 13 is_stmt 1 view .LVU215
 978              	.LVL65:
 416:../../libdaisy/src/hid/disp/display.h ****             {
 979              		.loc 6 416 26 view .LVU216
 980 011e EAD1     		bne	.L44
ARM GAS  /tmp/ccPAoVZi.s 			page 44


 981              	.LVL66:
 982              	.L43:
 413:../../libdaisy/src/hid/disp/display.h ****         {
 983              		.loc 6 413 9 view .LVU217
 413:../../libdaisy/src/hid/disp/display.h ****         {
 984              		.loc 6 413 22 view .LVU218
 985 0120 5E45     		cmp	r6, fp
 986 0122 01F10101 		add	r1, r1, #1
 987 0126 C3D1     		bne	.L38
 988 0128 BA46     		mov	r10, r7
 989              	.LVL67:
 413:../../libdaisy/src/hid/disp/display.h ****         {
 990              		.loc 6 413 22 is_stmt 0 view .LVU219
 991 012a 029D     		ldr	r5, [sp, #8]
 992 012c 7746     		mov	r7, lr
 993 012e DDF80CB0 		ldr	fp, [sp, #12]
 994              	.L37:
 995              	.LBB735:
 996              	.LBB736:
 173:../../libdaisy/src/hid/disp/display.h ****         currentY_ = (y >= Height()) ? Height() - 1 : y;
 997              		.loc 6 173 33 view .LVU220
 998 0132 D8F80020 		ldr	r2, [r8]
 999              	.LBE736:
 1000              	.LBE735:
 434:../../libdaisy/src/hid/disp/display.h **** 
 1001              		.loc 6 434 18 view .LVU221
 1002 0136 5744     		add	r7, r7, r10
 1003 0138 2749     		ldr	r1, .L73
 1004              	.LBB740:
 1005              	.LBB737:
 173:../../libdaisy/src/hid/disp/display.h ****         currentY_ = (y >= Height()) ? Height() - 1 : y;
 1006              		.loc 6 173 33 view .LVU222
 1007 013a D368     		ldr	r3, [r2, #12]
 1008              	.LBE737:
 1009              	.LBE740:
 434:../../libdaisy/src/hid/disp/display.h **** 
 1010              		.loc 6 434 18 view .LVU223
 1011 013c BFB2     		uxth	r7, r7
 1012              	.LVL68:
 1013              	.LBB741:
 1014              	.LBI735:
 171:../../libdaisy/src/hid/disp/display.h ****     {
 1015              		.loc 6 171 10 is_stmt 1 view .LVU224
 1016              	.LBB738:
 173:../../libdaisy/src/hid/disp/display.h ****         currentY_ = (y >= Height()) ? Height() - 1 : y;
 1017              		.loc 6 173 9 view .LVU225
 1018 013e 8B42     		cmp	r3, r1
 1019 0140 34D1     		bne	.L69
 173:../../libdaisy/src/hid/disp/display.h ****         currentY_ = (y >= Height()) ? Height() - 1 : y;
 1020              		.loc 6 173 33 is_stmt 0 view .LVU226
 1021 0142 8020     		movs	r0, #128
 1022              	.L45:
 173:../../libdaisy/src/hid/disp/display.h ****         currentY_ = (y >= Height()) ? Height() - 1 : y;
 1023              		.loc 6 173 19 view .LVU227
 1024 0144 8742     		cmp	r7, r0
 1025 0146 04D3     		bcc	.L46
 173:../../libdaisy/src/hid/disp/display.h ****         currentY_ = (y >= Height()) ? Height() - 1 : y;
ARM GAS  /tmp/ccPAoVZi.s 			page 45


 1026              		.loc 6 173 44 view .LVU228
 1027 0148 D368     		ldr	r3, [r2, #12]
 1028 014a 2349     		ldr	r1, .L73
 1029 014c 8B42     		cmp	r3, r1
 1030 014e 3BD1     		bne	.L70
 1031 0150 7F27     		movs	r7, #127
 1032              	.LVL69:
 1033              	.L46:
 174:../../libdaisy/src/hid/disp/display.h ****     }
 1034              		.loc 6 174 34 view .LVU229
 1035 0152 9368     		ldr	r3, [r2, #8]
 1036 0154 214A     		ldr	r2, .L73+4
 173:../../libdaisy/src/hid/disp/display.h ****         currentY_ = (y >= Height()) ? Height() - 1 : y;
 1037              		.loc 6 173 19 view .LVU230
 1038 0156 A8F80470 		strh	r7, [r8, #4]	@ movhi
 174:../../libdaisy/src/hid/disp/display.h ****     }
 1039              		.loc 6 174 9 is_stmt 1 view .LVU231
 1040 015a 9342     		cmp	r3, r2
 1041 015c 23D1     		bne	.L71
 174:../../libdaisy/src/hid/disp/display.h ****     }
 1042              		.loc 6 174 34 is_stmt 0 view .LVU232
 1043 015e 4020     		movs	r0, #64
 1044              	.L48:
 174:../../libdaisy/src/hid/disp/display.h ****     }
 1045              		.loc 6 174 19 view .LVU233
 1046 0160 009B     		ldr	r3, [sp]
 1047 0162 8342     		cmp	r3, r0
 1048 0164 07D3     		bcc	.L49
 174:../../libdaisy/src/hid/disp/display.h ****     }
 1049              		.loc 6 174 46 view .LVU234
 1050 0166 D8F80030 		ldr	r3, [r8]
 1051 016a 1C4A     		ldr	r2, .L73+4
 1052 016c 9B68     		ldr	r3, [r3, #8]
 1053 016e 9342     		cmp	r3, r2
 1054 0170 24D1     		bne	.L72
 1055 0172 3F23     		movs	r3, #63
 1056 0174 0093     		str	r3, [sp]
 1057              	.LVL70:
 1058              	.L49:
 174:../../libdaisy/src/hid/disp/display.h ****     }
 1059              		.loc 6 174 19 view .LVU235
 1060 0176 009B     		ldr	r3, [sp]
 1061 0178 A8F80630 		strh	r3, [r8, #6]	@ movhi
 1062              	.LVL71:
 1063              	.L31:
 174:../../libdaisy/src/hid/disp/display.h ****     }
 1064              		.loc 6 174 19 view .LVU236
 1065              	.LBE738:
 1066              	.LBE741:
 1067              	.LBE704:
 1068              	.LBE703:
 444:../../libdaisy/src/hid/disp/display.h ****         {
 445:../../libdaisy/src/hid/disp/display.h ****             if(((ChildType*)(this))->ChildType::WriteChar(*str, font, on)
 446:../../libdaisy/src/hid/disp/display.h ****                != *str)
 1069              		.loc 6 446 16 view .LVU237
 1070 017c 9BF80000 		ldrb	r0, [fp]	@ zero_extendqisi2
 445:../../libdaisy/src/hid/disp/display.h ****                != *str)
ARM GAS  /tmp/ccPAoVZi.s 			page 46


 1071              		.loc 6 445 13 view .LVU238
 1072 0180 A842     		cmp	r0, r5
 1073 0182 05D1     		bne	.L29
 1074              	.LVL72:
 443:../../libdaisy/src/hid/disp/display.h ****         {
 1075              		.loc 6 443 9 is_stmt 1 view .LVU239
 1076 0184 1BF8015F 		ldrb	r5, [fp, #1]!	@ zero_extendqisi2
 1077              	.LVL73:
 443:../../libdaisy/src/hid/disp/display.h ****         {
 1078              		.loc 6 443 9 is_stmt 0 view .LVU240
 1079 0188 002D     		cmp	r5, #0
 1080 018a 7FF452AF 		bne	.L52
 1081              	.LVL74:
 1082              	.L51:
 1083              	.LBB745:
 1084              	.LBB743:
 402:../../libdaisy/src/hid/disp/display.h **** 
 1085              		.loc 6 402 20 view .LVU241
 1086 018e 0020     		movs	r0, #0
 1087              	.LVL75:
 1088              	.L29:
 402:../../libdaisy/src/hid/disp/display.h **** 
 1089              		.loc 6 402 20 view .LVU242
 1090              	.LBE743:
 1091              	.LBE745:
 447:../../libdaisy/src/hid/disp/display.h ****             {
 448:../../libdaisy/src/hid/disp/display.h ****                 // Char could not be written
 449:../../libdaisy/src/hid/disp/display.h ****                 return *str;
 450:../../libdaisy/src/hid/disp/display.h ****             }
 451:../../libdaisy/src/hid/disp/display.h **** 
 452:../../libdaisy/src/hid/disp/display.h ****             // Next char
 453:../../libdaisy/src/hid/disp/display.h ****             str++;
 454:../../libdaisy/src/hid/disp/display.h ****         }
 455:../../libdaisy/src/hid/disp/display.h **** 
 456:../../libdaisy/src/hid/disp/display.h ****         // Everything ok
 457:../../libdaisy/src/hid/disp/display.h ****         return *str;
 458:../../libdaisy/src/hid/disp/display.h ****     }
 1092              		.loc 6 458 5 view .LVU243
 1093 0190 09B0     		add	sp, sp, #36
 1094              		.cfi_remember_state
 1095              		.cfi_def_cfa_offset 36
 1096              		@ sp needed
 1097 0192 BDE8F08F 		pop	{r4, r5, r6, r7, r8, r9, r10, fp, pc}
 1098              	.LVL76:
 1099              	.L33:
 1100              		.cfi_restore_state
 1101              	.LBB746:
 1102              	.LBB744:
 402:../../libdaisy/src/hid/disp/display.h **** 
 1103              		.loc 6 402 20 view .LVU244
 1104 0196 0025     		movs	r5, #0
 1105              	.LVL77:
 402:../../libdaisy/src/hid/disp/display.h **** 
 1106              		.loc 6 402 20 view .LVU245
 1107 0198 F0E7     		b	.L31
 1108              	.LVL78:
 1109              	.L66:
ARM GAS  /tmp/ccPAoVZi.s 			page 47


 405:../../libdaisy/src/hid/disp/display.h ****            || Height() < (currentY_ + font.FontHeight))
 1110              		.loc 6 405 17 view .LVU246
 1111 019a 4046     		mov	r0, r8
 1112 019c 9847     		blx	r3
 1113              	.LVL79:
 1114 019e 56E7     		b	.L32
 1115              	.L67:
 406:../../libdaisy/src/hid/disp/display.h ****         {
 1116              		.loc 6 406 21 view .LVU247
 1117 01a0 4046     		mov	r0, r8
 1118 01a2 9847     		blx	r3
 1119              	.LVL80:
 1120 01a4 61E7     		b	.L34
 1121              	.LVL81:
 1122              	.L71:
 1123              	.LBB742:
 1124              	.LBB739:
 174:../../libdaisy/src/hid/disp/display.h ****     }
 1125              		.loc 6 174 33 view .LVU248
 1126 01a6 4046     		mov	r0, r8
 1127 01a8 9847     		blx	r3
 1128              	.LVL82:
 1129 01aa D9E7     		b	.L48
 1130              	.LVL83:
 1131              	.L69:
 173:../../libdaisy/src/hid/disp/display.h ****         currentY_ = (y >= Height()) ? Height() - 1 : y;
 1132              		.loc 6 173 32 view .LVU249
 1133 01ac 4046     		mov	r0, r8
 1134 01ae 9847     		blx	r3
 1135              	.LVL84:
 1136 01b0 D8F80020 		ldr	r2, [r8]
 1137 01b4 C6E7     		b	.L45
 1138              	.LVL85:
 1139              	.L35:
 173:../../libdaisy/src/hid/disp/display.h ****         currentY_ = (y >= Height()) ? Height() - 1 : y;
 1140              		.loc 6 173 32 view .LVU250
 1141 01b6 B8F80470 		ldrh	r7, [r8, #4]
 1142 01ba BAE7     		b	.L37
 1143              	.LVL86:
 1144              	.L72:
 174:../../libdaisy/src/hid/disp/display.h ****     }
 1145              		.loc 6 174 45 view .LVU251
 1146 01bc 4046     		mov	r0, r8
 1147 01be 9847     		blx	r3
 1148              	.LVL87:
 1149 01c0 0138     		subs	r0, r0, #1
 1150 01c2 83B2     		uxth	r3, r0
 1151 01c4 0093     		str	r3, [sp]
 1152              	.LVL88:
 174:../../libdaisy/src/hid/disp/display.h ****     }
 1153              		.loc 6 174 45 view .LVU252
 1154 01c6 D6E7     		b	.L49
 1155              	.LVL89:
 1156              	.L70:
 173:../../libdaisy/src/hid/disp/display.h ****         currentY_ = (y >= Height()) ? Height() - 1 : y;
 1157              		.loc 6 173 43 view .LVU253
 1158 01c8 4046     		mov	r0, r8
ARM GAS  /tmp/ccPAoVZi.s 			page 48


 1159 01ca 9847     		blx	r3
 1160              	.LVL90:
 1161 01cc 0138     		subs	r0, r0, #1
 1162 01ce D8F80020 		ldr	r2, [r8]
 1163 01d2 87B2     		uxth	r7, r0
 1164              	.LVL91:
 173:../../libdaisy/src/hid/disp/display.h ****         currentY_ = (y >= Height()) ? Height() - 1 : y;
 1165              		.loc 6 173 43 view .LVU254
 1166 01d4 BDE7     		b	.L46
 1167              	.L74:
 1168 01d6 00BF     		.align	2
 1169              	.L73:
 1170 01d8 00000000 		.word	_ZNK5daisy11OledDisplayINS_13SSD130xDriverILj128ELj64ENS_24SSD130x4WireSpiTransportEEEE5Widt
 1171 01dc 00000000 		.word	_ZNK5daisy11OledDisplayINS_13SSD130xDriverILj128ELj64ENS_24SSD130x4WireSpiTransportEEEE6Heig
 1172              	.LBE739:
 1173              	.LBE742:
 1174              	.LBE744:
 1175              	.LBE746:
 1176              		.cfi_endproc
 1177              	.LFE4553:
 1179              		.section	.text._ZN5daisy11OledDisplayINS_13SSD130xDriverILj128ELj64ENS_24SSD130x4WireSpiTransportE
 1180              		.align	1
 1181              		.p2align 2,,3
 1182              		.weak	_ZN5daisy11OledDisplayINS_13SSD130xDriverILj128ELj64ENS_24SSD130x4WireSpiTransportEEEE9DrawP
 1183              		.syntax unified
 1184              		.thumb
 1185              		.thumb_func
 1186              		.fpu fpv5-d16
 1188              	_ZN5daisy11OledDisplayINS_13SSD130xDriverILj128ELj64ENS_24SSD130x4WireSpiTransportEEEE9DrawPixelEjj
 1189              	.LVL92:
 1190              	.LFB4720:
  41:../../libdaisy/src/hid/disp/oled_display.h ****     {
 1191              		.loc 5 41 10 is_stmt 1 view -0
 1192              		.cfi_startproc
 1193              		@ args = 0, pretend = 0, frame = 0
 1194              		@ frame_needed = 0, uses_anonymous_args = 0
 1195              		@ link register save eliminated.
 1196              	.LBB751:
 1197              	.LBI751:
 239:../../libdaisy/src/dev/oled_ssd130x.h ****     {
 1198              		.loc 15 239 10 view .LVU256
 1199              	.LBB752:
 241:../../libdaisy/src/dev/oled_ssd130x.h ****             return;
 1200              		.loc 15 241 9 is_stmt 0 view .LVU257
 1201 0000 7F29     		cmp	r1, #127
 1202 0002 21D8     		bhi	.L79
 1203 0004 3F2A     		cmp	r2, #63
 1204 0006 1FD8     		bhi	.L79
 1205              	.LBE752:
 1206              	.LBE751:
  41:../../libdaisy/src/hid/disp/oled_display.h ****     {
 1207              		.loc 5 41 10 view .LVU258
 1208 0008 10B4     		push	{r4}
 1209              		.cfi_def_cfa_offset 4
 1210              		.cfi_offset 4, -4
 1211              	.LBB757:
 1212              	.LBB755:
ARM GAS  /tmp/ccPAoVZi.s 			page 49


 243:../../libdaisy/src/dev/oled_ssd130x.h ****             buffer_[x + (y / 8) * width] |= (1 << (y % 8));
 1213              		.loc 15 243 9 view .LVU259
 1214 000a 73B9     		cbnz	r3, .L82
 1215              	.LVL93:
 1216              	.LBB753:
 1217              	.LBI753:
 239:../../libdaisy/src/dev/oled_ssd130x.h ****     {
 1218              		.loc 15 239 10 is_stmt 1 view .LVU260
 1219              	.LBB754:
 246:../../libdaisy/src/dev/oled_ssd130x.h ****     }
 1220              		.loc 15 246 28 is_stmt 0 view .LVU261
 1221 000c D308     		lsrs	r3, r2, #3
 1222              	.LVL94:
 246:../../libdaisy/src/dev/oled_ssd130x.h ****     }
 1223              		.loc 15 246 49 view .LVU262
 1224 000e 0124     		movs	r4, #1
 246:../../libdaisy/src/dev/oled_ssd130x.h ****     }
 1225              		.loc 15 246 55 view .LVU263
 1226 0010 02F00702 		and	r2, r2, #7
 1227              	.LVL95:
 246:../../libdaisy/src/dev/oled_ssd130x.h ****     }
 1228              		.loc 15 246 42 view .LVU264
 1229 0014 01EBC313 		add	r3, r1, r3, lsl #7
 246:../../libdaisy/src/dev/oled_ssd130x.h ****     }
 1230              		.loc 15 246 49 view .LVU265
 1231 0018 9440     		lsls	r4, r4, r2
 246:../../libdaisy/src/dev/oled_ssd130x.h ****     }
 1232              		.loc 15 246 13 view .LVU266
 1233 001a C118     		adds	r1, r0, r3
 1234              	.LVL96:
 246:../../libdaisy/src/dev/oled_ssd130x.h ****     }
 1235              		.loc 15 246 42 view .LVU267
 1236 001c 0A7D     		ldrb	r2, [r1, #20]	@ zero_extendqisi2
 1237 001e 22EA0402 		bic	r2, r2, r4
 246:../../libdaisy/src/dev/oled_ssd130x.h ****     }
 1238              		.loc 15 246 13 view .LVU268
 1239 0022 0A75     		strb	r2, [r1, #20]
 1240              	.LVL97:
 246:../../libdaisy/src/dev/oled_ssd130x.h ****     }
 1241              		.loc 15 246 13 view .LVU269
 1242              	.LBE754:
 1243              	.LBE753:
 1244              	.LBE755:
 1245              	.LBE757:
  44:../../libdaisy/src/hid/disp/oled_display.h **** 
 1246              		.loc 5 44 5 view .LVU270
 1247 0024 5DF8044B 		ldr	r4, [sp], #4
 1248              		.cfi_remember_state
 1249              		.cfi_restore 4
 1250              		.cfi_def_cfa_offset 0
 1251 0028 7047     		bx	lr
 1252              	.LVL98:
 1253              	.L82:
 1254              		.cfi_restore_state
 1255              	.LBB758:
 1256              	.LBB756:
 244:../../libdaisy/src/dev/oled_ssd130x.h ****         else
ARM GAS  /tmp/ccPAoVZi.s 			page 50


 1257              		.loc 15 244 28 view .LVU271
 1258 002a D408     		lsrs	r4, r2, #3
 244:../../libdaisy/src/dev/oled_ssd130x.h ****         else
 1259              		.loc 15 244 48 view .LVU272
 1260 002c 0123     		movs	r3, #1
 1261              	.LVL99:
 244:../../libdaisy/src/dev/oled_ssd130x.h ****         else
 1262              		.loc 15 244 54 view .LVU273
 1263 002e 02F00702 		and	r2, r2, #7
 1264              	.LVL100:
 244:../../libdaisy/src/dev/oled_ssd130x.h ****         else
 1265              		.loc 15 244 42 view .LVU274
 1266 0032 01EBC414 		add	r4, r1, r4, lsl #7
 244:../../libdaisy/src/dev/oled_ssd130x.h ****         else
 1267              		.loc 15 244 48 view .LVU275
 1268 0036 03FA02F2 		lsl	r2, r3, r2
 244:../../libdaisy/src/dev/oled_ssd130x.h ****         else
 1269              		.loc 15 244 13 view .LVU276
 1270 003a 0119     		adds	r1, r0, r4
 1271              	.LVL101:
 244:../../libdaisy/src/dev/oled_ssd130x.h ****         else
 1272              		.loc 15 244 42 view .LVU277
 1273 003c 0B7D     		ldrb	r3, [r1, #20]	@ zero_extendqisi2
 1274 003e 1A43     		orrs	r2, r2, r3
 244:../../libdaisy/src/dev/oled_ssd130x.h ****         else
 1275              		.loc 15 244 13 view .LVU278
 1276 0040 0A75     		strb	r2, [r1, #20]
 1277              	.LBE756:
 1278              	.LBE758:
  44:../../libdaisy/src/hid/disp/oled_display.h **** 
 1279              		.loc 5 44 5 view .LVU279
 1280 0042 5DF8044B 		ldr	r4, [sp], #4
 1281              		.cfi_restore 4
 1282              		.cfi_def_cfa_offset 0
 1283 0046 7047     		bx	lr
 1284              	.LVL102:
 1285              	.L79:
  44:../../libdaisy/src/hid/disp/oled_display.h **** 
 1286              		.loc 5 44 5 view .LVU280
 1287 0048 7047     		bx	lr
 1288              		.cfi_endproc
 1289              	.LFE4720:
 1291 004a 00BF     		.section	.text._ZN5daisy25OneBitGraphicsDisplayImplINS_11OledDisplayINS_13SSD130xDriverILj128ELj64
 1292              		.align	1
 1293              		.p2align 2,,3
 1294              		.weak	_ZN5daisy25OneBitGraphicsDisplayImplINS_11OledDisplayINS_13SSD130xDriverILj128ELj64ENS_24SSD
 1295              		.syntax unified
 1296              		.thumb
 1297              		.thumb_func
 1298              		.fpu fpv5-d16
 1300              	_ZN5daisy25OneBitGraphicsDisplayImplINS_11OledDisplayINS_13SSD130xDriverILj128ELj64ENS_24SSD130x4Wi
 1301              	.LVL103:
 1302              	.LFB4828:
 459:../../libdaisy/src/hid/disp/display.h **** 
 460:../../libdaisy/src/hid/disp/display.h ****     Rectangle WriteStringAligned(const char*    str,
 1303              		.loc 6 460 15 is_stmt 1 view -0
 1304              		.cfi_startproc
ARM GAS  /tmp/ccPAoVZi.s 			page 51


 1305              		@ args = 12, pretend = 0, frame = 40
 1306              		@ frame_needed = 0, uses_anonymous_args = 0
 1307              		.loc 6 460 15 is_stmt 0 view .LVU282
 1308 0000 2DE9F04F 		push	{r4, r5, r6, r7, r8, r9, r10, fp, lr}
 1309              		.cfi_def_cfa_offset 36
 1310              		.cfi_offset 4, -36
 1311              		.cfi_offset 5, -32
 1312              		.cfi_offset 6, -28
 1313              		.cfi_offset 7, -24
 1314              		.cfi_offset 8, -20
 1315              		.cfi_offset 9, -16
 1316              		.cfi_offset 10, -12
 1317              		.cfi_offset 11, -8
 1318              		.cfi_offset 14, -4
 1319 0004 0C46     		mov	r4, r1
 1320 0006 8BB0     		sub	sp, sp, #44
 1321              		.cfi_def_cfa_offset 80
 1322              	.LBB893:
 1323              	.LBB894:
 1324              	.LBB895:
 1325              	.LBB896:
 461:../../libdaisy/src/hid/disp/display.h ****                                  const FontDef& font,
 462:../../libdaisy/src/hid/disp/display.h ****                                  Rectangle      boundingBox,
 463:../../libdaisy/src/hid/disp/display.h ****                                  Alignment      alignment,
 464:../../libdaisy/src/hid/disp/display.h ****                                  bool           on) override
 465:../../libdaisy/src/hid/disp/display.h ****     {
 466:../../libdaisy/src/hid/disp/display.h ****         const auto alignedRect
 467:../../libdaisy/src/hid/disp/display.h ****             = GetTextRect(str, font).AlignedWithin(boundingBox, alignment);
 468:../../libdaisy/src/hid/disp/display.h ****         SetCursor(alignedRect.GetX(), alignedRect.GetY());
 469:../../libdaisy/src/hid/disp/display.h ****         ((ChildType*)(this))->ChildType::WriteString(str, font, on);
 470:../../libdaisy/src/hid/disp/display.h ****         return alignedRect;
 471:../../libdaisy/src/hid/disp/display.h ****     }
 472:../../libdaisy/src/hid/disp/display.h **** 
 473:../../libdaisy/src/hid/disp/display.h ****   private:
 474:../../libdaisy/src/hid/disp/display.h ****     uint32_t strlen(const char* string)
 475:../../libdaisy/src/hid/disp/display.h ****     {
 476:../../libdaisy/src/hid/disp/display.h ****         uint32_t result = 0;
 477:../../libdaisy/src/hid/disp/display.h ****         while(*string++ != '\0')
 1326              		.loc 6 477 25 view .LVU283
 1327 0008 1146     		mov	r1, r2
 1328              	.LVL104:
 1329              		.loc 6 477 25 view .LVU284
 1330              	.LBE896:
 1331              	.LBE895:
 1332              	.LBE894:
 1333              	.LBE893:
 460:../../libdaisy/src/hid/disp/display.h ****                                  const FontDef& font,
 1334              		.loc 6 460 15 view .LVU285
 1335 000a 9046     		mov	r8, r2
 1336 000c 0990     		str	r0, [sp, #36]
 1337 000e 1D46     		mov	r5, r3
 1338              	.LVL105:
 1339              	.LBB911:
 1340              	.LBI893:
 478:../../libdaisy/src/hid/disp/display.h ****             result++;
 479:../../libdaisy/src/hid/disp/display.h ****         return result;
 480:../../libdaisy/src/hid/disp/display.h ****     }
ARM GAS  /tmp/ccPAoVZi.s 			page 52


 481:../../libdaisy/src/hid/disp/display.h **** 
 482:../../libdaisy/src/hid/disp/display.h ****     Rectangle GetTextRect(const char* text, const FontDef& font)
 1341              		.loc 6 482 15 is_stmt 1 view .LVU286
 1342              	.LBB907:
 1343              	.LBB900:
 1344              	.LBB897:
 477:../../libdaisy/src/hid/disp/display.h ****             result++;
 1345              		.loc 6 477 25 view .LVU287
 477:../../libdaisy/src/hid/disp/display.h ****             result++;
 1346              		.loc 6 477 25 is_stmt 0 view .LVU288
 1347              	.LBE897:
 1348              	.LBE900:
 1349              	.LBE907:
 1350              	.LBE911:
 460:../../libdaisy/src/hid/disp/display.h ****                                  const FontDef& font,
 1351              		.loc 6 460 15 view .LVU289
 1352 0010 9DF85800 		ldrb	r0, [sp, #88]	@ zero_extendqisi2
 1353              	.LVL106:
 1354              	.LBB912:
 1355              	.LBB908:
 1356              	.LBB901:
 1357              	.LBB898:
 477:../../libdaisy/src/hid/disp/display.h ****             result++;
 1358              		.loc 6 477 25 view .LVU290
 1359 0014 11F8012B 		ldrb	r2, [r1], #1	@ zero_extendqisi2
 1360              	.LVL107:
 477:../../libdaisy/src/hid/disp/display.h ****             result++;
 1361              		.loc 6 477 25 view .LVU291
 1362              	.LBE898:
 1363              	.LBE901:
 1364              	.LBE908:
 1365              	.LBE912:
 460:../../libdaisy/src/hid/disp/display.h ****                                  const FontDef& font,
 1366              		.loc 6 460 15 view .LVU292
 1367 0018 0890     		str	r0, [sp, #32]
 1368 001a DDE91463 		ldrd	r6, r3, [sp, #80]
 1369              	.LVL108:
 1370              	.LBB913:
 1371              	.LBB909:
 1372              	.LBB902:
 1373              	.LBB899:
 477:../../libdaisy/src/hid/disp/display.h ****             result++;
 1374              		.loc 6 477 25 view .LVU293
 1375 001e 32B1     		cbz	r2, .L84
 476:../../libdaisy/src/hid/disp/display.h ****         while(*string++ != '\0')
 1376              		.loc 6 476 18 view .LVU294
 1377 0020 0022     		movs	r2, #0
 1378              	.LVL109:
 1379              	.L85:
 477:../../libdaisy/src/hid/disp/display.h ****             result++;
 1380              		.loc 6 477 25 view .LVU295
 1381 0022 11F8010B 		ldrb	r0, [r1], #1	@ zero_extendqisi2
 1382              	.LVL110:
 478:../../libdaisy/src/hid/disp/display.h ****             result++;
 1383              		.loc 6 478 13 view .LVU296
 1384 0026 0132     		adds	r2, r2, #1
 1385              	.LVL111:
ARM GAS  /tmp/ccPAoVZi.s 			page 53


 477:../../libdaisy/src/hid/disp/display.h ****             result++;
 1386              		.loc 6 477 25 is_stmt 1 view .LVU297
 1387 0028 0028     		cmp	r0, #0
 1388 002a FAD1     		bne	.L85
 1389 002c 92B2     		uxth	r2, r2
 1390              	.LVL112:
 1391              	.L84:
 477:../../libdaisy/src/hid/disp/display.h ****             result++;
 1392              		.loc 6 477 25 is_stmt 0 view .LVU298
 1393              	.LBE899:
 1394              	.LBE902:
 483:../../libdaisy/src/hid/disp/display.h ****     {
 484:../../libdaisy/src/hid/disp/display.h ****         const auto numChars = strlen(text);
 485:../../libdaisy/src/hid/disp/display.h ****         return {int16_t(numChars * font.FontWidth), font.FontHeight};
 1395              		.loc 6 485 68 view .LVU299
 1396 002e 2978     		ldrb	r1, [r5]	@ zero_extendqisi2
 1397              		.loc 6 485 58 view .LVU300
 1398 0030 6878     		ldrb	r0, [r5, #1]	@ zero_extendqisi2
 1399              		.loc 6 485 68 view .LVU301
 1400 0032 11FB02F2 		smulbb	r2, r1, r2
 1401 0036 01B2     		sxth	r1, r0
 1402              	.LVL113:
 1403              	.LBB903:
 1404              	.LBI903:
 1405              		.file 17 "../../libdaisy/src/hid/disp/graphics_common.h"
   1:../../libdaisy/src/hid/disp/graphics_common.h **** #pragma once
   2:../../libdaisy/src/hid/disp/graphics_common.h **** 
   3:../../libdaisy/src/hid/disp/graphics_common.h **** #include <cstdint>
   4:../../libdaisy/src/hid/disp/graphics_common.h **** 
   5:../../libdaisy/src/hid/disp/graphics_common.h **** namespace daisy
   6:../../libdaisy/src/hid/disp/graphics_common.h **** {
   7:../../libdaisy/src/hid/disp/graphics_common.h **** /** Justifications */
   8:../../libdaisy/src/hid/disp/graphics_common.h **** enum class Alignment
   9:../../libdaisy/src/hid/disp/graphics_common.h **** {
  10:../../libdaisy/src/hid/disp/graphics_common.h ****     centered,
  11:../../libdaisy/src/hid/disp/graphics_common.h ****     topLeft,
  12:../../libdaisy/src/hid/disp/graphics_common.h ****     topCentered,
  13:../../libdaisy/src/hid/disp/graphics_common.h ****     topRight,
  14:../../libdaisy/src/hid/disp/graphics_common.h ****     bottomLeft,
  15:../../libdaisy/src/hid/disp/graphics_common.h ****     bottomCentered,
  16:../../libdaisy/src/hid/disp/graphics_common.h ****     bottomRight,
  17:../../libdaisy/src/hid/disp/graphics_common.h ****     centeredLeft,
  18:../../libdaisy/src/hid/disp/graphics_common.h ****     centeredRight
  19:../../libdaisy/src/hid/disp/graphics_common.h **** };
  20:../../libdaisy/src/hid/disp/graphics_common.h **** 
  21:../../libdaisy/src/hid/disp/graphics_common.h **** class Rectangle
  22:../../libdaisy/src/hid/disp/graphics_common.h **** {
  23:../../libdaisy/src/hid/disp/graphics_common.h ****   public:
  24:../../libdaisy/src/hid/disp/graphics_common.h ****     Rectangle() : x_(0), y_(0), width_(0), height_(0) {}
  25:../../libdaisy/src/hid/disp/graphics_common.h **** 
  26:../../libdaisy/src/hid/disp/graphics_common.h ****     Rectangle(int16_t width, int16_t height)
 1406              		.loc 17 26 5 is_stmt 1 view .LVU302
 1407              	.LBB904:
 1408              	.LBI904:
  27:../../libdaisy/src/hid/disp/graphics_common.h ****     : x_(0), y_(0), width_(max(0, width)), height_(max(0, height))
  28:../../libdaisy/src/hid/disp/graphics_common.h ****     {
  29:../../libdaisy/src/hid/disp/graphics_common.h ****     }
ARM GAS  /tmp/ccPAoVZi.s 			page 54


  30:../../libdaisy/src/hid/disp/graphics_common.h **** 
  31:../../libdaisy/src/hid/disp/graphics_common.h ****     Rectangle(int16_t x, int16_t y, int16_t width, int16_t height)
  32:../../libdaisy/src/hid/disp/graphics_common.h ****     : x_(x), y_(y), width_(max(0, width)), height_(max(0, height))
  33:../../libdaisy/src/hid/disp/graphics_common.h ****     {
  34:../../libdaisy/src/hid/disp/graphics_common.h ****     }
  35:../../libdaisy/src/hid/disp/graphics_common.h **** 
  36:../../libdaisy/src/hid/disp/graphics_common.h ****     Rectangle(const Rectangle& other) { *this = other; }
  37:../../libdaisy/src/hid/disp/graphics_common.h **** 
  38:../../libdaisy/src/hid/disp/graphics_common.h ****     Rectangle& operator=(const Rectangle& other)
  39:../../libdaisy/src/hid/disp/graphics_common.h ****     {
  40:../../libdaisy/src/hid/disp/graphics_common.h ****         x_      = other.x_;
  41:../../libdaisy/src/hid/disp/graphics_common.h ****         y_      = other.y_;
  42:../../libdaisy/src/hid/disp/graphics_common.h ****         width_  = other.width_;
  43:../../libdaisy/src/hid/disp/graphics_common.h ****         height_ = other.height_;
  44:../../libdaisy/src/hid/disp/graphics_common.h ****         return *this;
  45:../../libdaisy/src/hid/disp/graphics_common.h ****     }
  46:../../libdaisy/src/hid/disp/graphics_common.h **** 
  47:../../libdaisy/src/hid/disp/graphics_common.h ****     bool operator==(const Rectangle& other) const
  48:../../libdaisy/src/hid/disp/graphics_common.h ****     {
  49:../../libdaisy/src/hid/disp/graphics_common.h ****         return (x_ == other.x_) && (y_ == other.y_) && (width_ == other.width_)
  50:../../libdaisy/src/hid/disp/graphics_common.h ****                && (height_ == other.height_);
  51:../../libdaisy/src/hid/disp/graphics_common.h ****     }
  52:../../libdaisy/src/hid/disp/graphics_common.h ****     bool operator!=(const Rectangle& other) const { return !(*this == other); }
  53:../../libdaisy/src/hid/disp/graphics_common.h **** 
  54:../../libdaisy/src/hid/disp/graphics_common.h ****     bool IsEmpty() const { return (width_ <= 0) || (height_ <= 0); }
  55:../../libdaisy/src/hid/disp/graphics_common.h **** 
  56:../../libdaisy/src/hid/disp/graphics_common.h ****     int16_t GetX() const { return x_; }
  57:../../libdaisy/src/hid/disp/graphics_common.h ****     int16_t GetY() const { return y_; }
  58:../../libdaisy/src/hid/disp/graphics_common.h ****     int16_t GetWidth() const { return width_; }
  59:../../libdaisy/src/hid/disp/graphics_common.h ****     int16_t GetHeight() const { return height_; }
  60:../../libdaisy/src/hid/disp/graphics_common.h ****     int16_t GetRight() const { return x_ + width_; }
  61:../../libdaisy/src/hid/disp/graphics_common.h ****     int16_t GetBottom() const { return y_ + height_; }
  62:../../libdaisy/src/hid/disp/graphics_common.h ****     int16_t GetCenterX() const { return x_ + width_ / 2; }
  63:../../libdaisy/src/hid/disp/graphics_common.h ****     int16_t GetCenterY() const { return y_ + height_ / 2; }
  64:../../libdaisy/src/hid/disp/graphics_common.h **** 
  65:../../libdaisy/src/hid/disp/graphics_common.h ****     Rectangle WithX(int16_t x) const { return {x, y_, width_, height_}; }
  66:../../libdaisy/src/hid/disp/graphics_common.h ****     Rectangle WithY(int16_t y) const { return {x_, y, width_, height_}; }
  67:../../libdaisy/src/hid/disp/graphics_common.h ****     Rectangle WithWidth(int16_t width) const
  68:../../libdaisy/src/hid/disp/graphics_common.h ****     {
  69:../../libdaisy/src/hid/disp/graphics_common.h ****         return {x_, y_, width, height_};
  70:../../libdaisy/src/hid/disp/graphics_common.h ****     }
  71:../../libdaisy/src/hid/disp/graphics_common.h ****     Rectangle WithHeight(int16_t height) const
  72:../../libdaisy/src/hid/disp/graphics_common.h ****     {
  73:../../libdaisy/src/hid/disp/graphics_common.h ****         return {x_, y_, width_, height};
  74:../../libdaisy/src/hid/disp/graphics_common.h ****     }
  75:../../libdaisy/src/hid/disp/graphics_common.h ****     Rectangle WithSize(int16_t width, int16_t height) const
  76:../../libdaisy/src/hid/disp/graphics_common.h ****     {
  77:../../libdaisy/src/hid/disp/graphics_common.h ****         return {x_, y_, width, height};
  78:../../libdaisy/src/hid/disp/graphics_common.h ****     }
  79:../../libdaisy/src/hid/disp/graphics_common.h ****     Rectangle WithWidthKeepingCenter(int16_t width) const
  80:../../libdaisy/src/hid/disp/graphics_common.h ****     {
  81:../../libdaisy/src/hid/disp/graphics_common.h ****         return Rectangle(x_, y_, width, height_)
  82:../../libdaisy/src/hid/disp/graphics_common.h ****             .WithCenter(GetCenterX(), GetCenterY());
  83:../../libdaisy/src/hid/disp/graphics_common.h ****     }
  84:../../libdaisy/src/hid/disp/graphics_common.h ****     Rectangle WithHeightKeepingCenter(int16_t height) const
  85:../../libdaisy/src/hid/disp/graphics_common.h ****     {
  86:../../libdaisy/src/hid/disp/graphics_common.h ****         return Rectangle(x_, y_, width_, height)
ARM GAS  /tmp/ccPAoVZi.s 			page 55


  87:../../libdaisy/src/hid/disp/graphics_common.h ****             .WithCenter(GetCenterX(), GetCenterY());
  88:../../libdaisy/src/hid/disp/graphics_common.h ****     }
  89:../../libdaisy/src/hid/disp/graphics_common.h ****     Rectangle WithSizeKeepingCenter(int16_t width, int16_t height) const
  90:../../libdaisy/src/hid/disp/graphics_common.h ****     {
  91:../../libdaisy/src/hid/disp/graphics_common.h ****         return Rectangle(x_, y_, width, height)
  92:../../libdaisy/src/hid/disp/graphics_common.h ****             .WithCenter(GetCenterX(), GetCenterY());
  93:../../libdaisy/src/hid/disp/graphics_common.h ****     }
  94:../../libdaisy/src/hid/disp/graphics_common.h **** 
  95:../../libdaisy/src/hid/disp/graphics_common.h ****     Rectangle Reduced(int16_t sizeToReduce) const
  96:../../libdaisy/src/hid/disp/graphics_common.h ****     {
  97:../../libdaisy/src/hid/disp/graphics_common.h ****         return {int16_t(x_ + sizeToReduce),
  98:../../libdaisy/src/hid/disp/graphics_common.h ****                 int16_t(y_ + sizeToReduce),
  99:../../libdaisy/src/hid/disp/graphics_common.h ****                 int16_t(width_ - 2 * sizeToReduce),
 100:../../libdaisy/src/hid/disp/graphics_common.h ****                 int16_t(height_ - 2 * sizeToReduce)};
 101:../../libdaisy/src/hid/disp/graphics_common.h ****     }
 102:../../libdaisy/src/hid/disp/graphics_common.h ****     Rectangle Reduced(int16_t xToReduce, int16_t yToReduce) const
 103:../../libdaisy/src/hid/disp/graphics_common.h ****     {
 104:../../libdaisy/src/hid/disp/graphics_common.h ****         return {int16_t(x_ + xToReduce),
 105:../../libdaisy/src/hid/disp/graphics_common.h ****                 int16_t(y_ + yToReduce),
 106:../../libdaisy/src/hid/disp/graphics_common.h ****                 int16_t(width_ - 2 * xToReduce),
 107:../../libdaisy/src/hid/disp/graphics_common.h ****                 int16_t(height_ - 2 * yToReduce)};
 108:../../libdaisy/src/hid/disp/graphics_common.h ****     }
 109:../../libdaisy/src/hid/disp/graphics_common.h **** 
 110:../../libdaisy/src/hid/disp/graphics_common.h ****     Rectangle Translated(int16_t x, int16_t y) const
 111:../../libdaisy/src/hid/disp/graphics_common.h ****     {
 112:../../libdaisy/src/hid/disp/graphics_common.h ****         return {int16_t(x_ + x), int16_t(y_ + y), width_, height_};
 113:../../libdaisy/src/hid/disp/graphics_common.h ****     }
 114:../../libdaisy/src/hid/disp/graphics_common.h **** 
 115:../../libdaisy/src/hid/disp/graphics_common.h ****     Rectangle WithLeft(int16_t left) const
 116:../../libdaisy/src/hid/disp/graphics_common.h ****     {
 117:../../libdaisy/src/hid/disp/graphics_common.h ****         const auto newWidth = int16_t((x_ - left) + width_);
 118:../../libdaisy/src/hid/disp/graphics_common.h ****         return {left, y_, newWidth, height_};
 119:../../libdaisy/src/hid/disp/graphics_common.h ****     }
 120:../../libdaisy/src/hid/disp/graphics_common.h **** 
 121:../../libdaisy/src/hid/disp/graphics_common.h ****     Rectangle WithRight(int16_t right) const
 122:../../libdaisy/src/hid/disp/graphics_common.h ****     {
 123:../../libdaisy/src/hid/disp/graphics_common.h ****         const auto newWidth = int16_t(right - x_);
 124:../../libdaisy/src/hid/disp/graphics_common.h ****         return {x_, y_, newWidth, height_};
 125:../../libdaisy/src/hid/disp/graphics_common.h ****     }
 126:../../libdaisy/src/hid/disp/graphics_common.h **** 
 127:../../libdaisy/src/hid/disp/graphics_common.h ****     Rectangle WithTop(int16_t top) const
 128:../../libdaisy/src/hid/disp/graphics_common.h ****     {
 129:../../libdaisy/src/hid/disp/graphics_common.h ****         const auto newHeight = int16_t((y_ - top) + height_);
 130:../../libdaisy/src/hid/disp/graphics_common.h ****         return {x_, top, width_, newHeight};
 131:../../libdaisy/src/hid/disp/graphics_common.h ****     }
 132:../../libdaisy/src/hid/disp/graphics_common.h **** 
 133:../../libdaisy/src/hid/disp/graphics_common.h ****     Rectangle WithBottom(int16_t bottom) const
 134:../../libdaisy/src/hid/disp/graphics_common.h ****     {
 135:../../libdaisy/src/hid/disp/graphics_common.h ****         const auto newHeight = int16_t(bottom - y_);
 136:../../libdaisy/src/hid/disp/graphics_common.h ****         return {x_, y_, width_, newHeight};
 137:../../libdaisy/src/hid/disp/graphics_common.h ****     }
 138:../../libdaisy/src/hid/disp/graphics_common.h **** 
 139:../../libdaisy/src/hid/disp/graphics_common.h ****     Rectangle WithTrimmedLeft(int16_t pxToTrim) const
 140:../../libdaisy/src/hid/disp/graphics_common.h ****     {
 141:../../libdaisy/src/hid/disp/graphics_common.h ****         return {
 142:../../libdaisy/src/hid/disp/graphics_common.h ****             int16_t(x_ + pxToTrim), y_, int16_t(width_ - pxToTrim), height_};
 143:../../libdaisy/src/hid/disp/graphics_common.h ****     }
ARM GAS  /tmp/ccPAoVZi.s 			page 56


 144:../../libdaisy/src/hid/disp/graphics_common.h **** 
 145:../../libdaisy/src/hid/disp/graphics_common.h ****     Rectangle WithTrimmedRight(int16_t pxToTrim) const
 146:../../libdaisy/src/hid/disp/graphics_common.h ****     {
 147:../../libdaisy/src/hid/disp/graphics_common.h ****         return {x_, y_, int16_t(width_ - pxToTrim), height_};
 148:../../libdaisy/src/hid/disp/graphics_common.h ****     }
 149:../../libdaisy/src/hid/disp/graphics_common.h **** 
 150:../../libdaisy/src/hid/disp/graphics_common.h ****     Rectangle WithTrimmedTop(int16_t pxToTrim) const
 151:../../libdaisy/src/hid/disp/graphics_common.h ****     {
 152:../../libdaisy/src/hid/disp/graphics_common.h ****         return {
 153:../../libdaisy/src/hid/disp/graphics_common.h ****             x_, int16_t(y_ + pxToTrim), width_, int16_t(height_ - pxToTrim)};
 154:../../libdaisy/src/hid/disp/graphics_common.h ****     }
 155:../../libdaisy/src/hid/disp/graphics_common.h **** 
 156:../../libdaisy/src/hid/disp/graphics_common.h ****     Rectangle WithTrimmedBottom(int16_t pxToTrim) const
 157:../../libdaisy/src/hid/disp/graphics_common.h ****     {
 158:../../libdaisy/src/hid/disp/graphics_common.h ****         return {x_, y_, width_, int16_t(height_ - pxToTrim)};
 159:../../libdaisy/src/hid/disp/graphics_common.h ****     }
 160:../../libdaisy/src/hid/disp/graphics_common.h **** 
 161:../../libdaisy/src/hid/disp/graphics_common.h ****     Rectangle WithCenterX(int16_t centerX) const
 162:../../libdaisy/src/hid/disp/graphics_common.h ****     {
 163:../../libdaisy/src/hid/disp/graphics_common.h ****         return {int16_t(x_ + centerX - GetCenterX()), y_, width_, height_};
 164:../../libdaisy/src/hid/disp/graphics_common.h ****     }
 165:../../libdaisy/src/hid/disp/graphics_common.h **** 
 166:../../libdaisy/src/hid/disp/graphics_common.h ****     Rectangle WithCenterY(int16_t centerY) const
 167:../../libdaisy/src/hid/disp/graphics_common.h ****     {
 168:../../libdaisy/src/hid/disp/graphics_common.h ****         return {x_, int16_t(y_ + centerY - GetCenterY()), width_, height_};
 169:../../libdaisy/src/hid/disp/graphics_common.h ****     }
 170:../../libdaisy/src/hid/disp/graphics_common.h **** 
 171:../../libdaisy/src/hid/disp/graphics_common.h ****     Rectangle WithCenter(int16_t centerX, int16_t centerY) const
 172:../../libdaisy/src/hid/disp/graphics_common.h ****     {
 173:../../libdaisy/src/hid/disp/graphics_common.h ****         return {int16_t(x_ + centerX - GetCenterX()),
 174:../../libdaisy/src/hid/disp/graphics_common.h ****                 int16_t(y_ + centerY - GetCenterY()),
 175:../../libdaisy/src/hid/disp/graphics_common.h ****                 width_,
 176:../../libdaisy/src/hid/disp/graphics_common.h ****                 height_};
 177:../../libdaisy/src/hid/disp/graphics_common.h ****     }
 178:../../libdaisy/src/hid/disp/graphics_common.h **** 
 179:../../libdaisy/src/hid/disp/graphics_common.h ****     Rectangle RemoveFromLeft(int16_t pxToRemove)
 180:../../libdaisy/src/hid/disp/graphics_common.h ****     {
 181:../../libdaisy/src/hid/disp/graphics_common.h ****         const auto result = this->WithWidth(min(pxToRemove, width_));
 182:../../libdaisy/src/hid/disp/graphics_common.h ****         x_ += min(pxToRemove, width_);
 183:../../libdaisy/src/hid/disp/graphics_common.h ****         width_ = max(int16_t(width_ - pxToRemove), 0);
 184:../../libdaisy/src/hid/disp/graphics_common.h ****         return result;
 185:../../libdaisy/src/hid/disp/graphics_common.h ****     }
 186:../../libdaisy/src/hid/disp/graphics_common.h **** 
 187:../../libdaisy/src/hid/disp/graphics_common.h ****     Rectangle RemoveFromRight(int16_t pxToRemove)
 188:../../libdaisy/src/hid/disp/graphics_common.h ****     {
 189:../../libdaisy/src/hid/disp/graphics_common.h ****         const auto canRemove = min(pxToRemove, width_);
 190:../../libdaisy/src/hid/disp/graphics_common.h ****         width_ -= canRemove;
 191:../../libdaisy/src/hid/disp/graphics_common.h ****         return {int16_t(x_ + width_), y_, canRemove, height_};
 192:../../libdaisy/src/hid/disp/graphics_common.h ****     }
 193:../../libdaisy/src/hid/disp/graphics_common.h **** 
 194:../../libdaisy/src/hid/disp/graphics_common.h ****     Rectangle RemoveFromTop(int16_t pxToRemove)
 195:../../libdaisy/src/hid/disp/graphics_common.h ****     {
 196:../../libdaisy/src/hid/disp/graphics_common.h ****         const auto result = this->WithHeight(min(pxToRemove, height_));
 197:../../libdaisy/src/hid/disp/graphics_common.h ****         y_ += min(pxToRemove, height_);
 198:../../libdaisy/src/hid/disp/graphics_common.h ****         height_ = max(height_ - pxToRemove, 0);
 199:../../libdaisy/src/hid/disp/graphics_common.h ****         return result;
 200:../../libdaisy/src/hid/disp/graphics_common.h ****     }
ARM GAS  /tmp/ccPAoVZi.s 			page 57


 201:../../libdaisy/src/hid/disp/graphics_common.h **** 
 202:../../libdaisy/src/hid/disp/graphics_common.h ****     Rectangle RemoveFromBottom(int16_t pxToRemove)
 203:../../libdaisy/src/hid/disp/graphics_common.h ****     {
 204:../../libdaisy/src/hid/disp/graphics_common.h ****         const auto canRemove = min(pxToRemove, height_);
 205:../../libdaisy/src/hid/disp/graphics_common.h ****         height_ -= canRemove;
 206:../../libdaisy/src/hid/disp/graphics_common.h ****         return {x_, int16_t(y_ + height_), width_, canRemove};
 207:../../libdaisy/src/hid/disp/graphics_common.h ****     }
 208:../../libdaisy/src/hid/disp/graphics_common.h **** 
 209:../../libdaisy/src/hid/disp/graphics_common.h ****     Rectangle AlignedWithin(const Rectangle& other, Alignment alignment) const
 210:../../libdaisy/src/hid/disp/graphics_common.h ****     {
 211:../../libdaisy/src/hid/disp/graphics_common.h ****         switch(alignment)
 212:../../libdaisy/src/hid/disp/graphics_common.h ****         {
 213:../../libdaisy/src/hid/disp/graphics_common.h ****             case Alignment::topLeft:
 214:../../libdaisy/src/hid/disp/graphics_common.h ****                 return {other.x_, other.y_, width_, height_};
 215:../../libdaisy/src/hid/disp/graphics_common.h ****             case Alignment::topRight:
 216:../../libdaisy/src/hid/disp/graphics_common.h ****                 return {int16_t(other.GetRight() - width_),
 217:../../libdaisy/src/hid/disp/graphics_common.h ****                         other.y_,
 218:../../libdaisy/src/hid/disp/graphics_common.h ****                         width_,
 219:../../libdaisy/src/hid/disp/graphics_common.h ****                         height_};
 220:../../libdaisy/src/hid/disp/graphics_common.h ****             case Alignment::topCentered:
 221:../../libdaisy/src/hid/disp/graphics_common.h ****                 return {int16_t(x_ + (other.GetCenterX() - GetCenterX())),
 222:../../libdaisy/src/hid/disp/graphics_common.h ****                         other.y_,
 223:../../libdaisy/src/hid/disp/graphics_common.h ****                         width_,
 224:../../libdaisy/src/hid/disp/graphics_common.h ****                         height_};
 225:../../libdaisy/src/hid/disp/graphics_common.h ****             case Alignment::bottomLeft:
 226:../../libdaisy/src/hid/disp/graphics_common.h ****                 return {other.x_,
 227:../../libdaisy/src/hid/disp/graphics_common.h ****                         int16_t(other.GetBottom() - height_),
 228:../../libdaisy/src/hid/disp/graphics_common.h ****                         width_,
 229:../../libdaisy/src/hid/disp/graphics_common.h ****                         height_};
 230:../../libdaisy/src/hid/disp/graphics_common.h ****             case Alignment::bottomRight:
 231:../../libdaisy/src/hid/disp/graphics_common.h ****                 return {int16_t(other.GetRight() - width_),
 232:../../libdaisy/src/hid/disp/graphics_common.h ****                         int16_t(other.GetBottom() - height_),
 233:../../libdaisy/src/hid/disp/graphics_common.h ****                         width_,
 234:../../libdaisy/src/hid/disp/graphics_common.h ****                         height_};
 235:../../libdaisy/src/hid/disp/graphics_common.h ****             case Alignment::bottomCentered:
 236:../../libdaisy/src/hid/disp/graphics_common.h ****                 return {int16_t(x_ + (other.GetCenterX() - GetCenterX())),
 237:../../libdaisy/src/hid/disp/graphics_common.h ****                         int16_t(other.GetBottom() - height_),
 238:../../libdaisy/src/hid/disp/graphics_common.h ****                         width_,
 239:../../libdaisy/src/hid/disp/graphics_common.h ****                         height_};
 240:../../libdaisy/src/hid/disp/graphics_common.h ****             case Alignment::centeredLeft:
 241:../../libdaisy/src/hid/disp/graphics_common.h ****                 return {other.x_,
 242:../../libdaisy/src/hid/disp/graphics_common.h ****                         int16_t(y_ + (other.GetCenterY() - GetCenterY())),
 243:../../libdaisy/src/hid/disp/graphics_common.h ****                         width_,
 244:../../libdaisy/src/hid/disp/graphics_common.h ****                         height_};
 245:../../libdaisy/src/hid/disp/graphics_common.h ****             case Alignment::centeredRight:
 246:../../libdaisy/src/hid/disp/graphics_common.h ****                 return {int16_t(other.GetRight() - width_),
 247:../../libdaisy/src/hid/disp/graphics_common.h ****                         int16_t(y_ + (other.GetCenterY() - GetCenterY())),
 248:../../libdaisy/src/hid/disp/graphics_common.h ****                         width_,
 249:../../libdaisy/src/hid/disp/graphics_common.h ****                         height_};
 250:../../libdaisy/src/hid/disp/graphics_common.h ****             case Alignment::centered:
 251:../../libdaisy/src/hid/disp/graphics_common.h ****                 return {int16_t(x_ + (other.GetCenterX() - GetCenterX())),
 252:../../libdaisy/src/hid/disp/graphics_common.h ****                         int16_t(y_ + (other.GetCenterY() - GetCenterY())),
 253:../../libdaisy/src/hid/disp/graphics_common.h ****                         width_,
 254:../../libdaisy/src/hid/disp/graphics_common.h ****                         height_};
 255:../../libdaisy/src/hid/disp/graphics_common.h ****             default: return {};
 256:../../libdaisy/src/hid/disp/graphics_common.h ****         }
 257:../../libdaisy/src/hid/disp/graphics_common.h ****     }
ARM GAS  /tmp/ccPAoVZi.s 			page 58


 258:../../libdaisy/src/hid/disp/graphics_common.h **** 
 259:../../libdaisy/src/hid/disp/graphics_common.h ****   private:
 260:../../libdaisy/src/hid/disp/graphics_common.h ****     int16_t x_, y_, width_, height_;
 261:../../libdaisy/src/hid/disp/graphics_common.h ****     int16_t max(int16_t a, int16_t b) { return (a > b) ? a : b; }
 1409              		.loc 17 261 13 view .LVU303
 1410              		.loc 17 261 13 is_stmt 0 view .LVU304
 1411              	.LBE904:
 1412              	.LBE903:
 1413              	.LBE909:
 1414              	.LBE913:
 1415              		.loc 17 261 41 is_stmt 1 view .LVU305
 1416 0038 12B2     		sxth	r2, r2
 1417 003a 22EAE272 		bic	r2, r2, r2, asr #31
 1418              	.LVL114:
 1419              	.LBB914:
 1420              	.LBB910:
 1421              	.LBB906:
 1422              	.LBB905:
 1423              	.LBI905:
 1424              		.loc 17 261 13 view .LVU306
 1425              		.loc 17 261 13 is_stmt 0 view .LVU307
 1426              	.LBE905:
 1427              	.LBE906:
 1428              	.LBE910:
 1429              	.LBE914:
 1430              		.loc 17 261 41 is_stmt 1 view .LVU308
 1431              	.LBB915:
 1432              	.LBI915:
 209:../../libdaisy/src/hid/disp/graphics_common.h ****     {
 1433              		.loc 17 209 15 view .LVU309
 1434              	.LBB916:
 211:../../libdaisy/src/hid/disp/graphics_common.h ****         {
 1435              		.loc 17 211 9 view .LVU310
 1436 003e 082B     		cmp	r3, #8
 1437 0040 00F2AD81 		bhi	.L86
 1438 0044 DFE813F0 		tbh	[pc, r3, lsl #1]
 1439              	.L88:
 1440 0048 0001     		.2byte	(.L96-.L88)/2
 1441 004a 1201     		.2byte	(.L95-.L88)/2
 1442 004c 1E01     		.2byte	(.L94-.L88)/2
 1443 004e 3201     		.2byte	(.L93-.L88)/2
 1444 0050 4001     		.2byte	(.L92-.L88)/2
 1445 0052 5001     		.2byte	(.L91-.L88)/2
 1446 0054 6B01     		.2byte	(.L90-.L88)/2
 1447 0056 7801     		.2byte	(.L89-.L88)/2
 1448 0058 0900     		.2byte	(.L87-.L88)/2
 1449              		.p2align 1
 1450              	.L87:
 245:../../libdaisy/src/hid/disp/graphics_common.h ****                 return {int16_t(other.GetRight() - width_),
 1451              		.loc 17 245 13 view .LVU311
 246:../../libdaisy/src/hid/disp/graphics_common.h ****                         int16_t(y_ + (other.GetCenterY() - GetCenterY())),
 1452              		.loc 17 246 17 view .LVU312
 1453              	.LBB917:
 1454              	.LBI917:
  60:../../libdaisy/src/hid/disp/graphics_common.h ****     int16_t GetBottom() const { return y_ + height_; }
 1455              		.loc 17 60 13 view .LVU313
 1456              	.LVL115:
ARM GAS  /tmp/ccPAoVZi.s 			page 59


 1457              	.LBB918:
  60:../../libdaisy/src/hid/disp/graphics_common.h ****     int16_t GetBottom() const { return y_ + height_; }
 1458              		.loc 17 60 32 view .LVU314
  60:../../libdaisy/src/hid/disp/graphics_common.h ****     int16_t GetBottom() const { return y_ + height_; }
 1459              		.loc 17 60 42 is_stmt 0 view .LVU315
 1460 005a 3788     		ldrh	r7, [r6]
 1461 005c B088     		ldrh	r0, [r6, #4]
 1462              	.LBE918:
 1463              	.LBE917:
 1464              	.LBB920:
 1465              	.LBB921:
  63:../../libdaisy/src/hid/disp/graphics_common.h **** 
 1466              		.loc 17 63 54 view .LVU316
 1467 005e B6F90630 		ldrsh	r3, [r6, #6]
 1468              	.LVL116:
  63:../../libdaisy/src/hid/disp/graphics_common.h **** 
 1469              		.loc 17 63 54 view .LVU317
 1470              	.LBE921:
 1471              	.LBE920:
 1472              	.LBB925:
 1473              	.LBB919:
  60:../../libdaisy/src/hid/disp/graphics_common.h ****     int16_t GetBottom() const { return y_ + height_; }
 1474              		.loc 17 60 42 view .LVU318
 1475 0062 0744     		add	r7, r7, r0
 1476              	.LBE919:
 1477              	.LBE925:
 1478              	.LBB926:
 1479              	.LBB922:
  63:../../libdaisy/src/hid/disp/graphics_common.h **** 
 1480              		.loc 17 63 54 view .LVU319
 1481 0064 002B     		cmp	r3, #0
 1482              	.LBE922:
 1483              	.LBE926:
 246:../../libdaisy/src/hid/disp/graphics_common.h ****                         int16_t(y_ + (other.GetCenterY() - GetCenterY())),
 1484              		.loc 17 246 50 view .LVU320
 1485 0066 A7EB0207 		sub	r7, r7, r2
 1486 006a BFB2     		uxth	r7, r7
 1487              	.LBB927:
 1488              	.LBI920:
  63:../../libdaisy/src/hid/disp/graphics_common.h **** 
 1489              		.loc 17 63 13 is_stmt 1 view .LVU321
 1490              	.LVL117:
 1491              	.LBB923:
  63:../../libdaisy/src/hid/disp/graphics_common.h **** 
 1492              		.loc 17 63 34 view .LVU322
  63:../../libdaisy/src/hid/disp/graphics_common.h **** 
 1493              		.loc 17 63 34 is_stmt 0 view .LVU323
 1494              	.LBE923:
 1495              	.LBE927:
 1496              	.LBB928:
 1497              	.LBI928:
  63:../../libdaisy/src/hid/disp/graphics_common.h **** 
 1498              		.loc 17 63 13 is_stmt 1 view .LVU324
 1499              	.LBB929:
  63:../../libdaisy/src/hid/disp/graphics_common.h **** 
 1500              		.loc 17 63 34 view .LVU325
 1501              	.LBE929:
ARM GAS  /tmp/ccPAoVZi.s 			page 60


 1502              	.LBE928:
 1503              	.LBB930:
 1504              	.LBB924:
  63:../../libdaisy/src/hid/disp/graphics_common.h **** 
 1505              		.loc 17 63 54 is_stmt 0 view .LVU326
 1506 006c C0F2FC80 		blt	.L160
 1507              	.LVL118:
 1508              	.L103:
  63:../../libdaisy/src/hid/disp/graphics_common.h **** 
 1509              		.loc 17 63 54 view .LVU327
 1510              	.LBE924:
 1511              	.LBE930:
 1512              	.LBB931:
 1513              	.LBB932:
  63:../../libdaisy/src/hid/disp/graphics_common.h **** 
 1514              		.loc 17 63 44 view .LVU328
 1515 0070 B6F802C0 		ldrh	ip, [r6, #2]
 1516              	.LBE932:
 1517              	.LBE931:
 1518              	.LBB938:
 1519              	.LBB939:
 1520              	.LBB940:
  32:../../libdaisy/src/hid/disp/graphics_common.h ****     {
 1521              		.loc 17 32 66 view .LVU329
 1522 0074 0998     		ldr	r0, [sp, #36]
 1523              	.LBE940:
 1524              	.LBE939:
 1525              	.LBE938:
 1526              	.LBB949:
 1527              	.LBB933:
  63:../../libdaisy/src/hid/disp/graphics_common.h **** 
 1528              		.loc 17 63 44 view .LVU330
 1529 0076 0CEB6306 		add	r6, ip, r3, asr #1
 1530              	.LVL119:
  63:../../libdaisy/src/hid/disp/graphics_common.h **** 
 1531              		.loc 17 63 44 view .LVU331
 1532              	.LBE933:
 1533              	.LBE949:
 1534              	.LBB950:
 1535              	.LBB946:
 1536              	.LBB943:
  32:../../libdaisy/src/hid/disp/graphics_common.h ****     {
 1537              		.loc 17 32 66 view .LVU332
 1538 007a 0346     		mov	r3, r0
 1539 007c 0780     		strh	r7, [r0]	@ movhi
 1540              	.L158:
  32:../../libdaisy/src/hid/disp/graphics_common.h ****     {
 1541              		.loc 17 32 66 view .LVU333
 1542 007e 8280     		strh	r2, [r0, #4]	@ movhi
 1543 0080 D980     		strh	r1, [r3, #6]	@ movhi
 1544              	.LBE943:
 1545              	.LBE946:
 1546              	.LBE950:
 252:../../libdaisy/src/hid/disp/graphics_common.h ****                         width_,
 1547              		.loc 17 252 58 view .LVU334
 1548 0082 A6EB5101 		sub	r1, r6, r1, lsr #1
 1549 0086 8EB2     		uxth	r6, r1
ARM GAS  /tmp/ccPAoVZi.s 			page 61


 1550              	.LVL120:
 1551              	.LBB951:
 1552              	.LBI938:
  31:../../libdaisy/src/hid/disp/graphics_common.h ****     : x_(x), y_(y), width_(max(0, width)), height_(max(0, height))
 1553              		.loc 17 31 5 is_stmt 1 view .LVU335
 1554              	.LBB947:
 1555              	.LBB944:
  32:../../libdaisy/src/hid/disp/graphics_common.h ****     {
 1556              		.loc 17 32 66 is_stmt 0 view .LVU336
 1557 0088 5E80     		strh	r6, [r3, #2]	@ movhi
 1558              	.LVL121:
 1559              	.LBB941:
 1560              	.LBI941:
 1561              		.loc 17 261 13 is_stmt 1 view .LVU337
 1562              		.loc 17 261 13 is_stmt 0 view .LVU338
 1563              	.LBE941:
 1564              	.LBE944:
 1565              	.LBE947:
 1566              	.LBE951:
 1567              	.LBE916:
 1568              	.LBE915:
 1569              		.loc 17 261 41 is_stmt 1 view .LVU339
 1570              	.LBB1136:
 1571              	.LBB1121:
 1572              	.LBB952:
 1573              	.LBB948:
 1574              	.LBB945:
 1575              	.LBB942:
 1576              	.LBI942:
 1577              		.loc 17 261 13 view .LVU340
 1578              		.loc 17 261 13 is_stmt 0 view .LVU341
 1579              	.LBE942:
 1580              	.LBE945:
 1581              	.LBE948:
 1582              	.LBE952:
 1583              	.LBE1121:
 1584              	.LBE1136:
 1585              		.loc 17 261 41 is_stmt 1 view .LVU342
 1586              	.L97:
  56:../../libdaisy/src/hid/disp/graphics_common.h ****     int16_t GetY() const { return y_; }
 1587              		.loc 17 56 28 view .LVU343
  57:../../libdaisy/src/hid/disp/graphics_common.h ****     int16_t GetWidth() const { return width_; }
 1588              		.loc 17 57 28 view .LVU344
 1589              	.LBB1137:
 1590              	.LBI1137:
 171:../../libdaisy/src/hid/disp/display.h ****     {
 1591              		.loc 6 171 10 view .LVU345
 1592              	.LBB1138:
 173:../../libdaisy/src/hid/disp/display.h ****         currentY_ = (y >= Height()) ? Height() - 1 : y;
 1593              		.loc 6 173 9 view .LVU346
 1594 008a B64A     		ldr	r2, .L170
 173:../../libdaisy/src/hid/disp/display.h ****         currentY_ = (y >= Height()) ? Height() - 1 : y;
 1595              		.loc 6 173 33 is_stmt 0 view .LVU347
 1596 008c 2368     		ldr	r3, [r4]
 1597 008e 1146     		mov	r1, r2
 1598 0090 0192     		str	r2, [sp, #4]
 1599 0092 DA68     		ldr	r2, [r3, #12]
ARM GAS  /tmp/ccPAoVZi.s 			page 62


 1600 0094 8A42     		cmp	r2, r1
 1601 0096 40F08F81 		bne	.L105
 1602 009a 8020     		movs	r0, #128
 1603              	.LVL122:
 1604              	.L106:
 173:../../libdaisy/src/hid/disp/display.h ****         currentY_ = (y >= Height()) ? Height() - 1 : y;
 1605              		.loc 6 173 19 view .LVU348
 1606 009c B842     		cmp	r0, r7
 1607 009e 05D8     		bhi	.L107
 173:../../libdaisy/src/hid/disp/display.h ****         currentY_ = (y >= Height()) ? Height() - 1 : y;
 1608              		.loc 6 173 44 view .LVU349
 1609 00a0 DA68     		ldr	r2, [r3, #12]
 1610 00a2 0199     		ldr	r1, [sp, #4]
 1611 00a4 8A42     		cmp	r2, r1
 1612 00a6 40F09A81 		bne	.L161
 1613 00aa 7F27     		movs	r7, #127
 1614              	.L107:
 174:../../libdaisy/src/hid/disp/display.h ****     }
 1615              		.loc 6 174 34 view .LVU350
 1616 00ac 9B68     		ldr	r3, [r3, #8]
 1617 00ae AE4A     		ldr	r2, .L170+4
 173:../../libdaisy/src/hid/disp/display.h ****         currentY_ = (y >= Height()) ? Height() - 1 : y;
 1618              		.loc 6 173 19 view .LVU351
 1619 00b0 A780     		strh	r7, [r4, #4]	@ movhi
 174:../../libdaisy/src/hid/disp/display.h ****     }
 1620              		.loc 6 174 9 is_stmt 1 view .LVU352
 1621 00b2 9342     		cmp	r3, r2
 1622 00b4 0392     		str	r2, [sp, #12]
 1623 00b6 40F08A81 		bne	.L137
 174:../../libdaisy/src/hid/disp/display.h ****     }
 1624              		.loc 6 174 34 is_stmt 0 view .LVU353
 1625 00ba 4020     		movs	r0, #64
 1626              	.L109:
 174:../../libdaisy/src/hid/disp/display.h ****     }
 1627              		.loc 6 174 19 view .LVU354
 1628 00bc B042     		cmp	r0, r6
 1629 00be 06D8     		bhi	.L111
 174:../../libdaisy/src/hid/disp/display.h ****     }
 1630              		.loc 6 174 46 view .LVU355
 1631 00c0 2368     		ldr	r3, [r4]
 1632 00c2 039A     		ldr	r2, [sp, #12]
 1633 00c4 9B68     		ldr	r3, [r3, #8]
 1634 00c6 9342     		cmp	r3, r2
 1635 00c8 40F08481 		bne	.L162
 1636 00cc 3F26     		movs	r6, #63
 1637              	.L111:
 174:../../libdaisy/src/hid/disp/display.h ****     }
 1638              		.loc 6 174 46 view .LVU356
 1639 00ce 6B78     		ldrb	r3, [r5, #1]	@ zero_extendqisi2
 174:../../libdaisy/src/hid/disp/display.h ****     }
 1640              		.loc 6 174 19 view .LVU357
 1641 00d0 E680     		strh	r6, [r4, #6]	@ movhi
 1642              	.LVL123:
 174:../../libdaisy/src/hid/disp/display.h ****     }
 1643              		.loc 6 174 19 view .LVU358
 1644 00d2 0493     		str	r3, [sp, #16]
 1645              	.LBE1138:
ARM GAS  /tmp/ccPAoVZi.s 			page 63


 1646              	.LBE1137:
 1647              	.LBB1142:
 1648              	.LBB1143:
 443:../../libdaisy/src/hid/disp/display.h ****         {
 1649              		.loc 6 443 9 view .LVU359
 1650 00d4 98F80060 		ldrb	r6, [r8]	@ zero_extendqisi2
 1651 00d8 6B68     		ldr	r3, [r5, #4]
 1652 00da 95F800B0 		ldrb	fp, [r5]	@ zero_extendqisi2
 1653              	.LVL124:
 443:../../libdaisy/src/hid/disp/display.h ****         {
 1654              		.loc 6 443 9 view .LVU360
 1655 00de 0793     		str	r3, [sp, #28]
 1656              	.LVL125:
 443:../../libdaisy/src/hid/disp/display.h ****         {
 1657              		.loc 6 443 9 view .LVU361
 1658              	.LBE1143:
 1659              	.LBI1142:
 440:../../libdaisy/src/hid/disp/display.h ****     {
 1660              		.loc 6 440 10 is_stmt 1 view .LVU362
 1661              	.LBB1186:
 443:../../libdaisy/src/hid/disp/display.h ****         {
 1662              		.loc 6 443 9 view .LVU363
 1663 00e0 002E     		cmp	r6, #0
 1664 00e2 00F0AD80 		beq	.L83
 1665              	.LVL126:
 1666              	.L113:
 1667              	.LBB1144:
 1668              	.LBI1144:
 396:../../libdaisy/src/hid/disp/display.h ****     {
 1669              		.loc 6 396 10 view .LVU364
 1670              	.LBB1145:
 401:../../libdaisy/src/hid/disp/display.h ****             return 0;
 1671              		.loc 6 401 20 is_stmt 0 view .LVU365
 1672 00e6 A6F12005 		sub	r5, r6, #32
 401:../../libdaisy/src/hid/disp/display.h ****             return 0;
 1673              		.loc 6 401 9 view .LVU366
 1674 00ea EBB2     		uxtb	r3, r5
 1675 00ec 5E2B     		cmp	r3, #94
 1676 00ee 00F23481 		bhi	.L117
 405:../../libdaisy/src/hid/disp/display.h ****            || Height() < (currentY_ + font.FontHeight))
 1677              		.loc 6 405 17 view .LVU367
 1678 00f2 2368     		ldr	r3, [r4]
 1679 00f4 019A     		ldr	r2, [sp, #4]
 1680 00f6 DB68     		ldr	r3, [r3, #12]
 1681 00f8 9342     		cmp	r3, r2
 1682 00fa 40F03081 		bne	.L163
 1683 00fe 8020     		movs	r0, #128
 1684              	.L116:
 405:../../libdaisy/src/hid/disp/display.h ****            || Height() < (currentY_ + font.FontHeight))
 1685              		.loc 6 405 23 view .LVU368
 1686 0100 A388     		ldrh	r3, [r4, #4]
 405:../../libdaisy/src/hid/disp/display.h ****            || Height() < (currentY_ + font.FontHeight))
 1687              		.loc 6 405 33 view .LVU369
 1688 0102 5B44     		add	r3, r3, fp
 406:../../libdaisy/src/hid/disp/display.h ****         {
 1689              		.loc 6 406 12 view .LVU370
 1690 0104 9842     		cmp	r0, r3
ARM GAS  /tmp/ccPAoVZi.s 			page 64


 1691 0106 C0F22881 		blt	.L117
 406:../../libdaisy/src/hid/disp/display.h ****         {
 1692              		.loc 6 406 21 view .LVU371
 1693 010a 2368     		ldr	r3, [r4]
 1694 010c 039A     		ldr	r2, [sp, #12]
 1695 010e 9B68     		ldr	r3, [r3, #8]
 1696 0110 9342     		cmp	r3, r2
 1697 0112 40F02B81 		bne	.L164
 1698 0116 4020     		movs	r0, #64
 1699              	.L118:
 406:../../libdaisy/src/hid/disp/display.h ****         {
 1700              		.loc 6 406 27 view .LVU372
 1701 0118 E188     		ldrh	r1, [r4, #6]
 406:../../libdaisy/src/hid/disp/display.h ****         {
 1702              		.loc 6 406 37 view .LVU373
 1703 011a 049A     		ldr	r2, [sp, #16]
 406:../../libdaisy/src/hid/disp/display.h ****         {
 1704              		.loc 6 406 27 view .LVU374
 1705 011c 0291     		str	r1, [sp, #8]
 406:../../libdaisy/src/hid/disp/display.h ****         {
 1706              		.loc 6 406 37 view .LVU375
 1707 011e 8B18     		adds	r3, r1, r2
 406:../../libdaisy/src/hid/disp/display.h ****         {
 1708              		.loc 6 406 12 view .LVU376
 1709 0120 9842     		cmp	r0, r3
 1710 0122 C0F21A81 		blt	.L117
 1711              	.LVL127:
 413:../../libdaisy/src/hid/disp/display.h ****         {
 1712              		.loc 6 413 22 is_stmt 1 view .LVU377
 1713 0126 1046     		mov	r0, r2
 1714 0128 002A     		cmp	r2, #0
 1715 012a 00F02981 		beq	.L119
 415:../../libdaisy/src/hid/disp/display.h ****             for(j = 0; j < font.FontWidth; j++)
 1716              		.loc 6 415 37 is_stmt 0 view .LVU378
 1717 012e 1346     		mov	r3, r2
 1718 0130 6FF00047 		mvn	r7, #-2147483648
 1719 0134 B4F804C0 		ldrh	ip, [r4, #4]
 1720 0138 03FB05F3 		mul	r3, r3, r5
 1721 013c 079D     		ldr	r5, [sp, #28]
 1722 013e CDF81880 		str	r8, [sp, #24]
 1723 0142 AA1E     		subs	r2, r5, #2
 1724 0144 1F44     		add	r7, r7, r3
 1725 0146 0344     		add	r3, r3, r0
 1726 0148 DDF82090 		ldr	r9, [sp, #32]
 1727 014c 05EB4707 		add	r7, r5, r7, lsl #1
 1728 0150 0596     		str	r6, [sp, #20]
 1729 0152 02EB4303 		add	r3, r2, r3, lsl #1
 1730 0156 2246     		mov	r2, r4
 1731 0158 5C46     		mov	r4, fp
 1732              	.LVL128:
 415:../../libdaisy/src/hid/disp/display.h ****             for(j = 0; j < font.FontWidth; j++)
 1733              		.loc 6 415 37 view .LVU379
 1734 015a 9846     		mov	r8, r3
 1735              	.LVL129:
 415:../../libdaisy/src/hid/disp/display.h ****             for(j = 0; j < font.FontWidth; j++)
 1736              		.loc 6 415 37 view .LVU380
 1737 015c 9346     		mov	fp, r2
ARM GAS  /tmp/ccPAoVZi.s 			page 65


 1738              	.LVL130:
 1739              	.L122:
 415:../../libdaisy/src/hid/disp/display.h ****             for(j = 0; j < font.FontWidth; j++)
 1740              		.loc 6 415 13 view .LVU381
 1741 015e 37F802AF 		ldrh	r10, [r7, #2]!
 1742              	.LVL131:
 416:../../libdaisy/src/hid/disp/display.h ****             {
 1743              		.loc 6 416 26 is_stmt 1 view .LVU382
 1744 0162 A4B3     		cbz	r4, .L127
 1745              	.LBB1146:
 1746              	.LBB1147:
 1747              	.LBB1148:
 1748              	.LBB1149:
 1749              	.LBB1150:
 246:../../libdaisy/src/dev/oled_ssd130x.h ****     }
 1750              		.loc 15 246 49 is_stmt 0 view .LVU383
 1751 0164 0125     		movs	r5, #1
 246:../../libdaisy/src/dev/oled_ssd130x.h ****     }
 1752              		.loc 15 246 55 view .LVU384
 1753 0166 01F00702 		and	r2, r1, #7
 246:../../libdaisy/src/dev/oled_ssd130x.h ****     }
 1754              		.loc 15 246 28 view .LVU385
 1755 016a C808     		lsrs	r0, r1, #3
 1756 016c 0CF11403 		add	r3, ip, #20
 246:../../libdaisy/src/dev/oled_ssd130x.h ****     }
 1757              		.loc 15 246 49 view .LVU386
 1758 0170 05FA02F2 		lsl	r2, r5, r2
 1759 0174 6546     		mov	r5, ip
 1760 0176 03EBC013 		add	r3, r3, r0, lsl #7
 1761              	.LBE1150:
 1762              	.LBE1149:
 1763              	.LBE1148:
 1764              	.LBE1147:
 1765              	.LBE1146:
 416:../../libdaisy/src/hid/disp/display.h ****             {
 1766              		.loc 6 416 19 view .LVU387
 1767 017a 0020     		movs	r0, #0
 1768              	.LBB1168:
 1769              	.LBB1163:
 1770              	.LBB1158:
 1771              	.LBB1154:
 1772              	.LBB1151:
 246:../../libdaisy/src/dev/oled_ssd130x.h ****     }
 1773              		.loc 15 246 42 view .LVU388
 1774 017c 52B2     		sxtb	r2, r2
 1775 017e 5B44     		add	r3, r3, fp
 1776 0180 6FEA020E 		mvn	lr, r2
 1777 0184 0EE0     		b	.L128
 1778              	.LVL132:
 1779              	.L165:
 246:../../libdaisy/src/dev/oled_ssd130x.h ****     }
 1780              		.loc 15 246 42 view .LVU389
 1781              	.LBE1151:
 1782              	.LBE1154:
 1783              	.LBE1158:
 1784              	.LBE1163:
 1785              	.LBE1168:
ARM GAS  /tmp/ccPAoVZi.s 			page 66


 1786              	.LBB1169:
 1787              	.LBI1169:
  41:../../libdaisy/src/hid/disp/oled_display.h ****     {
 1788              		.loc 5 41 10 is_stmt 1 view .LVU390
 1789              	.LBB1170:
 1790              	.LBI1170:
 239:../../libdaisy/src/dev/oled_ssd130x.h ****     {
 1791              		.loc 15 239 10 view .LVU391
 1792              	.LBB1171:
 241:../../libdaisy/src/dev/oled_ssd130x.h ****             return;
 1793              		.loc 15 241 9 is_stmt 0 view .LVU392
 1794 0186 7F2D     		cmp	r5, #127
 1795 0188 07D8     		bhi	.L124
 1796 018a 3F29     		cmp	r1, #63
 1797 018c 05D8     		bhi	.L124
 244:../../libdaisy/src/dev/oled_ssd130x.h ****         else
 1798              		.loc 15 244 42 view .LVU393
 1799 018e 1E78     		ldrb	r6, [r3]	@ zero_extendqisi2
 243:../../libdaisy/src/dev/oled_ssd130x.h ****             buffer_[x + (y / 8) * width] |= (1 << (y % 8));
 1800              		.loc 15 243 9 view .LVU394
 1801 0190 B9F1000F 		cmp	r9, #0
 1802 0194 12D0     		beq	.L126
 1803              	.L159:
 243:../../libdaisy/src/dev/oled_ssd130x.h ****             buffer_[x + (y / 8) * width] |= (1 << (y % 8));
 1804              		.loc 15 243 9 view .LVU395
 1805              	.LBE1171:
 1806              	.LBE1170:
 1807              	.LBE1169:
 1808              	.LBB1172:
 1809              	.LBB1164:
 1810              	.LBB1159:
 244:../../libdaisy/src/dev/oled_ssd130x.h ****         else
 1811              		.loc 15 244 42 view .LVU396
 1812 0196 1643     		orrs	r6, r6, r2
 244:../../libdaisy/src/dev/oled_ssd130x.h ****         else
 1813              		.loc 15 244 13 view .LVU397
 1814 0198 1E70     		strb	r6, [r3]
 1815              	.L124:
 1816              	.LBE1159:
 1817              	.LBE1164:
 1818              	.LBE1172:
 416:../../libdaisy/src/hid/disp/display.h ****             {
 1819              		.loc 6 416 13 is_stmt 1 view .LVU398
 1820 019a 0130     		adds	r0, r0, #1
 1821              	.LVL133:
 416:../../libdaisy/src/hid/disp/display.h ****             {
 1822              		.loc 6 416 26 view .LVU399
 1823 019c 0133     		adds	r3, r3, #1
 1824 019e 0135     		adds	r5, r5, #1
 1825 01a0 8442     		cmp	r4, r0
 1826 01a2 14D0     		beq	.L127
 1827              	.LVL134:
 1828              	.L128:
 418:../../libdaisy/src/hid/disp/display.h ****                 {
 1829              		.loc 6 418 23 is_stmt 0 view .LVU400
 1830 01a4 0AFA00F6 		lsl	r6, r10, r0
 418:../../libdaisy/src/hid/disp/display.h ****                 {
ARM GAS  /tmp/ccPAoVZi.s 			page 67


 1831              		.loc 6 418 17 view .LVU401
 1832 01a8 3604     		lsls	r6, r6, #16
 1833 01aa ECD4     		bmi	.L165
 1834              	.LVL135:
 1835              	.LBB1173:
 1836              	.LBI1146:
  41:../../libdaisy/src/hid/disp/oled_display.h ****     {
 1837              		.loc 5 41 10 is_stmt 1 view .LVU402
 1838              	.LBB1165:
 1839              	.LBI1147:
 239:../../libdaisy/src/dev/oled_ssd130x.h ****     {
 1840              		.loc 15 239 10 view .LVU403
 1841              	.LBB1160:
 241:../../libdaisy/src/dev/oled_ssd130x.h ****             return;
 1842              		.loc 15 241 9 is_stmt 0 view .LVU404
 1843 01ac 7F2D     		cmp	r5, #127
 1844 01ae F4D8     		bhi	.L124
 1845 01b0 3F29     		cmp	r1, #63
 1846 01b2 F2D8     		bhi	.L124
 244:../../libdaisy/src/dev/oled_ssd130x.h ****         else
 1847              		.loc 15 244 42 view .LVU405
 1848 01b4 1E78     		ldrb	r6, [r3]	@ zero_extendqisi2
 243:../../libdaisy/src/dev/oled_ssd130x.h ****             buffer_[x + (y / 8) * width] |= (1 << (y % 8));
 1849              		.loc 15 243 9 view .LVU406
 1850 01b6 B9F1000F 		cmp	r9, #0
 1851 01ba ECD0     		beq	.L159
 1852              	.L126:
 1853              	.LVL136:
 1854              	.LBB1155:
 1855              	.LBI1149:
 239:../../libdaisy/src/dev/oled_ssd130x.h ****     {
 1856              		.loc 15 239 10 is_stmt 1 view .LVU407
 239:../../libdaisy/src/dev/oled_ssd130x.h ****     {
 1857              		.loc 15 239 10 is_stmt 0 view .LVU408
 1858              	.LBE1155:
 1859              	.LBE1160:
 1860              	.LBE1165:
 1861              	.LBE1173:
 416:../../libdaisy/src/hid/disp/display.h ****             {
 1862              		.loc 6 416 13 view .LVU409
 1863 01bc 0130     		adds	r0, r0, #1
 1864              	.LVL137:
 1865              	.LBB1174:
 1866              	.LBB1166:
 1867              	.LBB1161:
 1868              	.LBB1156:
 1869              	.LBB1152:
 246:../../libdaisy/src/dev/oled_ssd130x.h ****     }
 1870              		.loc 15 246 42 view .LVU410
 1871 01be 0EEA0606 		and	r6, lr, r6
 1872 01c2 0133     		adds	r3, r3, #1
 1873 01c4 0135     		adds	r5, r5, #1
 1874              	.LBE1152:
 1875              	.LBE1156:
 1876              	.LBE1161:
 1877              	.LBE1166:
 1878              	.LBE1174:
ARM GAS  /tmp/ccPAoVZi.s 			page 68


 416:../../libdaisy/src/hid/disp/display.h ****             {
 1879              		.loc 6 416 26 view .LVU411
 1880 01c6 8442     		cmp	r4, r0
 1881              	.LBB1175:
 1882              	.LBB1167:
 1883              	.LBB1162:
 1884              	.LBB1157:
 1885              	.LBB1153:
 246:../../libdaisy/src/dev/oled_ssd130x.h ****     }
 1886              		.loc 15 246 13 view .LVU412
 1887 01c8 03F8016C 		strb	r6, [r3, #-1]
 246:../../libdaisy/src/dev/oled_ssd130x.h ****     }
 1888              		.loc 15 246 13 view .LVU413
 1889              	.LBE1153:
 1890              	.LBE1157:
 1891              	.LBE1162:
 1892              	.LBE1167:
 1893              	.LBE1175:
 416:../../libdaisy/src/hid/disp/display.h ****             {
 1894              		.loc 6 416 13 is_stmt 1 view .LVU414
 1895              	.LVL138:
 416:../../libdaisy/src/hid/disp/display.h ****             {
 1896              		.loc 6 416 26 view .LVU415
 1897 01cc EAD1     		bne	.L128
 1898              	.LVL139:
 1899              	.L127:
 413:../../libdaisy/src/hid/disp/display.h ****         {
 1900              		.loc 6 413 9 view .LVU416
 413:../../libdaisy/src/hid/disp/display.h ****         {
 1901              		.loc 6 413 22 view .LVU417
 1902 01ce B845     		cmp	r8, r7
 1903 01d0 01F10101 		add	r1, r1, #1
 1904 01d4 C3D1     		bne	.L122
 1905 01d6 5B46     		mov	r3, fp
 1906 01d8 059E     		ldr	r6, [sp, #20]
 1907 01da A346     		mov	fp, r4
 1908              	.LVL140:
 413:../../libdaisy/src/hid/disp/display.h ****         {
 1909              		.loc 6 413 22 is_stmt 0 view .LVU418
 1910 01dc DDF81880 		ldr	r8, [sp, #24]
 1911 01e0 1C46     		mov	r4, r3
 1912              	.LVL141:
 1913              	.L121:
 1914              	.LBB1176:
 1915              	.LBB1177:
 173:../../libdaisy/src/hid/disp/display.h ****         currentY_ = (y >= Height()) ? Height() - 1 : y;
 1916              		.loc 6 173 33 view .LVU419
 1917 01e2 2268     		ldr	r2, [r4]
 1918              	.LBE1177:
 1919              	.LBE1176:
 434:../../libdaisy/src/hid/disp/display.h **** 
 1920              		.loc 6 434 18 view .LVU420
 1921 01e4 DC44     		add	ip, ip, fp
 1922 01e6 0199     		ldr	r1, [sp, #4]
 1923              	.LBB1181:
 1924              	.LBB1178:
 173:../../libdaisy/src/hid/disp/display.h ****         currentY_ = (y >= Height()) ? Height() - 1 : y;
ARM GAS  /tmp/ccPAoVZi.s 			page 69


 1925              		.loc 6 173 33 view .LVU421
 1926 01e8 D368     		ldr	r3, [r2, #12]
 1927              	.LBE1178:
 1928              	.LBE1181:
 434:../../libdaisy/src/hid/disp/display.h **** 
 1929              		.loc 6 434 18 view .LVU422
 1930 01ea 1FFA8CF5 		uxth	r5, ip
 1931              	.LVL142:
 1932              	.LBB1182:
 1933              	.LBI1176:
 171:../../libdaisy/src/hid/disp/display.h ****     {
 1934              		.loc 6 171 10 is_stmt 1 view .LVU423
 1935              	.LBB1179:
 173:../../libdaisy/src/hid/disp/display.h ****         currentY_ = (y >= Height()) ? Height() - 1 : y;
 1936              		.loc 6 173 9 view .LVU424
 1937 01ee 8B42     		cmp	r3, r1
 1938 01f0 40F0C280 		bne	.L166
 173:../../libdaisy/src/hid/disp/display.h ****         currentY_ = (y >= Height()) ? Height() - 1 : y;
 1939              		.loc 6 173 33 is_stmt 0 view .LVU425
 1940 01f4 8020     		movs	r0, #128
 1941              	.L129:
 173:../../libdaisy/src/hid/disp/display.h ****         currentY_ = (y >= Height()) ? Height() - 1 : y;
 1942              		.loc 6 173 19 view .LVU426
 1943 01f6 8542     		cmp	r5, r0
 1944 01f8 05D3     		bcc	.L130
 173:../../libdaisy/src/hid/disp/display.h ****         currentY_ = (y >= Height()) ? Height() - 1 : y;
 1945              		.loc 6 173 44 view .LVU427
 1946 01fa D368     		ldr	r3, [r2, #12]
 1947 01fc 0199     		ldr	r1, [sp, #4]
 1948 01fe 8B42     		cmp	r3, r1
 1949 0200 40F0C780 		bne	.L167
 1950 0204 7F25     		movs	r5, #127
 1951              	.LVL143:
 1952              	.L130:
 174:../../libdaisy/src/hid/disp/display.h ****     }
 1953              		.loc 6 174 34 view .LVU428
 1954 0206 9368     		ldr	r3, [r2, #8]
 1955 0208 039A     		ldr	r2, [sp, #12]
 173:../../libdaisy/src/hid/disp/display.h ****         currentY_ = (y >= Height()) ? Height() - 1 : y;
 1956              		.loc 6 173 19 view .LVU429
 1957 020a A580     		strh	r5, [r4, #4]	@ movhi
 174:../../libdaisy/src/hid/disp/display.h ****     }
 1958              		.loc 6 174 9 is_stmt 1 view .LVU430
 1959 020c 9342     		cmp	r3, r2
 1960 020e 40F0B080 		bne	.L168
 174:../../libdaisy/src/hid/disp/display.h ****     }
 1961              		.loc 6 174 34 is_stmt 0 view .LVU431
 1962 0212 4020     		movs	r0, #64
 1963              	.L132:
 174:../../libdaisy/src/hid/disp/display.h ****     }
 1964              		.loc 6 174 19 view .LVU432
 1965 0214 029B     		ldr	r3, [sp, #8]
 1966 0216 8342     		cmp	r3, r0
 1967 0218 07D3     		bcc	.L133
 174:../../libdaisy/src/hid/disp/display.h ****     }
 1968              		.loc 6 174 46 view .LVU433
 1969 021a 2368     		ldr	r3, [r4]
ARM GAS  /tmp/ccPAoVZi.s 			page 70


 1970 021c 039A     		ldr	r2, [sp, #12]
 1971 021e 9B68     		ldr	r3, [r3, #8]
 1972 0220 9342     		cmp	r3, r2
 1973 0222 40F0B080 		bne	.L169
 1974 0226 3F23     		movs	r3, #63
 1975 0228 0293     		str	r3, [sp, #8]
 1976              	.LVL144:
 1977              	.L133:
 174:../../libdaisy/src/hid/disp/display.h ****     }
 1978              		.loc 6 174 19 view .LVU434
 1979 022a 029B     		ldr	r3, [sp, #8]
 1980 022c E380     		strh	r3, [r4, #6]	@ movhi
 1981              	.LVL145:
 1982              	.L115:
 174:../../libdaisy/src/hid/disp/display.h ****     }
 1983              		.loc 6 174 19 view .LVU435
 1984              	.LBE1179:
 1985              	.LBE1182:
 1986              	.LBE1145:
 1987              	.LBE1144:
 445:../../libdaisy/src/hid/disp/display.h ****                != *str)
 1988              		.loc 6 445 13 view .LVU436
 1989 022e 98F80030 		ldrb	r3, [r8]	@ zero_extendqisi2
 1990 0232 B342     		cmp	r3, r6
 1991 0234 04D1     		bne	.L83
 1992              	.LVL146:
 443:../../libdaisy/src/hid/disp/display.h ****         {
 1993              		.loc 6 443 9 is_stmt 1 view .LVU437
 1994 0236 18F8016F 		ldrb	r6, [r8, #1]!	@ zero_extendqisi2
 1995              	.LVL147:
 443:../../libdaisy/src/hid/disp/display.h ****         {
 1996              		.loc 6 443 9 is_stmt 0 view .LVU438
 1997 023a 002E     		cmp	r6, #0
 1998 023c 7FF453AF 		bne	.L113
 1999              	.LVL148:
 2000              	.L83:
 443:../../libdaisy/src/hid/disp/display.h ****         {
 2001              		.loc 6 443 9 view .LVU439
 2002              	.LBE1186:
 2003              	.LBE1142:
 471:../../libdaisy/src/hid/disp/display.h **** 
 2004              		.loc 6 471 5 view .LVU440
 2005 0240 0998     		ldr	r0, [sp, #36]
 2006 0242 0BB0     		add	sp, sp, #44
 2007              		.cfi_remember_state
 2008              		.cfi_def_cfa_offset 36
 2009              		@ sp needed
 2010 0244 BDE8F08F 		pop	{r4, r5, r6, r7, r8, r9, r10, fp, pc}
 2011              	.LVL149:
 2012              	.L96:
 2013              		.cfi_restore_state
 2014              	.LBB1188:
 2015              	.LBB1122:
 250:../../libdaisy/src/hid/disp/graphics_common.h ****                 return {int16_t(x_ + (other.GetCenterX() - GetCenterX())),
 2016              		.loc 17 250 13 is_stmt 1 view .LVU441
 251:../../libdaisy/src/hid/disp/graphics_common.h ****                         int16_t(y_ + (other.GetCenterY() - GetCenterY())),
 2017              		.loc 17 251 17 view .LVU442
ARM GAS  /tmp/ccPAoVZi.s 			page 71


 2018              	.LBB953:
 2019              	.LBI953:
  62:../../libdaisy/src/hid/disp/graphics_common.h ****     int16_t GetCenterY() const { return y_ + height_ / 2; }
 2020              		.loc 17 62 13 view .LVU443
 2021              	.LBB954:
  62:../../libdaisy/src/hid/disp/graphics_common.h ****     int16_t GetCenterY() const { return y_ + height_ / 2; }
 2022              		.loc 17 62 34 view .LVU444
  62:../../libdaisy/src/hid/disp/graphics_common.h ****     int16_t GetCenterY() const { return y_ + height_ / 2; }
 2023              		.loc 17 62 34 is_stmt 0 view .LVU445
 2024              	.LBE954:
 2025              	.LBE953:
 2026              	.LBB958:
 2027              	.LBI958:
  62:../../libdaisy/src/hid/disp/graphics_common.h ****     int16_t GetCenterY() const { return y_ + height_ / 2; }
 2028              		.loc 17 62 13 is_stmt 1 view .LVU446
 2029              	.LBB959:
  62:../../libdaisy/src/hid/disp/graphics_common.h ****     int16_t GetCenterY() const { return y_ + height_ / 2; }
 2030              		.loc 17 62 34 view .LVU447
 2031              	.LBE959:
 2032              	.LBE958:
 2033              	.LBB960:
 2034              	.LBB955:
  62:../../libdaisy/src/hid/disp/graphics_common.h ****     int16_t GetCenterY() const { return y_ + height_ / 2; }
 2035              		.loc 17 62 53 is_stmt 0 view .LVU448
 2036 0248 B6F90400 		ldrsh	r0, [r6, #4]
  62:../../libdaisy/src/hid/disp/graphics_common.h ****     int16_t GetCenterY() const { return y_ + height_ / 2; }
 2037              		.loc 17 62 44 view .LVU449
 2038 024c 3788     		ldrh	r7, [r6]
  62:../../libdaisy/src/hid/disp/graphics_common.h ****     int16_t GetCenterY() const { return y_ + height_ / 2; }
 2039              		.loc 17 62 53 view .LVU450
 2040 024e 0028     		cmp	r0, #0
 2041              	.LBE955:
 2042              	.LBE960:
 2043              	.LBB961:
 2044              	.LBB934:
  63:../../libdaisy/src/hid/disp/graphics_common.h **** 
 2045              		.loc 17 63 54 view .LVU451
 2046 0250 B6F90630 		ldrsh	r3, [r6, #6]
 2047              	.LVL150:
  63:../../libdaisy/src/hid/disp/graphics_common.h **** 
 2048              		.loc 17 63 54 view .LVU452
 2049              	.LBE934:
 2050              	.LBE961:
 2051              	.LBB962:
 2052              	.LBB956:
  62:../../libdaisy/src/hid/disp/graphics_common.h ****     int16_t GetCenterY() const { return y_ + height_ / 2; }
 2053              		.loc 17 62 53 view .LVU453
 2054 0254 B8BF     		it	lt
 2055 0256 0130     		addlt	r0, r0, #1
 2056              	.LBE956:
 2057              	.LBE962:
 2058              	.LBB963:
 2059              	.LBB935:
  63:../../libdaisy/src/hid/disp/graphics_common.h **** 
 2060              		.loc 17 63 54 view .LVU454
 2061 0258 002B     		cmp	r3, #0
 2062              	.LBE935:
ARM GAS  /tmp/ccPAoVZi.s 			page 72


 2063              	.LBE963:
 2064              	.LBB964:
 2065              	.LBB957:
  62:../../libdaisy/src/hid/disp/graphics_common.h ****     int16_t GetCenterY() const { return y_ + height_ / 2; }
 2066              		.loc 17 62 44 view .LVU455
 2067 025a 07EB6007 		add	r7, r7, r0, asr #1
 2068              	.LBE957:
 2069              	.LBE964:
 251:../../libdaisy/src/hid/disp/graphics_common.h ****                         int16_t(y_ + (other.GetCenterY() - GetCenterY())),
 2070              		.loc 17 251 58 view .LVU456
 2071 025e A7EB6207 		sub	r7, r7, r2, asr #1
 2072 0262 BFB2     		uxth	r7, r7
 2073              	.LBB965:
 2074              	.LBI931:
  63:../../libdaisy/src/hid/disp/graphics_common.h **** 
 2075              		.loc 17 63 13 is_stmt 1 view .LVU457
 2076              	.LVL151:
 2077              	.LBB936:
  63:../../libdaisy/src/hid/disp/graphics_common.h **** 
 2078              		.loc 17 63 34 view .LVU458
  63:../../libdaisy/src/hid/disp/graphics_common.h **** 
 2079              		.loc 17 63 34 is_stmt 0 view .LVU459
 2080              	.LBE936:
 2081              	.LBE965:
 2082              	.LBB966:
 2083              	.LBI966:
  63:../../libdaisy/src/hid/disp/graphics_common.h **** 
 2084              		.loc 17 63 13 is_stmt 1 view .LVU460
 2085              	.LBB967:
  63:../../libdaisy/src/hid/disp/graphics_common.h **** 
 2086              		.loc 17 63 34 view .LVU461
 2087              	.LBE967:
 2088              	.LBE966:
 2089              	.LBB968:
 2090              	.LBB937:
  63:../../libdaisy/src/hid/disp/graphics_common.h **** 
 2091              		.loc 17 63 54 is_stmt 0 view .LVU462
 2092 0264 BFF604AF 		bge	.L103
 2093              	.LVL152:
 2094              	.L160:
  63:../../libdaisy/src/hid/disp/graphics_common.h **** 
 2095              		.loc 17 63 54 view .LVU463
 2096 0268 0133     		adds	r3, r3, #1
 2097 026a 01E7     		b	.L103
 2098              	.LVL153:
 2099              	.L95:
  63:../../libdaisy/src/hid/disp/graphics_common.h **** 
 2100              		.loc 17 63 54 view .LVU464
 2101              	.LBE937:
 2102              	.LBE968:
 213:../../libdaisy/src/hid/disp/graphics_common.h ****                 return {other.x_, other.y_, width_, height_};
 2103              		.loc 17 213 13 is_stmt 1 view .LVU465
 214:../../libdaisy/src/hid/disp/graphics_common.h ****             case Alignment::topRight:
 2104              		.loc 17 214 17 view .LVU466
 214:../../libdaisy/src/hid/disp/graphics_common.h ****             case Alignment::topRight:
 2105              		.loc 17 214 31 is_stmt 0 view .LVU467
 2106 026c B6F90070 		ldrsh	r7, [r6]
ARM GAS  /tmp/ccPAoVZi.s 			page 73


 2107              	.LBB969:
 2108              	.LBB970:
 2109              	.LBB971:
  32:../../libdaisy/src/hid/disp/graphics_common.h ****     {
 2110              		.loc 17 32 66 view .LVU468
 2111 0270 099B     		ldr	r3, [sp, #36]
 2112              	.LVL154:
  32:../../libdaisy/src/hid/disp/graphics_common.h ****     {
 2113              		.loc 17 32 66 view .LVU469
 2114              	.LBE971:
 2115              	.LBE970:
 2116              	.LBE969:
 214:../../libdaisy/src/hid/disp/graphics_common.h ****             case Alignment::topRight:
 2117              		.loc 17 214 41 view .LVU470
 2118 0272 B6F90260 		ldrsh	r6, [r6, #2]
 2119              	.LVL155:
 2120              	.LBB980:
 2121              	.LBI969:
  31:../../libdaisy/src/hid/disp/graphics_common.h ****     : x_(x), y_(y), width_(max(0, width)), height_(max(0, height))
 2122              		.loc 17 31 5 is_stmt 1 view .LVU471
 2123              	.LBB977:
 2124              	.LBB974:
  32:../../libdaisy/src/hid/disp/graphics_common.h ****     {
 2125              		.loc 17 32 66 is_stmt 0 view .LVU472
 2126 0276 1F80     		strh	r7, [r3]	@ movhi
 2127 0278 BFB2     		uxth	r7, r7
 2128              	.LVL156:
  32:../../libdaisy/src/hid/disp/graphics_common.h ****     {
 2129              		.loc 17 32 66 view .LVU473
 2130 027a 5E80     		strh	r6, [r3, #2]	@ movhi
 2131              	.LVL157:
 2132              	.LBB972:
 2133              	.LBI972:
 2134              		.loc 17 261 13 is_stmt 1 view .LVU474
 2135              		.loc 17 261 13 is_stmt 0 view .LVU475
 2136              	.LBE972:
 2137              	.LBE974:
 2138              	.LBE977:
 2139              	.LBE980:
 2140              	.LBE1122:
 2141              	.LBE1188:
 2142              		.loc 17 261 41 is_stmt 1 view .LVU476
 2143              		.loc 17 261 41 is_stmt 0 view .LVU477
 2144 027c B6B2     		uxth	r6, r6
 2145              	.LVL158:
 2146              	.LBB1189:
 2147              	.LBB1123:
 2148              	.LBB981:
 2149              	.LBB978:
 2150              	.LBB975:
  32:../../libdaisy/src/hid/disp/graphics_common.h ****     {
 2151              		.loc 17 32 66 view .LVU478
 2152 027e 9A80     		strh	r2, [r3, #4]	@ movhi
 2153              	.LVL159:
 2154              	.LBB973:
 2155              	.LBI973:
 2156              		.loc 17 261 13 is_stmt 1 view .LVU479
ARM GAS  /tmp/ccPAoVZi.s 			page 74


 2157              		.loc 17 261 13 is_stmt 0 view .LVU480
 2158              	.LBE973:
 2159              	.LBE975:
 2160              	.LBE978:
 2161              	.LBE981:
 2162              	.LBE1123:
 2163              	.LBE1189:
 2164              		.loc 17 261 41 is_stmt 1 view .LVU481
 2165              	.LBB1190:
 2166              	.LBB1124:
 2167              	.LBB982:
 2168              	.LBB979:
 2169              	.LBB976:
  32:../../libdaisy/src/hid/disp/graphics_common.h ****     {
 2170              		.loc 17 32 66 is_stmt 0 view .LVU482
 2171 0280 D980     		strh	r1, [r3, #6]	@ movhi
 2172              	.LBE976:
  34:../../libdaisy/src/hid/disp/graphics_common.h **** 
 2173              		.loc 17 34 5 view .LVU483
 2174 0282 02E7     		b	.L97
 2175              	.LVL160:
 2176              	.L94:
  34:../../libdaisy/src/hid/disp/graphics_common.h **** 
 2177              		.loc 17 34 5 view .LVU484
 2178              	.LBE979:
 2179              	.LBE982:
 220:../../libdaisy/src/hid/disp/graphics_common.h ****                 return {int16_t(x_ + (other.GetCenterX() - GetCenterX())),
 2180              		.loc 17 220 13 is_stmt 1 view .LVU485
 221:../../libdaisy/src/hid/disp/graphics_common.h ****                         other.y_,
 2181              		.loc 17 221 17 view .LVU486
 2182              	.LBB983:
 2183              	.LBI983:
  62:../../libdaisy/src/hid/disp/graphics_common.h ****     int16_t GetCenterY() const { return y_ + height_ / 2; }
 2184              		.loc 17 62 13 view .LVU487
 2185              	.LBB984:
  62:../../libdaisy/src/hid/disp/graphics_common.h ****     int16_t GetCenterY() const { return y_ + height_ / 2; }
 2186              		.loc 17 62 34 view .LVU488
  62:../../libdaisy/src/hid/disp/graphics_common.h ****     int16_t GetCenterY() const { return y_ + height_ / 2; }
 2187              		.loc 17 62 34 is_stmt 0 view .LVU489
 2188              	.LBE984:
 2189              	.LBE983:
 2190              	.LBB987:
 2191              	.LBI987:
  62:../../libdaisy/src/hid/disp/graphics_common.h ****     int16_t GetCenterY() const { return y_ + height_ / 2; }
 2192              		.loc 17 62 13 is_stmt 1 view .LVU490
 2193              	.LBB988:
  62:../../libdaisy/src/hid/disp/graphics_common.h ****     int16_t GetCenterY() const { return y_ + height_ / 2; }
 2194              		.loc 17 62 34 view .LVU491
 2195              	.LBE988:
 2196              	.LBE987:
 2197              	.LBB989:
 2198              	.LBB985:
  62:../../libdaisy/src/hid/disp/graphics_common.h ****     int16_t GetCenterY() const { return y_ + height_ / 2; }
 2199              		.loc 17 62 53 is_stmt 0 view .LVU492
 2200 0284 B6F90430 		ldrsh	r3, [r6, #4]
 2201              	.LVL161:
  62:../../libdaisy/src/hid/disp/graphics_common.h ****     int16_t GetCenterY() const { return y_ + height_ / 2; }
ARM GAS  /tmp/ccPAoVZi.s 			page 75


 2202              		.loc 17 62 44 view .LVU493
 2203 0288 3788     		ldrh	r7, [r6]
  62:../../libdaisy/src/hid/disp/graphics_common.h ****     int16_t GetCenterY() const { return y_ + height_ / 2; }
 2204              		.loc 17 62 53 view .LVU494
 2205 028a 002B     		cmp	r3, #0
 2206              	.LBE985:
 2207              	.LBE989:
 222:../../libdaisy/src/hid/disp/graphics_common.h ****                         width_,
 2208              		.loc 17 222 31 view .LVU495
 2209 028c B6F90260 		ldrsh	r6, [r6, #2]
 2210              	.LVL162:
 2211              	.LBB990:
 2212              	.LBB986:
  62:../../libdaisy/src/hid/disp/graphics_common.h ****     int16_t GetCenterY() const { return y_ + height_ / 2; }
 2213              		.loc 17 62 53 view .LVU496
 2214 0290 B8BF     		it	lt
 2215 0292 0133     		addlt	r3, r3, #1
  62:../../libdaisy/src/hid/disp/graphics_common.h ****     int16_t GetCenterY() const { return y_ + height_ / 2; }
 2216              		.loc 17 62 44 view .LVU497
 2217 0294 07EB6307 		add	r7, r7, r3, asr #1
 2218              	.LBE986:
 2219              	.LBE990:
 2220              	.LBB991:
 2221              	.LBB992:
 2222              	.LBB993:
  32:../../libdaisy/src/hid/disp/graphics_common.h ****     {
 2223              		.loc 17 32 66 view .LVU498
 2224 0298 099B     		ldr	r3, [sp, #36]
 2225 029a 9A80     		strh	r2, [r3, #4]	@ movhi
 2226              	.LBE993:
 2227              	.LBE992:
 2228              	.LBE991:
 221:../../libdaisy/src/hid/disp/graphics_common.h ****                         other.y_,
 2229              		.loc 17 221 58 view .LVU499
 2230 029c A7EB6202 		sub	r2, r7, r2, asr #1
 2231              	.LBB1004:
 2232              	.LBB1000:
 2233              	.LBB996:
  32:../../libdaisy/src/hid/disp/graphics_common.h ****     {
 2234              		.loc 17 32 66 view .LVU500
 2235 02a0 5E80     		strh	r6, [r3, #2]	@ movhi
 2236 02a2 B6B2     		uxth	r6, r6
 2237              	.LBE996:
 2238              	.LBE1000:
 2239              	.LBE1004:
 221:../../libdaisy/src/hid/disp/graphics_common.h ****                         other.y_,
 2240              		.loc 17 221 58 view .LVU501
 2241 02a4 97B2     		uxth	r7, r2
 2242              	.LVL163:
 2243              	.LBB1005:
 2244              	.LBI991:
  31:../../libdaisy/src/hid/disp/graphics_common.h ****     : x_(x), y_(y), width_(max(0, width)), height_(max(0, height))
 2245              		.loc 17 31 5 is_stmt 1 view .LVU502
 2246              	.LBB1001:
 2247              	.LBB997:
 2248              	.LBB994:
 2249              	.LBI994:
ARM GAS  /tmp/ccPAoVZi.s 			page 76


 2250              		.loc 17 261 13 view .LVU503
 2251              		.loc 17 261 13 is_stmt 0 view .LVU504
 2252              	.LBE994:
 2253              	.LBE997:
 2254              	.LBE1001:
 2255              	.LBE1005:
 2256              	.LBE1124:
 2257              	.LBE1190:
 2258              		.loc 17 261 41 is_stmt 1 view .LVU505
 2259              	.LBB1191:
 2260              	.LBB1125:
 2261              	.LBB1006:
 2262              	.LBB1002:
 2263              	.LBB998:
 2264              	.LBB995:
 2265              	.LBI995:
 2266              		.loc 17 261 13 view .LVU506
 2267              		.loc 17 261 13 is_stmt 0 view .LVU507
 2268              	.LBE995:
 2269              	.LBE998:
 2270              	.LBE1002:
 2271              	.LBE1006:
 2272              	.LBE1125:
 2273              	.LBE1191:
 2274              		.loc 17 261 41 is_stmt 1 view .LVU508
 2275              	.LBB1192:
 2276              	.LBB1126:
 2277              	.LBB1007:
 2278              	.LBB1003:
 2279              	.LBB999:
  32:../../libdaisy/src/hid/disp/graphics_common.h ****     {
 2280              		.loc 17 32 66 is_stmt 0 view .LVU509
 2281 02a6 D980     		strh	r1, [r3, #6]	@ movhi
 2282 02a8 1F80     		strh	r7, [r3]	@ movhi
 2283              	.LBE999:
  34:../../libdaisy/src/hid/disp/graphics_common.h **** 
 2284              		.loc 17 34 5 view .LVU510
 2285 02aa EEE6     		b	.L97
 2286              	.LVL164:
 2287              	.L93:
  34:../../libdaisy/src/hid/disp/graphics_common.h **** 
 2288              		.loc 17 34 5 view .LVU511
 2289              	.LBE1003:
 2290              	.LBE1007:
 215:../../libdaisy/src/hid/disp/graphics_common.h ****                 return {int16_t(other.GetRight() - width_),
 2291              		.loc 17 215 13 is_stmt 1 view .LVU512
 216:../../libdaisy/src/hid/disp/graphics_common.h ****                         other.y_,
 2292              		.loc 17 216 17 view .LVU513
 2293              	.LBB1008:
 2294              	.LBI1008:
  60:../../libdaisy/src/hid/disp/graphics_common.h ****     int16_t GetBottom() const { return y_ + height_; }
 2295              		.loc 17 60 13 view .LVU514
 2296              	.LBB1009:
  60:../../libdaisy/src/hid/disp/graphics_common.h ****     int16_t GetBottom() const { return y_ + height_; }
 2297              		.loc 17 60 32 view .LVU515
  60:../../libdaisy/src/hid/disp/graphics_common.h ****     int16_t GetBottom() const { return y_ + height_; }
 2298              		.loc 17 60 42 is_stmt 0 view .LVU516
ARM GAS  /tmp/ccPAoVZi.s 			page 77


 2299 02ac B388     		ldrh	r3, [r6, #4]
 2300              	.LVL165:
  60:../../libdaisy/src/hid/disp/graphics_common.h ****     int16_t GetBottom() const { return y_ + height_; }
 2301              		.loc 17 60 42 view .LVU517
 2302 02ae 3788     		ldrh	r7, [r6]
 2303              	.LBE1009:
 2304              	.LBE1008:
 217:../../libdaisy/src/hid/disp/graphics_common.h ****                         width_,
 2305              		.loc 17 217 31 view .LVU518
 2306 02b0 B6F90260 		ldrsh	r6, [r6, #2]
 2307              	.LVL166:
 2308              	.LBB1011:
 2309              	.LBB1010:
  60:../../libdaisy/src/hid/disp/graphics_common.h ****     int16_t GetBottom() const { return y_ + height_; }
 2310              		.loc 17 60 42 view .LVU519
 2311 02b4 1F44     		add	r7, r7, r3
 2312              	.LBE1010:
 2313              	.LBE1011:
 2314              	.LBB1012:
 2315              	.LBB1013:
 2316              	.LBB1014:
  32:../../libdaisy/src/hid/disp/graphics_common.h ****     {
 2317              		.loc 17 32 66 view .LVU520
 2318 02b6 099B     		ldr	r3, [sp, #36]
 2319 02b8 9A80     		strh	r2, [r3, #4]	@ movhi
 2320              	.LBE1014:
 2321              	.LBE1013:
 2322              	.LBE1012:
 216:../../libdaisy/src/hid/disp/graphics_common.h ****                         other.y_,
 2323              		.loc 17 216 50 view .LVU521
 2324 02ba BA1A     		subs	r2, r7, r2
 2325              	.LBB1025:
 2326              	.LBB1021:
 2327              	.LBB1017:
  32:../../libdaisy/src/hid/disp/graphics_common.h ****     {
 2328              		.loc 17 32 66 view .LVU522
 2329 02bc 5E80     		strh	r6, [r3, #2]	@ movhi
 2330 02be B6B2     		uxth	r6, r6
 2331              	.LBE1017:
 2332              	.LBE1021:
 2333              	.LBE1025:
 216:../../libdaisy/src/hid/disp/graphics_common.h ****                         other.y_,
 2334              		.loc 17 216 50 view .LVU523
 2335 02c0 97B2     		uxth	r7, r2
 2336              	.LVL167:
 2337              	.LBB1026:
 2338              	.LBI1012:
  31:../../libdaisy/src/hid/disp/graphics_common.h ****     : x_(x), y_(y), width_(max(0, width)), height_(max(0, height))
 2339              		.loc 17 31 5 is_stmt 1 view .LVU524
 2340              	.LBB1022:
 2341              	.LBB1018:
 2342              	.LBB1015:
 2343              	.LBI1015:
 2344              		.loc 17 261 13 view .LVU525
 2345              		.loc 17 261 13 is_stmt 0 view .LVU526
 2346              	.LBE1015:
 2347              	.LBE1018:
ARM GAS  /tmp/ccPAoVZi.s 			page 78


 2348              	.LBE1022:
 2349              	.LBE1026:
 2350              	.LBE1126:
 2351              	.LBE1192:
 2352              		.loc 17 261 41 is_stmt 1 view .LVU527
 2353              	.LBB1193:
 2354              	.LBB1127:
 2355              	.LBB1027:
 2356              	.LBB1023:
 2357              	.LBB1019:
 2358              	.LBB1016:
 2359              	.LBI1016:
 2360              		.loc 17 261 13 view .LVU528
 2361              		.loc 17 261 13 is_stmt 0 view .LVU529
 2362              	.LBE1016:
 2363              	.LBE1019:
 2364              	.LBE1023:
 2365              	.LBE1027:
 2366              	.LBE1127:
 2367              	.LBE1193:
 2368              		.loc 17 261 41 is_stmt 1 view .LVU530
 2369              	.LBB1194:
 2370              	.LBB1128:
 2371              	.LBB1028:
 2372              	.LBB1024:
 2373              	.LBB1020:
  32:../../libdaisy/src/hid/disp/graphics_common.h ****     {
 2374              		.loc 17 32 66 is_stmt 0 view .LVU531
 2375 02c2 D980     		strh	r1, [r3, #6]	@ movhi
 2376 02c4 1F80     		strh	r7, [r3]	@ movhi
 2377              	.LBE1020:
  34:../../libdaisy/src/hid/disp/graphics_common.h **** 
 2378              		.loc 17 34 5 view .LVU532
 2379 02c6 E0E6     		b	.L97
 2380              	.LVL168:
 2381              	.L92:
  34:../../libdaisy/src/hid/disp/graphics_common.h **** 
 2382              		.loc 17 34 5 view .LVU533
 2383              	.LBE1024:
 2384              	.LBE1028:
 225:../../libdaisy/src/hid/disp/graphics_common.h ****                 return {other.x_,
 2385              		.loc 17 225 13 is_stmt 1 view .LVU534
 226:../../libdaisy/src/hid/disp/graphics_common.h ****                         int16_t(other.GetBottom() - height_),
 2386              		.loc 17 226 17 view .LVU535
 2387              	.LBB1029:
 2388              	.LBB1030:
  61:../../libdaisy/src/hid/disp/graphics_common.h ****     int16_t GetCenterX() const { return x_ + width_ / 2; }
 2389              		.loc 17 61 43 is_stmt 0 view .LVU536
 2390 02c8 7388     		ldrh	r3, [r6, #2]
 2391              	.LVL169:
  61:../../libdaisy/src/hid/disp/graphics_common.h ****     int16_t GetCenterX() const { return x_ + width_ / 2; }
 2392              		.loc 17 61 43 view .LVU537
 2393 02ca B6F806C0 		ldrh	ip, [r6, #6]
 2394              	.LBE1030:
 2395              	.LBE1029:
 226:../../libdaisy/src/hid/disp/graphics_common.h ****                         int16_t(other.GetBottom() - height_),
 2396              		.loc 17 226 31 view .LVU538
ARM GAS  /tmp/ccPAoVZi.s 			page 79


 2397 02ce B6F90070 		ldrsh	r7, [r6]
 2398              	.LBB1032:
 2399              	.LBI1029:
  61:../../libdaisy/src/hid/disp/graphics_common.h ****     int16_t GetCenterX() const { return x_ + width_ / 2; }
 2400              		.loc 17 61 13 is_stmt 1 view .LVU539
 2401              	.LVL170:
 2402              	.LBB1031:
