ARM GAS  /tmp/ccoLrWzv.s 			page 1


   1              		.cpu cortex-m7
   2              		.eabi_attribute 28, 1
   3              		.eabi_attribute 20, 1
   4              		.eabi_attribute 21, 1
   5              		.eabi_attribute 23, 3
   6              		.eabi_attribute 24, 1
   7              		.eabi_attribute 25, 1
   8              		.eabi_attribute 26, 1
   9              		.eabi_attribute 30, 2
  10              		.eabi_attribute 34, 1
  11              		.eabi_attribute 18, 4
  12              		.file	"Midi.cpp"
  13              		.text
  14              	.Ltext0:
  15              		.cfi_sections	.debug_frame
  16              		.section	.text._ZN5daisy10DaisyPatchD2Ev,"axG",%progbits,_ZN5daisy10DaisyPatchD5Ev,comdat
  17              		.align	1
  18              		.p2align 2,,3
  19              		.weak	_ZN5daisy10DaisyPatchD2Ev
  20              		.arch armv7e-m
  21              		.syntax unified
  22              		.thumb
  23              		.thumb_func
  24              		.fpu fpv5-d16
  26              	_ZN5daisy10DaisyPatchD2Ev:
  27              	.LVL0:
  28              	.LFB2060:
  29              		.file 1 "../../libdaisy/src/daisy_patch.h"
   1:../../libdaisy/src/daisy_patch.h **** #pragma once
   2:../../libdaisy/src/daisy_patch.h **** #ifndef DSY_PATCH_BSP_H
   3:../../libdaisy/src/daisy_patch.h **** #define DSY_PATCH_BSP_H
   4:../../libdaisy/src/daisy_patch.h **** #include "daisy_seed.h"
   5:../../libdaisy/src/daisy_patch.h **** #include "dev/oled_ssd130x.h"
   6:../../libdaisy/src/daisy_patch.h **** 
   7:../../libdaisy/src/daisy_patch.h **** namespace daisy
   8:../../libdaisy/src/daisy_patch.h **** {
   9:../../libdaisy/src/daisy_patch.h **** /**
  10:../../libdaisy/src/daisy_patch.h ****     @brief Class that handles initializing all of the hardware specific to the Daisy Patch Board. \
  11:../../libdaisy/src/daisy_patch.h ****     Helper funtions are also in place to provide easy access to built-in controls and peripherals.
  12:../../libdaisy/src/daisy_patch.h ****     @author Stephen Hensley
  13:../../libdaisy/src/daisy_patch.h ****     @date November 2019
  14:../../libdaisy/src/daisy_patch.h ****     @ingroup boards
  15:../../libdaisy/src/daisy_patch.h **** */
  16:../../libdaisy/src/daisy_patch.h **** class DaisyPatch
  17:../../libdaisy/src/daisy_patch.h **** {
  18:../../libdaisy/src/daisy_patch.h ****   public:
  19:../../libdaisy/src/daisy_patch.h ****     /** Enum of Ctrls to represent the four CV/Knob combos on the Patch
  20:../../libdaisy/src/daisy_patch.h ****      */
  21:../../libdaisy/src/daisy_patch.h ****     enum Ctrl
  22:../../libdaisy/src/daisy_patch.h ****     {
  23:../../libdaisy/src/daisy_patch.h ****         CTRL_1,    /**< */
  24:../../libdaisy/src/daisy_patch.h ****         CTRL_2,    /**< */
  25:../../libdaisy/src/daisy_patch.h ****         CTRL_3,    /**< */
  26:../../libdaisy/src/daisy_patch.h ****         CTRL_4,    /**< */
  27:../../libdaisy/src/daisy_patch.h ****         CTRL_LAST, /**< */
  28:../../libdaisy/src/daisy_patch.h ****     };
  29:../../libdaisy/src/daisy_patch.h **** 
ARM GAS  /tmp/ccoLrWzv.s 			page 2


  30:../../libdaisy/src/daisy_patch.h ****     /** Daisy patch gate inputs */
  31:../../libdaisy/src/daisy_patch.h ****     enum GateInput
  32:../../libdaisy/src/daisy_patch.h ****     {
  33:../../libdaisy/src/daisy_patch.h ****         GATE_IN_1,    /**< */
  34:../../libdaisy/src/daisy_patch.h ****         GATE_IN_2,    /** <*/
  35:../../libdaisy/src/daisy_patch.h ****         GATE_IN_LAST, /**< */
  36:../../libdaisy/src/daisy_patch.h ****     };
  37:../../libdaisy/src/daisy_patch.h **** 
  38:../../libdaisy/src/daisy_patch.h ****     /** Constructor */
  39:../../libdaisy/src/daisy_patch.h ****     DaisyPatch() {}
  40:../../libdaisy/src/daisy_patch.h ****     /** Destructor */
  41:../../libdaisy/src/daisy_patch.h ****     ~DaisyPatch() {}
  30              		.loc 1 41 5 view -0
  31              		.cfi_startproc
  32              		@ args = 0, pretend = 0, frame = 0
  33              		@ frame_needed = 0, uses_anonymous_args = 0
  34              		@ link register save eliminated.
  35              	.LBB647:
  36              	.LBI647:
  37              		.file 2 "../../libdaisy/src/hid/disp/oled_display.h"
   1:../../libdaisy/src/hid/disp/oled_display.h **** #pragma once
   2:../../libdaisy/src/hid/disp/oled_display.h **** #ifndef DSY_OLED_DISPLAY_H
   3:../../libdaisy/src/hid/disp/oled_display.h **** #define DSY_OLED_DISPLAY_H /**< Macro */
   4:../../libdaisy/src/hid/disp/oled_display.h **** 
   5:../../libdaisy/src/hid/disp/oled_display.h **** #include "display.h"
   6:../../libdaisy/src/hid/disp/oled_display.h **** 
   7:../../libdaisy/src/hid/disp/oled_display.h **** namespace daisy
   8:../../libdaisy/src/hid/disp/oled_display.h **** {
   9:../../libdaisy/src/hid/disp/oled_display.h **** /** 
  10:../../libdaisy/src/hid/disp/oled_display.h ****  * This class is for drawing to a monochrome OLED display. 
  11:../../libdaisy/src/hid/disp/oled_display.h **** */
  12:../../libdaisy/src/hid/disp/oled_display.h **** template <typename DisplayDriver>
  13:../../libdaisy/src/hid/disp/oled_display.h **** class OledDisplay : public OneBitGraphicsDisplayImpl<OledDisplay<DisplayDriver>>
  14:../../libdaisy/src/hid/disp/oled_display.h **** {
  15:../../libdaisy/src/hid/disp/oled_display.h ****   public:
  16:../../libdaisy/src/hid/disp/oled_display.h ****     OledDisplay() {}
  17:../../libdaisy/src/hid/disp/oled_display.h ****     virtual ~OledDisplay() {}
  38              		.loc 2 17 13 view .LVU1
  39              	.LBB648:
  40              	.LBI648:
  41              		.file 3 "../../libdaisy/src/hid/disp/display.h"
   1:../../libdaisy/src/hid/disp/display.h **** #pragma once
   2:../../libdaisy/src/hid/disp/display.h **** #ifndef DSY_DISPLAY_H
   3:../../libdaisy/src/hid/disp/display.h **** #define DSY_DISPLAY_H /**< Macro */
   4:../../libdaisy/src/hid/disp/display.h **** #include <cmath>
   5:../../libdaisy/src/hid/disp/display.h **** #include "util/oled_fonts.h"
   6:../../libdaisy/src/hid/disp/display.h **** #include "daisy_core.h"
   7:../../libdaisy/src/hid/disp/display.h **** #include "graphics_common.h"
   8:../../libdaisy/src/hid/disp/display.h **** 
   9:../../libdaisy/src/hid/disp/display.h **** #ifndef deg2rad
  10:../../libdaisy/src/hid/disp/display.h **** #define deg2rad(deg) ((deg)*3.141592 / 180.0)
  11:../../libdaisy/src/hid/disp/display.h **** #endif
  12:../../libdaisy/src/hid/disp/display.h **** 
  13:../../libdaisy/src/hid/disp/display.h **** namespace daisy
  14:../../libdaisy/src/hid/disp/display.h **** {
  15:../../libdaisy/src/hid/disp/display.h **** /** 
  16:../../libdaisy/src/hid/disp/display.h ****  * This interface is used as a base class for all types of 1bit-per-pixel
ARM GAS  /tmp/ccoLrWzv.s 			page 3


  17:../../libdaisy/src/hid/disp/display.h ****  * graphics displays.
  18:../../libdaisy/src/hid/disp/display.h **** */
  19:../../libdaisy/src/hid/disp/display.h **** class OneBitGraphicsDisplay
  20:../../libdaisy/src/hid/disp/display.h **** {
  21:../../libdaisy/src/hid/disp/display.h ****   public:
  22:../../libdaisy/src/hid/disp/display.h ****     OneBitGraphicsDisplay() {}
  23:../../libdaisy/src/hid/disp/display.h ****     virtual ~OneBitGraphicsDisplay() {}
  24:../../libdaisy/src/hid/disp/display.h **** 
  25:../../libdaisy/src/hid/disp/display.h ****     virtual uint16_t Height() const = 0;
  26:../../libdaisy/src/hid/disp/display.h ****     virtual uint16_t Width() const  = 0;
  27:../../libdaisy/src/hid/disp/display.h **** 
  28:../../libdaisy/src/hid/disp/display.h ****     Rectangle GetBounds() const
  29:../../libdaisy/src/hid/disp/display.h ****     {
  30:../../libdaisy/src/hid/disp/display.h ****         return Rectangle(int16_t(Width()), int16_t(Height()));
  31:../../libdaisy/src/hid/disp/display.h ****     }
  32:../../libdaisy/src/hid/disp/display.h **** 
  33:../../libdaisy/src/hid/disp/display.h **** 
  34:../../libdaisy/src/hid/disp/display.h ****     size_t CurrentX() { return currentX_; };
  35:../../libdaisy/src/hid/disp/display.h ****     size_t CurrentY() { return currentY_; };
  36:../../libdaisy/src/hid/disp/display.h **** 
  37:../../libdaisy/src/hid/disp/display.h ****     /** 
  38:../../libdaisy/src/hid/disp/display.h ****     Fills the entire display with either on/off.
  39:../../libdaisy/src/hid/disp/display.h ****     \param on Sets on or off.
  40:../../libdaisy/src/hid/disp/display.h ****     */
  41:../../libdaisy/src/hid/disp/display.h ****     virtual void Fill(bool on) = 0;
  42:../../libdaisy/src/hid/disp/display.h **** 
  43:../../libdaisy/src/hid/disp/display.h ****     /**
  44:../../libdaisy/src/hid/disp/display.h ****     Sets the pixel at the specified coordinate to be on/off.
  45:../../libdaisy/src/hid/disp/display.h ****     \param x   x Coordinate
  46:../../libdaisy/src/hid/disp/display.h ****     \param y   y coordinate
  47:../../libdaisy/src/hid/disp/display.h ****     \param on  on or off
  48:../../libdaisy/src/hid/disp/display.h ****     */
  49:../../libdaisy/src/hid/disp/display.h ****     virtual void DrawPixel(uint_fast8_t x, uint_fast8_t y, bool on) = 0;
  50:../../libdaisy/src/hid/disp/display.h **** 
  51:../../libdaisy/src/hid/disp/display.h ****     /**
  52:../../libdaisy/src/hid/disp/display.h ****     Draws a line from (x1, y1) to (y1, y2)
  53:../../libdaisy/src/hid/disp/display.h ****     \param x1  x Coordinate of the starting point
  54:../../libdaisy/src/hid/disp/display.h ****     \param y1  y Coordinate of the starting point
  55:../../libdaisy/src/hid/disp/display.h ****     \param x2  x Coordinate of the ending point
  56:../../libdaisy/src/hid/disp/display.h ****     \param y2  y Coordinate of the ending point
  57:../../libdaisy/src/hid/disp/display.h ****     \param on  on or off
  58:../../libdaisy/src/hid/disp/display.h ****     */
  59:../../libdaisy/src/hid/disp/display.h ****     virtual void DrawLine(uint_fast8_t x1,
  60:../../libdaisy/src/hid/disp/display.h ****                           uint_fast8_t y1,
  61:../../libdaisy/src/hid/disp/display.h ****                           uint_fast8_t x2,
  62:../../libdaisy/src/hid/disp/display.h ****                           uint_fast8_t y2,
  63:../../libdaisy/src/hid/disp/display.h ****                           bool         on)
  64:../../libdaisy/src/hid/disp/display.h ****         = 0;
  65:../../libdaisy/src/hid/disp/display.h **** 
  66:../../libdaisy/src/hid/disp/display.h ****     /**
  67:../../libdaisy/src/hid/disp/display.h ****     Draws a rectangle based on two coordinates.
  68:../../libdaisy/src/hid/disp/display.h ****     \param x1 x Coordinate of the first point
  69:../../libdaisy/src/hid/disp/display.h ****     \param y1 y Coordinate of the first point
  70:../../libdaisy/src/hid/disp/display.h ****     \param x2 x Coordinate of the second point
  71:../../libdaisy/src/hid/disp/display.h ****     \param y2 y Coordinate of the second point
  72:../../libdaisy/src/hid/disp/display.h ****     \param on on or off
  73:../../libdaisy/src/hid/disp/display.h ****     \param fill fill the rectangle or draw only the outline
ARM GAS  /tmp/ccoLrWzv.s 			page 4


  74:../../libdaisy/src/hid/disp/display.h ****     */
  75:../../libdaisy/src/hid/disp/display.h ****     virtual void DrawRect(uint_fast8_t x1,
  76:../../libdaisy/src/hid/disp/display.h ****                           uint_fast8_t y1,
  77:../../libdaisy/src/hid/disp/display.h ****                           uint_fast8_t x2,
  78:../../libdaisy/src/hid/disp/display.h ****                           uint_fast8_t y2,
  79:../../libdaisy/src/hid/disp/display.h ****                           bool         on,
  80:../../libdaisy/src/hid/disp/display.h ****                           bool         fill = false)
  81:../../libdaisy/src/hid/disp/display.h ****         = 0;
  82:../../libdaisy/src/hid/disp/display.h **** 
  83:../../libdaisy/src/hid/disp/display.h ****     /**
  84:../../libdaisy/src/hid/disp/display.h ****     Draws a rectangle.
  85:../../libdaisy/src/hid/disp/display.h ****     \param rect the rectangle
  86:../../libdaisy/src/hid/disp/display.h ****     \param on   on or off
  87:../../libdaisy/src/hid/disp/display.h ****     \param fill fill the rectangle or draw only the outline
  88:../../libdaisy/src/hid/disp/display.h ****     */
  89:../../libdaisy/src/hid/disp/display.h ****     void DrawRect(const Rectangle& rect, bool on, bool fill = false)
  90:../../libdaisy/src/hid/disp/display.h ****     {
  91:../../libdaisy/src/hid/disp/display.h ****         DrawRect(rect.GetX(),
  92:../../libdaisy/src/hid/disp/display.h ****                  rect.GetY(),
  93:../../libdaisy/src/hid/disp/display.h ****                  rect.GetRight(),
  94:../../libdaisy/src/hid/disp/display.h ****                  rect.GetBottom(),
  95:../../libdaisy/src/hid/disp/display.h ****                  on,
  96:../../libdaisy/src/hid/disp/display.h ****                  fill);
  97:../../libdaisy/src/hid/disp/display.h ****     }
  98:../../libdaisy/src/hid/disp/display.h **** 
  99:../../libdaisy/src/hid/disp/display.h ****     /**
 100:../../libdaisy/src/hid/disp/display.h ****     Draws an arc around the specified coordinate
 101:../../libdaisy/src/hid/disp/display.h ****     \param x           x Coordinate of the center of the arc
 102:../../libdaisy/src/hid/disp/display.h ****     \param y           y Coordinate of the center of the arc
 103:../../libdaisy/src/hid/disp/display.h ****     \param radius      radius of the arc
 104:../../libdaisy/src/hid/disp/display.h ****     \param start_angle angle where to start the arc
 105:../../libdaisy/src/hid/disp/display.h ****     \param sweep       total angle of the arc
 106:../../libdaisy/src/hid/disp/display.h ****     \param on  on or off
 107:../../libdaisy/src/hid/disp/display.h ****     */
 108:../../libdaisy/src/hid/disp/display.h ****     virtual void DrawArc(uint_fast8_t x,
 109:../../libdaisy/src/hid/disp/display.h ****                          uint_fast8_t y,
 110:../../libdaisy/src/hid/disp/display.h ****                          uint_fast8_t radius,
 111:../../libdaisy/src/hid/disp/display.h ****                          int_fast16_t start_angle,
 112:../../libdaisy/src/hid/disp/display.h ****                          int_fast16_t sweep,
 113:../../libdaisy/src/hid/disp/display.h ****                          bool         on)
 114:../../libdaisy/src/hid/disp/display.h ****         = 0;
 115:../../libdaisy/src/hid/disp/display.h **** 
 116:../../libdaisy/src/hid/disp/display.h ****     /**
 117:../../libdaisy/src/hid/disp/display.h ****     Draws a circle around the specified coordinate
 118:../../libdaisy/src/hid/disp/display.h ****     \param x           x Coordinate of the center of the circle
 119:../../libdaisy/src/hid/disp/display.h ****     \param y           y Coordinate of the center of the circle
 120:../../libdaisy/src/hid/disp/display.h ****     \param radius      radius of the circle
 121:../../libdaisy/src/hid/disp/display.h ****     \param on  on or off
 122:../../libdaisy/src/hid/disp/display.h ****     */
 123:../../libdaisy/src/hid/disp/display.h ****     void
 124:../../libdaisy/src/hid/disp/display.h ****     DrawCircle(uint_fast8_t x, uint_fast8_t y, uint_fast8_t radius, bool on)
 125:../../libdaisy/src/hid/disp/display.h ****     {
 126:../../libdaisy/src/hid/disp/display.h ****         DrawArc(x, y, radius, 0, 360, on);
 127:../../libdaisy/src/hid/disp/display.h ****     };
 128:../../libdaisy/src/hid/disp/display.h **** 
 129:../../libdaisy/src/hid/disp/display.h ****     /** 
 130:../../libdaisy/src/hid/disp/display.h ****     Writes the character with the specific FontDef
ARM GAS  /tmp/ccoLrWzv.s 			page 5


 131:../../libdaisy/src/hid/disp/display.h ****     to the display buffer at the current Cursor position.
 132:../../libdaisy/src/hid/disp/display.h ****     \param ch character to be written
 133:../../libdaisy/src/hid/disp/display.h ****     \param font font to be written in
 134:../../libdaisy/src/hid/disp/display.h ****     \param on    on or off
 135:../../libdaisy/src/hid/disp/display.h ****     \return &
 136:../../libdaisy/src/hid/disp/display.h ****     */
 137:../../libdaisy/src/hid/disp/display.h ****     virtual char WriteChar(char ch, FontDef font, bool on) = 0;
 138:../../libdaisy/src/hid/disp/display.h **** 
 139:../../libdaisy/src/hid/disp/display.h ****     /** 
 140:../../libdaisy/src/hid/disp/display.h ****     Similar to WriteChar, except it will handle an entire String.
 141:../../libdaisy/src/hid/disp/display.h ****     Wrapping does not happen automatically, so the width
 142:../../libdaisy/src/hid/disp/display.h ****     of the string must be kept within the dimensions of the screen.
 143:../../libdaisy/src/hid/disp/display.h ****     \param str string to be written
 144:../../libdaisy/src/hid/disp/display.h ****     \param font font to use
 145:../../libdaisy/src/hid/disp/display.h ****     \param on  on or off
 146:../../libdaisy/src/hid/disp/display.h ****     \return &
 147:../../libdaisy/src/hid/disp/display.h ****     */
 148:../../libdaisy/src/hid/disp/display.h ****     virtual char WriteString(const char* str, FontDef font, bool on) = 0;
 149:../../libdaisy/src/hid/disp/display.h **** 
 150:../../libdaisy/src/hid/disp/display.h ****     /** 
 151:../../libdaisy/src/hid/disp/display.h ****     Similar to WriteString but justified within a bounding box.
 152:../../libdaisy/src/hid/disp/display.h ****     \param str          string to be written
 153:../../libdaisy/src/hid/disp/display.h ****     \param font         font to use
 154:../../libdaisy/src/hid/disp/display.h ****     \param boundingBox  the bounding box to draw the text in
 155:../../libdaisy/src/hid/disp/display.h ****     \param alignment    the alignment to use
 156:../../libdaisy/src/hid/disp/display.h ****     \param on           on or off
 157:../../libdaisy/src/hid/disp/display.h ****     \return The rectangle that was drawn to
 158:../../libdaisy/src/hid/disp/display.h ****     */
 159:../../libdaisy/src/hid/disp/display.h ****     virtual Rectangle WriteStringAligned(const char*    str,
 160:../../libdaisy/src/hid/disp/display.h ****                                          const FontDef& font,
 161:../../libdaisy/src/hid/disp/display.h ****                                          Rectangle      boundingBox,
 162:../../libdaisy/src/hid/disp/display.h ****                                          Alignment      alignment,
 163:../../libdaisy/src/hid/disp/display.h ****                                          bool           on)
 164:../../libdaisy/src/hid/disp/display.h ****         = 0;
 165:../../libdaisy/src/hid/disp/display.h **** 
 166:../../libdaisy/src/hid/disp/display.h ****     /** 
 167:../../libdaisy/src/hid/disp/display.h ****     Moves the 'Cursor' position used for WriteChar, and WriteStr to the specified coordinate.
 168:../../libdaisy/src/hid/disp/display.h ****     \param x x pos
 169:../../libdaisy/src/hid/disp/display.h ****     \param y y pos
 170:../../libdaisy/src/hid/disp/display.h ****     */
 171:../../libdaisy/src/hid/disp/display.h ****     void SetCursor(uint16_t x, uint16_t y)
 172:../../libdaisy/src/hid/disp/display.h ****     {
 173:../../libdaisy/src/hid/disp/display.h ****         currentX_ = (x >= Width()) ? Width() - 1 : x;
 174:../../libdaisy/src/hid/disp/display.h ****         currentY_ = (y >= Height()) ? Height() - 1 : y;
 175:../../libdaisy/src/hid/disp/display.h ****     }
 176:../../libdaisy/src/hid/disp/display.h **** 
 177:../../libdaisy/src/hid/disp/display.h ****     /** 
 178:../../libdaisy/src/hid/disp/display.h ****     Writes the current display buffer to the OLED device using SPI or I2C depending on 
 179:../../libdaisy/src/hid/disp/display.h ****     how the object was initialized.
 180:../../libdaisy/src/hid/disp/display.h ****     */
 181:../../libdaisy/src/hid/disp/display.h ****     virtual void Update() = 0;
 182:../../libdaisy/src/hid/disp/display.h **** 
 183:../../libdaisy/src/hid/disp/display.h ****   protected:
 184:../../libdaisy/src/hid/disp/display.h ****     uint16_t currentX_;
 185:../../libdaisy/src/hid/disp/display.h ****     uint16_t currentY_;
 186:../../libdaisy/src/hid/disp/display.h **** };
 187:../../libdaisy/src/hid/disp/display.h **** 
ARM GAS  /tmp/ccoLrWzv.s 			page 6


 188:../../libdaisy/src/hid/disp/display.h **** /** This class is intended as a intermediary class for your actual implementation of the OneBitGrap
 189:../../libdaisy/src/hid/disp/display.h ****  *  interface. It uses the CRTP design pattern where the template argument is the child class. It p
 190:../../libdaisy/src/hid/disp/display.h ****  *  implementations for most of the functions, except DrawPixel(), Update() and Fill(), which you'l
 191:../../libdaisy/src/hid/disp/display.h ****  *  to provide in your child class.
 192:../../libdaisy/src/hid/disp/display.h ****  *  The main goal of this class is to provide common drawing functions without relying on massive a
 193:../../libdaisy/src/hid/disp/display.h ****  *  virtual function calls that would result in a performance loss. To achieve this, any drawing fu
 194:../../libdaisy/src/hid/disp/display.h ****  *  is implemented here and internally calls other drawing functions (e.g. DrawRect() which interna
 195:../../libdaisy/src/hid/disp/display.h ****  *  DrawPixel() and DrawLine()) makes these calls via the qualified name of these functions to expl
 196:../../libdaisy/src/hid/disp/display.h ****  *  suppress the virtual dispatch mechanism like this:
 197:../../libdaisy/src/hid/disp/display.h ****  * 
 198:../../libdaisy/src/hid/disp/display.h ****  *      ChildType::DrawPixel(...); // no virtual function call; direct call into the child class fu
 199:../../libdaisy/src/hid/disp/display.h ****  *  
 200:../../libdaisy/src/hid/disp/display.h ****  *  To create a custom OneBitGraphicsDisplay implementation, you can 
 201:../../libdaisy/src/hid/disp/display.h ****  *  A) inherit from OneBitGraphicsDisplay directly and provide all the drawing functions yourself
 202:../../libdaisy/src/hid/disp/display.h ****  *  B) Inherit from OneBitGraphicsDisplayImpl and only provide DrawPixel(), Fill() and Update()
 203:../../libdaisy/src/hid/disp/display.h ****  *     like this:
 204:../../libdaisy/src/hid/disp/display.h ****  *  
 205:../../libdaisy/src/hid/disp/display.h ****  *      class MyDisplayClass : public OneBitGraphicsDisplayImpl<MyDisplayClass> 
 206:../../libdaisy/src/hid/disp/display.h ****  *      {
 207:../../libdaisy/src/hid/disp/display.h ****  *      public:
 208:../../libdaisy/src/hid/disp/display.h ****  *          void Fill() override { ... };
 209:../../libdaisy/src/hid/disp/display.h ****  *          void DrawPixel(uint_fast8_t x, uint_fast8_t y, bool on) override { ... };
 210:../../libdaisy/src/hid/disp/display.h ****  *          void Update() override { ... }
 211:../../libdaisy/src/hid/disp/display.h ****  *      };
 212:../../libdaisy/src/hid/disp/display.h ****  *  
 213:../../libdaisy/src/hid/disp/display.h ****  */
 214:../../libdaisy/src/hid/disp/display.h **** template <class ChildType>
 215:../../libdaisy/src/hid/disp/display.h **** class OneBitGraphicsDisplayImpl : public OneBitGraphicsDisplay
 216:../../libdaisy/src/hid/disp/display.h **** {
 217:../../libdaisy/src/hid/disp/display.h ****   public:
 218:../../libdaisy/src/hid/disp/display.h ****     OneBitGraphicsDisplayImpl() {}
 219:../../libdaisy/src/hid/disp/display.h ****     virtual ~OneBitGraphicsDisplayImpl() {}
  42              		.loc 3 219 13 view .LVU2
  43              	.LBB649:
  44              	.LBI649:
  23:../../libdaisy/src/hid/disp/display.h **** 
  45              		.loc 3 23 13 view .LVU3
  23:../../libdaisy/src/hid/disp/display.h **** 
  46              		.loc 3 23 13 is_stmt 0 view .LVU4
  47              	.LBE649:
  48              	.LBE648:
  49              	.LBE647:
  50              	.LBB650:
  51              	.LBI650:
  52              		.file 4 "../../libdaisy/src/hid/midi.h"
   1:../../libdaisy/src/hid/midi.h **** #pragma once
   2:../../libdaisy/src/hid/midi.h **** #ifndef DSY_MIDI_H
   3:../../libdaisy/src/hid/midi.h **** #define DSY_MIDI_H
   4:../../libdaisy/src/hid/midi.h **** 
   5:../../libdaisy/src/hid/midi.h **** // TODO: make this adjustable
   6:../../libdaisy/src/hid/midi.h **** #define SYSEX_BUFFER_LEN 128
   7:../../libdaisy/src/hid/midi.h **** 
   8:../../libdaisy/src/hid/midi.h **** #include <stdint.h>
   9:../../libdaisy/src/hid/midi.h **** #include <stdlib.h>
  10:../../libdaisy/src/hid/midi.h **** #include "per/uart.h"
  11:../../libdaisy/src/hid/midi.h **** #include "util/ringbuffer.h"
  12:../../libdaisy/src/hid/midi.h **** #include "hid/MidiEvent.h"
ARM GAS  /tmp/ccoLrWzv.s 			page 7


  13:../../libdaisy/src/hid/midi.h **** #include "sys/system.h"
  14:../../libdaisy/src/hid/midi.h **** 
  15:../../libdaisy/src/hid/midi.h **** namespace daisy
  16:../../libdaisy/src/hid/midi.h **** {
  17:../../libdaisy/src/hid/midi.h **** /** @addtogroup external 
  18:../../libdaisy/src/hid/midi.h ****     @{ 
  19:../../libdaisy/src/hid/midi.h **** */
  20:../../libdaisy/src/hid/midi.h **** 
  21:../../libdaisy/src/hid/midi.h **** class MidiUartTransport
  22:../../libdaisy/src/hid/midi.h **** {
  23:../../libdaisy/src/hid/midi.h ****   public:
  24:../../libdaisy/src/hid/midi.h ****     MidiUartTransport() {}
  25:../../libdaisy/src/hid/midi.h ****     ~MidiUartTransport() {}
  26:../../libdaisy/src/hid/midi.h **** 
  27:../../libdaisy/src/hid/midi.h ****     struct Config
  28:../../libdaisy/src/hid/midi.h ****     {
  29:../../libdaisy/src/hid/midi.h ****         UartHandler::Config::Peripheral periph;
  30:../../libdaisy/src/hid/midi.h ****         dsy_gpio_pin                    rx;
  31:../../libdaisy/src/hid/midi.h ****         dsy_gpio_pin                    tx;
  32:../../libdaisy/src/hid/midi.h **** 
  33:../../libdaisy/src/hid/midi.h ****         Config()
  34:../../libdaisy/src/hid/midi.h ****         {
  35:../../libdaisy/src/hid/midi.h ****             periph = UartHandler::Config::Peripheral::USART_1;
  36:../../libdaisy/src/hid/midi.h ****             rx     = {DSY_GPIOB, 7};
  37:../../libdaisy/src/hid/midi.h ****             tx     = {DSY_GPIOB, 6};
  38:../../libdaisy/src/hid/midi.h ****         }
  39:../../libdaisy/src/hid/midi.h ****     };
  40:../../libdaisy/src/hid/midi.h **** 
  41:../../libdaisy/src/hid/midi.h ****     inline void Init(Config config)
  42:../../libdaisy/src/hid/midi.h ****     {
  43:../../libdaisy/src/hid/midi.h ****         UartHandler::Config uart_config;
  44:../../libdaisy/src/hid/midi.h **** 
  45:../../libdaisy/src/hid/midi.h ****         //defaults
  46:../../libdaisy/src/hid/midi.h ****         uart_config.baudrate   = 31250;
  47:../../libdaisy/src/hid/midi.h ****         uart_config.stopbits   = UartHandler::Config::StopBits::BITS_1;
  48:../../libdaisy/src/hid/midi.h ****         uart_config.parity     = UartHandler::Config::Parity::NONE;
  49:../../libdaisy/src/hid/midi.h ****         uart_config.mode       = UartHandler::Config::Mode::TX_RX;
  50:../../libdaisy/src/hid/midi.h ****         uart_config.wordlength = UartHandler::Config::WordLength::BITS_8;
  51:../../libdaisy/src/hid/midi.h **** 
  52:../../libdaisy/src/hid/midi.h ****         //user settings
  53:../../libdaisy/src/hid/midi.h ****         uart_config.periph        = config.periph;
  54:../../libdaisy/src/hid/midi.h ****         uart_config.pin_config.rx = config.rx;
  55:../../libdaisy/src/hid/midi.h ****         uart_config.pin_config.tx = config.tx;
  56:../../libdaisy/src/hid/midi.h **** 
  57:../../libdaisy/src/hid/midi.h ****         uart_.Init(uart_config);
  58:../../libdaisy/src/hid/midi.h ****     }
  59:../../libdaisy/src/hid/midi.h **** 
  60:../../libdaisy/src/hid/midi.h ****     inline void    StartRx() { uart_.StartRx(); }
  61:../../libdaisy/src/hid/midi.h ****     inline size_t  Readable() { return uart_.Readable(); }
  62:../../libdaisy/src/hid/midi.h ****     inline uint8_t Rx() { return uart_.PopRx(); }
  63:../../libdaisy/src/hid/midi.h ****     inline bool    RxActive() { return uart_.RxActive(); }
  64:../../libdaisy/src/hid/midi.h ****     inline void    FlushRx() { uart_.FlushRx(); }
  65:../../libdaisy/src/hid/midi.h ****     inline void    Tx(uint8_t* buff, size_t size) { uart_.PollTx(buff, size); }
  66:../../libdaisy/src/hid/midi.h **** 
  67:../../libdaisy/src/hid/midi.h ****   private:
  68:../../libdaisy/src/hid/midi.h ****     UartHandler uart_;
  69:../../libdaisy/src/hid/midi.h **** };
ARM GAS  /tmp/ccoLrWzv.s 			page 8


  70:../../libdaisy/src/hid/midi.h **** 
  71:../../libdaisy/src/hid/midi.h **** /** 
  72:../../libdaisy/src/hid/midi.h ****     @brief Simple MIDI Handler \n 
  73:../../libdaisy/src/hid/midi.h ****     Parses bytes from an input into valid MidiEvents. \n 
  74:../../libdaisy/src/hid/midi.h ****     The MidiEvents fill a FIFO queue that the user can pop messages from.
  75:../../libdaisy/src/hid/midi.h ****     @author shensley
  76:../../libdaisy/src/hid/midi.h ****     @date March 2020
  77:../../libdaisy/src/hid/midi.h **** */
  78:../../libdaisy/src/hid/midi.h **** template <typename Transport>
  79:../../libdaisy/src/hid/midi.h **** class MidiHandler
  80:../../libdaisy/src/hid/midi.h **** {
  81:../../libdaisy/src/hid/midi.h ****   public:
  82:../../libdaisy/src/hid/midi.h ****     MidiHandler() {}
  83:../../libdaisy/src/hid/midi.h ****     ~MidiHandler() {}
  53              		.loc 4 83 5 is_stmt 1 view .LVU5
  54              	.LBB651:
  55              	.LBI651:
  25:../../libdaisy/src/hid/midi.h **** 
  56              		.loc 4 25 5 view .LVU6
  25:../../libdaisy/src/hid/midi.h **** 
  57              		.loc 4 25 5 is_stmt 0 view .LVU7
  58              	.LBE651:
  59              	.LBE650:
  60              	.LBB652:
  61              	.LBI652:
  62              		.file 5 "../../libdaisy/src/hid/encoder.h"
   1:../../libdaisy/src/hid/encoder.h **** #pragma once
   2:../../libdaisy/src/hid/encoder.h **** #ifndef DSY_ENCODER_H
   3:../../libdaisy/src/hid/encoder.h **** #define DSY_ENCODER_H
   4:../../libdaisy/src/hid/encoder.h **** #include "daisy_core.h"
   5:../../libdaisy/src/hid/encoder.h **** #include "per/gpio.h"
   6:../../libdaisy/src/hid/encoder.h **** #include "hid/switch.h"
   7:../../libdaisy/src/hid/encoder.h **** 
   8:../../libdaisy/src/hid/encoder.h **** namespace daisy
   9:../../libdaisy/src/hid/encoder.h **** {
  10:../../libdaisy/src/hid/encoder.h **** /** 
  11:../../libdaisy/src/hid/encoder.h ****     @brief Generic Class for handling Quadrature Encoders \n 
  12:../../libdaisy/src/hid/encoder.h ****     Inspired/influenced by Mutable Instruments (pichenettes) Encoder classes
  13:../../libdaisy/src/hid/encoder.h ****     @author Stephen Hensley
  14:../../libdaisy/src/hid/encoder.h ****     @date December 2019
  15:../../libdaisy/src/hid/encoder.h ****     @ingroup controls
  16:../../libdaisy/src/hid/encoder.h **** */
  17:../../libdaisy/src/hid/encoder.h **** class Encoder
  18:../../libdaisy/src/hid/encoder.h **** {
  19:../../libdaisy/src/hid/encoder.h ****   public:
  20:../../libdaisy/src/hid/encoder.h ****     Encoder() {}
  21:../../libdaisy/src/hid/encoder.h ****     ~Encoder() {}
  63              		.loc 5 21 5 is_stmt 1 view .LVU8
  64              	.LBB653:
  65              	.LBI653:
  66              		.file 6 "../../libdaisy/src/hid/switch.h"
   1:../../libdaisy/src/hid/switch.h **** #pragma once
   2:../../libdaisy/src/hid/switch.h **** #ifndef DSY_SWITCH_H
   3:../../libdaisy/src/hid/switch.h **** #define DSY_SWITCH_H
   4:../../libdaisy/src/hid/switch.h **** #include "daisy_core.h"
   5:../../libdaisy/src/hid/switch.h **** #include "per/gpio.h"
   6:../../libdaisy/src/hid/switch.h **** 
ARM GAS  /tmp/ccoLrWzv.s 			page 9


   7:../../libdaisy/src/hid/switch.h **** namespace daisy
   8:../../libdaisy/src/hid/switch.h **** {
   9:../../libdaisy/src/hid/switch.h **** /** 
  10:../../libdaisy/src/hid/switch.h ****     Generic Class for handling momentary/latching switches \n 
  11:../../libdaisy/src/hid/switch.h ****     Inspired/influenced by Mutable Instruments (pichenettes) Switch classes
  12:../../libdaisy/src/hid/switch.h ****     @author Stephen Hensley
  13:../../libdaisy/src/hid/switch.h ****     @date December 2019
  14:../../libdaisy/src/hid/switch.h ****     @ingroup controls
  15:../../libdaisy/src/hid/switch.h **** */
  16:../../libdaisy/src/hid/switch.h **** class Switch
  17:../../libdaisy/src/hid/switch.h **** {
  18:../../libdaisy/src/hid/switch.h ****   public:
  19:../../libdaisy/src/hid/switch.h ****     /** Specifies the expected behavior of the switch */
  20:../../libdaisy/src/hid/switch.h ****     enum Type
  21:../../libdaisy/src/hid/switch.h ****     {
  22:../../libdaisy/src/hid/switch.h ****         TYPE_TOGGLE,    /**< & */
  23:../../libdaisy/src/hid/switch.h ****         TYPE_MOMENTARY, /**< & */
  24:../../libdaisy/src/hid/switch.h ****     };
  25:../../libdaisy/src/hid/switch.h ****     /** Specifies whether the pressed is HIGH or LOW. */
  26:../../libdaisy/src/hid/switch.h ****     enum Polarity
  27:../../libdaisy/src/hid/switch.h ****     {
  28:../../libdaisy/src/hid/switch.h ****         POLARITY_NORMAL,   /**< & */
  29:../../libdaisy/src/hid/switch.h ****         POLARITY_INVERTED, /**< & */
  30:../../libdaisy/src/hid/switch.h ****     };
  31:../../libdaisy/src/hid/switch.h **** 
  32:../../libdaisy/src/hid/switch.h ****     /** Specifies whether to use built-in Pull Up/Down resistors to hold button at a given state wh
  33:../../libdaisy/src/hid/switch.h ****     enum Pull
  34:../../libdaisy/src/hid/switch.h ****     {
  35:../../libdaisy/src/hid/switch.h ****         PULL_UP,   /**< & */
  36:../../libdaisy/src/hid/switch.h ****         PULL_DOWN, /**< & */
  37:../../libdaisy/src/hid/switch.h ****         PULL_NONE, /**< & */
  38:../../libdaisy/src/hid/switch.h ****     };
  39:../../libdaisy/src/hid/switch.h **** 
  40:../../libdaisy/src/hid/switch.h ****     Switch() {}
  41:../../libdaisy/src/hid/switch.h ****     ~Switch() {}
  67              		.loc 6 41 5 view .LVU9
  68              		.loc 6 41 5 is_stmt 0 view .LVU10
  69              	.LBE653:
  70              	.LBE652:
  71              	.LBB654:
  72              	.LBI654:
  73              		.file 7 "../../libdaisy/src/daisy_seed.h"
   1:../../libdaisy/src/daisy_seed.h **** #pragma once
   2:../../libdaisy/src/daisy_seed.h **** #ifndef DSY_SEED_H
   3:../../libdaisy/src/daisy_seed.h **** #define DSY_SEED_H
   4:../../libdaisy/src/daisy_seed.h **** 
   5:../../libdaisy/src/daisy_seed.h **** #include "daisy.h"
   6:../../libdaisy/src/daisy_seed.h **** 
   7:../../libdaisy/src/daisy_seed.h **** //Uncomment this out if you're still using the rev2 hardware
   8:../../libdaisy/src/daisy_seed.h **** //#define SEED_REV2
   9:../../libdaisy/src/daisy_seed.h **** 
  10:../../libdaisy/src/daisy_seed.h **** namespace daisy
  11:../../libdaisy/src/daisy_seed.h **** {
  12:../../libdaisy/src/daisy_seed.h **** /**
  13:../../libdaisy/src/daisy_seed.h ****    @brief This is the higher-level interface for the Daisy board. \n 
  14:../../libdaisy/src/daisy_seed.h ****     All basic peripheral configuration/initialization is setup here. \n
  15:../../libdaisy/src/daisy_seed.h **** 
ARM GAS  /tmp/ccoLrWzv.s 			page 10


  16:../../libdaisy/src/daisy_seed.h ****    @ingroup boards
  17:../../libdaisy/src/daisy_seed.h **** */
  18:../../libdaisy/src/daisy_seed.h **** class DaisySeed
  19:../../libdaisy/src/daisy_seed.h **** {
  20:../../libdaisy/src/daisy_seed.h ****   public:
  21:../../libdaisy/src/daisy_seed.h ****     DaisySeed() {}
  22:../../libdaisy/src/daisy_seed.h ****     ~DaisySeed() {}
  74              		.loc 7 22 5 is_stmt 1 view .LVU11
  75              	.LBB655:
  76              	.LBI655:
  77              		.file 8 "../../libdaisy/src/sys/system.h"
   1:../../libdaisy/src/sys/system.h **** #ifndef DSY_SYSTEM_H
   2:../../libdaisy/src/sys/system.h **** #define DSY_SYSTEM_H
   3:../../libdaisy/src/sys/system.h **** 
   4:../../libdaisy/src/sys/system.h **** #ifndef UNIT_TEST // for unit tests, a dummy implementation is provided below
   5:../../libdaisy/src/sys/system.h **** 
   6:../../libdaisy/src/sys/system.h **** #include <cstdint>
   7:../../libdaisy/src/sys/system.h **** #include "per/tim.h"
   8:../../libdaisy/src/sys/system.h **** 
   9:../../libdaisy/src/sys/system.h **** namespace daisy
  10:../../libdaisy/src/sys/system.h **** {
  11:../../libdaisy/src/sys/system.h **** /** A handle for interacting with the Core System. 
  12:../../libdaisy/src/sys/system.h ****  ** This includes the Clock tree, MPU, global DMA initialization,
  13:../../libdaisy/src/sys/system.h ****  ** cache handling, and any other necessary global initiailzation
  14:../../libdaisy/src/sys/system.h ****  **
  15:../../libdaisy/src/sys/system.h ****  ** @author shensley
  16:../../libdaisy/src/sys/system.h ****  ** @addtogroup system
  17:../../libdaisy/src/sys/system.h ****  */
  18:../../libdaisy/src/sys/system.h **** class System
  19:../../libdaisy/src/sys/system.h **** {
  20:../../libdaisy/src/sys/system.h ****   public:
  21:../../libdaisy/src/sys/system.h ****     /** Contains settings for initializing the System */
  22:../../libdaisy/src/sys/system.h ****     struct Config
  23:../../libdaisy/src/sys/system.h ****     {
  24:../../libdaisy/src/sys/system.h ****         /** Specifies the system clock frequency that feeds APB/AHB clocks, etc. */
  25:../../libdaisy/src/sys/system.h ****         enum class SysClkFreq
  26:../../libdaisy/src/sys/system.h ****         {
  27:../../libdaisy/src/sys/system.h ****             FREQ_400MHZ,
  28:../../libdaisy/src/sys/system.h ****             FREQ_480MHZ,
  29:../../libdaisy/src/sys/system.h ****         };
  30:../../libdaisy/src/sys/system.h **** 
  31:../../libdaisy/src/sys/system.h ****         /** Method to call on the struct to set to defaults
  32:../../libdaisy/src/sys/system.h ****          ** CPU Freq set to 400MHz
  33:../../libdaisy/src/sys/system.h ****          ** Cache Enabled 
  34:../../libdaisy/src/sys/system.h ****          ** */
  35:../../libdaisy/src/sys/system.h ****         void Defaults()
  36:../../libdaisy/src/sys/system.h ****         {
  37:../../libdaisy/src/sys/system.h ****             cpu_freq   = SysClkFreq::FREQ_400MHZ;
  38:../../libdaisy/src/sys/system.h ****             use_dcache = true;
  39:../../libdaisy/src/sys/system.h ****             use_icache = true;
  40:../../libdaisy/src/sys/system.h ****         }
  41:../../libdaisy/src/sys/system.h **** 
  42:../../libdaisy/src/sys/system.h ****         /** Method to call on the struct to set to boost mode:
  43:../../libdaisy/src/sys/system.h ****          ** CPU Freq set to 480MHz
  44:../../libdaisy/src/sys/system.h ****          ** Cache Enabled 
  45:../../libdaisy/src/sys/system.h ****          ** */
  46:../../libdaisy/src/sys/system.h ****         void Boost()
ARM GAS  /tmp/ccoLrWzv.s 			page 11


  47:../../libdaisy/src/sys/system.h ****         {
  48:../../libdaisy/src/sys/system.h ****             cpu_freq   = SysClkFreq::FREQ_480MHZ;
  49:../../libdaisy/src/sys/system.h ****             use_dcache = true;
  50:../../libdaisy/src/sys/system.h ****             use_icache = true;
  51:../../libdaisy/src/sys/system.h ****         }
  52:../../libdaisy/src/sys/system.h **** 
  53:../../libdaisy/src/sys/system.h ****         SysClkFreq cpu_freq;
  54:../../libdaisy/src/sys/system.h ****         bool       use_dcache;
  55:../../libdaisy/src/sys/system.h ****         bool       use_icache;
  56:../../libdaisy/src/sys/system.h ****     };
  57:../../libdaisy/src/sys/system.h **** 
  58:../../libdaisy/src/sys/system.h ****     System() {}
  59:../../libdaisy/src/sys/system.h ****     ~System() {}
  78              		.loc 8 59 5 view .LVU12
  79              		.loc 8 59 5 is_stmt 0 view .LVU13
  80              	.LBE655:
  81              	.LBB656:
  82              	.LBI656:
  83              		.file 9 "../../libdaisy/src/hid/usb.h"
   1:../../libdaisy/src/hid/usb.h **** #pragma once
   2:../../libdaisy/src/hid/usb.h **** #ifndef DSY_HID_USB_H
   3:../../libdaisy/src/hid/usb.h **** #define DSY_HID_USB_H
   4:../../libdaisy/src/hid/usb.h **** #include <stdint.h>
   5:../../libdaisy/src/hid/usb.h **** #include <stdlib.h>
   6:../../libdaisy/src/hid/usb.h **** 
   7:../../libdaisy/src/hid/usb.h **** namespace daisy
   8:../../libdaisy/src/hid/usb.h **** /** @addtogroup externals
   9:../../libdaisy/src/hid/usb.h ****     @{
  10:../../libdaisy/src/hid/usb.h **** */
  11:../../libdaisy/src/hid/usb.h **** 
  12:../../libdaisy/src/hid/usb.h **** {
  13:../../libdaisy/src/hid/usb.h **** /** 
  14:../../libdaisy/src/hid/usb.h ****     @brief Interface for initializing and using the USB Peripherals on the daisy
  15:../../libdaisy/src/hid/usb.h ****     @author Stephen Hensley
  16:../../libdaisy/src/hid/usb.h ****     @date December 2019
  17:../../libdaisy/src/hid/usb.h **** */
  18:../../libdaisy/src/hid/usb.h **** class UsbHandle
  19:../../libdaisy/src/hid/usb.h **** {
  20:../../libdaisy/src/hid/usb.h ****   public:
  21:../../libdaisy/src/hid/usb.h ****     /** Return values for USBHandle Functions */
  22:../../libdaisy/src/hid/usb.h ****     enum class Result
  23:../../libdaisy/src/hid/usb.h ****     {
  24:../../libdaisy/src/hid/usb.h ****         OK,
  25:../../libdaisy/src/hid/usb.h ****         ERR,
  26:../../libdaisy/src/hid/usb.h ****     };
  27:../../libdaisy/src/hid/usb.h **** 
  28:../../libdaisy/src/hid/usb.h ****     /** Specified which of the two USB Peripherals to initialize. */
  29:../../libdaisy/src/hid/usb.h ****     enum UsbPeriph
  30:../../libdaisy/src/hid/usb.h ****     {
  31:../../libdaisy/src/hid/usb.h ****         FS_INTERNAL, /**< Internal pin */
  32:../../libdaisy/src/hid/usb.h ****         FS_EXTERNAL, /**< FS External D+ pin is Pin 38 (GPIO32). FS External D- pin is Pin 37 (GPIO
  33:../../libdaisy/src/hid/usb.h ****         FS_BOTH,     /**< Both */
  34:../../libdaisy/src/hid/usb.h ****     };
  35:../../libdaisy/src/hid/usb.h **** 
  36:../../libdaisy/src/hid/usb.h **** 
  37:../../libdaisy/src/hid/usb.h ****     /** Function called upon reception of a buffer */
  38:../../libdaisy/src/hid/usb.h ****     typedef void (*ReceiveCallback)(uint8_t* buff, uint32_t* len);
ARM GAS  /tmp/ccoLrWzv.s 			page 12


  39:../../libdaisy/src/hid/usb.h **** 
  40:../../libdaisy/src/hid/usb.h ****     UsbHandle() {}
  41:../../libdaisy/src/hid/usb.h **** 
  42:../../libdaisy/src/hid/usb.h ****     ~UsbHandle() {}
  84              		.loc 9 42 5 is_stmt 1 view .LVU14
  85              		.loc 9 42 5 is_stmt 0 view .LVU15
  86              	.LBE656:
  87              	.LBB657:
  88              	.LBI657:
  89              		.file 10 "../../libdaisy/src/per/adc.h"
   1:../../libdaisy/src/per/adc.h **** #pragma once
   2:../../libdaisy/src/per/adc.h **** #ifndef DSY_ADC_H
   3:../../libdaisy/src/per/adc.h **** #define DSY_ADC_H /**< Macro */
   4:../../libdaisy/src/per/adc.h **** #include <stdint.h>
   5:../../libdaisy/src/per/adc.h **** #include <stdlib.h>
   6:../../libdaisy/src/per/adc.h **** #include "daisy_core.h"
   7:../../libdaisy/src/per/adc.h **** #include "per/gpio.h"
   8:../../libdaisy/src/per/adc.h **** 
   9:../../libdaisy/src/per/adc.h **** #define DSY_ADC_MAX_CHANNELS 14 /**< Maximum number of ADC channels */
  10:../../libdaisy/src/per/adc.h **** 
  11:../../libdaisy/src/per/adc.h **** namespace daisy
  12:../../libdaisy/src/per/adc.h **** {
  13:../../libdaisy/src/per/adc.h **** /** @addtogroup analog_digital_conversion
  14:../../libdaisy/src/per/adc.h ****     @{
  15:../../libdaisy/src/per/adc.h **** */
  16:../../libdaisy/src/per/adc.h **** 
  17:../../libdaisy/src/per/adc.h **** /* While there may not be many configuration options here,
  18:../../libdaisy/src/per/adc.h **** using a struct like this allows us to add more configuration
  19:../../libdaisy/src/per/adc.h **** later without breaking existing functionality.
  20:../../libdaisy/src/per/adc.h **** */
  21:../../libdaisy/src/per/adc.h **** 
  22:../../libdaisy/src/per/adc.h **** /** Configuration Structure for a given channel */
  23:../../libdaisy/src/per/adc.h **** struct AdcChannelConfig
  24:../../libdaisy/src/per/adc.h **** {
  25:../../libdaisy/src/per/adc.h ****     /** Which pin to use for multiplexing */
  26:../../libdaisy/src/per/adc.h ****     enum MuxPin
  27:../../libdaisy/src/per/adc.h ****     {
  28:../../libdaisy/src/per/adc.h ****         MUX_SEL_0,    /**< & */
  29:../../libdaisy/src/per/adc.h ****         MUX_SEL_1,    /**< & */
  30:../../libdaisy/src/per/adc.h ****         MUX_SEL_2,    /**< & */
  31:../../libdaisy/src/per/adc.h ****         MUX_SEL_LAST, /**< & */
  32:../../libdaisy/src/per/adc.h ****     };
  33:../../libdaisy/src/per/adc.h **** 
  34:../../libdaisy/src/per/adc.h ****     /** Initializes a single ADC pin as an ADC. 
  35:../../libdaisy/src/per/adc.h ****     \param pin Pin to init.
  36:../../libdaisy/src/per/adc.h ****      */
  37:../../libdaisy/src/per/adc.h ****     void InitSingle(dsy_gpio_pin pin);
  38:../../libdaisy/src/per/adc.h **** 
  39:../../libdaisy/src/per/adc.h ****     /** 
  40:../../libdaisy/src/per/adc.h ****     Initializes a single ADC pin as a Multiplexed ADC.
  41:../../libdaisy/src/per/adc.h ****     Requires a CD405X Multiplexer connected to the pin.
  42:../../libdaisy/src/per/adc.h ****     You only need to supply the mux pins that are required,
  43:../../libdaisy/src/per/adc.h ****     e.g. a 4052 mux would only require mux_0 and mux_1.
  44:../../libdaisy/src/per/adc.h ****     Internal Callbacks handle the pin addressing.
  45:../../libdaisy/src/per/adc.h ****     \param mux_channels must be 1-8
  46:../../libdaisy/src/per/adc.h ****     \param mux_0 First mux pin
  47:../../libdaisy/src/per/adc.h ****     \param mux_1 Second mux pin
ARM GAS  /tmp/ccoLrWzv.s 			page 13


  48:../../libdaisy/src/per/adc.h ****     \param mux_2 Third mux pin
  49:../../libdaisy/src/per/adc.h ****     \param adc_pin &
  50:../../libdaisy/src/per/adc.h ****     */
  51:../../libdaisy/src/per/adc.h ****     void InitMux(dsy_gpio_pin adc_pin,
  52:../../libdaisy/src/per/adc.h ****                  size_t       mux_channels,
  53:../../libdaisy/src/per/adc.h ****                  dsy_gpio_pin mux_0,
  54:../../libdaisy/src/per/adc.h ****                  dsy_gpio_pin mux_1 = {DSY_GPIOX, 0},
  55:../../libdaisy/src/per/adc.h ****                  dsy_gpio_pin mux_2 = {DSY_GPIOX, 0});
  56:../../libdaisy/src/per/adc.h **** 
  57:../../libdaisy/src/per/adc.h ****     dsy_gpio pin_;                   /**< & */
  58:../../libdaisy/src/per/adc.h ****     dsy_gpio mux_pin_[MUX_SEL_LAST]; /**< & */
  59:../../libdaisy/src/per/adc.h ****     uint8_t  mux_channels_;          /**< & */
  60:../../libdaisy/src/per/adc.h **** };
  61:../../libdaisy/src/per/adc.h **** 
  62:../../libdaisy/src/per/adc.h **** /**
  63:../../libdaisy/src/per/adc.h ****    Handler for analog to digital conversion
  64:../../libdaisy/src/per/adc.h **** */
  65:../../libdaisy/src/per/adc.h **** class AdcHandle
  66:../../libdaisy/src/per/adc.h **** {
  67:../../libdaisy/src/per/adc.h ****   public:
  68:../../libdaisy/src/per/adc.h ****     /** Supported oversampling amounts */
  69:../../libdaisy/src/per/adc.h ****     enum OverSampling
  70:../../libdaisy/src/per/adc.h ****     {
  71:../../libdaisy/src/per/adc.h ****         OVS_NONE, /**< & */
  72:../../libdaisy/src/per/adc.h ****         OVS_4,    /**< & */
  73:../../libdaisy/src/per/adc.h ****         OVS_8,    /**< & */
  74:../../libdaisy/src/per/adc.h ****         OVS_16,   /**< & */
  75:../../libdaisy/src/per/adc.h ****         OVS_32,   /**< & */
  76:../../libdaisy/src/per/adc.h ****         OVS_64,   /**< & */
  77:../../libdaisy/src/per/adc.h ****         OVS_128,  /**< & */
  78:../../libdaisy/src/per/adc.h ****         OVS_256,  /**< & */
  79:../../libdaisy/src/per/adc.h ****         OVS_512,  /**< & */
  80:../../libdaisy/src/per/adc.h ****         OVS_1024, /**< & */
  81:../../libdaisy/src/per/adc.h ****         OVS_LAST, /**< & */
  82:../../libdaisy/src/per/adc.h ****     };
  83:../../libdaisy/src/per/adc.h **** 
  84:../../libdaisy/src/per/adc.h ****     AdcHandle() {}
  85:../../libdaisy/src/per/adc.h ****     ~AdcHandle() {}
  90              		.loc 10 85 5 is_stmt 1 view .LVU16
  91              		.loc 10 85 5 is_stmt 0 view .LVU17
  92              	.LBE657:
  93              	.LBB658:
  94              	.LBI658:
  95              		.file 11 "../../libdaisy/src/hid/audio.h"
   1:../../libdaisy/src/hid/audio.h **** #ifndef DSY_AUDIO_H
   2:../../libdaisy/src/hid/audio.h **** #define DSY_AUDIO_H /**< & */
   3:../../libdaisy/src/hid/audio.h **** 
   4:../../libdaisy/src/hid/audio.h **** #include "per/sai.h"
   5:../../libdaisy/src/hid/audio.h **** 
   6:../../libdaisy/src/hid/audio.h **** namespace daisy
   7:../../libdaisy/src/hid/audio.h **** {
   8:../../libdaisy/src/hid/audio.h **** class AudioHandle
   9:../../libdaisy/src/hid/audio.h **** {
  10:../../libdaisy/src/hid/audio.h ****   public:
  11:../../libdaisy/src/hid/audio.h ****     /** Manually configurable details about the Audio Engine */
  12:../../libdaisy/src/hid/audio.h ****     /** TODO: Figure out how to get samplerate in here. */
  13:../../libdaisy/src/hid/audio.h ****     struct Config
ARM GAS  /tmp/ccoLrWzv.s 			page 14


  14:../../libdaisy/src/hid/audio.h ****     {
  15:../../libdaisy/src/hid/audio.h ****         size_t                        blocksize;
  16:../../libdaisy/src/hid/audio.h ****         SaiHandle::Config::SampleRate samplerate;
  17:../../libdaisy/src/hid/audio.h ****         float                         postgain;
  18:../../libdaisy/src/hid/audio.h ****     };
  19:../../libdaisy/src/hid/audio.h **** 
  20:../../libdaisy/src/hid/audio.h ****     enum class Result
  21:../../libdaisy/src/hid/audio.h ****     {
  22:../../libdaisy/src/hid/audio.h ****         OK,
  23:../../libdaisy/src/hid/audio.h ****         ERR,
  24:../../libdaisy/src/hid/audio.h ****     };
  25:../../libdaisy/src/hid/audio.h **** 
  26:../../libdaisy/src/hid/audio.h ****     /** Non-Interleaving input buffer
  27:../../libdaisy/src/hid/audio.h ****      * Buffer arranged by float[chn][sample] 
  28:../../libdaisy/src/hid/audio.h ****      * const so that the user can't modify the input
  29:../../libdaisy/src/hid/audio.h ****     */
  30:../../libdaisy/src/hid/audio.h ****     typedef const float* const* InputBuffer;
  31:../../libdaisy/src/hid/audio.h **** 
  32:../../libdaisy/src/hid/audio.h ****     /** Non-Interleaving output buffer
  33:../../libdaisy/src/hid/audio.h ****      * Arranged by float[chn][sample] 
  34:../../libdaisy/src/hid/audio.h ****     */
  35:../../libdaisy/src/hid/audio.h ****     typedef float** OutputBuffer;
  36:../../libdaisy/src/hid/audio.h **** 
  37:../../libdaisy/src/hid/audio.h ****     /** Type for a Non-Interleaving audio callback 
  38:../../libdaisy/src/hid/audio.h ****    * Non-Interleaving audio callbacks in daisy will be of this type
  39:../../libdaisy/src/hid/audio.h ****   */
  40:../../libdaisy/src/hid/audio.h ****     typedef void (*AudioCallback)(InputBuffer  in,
  41:../../libdaisy/src/hid/audio.h ****                                   OutputBuffer out,
  42:../../libdaisy/src/hid/audio.h ****                                   size_t       size);
  43:../../libdaisy/src/hid/audio.h **** 
  44:../../libdaisy/src/hid/audio.h ****     /** Interleaving Input buffer
  45:../../libdaisy/src/hid/audio.h ****      ** audio is prepared as { L0, R0, L1, R1, . . . LN, RN }]
  46:../../libdaisy/src/hid/audio.h ****      ** this is const, as the user shouldn't modify it
  47:../../libdaisy/src/hid/audio.h ****     */
  48:../../libdaisy/src/hid/audio.h ****     typedef const float* InterleavingInputBuffer;
  49:../../libdaisy/src/hid/audio.h **** 
  50:../../libdaisy/src/hid/audio.h ****     /** Interleaving Output buffer 
  51:../../libdaisy/src/hid/audio.h ****      ** audio is prepared as { L0, R0, L1, R1, . . . LN, RN }
  52:../../libdaisy/src/hid/audio.h ****     */
  53:../../libdaisy/src/hid/audio.h ****     typedef float* InterleavingOutputBuffer;
  54:../../libdaisy/src/hid/audio.h **** 
  55:../../libdaisy/src/hid/audio.h ****     /** Interleaving Audio Callback 
  56:../../libdaisy/src/hid/audio.h ****    * Interleaving audio callbacks in daisy must be of this type
  57:../../libdaisy/src/hid/audio.h ****   */
  58:../../libdaisy/src/hid/audio.h ****     typedef void (*InterleavingAudioCallback)(InterleavingInputBuffer  in,
  59:../../libdaisy/src/hid/audio.h ****                                               InterleavingOutputBuffer out,
  60:../../libdaisy/src/hid/audio.h ****                                               size_t                   size);
  61:../../libdaisy/src/hid/audio.h **** 
  62:../../libdaisy/src/hid/audio.h ****     AudioHandle() : pimpl_(nullptr) {}
  63:../../libdaisy/src/hid/audio.h ****     ~AudioHandle() {}
  96              		.loc 11 63 5 is_stmt 1 view .LVU18
  97              		.loc 11 63 5 is_stmt 0 view .LVU19
  98              	.LBE658:
  99              	.LBE654:
 100              		.loc 1 41 20 view .LVU20
 101 0000 7047     		bx	lr
 102              		.cfi_endproc
ARM GAS  /tmp/ccoLrWzv.s 			page 15


 103              	.LFE2060:
 105              		.weak	_ZN5daisy10DaisyPatchD1Ev
 106              		.thumb_set _ZN5daisy10DaisyPatchD1Ev,_ZN5daisy10DaisyPatchD2Ev
 107 0002 00BF     		.section	.text._ZN7daisysp10OscillatorD2Ev,"axG",%progbits,_ZN7daisysp10OscillatorD5Ev,comdat
 108              		.align	1
 109              		.p2align 2,,3
 110              		.weak	_ZN7daisysp10OscillatorD2Ev
 111              		.syntax unified
 112              		.thumb
 113              		.thumb_func
 114              		.fpu fpv5-d16
 116              	_ZN7daisysp10OscillatorD2Ev:
 117              	.LVL1:
 118              	.LFB3695:
 119              		.file 12 "../../DaisySP/Source/Synthesis/oscillator.h"
   1:../../DaisySP/Source/Synthesis/oscillator.h **** #pragma once
   2:../../DaisySP/Source/Synthesis/oscillator.h **** #ifndef DSY_OSCILLATOR_H
   3:../../DaisySP/Source/Synthesis/oscillator.h **** #define DSY_OSCILLATOR_H
   4:../../DaisySP/Source/Synthesis/oscillator.h **** #include <stdint.h>
   5:../../DaisySP/Source/Synthesis/oscillator.h **** #include "Utility/dsp.h"
   6:../../DaisySP/Source/Synthesis/oscillator.h **** #ifdef __cplusplus
   7:../../DaisySP/Source/Synthesis/oscillator.h **** 
   8:../../DaisySP/Source/Synthesis/oscillator.h **** namespace daisysp
   9:../../DaisySP/Source/Synthesis/oscillator.h **** {
  10:../../DaisySP/Source/Synthesis/oscillator.h **** /** Synthesis of several waveforms, including polyBLEP bandlimited waveforms.
  11:../../DaisySP/Source/Synthesis/oscillator.h **** */
  12:../../DaisySP/Source/Synthesis/oscillator.h **** class Oscillator
  13:../../DaisySP/Source/Synthesis/oscillator.h **** {
  14:../../DaisySP/Source/Synthesis/oscillator.h ****   public:
  15:../../DaisySP/Source/Synthesis/oscillator.h ****     Oscillator() {}
  16:../../DaisySP/Source/Synthesis/oscillator.h ****     ~Oscillator() {}
 120              		.loc 12 16 5 is_stmt 1 view -0
 121              		.cfi_startproc
 122              		@ args = 0, pretend = 0, frame = 0
 123              		@ frame_needed = 0, uses_anonymous_args = 0
 124              		@ link register save eliminated.
 125              		.loc 12 16 20 is_stmt 0 view .LVU22
 126 0000 7047     		bx	lr
 127              		.cfi_endproc
 128              	.LFE3695:
 130              		.weak	_ZN7daisysp10OscillatorD1Ev
 131              		.thumb_set _ZN7daisysp10OscillatorD1Ev,_ZN7daisysp10OscillatorD2Ev
 132 0002 00BF     		.section	.text._ZN7daisysp3SvfD2Ev,"axG",%progbits,_ZN7daisysp3SvfD5Ev,comdat
 133              		.align	1
 134              		.p2align 2,,3
 135              		.weak	_ZN7daisysp3SvfD2Ev
 136              		.syntax unified
 137              		.thumb
 138              		.thumb_func
 139              		.fpu fpv5-d16
 141              	_ZN7daisysp3SvfD2Ev:
 142              	.LVL2:
 143              	.LFB3711:
 144              		.file 13 "../../DaisySP/Source/Filters/svf.h"
   1:../../DaisySP/Source/Filters/svf.h **** #pragma once
   2:../../DaisySP/Source/Filters/svf.h **** #ifndef DSY_SVF_H
   3:../../DaisySP/Source/Filters/svf.h **** #define DSY_SVF_H
ARM GAS  /tmp/ccoLrWzv.s 			page 16


   4:../../DaisySP/Source/Filters/svf.h **** 
   5:../../DaisySP/Source/Filters/svf.h **** namespace daisysp
   6:../../DaisySP/Source/Filters/svf.h **** {
   7:../../DaisySP/Source/Filters/svf.h **** /**      Double Sampled, Stable State Variable Filter
   8:../../DaisySP/Source/Filters/svf.h **** 
   9:../../DaisySP/Source/Filters/svf.h **** Credit to Andrew Simper from musicdsp.org
  10:../../DaisySP/Source/Filters/svf.h **** 
  11:../../DaisySP/Source/Filters/svf.h **** This is his "State Variable Filter (Double Sampled, Stable)"
  12:../../DaisySP/Source/Filters/svf.h **** 
  13:../../DaisySP/Source/Filters/svf.h **** Additional thanks to Laurent de Soras for stability limit, and 
  14:../../DaisySP/Source/Filters/svf.h **** Stefan Diedrichsen for the correct notch output
  15:../../DaisySP/Source/Filters/svf.h **** 
  16:../../DaisySP/Source/Filters/svf.h **** Ported by: Stephen Hensley
  17:../../DaisySP/Source/Filters/svf.h **** */
  18:../../DaisySP/Source/Filters/svf.h **** class Svf
  19:../../DaisySP/Source/Filters/svf.h **** {
  20:../../DaisySP/Source/Filters/svf.h ****   public:
  21:../../DaisySP/Source/Filters/svf.h ****     Svf() {}
  22:../../DaisySP/Source/Filters/svf.h ****     ~Svf() {}
 145              		.loc 13 22 5 is_stmt 1 view -0
 146              		.cfi_startproc
 147              		@ args = 0, pretend = 0, frame = 0
 148              		@ frame_needed = 0, uses_anonymous_args = 0
 149              		@ link register save eliminated.
 150              		.loc 13 22 13 is_stmt 0 view .LVU24
 151 0000 7047     		bx	lr
 152              		.cfi_endproc
 153              	.LFE3711:
 155              		.weak	_ZN7daisysp3SvfD1Ev
 156              		.thumb_set _ZN7daisysp3SvfD1Ev,_ZN7daisysp3SvfD2Ev
 157 0002 00BF     		.section	.text._ZN5daisy11OledDisplayINS_13SSD130xDriverILj128ELj64ENS_24SSD130x4WireSpiTransportE
 158              		.align	1
 159              		.p2align 2,,3
 160              		.weak	_ZN5daisy11OledDisplayINS_13SSD130xDriverILj128ELj64ENS_24SSD130x4WireSpiTransportEEEED2Ev
 161              		.syntax unified
 162              		.thumb
 163              		.thumb_func
 164              		.fpu fpv5-d16
 166              	_ZN5daisy11OledDisplayINS_13SSD130xDriverILj128ELj64ENS_24SSD130x4WireSpiTransportEEEED2Ev:
 167              	.LVL3:
 168              	.LFB4264:
 169              		.loc 2 17 13 is_stmt 1 view -0
 170              		.cfi_startproc
 171              		@ args = 0, pretend = 0, frame = 0
 172              		@ frame_needed = 0, uses_anonymous_args = 0
 173              		@ link register save eliminated.
 174              	.LBB659:
 175              	.LBI659:
 176              		.loc 3 219 13 view .LVU26
 177              	.LBB660:
 178              	.LBI660:
  23:../../libdaisy/src/hid/disp/display.h **** 
 179              		.loc 3 23 13 view .LVU27
  23:../../libdaisy/src/hid/disp/display.h **** 
 180              		.loc 3 23 13 is_stmt 0 view .LVU28
 181              	.LBE660:
 182              	.LBE659:
ARM GAS  /tmp/ccoLrWzv.s 			page 17


 183              		.loc 2 17 29 view .LVU29
 184 0000 7047     		bx	lr
 185              		.cfi_endproc
 186              	.LFE4264:
 188              		.weak	_ZN5daisy11OledDisplayINS_13SSD130xDriverILj128ELj64ENS_24SSD130x4WireSpiTransportEEEED1Ev
 189              		.thumb_set _ZN5daisy11OledDisplayINS_13SSD130xDriverILj128ELj64ENS_24SSD130x4WireSpiTransportEEEED
 190 0002 00BF     		.section	.text._ZNK5daisy11OledDisplayINS_13SSD130xDriverILj128ELj64ENS_24SSD130x4WireSpiTransport
 191              		.align	1
 192              		.p2align 2,,3
 193              		.weak	_ZNK5daisy11OledDisplayINS_13SSD130xDriverILj128ELj64ENS_24SSD130x4WireSpiTransportEEEE6Heig
 194              		.syntax unified
 195              		.thumb
 196              		.thumb_func
 197              		.fpu fpv5-d16
 199              	_ZNK5daisy11OledDisplayINS_13SSD130xDriverILj128ELj64ENS_24SSD130x4WireSpiTransportEEEE6HeightEv:
 200              	.LVL4:
 201              	.LFB4831:
  18:../../libdaisy/src/hid/disp/oled_display.h **** 
  19:../../libdaisy/src/hid/disp/oled_display.h ****     struct Config
  20:../../libdaisy/src/hid/disp/oled_display.h ****     {
  21:../../libdaisy/src/hid/disp/oled_display.h ****         typename DisplayDriver::Config driver_config;
  22:../../libdaisy/src/hid/disp/oled_display.h ****     };
  23:../../libdaisy/src/hid/disp/oled_display.h **** 
  24:../../libdaisy/src/hid/disp/oled_display.h ****     void Init(Config config) { driver_.Init(config.driver_config); }
  25:../../libdaisy/src/hid/disp/oled_display.h **** 
  26:../../libdaisy/src/hid/disp/oled_display.h ****     uint16_t Height() const override { return driver_.Height(); }
 202              		.loc 2 26 14 is_stmt 1 view -0
 203              		.cfi_startproc
 204              		@ args = 0, pretend = 0, frame = 0
 205              		@ frame_needed = 0, uses_anonymous_args = 0
 206              		@ link register save eliminated.
 207              		.loc 2 26 65 is_stmt 0 view .LVU31
 208 0000 4020     		movs	r0, #64
 209              	.LVL5:
 210              		.loc 2 26 65 view .LVU32
 211 0002 7047     		bx	lr
 212              		.cfi_endproc
 213              	.LFE4831:
 215              		.section	.text._ZNK5daisy11OledDisplayINS_13SSD130xDriverILj128ELj64ENS_24SSD130x4WireSpiTransport
 216              		.align	1
 217              		.p2align 2,,3
 218              		.weak	_ZNK5daisy11OledDisplayINS_13SSD130xDriverILj128ELj64ENS_24SSD130x4WireSpiTransportEEEE5Widt
 219              		.syntax unified
 220              		.thumb
 221              		.thumb_func
 222              		.fpu fpv5-d16
 224              	_ZNK5daisy11OledDisplayINS_13SSD130xDriverILj128ELj64ENS_24SSD130x4WireSpiTransportEEEE5WidthEv:
 225              	.LVL6:
 226              	.LFB4832:
  27:../../libdaisy/src/hid/disp/oled_display.h ****     uint16_t Width() const override { return driver_.Width(); }
 227              		.loc 2 27 14 is_stmt 1 view -0
 228              		.cfi_startproc
 229              		@ args = 0, pretend = 0, frame = 0
 230              		@ frame_needed = 0, uses_anonymous_args = 0
 231              		@ link register save eliminated.
 232              		.loc 2 27 63 is_stmt 0 view .LVU34
 233 0000 8020     		movs	r0, #128
ARM GAS  /tmp/ccoLrWzv.s 			page 18


 234              	.LVL7:
 235              		.loc 2 27 63 view .LVU35
 236 0002 7047     		bx	lr
 237              		.cfi_endproc
 238              	.LFE4832:
 240              		.section	.text._ZN5daisy11OledDisplayINS_13SSD130xDriverILj128ELj64ENS_24SSD130x4WireSpiTransportE
 241              		.align	1
 242              		.p2align 2,,3
 243              		.weak	_ZN5daisy11OledDisplayINS_13SSD130xDriverILj128ELj64ENS_24SSD130x4WireSpiTransportEEEE4FillE
 244              		.syntax unified
 245              		.thumb
 246              		.thumb_func
 247              		.fpu fpv5-d16
 249              	_ZN5daisy11OledDisplayINS_13SSD130xDriverILj128ELj64ENS_24SSD130x4WireSpiTransportEEEE4FillEb:
 250              	.LVL8:
 251              	.LFB4833:
  28:../../libdaisy/src/hid/disp/oled_display.h **** 
  29:../../libdaisy/src/hid/disp/oled_display.h ****     /** 
  30:../../libdaisy/src/hid/disp/oled_display.h ****     Fills the entire display with either on/off.
  31:../../libdaisy/src/hid/disp/oled_display.h ****     \param on Sets on or off.
  32:../../libdaisy/src/hid/disp/oled_display.h ****     */
  33:../../libdaisy/src/hid/disp/oled_display.h ****     void Fill(bool on) override { driver_.Fill(on); }
 252              		.loc 2 33 10 is_stmt 1 view -0
 253              		.cfi_startproc
 254              		@ args = 0, pretend = 0, frame = 0
 255              		@ frame_needed = 0, uses_anonymous_args = 0
 256              		@ link register save eliminated.
 257              	.LBB661:
 258              	.LBI661:
 259              		.file 14 "../../libdaisy/src/dev/oled_ssd130x.h"
   1:../../libdaisy/src/dev/oled_ssd130x.h **** #pragma once
   2:../../libdaisy/src/dev/oled_ssd130x.h **** #ifndef SA_OLED_SSD130X_H
   3:../../libdaisy/src/dev/oled_ssd130x.h **** #define SA_OLED_SSD130X_H /**< & */
   4:../../libdaisy/src/dev/oled_ssd130x.h **** 
   5:../../libdaisy/src/dev/oled_ssd130x.h **** #include "per/i2c.h"
   6:../../libdaisy/src/dev/oled_ssd130x.h **** #include "per/spi.h"
   7:../../libdaisy/src/dev/oled_ssd130x.h **** #include "per/gpio.h"
   8:../../libdaisy/src/dev/oled_ssd130x.h **** #include "sys/system.h"
   9:../../libdaisy/src/dev/oled_ssd130x.h **** 
  10:../../libdaisy/src/dev/oled_ssd130x.h **** namespace daisy
  11:../../libdaisy/src/dev/oled_ssd130x.h **** {
  12:../../libdaisy/src/dev/oled_ssd130x.h **** /**
  13:../../libdaisy/src/dev/oled_ssd130x.h ****  * I2C Transport for SSD1306 / SSD1309 OLED display devices
  14:../../libdaisy/src/dev/oled_ssd130x.h ****  */
  15:../../libdaisy/src/dev/oled_ssd130x.h **** class SSD130xI2CTransport
  16:../../libdaisy/src/dev/oled_ssd130x.h **** {
  17:../../libdaisy/src/dev/oled_ssd130x.h ****   public:
  18:../../libdaisy/src/dev/oled_ssd130x.h ****     struct Config
  19:../../libdaisy/src/dev/oled_ssd130x.h ****     {
  20:../../libdaisy/src/dev/oled_ssd130x.h ****         I2CHandle::Config i2c_config;
  21:../../libdaisy/src/dev/oled_ssd130x.h ****         uint8_t           i2c_address;
  22:../../libdaisy/src/dev/oled_ssd130x.h ****         void              Defaults()
  23:../../libdaisy/src/dev/oled_ssd130x.h ****         {
  24:../../libdaisy/src/dev/oled_ssd130x.h ****             i2c_config.periph         = I2CHandle::Config::Peripheral::I2C_1;
  25:../../libdaisy/src/dev/oled_ssd130x.h ****             i2c_config.speed          = I2CHandle::Config::Speed::I2C_1MHZ;
  26:../../libdaisy/src/dev/oled_ssd130x.h ****             i2c_config.mode           = I2CHandle::Config::Mode::I2C_MASTER;
  27:../../libdaisy/src/dev/oled_ssd130x.h ****             i2c_config.pin_config.scl = {DSY_GPIOB, 8};
ARM GAS  /tmp/ccoLrWzv.s 			page 19


  28:../../libdaisy/src/dev/oled_ssd130x.h ****             i2c_config.pin_config.sda = {DSY_GPIOB, 9};
  29:../../libdaisy/src/dev/oled_ssd130x.h ****             i2c_address               = 0x3C;
  30:../../libdaisy/src/dev/oled_ssd130x.h ****         }
  31:../../libdaisy/src/dev/oled_ssd130x.h ****     };
  32:../../libdaisy/src/dev/oled_ssd130x.h ****     void Init(const Config& config)
  33:../../libdaisy/src/dev/oled_ssd130x.h ****     {
  34:../../libdaisy/src/dev/oled_ssd130x.h ****         i2c_address_ = config.i2c_address;
  35:../../libdaisy/src/dev/oled_ssd130x.h ****         i2c_.Init(config.i2c_config);
  36:../../libdaisy/src/dev/oled_ssd130x.h ****     };
  37:../../libdaisy/src/dev/oled_ssd130x.h ****     void SendCommand(uint8_t cmd)
  38:../../libdaisy/src/dev/oled_ssd130x.h ****     {
  39:../../libdaisy/src/dev/oled_ssd130x.h ****         uint8_t buf[2] = {0X00, cmd};
  40:../../libdaisy/src/dev/oled_ssd130x.h ****         i2c_.TransmitBlocking(i2c_address_, buf, 2, 1000);
  41:../../libdaisy/src/dev/oled_ssd130x.h ****     };
  42:../../libdaisy/src/dev/oled_ssd130x.h **** 
  43:../../libdaisy/src/dev/oled_ssd130x.h ****     void SendData(uint8_t* buff, size_t size)
  44:../../libdaisy/src/dev/oled_ssd130x.h ****     {
  45:../../libdaisy/src/dev/oled_ssd130x.h ****         for(size_t i = 0; i < size; i++)
  46:../../libdaisy/src/dev/oled_ssd130x.h ****         {
  47:../../libdaisy/src/dev/oled_ssd130x.h ****             uint8_t buf[2] = {0X40, buff[i]};
  48:../../libdaisy/src/dev/oled_ssd130x.h ****             i2c_.TransmitBlocking(i2c_address_, buf, 2, 1000);
  49:../../libdaisy/src/dev/oled_ssd130x.h ****         }
  50:../../libdaisy/src/dev/oled_ssd130x.h ****     };
  51:../../libdaisy/src/dev/oled_ssd130x.h **** 
  52:../../libdaisy/src/dev/oled_ssd130x.h ****   private:
  53:../../libdaisy/src/dev/oled_ssd130x.h ****     daisy::I2CHandle i2c_;
  54:../../libdaisy/src/dev/oled_ssd130x.h ****     uint8_t          i2c_address_;
  55:../../libdaisy/src/dev/oled_ssd130x.h **** };
  56:../../libdaisy/src/dev/oled_ssd130x.h **** 
  57:../../libdaisy/src/dev/oled_ssd130x.h **** /**
  58:../../libdaisy/src/dev/oled_ssd130x.h ****  * 4 Wire SPI Transport for SSD1306 / SSD1309 OLED display devices
  59:../../libdaisy/src/dev/oled_ssd130x.h ****  */
  60:../../libdaisy/src/dev/oled_ssd130x.h **** class SSD130x4WireSpiTransport
  61:../../libdaisy/src/dev/oled_ssd130x.h **** {
  62:../../libdaisy/src/dev/oled_ssd130x.h ****   public:
  63:../../libdaisy/src/dev/oled_ssd130x.h ****     struct Config
  64:../../libdaisy/src/dev/oled_ssd130x.h ****     {
  65:../../libdaisy/src/dev/oled_ssd130x.h ****         struct
  66:../../libdaisy/src/dev/oled_ssd130x.h ****         {
  67:../../libdaisy/src/dev/oled_ssd130x.h ****             dsy_gpio_pin dc;    /**< & */
  68:../../libdaisy/src/dev/oled_ssd130x.h ****             dsy_gpio_pin reset; /**< & */
  69:../../libdaisy/src/dev/oled_ssd130x.h ****         } pin_config;
  70:../../libdaisy/src/dev/oled_ssd130x.h ****         void Defaults()
  71:../../libdaisy/src/dev/oled_ssd130x.h ****         {
  72:../../libdaisy/src/dev/oled_ssd130x.h ****             pin_config.dc    = {DSY_GPIOB, 4};
  73:../../libdaisy/src/dev/oled_ssd130x.h ****             pin_config.reset = {DSY_GPIOB, 15};
  74:../../libdaisy/src/dev/oled_ssd130x.h ****         }
  75:../../libdaisy/src/dev/oled_ssd130x.h ****     };
  76:../../libdaisy/src/dev/oled_ssd130x.h ****     void Init(const Config& config)
  77:../../libdaisy/src/dev/oled_ssd130x.h ****     {
  78:../../libdaisy/src/dev/oled_ssd130x.h ****         // Initialize both GPIO
  79:../../libdaisy/src/dev/oled_ssd130x.h ****         pin_dc_.mode = DSY_GPIO_MODE_OUTPUT_PP;
  80:../../libdaisy/src/dev/oled_ssd130x.h ****         pin_dc_.pin  = config.pin_config.dc;
  81:../../libdaisy/src/dev/oled_ssd130x.h ****         dsy_gpio_init(&pin_dc_);
  82:../../libdaisy/src/dev/oled_ssd130x.h ****         pin_reset_.mode = DSY_GPIO_MODE_OUTPUT_PP;
  83:../../libdaisy/src/dev/oled_ssd130x.h ****         pin_reset_.pin  = config.pin_config.reset;
  84:../../libdaisy/src/dev/oled_ssd130x.h ****         dsy_gpio_init(&pin_reset_);
ARM GAS  /tmp/ccoLrWzv.s 			page 20


  85:../../libdaisy/src/dev/oled_ssd130x.h ****         // Initialize SPI
  86:../../libdaisy/src/dev/oled_ssd130x.h ****         SpiHandle::Config spi_config;
  87:../../libdaisy/src/dev/oled_ssd130x.h ****         spi_config.periph    = SpiHandle::Config::Peripheral::SPI_1;
  88:../../libdaisy/src/dev/oled_ssd130x.h ****         spi_config.mode      = SpiHandle::Config::Mode::MASTER;
  89:../../libdaisy/src/dev/oled_ssd130x.h ****         spi_config.direction = SpiHandle::Config::Direction::TWO_LINES_TX_ONLY;
  90:../../libdaisy/src/dev/oled_ssd130x.h ****         spi_config.datasize  = 8;
  91:../../libdaisy/src/dev/oled_ssd130x.h ****         spi_config.clock_polarity = SpiHandle::Config::ClockPolarity::LOW;
  92:../../libdaisy/src/dev/oled_ssd130x.h ****         spi_config.clock_phase    = SpiHandle::Config::ClockPhase::ONE_EDGE;
  93:../../libdaisy/src/dev/oled_ssd130x.h ****         spi_config.nss            = SpiHandle::Config::NSS::HARD_OUTPUT;
  94:../../libdaisy/src/dev/oled_ssd130x.h ****         spi_config.baud_prescaler = SpiHandle::Config::BaudPrescaler::PS_8;
  95:../../libdaisy/src/dev/oled_ssd130x.h **** 
  96:../../libdaisy/src/dev/oled_ssd130x.h ****         spi_config.pin_config.sclk = {DSY_GPIOG, 11};
  97:../../libdaisy/src/dev/oled_ssd130x.h ****         spi_config.pin_config.miso = {DSY_GPIOX, 0};
  98:../../libdaisy/src/dev/oled_ssd130x.h ****         spi_config.pin_config.mosi = {DSY_GPIOB, 5};
  99:../../libdaisy/src/dev/oled_ssd130x.h ****         spi_config.pin_config.nss  = {DSY_GPIOG, 10};
 100:../../libdaisy/src/dev/oled_ssd130x.h **** 
 101:../../libdaisy/src/dev/oled_ssd130x.h ****         spi_.Init(spi_config);
 102:../../libdaisy/src/dev/oled_ssd130x.h **** 
 103:../../libdaisy/src/dev/oled_ssd130x.h ****         // Reset and Configure OLED.
 104:../../libdaisy/src/dev/oled_ssd130x.h ****         dsy_gpio_write(&pin_reset_, 0);
 105:../../libdaisy/src/dev/oled_ssd130x.h ****         System::Delay(10);
 106:../../libdaisy/src/dev/oled_ssd130x.h ****         dsy_gpio_write(&pin_reset_, 1);
 107:../../libdaisy/src/dev/oled_ssd130x.h ****         System::Delay(10);
 108:../../libdaisy/src/dev/oled_ssd130x.h ****     };
 109:../../libdaisy/src/dev/oled_ssd130x.h ****     void SendCommand(uint8_t cmd)
 110:../../libdaisy/src/dev/oled_ssd130x.h ****     {
 111:../../libdaisy/src/dev/oled_ssd130x.h ****         dsy_gpio_write(&pin_dc_, 0);
 112:../../libdaisy/src/dev/oled_ssd130x.h ****         spi_.BlockingTransmit(&cmd, 1);
 113:../../libdaisy/src/dev/oled_ssd130x.h ****     };
 114:../../libdaisy/src/dev/oled_ssd130x.h **** 
 115:../../libdaisy/src/dev/oled_ssd130x.h ****     void SendData(uint8_t* buff, size_t size)
 116:../../libdaisy/src/dev/oled_ssd130x.h ****     {
 117:../../libdaisy/src/dev/oled_ssd130x.h ****         dsy_gpio_write(&pin_dc_, 1);
 118:../../libdaisy/src/dev/oled_ssd130x.h ****         spi_.BlockingTransmit(buff, size);
 119:../../libdaisy/src/dev/oled_ssd130x.h ****     };
 120:../../libdaisy/src/dev/oled_ssd130x.h **** 
 121:../../libdaisy/src/dev/oled_ssd130x.h ****   private:
 122:../../libdaisy/src/dev/oled_ssd130x.h ****     SpiHandle spi_;
 123:../../libdaisy/src/dev/oled_ssd130x.h ****     dsy_gpio  pin_reset_;
 124:../../libdaisy/src/dev/oled_ssd130x.h ****     dsy_gpio  pin_dc_;
 125:../../libdaisy/src/dev/oled_ssd130x.h **** };
 126:../../libdaisy/src/dev/oled_ssd130x.h **** 
 127:../../libdaisy/src/dev/oled_ssd130x.h **** 
 128:../../libdaisy/src/dev/oled_ssd130x.h **** /**
 129:../../libdaisy/src/dev/oled_ssd130x.h ****  * A driver implementation for the SSD1306/SSD1309
 130:../../libdaisy/src/dev/oled_ssd130x.h ****  */
 131:../../libdaisy/src/dev/oled_ssd130x.h **** template <size_t width, size_t height, typename Transport>
 132:../../libdaisy/src/dev/oled_ssd130x.h **** class SSD130xDriver
 133:../../libdaisy/src/dev/oled_ssd130x.h **** {
 134:../../libdaisy/src/dev/oled_ssd130x.h ****   public:
 135:../../libdaisy/src/dev/oled_ssd130x.h ****     struct Config
 136:../../libdaisy/src/dev/oled_ssd130x.h ****     {
 137:../../libdaisy/src/dev/oled_ssd130x.h ****         typename Transport::Config transport_config;
 138:../../libdaisy/src/dev/oled_ssd130x.h ****     };
 139:../../libdaisy/src/dev/oled_ssd130x.h **** 
 140:../../libdaisy/src/dev/oled_ssd130x.h ****     void Init(Config config)
 141:../../libdaisy/src/dev/oled_ssd130x.h ****     {
ARM GAS  /tmp/ccoLrWzv.s 			page 21


 142:../../libdaisy/src/dev/oled_ssd130x.h ****         transport_.Init(config.transport_config);
 143:../../libdaisy/src/dev/oled_ssd130x.h **** 
 144:../../libdaisy/src/dev/oled_ssd130x.h ****         // Init routine...
 145:../../libdaisy/src/dev/oled_ssd130x.h **** 
 146:../../libdaisy/src/dev/oled_ssd130x.h ****         // Display Off
 147:../../libdaisy/src/dev/oled_ssd130x.h ****         transport_.SendCommand(0xaE);
 148:../../libdaisy/src/dev/oled_ssd130x.h ****         // Dimension dependent commands...
 149:../../libdaisy/src/dev/oled_ssd130x.h ****         switch(height)
 150:../../libdaisy/src/dev/oled_ssd130x.h ****         {
 151:../../libdaisy/src/dev/oled_ssd130x.h ****             case 16:
 152:../../libdaisy/src/dev/oled_ssd130x.h ****                 // Display Clock Divide Ratio
 153:../../libdaisy/src/dev/oled_ssd130x.h ****                 transport_.SendCommand(0xD5);
 154:../../libdaisy/src/dev/oled_ssd130x.h ****                 transport_.SendCommand(0x60);
 155:../../libdaisy/src/dev/oled_ssd130x.h ****                 // Multiplex Ratio
 156:../../libdaisy/src/dev/oled_ssd130x.h ****                 transport_.SendCommand(0xA8);
 157:../../libdaisy/src/dev/oled_ssd130x.h ****                 transport_.SendCommand(0x0F);
 158:../../libdaisy/src/dev/oled_ssd130x.h ****                 // COM Pins
 159:../../libdaisy/src/dev/oled_ssd130x.h ****                 transport_.SendCommand(0xDA);
 160:../../libdaisy/src/dev/oled_ssd130x.h ****                 transport_.SendCommand(0x02);
 161:../../libdaisy/src/dev/oled_ssd130x.h ****                 break;
 162:../../libdaisy/src/dev/oled_ssd130x.h ****             case 32:
 163:../../libdaisy/src/dev/oled_ssd130x.h ****                 // Display Clock Divide Ratio
 164:../../libdaisy/src/dev/oled_ssd130x.h ****                 transport_.SendCommand(0xD5);
 165:../../libdaisy/src/dev/oled_ssd130x.h ****                 transport_.SendCommand(0x80);
 166:../../libdaisy/src/dev/oled_ssd130x.h ****                 // Multiplex Ratio
 167:../../libdaisy/src/dev/oled_ssd130x.h ****                 transport_.SendCommand(0xA8);
 168:../../libdaisy/src/dev/oled_ssd130x.h ****                 transport_.SendCommand(0x1F);
 169:../../libdaisy/src/dev/oled_ssd130x.h ****                 // COM Pins
 170:../../libdaisy/src/dev/oled_ssd130x.h ****                 transport_.SendCommand(0xDA);
 171:../../libdaisy/src/dev/oled_ssd130x.h ****                 if(width == 64)
 172:../../libdaisy/src/dev/oled_ssd130x.h ****                 {
 173:../../libdaisy/src/dev/oled_ssd130x.h ****                     transport_.SendCommand(0x12);
 174:../../libdaisy/src/dev/oled_ssd130x.h ****                 }
 175:../../libdaisy/src/dev/oled_ssd130x.h ****                 else
 176:../../libdaisy/src/dev/oled_ssd130x.h ****                 {
 177:../../libdaisy/src/dev/oled_ssd130x.h ****                     transport_.SendCommand(0x02);
 178:../../libdaisy/src/dev/oled_ssd130x.h ****                 }
 179:../../libdaisy/src/dev/oled_ssd130x.h **** 
 180:../../libdaisy/src/dev/oled_ssd130x.h ****                 break;
 181:../../libdaisy/src/dev/oled_ssd130x.h ****             case 48:
 182:../../libdaisy/src/dev/oled_ssd130x.h ****                 // Display Clock Divide Ratio
 183:../../libdaisy/src/dev/oled_ssd130x.h ****                 transport_.SendCommand(0xD5);
 184:../../libdaisy/src/dev/oled_ssd130x.h ****                 transport_.SendCommand(0x80);
 185:../../libdaisy/src/dev/oled_ssd130x.h ****                 // Multiplex Ratio
 186:../../libdaisy/src/dev/oled_ssd130x.h ****                 transport_.SendCommand(0xA8);
 187:../../libdaisy/src/dev/oled_ssd130x.h ****                 transport_.SendCommand(0x2F);
 188:../../libdaisy/src/dev/oled_ssd130x.h ****                 // COM Pins
 189:../../libdaisy/src/dev/oled_ssd130x.h ****                 transport_.SendCommand(0xDA);
 190:../../libdaisy/src/dev/oled_ssd130x.h ****                 transport_.SendCommand(0x12);
 191:../../libdaisy/src/dev/oled_ssd130x.h ****                 break;
 192:../../libdaisy/src/dev/oled_ssd130x.h ****             default: // 128
 193:../../libdaisy/src/dev/oled_ssd130x.h ****                 // Display Clock Divide Ratio
 194:../../libdaisy/src/dev/oled_ssd130x.h ****                 transport_.SendCommand(0xD5);
 195:../../libdaisy/src/dev/oled_ssd130x.h ****                 transport_.SendCommand(0x80);
 196:../../libdaisy/src/dev/oled_ssd130x.h ****                 // Multiplex Ratio
 197:../../libdaisy/src/dev/oled_ssd130x.h ****                 transport_.SendCommand(0xA8);
 198:../../libdaisy/src/dev/oled_ssd130x.h ****                 transport_.SendCommand(0x3F);
ARM GAS  /tmp/ccoLrWzv.s 			page 22


 199:../../libdaisy/src/dev/oled_ssd130x.h ****                 // COM Pins
 200:../../libdaisy/src/dev/oled_ssd130x.h ****                 transport_.SendCommand(0xDA);
 201:../../libdaisy/src/dev/oled_ssd130x.h ****                 transport_.SendCommand(0x12);
 202:../../libdaisy/src/dev/oled_ssd130x.h ****                 break;
 203:../../libdaisy/src/dev/oled_ssd130x.h ****         }
 204:../../libdaisy/src/dev/oled_ssd130x.h **** 
 205:../../libdaisy/src/dev/oled_ssd130x.h ****         // Display Offset
 206:../../libdaisy/src/dev/oled_ssd130x.h ****         transport_.SendCommand(0xD3);
 207:../../libdaisy/src/dev/oled_ssd130x.h ****         transport_.SendCommand(0x00);
 208:../../libdaisy/src/dev/oled_ssd130x.h ****         // Start Line Address
 209:../../libdaisy/src/dev/oled_ssd130x.h ****         transport_.SendCommand(0x40);
 210:../../libdaisy/src/dev/oled_ssd130x.h ****         // Normal Display
 211:../../libdaisy/src/dev/oled_ssd130x.h ****         transport_.SendCommand(0xA6);
 212:../../libdaisy/src/dev/oled_ssd130x.h ****         // All On Resume
 213:../../libdaisy/src/dev/oled_ssd130x.h ****         transport_.SendCommand(0xA4);
 214:../../libdaisy/src/dev/oled_ssd130x.h ****         // Charge Pump
 215:../../libdaisy/src/dev/oled_ssd130x.h ****         transport_.SendCommand(0x8D);
 216:../../libdaisy/src/dev/oled_ssd130x.h ****         transport_.SendCommand(0x14);
 217:../../libdaisy/src/dev/oled_ssd130x.h ****         // Set Segment Remap
 218:../../libdaisy/src/dev/oled_ssd130x.h ****         transport_.SendCommand(0xA1);
 219:../../libdaisy/src/dev/oled_ssd130x.h ****         // COM Output Scan Direction
 220:../../libdaisy/src/dev/oled_ssd130x.h ****         transport_.SendCommand(0xC8);
 221:../../libdaisy/src/dev/oled_ssd130x.h ****         // Contrast Control
 222:../../libdaisy/src/dev/oled_ssd130x.h ****         transport_.SendCommand(0x81);
 223:../../libdaisy/src/dev/oled_ssd130x.h ****         transport_.SendCommand(0x8F);
 224:../../libdaisy/src/dev/oled_ssd130x.h ****         // Pre Charge
 225:../../libdaisy/src/dev/oled_ssd130x.h ****         transport_.SendCommand(0xD9);
 226:../../libdaisy/src/dev/oled_ssd130x.h ****         transport_.SendCommand(0x25);
 227:../../libdaisy/src/dev/oled_ssd130x.h ****         // VCOM Detect
 228:../../libdaisy/src/dev/oled_ssd130x.h ****         transport_.SendCommand(0xDB);
 229:../../libdaisy/src/dev/oled_ssd130x.h ****         transport_.SendCommand(0x34);
 230:../../libdaisy/src/dev/oled_ssd130x.h **** 
 231:../../libdaisy/src/dev/oled_ssd130x.h **** 
 232:../../libdaisy/src/dev/oled_ssd130x.h ****         // Display On
 233:../../libdaisy/src/dev/oled_ssd130x.h ****         transport_.SendCommand(0xAF); //--turn on oled panel
 234:../../libdaisy/src/dev/oled_ssd130x.h ****     };
 235:../../libdaisy/src/dev/oled_ssd130x.h **** 
 236:../../libdaisy/src/dev/oled_ssd130x.h ****     size_t Width() const { return width; };
 237:../../libdaisy/src/dev/oled_ssd130x.h ****     size_t Height() const { return height; };
 238:../../libdaisy/src/dev/oled_ssd130x.h **** 
 239:../../libdaisy/src/dev/oled_ssd130x.h ****     void DrawPixel(uint_fast8_t x, uint_fast8_t y, bool on)
 240:../../libdaisy/src/dev/oled_ssd130x.h ****     {
 241:../../libdaisy/src/dev/oled_ssd130x.h ****         if(x >= width || y >= height)
 242:../../libdaisy/src/dev/oled_ssd130x.h ****             return;
 243:../../libdaisy/src/dev/oled_ssd130x.h ****         if(on)
 244:../../libdaisy/src/dev/oled_ssd130x.h ****             buffer_[x + (y / 8) * width] |= (1 << (y % 8));
 245:../../libdaisy/src/dev/oled_ssd130x.h ****         else
 246:../../libdaisy/src/dev/oled_ssd130x.h ****             buffer_[x + (y / 8) * width] &= ~(1 << (y % 8));
 247:../../libdaisy/src/dev/oled_ssd130x.h ****     }
 248:../../libdaisy/src/dev/oled_ssd130x.h **** 
 249:../../libdaisy/src/dev/oled_ssd130x.h ****     void Fill(bool on)
 260              		.loc 14 249 10 view .LVU37
 261              	.LBB662:
 250:../../libdaisy/src/dev/oled_ssd130x.h ****     {
 251:../../libdaisy/src/dev/oled_ssd130x.h ****         for(size_t i = 0; i < sizeof(buffer_); i++)
 262              		.loc 14 251 29 view .LVU38
 263 0000 4942     		rsbs	r1, r1, #0
ARM GAS  /tmp/ccoLrWzv.s 			page 23


 264              	.LVL9:
 265              		.loc 14 251 29 is_stmt 0 view .LVU39
 266 0002 00F11303 		add	r3, r0, #19
 267 0006 00F21342 		addw	r2, r0, #1043
 268 000a C9B2     		uxtb	r1, r1
 269              	.LVL10:
 270              	.L9:
 252:../../libdaisy/src/dev/oled_ssd130x.h ****         {
 253:../../libdaisy/src/dev/oled_ssd130x.h ****             buffer_[i] = on ? 0xff : 0x00;
 271              		.loc 14 253 13 view .LVU40
 272 000c 03F8011F 		strb	r1, [r3, #1]!
 273              	.LVL11:
 251:../../libdaisy/src/dev/oled_ssd130x.h ****         {
 274              		.loc 14 251 9 is_stmt 1 view .LVU41
 251:../../libdaisy/src/dev/oled_ssd130x.h ****         {
 275              		.loc 14 251 29 view .LVU42
 276 0010 9342     		cmp	r3, r2
 277 0012 FBD1     		bne	.L9
 278              	.LBE662:
 279              	.LBE661:
 280              		.loc 2 33 53 is_stmt 0 view .LVU43
 281 0014 7047     		bx	lr
 282              		.cfi_endproc
 283              	.LFE4833:
 285 0016 00BF     		.section	.text._Z13AudioCallbackPKPKfPPfj,"ax",%progbits
 286              		.align	1
 287              		.p2align 2,,3
 288              		.global	_Z13AudioCallbackPKPKfPPfj
 289              		.syntax unified
 290              		.thumb
 291              		.thumb_func
 292              		.fpu fpv5-d16
 294              	_Z13AudioCallbackPKPKfPPfj:
 295              	.LVL12:
 296              	.LFB4233:
 297              		.file 15 "Midi.cpp"
   1:Midi.cpp      **** #include "daisy_patch.h"
   2:Midi.cpp      **** #include "daisysp.h"
   3:Midi.cpp      **** #include <string>
   4:Midi.cpp      **** 
   5:Midi.cpp      **** using namespace daisy;
   6:Midi.cpp      **** using namespace daisysp;
   7:Midi.cpp      **** 
   8:Midi.cpp      **** DaisyPatch hw;
   9:Midi.cpp      **** Oscillator osc;
  10:Midi.cpp      **** Svf        filt;
  11:Midi.cpp      **** 
  12:Midi.cpp      **** void AudioCallback(AudioHandle::InputBuffer  in,
  13:Midi.cpp      ****                    AudioHandle::OutputBuffer out,
  14:Midi.cpp      ****                    size_t                    size)
  15:Midi.cpp      **** {
 298              		.loc 15 15 1 is_stmt 1 view -0
 299              		.cfi_startproc
 300              		@ args = 0, pretend = 0, frame = 0
 301              		@ frame_needed = 0, uses_anonymous_args = 0
  16:Midi.cpp      ****     float sig;
 302              		.loc 15 16 5 view .LVU45
ARM GAS  /tmp/ccoLrWzv.s 			page 24


  17:Midi.cpp      ****     for(size_t i = 0; i < size; i++)
 303              		.loc 15 17 5 view .LVU46
 304              	.LBB663:
 305              		.loc 15 17 25 view .LVU47
 306 0000 02B3     		cbz	r2, .L21
 307              	.LBE663:
  15:Midi.cpp      ****     float sig;
 308              		.loc 15 15 1 is_stmt 0 view .LVU48
 309 0002 2DE9F843 		push	{r3, r4, r5, r6, r7, r8, r9, lr}
 310              		.cfi_def_cfa_offset 32
 311              		.cfi_offset 3, -32
 312              		.cfi_offset 4, -28
 313              		.cfi_offset 5, -24
 314              		.cfi_offset 6, -20
 315              		.cfi_offset 7, -16
 316              		.cfi_offset 8, -12
 317              		.cfi_offset 9, -8
 318              		.cfi_offset 14, -4
 319 0006 1646     		mov	r6, r2
 320              	.LBB668:
 321              		.loc 15 17 16 view .LVU49
 322 0008 4FF00009 		mov	r9, #0
 323 000c 0F1F     		subs	r7, r1, #4
 324 000e 01F10C05 		add	r5, r1, #12
 325 0012 DFF83880 		ldr	r8, .L24+4
 326              	.LVL13:
 327              	.L14:
 328              	.LBB664:
  18:Midi.cpp      ****     {
  19:Midi.cpp      ****         sig = osc.Process();
 329              		.loc 15 19 9 is_stmt 1 view .LVU50
 330              		.loc 15 19 26 is_stmt 0 view .LVU51
 331 0016 0C48     		ldr	r0, .L24
 332 0018 4FEA8904 		lsl	r4, r9, #2
 333 001c FFF7FEFF 		bl	_ZN7daisysp10Oscillator7ProcessEv
 334              	.LVL14:
  20:Midi.cpp      ****         filt.Process(sig);
 335              		.loc 15 20 9 is_stmt 1 view .LVU52
 336              		.loc 15 20 21 is_stmt 0 view .LVU53
 337 0020 0A48     		ldr	r0, .L24+4
 338 0022 FFF7FEFF 		bl	_ZN7daisysp3Svf7ProcessEf
 339              	.LVL15:
  21:Midi.cpp      ****         for(size_t chn = 0; chn < 4; chn++)
 340              		.loc 15 21 9 is_stmt 1 view .LVU54
 341              	.LBB665:
 342              		.loc 15 21 33 view .LVU55
 343 0026 3946     		mov	r1, r7
 344              	.LVL16:
 345              	.L13:
  22:Midi.cpp      ****         {
  23:Midi.cpp      ****             out[chn][i] = filt.Low();
 346              		.loc 15 23 13 discriminator 2 view .LVU56
 347              		.loc 15 23 25 is_stmt 0 discriminator 2 view .LVU57
 348 0028 51F8043F 		ldr	r3, [r1, #4]!
 349              		.loc 15 23 35 discriminator 2 view .LVU58
 350 002c D8F83000 		ldr	r0, [r8, #48]	@ float
 351              	.LVL17:
ARM GAS  /tmp/ccoLrWzv.s 			page 25


 352              		.loc 15 23 35 discriminator 2 view .LVU59
 353              	.LBE665:
 354              	.LBE664:
 355              	.LBE668:
  23:../../DaisySP/Source/Filters/svf.h ****     /** Initializes the filter
  24:../../DaisySP/Source/Filters/svf.h ****         float sample_rate - sample rate of the audio engine being run, and the frequency that the P
  25:../../DaisySP/Source/Filters/svf.h ****     */
  26:../../DaisySP/Source/Filters/svf.h ****     void Init(float sample_rate);
  27:../../DaisySP/Source/Filters/svf.h **** 
  28:../../DaisySP/Source/Filters/svf.h **** 
  29:../../DaisySP/Source/Filters/svf.h ****     /** 
  30:../../DaisySP/Source/Filters/svf.h ****         Process the input signal, updating all of the outputs.
  31:../../DaisySP/Source/Filters/svf.h ****     */
  32:../../DaisySP/Source/Filters/svf.h ****     void Process(float in);
  33:../../DaisySP/Source/Filters/svf.h **** 
  34:../../DaisySP/Source/Filters/svf.h **** 
  35:../../DaisySP/Source/Filters/svf.h ****     /** sets the frequency of the cutoff frequency. 
  36:../../DaisySP/Source/Filters/svf.h ****         f must be between 0.0 and sample_rate / 3
  37:../../DaisySP/Source/Filters/svf.h ****     */
  38:../../DaisySP/Source/Filters/svf.h ****     void SetFreq(float f);
  39:../../DaisySP/Source/Filters/svf.h **** 
  40:../../DaisySP/Source/Filters/svf.h ****     /** sets the resonance of the filter.
  41:../../DaisySP/Source/Filters/svf.h ****         Must be between 0.0 and 1.0 to ensure stability.
  42:../../DaisySP/Source/Filters/svf.h ****     */
  43:../../DaisySP/Source/Filters/svf.h ****     void SetRes(float r);
  44:../../DaisySP/Source/Filters/svf.h **** 
  45:../../DaisySP/Source/Filters/svf.h ****     /** sets the drive of the filter 
  46:../../DaisySP/Source/Filters/svf.h ****         affects the response of the resonance of the filter
  47:../../DaisySP/Source/Filters/svf.h ****     */
  48:../../DaisySP/Source/Filters/svf.h ****     void SetDrive(float d);
  49:../../DaisySP/Source/Filters/svf.h ****     /** lowpass output
  50:../../DaisySP/Source/Filters/svf.h ****         \return low pass output of the filter
  51:../../DaisySP/Source/Filters/svf.h ****     */
  52:../../DaisySP/Source/Filters/svf.h ****     inline float Low() { return out_low_; }
 356              		.loc 13 52 26 is_stmt 1 discriminator 2 view .LVU60
 357              	.LBB669:
 358              	.LBB667:
 359              	.LBB666:
 360              		.loc 15 23 25 is_stmt 0 discriminator 2 view .LVU61
 361 0030 2344     		add	r3, r3, r4
  21:Midi.cpp      ****         {
 362              		.loc 15 21 33 discriminator 2 view .LVU62
 363 0032 A942     		cmp	r1, r5
 364              		.loc 15 23 25 discriminator 2 view .LVU63
 365 0034 1860     		str	r0, [r3]	@ float
  21:Midi.cpp      ****         {
 366              		.loc 15 21 9 is_stmt 1 discriminator 2 view .LVU64
  21:Midi.cpp      ****         {
 367              		.loc 15 21 33 discriminator 2 view .LVU65
 368 0036 F7D1     		bne	.L13
 369              	.LBE666:
 370              	.LBE667:
  17:Midi.cpp      ****     {
 371              		.loc 15 17 5 discriminator 2 view .LVU66
 372 0038 09F10109 		add	r9, r9, #1
 373              	.LVL18:
  17:Midi.cpp      ****     {
ARM GAS  /tmp/ccoLrWzv.s 			page 26


 374              		.loc 15 17 25 discriminator 2 view .LVU67
 375 003c 4E45     		cmp	r6, r9
 376 003e EAD1     		bne	.L14
 377              	.LBE669:
  24:Midi.cpp      ****         }
  25:Midi.cpp      ****     }
  26:Midi.cpp      **** }
 378              		.loc 15 26 1 is_stmt 0 view .LVU68
 379 0040 BDE8F883 		pop	{r3, r4, r5, r6, r7, r8, r9, pc}
 380              	.LVL19:
 381              	.L21:
 382              		.cfi_def_cfa_offset 0
 383              		.cfi_restore 3
 384              		.cfi_restore 4
 385              		.cfi_restore 5
 386              		.cfi_restore 6
 387              		.cfi_restore 7
 388              		.cfi_restore 8
 389              		.cfi_restore 9
 390              		.cfi_restore 14
 391              		.loc 15 26 1 view .LVU69
 392 0044 7047     		bx	lr
 393              	.L25:
 394 0046 00BF     		.align	2
 395              	.L24:
 396 0048 00000000 		.word	.LANCHOR0
 397 004c 00000000 		.word	.LANCHOR1
 398              		.cfi_endproc
 399              	.LFE4233:
 401              		.section	.text._ZN5daisy11OledDisplayINS_13SSD130xDriverILj128ELj64ENS_24SSD130x4WireSpiTransportE
 402              		.align	1
 403              		.p2align 2,,3
 404              		.weak	_ZN5daisy11OledDisplayINS_13SSD130xDriverILj128ELj64ENS_24SSD130x4WireSpiTransportEEEED0Ev
 405              		.syntax unified
 406              		.thumb
 407              		.thumb_func
 408              		.fpu fpv5-d16
 410              	_ZN5daisy11OledDisplayINS_13SSD130xDriverILj128ELj64ENS_24SSD130x4WireSpiTransportEEEED0Ev:
 411              	.LVL20:
 412              	.LFB4266:
  17:../../libdaisy/src/hid/disp/oled_display.h **** 
 413              		.loc 2 17 13 is_stmt 1 view -0
 414              		.cfi_startproc
 415              		@ args = 0, pretend = 0, frame = 0
 416              		@ frame_needed = 0, uses_anonymous_args = 0
  17:../../libdaisy/src/hid/disp/oled_display.h **** 
 417              		.loc 2 17 13 is_stmt 0 view .LVU71
 418 0000 10B5     		push	{r4, lr}
 419              		.cfi_def_cfa_offset 8
 420              		.cfi_offset 4, -8
 421              		.cfi_offset 14, -4
  17:../../libdaisy/src/hid/disp/oled_display.h **** 
 422              		.loc 2 17 13 view .LVU72
 423 0002 0446     		mov	r4, r0
 424              	.LVL21:
 425              	.LBB670:
 426              	.LBI670:
ARM GAS  /tmp/ccoLrWzv.s 			page 27


  17:../../libdaisy/src/hid/disp/oled_display.h **** 
 427              		.loc 2 17 13 is_stmt 1 view .LVU73
 428              	.LBB671:
 429              	.LBI671:
 430              		.loc 3 219 13 view .LVU74
 431              	.LBB672:
 432              	.LBI672:
  23:../../libdaisy/src/hid/disp/display.h **** 
 433              		.loc 3 23 13 view .LVU75
  23:../../libdaisy/src/hid/disp/display.h **** 
 434              		.loc 3 23 13 is_stmt 0 view .LVU76
 435              	.LBE672:
 436              	.LBE671:
 437              	.LBE670:
  17:../../libdaisy/src/hid/disp/oled_display.h **** 
 438              		.loc 2 17 29 view .LVU77
 439 0004 40F21441 		movw	r1, #1044
 440 0008 FFF7FEFF 		bl	_ZdlPvj
 441              	.LVL22:
  17:../../libdaisy/src/hid/disp/oled_display.h **** 
 442              		.loc 2 17 29 view .LVU78
 443 000c 2046     		mov	r0, r4
 444 000e 10BD     		pop	{r4, pc}
  17:../../libdaisy/src/hid/disp/oled_display.h **** 
 445              		.loc 2 17 29 view .LVU79
 446              		.cfi_endproc
 447              	.LFE4266:
 449              		.section	.text._ZN5daisy11OledDisplayINS_13SSD130xDriverILj128ELj64ENS_24SSD130x4WireSpiTransportE
 450              		.align	1
 451              		.p2align 2,,3
 452              		.weak	_ZN5daisy11OledDisplayINS_13SSD130xDriverILj128ELj64ENS_24SSD130x4WireSpiTransportEEEE6Updat
 453              		.syntax unified
 454              		.thumb
 455              		.thumb_func
 456              		.fpu fpv5-d16
 458              	_ZN5daisy11OledDisplayINS_13SSD130xDriverILj128ELj64ENS_24SSD130x4WireSpiTransportEEEE6UpdateEv:
 459              	.LVL23:
 460              	.LFB4555:
  34:../../libdaisy/src/hid/disp/oled_display.h **** 
  35:../../libdaisy/src/hid/disp/oled_display.h ****     /**
  36:../../libdaisy/src/hid/disp/oled_display.h ****     Sets the pixel at the specified coordinate to be on/off.
  37:../../libdaisy/src/hid/disp/oled_display.h ****     \param x   x Coordinate
  38:../../libdaisy/src/hid/disp/oled_display.h ****     \param y   y coordinate
  39:../../libdaisy/src/hid/disp/oled_display.h ****     \param on  on or off
  40:../../libdaisy/src/hid/disp/oled_display.h ****     */
  41:../../libdaisy/src/hid/disp/oled_display.h ****     void DrawPixel(uint_fast8_t x, uint_fast8_t y, bool on) override
  42:../../libdaisy/src/hid/disp/oled_display.h ****     {
  43:../../libdaisy/src/hid/disp/oled_display.h ****         driver_.DrawPixel(x, y, on);
  44:../../libdaisy/src/hid/disp/oled_display.h ****     }
  45:../../libdaisy/src/hid/disp/oled_display.h **** 
  46:../../libdaisy/src/hid/disp/oled_display.h ****     /** 
  47:../../libdaisy/src/hid/disp/oled_display.h ****     Writes the current display buffer to the OLED device using SPI or I2C depending on 
  48:../../libdaisy/src/hid/disp/oled_display.h ****     how the object was initialized.
  49:../../libdaisy/src/hid/disp/oled_display.h ****     */
  50:../../libdaisy/src/hid/disp/oled_display.h ****     void Update() override { driver_.Update(); }
 461              		.loc 2 50 10 is_stmt 1 view -0
 462              		.cfi_startproc
ARM GAS  /tmp/ccoLrWzv.s 			page 28


 463              		@ args = 0, pretend = 0, frame = 8
 464              		@ frame_needed = 0, uses_anonymous_args = 0
 465              	.LBB683:
 466              	.LBI683:
 254:../../libdaisy/src/dev/oled_ssd130x.h ****         }
 255:../../libdaisy/src/dev/oled_ssd130x.h ****     };
 256:../../libdaisy/src/dev/oled_ssd130x.h **** 
 257:../../libdaisy/src/dev/oled_ssd130x.h ****     /**
 258:../../libdaisy/src/dev/oled_ssd130x.h ****      * Update the display 
 259:../../libdaisy/src/dev/oled_ssd130x.h ****     */
 260:../../libdaisy/src/dev/oled_ssd130x.h ****     void Update()
 467              		.loc 14 260 10 view .LVU81
 468              	.LBB684:
 261:../../libdaisy/src/dev/oled_ssd130x.h ****     {
 262:../../libdaisy/src/dev/oled_ssd130x.h ****         uint8_t i;
 263:../../libdaisy/src/dev/oled_ssd130x.h ****         uint8_t high_column_addr;
 264:../../libdaisy/src/dev/oled_ssd130x.h ****         switch(height)
 265:../../libdaisy/src/dev/oled_ssd130x.h ****         {
 266:../../libdaisy/src/dev/oled_ssd130x.h ****             case 32: high_column_addr = 0x12; break;
 267:../../libdaisy/src/dev/oled_ssd130x.h **** 
 268:../../libdaisy/src/dev/oled_ssd130x.h ****             default: high_column_addr = 0x10; break;
 269:../../libdaisy/src/dev/oled_ssd130x.h ****         }
 270:../../libdaisy/src/dev/oled_ssd130x.h ****         for(i = 0; i < (height / 8); i++)
 469              		.loc 14 270 22 view .LVU82
 470              	.LBE684:
 471              	.LBE683:
 472              		.loc 2 50 10 is_stmt 0 view .LVU83
 473 0000 2DE9F041 		push	{r4, r5, r6, r7, r8, lr}
 474              		.cfi_def_cfa_offset 24
 475              		.cfi_offset 4, -24
 476              		.cfi_offset 5, -20
 477              		.cfi_offset 6, -16
 478              		.cfi_offset 7, -12
 479              		.cfi_offset 8, -8
 480              		.cfi_offset 14, -4
 481 0004 B025     		movs	r5, #176
 482 0006 82B0     		sub	sp, sp, #8
 483              		.cfi_def_cfa_offset 32
 484 0008 00F10807 		add	r7, r0, #8
 485 000c 00F11006 		add	r6, r0, #16
 486 0010 00F11404 		add	r4, r0, #20
 487              	.LVL24:
 488              	.L29:
 489              	.LBB697:
 490              	.LBB696:
 491              	.LBB685:
 492              	.LBB686:
 111:../../libdaisy/src/dev/oled_ssd130x.h ****         spi_.BlockingTransmit(&cmd, 1);
 493              		.loc 14 111 23 view .LVU84
 494 0014 0021     		movs	r1, #0
 495 0016 3046     		mov	r0, r6
 496 0018 8DF80750 		strb	r5, [sp, #7]
 497              	.LVL25:
 111:../../libdaisy/src/dev/oled_ssd130x.h ****         spi_.BlockingTransmit(&cmd, 1);
 498              		.loc 14 111 23 view .LVU85
 499              	.LBE686:
 500              	.LBI685:
ARM GAS  /tmp/ccoLrWzv.s 			page 29


 109:../../libdaisy/src/dev/oled_ssd130x.h ****     {
 501              		.loc 14 109 10 is_stmt 1 view .LVU86
 502              	.LBB687:
 111:../../libdaisy/src/dev/oled_ssd130x.h ****         spi_.BlockingTransmit(&cmd, 1);
 503              		.loc 14 111 9 view .LVU87
 504 001c 0135     		adds	r5, r5, #1
 505              	.LVL26:
 111:../../libdaisy/src/dev/oled_ssd130x.h ****         spi_.BlockingTransmit(&cmd, 1);
 506              		.loc 14 111 9 is_stmt 0 view .LVU88
 507 001e 8846     		mov	r8, r1
 111:../../libdaisy/src/dev/oled_ssd130x.h ****         spi_.BlockingTransmit(&cmd, 1);
 508              		.loc 14 111 23 view .LVU89
 509 0020 FFF7FEFF 		bl	dsy_gpio_write
 510              	.LVL27:
 112:../../libdaisy/src/dev/oled_ssd130x.h ****     };
 511              		.loc 14 112 9 is_stmt 1 view .LVU90
 112:../../libdaisy/src/dev/oled_ssd130x.h ****     };
 512              		.loc 14 112 30 is_stmt 0 view .LVU91
 513 0024 6423     		movs	r3, #100
 514 0026 0122     		movs	r2, #1
 515 0028 0DF10701 		add	r1, sp, #7
 516 002c 3846     		mov	r0, r7
 517 002e FFF7FEFF 		bl	_ZN5daisy9SpiHandle16BlockingTransmitEPhjm
 518              	.LVL28:
 112:../../libdaisy/src/dev/oled_ssd130x.h ****     };
 519              		.loc 14 112 30 view .LVU92
 520              	.LBE687:
 521              	.LBE685:
 522              	.LBB688:
 523              	.LBB689:
 111:../../libdaisy/src/dev/oled_ssd130x.h ****         spi_.BlockingTransmit(&cmd, 1);
 524              		.loc 14 111 23 view .LVU93
 525 0032 4146     		mov	r1, r8
 526 0034 3046     		mov	r0, r6
 527 0036 8DF80780 		strb	r8, [sp, #7]
 528              	.LVL29:
 111:../../libdaisy/src/dev/oled_ssd130x.h ****         spi_.BlockingTransmit(&cmd, 1);
 529              		.loc 14 111 23 view .LVU94
 530              	.LBE689:
 531              	.LBI688:
 109:../../libdaisy/src/dev/oled_ssd130x.h ****     {
 532              		.loc 14 109 10 is_stmt 1 view .LVU95
 533              	.LBB690:
 111:../../libdaisy/src/dev/oled_ssd130x.h ****         spi_.BlockingTransmit(&cmd, 1);
 534              		.loc 14 111 9 view .LVU96
 111:../../libdaisy/src/dev/oled_ssd130x.h ****         spi_.BlockingTransmit(&cmd, 1);
 535              		.loc 14 111 23 is_stmt 0 view .LVU97
 536 003a FFF7FEFF 		bl	dsy_gpio_write
 537              	.LVL30:
 112:../../libdaisy/src/dev/oled_ssd130x.h ****     };
 538              		.loc 14 112 9 is_stmt 1 view .LVU98
 112:../../libdaisy/src/dev/oled_ssd130x.h ****     };
 539              		.loc 14 112 30 is_stmt 0 view .LVU99
 540 003e 0122     		movs	r2, #1
 541 0040 6423     		movs	r3, #100
 542 0042 0DF10701 		add	r1, sp, #7
 543 0046 3846     		mov	r0, r7
ARM GAS  /tmp/ccoLrWzv.s 			page 30


 544 0048 EDB2     		uxtb	r5, r5
 545 004a FFF7FEFF 		bl	_ZN5daisy9SpiHandle16BlockingTransmitEPhjm
 546              	.LVL31:
 112:../../libdaisy/src/dev/oled_ssd130x.h ****     };
 547              		.loc 14 112 30 view .LVU100
 548 004e 1023     		movs	r3, #16
 549              	.LBE690:
 550              	.LBE688:
 551              	.LBB691:
 552              	.LBB692:
 111:../../libdaisy/src/dev/oled_ssd130x.h ****         spi_.BlockingTransmit(&cmd, 1);
 553              		.loc 14 111 23 view .LVU101
 554 0050 4146     		mov	r1, r8
 555 0052 3046     		mov	r0, r6
 556 0054 8DF80730 		strb	r3, [sp, #7]
 557              	.LVL32:
 111:../../libdaisy/src/dev/oled_ssd130x.h ****         spi_.BlockingTransmit(&cmd, 1);
 558              		.loc 14 111 23 view .LVU102
 559              	.LBE692:
 560              	.LBI691:
 109:../../libdaisy/src/dev/oled_ssd130x.h ****     {
 561              		.loc 14 109 10 is_stmt 1 view .LVU103
 562              	.LBB693:
 111:../../libdaisy/src/dev/oled_ssd130x.h ****         spi_.BlockingTransmit(&cmd, 1);
 563              		.loc 14 111 9 view .LVU104
 111:../../libdaisy/src/dev/oled_ssd130x.h ****         spi_.BlockingTransmit(&cmd, 1);
 564              		.loc 14 111 23 is_stmt 0 view .LVU105
 565 0058 FFF7FEFF 		bl	dsy_gpio_write
 566              	.LVL33:
 112:../../libdaisy/src/dev/oled_ssd130x.h ****     };
 567              		.loc 14 112 9 is_stmt 1 view .LVU106
 112:../../libdaisy/src/dev/oled_ssd130x.h ****     };
 568              		.loc 14 112 30 is_stmt 0 view .LVU107
 569 005c 6423     		movs	r3, #100
 570 005e 0122     		movs	r2, #1
 571 0060 0DF10701 		add	r1, sp, #7
 572 0064 3846     		mov	r0, r7
 573 0066 FFF7FEFF 		bl	_ZN5daisy9SpiHandle16BlockingTransmitEPhjm
 574              	.LVL34:
 112:../../libdaisy/src/dev/oled_ssd130x.h ****     };
 575              		.loc 14 112 30 view .LVU108
 576              	.LBE693:
 577              	.LBE691:
 578              	.LBB694:
 579              	.LBI694:
 115:../../libdaisy/src/dev/oled_ssd130x.h ****     {
 580              		.loc 14 115 10 is_stmt 1 view .LVU109
 581              	.LBB695:
 117:../../libdaisy/src/dev/oled_ssd130x.h ****         spi_.BlockingTransmit(buff, size);
 582              		.loc 14 117 9 view .LVU110
 117:../../libdaisy/src/dev/oled_ssd130x.h ****         spi_.BlockingTransmit(buff, size);
 583              		.loc 14 117 23 is_stmt 0 view .LVU111
 584 006a 0121     		movs	r1, #1
 585 006c 3046     		mov	r0, r6
 586 006e FFF7FEFF 		bl	dsy_gpio_write
 587              	.LVL35:
 118:../../libdaisy/src/dev/oled_ssd130x.h ****     };
ARM GAS  /tmp/ccoLrWzv.s 			page 31


 588              		.loc 14 118 9 is_stmt 1 view .LVU112
 118:../../libdaisy/src/dev/oled_ssd130x.h ****     };
 589              		.loc 14 118 30 is_stmt 0 view .LVU113
 590 0072 8022     		movs	r2, #128
 591 0074 2146     		mov	r1, r4
 592 0076 6423     		movs	r3, #100
 593 0078 3846     		mov	r0, r7
 594 007a 1444     		add	r4, r4, r2
 595              	.LVL36:
 118:../../libdaisy/src/dev/oled_ssd130x.h ****     };
 596              		.loc 14 118 30 view .LVU114
 597 007c FFF7FEFF 		bl	_ZN5daisy9SpiHandle16BlockingTransmitEPhjm
 598              	.LVL37:
 118:../../libdaisy/src/dev/oled_ssd130x.h ****     };
 599              		.loc 14 118 30 view .LVU115
 600              	.LBE695:
 601              	.LBE694:
 602              		.loc 14 270 9 is_stmt 1 view .LVU116
 603              		.loc 14 270 22 view .LVU117
 604 0080 B82D     		cmp	r5, #184
 605 0082 C7D1     		bne	.L29
 606              	.LBE696:
 607              	.LBE697:
 608              		.loc 2 50 48 is_stmt 0 view .LVU118
 609 0084 02B0     		add	sp, sp, #8
 610              		.cfi_def_cfa_offset 24
 611              		@ sp needed
 612 0086 BDE8F081 		pop	{r4, r5, r6, r7, r8, pc}
 613              		.loc 2 50 48 view .LVU119
 614              		.cfi_endproc
 615              	.LFE4555:
 617 008a 00BF     		.section	.text._ZN5daisy25OneBitGraphicsDisplayImplINS_11OledDisplayINS_13SSD130xDriverILj128ELj64
 618              		.align	1
 619              		.p2align 2,,3
 620              		.weak	_ZN5daisy25OneBitGraphicsDisplayImplINS_11OledDisplayINS_13SSD130xDriverILj128ELj64ENS_24SSD
 621              		.syntax unified
 622              		.thumb
 623              		.thumb_func
 624              		.fpu fpv5-d16
 626              	_ZN5daisy25OneBitGraphicsDisplayImplINS_11OledDisplayINS_13SSD130xDriverILj128ELj64ENS_24SSD130x4Wi
 627              	.LVL38:
 628              	.LFB4554:
 220:../../libdaisy/src/hid/disp/display.h **** 
 221:../../libdaisy/src/hid/disp/display.h ****     void DrawLine(uint_fast8_t x1,
 222:../../libdaisy/src/hid/disp/display.h ****                   uint_fast8_t y1,
 223:../../libdaisy/src/hid/disp/display.h ****                   uint_fast8_t x2,
 224:../../libdaisy/src/hid/disp/display.h ****                   uint_fast8_t y2,
 225:../../libdaisy/src/hid/disp/display.h ****                   bool         on) override
 226:../../libdaisy/src/hid/disp/display.h ****     {
 227:../../libdaisy/src/hid/disp/display.h ****         int_fast16_t deltaX = abs((int_fast16_t)x2 - (int_fast16_t)x1);
 228:../../libdaisy/src/hid/disp/display.h ****         int_fast16_t deltaY = abs((int_fast16_t)y2 - (int_fast16_t)y1);
 229:../../libdaisy/src/hid/disp/display.h ****         int_fast16_t signX  = ((x1 < x2) ? 1 : -1);
 230:../../libdaisy/src/hid/disp/display.h ****         int_fast16_t signY  = ((y1 < y2) ? 1 : -1);
 231:../../libdaisy/src/hid/disp/display.h ****         int_fast16_t error  = deltaX - deltaY;
 232:../../libdaisy/src/hid/disp/display.h ****         int_fast16_t error2;
 233:../../libdaisy/src/hid/disp/display.h **** 
 234:../../libdaisy/src/hid/disp/display.h ****         // If we write "ChildType::DrawPixel(x2, y2, on);", we end up with
ARM GAS  /tmp/ccoLrWzv.s 			page 32


 235:../../libdaisy/src/hid/disp/display.h ****         // all sorts of weird compiler errors when the Child class is a template
 236:../../libdaisy/src/hid/disp/display.h ****         // class. The only way around this is to use this very verbose syntax:
 237:../../libdaisy/src/hid/disp/display.h ****         ((ChildType*)(this))->ChildType::DrawPixel(x2, y2, on);
 238:../../libdaisy/src/hid/disp/display.h **** 
 239:../../libdaisy/src/hid/disp/display.h ****         while((x1 != x2) || (y1 != y2))
 240:../../libdaisy/src/hid/disp/display.h ****         {
 241:../../libdaisy/src/hid/disp/display.h ****             ((ChildType*)(this))->ChildType::DrawPixel(x1, y1, on);
 242:../../libdaisy/src/hid/disp/display.h ****             error2 = error * 2;
 243:../../libdaisy/src/hid/disp/display.h ****             if(error2 > -deltaY)
 244:../../libdaisy/src/hid/disp/display.h ****             {
 245:../../libdaisy/src/hid/disp/display.h ****                 error -= deltaY;
 246:../../libdaisy/src/hid/disp/display.h ****                 x1 += signX;
 247:../../libdaisy/src/hid/disp/display.h ****             }
 248:../../libdaisy/src/hid/disp/display.h **** 
 249:../../libdaisy/src/hid/disp/display.h ****             if(error2 < deltaX)
 250:../../libdaisy/src/hid/disp/display.h ****             {
 251:../../libdaisy/src/hid/disp/display.h ****                 error += deltaX;
 252:../../libdaisy/src/hid/disp/display.h ****                 y1 += signY;
 253:../../libdaisy/src/hid/disp/display.h ****             }
 254:../../libdaisy/src/hid/disp/display.h ****         }
 255:../../libdaisy/src/hid/disp/display.h ****     }
 256:../../libdaisy/src/hid/disp/display.h **** 
 257:../../libdaisy/src/hid/disp/display.h ****     void DrawRect(uint_fast8_t x1,
 258:../../libdaisy/src/hid/disp/display.h ****                   uint_fast8_t y1,
 259:../../libdaisy/src/hid/disp/display.h ****                   uint_fast8_t x2,
 260:../../libdaisy/src/hid/disp/display.h ****                   uint_fast8_t y2,
 261:../../libdaisy/src/hid/disp/display.h ****                   bool         on,
 262:../../libdaisy/src/hid/disp/display.h ****                   bool         fill = false) override
 263:../../libdaisy/src/hid/disp/display.h ****     {
 264:../../libdaisy/src/hid/disp/display.h ****         if(fill)
 265:../../libdaisy/src/hid/disp/display.h ****         {
 266:../../libdaisy/src/hid/disp/display.h ****             for(uint_fast8_t x = x1; x <= x2; x++)
 267:../../libdaisy/src/hid/disp/display.h ****             {
 268:../../libdaisy/src/hid/disp/display.h ****                 for(uint_fast8_t y = y1; y <= y2; y++)
 269:../../libdaisy/src/hid/disp/display.h ****                 {
 270:../../libdaisy/src/hid/disp/display.h ****                     ((ChildType*)(this))->ChildType::DrawPixel(x, y, on);
 271:../../libdaisy/src/hid/disp/display.h ****                 }
 272:../../libdaisy/src/hid/disp/display.h ****             }
 273:../../libdaisy/src/hid/disp/display.h ****         }
 274:../../libdaisy/src/hid/disp/display.h ****         else
 275:../../libdaisy/src/hid/disp/display.h ****         {
 276:../../libdaisy/src/hid/disp/display.h ****             ((ChildType*)(this))->ChildType::DrawLine(x1, y1, x2, y1, on);
 277:../../libdaisy/src/hid/disp/display.h ****             ((ChildType*)(this))->ChildType::DrawLine(x2, y1, x2, y2, on);
 278:../../libdaisy/src/hid/disp/display.h ****             ((ChildType*)(this))->ChildType::DrawLine(x2, y2, x1, y2, on);
 279:../../libdaisy/src/hid/disp/display.h ****             ((ChildType*)(this))->ChildType::DrawLine(x1, y2, x1, y1, on);
 280:../../libdaisy/src/hid/disp/display.h ****         }
 281:../../libdaisy/src/hid/disp/display.h ****     }
 282:../../libdaisy/src/hid/disp/display.h **** 
 283:../../libdaisy/src/hid/disp/display.h ****     void DrawArc(uint_fast8_t x,
 284:../../libdaisy/src/hid/disp/display.h ****                  uint_fast8_t y,
 285:../../libdaisy/src/hid/disp/display.h ****                  uint_fast8_t radius,
 286:../../libdaisy/src/hid/disp/display.h ****                  int_fast16_t start_angle,
 287:../../libdaisy/src/hid/disp/display.h ****                  int_fast16_t sweep,
 288:../../libdaisy/src/hid/disp/display.h ****                  bool         on) override
 289:../../libdaisy/src/hid/disp/display.h ****     {
 290:../../libdaisy/src/hid/disp/display.h ****         // Values to calculate the circle
 291:../../libdaisy/src/hid/disp/display.h ****         int_fast16_t t_x, t_y, err, e2;
ARM GAS  /tmp/ccoLrWzv.s 			page 33


 292:../../libdaisy/src/hid/disp/display.h **** 
 293:../../libdaisy/src/hid/disp/display.h ****         // Temporary values to speed up comparisons
 294:../../libdaisy/src/hid/disp/display.h ****         float t_sxy, t_syx, t_sxny, t_synx;
 295:../../libdaisy/src/hid/disp/display.h ****         float t_exy, t_eyx, t_exny, t_eynx;
 296:../../libdaisy/src/hid/disp/display.h **** 
 297:../../libdaisy/src/hid/disp/display.h ****         float start_angle_rad, end_angle_rad;
 298:../../libdaisy/src/hid/disp/display.h ****         float start_x, start_y, end_x, end_y;
 299:../../libdaisy/src/hid/disp/display.h **** 
 300:../../libdaisy/src/hid/disp/display.h ****         bool d1, d2, d3, d4;
 301:../../libdaisy/src/hid/disp/display.h **** 
 302:../../libdaisy/src/hid/disp/display.h ****         d1 = d2 = d3 = d4 = true;
 303:../../libdaisy/src/hid/disp/display.h **** 
 304:../../libdaisy/src/hid/disp/display.h ****         bool circle = false;
 305:../../libdaisy/src/hid/disp/display.h **** 
 306:../../libdaisy/src/hid/disp/display.h ****         if(sweep < 0)
 307:../../libdaisy/src/hid/disp/display.h ****         {
 308:../../libdaisy/src/hid/disp/display.h ****             start_angle += sweep;
 309:../../libdaisy/src/hid/disp/display.h ****             sweep = -sweep;
 310:../../libdaisy/src/hid/disp/display.h ****         }
 311:../../libdaisy/src/hid/disp/display.h **** 
 312:../../libdaisy/src/hid/disp/display.h ****         start_angle_rad = deg2rad(start_angle);
 313:../../libdaisy/src/hid/disp/display.h ****         end_angle_rad   = deg2rad(start_angle + sweep);
 314:../../libdaisy/src/hid/disp/display.h **** 
 315:../../libdaisy/src/hid/disp/display.h ****         start_x = cos(start_angle_rad) * radius;
 316:../../libdaisy/src/hid/disp/display.h ****         start_y = -sin(start_angle_rad) * radius;
 317:../../libdaisy/src/hid/disp/display.h ****         end_x   = cos(end_angle_rad) * radius;
 318:../../libdaisy/src/hid/disp/display.h ****         end_y   = -sin(end_angle_rad) * radius;
 319:../../libdaisy/src/hid/disp/display.h **** 
 320:../../libdaisy/src/hid/disp/display.h ****         // Check if start and endpoint are very near
 321:../../libdaisy/src/hid/disp/display.h ****         if((end_x - start_x) * (end_x - start_x)
 322:../../libdaisy/src/hid/disp/display.h ****                + (end_y - start_y) * (end_y - start_y)
 323:../../libdaisy/src/hid/disp/display.h ****            < 2.0f)
 324:../../libdaisy/src/hid/disp/display.h ****         {
 325:../../libdaisy/src/hid/disp/display.h ****             if(sweep > 180)
 326:../../libdaisy/src/hid/disp/display.h ****                 circle = true;
 327:../../libdaisy/src/hid/disp/display.h ****             else
 328:../../libdaisy/src/hid/disp/display.h ****                 // Nothing to draw
 329:../../libdaisy/src/hid/disp/display.h ****                 return;
 330:../../libdaisy/src/hid/disp/display.h ****         }
 331:../../libdaisy/src/hid/disp/display.h **** 
 332:../../libdaisy/src/hid/disp/display.h ****         t_x = -radius;
 333:../../libdaisy/src/hid/disp/display.h ****         t_y = 0;
 334:../../libdaisy/src/hid/disp/display.h ****         err = 2 - 2 * radius;
 335:../../libdaisy/src/hid/disp/display.h **** 
 336:../../libdaisy/src/hid/disp/display.h ****         do
 337:../../libdaisy/src/hid/disp/display.h ****         {
 338:../../libdaisy/src/hid/disp/display.h ****             if(!circle)
 339:../../libdaisy/src/hid/disp/display.h ****             {
 340:../../libdaisy/src/hid/disp/display.h ****                 t_sxy  = start_x * t_y;
 341:../../libdaisy/src/hid/disp/display.h ****                 t_syx  = start_y * t_x;
 342:../../libdaisy/src/hid/disp/display.h ****                 t_sxny = start_x * -t_y;
 343:../../libdaisy/src/hid/disp/display.h ****                 t_synx = start_y * -t_x;
 344:../../libdaisy/src/hid/disp/display.h ****                 t_exy  = end_x * t_y;
 345:../../libdaisy/src/hid/disp/display.h ****                 t_eyx  = end_y * t_x;
 346:../../libdaisy/src/hid/disp/display.h ****                 t_exny = end_x * -t_y;
 347:../../libdaisy/src/hid/disp/display.h ****                 t_eynx = end_y * -t_x;
 348:../../libdaisy/src/hid/disp/display.h **** 
ARM GAS  /tmp/ccoLrWzv.s 			page 34


 349:../../libdaisy/src/hid/disp/display.h ****                 if(sweep > 180)
 350:../../libdaisy/src/hid/disp/display.h ****                 {
 351:../../libdaisy/src/hid/disp/display.h ****                     d1 = (t_sxy - t_synx < 0 || t_exy - t_eynx > 0);
 352:../../libdaisy/src/hid/disp/display.h ****                     d2 = (t_sxy - t_syx < 0 || t_exy - t_eyx > 0);
 353:../../libdaisy/src/hid/disp/display.h ****                     d3 = (t_sxny - t_syx < 0 || t_exny - t_eyx > 0);
 354:../../libdaisy/src/hid/disp/display.h ****                     d4 = (t_sxny - t_synx < 0 || t_exny - t_eynx > 0);
 355:../../libdaisy/src/hid/disp/display.h ****                 }
 356:../../libdaisy/src/hid/disp/display.h ****                 else
 357:../../libdaisy/src/hid/disp/display.h ****                 {
 358:../../libdaisy/src/hid/disp/display.h ****                     d1 = (t_sxy - t_synx < 0 && t_exy - t_eynx > 0);
 359:../../libdaisy/src/hid/disp/display.h ****                     d2 = (t_sxy - t_syx < 0 && t_exy - t_eyx > 0);
 360:../../libdaisy/src/hid/disp/display.h ****                     d3 = (t_sxny - t_syx < 0 && t_exny - t_eyx > 0);
 361:../../libdaisy/src/hid/disp/display.h ****                     d4 = (t_sxny - t_synx < 0 && t_exny - t_eynx > 0);
 362:../../libdaisy/src/hid/disp/display.h ****                 }
 363:../../libdaisy/src/hid/disp/display.h ****             }
 364:../../libdaisy/src/hid/disp/display.h **** 
 365:../../libdaisy/src/hid/disp/display.h ****             if(d1)
 366:../../libdaisy/src/hid/disp/display.h ****                 ((ChildType*)(this))
 367:../../libdaisy/src/hid/disp/display.h ****                     ->ChildType::DrawPixel(x - t_x, y + t_y, on);
 368:../../libdaisy/src/hid/disp/display.h ****             if(d2)
 369:../../libdaisy/src/hid/disp/display.h ****                 ((ChildType*)(this))
 370:../../libdaisy/src/hid/disp/display.h ****                     ->ChildType::DrawPixel(x + t_x, y + t_y, on);
 371:../../libdaisy/src/hid/disp/display.h ****             if(d3)
 372:../../libdaisy/src/hid/disp/display.h ****                 ((ChildType*)(this))
 373:../../libdaisy/src/hid/disp/display.h ****                     ->ChildType::DrawPixel(x + t_x, y - t_y, on);
 374:../../libdaisy/src/hid/disp/display.h ****             if(d4)
 375:../../libdaisy/src/hid/disp/display.h ****                 ((ChildType*)(this))
 376:../../libdaisy/src/hid/disp/display.h ****                     ->ChildType::DrawPixel(x - t_x, y - t_y, on);
 377:../../libdaisy/src/hid/disp/display.h **** 
 378:../../libdaisy/src/hid/disp/display.h ****             e2 = err;
 379:../../libdaisy/src/hid/disp/display.h ****             if(e2 <= t_y)
 380:../../libdaisy/src/hid/disp/display.h ****             {
 381:../../libdaisy/src/hid/disp/display.h ****                 t_y++;
 382:../../libdaisy/src/hid/disp/display.h ****                 err = err + (t_y * 2 + 1);
 383:../../libdaisy/src/hid/disp/display.h ****                 if(-t_x == t_y && e2 <= t_x)
 384:../../libdaisy/src/hid/disp/display.h ****                 {
 385:../../libdaisy/src/hid/disp/display.h ****                     e2 = 0;
 386:../../libdaisy/src/hid/disp/display.h ****                 }
 387:../../libdaisy/src/hid/disp/display.h ****             }
 388:../../libdaisy/src/hid/disp/display.h ****             if(e2 > t_x)
 389:../../libdaisy/src/hid/disp/display.h ****             {
 390:../../libdaisy/src/hid/disp/display.h ****                 t_x++;
 391:../../libdaisy/src/hid/disp/display.h ****                 err = err + (t_x * 2 + 1);
 392:../../libdaisy/src/hid/disp/display.h ****             }
 393:../../libdaisy/src/hid/disp/display.h ****         } while(t_x <= 0);
 394:../../libdaisy/src/hid/disp/display.h ****     }
 395:../../libdaisy/src/hid/disp/display.h **** 
 396:../../libdaisy/src/hid/disp/display.h ****     char WriteChar(char ch, FontDef font, bool on) override
 397:../../libdaisy/src/hid/disp/display.h ****     {
 398:../../libdaisy/src/hid/disp/display.h ****         uint32_t i, b, j;
 399:../../libdaisy/src/hid/disp/display.h **** 
 400:../../libdaisy/src/hid/disp/display.h ****         // Check if character is valid
 401:../../libdaisy/src/hid/disp/display.h ****         if(ch < 32 || ch > 126)
 402:../../libdaisy/src/hid/disp/display.h ****             return 0;
 403:../../libdaisy/src/hid/disp/display.h **** 
 404:../../libdaisy/src/hid/disp/display.h ****         // Check remaining space on current line
 405:../../libdaisy/src/hid/disp/display.h ****         if(Width() < (currentX_ + font.FontWidth)
ARM GAS  /tmp/ccoLrWzv.s 			page 35


 406:../../libdaisy/src/hid/disp/display.h ****            || Height() < (currentY_ + font.FontHeight))
 407:../../libdaisy/src/hid/disp/display.h ****         {
 408:../../libdaisy/src/hid/disp/display.h ****             // Not enough space on current line
 409:../../libdaisy/src/hid/disp/display.h ****             return 0;
 410:../../libdaisy/src/hid/disp/display.h ****         }
 411:../../libdaisy/src/hid/disp/display.h **** 
 412:../../libdaisy/src/hid/disp/display.h ****         // Use the font to write
 413:../../libdaisy/src/hid/disp/display.h ****         for(i = 0; i < font.FontHeight; i++)
 414:../../libdaisy/src/hid/disp/display.h ****         {
 415:../../libdaisy/src/hid/disp/display.h ****             b = font.data[(ch - 32) * font.FontHeight + i];
 416:../../libdaisy/src/hid/disp/display.h ****             for(j = 0; j < font.FontWidth; j++)
 417:../../libdaisy/src/hid/disp/display.h ****             {
 418:../../libdaisy/src/hid/disp/display.h ****                 if((b << j) & 0x8000)
 419:../../libdaisy/src/hid/disp/display.h ****                 {
 420:../../libdaisy/src/hid/disp/display.h ****                     ((ChildType*)(this))
 421:../../libdaisy/src/hid/disp/display.h ****                         ->ChildType::DrawPixel(
 422:../../libdaisy/src/hid/disp/display.h ****                             currentX_ + j, (currentY_ + i), on);
 423:../../libdaisy/src/hid/disp/display.h ****                 }
 424:../../libdaisy/src/hid/disp/display.h ****                 else
 425:../../libdaisy/src/hid/disp/display.h ****                 {
 426:../../libdaisy/src/hid/disp/display.h ****                     ((ChildType*)(this))
 427:../../libdaisy/src/hid/disp/display.h ****                         ->ChildType::DrawPixel(
 428:../../libdaisy/src/hid/disp/display.h ****                             currentX_ + j, (currentY_ + i), !on);
 429:../../libdaisy/src/hid/disp/display.h ****                 }
 430:../../libdaisy/src/hid/disp/display.h ****             }
 431:../../libdaisy/src/hid/disp/display.h ****         }
 432:../../libdaisy/src/hid/disp/display.h **** 
 433:../../libdaisy/src/hid/disp/display.h ****         // The current space is now taken
 434:../../libdaisy/src/hid/disp/display.h ****         SetCursor(currentX_ + font.FontWidth, currentY_);
 435:../../libdaisy/src/hid/disp/display.h **** 
 436:../../libdaisy/src/hid/disp/display.h ****         // Return written char for validation
 437:../../libdaisy/src/hid/disp/display.h ****         return ch;
 438:../../libdaisy/src/hid/disp/display.h ****     }
 439:../../libdaisy/src/hid/disp/display.h **** 
 440:../../libdaisy/src/hid/disp/display.h ****     char WriteString(const char* str, FontDef font, bool on) override
 629              		.loc 3 440 10 is_stmt 1 view -0
 630              		.cfi_startproc
 631              		@ args = 4, pretend = 0, frame = 32
 632              		@ frame_needed = 0, uses_anonymous_args = 0
 633              		.loc 3 440 10 is_stmt 0 view .LVU121
 634 0000 2DE9F04F 		push	{r4, r5, r6, r7, r8, r9, r10, fp, lr}
 635              		.cfi_def_cfa_offset 36
 636              		.cfi_offset 4, -36
 637              		.cfi_offset 5, -32
 638              		.cfi_offset 6, -28
 639              		.cfi_offset 7, -24
 640              		.cfi_offset 8, -20
 641              		.cfi_offset 9, -16
 642              		.cfi_offset 10, -12
 643              		.cfi_offset 11, -8
 644              		.cfi_offset 14, -4
 645 0004 89B0     		sub	sp, sp, #36
 646              		.cfi_def_cfa_offset 72
 647              		.loc 3 440 10 view .LVU122
 648 0006 8B46     		mov	fp, r1
 441:../../libdaisy/src/hid/disp/display.h ****     {
 442:../../libdaisy/src/hid/disp/display.h ****         // Write until null-byte
ARM GAS  /tmp/ccoLrWzv.s 			page 36


 443:../../libdaisy/src/hid/disp/display.h ****         while(*str)
 649              		.loc 3 443 9 is_stmt 1 view .LVU123
 650 0008 91F80090 		ldrb	r9, [r1]	@ zero_extendqisi2
 440:../../libdaisy/src/hid/disp/display.h ****     {
 651              		.loc 3 440 10 is_stmt 0 view .LVU124
 652 000c 9DF84840 		ldrb	r4, [sp, #72]	@ zero_extendqisi2
 653 0010 08A9     		add	r1, sp, #32
 654              	.LVL39:
 440:../../libdaisy/src/hid/disp/display.h ****     {
 655              		.loc 3 440 10 view .LVU125
 656 0012 0494     		str	r4, [sp, #16]
 657 0014 01E90C00 		stmdb	r1, {r2, r3}
 658              		.loc 3 443 9 view .LVU126
 659 0018 B9F1000F 		cmp	r9, #0
 660 001c 00F0B780 		beq	.L56
 661 0020 9DF81930 		ldrb	r3, [sp, #25]	@ zero_extendqisi2
 662 0024 8046     		mov	r8, r0
 663 0026 9DF818A0 		ldrb	r10, [sp, #24]	@ zero_extendqisi2
 664 002a 4D46     		mov	r5, r9
 665 002c 0193     		str	r3, [sp, #4]
 666 002e 079B     		ldr	r3, [sp, #28]
 667 0030 0593     		str	r3, [sp, #20]
 668              	.LVL40:
 669              	.L57:
 670              	.LBB726:
 671              	.LBI726:
 396:../../libdaisy/src/hid/disp/display.h ****     {
 672              		.loc 3 396 10 is_stmt 1 view .LVU127
 673              	.LBB727:
 401:../../libdaisy/src/hid/disp/display.h ****             return 0;
 674              		.loc 3 401 20 is_stmt 0 view .LVU128
 675 0032 A5F12004 		sub	r4, r5, #32
 401:../../libdaisy/src/hid/disp/display.h ****             return 0;
 676              		.loc 3 401 9 view .LVU129
 677 0036 E3B2     		uxtb	r3, r4
 678 0038 5E2B     		cmp	r3, #94
 679 003a 00F2AC80 		bhi	.L38
 405:../../libdaisy/src/hid/disp/display.h ****            || Height() < (currentY_ + font.FontHeight))
 680              		.loc 3 405 17 view .LVU130
 681 003e D8F80030 		ldr	r3, [r8]
 682 0042 654A     		ldr	r2, .L78
 683 0044 DB68     		ldr	r3, [r3, #12]
 684 0046 9342     		cmp	r3, r2
 685 0048 40F0A780 		bne	.L71
 686 004c 8020     		movs	r0, #128
 687              	.L37:
 405:../../libdaisy/src/hid/disp/display.h ****            || Height() < (currentY_ + font.FontHeight))
 688              		.loc 3 405 23 view .LVU131
 689 004e B8F80430 		ldrh	r3, [r8, #4]
 405:../../libdaisy/src/hid/disp/display.h ****            || Height() < (currentY_ + font.FontHeight))
 690              		.loc 3 405 33 view .LVU132
 691 0052 5344     		add	r3, r3, r10
 406:../../libdaisy/src/hid/disp/display.h ****         {
 692              		.loc 3 406 12 view .LVU133
 693 0054 8342     		cmp	r3, r0
 694 0056 00F39E80 		bgt	.L38
 406:../../libdaisy/src/hid/disp/display.h ****         {
ARM GAS  /tmp/ccoLrWzv.s 			page 37


 695              		.loc 3 406 21 view .LVU134
 696 005a D8F80030 		ldr	r3, [r8]
 697 005e 5F4A     		ldr	r2, .L78+4
 698 0060 9B68     		ldr	r3, [r3, #8]
 699 0062 9342     		cmp	r3, r2
 700 0064 40F09C80 		bne	.L72
 701 0068 4020     		movs	r0, #64
 702              	.L39:
 406:../../libdaisy/src/hid/disp/display.h ****         {
 703              		.loc 3 406 27 view .LVU135
 704 006a B8F80610 		ldrh	r1, [r8, #6]
 406:../../libdaisy/src/hid/disp/display.h ****         {
 705              		.loc 3 406 37 view .LVU136
 706 006e 019A     		ldr	r2, [sp, #4]
 406:../../libdaisy/src/hid/disp/display.h ****         {
 707              		.loc 3 406 27 view .LVU137
 708 0070 0091     		str	r1, [sp]
 406:../../libdaisy/src/hid/disp/display.h ****         {
 709              		.loc 3 406 37 view .LVU138
 710 0072 8B18     		adds	r3, r1, r2
 406:../../libdaisy/src/hid/disp/display.h ****         {
 711              		.loc 3 406 12 view .LVU139
 712 0074 8342     		cmp	r3, r0
 713 0076 00F38E80 		bgt	.L38
 714              	.LVL41:
 413:../../libdaisy/src/hid/disp/display.h ****         {
 715              		.loc 3 413 22 is_stmt 1 view .LVU140
 716 007a 1046     		mov	r0, r2
 717 007c 002A     		cmp	r2, #0
 718 007e 00F09A80 		beq	.L40
 415:../../libdaisy/src/hid/disp/display.h ****             for(j = 0; j < font.FontWidth; j++)
 719              		.loc 3 415 37 is_stmt 0 view .LVU141
 720 0082 1346     		mov	r3, r2
 721 0084 6FF00046 		mvn	r6, #-2147483648
 722 0088 B8F80470 		ldrh	r7, [r8, #4]
 723 008c 03FB04F3 		mul	r3, r3, r4
 724 0090 059C     		ldr	r4, [sp, #20]
 725 0092 BE46     		mov	lr, r7
 726 0094 CDF80CB0 		str	fp, [sp, #12]
 727 0098 1E44     		add	r6, r6, r3
 728 009a A21E     		subs	r2, r4, #2
 729 009c 0344     		add	r3, r3, r0
 730 009e 5746     		mov	r7, r10
 731 00a0 04EB4606 		add	r6, r4, r6, lsl #1
 732 00a4 DDF81090 		ldr	r9, [sp, #16]
 733 00a8 02EB4303 		add	r3, r2, r3, lsl #1
 734 00ac 0295     		str	r5, [sp, #8]
 735 00ae 9B46     		mov	fp, r3
 736              	.LVL42:
 737              	.L43:
 415:../../libdaisy/src/hid/disp/display.h ****             for(j = 0; j < font.FontWidth; j++)
 738              		.loc 3 415 13 view .LVU142
 739 00b0 36F802AF 		ldrh	r10, [r6, #2]!
 740              	.LVL43:
 416:../../libdaisy/src/hid/disp/display.h ****             {
 741              		.loc 3 416 26 is_stmt 1 view .LVU143
 742 00b4 A7B3     		cbz	r7, .L48
ARM GAS  /tmp/ccoLrWzv.s 			page 38


 743              	.LBB728:
 744              	.LBB729:
 745              	.LBB730:
 746              	.LBB731:
 747              	.LBB732:
 246:../../libdaisy/src/dev/oled_ssd130x.h ****     }
 748              		.loc 14 246 49 is_stmt 0 view .LVU144
 749 00b6 0124     		movs	r4, #1
 246:../../libdaisy/src/dev/oled_ssd130x.h ****     }
 750              		.loc 14 246 55 view .LVU145
 751 00b8 01F00702 		and	r2, r1, #7
 246:../../libdaisy/src/dev/oled_ssd130x.h ****     }
 752              		.loc 14 246 28 view .LVU146
 753 00bc C808     		lsrs	r0, r1, #3
 754 00be 0EF11403 		add	r3, lr, #20
 246:../../libdaisy/src/dev/oled_ssd130x.h ****     }
 755              		.loc 14 246 49 view .LVU147
 756 00c2 04FA02F2 		lsl	r2, r4, r2
 757 00c6 7446     		mov	r4, lr
 758 00c8 03EBC013 		add	r3, r3, r0, lsl #7
 759              	.LBE732:
 760              	.LBE731:
 761              	.LBE730:
 762              	.LBE729:
 763              	.LBE728:
 416:../../libdaisy/src/hid/disp/display.h ****             {
 764              		.loc 3 416 19 view .LVU148
 765 00cc 0020     		movs	r0, #0
 766              	.LBB750:
 767              	.LBB745:
 768              	.LBB740:
 769              	.LBB736:
 770              	.LBB733:
 246:../../libdaisy/src/dev/oled_ssd130x.h ****     }
 771              		.loc 14 246 42 view .LVU149
 772 00ce 52B2     		sxtb	r2, r2
 773 00d0 4344     		add	r3, r3, r8
 774 00d2 6FEA020C 		mvn	ip, r2
 775 00d6 0EE0     		b	.L49
 776              	.LVL44:
 777              	.L73:
 246:../../libdaisy/src/dev/oled_ssd130x.h ****     }
 778              		.loc 14 246 42 view .LVU150
 779              	.LBE733:
 780              	.LBE736:
 781              	.LBE740:
 782              	.LBE745:
 783              	.LBE750:
 784              	.LBB751:
 785              	.LBI751:
  41:../../libdaisy/src/hid/disp/oled_display.h ****     {
 786              		.loc 2 41 10 is_stmt 1 view .LVU151
 787              	.LBB752:
 788              	.LBI752:
 239:../../libdaisy/src/dev/oled_ssd130x.h ****     {
 789              		.loc 14 239 10 view .LVU152
 790              	.LBB753:
ARM GAS  /tmp/ccoLrWzv.s 			page 39


 241:../../libdaisy/src/dev/oled_ssd130x.h ****             return;
 791              		.loc 14 241 9 is_stmt 0 view .LVU153
 792 00d8 7F2C     		cmp	r4, #127
 793 00da 07D8     		bhi	.L45
 794 00dc 3F29     		cmp	r1, #63
 795 00de 05D8     		bhi	.L45
 244:../../libdaisy/src/dev/oled_ssd130x.h ****         else
 796              		.loc 14 244 42 view .LVU154
 797 00e0 1D78     		ldrb	r5, [r3]	@ zero_extendqisi2
 243:../../libdaisy/src/dev/oled_ssd130x.h ****             buffer_[x + (y / 8) * width] |= (1 << (y % 8));
 798              		.loc 14 243 9 view .LVU155
 799 00e2 B9F1000F 		cmp	r9, #0
 800 00e6 12D0     		beq	.L47
 801              	.L70:
 243:../../libdaisy/src/dev/oled_ssd130x.h ****             buffer_[x + (y / 8) * width] |= (1 << (y % 8));
 802              		.loc 14 243 9 view .LVU156
 803              	.LBE753:
 804              	.LBE752:
 805              	.LBE751:
 806              	.LBB754:
 807              	.LBB746:
 808              	.LBB741:
 244:../../libdaisy/src/dev/oled_ssd130x.h ****         else
 809              		.loc 14 244 42 view .LVU157
 810 00e8 1543     		orrs	r5, r5, r2
 244:../../libdaisy/src/dev/oled_ssd130x.h ****         else
 811              		.loc 14 244 13 view .LVU158
 812 00ea 1D70     		strb	r5, [r3]
 813              	.L45:
 814              	.LBE741:
 815              	.LBE746:
 816              	.LBE754:
 416:../../libdaisy/src/hid/disp/display.h ****             {
 817              		.loc 3 416 13 is_stmt 1 view .LVU159
 818 00ec 0130     		adds	r0, r0, #1
 819              	.LVL45:
 416:../../libdaisy/src/hid/disp/display.h ****             {
 820              		.loc 3 416 26 view .LVU160
 821 00ee 0133     		adds	r3, r3, #1
 822 00f0 0134     		adds	r4, r4, #1
 823 00f2 B842     		cmp	r0, r7
 824 00f4 14D0     		beq	.L48
 825              	.LVL46:
 826              	.L49:
 418:../../libdaisy/src/hid/disp/display.h ****                 {
 827              		.loc 3 418 23 is_stmt 0 view .LVU161
 828 00f6 0AFA00F5 		lsl	r5, r10, r0
 418:../../libdaisy/src/hid/disp/display.h ****                 {
 829              		.loc 3 418 17 view .LVU162
 830 00fa 2D04     		lsls	r5, r5, #16
 831 00fc ECD4     		bmi	.L73
 832              	.LVL47:
 833              	.LBB755:
 834              	.LBI728:
  41:../../libdaisy/src/hid/disp/oled_display.h ****     {
 835              		.loc 2 41 10 is_stmt 1 view .LVU163
 836              	.LBB747:
ARM GAS  /tmp/ccoLrWzv.s 			page 40


 837              	.LBI729:
 239:../../libdaisy/src/dev/oled_ssd130x.h ****     {
 838              		.loc 14 239 10 view .LVU164
 839              	.LBB742:
 241:../../libdaisy/src/dev/oled_ssd130x.h ****             return;
 840              		.loc 14 241 9 is_stmt 0 view .LVU165
 841 00fe 7F2C     		cmp	r4, #127
 842 0100 F4D8     		bhi	.L45
 843 0102 3F29     		cmp	r1, #63
 844 0104 F2D8     		bhi	.L45
 244:../../libdaisy/src/dev/oled_ssd130x.h ****         else
 845              		.loc 14 244 42 view .LVU166
 846 0106 1D78     		ldrb	r5, [r3]	@ zero_extendqisi2
 243:../../libdaisy/src/dev/oled_ssd130x.h ****             buffer_[x + (y / 8) * width] |= (1 << (y % 8));
 847              		.loc 14 243 9 view .LVU167
 848 0108 B9F1000F 		cmp	r9, #0
 849 010c ECD0     		beq	.L70
 850              	.L47:
 851              	.LVL48:
 852              	.LBB737:
 853              	.LBI731:
 239:../../libdaisy/src/dev/oled_ssd130x.h ****     {
 854              		.loc 14 239 10 is_stmt 1 view .LVU168
 239:../../libdaisy/src/dev/oled_ssd130x.h ****     {
 855              		.loc 14 239 10 is_stmt 0 view .LVU169
 856              	.LBE737:
 857              	.LBE742:
 858              	.LBE747:
 859              	.LBE755:
 416:../../libdaisy/src/hid/disp/display.h ****             {
 860              		.loc 3 416 13 view .LVU170
 861 010e 0130     		adds	r0, r0, #1
 862              	.LVL49:
 863              	.LBB756:
 864              	.LBB748:
 865              	.LBB743:
 866              	.LBB738:
 867              	.LBB734:
 246:../../libdaisy/src/dev/oled_ssd130x.h ****     }
 868              		.loc 14 246 42 view .LVU171
 869 0110 0CEA0505 		and	r5, ip, r5
 870 0114 0133     		adds	r3, r3, #1
 871 0116 0134     		adds	r4, r4, #1
 872              	.LBE734:
 873              	.LBE738:
 874              	.LBE743:
 875              	.LBE748:
 876              	.LBE756:
 416:../../libdaisy/src/hid/disp/display.h ****             {
 877              		.loc 3 416 26 view .LVU172
 878 0118 B842     		cmp	r0, r7
 879              	.LBB757:
 880              	.LBB749:
 881              	.LBB744:
 882              	.LBB739:
 883              	.LBB735:
 246:../../libdaisy/src/dev/oled_ssd130x.h ****     }
ARM GAS  /tmp/ccoLrWzv.s 			page 41


 884              		.loc 14 246 13 view .LVU173
 885 011a 03F8015C 		strb	r5, [r3, #-1]
 246:../../libdaisy/src/dev/oled_ssd130x.h ****     }
 886              		.loc 14 246 13 view .LVU174
 887              	.LBE735:
 888              	.LBE739:
 889              	.LBE744:
 890              	.LBE749:
 891              	.LBE757:
 416:../../libdaisy/src/hid/disp/display.h ****             {
 892              		.loc 3 416 13 is_stmt 1 view .LVU175
 893              	.LVL50:
 416:../../libdaisy/src/hid/disp/display.h ****             {
 894              		.loc 3 416 26 view .LVU176
 895 011e EAD1     		bne	.L49
 896              	.LVL51:
 897              	.L48:
 413:../../libdaisy/src/hid/disp/display.h ****         {
 898              		.loc 3 413 9 view .LVU177
 413:../../libdaisy/src/hid/disp/display.h ****         {
 899              		.loc 3 413 22 view .LVU178
 900 0120 5E45     		cmp	r6, fp
 901 0122 01F10101 		add	r1, r1, #1
 902 0126 C3D1     		bne	.L43
 903 0128 BA46     		mov	r10, r7
 904              	.LVL52:
 413:../../libdaisy/src/hid/disp/display.h ****         {
 905              		.loc 3 413 22 is_stmt 0 view .LVU179
 906 012a 029D     		ldr	r5, [sp, #8]
 907 012c 7746     		mov	r7, lr
 908 012e DDF80CB0 		ldr	fp, [sp, #12]
 909              	.L42:
 910              	.LBB758:
 911              	.LBB759:
 173:../../libdaisy/src/hid/disp/display.h ****         currentY_ = (y >= Height()) ? Height() - 1 : y;
 912              		.loc 3 173 33 view .LVU180
 913 0132 D8F80020 		ldr	r2, [r8]
 914              	.LBE759:
 915              	.LBE758:
 434:../../libdaisy/src/hid/disp/display.h **** 
 916              		.loc 3 434 18 view .LVU181
 917 0136 5744     		add	r7, r7, r10
 918 0138 2749     		ldr	r1, .L78
 919              	.LBB763:
 920              	.LBB760:
 173:../../libdaisy/src/hid/disp/display.h ****         currentY_ = (y >= Height()) ? Height() - 1 : y;
 921              		.loc 3 173 33 view .LVU182
 922 013a D368     		ldr	r3, [r2, #12]
 923              	.LBE760:
 924              	.LBE763:
 434:../../libdaisy/src/hid/disp/display.h **** 
 925              		.loc 3 434 18 view .LVU183
 926 013c BFB2     		uxth	r7, r7
 927              	.LVL53:
 928              	.LBB764:
 929              	.LBI758:
 171:../../libdaisy/src/hid/disp/display.h ****     {
ARM GAS  /tmp/ccoLrWzv.s 			page 42


 930              		.loc 3 171 10 is_stmt 1 view .LVU184
 931              	.LBB761:
 173:../../libdaisy/src/hid/disp/display.h ****         currentY_ = (y >= Height()) ? Height() - 1 : y;
 932              		.loc 3 173 9 view .LVU185
 933 013e 8B42     		cmp	r3, r1
 934 0140 34D1     		bne	.L74
 173:../../libdaisy/src/hid/disp/display.h ****         currentY_ = (y >= Height()) ? Height() - 1 : y;
 935              		.loc 3 173 33 is_stmt 0 view .LVU186
 936 0142 8020     		movs	r0, #128
 937              	.L50:
 173:../../libdaisy/src/hid/disp/display.h ****         currentY_ = (y >= Height()) ? Height() - 1 : y;
 938              		.loc 3 173 19 view .LVU187
 939 0144 8742     		cmp	r7, r0
 940 0146 04D3     		bcc	.L51
 173:../../libdaisy/src/hid/disp/display.h ****         currentY_ = (y >= Height()) ? Height() - 1 : y;
 941              		.loc 3 173 44 view .LVU188
 942 0148 D368     		ldr	r3, [r2, #12]
 943 014a 2349     		ldr	r1, .L78
 944 014c 8B42     		cmp	r3, r1
 945 014e 3BD1     		bne	.L75
 946 0150 7F27     		movs	r7, #127
 947              	.LVL54:
 948              	.L51:
 174:../../libdaisy/src/hid/disp/display.h ****     }
 949              		.loc 3 174 34 view .LVU189
 950 0152 9368     		ldr	r3, [r2, #8]
 951 0154 214A     		ldr	r2, .L78+4
 173:../../libdaisy/src/hid/disp/display.h ****         currentY_ = (y >= Height()) ? Height() - 1 : y;
 952              		.loc 3 173 19 view .LVU190
 953 0156 A8F80470 		strh	r7, [r8, #4]	@ movhi
 174:../../libdaisy/src/hid/disp/display.h ****     }
 954              		.loc 3 174 9 is_stmt 1 view .LVU191
 955 015a 9342     		cmp	r3, r2
 956 015c 23D1     		bne	.L76
 174:../../libdaisy/src/hid/disp/display.h ****     }
 957              		.loc 3 174 34 is_stmt 0 view .LVU192
 958 015e 4020     		movs	r0, #64
 959              	.L53:
 174:../../libdaisy/src/hid/disp/display.h ****     }
 960              		.loc 3 174 19 view .LVU193
 961 0160 009B     		ldr	r3, [sp]
 962 0162 8342     		cmp	r3, r0
 963 0164 07D3     		bcc	.L54
 174:../../libdaisy/src/hid/disp/display.h ****     }
 964              		.loc 3 174 46 view .LVU194
 965 0166 D8F80030 		ldr	r3, [r8]
 966 016a 1C4A     		ldr	r2, .L78+4
 967 016c 9B68     		ldr	r3, [r3, #8]
 968 016e 9342     		cmp	r3, r2
 969 0170 24D1     		bne	.L77
 970 0172 3F23     		movs	r3, #63
 971 0174 0093     		str	r3, [sp]
 972              	.LVL55:
 973              	.L54:
 174:../../libdaisy/src/hid/disp/display.h ****     }
 974              		.loc 3 174 19 view .LVU195
 975 0176 009B     		ldr	r3, [sp]
ARM GAS  /tmp/ccoLrWzv.s 			page 43


 976 0178 A8F80630 		strh	r3, [r8, #6]	@ movhi
 977              	.LVL56:
 978              	.L36:
 174:../../libdaisy/src/hid/disp/display.h ****     }
 979              		.loc 3 174 19 view .LVU196
 980              	.LBE761:
 981              	.LBE764:
 982              	.LBE727:
 983              	.LBE726:
 444:../../libdaisy/src/hid/disp/display.h ****         {
 445:../../libdaisy/src/hid/disp/display.h ****             if(((ChildType*)(this))->ChildType::WriteChar(*str, font, on)
 446:../../libdaisy/src/hid/disp/display.h ****                != *str)
 984              		.loc 3 446 16 view .LVU197
 985 017c 9BF80000 		ldrb	r0, [fp]	@ zero_extendqisi2
 445:../../libdaisy/src/hid/disp/display.h ****                != *str)
 986              		.loc 3 445 13 view .LVU198
 987 0180 A842     		cmp	r0, r5
 988 0182 05D1     		bne	.L34
 989              	.LVL57:
 443:../../libdaisy/src/hid/disp/display.h ****         {
 990              		.loc 3 443 9 is_stmt 1 view .LVU199
 991 0184 1BF8015F 		ldrb	r5, [fp, #1]!	@ zero_extendqisi2
 992              	.LVL58:
 443:../../libdaisy/src/hid/disp/display.h ****         {
 993              		.loc 3 443 9 is_stmt 0 view .LVU200
 994 0188 002D     		cmp	r5, #0
 995 018a 7FF452AF 		bne	.L57
 996              	.LVL59:
 997              	.L56:
 998              	.LBB768:
 999              	.LBB766:
 402:../../libdaisy/src/hid/disp/display.h **** 
 1000              		.loc 3 402 20 view .LVU201
 1001 018e 0020     		movs	r0, #0
 1002              	.LVL60:
 1003              	.L34:
 402:../../libdaisy/src/hid/disp/display.h **** 
 1004              		.loc 3 402 20 view .LVU202
 1005              	.LBE766:
 1006              	.LBE768:
 447:../../libdaisy/src/hid/disp/display.h ****             {
 448:../../libdaisy/src/hid/disp/display.h ****                 // Char could not be written
 449:../../libdaisy/src/hid/disp/display.h ****                 return *str;
 450:../../libdaisy/src/hid/disp/display.h ****             }
 451:../../libdaisy/src/hid/disp/display.h **** 
 452:../../libdaisy/src/hid/disp/display.h ****             // Next char
 453:../../libdaisy/src/hid/disp/display.h ****             str++;
 454:../../libdaisy/src/hid/disp/display.h ****         }
 455:../../libdaisy/src/hid/disp/display.h **** 
 456:../../libdaisy/src/hid/disp/display.h ****         // Everything ok
 457:../../libdaisy/src/hid/disp/display.h ****         return *str;
 458:../../libdaisy/src/hid/disp/display.h ****     }
 1007              		.loc 3 458 5 view .LVU203
 1008 0190 09B0     		add	sp, sp, #36
 1009              		.cfi_remember_state
 1010              		.cfi_def_cfa_offset 36
 1011              		@ sp needed
ARM GAS  /tmp/ccoLrWzv.s 			page 44


 1012 0192 BDE8F08F 		pop	{r4, r5, r6, r7, r8, r9, r10, fp, pc}
 1013              	.LVL61:
 1014              	.L38:
 1015              		.cfi_restore_state
 1016              	.LBB769:
 1017              	.LBB767:
 402:../../libdaisy/src/hid/disp/display.h **** 
 1018              		.loc 3 402 20 view .LVU204
 1019 0196 0025     		movs	r5, #0
 1020              	.LVL62:
 402:../../libdaisy/src/hid/disp/display.h **** 
 1021              		.loc 3 402 20 view .LVU205
 1022 0198 F0E7     		b	.L36
 1023              	.LVL63:
 1024              	.L71:
 405:../../libdaisy/src/hid/disp/display.h ****            || Height() < (currentY_ + font.FontHeight))
 1025              		.loc 3 405 17 view .LVU206
 1026 019a 4046     		mov	r0, r8
 1027 019c 9847     		blx	r3
 1028              	.LVL64:
 1029 019e 56E7     		b	.L37
 1030              	.L72:
 406:../../libdaisy/src/hid/disp/display.h ****         {
 1031              		.loc 3 406 21 view .LVU207
 1032 01a0 4046     		mov	r0, r8
 1033 01a2 9847     		blx	r3
 1034              	.LVL65:
 1035 01a4 61E7     		b	.L39
 1036              	.LVL66:
 1037              	.L76:
 1038              	.LBB765:
 1039              	.LBB762:
 174:../../libdaisy/src/hid/disp/display.h ****     }
 1040              		.loc 3 174 33 view .LVU208
 1041 01a6 4046     		mov	r0, r8
 1042 01a8 9847     		blx	r3
 1043              	.LVL67:
 1044 01aa D9E7     		b	.L53
 1045              	.LVL68:
 1046              	.L74:
 173:../../libdaisy/src/hid/disp/display.h ****         currentY_ = (y >= Height()) ? Height() - 1 : y;
 1047              		.loc 3 173 32 view .LVU209
 1048 01ac 4046     		mov	r0, r8
 1049 01ae 9847     		blx	r3
 1050              	.LVL69:
 1051 01b0 D8F80020 		ldr	r2, [r8]
 1052 01b4 C6E7     		b	.L50
 1053              	.LVL70:
 1054              	.L40:
 173:../../libdaisy/src/hid/disp/display.h ****         currentY_ = (y >= Height()) ? Height() - 1 : y;
 1055              		.loc 3 173 32 view .LVU210
 1056 01b6 B8F80470 		ldrh	r7, [r8, #4]
 1057 01ba BAE7     		b	.L42
 1058              	.LVL71:
 1059              	.L77:
 174:../../libdaisy/src/hid/disp/display.h ****     }
 1060              		.loc 3 174 45 view .LVU211
ARM GAS  /tmp/ccoLrWzv.s 			page 45


 1061 01bc 4046     		mov	r0, r8
 1062 01be 9847     		blx	r3
 1063              	.LVL72:
 1064 01c0 0138     		subs	r0, r0, #1
 1065 01c2 83B2     		uxth	r3, r0
 1066 01c4 0093     		str	r3, [sp]
 1067              	.LVL73:
 174:../../libdaisy/src/hid/disp/display.h ****     }
 1068              		.loc 3 174 45 view .LVU212
 1069 01c6 D6E7     		b	.L54
 1070              	.LVL74:
 1071              	.L75:
 173:../../libdaisy/src/hid/disp/display.h ****         currentY_ = (y >= Height()) ? Height() - 1 : y;
 1072              		.loc 3 173 43 view .LVU213
 1073 01c8 4046     		mov	r0, r8
 1074 01ca 9847     		blx	r3
 1075              	.LVL75:
 1076 01cc 0138     		subs	r0, r0, #1
 1077 01ce D8F80020 		ldr	r2, [r8]
 1078 01d2 87B2     		uxth	r7, r0
 1079              	.LVL76:
 173:../../libdaisy/src/hid/disp/display.h ****         currentY_ = (y >= Height()) ? Height() - 1 : y;
 1080              		.loc 3 173 43 view .LVU214
 1081 01d4 BDE7     		b	.L51
 1082              	.L79:
 1083 01d6 00BF     		.align	2
 1084              	.L78:
 1085 01d8 00000000 		.word	_ZNK5daisy11OledDisplayINS_13SSD130xDriverILj128ELj64ENS_24SSD130x4WireSpiTransportEEEE5Widt
 1086 01dc 00000000 		.word	_ZNK5daisy11OledDisplayINS_13SSD130xDriverILj128ELj64ENS_24SSD130x4WireSpiTransportEEEE6Heig
 1087              	.LBE762:
 1088              	.LBE765:
 1089              	.LBE767:
 1090              	.LBE769:
 1091              		.cfi_endproc
 1092              	.LFE4554:
 1094              		.section	.text._ZN5daisy25OneBitGraphicsDisplayImplINS_11OledDisplayINS_13SSD130xDriverILj128ELj64
 1095              		.align	1
 1096              		.p2align 2,,3
 1097              		.weak	_ZN5daisy25OneBitGraphicsDisplayImplINS_11OledDisplayINS_13SSD130xDriverILj128ELj64ENS_24SSD
 1098              		.syntax unified
 1099              		.thumb
 1100              		.thumb_func
 1101              		.fpu fpv5-d16
 1103              	_ZN5daisy25OneBitGraphicsDisplayImplINS_11OledDisplayINS_13SSD130xDriverILj128ELj64ENS_24SSD130x4Wi
 1104              	.LVL77:
 1105              	.LFB4685:
 396:../../libdaisy/src/hid/disp/display.h ****     {
 1106              		.loc 3 396 10 is_stmt 1 view -0
 1107              		.cfi_startproc
 1108              		@ args = 4, pretend = 0, frame = 16
 1109              		@ frame_needed = 0, uses_anonymous_args = 0
 396:../../libdaisy/src/hid/disp/display.h ****     {
 1110              		.loc 3 396 10 is_stmt 0 view .LVU216
 1111 0000 2DE9F04F 		push	{r4, r5, r6, r7, r8, r9, r10, fp, lr}
 1112              		.cfi_def_cfa_offset 36
 1113              		.cfi_offset 4, -36
 1114              		.cfi_offset 5, -32
ARM GAS  /tmp/ccoLrWzv.s 			page 46


 1115              		.cfi_offset 6, -28
 1116              		.cfi_offset 7, -24
 1117              		.cfi_offset 8, -20
 1118              		.cfi_offset 9, -16
 1119              		.cfi_offset 10, -12
 1120              		.cfi_offset 11, -8
 1121              		.cfi_offset 14, -4
 1122 0004 85B0     		sub	sp, sp, #20
 1123              		.cfi_def_cfa_offset 56
 1124              	.LVL78:
 401:../../libdaisy/src/hid/disp/display.h ****             return 0;
 1125              		.loc 3 401 20 view .LVU217
 1126 0006 A1F12004 		sub	r4, r1, #32
 396:../../libdaisy/src/hid/disp/display.h ****     {
 1127              		.loc 3 396 10 view .LVU218
 1128 000a 0091     		str	r1, [sp]
 1129 000c 04A9     		add	r1, sp, #16
 1130              	.LVL79:
 396:../../libdaisy/src/hid/disp/display.h ****     {
 1131              		.loc 3 396 10 view .LVU219
 1132 000e 9DF83880 		ldrb	r8, [sp, #56]	@ zero_extendqisi2
 1133 0012 01E90C00 		stmdb	r1, {r2, r3}
 1134              	.LVL80:
 401:../../libdaisy/src/hid/disp/display.h ****             return 0;
 1135              		.loc 3 401 9 view .LVU220
 1136 0016 E3B2     		uxtb	r3, r4
 1137 0018 5E2B     		cmp	r3, #94
 1138 001a 00F29480 		bhi	.L84
 405:../../libdaisy/src/hid/disp/display.h ****            || Height() < (currentY_ + font.FontHeight))
 1139              		.loc 3 405 17 view .LVU221
 1140 001e 0368     		ldr	r3, [r0]
 1141 0020 8146     		mov	r9, r0
 1142 0022 5E4A     		ldr	r2, .L120
 1143 0024 DB68     		ldr	r3, [r3, #12]
 1144 0026 9DF80860 		ldrb	r6, [sp, #8]	@ zero_extendqisi2
 1145 002a 9342     		cmp	r3, r2
 1146 002c 9DF80950 		ldrb	r5, [sp, #9]	@ zero_extendqisi2
 1147 0030 40F09380 		bne	.L111
 1148 0034 8022     		movs	r2, #128
 1149              	.LVL81:
 1150              	.L83:
 405:../../libdaisy/src/hid/disp/display.h ****            || Height() < (currentY_ + font.FontHeight))
 1151              		.loc 3 405 23 view .LVU222
 1152 0036 B9F80430 		ldrh	r3, [r9, #4]
 405:../../libdaisy/src/hid/disp/display.h ****            || Height() < (currentY_ + font.FontHeight))
 1153              		.loc 3 405 33 view .LVU223
 1154 003a 3344     		add	r3, r3, r6
 406:../../libdaisy/src/hid/disp/display.h ****         {
 1155              		.loc 3 406 12 view .LVU224
 1156 003c 9342     		cmp	r3, r2
 1157 003e 00F38280 		bgt	.L84
 406:../../libdaisy/src/hid/disp/display.h ****         {
 1158              		.loc 3 406 21 discriminator 2 view .LVU225
 1159 0042 D9F80030 		ldr	r3, [r9]
 1160 0046 564A     		ldr	r2, .L120+4
 1161 0048 9B68     		ldr	r3, [r3, #8]
 1162 004a 9342     		cmp	r3, r2
ARM GAS  /tmp/ccoLrWzv.s 			page 47


 1163 004c 40F08980 		bne	.L112
 406:../../libdaisy/src/hid/disp/display.h ****         {
 1164              		.loc 3 406 21 view .LVU226
 1165 0050 4023     		movs	r3, #64
 1166              	.L85:
 406:../../libdaisy/src/hid/disp/display.h ****         {
 1167              		.loc 3 406 27 discriminator 2 view .LVU227
 1168 0052 B9F80610 		ldrh	r1, [r9, #6]
 406:../../libdaisy/src/hid/disp/display.h ****         {
 1169              		.loc 3 406 37 discriminator 2 view .LVU228
 1170 0056 4A19     		adds	r2, r1, r5
 406:../../libdaisy/src/hid/disp/display.h ****         {
 1171              		.loc 3 406 27 discriminator 2 view .LVU229
 1172 0058 0191     		str	r1, [sp, #4]
 406:../../libdaisy/src/hid/disp/display.h ****         {
 1173              		.loc 3 406 12 discriminator 2 view .LVU230
 1174 005a 9A42     		cmp	r2, r3
 1175 005c 73DC     		bgt	.L84
 1176              	.LVL82:
 413:../../libdaisy/src/hid/disp/display.h ****         {
 1177              		.loc 3 413 22 is_stmt 1 view .LVU231
 1178 005e 002D     		cmp	r5, #0
 1179 0060 00F08C80 		beq	.L86
 415:../../libdaisy/src/hid/disp/display.h ****             for(j = 0; j < font.FontWidth; j++)
 1180              		.loc 3 415 37 is_stmt 0 view .LVU232
 1181 0064 05FB04F4 		mul	r4, r5, r4
 415:../../libdaisy/src/hid/disp/display.h ****             for(j = 0; j < font.FontWidth; j++)
 1182              		.loc 3 415 22 view .LVU233
 1183 0068 039A     		ldr	r2, [sp, #12]
 1184 006a 6FF00043 		mvn	r3, #-2147483648
 1185 006e B9F804A0 		ldrh	r10, [r9, #4]
 1186 0072 2544     		add	r5, r5, r4
 1187 0074 A2F1020B 		sub	fp, r2, #2
 1188 0078 2344     		add	r3, r3, r4
 1189 007a 0BEB450B 		add	fp, fp, r5, lsl #1
 1190 007e 0D46     		mov	r5, r1
 1191 0080 02EB430E 		add	lr, r2, r3, lsl #1
 1192              	.LVL83:
 1193              	.L89:
 415:../../libdaisy/src/hid/disp/display.h ****             for(j = 0; j < font.FontWidth; j++)
 1194              		.loc 3 415 13 view .LVU234
 1195 0084 3EF8024F 		ldrh	r4, [lr, #2]!
 1196              	.LVL84:
 416:../../libdaisy/src/hid/disp/display.h ****             {
 1197              		.loc 3 416 26 is_stmt 1 view .LVU235
 1198 0088 A6B3     		cbz	r6, .L94
 1199              	.LBB800:
 1200              	.LBB801:
 1201              	.LBB802:
 1202              	.LBB803:
 1203              	.LBB804:
 246:../../libdaisy/src/dev/oled_ssd130x.h ****     }
 1204              		.loc 14 246 55 is_stmt 0 view .LVU236
 1205 008a 05F00703 		and	r3, r5, #7
 246:../../libdaisy/src/dev/oled_ssd130x.h ****     }
 1206              		.loc 14 246 49 view .LVU237
 1207 008e 0127     		movs	r7, #1
ARM GAS  /tmp/ccoLrWzv.s 			page 48


 246:../../libdaisy/src/dev/oled_ssd130x.h ****     }
 1208              		.loc 14 246 28 view .LVU238
 1209 0090 E808     		lsrs	r0, r5, #3
 246:../../libdaisy/src/dev/oled_ssd130x.h ****     }
 1210              		.loc 14 246 42 view .LVU239
 1211 0092 4146     		mov	r1, r8
 246:../../libdaisy/src/dev/oled_ssd130x.h ****     }
 1212              		.loc 14 246 49 view .LVU240
 1213 0094 9F40     		lsls	r7, r7, r3
 1214              	.LBE804:
 1215              	.LBE803:
 1216              	.LBE802:
 1217              	.LBE801:
 1218              	.LBE800:
 416:../../libdaisy/src/hid/disp/display.h ****             {
 1219              		.loc 3 416 19 view .LVU241
 1220 0096 0022     		movs	r2, #0
 1221 0098 0AEBC013 		add	r3, r10, r0, lsl #7
 1222              	.LBB822:
 1223              	.LBB817:
 1224              	.LBB812:
 1225              	.LBB808:
 1226              	.LBB805:
 246:../../libdaisy/src/dev/oled_ssd130x.h ****     }
 1227              		.loc 14 246 42 view .LVU242
 1228 009c 7FB2     		sxtb	r7, r7
 1229 009e 4B44     		add	r3, r3, r9
 1230 00a0 09EBC010 		add	r0, r9, r0, lsl #7
 1231 00a4 6FEA070C 		mvn	ip, r7
 1232 00a8 B846     		mov	r8, r7
 1233 00aa 0F46     		mov	r7, r1
 1234 00ac 0CE0     		b	.L95
 1235              	.LVL85:
 1236              	.L114:
 246:../../libdaisy/src/dev/oled_ssd130x.h ****     }
 1237              		.loc 14 246 42 view .LVU243
 1238              	.LBE805:
 1239              	.LBE808:
 1240              	.LBE812:
 1241              	.LBE817:
 1242              	.LBE822:
 1243              	.LBB823:
 1244              	.LBI823:
  41:../../libdaisy/src/hid/disp/oled_display.h ****     {
 1245              		.loc 2 41 10 is_stmt 1 view .LVU244
 1246              	.LBB824:
 1247              	.LBI824:
 239:../../libdaisy/src/dev/oled_ssd130x.h ****     {
 1248              		.loc 14 239 10 view .LVU245
 1249              	.LBB825:
 241:../../libdaisy/src/dev/oled_ssd130x.h ****             return;
 1250              		.loc 14 241 9 is_stmt 0 view .LVU246
 1251 00ae 7F29     		cmp	r1, #127
 1252 00b0 06D8     		bhi	.L91
 1253 00b2 3F2D     		cmp	r5, #63
 1254 00b4 04D8     		bhi	.L91
 244:../../libdaisy/src/dev/oled_ssd130x.h ****         else
ARM GAS  /tmp/ccoLrWzv.s 			page 49


 1255              		.loc 14 244 42 view .LVU247
 1256 00b6 197D     		ldrb	r1, [r3, #20]	@ zero_extendqisi2
 243:../../libdaisy/src/dev/oled_ssd130x.h ****             buffer_[x + (y / 8) * width] |= (1 << (y % 8));
 1257              		.loc 14 243 9 view .LVU248
 1258 00b8 A7B1     		cbz	r7, .L93
 1259              	.L110:
 243:../../libdaisy/src/dev/oled_ssd130x.h ****             buffer_[x + (y / 8) * width] |= (1 << (y % 8));
 1260              		.loc 14 243 9 view .LVU249
 1261              	.LBE825:
 1262              	.LBE824:
 1263              	.LBE823:
 1264              	.LBB828:
 1265              	.LBB818:
 1266              	.LBB813:
 244:../../libdaisy/src/dev/oled_ssd130x.h ****         else
 1267              		.loc 14 244 42 view .LVU250
 1268 00ba 48EA0101 		orr	r1, r8, r1
 244:../../libdaisy/src/dev/oled_ssd130x.h ****         else
 1269              		.loc 14 244 13 view .LVU251
 1270 00be 1975     		strb	r1, [r3, #20]
 1271              	.L91:
 1272              	.LBE813:
 1273              	.LBE818:
 1274              	.LBE828:
 416:../../libdaisy/src/hid/disp/display.h ****             {
 1275              		.loc 3 416 13 is_stmt 1 discriminator 2 view .LVU252
 1276 00c0 0132     		adds	r2, r2, #1
 1277              	.LVL86:
 416:../../libdaisy/src/hid/disp/display.h ****             {
 1278              		.loc 3 416 26 discriminator 2 view .LVU253
 1279 00c2 0133     		adds	r3, r3, #1
 1280 00c4 9642     		cmp	r6, r2
 1281 00c6 14D0     		beq	.L113
 1282              	.LVL87:
 1283              	.L95:
 418:../../libdaisy/src/hid/disp/display.h ****                 {
 1284              		.loc 3 418 23 is_stmt 0 view .LVU254
 1285 00c8 04FA02F1 		lsl	r1, r4, r2
 418:../../libdaisy/src/hid/disp/display.h ****                 {
 1286              		.loc 3 418 17 view .LVU255
 1287 00cc 11F4004F 		tst	r1, #32768
 1288              	.LBB829:
 1289              	.LBB827:
 1290              	.LBB826:
 241:../../libdaisy/src/dev/oled_ssd130x.h ****             return;
 1291              		.loc 14 241 14 view .LVU256
 1292 00d0 A3EB0001 		sub	r1, r3, r0
 1293              	.LBE826:
 1294              	.LBE827:
 1295              	.LBE829:
 418:../../libdaisy/src/hid/disp/display.h ****                 {
 1296              		.loc 3 418 17 view .LVU257
 1297 00d4 EBD1     		bne	.L114
 1298              	.LVL88:
 1299              	.LBB830:
 1300              	.LBI800:
  41:../../libdaisy/src/hid/disp/oled_display.h ****     {
ARM GAS  /tmp/ccoLrWzv.s 			page 50


 1301              		.loc 2 41 10 is_stmt 1 view .LVU258
 1302              	.LBB819:
 1303              	.LBI801:
 239:../../libdaisy/src/dev/oled_ssd130x.h ****     {
 1304              		.loc 14 239 10 view .LVU259
 1305              	.LBB814:
 241:../../libdaisy/src/dev/oled_ssd130x.h ****             return;
 1306              		.loc 14 241 9 is_stmt 0 view .LVU260
 1307 00d6 7F29     		cmp	r1, #127
 1308 00d8 F2D8     		bhi	.L91
 1309 00da 3F2D     		cmp	r5, #63
 1310 00dc F0D8     		bhi	.L91
 244:../../libdaisy/src/dev/oled_ssd130x.h ****         else
 1311              		.loc 14 244 42 view .LVU261
 1312 00de 197D     		ldrb	r1, [r3, #20]	@ zero_extendqisi2
 243:../../libdaisy/src/dev/oled_ssd130x.h ****             buffer_[x + (y / 8) * width] |= (1 << (y % 8));
 1313              		.loc 14 243 9 view .LVU262
 1314 00e0 002F     		cmp	r7, #0
 1315 00e2 EAD0     		beq	.L110
 1316              	.L93:
 1317              	.LVL89:
 1318              	.LBB809:
 1319              	.LBI803:
 239:../../libdaisy/src/dev/oled_ssd130x.h ****     {
 1320              		.loc 14 239 10 is_stmt 1 view .LVU263
 239:../../libdaisy/src/dev/oled_ssd130x.h ****     {
 1321              		.loc 14 239 10 is_stmt 0 view .LVU264
 1322              	.LBE809:
 1323              	.LBE814:
 1324              	.LBE819:
 1325              	.LBE830:
 416:../../libdaisy/src/hid/disp/display.h ****             {
 1326              		.loc 3 416 13 view .LVU265
 1327 00e4 0132     		adds	r2, r2, #1
 1328              	.LVL90:
 1329              	.LBB831:
 1330              	.LBB820:
 1331              	.LBB815:
 1332              	.LBB810:
 1333              	.LBB806:
 246:../../libdaisy/src/dev/oled_ssd130x.h ****     }
 1334              		.loc 14 246 42 view .LVU266
 1335 00e6 0CEA0101 		and	r1, ip, r1
 1336 00ea 0133     		adds	r3, r3, #1
 1337              	.LBE806:
 1338              	.LBE810:
 1339              	.LBE815:
 1340              	.LBE820:
 1341              	.LBE831:
 416:../../libdaisy/src/hid/disp/display.h ****             {
 1342              		.loc 3 416 26 view .LVU267
 1343 00ec 9642     		cmp	r6, r2
 1344              	.LBB832:
 1345              	.LBB821:
 1346              	.LBB816:
 1347              	.LBB811:
 1348              	.LBB807:
ARM GAS  /tmp/ccoLrWzv.s 			page 51


 246:../../libdaisy/src/dev/oled_ssd130x.h ****     }
 1349              		.loc 14 246 13 view .LVU268
 1350 00ee D974     		strb	r1, [r3, #19]
 246:../../libdaisy/src/dev/oled_ssd130x.h ****     }
 1351              		.loc 14 246 13 view .LVU269
 1352              	.LBE807:
 1353              	.LBE811:
 1354              	.LBE816:
 1355              	.LBE821:
 1356              	.LBE832:
 416:../../libdaisy/src/hid/disp/display.h ****             {
 1357              		.loc 3 416 13 is_stmt 1 view .LVU270
 1358              	.LVL91:
 416:../../libdaisy/src/hid/disp/display.h ****             {
 1359              		.loc 3 416 26 view .LVU271
 1360 00f0 EAD1     		bne	.L95
 1361              	.L113:
 416:../../libdaisy/src/hid/disp/display.h ****             {
 1362              		.loc 3 416 26 is_stmt 0 view .LVU272
 1363 00f2 B846     		mov	r8, r7
 1364              	.LVL92:
 1365              	.L94:
 413:../../libdaisy/src/hid/disp/display.h ****         {
 1366              		.loc 3 413 9 is_stmt 1 view .LVU273
 413:../../libdaisy/src/hid/disp/display.h ****         {
 1367              		.loc 3 413 22 view .LVU274
 1368 00f4 F345     		cmp	fp, lr
 1369 00f6 05F10105 		add	r5, r5, #1
 1370 00fa C3D1     		bne	.L89
 1371              	.LVL93:
 1372              	.L88:
 1373              	.LBB833:
 1374              	.LBB834:
 173:../../libdaisy/src/hid/disp/display.h ****         currentY_ = (y >= Height()) ? Height() - 1 : y;
 1375              		.loc 3 173 33 is_stmt 0 view .LVU275
 1376 00fc D9F80030 		ldr	r3, [r9]
 1377              	.LBE834:
 1378              	.LBE833:
 434:../../libdaisy/src/hid/disp/display.h **** 
 1379              		.loc 3 434 18 view .LVU276
 1380 0100 0AEB0604 		add	r4, r10, r6
 1381 0104 2549     		ldr	r1, .L120
 1382              	.LBB839:
 1383              	.LBB835:
 173:../../libdaisy/src/hid/disp/display.h ****         currentY_ = (y >= Height()) ? Height() - 1 : y;
 1384              		.loc 3 173 33 view .LVU277
 1385 0106 DA68     		ldr	r2, [r3, #12]
 1386              	.LBE835:
 1387              	.LBE839:
 434:../../libdaisy/src/hid/disp/display.h **** 
 1388              		.loc 3 434 18 view .LVU278
 1389 0108 A4B2     		uxth	r4, r4
 1390              	.LVL94:
 1391              	.LBB840:
 1392              	.LBI833:
 171:../../libdaisy/src/hid/disp/display.h ****     {
 1393              		.loc 3 171 10 is_stmt 1 view .LVU279
ARM GAS  /tmp/ccoLrWzv.s 			page 52


 1394              	.LBB836:
 173:../../libdaisy/src/hid/disp/display.h ****         currentY_ = (y >= Height()) ? Height() - 1 : y;
 1395              		.loc 3 173 9 view .LVU280
 1396 010a 8A42     		cmp	r2, r1
 1397 010c 31D1     		bne	.L115
 173:../../libdaisy/src/hid/disp/display.h ****         currentY_ = (y >= Height()) ? Height() - 1 : y;
 1398              		.loc 3 173 33 is_stmt 0 view .LVU281
 1399 010e 8020     		movs	r0, #128
 1400              	.L96:
 173:../../libdaisy/src/hid/disp/display.h ****         currentY_ = (y >= Height()) ? Height() - 1 : y;
 1401              		.loc 3 173 19 view .LVU282
 1402 0110 8442     		cmp	r4, r0
 1403 0112 1CD2     		bcs	.L116
 1404              	.LVL95:
 1405              	.L97:
 174:../../libdaisy/src/hid/disp/display.h ****     }
 1406              		.loc 3 174 34 view .LVU283
 1407 0114 9B68     		ldr	r3, [r3, #8]
 1408 0116 224A     		ldr	r2, .L120+4
 173:../../libdaisy/src/hid/disp/display.h ****         currentY_ = (y >= Height()) ? Height() - 1 : y;
 1409              		.loc 3 173 19 view .LVU284
 1410 0118 A9F80440 		strh	r4, [r9, #4]	@ movhi
 174:../../libdaisy/src/hid/disp/display.h ****     }
 1411              		.loc 3 174 9 is_stmt 1 view .LVU285
 1412 011c 9342     		cmp	r3, r2
 1413 011e 25D1     		bne	.L117
 174:../../libdaisy/src/hid/disp/display.h ****     }
 1414              		.loc 3 174 34 is_stmt 0 view .LVU286
 1415 0120 4020     		movs	r0, #64
 1416              	.L99:
 174:../../libdaisy/src/hid/disp/display.h ****     }
 1417              		.loc 3 174 19 view .LVU287
 1418 0122 019B     		ldr	r3, [sp, #4]
 1419 0124 8342     		cmp	r3, r0
 1420 0126 07D3     		bcc	.L100
 174:../../libdaisy/src/hid/disp/display.h ****     }
 1421              		.loc 3 174 46 view .LVU288
 1422 0128 D9F80030 		ldr	r3, [r9]
 1423 012c 1C4A     		ldr	r2, .L120+4
 1424 012e 9B68     		ldr	r3, [r3, #8]
 1425 0130 9342     		cmp	r3, r2
 1426 0132 2DD1     		bne	.L118
 1427 0134 3F23     		movs	r3, #63
 1428 0136 0193     		str	r3, [sp, #4]
 1429              	.LVL96:
 1430              	.L100:
 174:../../libdaisy/src/hid/disp/display.h ****     }
 1431              		.loc 3 174 19 view .LVU289
 1432 0138 DDE90003 		ldrd	r0, r3, [sp]
 1433 013c A9F80630 		strh	r3, [r9, #6]	@ movhi
 1434              	.LVL97:
 174:../../libdaisy/src/hid/disp/display.h ****     }
 1435              		.loc 3 174 19 view .LVU290
 1436              	.LBE836:
 1437              	.LBE840:
 438:../../libdaisy/src/hid/disp/display.h **** 
 1438              		.loc 3 438 5 view .LVU291
ARM GAS  /tmp/ccoLrWzv.s 			page 53


 1439 0140 05B0     		add	sp, sp, #20
 1440              		.cfi_remember_state
 1441              		.cfi_def_cfa_offset 36
 1442              		@ sp needed
 1443 0142 BDE8F08F 		pop	{r4, r5, r6, r7, r8, r9, r10, fp, pc}
 1444              	.LVL98:
 1445              	.L84:
 1446              		.cfi_restore_state
 402:../../libdaisy/src/hid/disp/display.h **** 
 1447              		.loc 3 402 20 view .LVU292
 1448 0146 0020     		movs	r0, #0
 438:../../libdaisy/src/hid/disp/display.h **** 
 1449              		.loc 3 438 5 view .LVU293
 1450 0148 05B0     		add	sp, sp, #20
 1451              		.cfi_remember_state
 1452              		.cfi_def_cfa_offset 36
 1453              		@ sp needed
 1454 014a BDE8F08F 		pop	{r4, r5, r6, r7, r8, r9, r10, fp, pc}
 1455              	.LVL99:
 1456              	.L116:
 1457              		.cfi_restore_state
 1458              	.LBB841:
 1459              	.LBB837:
 173:../../libdaisy/src/hid/disp/display.h ****         currentY_ = (y >= Height()) ? Height() - 1 : y;
 1460              		.loc 3 173 44 view .LVU294
 1461 014e DA68     		ldr	r2, [r3, #12]
 1462 0150 1249     		ldr	r1, .L120
 1463 0152 8A42     		cmp	r2, r1
 1464 0154 15D1     		bne	.L119
 1465 0156 7F24     		movs	r4, #127
 1466              	.LVL100:
 173:../../libdaisy/src/hid/disp/display.h ****         currentY_ = (y >= Height()) ? Height() - 1 : y;
 1467              		.loc 3 173 44 view .LVU295
 1468 0158 DCE7     		b	.L97
 1469              	.LVL101:
 1470              	.L111:
 173:../../libdaisy/src/hid/disp/display.h ****         currentY_ = (y >= Height()) ? Height() - 1 : y;
 1471              		.loc 3 173 44 view .LVU296
 1472              	.LBE837:
 1473              	.LBE841:
 405:../../libdaisy/src/hid/disp/display.h ****            || Height() < (currentY_ + font.FontHeight))
 1474              		.loc 3 405 17 view .LVU297
 1475 015a 9847     		blx	r3
 1476              	.LVL102:
 405:../../libdaisy/src/hid/disp/display.h ****            || Height() < (currentY_ + font.FontHeight))
 1477              		.loc 3 405 17 view .LVU298
 1478 015c 0246     		mov	r2, r0
 1479 015e 0190     		str	r0, [sp, #4]
 1480 0160 69E7     		b	.L83
 1481              	.L112:
 406:../../libdaisy/src/hid/disp/display.h ****         {
 1482              		.loc 3 406 21 discriminator 2 view .LVU299
 1483 0162 4846     		mov	r0, r9
 1484 0164 9847     		blx	r3
 1485              	.LVL103:
 1486 0166 0346     		mov	r3, r0
 1487 0168 0190     		str	r0, [sp, #4]
ARM GAS  /tmp/ccoLrWzv.s 			page 54


 1488 016a 72E7     		b	.L85
 1489              	.LVL104:
 1490              	.L117:
 1491              	.LBB842:
 1492              	.LBB838:
 174:../../libdaisy/src/hid/disp/display.h ****     }
 1493              		.loc 3 174 33 view .LVU300
 1494 016c 4846     		mov	r0, r9
 1495 016e 9847     		blx	r3
 1496              	.LVL105:
 1497 0170 D7E7     		b	.L99
 1498              	.LVL106:
 1499              	.L115:
 173:../../libdaisy/src/hid/disp/display.h ****         currentY_ = (y >= Height()) ? Height() - 1 : y;
 1500              		.loc 3 173 32 view .LVU301
 1501 0172 4846     		mov	r0, r9
 1502 0174 9047     		blx	r2
 1503              	.LVL107:
 1504 0176 D9F80030 		ldr	r3, [r9]
 1505 017a C9E7     		b	.L96
 1506              	.LVL108:
 1507              	.L86:
 173:../../libdaisy/src/hid/disp/display.h ****         currentY_ = (y >= Height()) ? Height() - 1 : y;
 1508              		.loc 3 173 32 view .LVU302
 1509 017c B9F804A0 		ldrh	r10, [r9, #4]
 1510 0180 BCE7     		b	.L88
 1511              	.LVL109:
 1512              	.L119:
 173:../../libdaisy/src/hid/disp/display.h ****         currentY_ = (y >= Height()) ? Height() - 1 : y;
 1513              		.loc 3 173 43 view .LVU303
 1514 0182 4846     		mov	r0, r9
 1515 0184 9047     		blx	r2
 1516              	.LVL110:
 1517 0186 0138     		subs	r0, r0, #1
 1518 0188 D9F80030 		ldr	r3, [r9]
 1519 018c 84B2     		uxth	r4, r0
 1520              	.LVL111:
 173:../../libdaisy/src/hid/disp/display.h ****         currentY_ = (y >= Height()) ? Height() - 1 : y;
 1521              		.loc 3 173 43 view .LVU304
 1522 018e C1E7     		b	.L97
 1523              	.L118:
 174:../../libdaisy/src/hid/disp/display.h ****     }
 1524              		.loc 3 174 45 view .LVU305
 1525 0190 4846     		mov	r0, r9
 1526 0192 9847     		blx	r3
 1527              	.LVL112:
 1528 0194 0138     		subs	r0, r0, #1
 1529 0196 83B2     		uxth	r3, r0
 1530 0198 0193     		str	r3, [sp, #4]
 1531              	.LVL113:
 174:../../libdaisy/src/hid/disp/display.h ****     }
 1532              		.loc 3 174 45 view .LVU306
 1533 019a CDE7     		b	.L100
 1534              	.L121:
 1535              		.align	2
 1536              	.L120:
 1537 019c 00000000 		.word	_ZNK5daisy11OledDisplayINS_13SSD130xDriverILj128ELj64ENS_24SSD130x4WireSpiTransportEEEE5Widt
ARM GAS  /tmp/ccoLrWzv.s 			page 55


 1538 01a0 00000000 		.word	_ZNK5daisy11OledDisplayINS_13SSD130xDriverILj128ELj64ENS_24SSD130x4WireSpiTransportEEEE6Heig
 1539              	.LBE838:
 1540              	.LBE842:
 1541              		.cfi_endproc
 1542              	.LFE4685:
 1544              		.section	.text._ZN5daisy25OneBitGraphicsDisplayImplINS_11OledDisplayINS_13SSD130xDriverILj128ELj64
 1545              		.align	1
 1546              		.p2align 2,,3
 1547              		.weak	_ZN5daisy25OneBitGraphicsDisplayImplINS_11OledDisplayINS_13SSD130xDriverILj128ELj64ENS_24SSD
 1548              		.syntax unified
 1549              		.thumb
 1550              		.thumb_func
 1551              		.fpu fpv5-d16
 1553              	_ZN5daisy25OneBitGraphicsDisplayImplINS_11OledDisplayINS_13SSD130xDriverILj128ELj64ENS_24SSD130x4Wi
 1554              	.LVL114:
 1555              	.LFB4837:
 459:../../libdaisy/src/hid/disp/display.h **** 
 460:../../libdaisy/src/hid/disp/display.h ****     Rectangle WriteStringAligned(const char*    str,
 1556              		.loc 3 460 15 is_stmt 1 view -0
 1557              		.cfi_startproc
 1558              		@ args = 12, pretend = 0, frame = 40
 1559              		@ frame_needed = 0, uses_anonymous_args = 0
 1560              		.loc 3 460 15 is_stmt 0 view .LVU308
 1561 0000 2DE9F04F 		push	{r4, r5, r6, r7, r8, r9, r10, fp, lr}
 1562              		.cfi_def_cfa_offset 36
 1563              		.cfi_offset 4, -36
 1564              		.cfi_offset 5, -32
 1565              		.cfi_offset 6, -28
 1566              		.cfi_offset 7, -24
 1567              		.cfi_offset 8, -20
 1568              		.cfi_offset 9, -16
 1569              		.cfi_offset 10, -12
 1570              		.cfi_offset 11, -8
 1571              		.cfi_offset 14, -4
 1572 0004 0C46     		mov	r4, r1
 1573 0006 8BB0     		sub	sp, sp, #44
 1574              		.cfi_def_cfa_offset 80
 1575              	.LBB977:
 1576              	.LBB978:
 1577              	.LBB979:
 1578              	.LBB980:
 461:../../libdaisy/src/hid/disp/display.h ****                                  const FontDef& font,
 462:../../libdaisy/src/hid/disp/display.h ****                                  Rectangle      boundingBox,
 463:../../libdaisy/src/hid/disp/display.h ****                                  Alignment      alignment,
 464:../../libdaisy/src/hid/disp/display.h ****                                  bool           on) override
 465:../../libdaisy/src/hid/disp/display.h ****     {
 466:../../libdaisy/src/hid/disp/display.h ****         const auto alignedRect
 467:../../libdaisy/src/hid/disp/display.h ****             = GetTextRect(str, font).AlignedWithin(boundingBox, alignment);
 468:../../libdaisy/src/hid/disp/display.h ****         SetCursor(alignedRect.GetX(), alignedRect.GetY());
 469:../../libdaisy/src/hid/disp/display.h ****         ((ChildType*)(this))->ChildType::WriteString(str, font, on);
 470:../../libdaisy/src/hid/disp/display.h ****         return alignedRect;
 471:../../libdaisy/src/hid/disp/display.h ****     }
 472:../../libdaisy/src/hid/disp/display.h **** 
 473:../../libdaisy/src/hid/disp/display.h ****   private:
 474:../../libdaisy/src/hid/disp/display.h ****     uint32_t strlen(const char* string)
 475:../../libdaisy/src/hid/disp/display.h ****     {
 476:../../libdaisy/src/hid/disp/display.h ****         uint32_t result = 0;
ARM GAS  /tmp/ccoLrWzv.s 			page 56


 477:../../libdaisy/src/hid/disp/display.h ****         while(*string++ != '\0')
 1579              		.loc 3 477 25 view .LVU309
 1580 0008 1146     		mov	r1, r2
 1581              	.LVL115:
 1582              		.loc 3 477 25 view .LVU310
 1583              	.LBE980:
 1584              	.LBE979:
 1585              	.LBE978:
 1586              	.LBE977:
 460:../../libdaisy/src/hid/disp/display.h ****                                  const FontDef& font,
 1587              		.loc 3 460 15 view .LVU311
 1588 000a 9046     		mov	r8, r2
 1589 000c 0990     		str	r0, [sp, #36]
 1590 000e 1D46     		mov	r5, r3
 1591              	.LVL116:
 1592              	.LBB995:
 1593              	.LBI977:
 478:../../libdaisy/src/hid/disp/display.h ****             result++;
 479:../../libdaisy/src/hid/disp/display.h ****         return result;
 480:../../libdaisy/src/hid/disp/display.h ****     }
 481:../../libdaisy/src/hid/disp/display.h **** 
 482:../../libdaisy/src/hid/disp/display.h ****     Rectangle GetTextRect(const char* text, const FontDef& font)
 1594              		.loc 3 482 15 is_stmt 1 view .LVU312
 1595              	.LBB991:
 1596              	.LBB984:
 1597              	.LBB981:
 477:../../libdaisy/src/hid/disp/display.h ****             result++;
 1598              		.loc 3 477 25 view .LVU313
 477:../../libdaisy/src/hid/disp/display.h ****             result++;
 1599              		.loc 3 477 25 is_stmt 0 view .LVU314
 1600              	.LBE981:
 1601              	.LBE984:
 1602              	.LBE991:
 1603              	.LBE995:
 460:../../libdaisy/src/hid/disp/display.h ****                                  const FontDef& font,
 1604              		.loc 3 460 15 view .LVU315
 1605 0010 9DF85800 		ldrb	r0, [sp, #88]	@ zero_extendqisi2
 1606              	.LVL117:
 1607              	.LBB996:
 1608              	.LBB992:
 1609              	.LBB985:
 1610              	.LBB982:
 477:../../libdaisy/src/hid/disp/display.h ****             result++;
 1611              		.loc 3 477 25 view .LVU316
 1612 0014 11F8012B 		ldrb	r2, [r1], #1	@ zero_extendqisi2
 1613              	.LVL118:
 477:../../libdaisy/src/hid/disp/display.h ****             result++;
 1614              		.loc 3 477 25 view .LVU317
 1615              	.LBE982:
 1616              	.LBE985:
 1617              	.LBE992:
 1618              	.LBE996:
 460:../../libdaisy/src/hid/disp/display.h ****                                  const FontDef& font,
 1619              		.loc 3 460 15 view .LVU318
 1620 0018 0890     		str	r0, [sp, #32]
 1621 001a DDE91463 		ldrd	r6, r3, [sp, #80]
 1622              	.LVL119:
ARM GAS  /tmp/ccoLrWzv.s 			page 57


 1623              	.LBB997:
 1624              	.LBB993:
 1625              	.LBB986:
 1626              	.LBB983:
 477:../../libdaisy/src/hid/disp/display.h ****             result++;
 1627              		.loc 3 477 25 view .LVU319
 1628 001e 32B1     		cbz	r2, .L123
 476:../../libdaisy/src/hid/disp/display.h ****         while(*string++ != '\0')
 1629              		.loc 3 476 18 view .LVU320
 1630 0020 0022     		movs	r2, #0
 1631              	.LVL120:
 1632              	.L124:
 477:../../libdaisy/src/hid/disp/display.h ****             result++;
 1633              		.loc 3 477 25 view .LVU321
 1634 0022 11F8010B 		ldrb	r0, [r1], #1	@ zero_extendqisi2
 1635              	.LVL121:
 478:../../libdaisy/src/hid/disp/display.h ****             result++;
 1636              		.loc 3 478 13 view .LVU322
 1637 0026 0132     		adds	r2, r2, #1
 1638              	.LVL122:
 477:../../libdaisy/src/hid/disp/display.h ****             result++;
 1639              		.loc 3 477 25 is_stmt 1 view .LVU323
 1640 0028 0028     		cmp	r0, #0
 1641 002a FAD1     		bne	.L124
 1642 002c 92B2     		uxth	r2, r2
 1643              	.LVL123:
 1644              	.L123:
 477:../../libdaisy/src/hid/disp/display.h ****             result++;
 1645              		.loc 3 477 25 is_stmt 0 view .LVU324
 1646              	.LBE983:
 1647              	.LBE986:
 483:../../libdaisy/src/hid/disp/display.h ****     {
 484:../../libdaisy/src/hid/disp/display.h ****         const auto numChars = strlen(text);
 485:../../libdaisy/src/hid/disp/display.h ****         return {int16_t(numChars * font.FontWidth), font.FontHeight};
 1648              		.loc 3 485 68 view .LVU325
 1649 002e 2978     		ldrb	r1, [r5]	@ zero_extendqisi2
 1650              		.loc 3 485 58 view .LVU326
 1651 0030 6878     		ldrb	r0, [r5, #1]	@ zero_extendqisi2
 1652              		.loc 3 485 68 view .LVU327
 1653 0032 11FB02F2 		smulbb	r2, r1, r2
 1654 0036 01B2     		sxth	r1, r0
 1655              	.LVL124:
 1656              	.LBB987:
 1657              	.LBI987:
 1658              		.file 16 "../../libdaisy/src/hid/disp/graphics_common.h"
   1:../../libdaisy/src/hid/disp/graphics_common.h **** #pragma once
   2:../../libdaisy/src/hid/disp/graphics_common.h **** 
   3:../../libdaisy/src/hid/disp/graphics_common.h **** #include <cstdint>
   4:../../libdaisy/src/hid/disp/graphics_common.h **** 
   5:../../libdaisy/src/hid/disp/graphics_common.h **** namespace daisy
   6:../../libdaisy/src/hid/disp/graphics_common.h **** {
   7:../../libdaisy/src/hid/disp/graphics_common.h **** /** Justifications */
   8:../../libdaisy/src/hid/disp/graphics_common.h **** enum class Alignment
   9:../../libdaisy/src/hid/disp/graphics_common.h **** {
  10:../../libdaisy/src/hid/disp/graphics_common.h ****     centered,
  11:../../libdaisy/src/hid/disp/graphics_common.h ****     topLeft,
  12:../../libdaisy/src/hid/disp/graphics_common.h ****     topCentered,
ARM GAS  /tmp/ccoLrWzv.s 			page 58


  13:../../libdaisy/src/hid/disp/graphics_common.h ****     topRight,
  14:../../libdaisy/src/hid/disp/graphics_common.h ****     bottomLeft,
  15:../../libdaisy/src/hid/disp/graphics_common.h ****     bottomCentered,
  16:../../libdaisy/src/hid/disp/graphics_common.h ****     bottomRight,
  17:../../libdaisy/src/hid/disp/graphics_common.h ****     centeredLeft,
  18:../../libdaisy/src/hid/disp/graphics_common.h ****     centeredRight
  19:../../libdaisy/src/hid/disp/graphics_common.h **** };
  20:../../libdaisy/src/hid/disp/graphics_common.h **** 
  21:../../libdaisy/src/hid/disp/graphics_common.h **** class Rectangle
  22:../../libdaisy/src/hid/disp/graphics_common.h **** {
  23:../../libdaisy/src/hid/disp/graphics_common.h ****   public:
  24:../../libdaisy/src/hid/disp/graphics_common.h ****     Rectangle() : x_(0), y_(0), width_(0), height_(0) {}
  25:../../libdaisy/src/hid/disp/graphics_common.h **** 
  26:../../libdaisy/src/hid/disp/graphics_common.h ****     Rectangle(int16_t width, int16_t height)
 1659              		.loc 16 26 5 is_stmt 1 view .LVU328
 1660              	.LBB988:
 1661              	.LBI988:
  27:../../libdaisy/src/hid/disp/graphics_common.h ****     : x_(0), y_(0), width_(max(0, width)), height_(max(0, height))
  28:../../libdaisy/src/hid/disp/graphics_common.h ****     {
  29:../../libdaisy/src/hid/disp/graphics_common.h ****     }
  30:../../libdaisy/src/hid/disp/graphics_common.h **** 
  31:../../libdaisy/src/hid/disp/graphics_common.h ****     Rectangle(int16_t x, int16_t y, int16_t width, int16_t height)
  32:../../libdaisy/src/hid/disp/graphics_common.h ****     : x_(x), y_(y), width_(max(0, width)), height_(max(0, height))
  33:../../libdaisy/src/hid/disp/graphics_common.h ****     {
  34:../../libdaisy/src/hid/disp/graphics_common.h ****     }
  35:../../libdaisy/src/hid/disp/graphics_common.h **** 
  36:../../libdaisy/src/hid/disp/graphics_common.h ****     Rectangle(const Rectangle& other) { *this = other; }
  37:../../libdaisy/src/hid/disp/graphics_common.h **** 
  38:../../libdaisy/src/hid/disp/graphics_common.h ****     Rectangle& operator=(const Rectangle& other)
  39:../../libdaisy/src/hid/disp/graphics_common.h ****     {
  40:../../libdaisy/src/hid/disp/graphics_common.h ****         x_      = other.x_;
  41:../../libdaisy/src/hid/disp/graphics_common.h ****         y_      = other.y_;
  42:../../libdaisy/src/hid/disp/graphics_common.h ****         width_  = other.width_;
  43:../../libdaisy/src/hid/disp/graphics_common.h ****         height_ = other.height_;
  44:../../libdaisy/src/hid/disp/graphics_common.h ****         return *this;
  45:../../libdaisy/src/hid/disp/graphics_common.h ****     }
  46:../../libdaisy/src/hid/disp/graphics_common.h **** 
  47:../../libdaisy/src/hid/disp/graphics_common.h ****     bool operator==(const Rectangle& other) const
  48:../../libdaisy/src/hid/disp/graphics_common.h ****     {
  49:../../libdaisy/src/hid/disp/graphics_common.h ****         return (x_ == other.x_) && (y_ == other.y_) && (width_ == other.width_)
  50:../../libdaisy/src/hid/disp/graphics_common.h ****                && (height_ == other.height_);
  51:../../libdaisy/src/hid/disp/graphics_common.h ****     }
  52:../../libdaisy/src/hid/disp/graphics_common.h ****     bool operator!=(const Rectangle& other) const { return !(*this == other); }
  53:../../libdaisy/src/hid/disp/graphics_common.h **** 
  54:../../libdaisy/src/hid/disp/graphics_common.h ****     bool IsEmpty() const { return (width_ <= 0) || (height_ <= 0); }
  55:../../libdaisy/src/hid/disp/graphics_common.h **** 
  56:../../libdaisy/src/hid/disp/graphics_common.h ****     int16_t GetX() const { return x_; }
  57:../../libdaisy/src/hid/disp/graphics_common.h ****     int16_t GetY() const { return y_; }
  58:../../libdaisy/src/hid/disp/graphics_common.h ****     int16_t GetWidth() const { return width_; }
  59:../../libdaisy/src/hid/disp/graphics_common.h ****     int16_t GetHeight() const { return height_; }
  60:../../libdaisy/src/hid/disp/graphics_common.h ****     int16_t GetRight() const { return x_ + width_; }
  61:../../libdaisy/src/hid/disp/graphics_common.h ****     int16_t GetBottom() const { return y_ + height_; }
  62:../../libdaisy/src/hid/disp/graphics_common.h ****     int16_t GetCenterX() const { return x_ + width_ / 2; }
  63:../../libdaisy/src/hid/disp/graphics_common.h ****     int16_t GetCenterY() const { return y_ + height_ / 2; }
  64:../../libdaisy/src/hid/disp/graphics_common.h **** 
  65:../../libdaisy/src/hid/disp/graphics_common.h ****     Rectangle WithX(int16_t x) const { return {x, y_, width_, height_}; }
  66:../../libdaisy/src/hid/disp/graphics_common.h ****     Rectangle WithY(int16_t y) const { return {x_, y, width_, height_}; }
ARM GAS  /tmp/ccoLrWzv.s 			page 59


  67:../../libdaisy/src/hid/disp/graphics_common.h ****     Rectangle WithWidth(int16_t width) const
  68:../../libdaisy/src/hid/disp/graphics_common.h ****     {
  69:../../libdaisy/src/hid/disp/graphics_common.h ****         return {x_, y_, width, height_};
  70:../../libdaisy/src/hid/disp/graphics_common.h ****     }
  71:../../libdaisy/src/hid/disp/graphics_common.h ****     Rectangle WithHeight(int16_t height) const
  72:../../libdaisy/src/hid/disp/graphics_common.h ****     {
  73:../../libdaisy/src/hid/disp/graphics_common.h ****         return {x_, y_, width_, height};
  74:../../libdaisy/src/hid/disp/graphics_common.h ****     }
  75:../../libdaisy/src/hid/disp/graphics_common.h ****     Rectangle WithSize(int16_t width, int16_t height) const
  76:../../libdaisy/src/hid/disp/graphics_common.h ****     {
  77:../../libdaisy/src/hid/disp/graphics_common.h ****         return {x_, y_, width, height};
  78:../../libdaisy/src/hid/disp/graphics_common.h ****     }
  79:../../libdaisy/src/hid/disp/graphics_common.h ****     Rectangle WithWidthKeepingCenter(int16_t width) const
  80:../../libdaisy/src/hid/disp/graphics_common.h ****     {
  81:../../libdaisy/src/hid/disp/graphics_common.h ****         return Rectangle(x_, y_, width, height_)
  82:../../libdaisy/src/hid/disp/graphics_common.h ****             .WithCenter(GetCenterX(), GetCenterY());
  83:../../libdaisy/src/hid/disp/graphics_common.h ****     }
  84:../../libdaisy/src/hid/disp/graphics_common.h ****     Rectangle WithHeightKeepingCenter(int16_t height) const
  85:../../libdaisy/src/hid/disp/graphics_common.h ****     {
  86:../../libdaisy/src/hid/disp/graphics_common.h ****         return Rectangle(x_, y_, width_, height)
  87:../../libdaisy/src/hid/disp/graphics_common.h ****             .WithCenter(GetCenterX(), GetCenterY());
  88:../../libdaisy/src/hid/disp/graphics_common.h ****     }
  89:../../libdaisy/src/hid/disp/graphics_common.h ****     Rectangle WithSizeKeepingCenter(int16_t width, int16_t height) const
  90:../../libdaisy/src/hid/disp/graphics_common.h ****     {
  91:../../libdaisy/src/hid/disp/graphics_common.h ****         return Rectangle(x_, y_, width, height)
  92:../../libdaisy/src/hid/disp/graphics_common.h ****             .WithCenter(GetCenterX(), GetCenterY());
  93:../../libdaisy/src/hid/disp/graphics_common.h ****     }
  94:../../libdaisy/src/hid/disp/graphics_common.h **** 
  95:../../libdaisy/src/hid/disp/graphics_common.h ****     Rectangle Reduced(int16_t sizeToReduce) const
  96:../../libdaisy/src/hid/disp/graphics_common.h ****     {
  97:../../libdaisy/src/hid/disp/graphics_common.h ****         return {int16_t(x_ + sizeToReduce),
  98:../../libdaisy/src/hid/disp/graphics_common.h ****                 int16_t(y_ + sizeToReduce),
  99:../../libdaisy/src/hid/disp/graphics_common.h ****                 int16_t(width_ - 2 * sizeToReduce),
 100:../../libdaisy/src/hid/disp/graphics_common.h ****                 int16_t(height_ - 2 * sizeToReduce)};
 101:../../libdaisy/src/hid/disp/graphics_common.h ****     }
 102:../../libdaisy/src/hid/disp/graphics_common.h ****     Rectangle Reduced(int16_t xToReduce, int16_t yToReduce) const
 103:../../libdaisy/src/hid/disp/graphics_common.h ****     {
 104:../../libdaisy/src/hid/disp/graphics_common.h ****         return {int16_t(x_ + xToReduce),
 105:../../libdaisy/src/hid/disp/graphics_common.h ****                 int16_t(y_ + yToReduce),
 106:../../libdaisy/src/hid/disp/graphics_common.h ****                 int16_t(width_ - 2 * xToReduce),
 107:../../libdaisy/src/hid/disp/graphics_common.h ****                 int16_t(height_ - 2 * yToReduce)};
 108:../../libdaisy/src/hid/disp/graphics_common.h ****     }
 109:../../libdaisy/src/hid/disp/graphics_common.h **** 
 110:../../libdaisy/src/hid/disp/graphics_common.h ****     Rectangle Translated(int16_t x, int16_t y) const
 111:../../libdaisy/src/hid/disp/graphics_common.h ****     {
 112:../../libdaisy/src/hid/disp/graphics_common.h ****         return {int16_t(x_ + x), int16_t(y_ + y), width_, height_};
 113:../../libdaisy/src/hid/disp/graphics_common.h ****     }
 114:../../libdaisy/src/hid/disp/graphics_common.h **** 
 115:../../libdaisy/src/hid/disp/graphics_common.h ****     Rectangle WithLeft(int16_t left) const
 116:../../libdaisy/src/hid/disp/graphics_common.h ****     {
 117:../../libdaisy/src/hid/disp/graphics_common.h ****         const auto newWidth = int16_t((x_ - left) + width_);
 118:../../libdaisy/src/hid/disp/graphics_common.h ****         return {left, y_, newWidth, height_};
 119:../../libdaisy/src/hid/disp/graphics_common.h ****     }
 120:../../libdaisy/src/hid/disp/graphics_common.h **** 
 121:../../libdaisy/src/hid/disp/graphics_common.h ****     Rectangle WithRight(int16_t right) const
 122:../../libdaisy/src/hid/disp/graphics_common.h ****     {
 123:../../libdaisy/src/hid/disp/graphics_common.h ****         const auto newWidth = int16_t(right - x_);
ARM GAS  /tmp/ccoLrWzv.s 			page 60


 124:../../libdaisy/src/hid/disp/graphics_common.h ****         return {x_, y_, newWidth, height_};
 125:../../libdaisy/src/hid/disp/graphics_common.h ****     }
 126:../../libdaisy/src/hid/disp/graphics_common.h **** 
 127:../../libdaisy/src/hid/disp/graphics_common.h ****     Rectangle WithTop(int16_t top) const
 128:../../libdaisy/src/hid/disp/graphics_common.h ****     {
 129:../../libdaisy/src/hid/disp/graphics_common.h ****         const auto newHeight = int16_t((y_ - top) + height_);
 130:../../libdaisy/src/hid/disp/graphics_common.h ****         return {x_, top, width_, newHeight};
 131:../../libdaisy/src/hid/disp/graphics_common.h ****     }
 132:../../libdaisy/src/hid/disp/graphics_common.h **** 
 133:../../libdaisy/src/hid/disp/graphics_common.h ****     Rectangle WithBottom(int16_t bottom) const
 134:../../libdaisy/src/hid/disp/graphics_common.h ****     {
 135:../../libdaisy/src/hid/disp/graphics_common.h ****         const auto newHeight = int16_t(bottom - y_);
 136:../../libdaisy/src/hid/disp/graphics_common.h ****         return {x_, y_, width_, newHeight};
 137:../../libdaisy/src/hid/disp/graphics_common.h ****     }
 138:../../libdaisy/src/hid/disp/graphics_common.h **** 
 139:../../libdaisy/src/hid/disp/graphics_common.h ****     Rectangle WithTrimmedLeft(int16_t pxToTrim) const
 140:../../libdaisy/src/hid/disp/graphics_common.h ****     {
 141:../../libdaisy/src/hid/disp/graphics_common.h ****         return {
 142:../../libdaisy/src/hid/disp/graphics_common.h ****             int16_t(x_ + pxToTrim), y_, int16_t(width_ - pxToTrim), height_};
 143:../../libdaisy/src/hid/disp/graphics_common.h ****     }
 144:../../libdaisy/src/hid/disp/graphics_common.h **** 
 145:../../libdaisy/src/hid/disp/graphics_common.h ****     Rectangle WithTrimmedRight(int16_t pxToTrim) const
 146:../../libdaisy/src/hid/disp/graphics_common.h ****     {
 147:../../libdaisy/src/hid/disp/graphics_common.h ****         return {x_, y_, int16_t(width_ - pxToTrim), height_};
 148:../../libdaisy/src/hid/disp/graphics_common.h ****     }
 149:../../libdaisy/src/hid/disp/graphics_common.h **** 
 150:../../libdaisy/src/hid/disp/graphics_common.h ****     Rectangle WithTrimmedTop(int16_t pxToTrim) const
 151:../../libdaisy/src/hid/disp/graphics_common.h ****     {
 152:../../libdaisy/src/hid/disp/graphics_common.h ****         return {
 153:../../libdaisy/src/hid/disp/graphics_common.h ****             x_, int16_t(y_ + pxToTrim), width_, int16_t(height_ - pxToTrim)};
 154:../../libdaisy/src/hid/disp/graphics_common.h ****     }
 155:../../libdaisy/src/hid/disp/graphics_common.h **** 
 156:../../libdaisy/src/hid/disp/graphics_common.h ****     Rectangle WithTrimmedBottom(int16_t pxToTrim) const
 157:../../libdaisy/src/hid/disp/graphics_common.h ****     {
 158:../../libdaisy/src/hid/disp/graphics_common.h ****         return {x_, y_, width_, int16_t(height_ - pxToTrim)};
 159:../../libdaisy/src/hid/disp/graphics_common.h ****     }
 160:../../libdaisy/src/hid/disp/graphics_common.h **** 
 161:../../libdaisy/src/hid/disp/graphics_common.h ****     Rectangle WithCenterX(int16_t centerX) const
 162:../../libdaisy/src/hid/disp/graphics_common.h ****     {
 163:../../libdaisy/src/hid/disp/graphics_common.h ****         return {int16_t(x_ + centerX - GetCenterX()), y_, width_, height_};
 164:../../libdaisy/src/hid/disp/graphics_common.h ****     }
 165:../../libdaisy/src/hid/disp/graphics_common.h **** 
 166:../../libdaisy/src/hid/disp/graphics_common.h ****     Rectangle WithCenterY(int16_t centerY) const
 167:../../libdaisy/src/hid/disp/graphics_common.h ****     {
 168:../../libdaisy/src/hid/disp/graphics_common.h ****         return {x_, int16_t(y_ + centerY - GetCenterY()), width_, height_};
 169:../../libdaisy/src/hid/disp/graphics_common.h ****     }
 170:../../libdaisy/src/hid/disp/graphics_common.h **** 
 171:../../libdaisy/src/hid/disp/graphics_common.h ****     Rectangle WithCenter(int16_t centerX, int16_t centerY) const
 172:../../libdaisy/src/hid/disp/graphics_common.h ****     {
 173:../../libdaisy/src/hid/disp/graphics_common.h ****         return {int16_t(x_ + centerX - GetCenterX()),
 174:../../libdaisy/src/hid/disp/graphics_common.h ****                 int16_t(y_ + centerY - GetCenterY()),
 175:../../libdaisy/src/hid/disp/graphics_common.h ****                 width_,
 176:../../libdaisy/src/hid/disp/graphics_common.h ****                 height_};
 177:../../libdaisy/src/hid/disp/graphics_common.h ****     }
 178:../../libdaisy/src/hid/disp/graphics_common.h **** 
 179:../../libdaisy/src/hid/disp/graphics_common.h ****     Rectangle RemoveFromLeft(int16_t pxToRemove)
 180:../../libdaisy/src/hid/disp/graphics_common.h ****     {
ARM GAS  /tmp/ccoLrWzv.s 			page 61


 181:../../libdaisy/src/hid/disp/graphics_common.h ****         const auto result = this->WithWidth(min(pxToRemove, width_));
 182:../../libdaisy/src/hid/disp/graphics_common.h ****         x_ += min(pxToRemove, width_);
 183:../../libdaisy/src/hid/disp/graphics_common.h ****         width_ = max(int16_t(width_ - pxToRemove), 0);
 184:../../libdaisy/src/hid/disp/graphics_common.h ****         return result;
 185:../../libdaisy/src/hid/disp/graphics_common.h ****     }
 186:../../libdaisy/src/hid/disp/graphics_common.h **** 
 187:../../libdaisy/src/hid/disp/graphics_common.h ****     Rectangle RemoveFromRight(int16_t pxToRemove)
 188:../../libdaisy/src/hid/disp/graphics_common.h ****     {
 189:../../libdaisy/src/hid/disp/graphics_common.h ****         const auto canRemove = min(pxToRemove, width_);
 190:../../libdaisy/src/hid/disp/graphics_common.h ****         width_ -= canRemove;
 191:../../libdaisy/src/hid/disp/graphics_common.h ****         return {int16_t(x_ + width_), y_, canRemove, height_};
 192:../../libdaisy/src/hid/disp/graphics_common.h ****     }
 193:../../libdaisy/src/hid/disp/graphics_common.h **** 
 194:../../libdaisy/src/hid/disp/graphics_common.h ****     Rectangle RemoveFromTop(int16_t pxToRemove)
 195:../../libdaisy/src/hid/disp/graphics_common.h ****     {
 196:../../libdaisy/src/hid/disp/graphics_common.h ****         const auto result = this->WithHeight(min(pxToRemove, height_));
 197:../../libdaisy/src/hid/disp/graphics_common.h ****         y_ += min(pxToRemove, height_);
 198:../../libdaisy/src/hid/disp/graphics_common.h ****         height_ = max(height_ - pxToRemove, 0);
 199:../../libdaisy/src/hid/disp/graphics_common.h ****         return result;
 200:../../libdaisy/src/hid/disp/graphics_common.h ****     }
 201:../../libdaisy/src/hid/disp/graphics_common.h **** 
 202:../../libdaisy/src/hid/disp/graphics_common.h ****     Rectangle RemoveFromBottom(int16_t pxToRemove)
 203:../../libdaisy/src/hid/disp/graphics_common.h ****     {
 204:../../libdaisy/src/hid/disp/graphics_common.h ****         const auto canRemove = min(pxToRemove, height_);
 205:../../libdaisy/src/hid/disp/graphics_common.h ****         height_ -= canRemove;
 206:../../libdaisy/src/hid/disp/graphics_common.h ****         return {x_, int16_t(y_ + height_), width_, canRemove};
 207:../../libdaisy/src/hid/disp/graphics_common.h ****     }
 208:../../libdaisy/src/hid/disp/graphics_common.h **** 
 209:../../libdaisy/src/hid/disp/graphics_common.h ****     Rectangle AlignedWithin(const Rectangle& other, Alignment alignment) const
 210:../../libdaisy/src/hid/disp/graphics_common.h ****     {
 211:../../libdaisy/src/hid/disp/graphics_common.h ****         switch(alignment)
 212:../../libdaisy/src/hid/disp/graphics_common.h ****         {
 213:../../libdaisy/src/hid/disp/graphics_common.h ****             case Alignment::topLeft:
 214:../../libdaisy/src/hid/disp/graphics_common.h ****                 return {other.x_, other.y_, width_, height_};
 215:../../libdaisy/src/hid/disp/graphics_common.h ****             case Alignment::topRight:
 216:../../libdaisy/src/hid/disp/graphics_common.h ****                 return {int16_t(other.GetRight() - width_),
 217:../../libdaisy/src/hid/disp/graphics_common.h ****                         other.y_,
 218:../../libdaisy/src/hid/disp/graphics_common.h ****                         width_,
 219:../../libdaisy/src/hid/disp/graphics_common.h ****                         height_};
 220:../../libdaisy/src/hid/disp/graphics_common.h ****             case Alignment::topCentered:
 221:../../libdaisy/src/hid/disp/graphics_common.h ****                 return {int16_t(x_ + (other.GetCenterX() - GetCenterX())),
 222:../../libdaisy/src/hid/disp/graphics_common.h ****                         other.y_,
 223:../../libdaisy/src/hid/disp/graphics_common.h ****                         width_,
 224:../../libdaisy/src/hid/disp/graphics_common.h ****                         height_};
 225:../../libdaisy/src/hid/disp/graphics_common.h ****             case Alignment::bottomLeft:
 226:../../libdaisy/src/hid/disp/graphics_common.h ****                 return {other.x_,
 227:../../libdaisy/src/hid/disp/graphics_common.h ****                         int16_t(other.GetBottom() - height_),
 228:../../libdaisy/src/hid/disp/graphics_common.h ****                         width_,
 229:../../libdaisy/src/hid/disp/graphics_common.h ****                         height_};
 230:../../libdaisy/src/hid/disp/graphics_common.h ****             case Alignment::bottomRight:
 231:../../libdaisy/src/hid/disp/graphics_common.h ****                 return {int16_t(other.GetRight() - width_),
 232:../../libdaisy/src/hid/disp/graphics_common.h ****                         int16_t(other.GetBottom() - height_),
 233:../../libdaisy/src/hid/disp/graphics_common.h ****                         width_,
 234:../../libdaisy/src/hid/disp/graphics_common.h ****                         height_};
 235:../../libdaisy/src/hid/disp/graphics_common.h ****             case Alignment::bottomCentered:
 236:../../libdaisy/src/hid/disp/graphics_common.h ****                 return {int16_t(x_ + (other.GetCenterX() - GetCenterX())),
 237:../../libdaisy/src/hid/disp/graphics_common.h ****                         int16_t(other.GetBottom() - height_),
ARM GAS  /tmp/ccoLrWzv.s 			page 62


 238:../../libdaisy/src/hid/disp/graphics_common.h ****                         width_,
 239:../../libdaisy/src/hid/disp/graphics_common.h ****                         height_};
 240:../../libdaisy/src/hid/disp/graphics_common.h ****             case Alignment::centeredLeft:
 241:../../libdaisy/src/hid/disp/graphics_common.h ****                 return {other.x_,
 242:../../libdaisy/src/hid/disp/graphics_common.h ****                         int16_t(y_ + (other.GetCenterY() - GetCenterY())),
 243:../../libdaisy/src/hid/disp/graphics_common.h ****                         width_,
 244:../../libdaisy/src/hid/disp/graphics_common.h ****                         height_};
 245:../../libdaisy/src/hid/disp/graphics_common.h ****             case Alignment::centeredRight:
 246:../../libdaisy/src/hid/disp/graphics_common.h ****                 return {int16_t(other.GetRight() - width_),
 247:../../libdaisy/src/hid/disp/graphics_common.h ****                         int16_t(y_ + (other.GetCenterY() - GetCenterY())),
 248:../../libdaisy/src/hid/disp/graphics_common.h ****                         width_,
 249:../../libdaisy/src/hid/disp/graphics_common.h ****                         height_};
 250:../../libdaisy/src/hid/disp/graphics_common.h ****             case Alignment::centered:
 251:../../libdaisy/src/hid/disp/graphics_common.h ****                 return {int16_t(x_ + (other.GetCenterX() - GetCenterX())),
 252:../../libdaisy/src/hid/disp/graphics_common.h ****                         int16_t(y_ + (other.GetCenterY() - GetCenterY())),
 253:../../libdaisy/src/hid/disp/graphics_common.h ****                         width_,
 254:../../libdaisy/src/hid/disp/graphics_common.h ****                         height_};
 255:../../libdaisy/src/hid/disp/graphics_common.h ****             default: return {};
 256:../../libdaisy/src/hid/disp/graphics_common.h ****         }
 257:../../libdaisy/src/hid/disp/graphics_common.h ****     }
 258:../../libdaisy/src/hid/disp/graphics_common.h **** 
 259:../../libdaisy/src/hid/disp/graphics_common.h ****   private:
 260:../../libdaisy/src/hid/disp/graphics_common.h ****     int16_t x_, y_, width_, height_;
 261:../../libdaisy/src/hid/disp/graphics_common.h ****     int16_t max(int16_t a, int16_t b) { return (a > b) ? a : b; }
 1662              		.loc 16 261 13 view .LVU329
 1663              		.loc 16 261 13 is_stmt 0 view .LVU330
 1664              	.LBE988:
 1665              	.LBE987:
 1666              	.LBE993:
 1667              	.LBE997:
 1668              		.loc 16 261 41 is_stmt 1 view .LVU331
 1669 0038 12B2     		sxth	r2, r2
 1670 003a 22EAE272 		bic	r2, r2, r2, asr #31
 1671              	.LVL125:
 1672              	.LBB998:
 1673              	.LBB994:
 1674              	.LBB990:
 1675              	.LBB989:
 1676              	.LBI989:
 1677              		.loc 16 261 13 view .LVU332
 1678              		.loc 16 261 13 is_stmt 0 view .LVU333
 1679              	.LBE989:
 1680              	.LBE990:
 1681              	.LBE994:
 1682              	.LBE998:
 1683              		.loc 16 261 41 is_stmt 1 view .LVU334
 1684              	.LBB999:
 1685              	.LBI999:
 209:../../libdaisy/src/hid/disp/graphics_common.h ****     {
 1686              		.loc 16 209 15 view .LVU335
 1687              	.LBB1000:
 211:../../libdaisy/src/hid/disp/graphics_common.h ****         {
 1688              		.loc 16 211 9 view .LVU336
 1689 003e 082B     		cmp	r3, #8
 1690 0040 00F2AD81 		bhi	.L125
 1691 0044 DFE813F0 		tbh	[pc, r3, lsl #1]
 1692              	.L127:
ARM GAS  /tmp/ccoLrWzv.s 			page 63


 1693 0048 0001     		.2byte	(.L135-.L127)/2
 1694 004a 1201     		.2byte	(.L134-.L127)/2
 1695 004c 1E01     		.2byte	(.L133-.L127)/2
 1696 004e 3201     		.2byte	(.L132-.L127)/2
 1697 0050 4001     		.2byte	(.L131-.L127)/2
 1698 0052 5001     		.2byte	(.L130-.L127)/2
 1699 0054 6B01     		.2byte	(.L129-.L127)/2
 1700 0056 7801     		.2byte	(.L128-.L127)/2
 1701 0058 0900     		.2byte	(.L126-.L127)/2
 1702              		.p2align 1
 1703              	.L126:
 245:../../libdaisy/src/hid/disp/graphics_common.h ****                 return {int16_t(other.GetRight() - width_),
 1704              		.loc 16 245 13 view .LVU337
 246:../../libdaisy/src/hid/disp/graphics_common.h ****                         int16_t(y_ + (other.GetCenterY() - GetCenterY())),
 1705              		.loc 16 246 17 view .LVU338
 1706              	.LBB1001:
 1707              	.LBI1001:
  60:../../libdaisy/src/hid/disp/graphics_common.h ****     int16_t GetBottom() const { return y_ + height_; }
 1708              		.loc 16 60 13 view .LVU339
 1709              	.LVL126:
 1710              	.LBB1002:
  60:../../libdaisy/src/hid/disp/graphics_common.h ****     int16_t GetBottom() const { return y_ + height_; }
 1711              		.loc 16 60 32 view .LVU340
  60:../../libdaisy/src/hid/disp/graphics_common.h ****     int16_t GetBottom() const { return y_ + height_; }
 1712              		.loc 16 60 42 is_stmt 0 view .LVU341
 1713 005a 3788     		ldrh	r7, [r6]
 1714 005c B088     		ldrh	r0, [r6, #4]
 1715              	.LBE1002:
 1716              	.LBE1001:
 1717              	.LBB1004:
 1718              	.LBB1005:
  63:../../libdaisy/src/hid/disp/graphics_common.h **** 
 1719              		.loc 16 63 54 view .LVU342
 1720 005e B6F90630 		ldrsh	r3, [r6, #6]
 1721              	.LVL127:
  63:../../libdaisy/src/hid/disp/graphics_common.h **** 
 1722              		.loc 16 63 54 view .LVU343
 1723              	.LBE1005:
 1724              	.LBE1004:
 1725              	.LBB1009:
 1726              	.LBB1003:
  60:../../libdaisy/src/hid/disp/graphics_common.h ****     int16_t GetBottom() const { return y_ + height_; }
 1727              		.loc 16 60 42 view .LVU344
 1728 0062 0744     		add	r7, r7, r0
 1729              	.LBE1003:
 1730              	.LBE1009:
 1731              	.LBB1010:
 1732              	.LBB1006:
  63:../../libdaisy/src/hid/disp/graphics_common.h **** 
 1733              		.loc 16 63 54 view .LVU345
 1734 0064 002B     		cmp	r3, #0
 1735              	.LBE1006:
 1736              	.LBE1010:
 246:../../libdaisy/src/hid/disp/graphics_common.h ****                         int16_t(y_ + (other.GetCenterY() - GetCenterY())),
 1737              		.loc 16 246 50 view .LVU346
 1738 0066 A7EB0207 		sub	r7, r7, r2
 1739 006a BFB2     		uxth	r7, r7
ARM GAS  /tmp/ccoLrWzv.s 			page 64


 1740              	.LBB1011:
 1741              	.LBI1004:
  63:../../libdaisy/src/hid/disp/graphics_common.h **** 
 1742              		.loc 16 63 13 is_stmt 1 view .LVU347
 1743              	.LVL128:
 1744              	.LBB1007:
  63:../../libdaisy/src/hid/disp/graphics_common.h **** 
 1745              		.loc 16 63 34 view .LVU348
  63:../../libdaisy/src/hid/disp/graphics_common.h **** 
 1746              		.loc 16 63 34 is_stmt 0 view .LVU349
 1747              	.LBE1007:
 1748              	.LBE1011:
 1749              	.LBB1012:
 1750              	.LBI1012:
  63:../../libdaisy/src/hid/disp/graphics_common.h **** 
 1751              		.loc 16 63 13 is_stmt 1 view .LVU350
 1752              	.LBB1013:
  63:../../libdaisy/src/hid/disp/graphics_common.h **** 
 1753              		.loc 16 63 34 view .LVU351
 1754              	.LBE1013:
 1755              	.LBE1012:
 1756              	.LBB1014:
 1757              	.LBB1008:
  63:../../libdaisy/src/hid/disp/graphics_common.h **** 
 1758              		.loc 16 63 54 is_stmt 0 view .LVU352
 1759 006c C0F2FC80 		blt	.L199
 1760              	.LVL129:
 1761              	.L142:
  63:../../libdaisy/src/hid/disp/graphics_common.h **** 
 1762              		.loc 16 63 54 view .LVU353
 1763              	.LBE1008:
 1764              	.LBE1014:
 1765              	.LBB1015:
 1766              	.LBB1016:
  63:../../libdaisy/src/hid/disp/graphics_common.h **** 
 1767              		.loc 16 63 44 view .LVU354
 1768 0070 B6F802C0 		ldrh	ip, [r6, #2]
 1769              	.LBE1016:
 1770              	.LBE1015:
 1771              	.LBB1022:
 1772              	.LBB1023:
 1773              	.LBB1024:
  32:../../libdaisy/src/hid/disp/graphics_common.h ****     {
 1774              		.loc 16 32 66 view .LVU355
 1775 0074 0998     		ldr	r0, [sp, #36]
 1776              	.LBE1024:
 1777              	.LBE1023:
 1778              	.LBE1022:
 1779              	.LBB1033:
 1780              	.LBB1017:
  63:../../libdaisy/src/hid/disp/graphics_common.h **** 
 1781              		.loc 16 63 44 view .LVU356
 1782 0076 0CEB6306 		add	r6, ip, r3, asr #1
 1783              	.LVL130:
  63:../../libdaisy/src/hid/disp/graphics_common.h **** 
 1784              		.loc 16 63 44 view .LVU357
 1785              	.LBE1017:
ARM GAS  /tmp/ccoLrWzv.s 			page 65


 1786              	.LBE1033:
 1787              	.LBB1034:
 1788              	.LBB1030:
 1789              	.LBB1027:
  32:../../libdaisy/src/hid/disp/graphics_common.h ****     {
 1790              		.loc 16 32 66 view .LVU358
 1791 007a 0346     		mov	r3, r0
 1792 007c 0780     		strh	r7, [r0]	@ movhi
 1793              	.L197:
  32:../../libdaisy/src/hid/disp/graphics_common.h ****     {
 1794              		.loc 16 32 66 view .LVU359
 1795 007e 8280     		strh	r2, [r0, #4]	@ movhi
 1796 0080 D980     		strh	r1, [r3, #6]	@ movhi
 1797              	.LBE1027:
 1798              	.LBE1030:
 1799              	.LBE1034:
 252:../../libdaisy/src/hid/disp/graphics_common.h ****                         width_,
 1800              		.loc 16 252 58 view .LVU360
 1801 0082 A6EB5101 		sub	r1, r6, r1, lsr #1
 1802 0086 8EB2     		uxth	r6, r1
 1803              	.LVL131:
 1804              	.LBB1035:
 1805              	.LBI1022:
  31:../../libdaisy/src/hid/disp/graphics_common.h ****     : x_(x), y_(y), width_(max(0, width)), height_(max(0, height))
 1806              		.loc 16 31 5 is_stmt 1 view .LVU361
 1807              	.LBB1031:
 1808              	.LBB1028:
  32:../../libdaisy/src/hid/disp/graphics_common.h ****     {
 1809              		.loc 16 32 66 is_stmt 0 view .LVU362
 1810 0088 5E80     		strh	r6, [r3, #2]	@ movhi
 1811              	.LVL132:
 1812              	.LBB1025:
 1813              	.LBI1025:
 1814              		.loc 16 261 13 is_stmt 1 view .LVU363
 1815              		.loc 16 261 13 is_stmt 0 view .LVU364
 1816              	.LBE1025:
 1817              	.LBE1028:
 1818              	.LBE1031:
 1819              	.LBE1035:
 1820              	.LBE1000:
 1821              	.LBE999:
 1822              		.loc 16 261 41 is_stmt 1 view .LVU365
 1823              	.LBB1220:
 1824              	.LBB1205:
 1825              	.LBB1036:
 1826              	.LBB1032:
 1827              	.LBB1029:
 1828              	.LBB1026:
 1829              	.LBI1026:
 1830              		.loc 16 261 13 view .LVU366
 1831              		.loc 16 261 13 is_stmt 0 view .LVU367
 1832              	.LBE1026:
 1833              	.LBE1029:
 1834              	.LBE1032:
 1835              	.LBE1036:
 1836              	.LBE1205:
 1837              	.LBE1220:
ARM GAS  /tmp/ccoLrWzv.s 			page 66


 1838              		.loc 16 261 41 is_stmt 1 view .LVU368
 1839              	.L136:
  56:../../libdaisy/src/hid/disp/graphics_common.h ****     int16_t GetY() const { return y_; }
 1840              		.loc 16 56 28 view .LVU369
  57:../../libdaisy/src/hid/disp/graphics_common.h ****     int16_t GetWidth() const { return width_; }
 1841              		.loc 16 57 28 view .LVU370
 1842              	.LBB1221:
 1843              	.LBI1221:
 171:../../libdaisy/src/hid/disp/display.h ****     {
 1844              		.loc 3 171 10 view .LVU371
 1845              	.LBB1222:
 173:../../libdaisy/src/hid/disp/display.h ****         currentY_ = (y >= Height()) ? Height() - 1 : y;
 1846              		.loc 3 173 9 view .LVU372
 1847 008a B64A     		ldr	r2, .L209
 173:../../libdaisy/src/hid/disp/display.h ****         currentY_ = (y >= Height()) ? Height() - 1 : y;
 1848              		.loc 3 173 33 is_stmt 0 view .LVU373
 1849 008c 2368     		ldr	r3, [r4]
 1850 008e 1146     		mov	r1, r2
 1851 0090 0192     		str	r2, [sp, #4]
 1852 0092 DA68     		ldr	r2, [r3, #12]
 1853 0094 8A42     		cmp	r2, r1
 1854 0096 40F08F81 		bne	.L144
 1855 009a 8020     		movs	r0, #128
 1856              	.LVL133:
 1857              	.L145:
 173:../../libdaisy/src/hid/disp/display.h ****         currentY_ = (y >= Height()) ? Height() - 1 : y;
 1858              		.loc 3 173 19 view .LVU374
 1859 009c B842     		cmp	r0, r7
 1860 009e 05D8     		bhi	.L146
 173:../../libdaisy/src/hid/disp/display.h ****         currentY_ = (y >= Height()) ? Height() - 1 : y;
 1861              		.loc 3 173 44 view .LVU375
 1862 00a0 DA68     		ldr	r2, [r3, #12]
 1863 00a2 0199     		ldr	r1, [sp, #4]
 1864 00a4 8A42     		cmp	r2, r1
 1865 00a6 40F09A81 		bne	.L200
 1866 00aa 7F27     		movs	r7, #127
 1867              	.L146:
 174:../../libdaisy/src/hid/disp/display.h ****     }
 1868              		.loc 3 174 34 view .LVU376
 1869 00ac 9B68     		ldr	r3, [r3, #8]
 1870 00ae AE4A     		ldr	r2, .L209+4
 173:../../libdaisy/src/hid/disp/display.h ****         currentY_ = (y >= Height()) ? Height() - 1 : y;
 1871              		.loc 3 173 19 view .LVU377
 1872 00b0 A780     		strh	r7, [r4, #4]	@ movhi
 174:../../libdaisy/src/hid/disp/display.h ****     }
 1873              		.loc 3 174 9 is_stmt 1 view .LVU378
 1874 00b2 9342     		cmp	r3, r2
 1875 00b4 0392     		str	r2, [sp, #12]
 1876 00b6 40F08A81 		bne	.L176
 174:../../libdaisy/src/hid/disp/display.h ****     }
 1877              		.loc 3 174 34 is_stmt 0 view .LVU379
 1878 00ba 4020     		movs	r0, #64
 1879              	.L148:
 174:../../libdaisy/src/hid/disp/display.h ****     }
 1880              		.loc 3 174 19 view .LVU380
 1881 00bc B042     		cmp	r0, r6
 1882 00be 06D8     		bhi	.L150
ARM GAS  /tmp/ccoLrWzv.s 			page 67


 174:../../libdaisy/src/hid/disp/display.h ****     }
 1883              		.loc 3 174 46 view .LVU381
 1884 00c0 2368     		ldr	r3, [r4]
 1885 00c2 039A     		ldr	r2, [sp, #12]
 1886 00c4 9B68     		ldr	r3, [r3, #8]
 1887 00c6 9342     		cmp	r3, r2
 1888 00c8 40F08481 		bne	.L201
 1889 00cc 3F26     		movs	r6, #63
 1890              	.L150:
 174:../../libdaisy/src/hid/disp/display.h ****     }
 1891              		.loc 3 174 46 view .LVU382
 1892 00ce 6B78     		ldrb	r3, [r5, #1]	@ zero_extendqisi2
 174:../../libdaisy/src/hid/disp/display.h ****     }
 1893              		.loc 3 174 19 view .LVU383
 1894 00d0 E680     		strh	r6, [r4, #6]	@ movhi
 1895              	.LVL134:
 174:../../libdaisy/src/hid/disp/display.h ****     }
 1896              		.loc 3 174 19 view .LVU384
 1897 00d2 0493     		str	r3, [sp, #16]
 1898              	.LBE1222:
 1899              	.LBE1221:
 1900              	.LBB1226:
 1901              	.LBB1227:
 443:../../libdaisy/src/hid/disp/display.h ****         {
 1902              		.loc 3 443 9 view .LVU385
 1903 00d4 98F80060 		ldrb	r6, [r8]	@ zero_extendqisi2
 1904 00d8 6B68     		ldr	r3, [r5, #4]
 1905 00da 95F800B0 		ldrb	fp, [r5]	@ zero_extendqisi2
 1906              	.LVL135:
 443:../../libdaisy/src/hid/disp/display.h ****         {
 1907              		.loc 3 443 9 view .LVU386
 1908 00de 0793     		str	r3, [sp, #28]
 1909              	.LVL136:
 443:../../libdaisy/src/hid/disp/display.h ****         {
 1910              		.loc 3 443 9 view .LVU387
 1911              	.LBE1227:
 1912              	.LBI1226:
 440:../../libdaisy/src/hid/disp/display.h ****     {
 1913              		.loc 3 440 10 is_stmt 1 view .LVU388
 1914              	.LBB1270:
 443:../../libdaisy/src/hid/disp/display.h ****         {
 1915              		.loc 3 443 9 view .LVU389
 1916 00e0 002E     		cmp	r6, #0
 1917 00e2 00F0AD80 		beq	.L122
 1918              	.LVL137:
 1919              	.L152:
 1920              	.LBB1228:
 1921              	.LBI1228:
 396:../../libdaisy/src/hid/disp/display.h ****     {
 1922              		.loc 3 396 10 view .LVU390
 1923              	.LBB1229:
 401:../../libdaisy/src/hid/disp/display.h ****             return 0;
 1924              		.loc 3 401 20 is_stmt 0 view .LVU391
 1925 00e6 A6F12005 		sub	r5, r6, #32
 401:../../libdaisy/src/hid/disp/display.h ****             return 0;
 1926              		.loc 3 401 9 view .LVU392
 1927 00ea EBB2     		uxtb	r3, r5
ARM GAS  /tmp/ccoLrWzv.s 			page 68


 1928 00ec 5E2B     		cmp	r3, #94
 1929 00ee 00F23481 		bhi	.L156
 405:../../libdaisy/src/hid/disp/display.h ****            || Height() < (currentY_ + font.FontHeight))
 1930              		.loc 3 405 17 view .LVU393
 1931 00f2 2368     		ldr	r3, [r4]
 1932 00f4 019A     		ldr	r2, [sp, #4]
 1933 00f6 DB68     		ldr	r3, [r3, #12]
 1934 00f8 9342     		cmp	r3, r2
 1935 00fa 40F03081 		bne	.L202
 1936 00fe 8020     		movs	r0, #128
 1937              	.L155:
 405:../../libdaisy/src/hid/disp/display.h ****            || Height() < (currentY_ + font.FontHeight))
 1938              		.loc 3 405 23 view .LVU394
 1939 0100 A388     		ldrh	r3, [r4, #4]
 405:../../libdaisy/src/hid/disp/display.h ****            || Height() < (currentY_ + font.FontHeight))
 1940              		.loc 3 405 33 view .LVU395
 1941 0102 5B44     		add	r3, r3, fp
 406:../../libdaisy/src/hid/disp/display.h ****         {
 1942              		.loc 3 406 12 view .LVU396
 1943 0104 9842     		cmp	r0, r3
 1944 0106 C0F22881 		blt	.L156
 406:../../libdaisy/src/hid/disp/display.h ****         {
 1945              		.loc 3 406 21 view .LVU397
 1946 010a 2368     		ldr	r3, [r4]
 1947 010c 039A     		ldr	r2, [sp, #12]
 1948 010e 9B68     		ldr	r3, [r3, #8]
 1949 0110 9342     		cmp	r3, r2
 1950 0112 40F02B81 		bne	.L203
 1951 0116 4020     		movs	r0, #64
 1952              	.L157:
 406:../../libdaisy/src/hid/disp/display.h ****         {
 1953              		.loc 3 406 27 view .LVU398
 1954 0118 E188     		ldrh	r1, [r4, #6]
 406:../../libdaisy/src/hid/disp/display.h ****         {
 1955              		.loc 3 406 37 view .LVU399
 1956 011a 049A     		ldr	r2, [sp, #16]
 406:../../libdaisy/src/hid/disp/display.h ****         {
 1957              		.loc 3 406 27 view .LVU400
 1958 011c 0291     		str	r1, [sp, #8]
 406:../../libdaisy/src/hid/disp/display.h ****         {
 1959              		.loc 3 406 37 view .LVU401
 1960 011e 8B18     		adds	r3, r1, r2
 406:../../libdaisy/src/hid/disp/display.h ****         {
 1961              		.loc 3 406 12 view .LVU402
 1962 0120 9842     		cmp	r0, r3
 1963 0122 C0F21A81 		blt	.L156
 1964              	.LVL138:
 413:../../libdaisy/src/hid/disp/display.h ****         {
 1965              		.loc 3 413 22 is_stmt 1 view .LVU403
 1966 0126 1046     		mov	r0, r2
 1967 0128 002A     		cmp	r2, #0
 1968 012a 00F02981 		beq	.L158
 415:../../libdaisy/src/hid/disp/display.h ****             for(j = 0; j < font.FontWidth; j++)
 1969              		.loc 3 415 37 is_stmt 0 view .LVU404
 1970 012e 1346     		mov	r3, r2
 1971 0130 6FF00047 		mvn	r7, #-2147483648
 1972 0134 B4F804C0 		ldrh	ip, [r4, #4]
ARM GAS  /tmp/ccoLrWzv.s 			page 69


 1973 0138 03FB05F3 		mul	r3, r3, r5
 1974 013c 079D     		ldr	r5, [sp, #28]
 1975 013e CDF81880 		str	r8, [sp, #24]
 1976 0142 AA1E     		subs	r2, r5, #2
 1977 0144 1F44     		add	r7, r7, r3
 1978 0146 0344     		add	r3, r3, r0
 1979 0148 DDF82090 		ldr	r9, [sp, #32]
 1980 014c 05EB4707 		add	r7, r5, r7, lsl #1
 1981 0150 0596     		str	r6, [sp, #20]
 1982 0152 02EB4303 		add	r3, r2, r3, lsl #1
 1983 0156 2246     		mov	r2, r4
 1984 0158 5C46     		mov	r4, fp
 1985              	.LVL139:
 415:../../libdaisy/src/hid/disp/display.h ****             for(j = 0; j < font.FontWidth; j++)
 1986              		.loc 3 415 37 view .LVU405
 1987 015a 9846     		mov	r8, r3
 1988              	.LVL140:
 415:../../libdaisy/src/hid/disp/display.h ****             for(j = 0; j < font.FontWidth; j++)
 1989              		.loc 3 415 37 view .LVU406
 1990 015c 9346     		mov	fp, r2
 1991              	.LVL141:
 1992              	.L161:
 415:../../libdaisy/src/hid/disp/display.h ****             for(j = 0; j < font.FontWidth; j++)
 1993              		.loc 3 415 13 view .LVU407
 1994 015e 37F802AF 		ldrh	r10, [r7, #2]!
 1995              	.LVL142:
 416:../../libdaisy/src/hid/disp/display.h ****             {
 1996              		.loc 3 416 26 is_stmt 1 view .LVU408
 1997 0162 A4B3     		cbz	r4, .L166
 1998              	.LBB1230:
 1999              	.LBB1231:
 2000              	.LBB1232:
 2001              	.LBB1233:
 2002              	.LBB1234:
 246:../../libdaisy/src/dev/oled_ssd130x.h ****     }
 2003              		.loc 14 246 49 is_stmt 0 view .LVU409
 2004 0164 0125     		movs	r5, #1
 246:../../libdaisy/src/dev/oled_ssd130x.h ****     }
 2005              		.loc 14 246 55 view .LVU410
 2006 0166 01F00702 		and	r2, r1, #7
 246:../../libdaisy/src/dev/oled_ssd130x.h ****     }
 2007              		.loc 14 246 28 view .LVU411
 2008 016a C808     		lsrs	r0, r1, #3
 2009 016c 0CF11403 		add	r3, ip, #20
 246:../../libdaisy/src/dev/oled_ssd130x.h ****     }
 2010              		.loc 14 246 49 view .LVU412
 2011 0170 05FA02F2 		lsl	r2, r5, r2
 2012 0174 6546     		mov	r5, ip
 2013 0176 03EBC013 		add	r3, r3, r0, lsl #7
 2014              	.LBE1234:
 2015              	.LBE1233:
 2016              	.LBE1232:
 2017              	.LBE1231:
 2018              	.LBE1230:
 416:../../libdaisy/src/hid/disp/display.h ****             {
 2019              		.loc 3 416 19 view .LVU413
 2020 017a 0020     		movs	r0, #0
ARM GAS  /tmp/ccoLrWzv.s 			page 70


 2021              	.LBB1252:
 2022              	.LBB1247:
 2023              	.LBB1242:
 2024              	.LBB1238:
 2025              	.LBB1235:
 246:../../libdaisy/src/dev/oled_ssd130x.h ****     }
 2026              		.loc 14 246 42 view .LVU414
 2027 017c 52B2     		sxtb	r2, r2
 2028 017e 5B44     		add	r3, r3, fp
 2029 0180 6FEA020E 		mvn	lr, r2
 2030 0184 0EE0     		b	.L167
 2031              	.LVL143:
 2032              	.L204:
 246:../../libdaisy/src/dev/oled_ssd130x.h ****     }
 2033              		.loc 14 246 42 view .LVU415
 2034              	.LBE1235:
 2035              	.LBE1238:
 2036              	.LBE1242:
 2037              	.LBE1247:
 2038              	.LBE1252:
 2039              	.LBB1253:
 2040              	.LBI1253:
  41:../../libdaisy/src/hid/disp/oled_display.h ****     {
 2041              		.loc 2 41 10 is_stmt 1 view .LVU416
 2042              	.LBB1254:
 2043              	.LBI1254:
 239:../../libdaisy/src/dev/oled_ssd130x.h ****     {
 2044              		.loc 14 239 10 view .LVU417
 2045              	.LBB1255:
 241:../../libdaisy/src/dev/oled_ssd130x.h ****             return;
 2046              		.loc 14 241 9 is_stmt 0 view .LVU418
 2047 0186 7F2D     		cmp	r5, #127
 2048 0188 07D8     		bhi	.L163
 2049 018a 3F29     		cmp	r1, #63
 2050 018c 05D8     		bhi	.L163
 244:../../libdaisy/src/dev/oled_ssd130x.h ****         else
 2051              		.loc 14 244 42 view .LVU419
 2052 018e 1E78     		ldrb	r6, [r3]	@ zero_extendqisi2
 243:../../libdaisy/src/dev/oled_ssd130x.h ****             buffer_[x + (y / 8) * width] |= (1 << (y % 8));
 2053              		.loc 14 243 9 view .LVU420
 2054 0190 B9F1000F 		cmp	r9, #0
 2055 0194 12D0     		beq	.L165
 2056              	.L198:
 243:../../libdaisy/src/dev/oled_ssd130x.h ****             buffer_[x + (y / 8) * width] |= (1 << (y % 8));
 2057              		.loc 14 243 9 view .LVU421
 2058              	.LBE1255:
 2059              	.LBE1254:
 2060              	.LBE1253:
 2061              	.LBB1256:
 2062              	.LBB1248:
 2063              	.LBB1243:
 244:../../libdaisy/src/dev/oled_ssd130x.h ****         else
 2064              		.loc 14 244 42 view .LVU422
 2065 0196 1643     		orrs	r6, r6, r2
 244:../../libdaisy/src/dev/oled_ssd130x.h ****         else
 2066              		.loc 14 244 13 view .LVU423
 2067 0198 1E70     		strb	r6, [r3]
ARM GAS  /tmp/ccoLrWzv.s 			page 71


 2068              	.L163:
 2069              	.LBE1243:
 2070              	.LBE1248:
 2071              	.LBE1256:
 416:../../libdaisy/src/hid/disp/display.h ****             {
 2072              		.loc 3 416 13 is_stmt 1 view .LVU424
 2073 019a 0130     		adds	r0, r0, #1
 2074              	.LVL144:
 416:../../libdaisy/src/hid/disp/display.h ****             {
 2075              		.loc 3 416 26 view .LVU425
 2076 019c 0133     		adds	r3, r3, #1
 2077 019e 0135     		adds	r5, r5, #1
 2078 01a0 8442     		cmp	r4, r0
 2079 01a2 14D0     		beq	.L166
 2080              	.LVL145:
 2081              	.L167:
 418:../../libdaisy/src/hid/disp/display.h ****                 {
 2082              		.loc 3 418 23 is_stmt 0 view .LVU426
 2083 01a4 0AFA00F6 		lsl	r6, r10, r0
 418:../../libdaisy/src/hid/disp/display.h ****                 {
 2084              		.loc 3 418 17 view .LVU427
 2085 01a8 3604     		lsls	r6, r6, #16
 2086 01aa ECD4     		bmi	.L204
 2087              	.LVL146:
 2088              	.LBB1257:
 2089              	.LBI1230:
  41:../../libdaisy/src/hid/disp/oled_display.h ****     {
 2090              		.loc 2 41 10 is_stmt 1 view .LVU428
 2091              	.LBB1249:
 2092              	.LBI1231:
 239:../../libdaisy/src/dev/oled_ssd130x.h ****     {
 2093              		.loc 14 239 10 view .LVU429
 2094              	.LBB1244:
 241:../../libdaisy/src/dev/oled_ssd130x.h ****             return;
 2095              		.loc 14 241 9 is_stmt 0 view .LVU430
 2096 01ac 7F2D     		cmp	r5, #127
 2097 01ae F4D8     		bhi	.L163
 2098 01b0 3F29     		cmp	r1, #63
 2099 01b2 F2D8     		bhi	.L163
 244:../../libdaisy/src/dev/oled_ssd130x.h ****         else
 2100              		.loc 14 244 42 view .LVU431
 2101 01b4 1E78     		ldrb	r6, [r3]	@ zero_extendqisi2
 243:../../libdaisy/src/dev/oled_ssd130x.h ****             buffer_[x + (y / 8) * width] |= (1 << (y % 8));
 2102              		.loc 14 243 9 view .LVU432
 2103 01b6 B9F1000F 		cmp	r9, #0
 2104 01ba ECD0     		beq	.L198
 2105              	.L165:
 2106              	.LVL147:
 2107              	.LBB1239:
 2108              	.LBI1233:
 239:../../libdaisy/src/dev/oled_ssd130x.h ****     {
 2109              		.loc 14 239 10 is_stmt 1 view .LVU433
 239:../../libdaisy/src/dev/oled_ssd130x.h ****     {
 2110              		.loc 14 239 10 is_stmt 0 view .LVU434
 2111              	.LBE1239:
 2112              	.LBE1244:
 2113              	.LBE1249:
ARM GAS  /tmp/ccoLrWzv.s 			page 72


 2114              	.LBE1257:
 416:../../libdaisy/src/hid/disp/display.h ****             {
 2115              		.loc 3 416 13 view .LVU435
 2116 01bc 0130     		adds	r0, r0, #1
 2117              	.LVL148:
 2118              	.LBB1258:
 2119              	.LBB1250:
 2120              	.LBB1245:
 2121              	.LBB1240:
 2122              	.LBB1236:
 246:../../libdaisy/src/dev/oled_ssd130x.h ****     }
 2123              		.loc 14 246 42 view .LVU436
 2124 01be 0EEA0606 		and	r6, lr, r6
 2125 01c2 0133     		adds	r3, r3, #1
 2126 01c4 0135     		adds	r5, r5, #1
 2127              	.LBE1236:
 2128              	.LBE1240:
 2129              	.LBE1245:
 2130              	.LBE1250:
 2131              	.LBE1258:
 416:../../libdaisy/src/hid/disp/display.h ****             {
 2132              		.loc 3 416 26 view .LVU437
 2133 01c6 8442     		cmp	r4, r0
 2134              	.LBB1259:
 2135              	.LBB1251:
 2136              	.LBB1246:
 2137              	.LBB1241:
 2138              	.LBB1237:
 246:../../libdaisy/src/dev/oled_ssd130x.h ****     }
 2139              		.loc 14 246 13 view .LVU438
 2140 01c8 03F8016C 		strb	r6, [r3, #-1]
 246:../../libdaisy/src/dev/oled_ssd130x.h ****     }
 2141              		.loc 14 246 13 view .LVU439
 2142              	.LBE1237:
 2143              	.LBE1241:
 2144              	.LBE1246:
 2145              	.LBE1251:
 2146              	.LBE1259:
 416:../../libdaisy/src/hid/disp/display.h ****             {
 2147              		.loc 3 416 13 is_stmt 1 view .LVU440
 2148              	.LVL149:
 416:../../libdaisy/src/hid/disp/display.h ****             {
 2149              		.loc 3 416 26 view .LVU441
 2150 01cc EAD1     		bne	.L167
 2151              	.LVL150:
 2152              	.L166:
 413:../../libdaisy/src/hid/disp/display.h ****         {
 2153              		.loc 3 413 9 view .LVU442
 413:../../libdaisy/src/hid/disp/display.h ****         {
 2154              		.loc 3 413 22 view .LVU443
 2155 01ce B845     		cmp	r8, r7
 2156 01d0 01F10101 		add	r1, r1, #1
 2157 01d4 C3D1     		bne	.L161
 2158 01d6 5B46     		mov	r3, fp
 2159 01d8 059E     		ldr	r6, [sp, #20]
 2160 01da A346     		mov	fp, r4
 2161              	.LVL151:
ARM GAS  /tmp/ccoLrWzv.s 			page 73


 413:../../libdaisy/src/hid/disp/display.h ****         {
 2162              		.loc 3 413 22 is_stmt 0 view .LVU444
 2163 01dc DDF81880 		ldr	r8, [sp, #24]
 2164 01e0 1C46     		mov	r4, r3
 2165              	.LVL152:
 2166              	.L160:
 2167              	.LBB1260:
 2168              	.LBB1261:
 173:../../libdaisy/src/hid/disp/display.h ****         currentY_ = (y >= Height()) ? Height() - 1 : y;
 2169              		.loc 3 173 33 view .LVU445
 2170 01e2 2268     		ldr	r2, [r4]
 2171              	.LBE1261:
 2172              	.LBE1260:
 434:../../libdaisy/src/hid/disp/display.h **** 
 2173              		.loc 3 434 18 view .LVU446
 2174 01e4 DC44     		add	ip, ip, fp
 2175 01e6 0199     		ldr	r1, [sp, #4]
 2176              	.LBB1265:
 2177              	.LBB1262:
 173:../../libdaisy/src/hid/disp/display.h ****         currentY_ = (y >= Height()) ? Height() - 1 : y;
 2178              		.loc 3 173 33 view .LVU447
 2179 01e8 D368     		ldr	r3, [r2, #12]
 2180              	.LBE1262:
 2181              	.LBE1265:
 434:../../libdaisy/src/hid/disp/display.h **** 
 2182              		.loc 3 434 18 view .LVU448
 2183 01ea 1FFA8CF5 		uxth	r5, ip
 2184              	.LVL153:
 2185              	.LBB1266:
 2186              	.LBI1260:
 171:../../libdaisy/src/hid/disp/display.h ****     {
 2187              		.loc 3 171 10 is_stmt 1 view .LVU449
 2188              	.LBB1263:
 173:../../libdaisy/src/hid/disp/display.h ****         currentY_ = (y >= Height()) ? Height() - 1 : y;
 2189              		.loc 3 173 9 view .LVU450
 2190 01ee 8B42     		cmp	r3, r1
 2191 01f0 40F0C280 		bne	.L205
 173:../../libdaisy/src/hid/disp/display.h ****         currentY_ = (y >= Height()) ? Height() - 1 : y;
 2192              		.loc 3 173 33 is_stmt 0 view .LVU451
 2193 01f4 8020     		movs	r0, #128
 2194              	.L168:
 173:../../libdaisy/src/hid/disp/display.h ****         currentY_ = (y >= Height()) ? Height() - 1 : y;
 2195              		.loc 3 173 19 view .LVU452
 2196 01f6 8542     		cmp	r5, r0
 2197 01f8 05D3     		bcc	.L169
 173:../../libdaisy/src/hid/disp/display.h ****         currentY_ = (y >= Height()) ? Height() - 1 : y;
 2198              		.loc 3 173 44 view .LVU453
 2199 01fa D368     		ldr	r3, [r2, #12]
 2200 01fc 0199     		ldr	r1, [sp, #4]
 2201 01fe 8B42     		cmp	r3, r1
 2202 0200 40F0C780 		bne	.L206
 2203 0204 7F25     		movs	r5, #127
 2204              	.LVL154:
 2205              	.L169:
 174:../../libdaisy/src/hid/disp/display.h ****     }
 2206              		.loc 3 174 34 view .LVU454
 2207 0206 9368     		ldr	r3, [r2, #8]
ARM GAS  /tmp/ccoLrWzv.s 			page 74


 2208 0208 039A     		ldr	r2, [sp, #12]
 173:../../libdaisy/src/hid/disp/display.h ****         currentY_ = (y >= Height()) ? Height() - 1 : y;
 2209              		.loc 3 173 19 view .LVU455
 2210 020a A580     		strh	r5, [r4, #4]	@ movhi
 174:../../libdaisy/src/hid/disp/display.h ****     }
 2211              		.loc 3 174 9 is_stmt 1 view .LVU456
 2212 020c 9342     		cmp	r3, r2
 2213 020e 40F0B080 		bne	.L207
 174:../../libdaisy/src/hid/disp/display.h ****     }
 2214              		.loc 3 174 34 is_stmt 0 view .LVU457
 2215 0212 4020     		movs	r0, #64
 2216              	.L171:
 174:../../libdaisy/src/hid/disp/display.h ****     }
 2217              		.loc 3 174 19 view .LVU458
 2218 0214 029B     		ldr	r3, [sp, #8]
 2219 0216 8342     		cmp	r3, r0
 2220 0218 07D3     		bcc	.L172
 174:../../libdaisy/src/hid/disp/display.h ****     }
 2221              		.loc 3 174 46 view .LVU459
 2222 021a 2368     		ldr	r3, [r4]
 2223 021c 039A     		ldr	r2, [sp, #12]
 2224 021e 9B68     		ldr	r3, [r3, #8]
 2225 0220 9342     		cmp	r3, r2
 2226 0222 40F0B080 		bne	.L208
 2227 0226 3F23     		movs	r3, #63
 2228 0228 0293     		str	r3, [sp, #8]
 2229              	.LVL155:
 2230              	.L172:
 174:../../libdaisy/src/hid/disp/display.h ****     }
 2231              		.loc 3 174 19 view .LVU460
 2232 022a 029B     		ldr	r3, [sp, #8]
 2233 022c E380     		strh	r3, [r4, #6]	@ movhi
 2234              	.LVL156:
 2235              	.L154:
 174:../../libdaisy/src/hid/disp/display.h ****     }
 2236              		.loc 3 174 19 view .LVU461
 2237              	.LBE1263:
 2238              	.LBE1266:
 2239              	.LBE1229:
 2240              	.LBE1228:
 445:../../libdaisy/src/hid/disp/display.h ****                != *str)
 2241              		.loc 3 445 13 view .LVU462
 2242 022e 98F80030 		ldrb	r3, [r8]	@ zero_extendqisi2
 2243 0232 B342     		cmp	r3, r6
 2244 0234 04D1     		bne	.L122
 2245              	.LVL157:
 443:../../libdaisy/src/hid/disp/display.h ****         {
 2246              		.loc 3 443 9 is_stmt 1 view .LVU463
 2247 0236 18F8016F 		ldrb	r6, [r8, #1]!	@ zero_extendqisi2
 2248              	.LVL158:
 443:../../libdaisy/src/hid/disp/display.h ****         {
 2249              		.loc 3 443 9 is_stmt 0 view .LVU464
 2250 023a 002E     		cmp	r6, #0
 2251 023c 7FF453AF 		bne	.L152
 2252              	.LVL159:
 2253              	.L122:
 443:../../libdaisy/src/hid/disp/display.h ****         {
ARM GAS  /tmp/ccoLrWzv.s 			page 75


 2254              		.loc 3 443 9 view .LVU465
 2255              	.LBE1270:
 2256              	.LBE1226:
 471:../../libdaisy/src/hid/disp/display.h **** 
 2257              		.loc 3 471 5 view .LVU466
 2258 0240 0998     		ldr	r0, [sp, #36]
 2259 0242 0BB0     		add	sp, sp, #44
 2260              		.cfi_remember_state
 2261              		.cfi_def_cfa_offset 36
 2262              		@ sp needed
 2263 0244 BDE8F08F 		pop	{r4, r5, r6, r7, r8, r9, r10, fp, pc}
 2264              	.LVL160:
 2265              	.L135:
 2266              		.cfi_restore_state
 2267              	.LBB1272:
 2268              	.LBB1206:
 250:../../libdaisy/src/hid/disp/graphics_common.h ****                 return {int16_t(x_ + (other.GetCenterX() - GetCenterX())),
 2269              		.loc 16 250 13 is_stmt 1 view .LVU467
 251:../../libdaisy/src/hid/disp/graphics_common.h ****                         int16_t(y_ + (other.GetCenterY() - GetCenterY())),
 2270              		.loc 16 251 17 view .LVU468
 2271              	.LBB1037:
 2272              	.LBI1037:
  62:../../libdaisy/src/hid/disp/graphics_common.h ****     int16_t GetCenterY() const { return y_ + height_ / 2; }
 2273              		.loc 16 62 13 view .LVU469
 2274              	.LBB1038:
  62:../../libdaisy/src/hid/disp/graphics_common.h ****     int16_t GetCenterY() const { return y_ + height_ / 2; }
 2275              		.loc 16 62 34 view .LVU470
  62:../../libdaisy/src/hid/disp/graphics_common.h ****     int16_t GetCenterY() const { return y_ + height_ / 2; }
 2276              		.loc 16 62 34 is_stmt 0 view .LVU471
 2277              	.LBE1038:
 2278              	.LBE1037:
 2279              	.LBB1042:
 2280              	.LBI1042:
  62:../../libdaisy/src/hid/disp/graphics_common.h ****     int16_t GetCenterY() const { return y_ + height_ / 2; }
 2281              		.loc 16 62 13 is_stmt 1 view .LVU472
 2282              	.LBB1043:
  62:../../libdaisy/src/hid/disp/graphics_common.h ****     int16_t GetCenterY() const { return y_ + height_ / 2; }
 2283              		.loc 16 62 34 view .LVU473
 2284              	.LBE1043:
 2285              	.LBE1042:
 2286              	.LBB1044:
 2287              	.LBB1039:
  62:../../libdaisy/src/hid/disp/graphics_common.h ****     int16_t GetCenterY() const { return y_ + height_ / 2; }
 2288              		.loc 16 62 53 is_stmt 0 view .LVU474
 2289 0248 B6F90400 		ldrsh	r0, [r6, #4]
  62:../../libdaisy/src/hid/disp/graphics_common.h ****     int16_t GetCenterY() const { return y_ + height_ / 2; }
 2290              		.loc 16 62 44 view .LVU475
 2291 024c 3788     		ldrh	r7, [r6]
  62:../../libdaisy/src/hid/disp/graphics_common.h ****     int16_t GetCenterY() const { return y_ + height_ / 2; }
 2292              		.loc 16 62 53 view .LVU476
 2293 024e 0028     		cmp	r0, #0
 2294              	.LBE1039:
 2295              	.LBE1044:
 2296              	.LBB1045:
 2297              	.LBB1018:
  63:../../libdaisy/src/hid/disp/graphics_common.h **** 
 2298              		.loc 16 63 54 view .LVU477
ARM GAS  /tmp/ccoLrWzv.s 			page 76


 2299 0250 B6F90630 		ldrsh	r3, [r6, #6]
 2300              	.LVL161:
  63:../../libdaisy/src/hid/disp/graphics_common.h **** 
 2301              		.loc 16 63 54 view .LVU478
 2302              	.LBE1018:
 2303              	.LBE1045:
 2304              	.LBB1046:
 2305              	.LBB1040:
  62:../../libdaisy/src/hid/disp/graphics_common.h ****     int16_t GetCenterY() const { return y_ + height_ / 2; }
 2306              		.loc 16 62 53 view .LVU479
 2307 0254 B8BF     		it	lt
 2308 0256 0130     		addlt	r0, r0, #1
 2309              	.LBE1040:
 2310              	.LBE1046:
 2311              	.LBB1047:
 2312              	.LBB1019:
  63:../../libdaisy/src/hid/disp/graphics_common.h **** 
 2313              		.loc 16 63 54 view .LVU480
 2314 0258 002B     		cmp	r3, #0
 2315              	.LBE1019:
 2316              	.LBE1047:
 2317              	.LBB1048:
 2318              	.LBB1041:
  62:../../libdaisy/src/hid/disp/graphics_common.h ****     int16_t GetCenterY() const { return y_ + height_ / 2; }
 2319              		.loc 16 62 44 view .LVU481
 2320 025a 07EB6007 		add	r7, r7, r0, asr #1
 2321              	.LBE1041:
 2322              	.LBE1048:
 251:../../libdaisy/src/hid/disp/graphics_common.h ****                         int16_t(y_ + (other.GetCenterY() - GetCenterY())),
 2323              		.loc 16 251 58 view .LVU482
 2324 025e A7EB6207 		sub	r7, r7, r2, asr #1
 2325 0262 BFB2     		uxth	r7, r7
 2326              	.LBB1049:
 2327              	.LBI1015:
  63:../../libdaisy/src/hid/disp/graphics_common.h **** 
 2328              		.loc 16 63 13 is_stmt 1 view .LVU483
 2329              	.LVL162:
 2330              	.LBB1020:
  63:../../libdaisy/src/hid/disp/graphics_common.h **** 
 2331              		.loc 16 63 34 view .LVU484
  63:../../libdaisy/src/hid/disp/graphics_common.h **** 
 2332              		.loc 16 63 34 is_stmt 0 view .LVU485
 2333              	.LBE1020:
 2334              	.LBE1049:
 2335              	.LBB1050:
 2336              	.LBI1050:
  63:../../libdaisy/src/hid/disp/graphics_common.h **** 
 2337              		.loc 16 63 13 is_stmt 1 view .LVU486
 2338              	.LBB1051:
  63:../../libdaisy/src/hid/disp/graphics_common.h **** 
 2339              		.loc 16 63 34 view .LVU487
 2340              	.LBE1051:
 2341              	.LBE1050:
 2342              	.LBB1052:
 2343              	.LBB1021:
  63:../../libdaisy/src/hid/disp/graphics_common.h **** 
 2344              		.loc 16 63 54 is_stmt 0 view .LVU488
ARM GAS  /tmp/ccoLrWzv.s 			page 77


 2345 0264 BFF604AF 		bge	.L142
 2346              	.LVL163:
 2347              	.L199:
  63:../../libdaisy/src/hid/disp/graphics_common.h **** 
 2348              		.loc 16 63 54 view .LVU489
 2349 0268 0133     		adds	r3, r3, #1
 2350 026a 01E7     		b	.L142
 2351              	.LVL164:
 2352              	.L134:
  63:../../libdaisy/src/hid/disp/graphics_common.h **** 
 2353              		.loc 16 63 54 view .LVU490
 2354              	.LBE1021:
 2355              	.LBE1052:
 213:../../libdaisy/src/hid/disp/graphics_common.h ****                 return {other.x_, other.y_, width_, height_};
 2356              		.loc 16 213 13 is_stmt 1 view .LVU491
 214:../../libdaisy/src/hid/disp/graphics_common.h ****             case Alignment::topRight:
 2357              		.loc 16 214 17 view .LVU492
 214:../../libdaisy/src/hid/disp/graphics_common.h ****             case Alignment::topRight:
 2358              		.loc 16 214 31 is_stmt 0 view .LVU493
 2359 026c B6F90070 		ldrsh	r7, [r6]
 2360              	.LBB1053:
 2361              	.LBB1054:
 2362              	.LBB1055:
  32:../../libdaisy/src/hid/disp/graphics_common.h ****     {
 2363              		.loc 16 32 66 view .LVU494
 2364 0270 099B     		ldr	r3, [sp, #36]
 2365              	.LVL165:
  32:../../libdaisy/src/hid/disp/graphics_common.h ****     {
 2366              		.loc 16 32 66 view .LVU495
 2367              	.LBE1055:
 2368              	.LBE1054:
 2369              	.LBE1053:
 214:../../libdaisy/src/hid/disp/graphics_common.h ****             case Alignment::topRight:
 2370              		.loc 16 214 41 view .LVU496
 2371 0272 B6F90260 		ldrsh	r6, [r6, #2]
 2372              	.LVL166:
 2373              	.LBB1064:
 2374              	.LBI1053:
  31:../../libdaisy/src/hid/disp/graphics_common.h ****     : x_(x), y_(y), width_(max(0, width)), height_(max(0, height))
 2375              		.loc 16 31 5 is_stmt 1 view .LVU497
 2376              	.LBB1061:
 2377              	.LBB1058:
  32:../../libdaisy/src/hid/disp/graphics_common.h ****     {
 2378              		.loc 16 32 66 is_stmt 0 view .LVU498
 2379 0276 1F80     		strh	r7, [r3]	@ movhi
 2380 0278 BFB2     		uxth	r7, r7
 2381              	.LVL167:
  32:../../libdaisy/src/hid/disp/graphics_common.h ****     {
 2382              		.loc 16 32 66 view .LVU499
 2383 027a 5E80     		strh	r6, [r3, #2]	@ movhi
 2384              	.LVL168:
 2385              	.LBB1056:
 2386              	.LBI1056:
 2387              		.loc 16 261 13 is_stmt 1 view .LVU500
 2388              		.loc 16 261 13 is_stmt 0 view .LVU501
 2389              	.LBE1056:
 2390              	.LBE1058:
ARM GAS  /tmp/ccoLrWzv.s 			page 78


 2391              	.LBE1061:
 2392              	.LBE1064:
 2393              	.LBE1206:
 2394              	.LBE1272:
 2395              		.loc 16 261 41 is_stmt 1 view .LVU502
 2396              		.loc 16 261 41 is_stmt 0 view .LVU503
 2397 027c B6B2     		uxth	r6, r6
 2398              	.LVL169:
 2399              	.LBB1273:
 2400              	.LBB1207:
 2401              	.LBB1065:
 2402              	.LBB1062:
 2403              	.LBB1059:
  32:../../libdaisy/src/hid/disp/graphics_common.h ****     {
 2404              		.loc 16 32 66 view .LVU504
 2405 027e 9A80     		strh	r2, [r3, #4]	@ movhi
 2406              	.LVL170:
 2407              	.LBB1057:
 2408              	.LBI1057:
 2409              		.loc 16 261 13 is_stmt 1 view .LVU505
 2410              		.loc 16 261 13 is_stmt 0 view .LVU506
 2411              	.LBE1057:
 2412              	.LBE1059:
 2413              	.LBE1062:
 2414              	.LBE1065:
 2415              	.LBE1207:
 2416              	.LBE1273:
 2417              		.loc 16 261 41 is_stmt 1 view .LVU507
 2418              	.LBB1274:
 2419              	.LBB1208:
 2420              	.LBB1066:
 2421              	.LBB1063:
 2422              	.LBB1060:
  32:../../libdaisy/src/hid/disp/graphics_common.h ****     {
 2423              		.loc 16 32 66 is_stmt 0 view .LVU508
 2424 0280 D980     		strh	r1, [r3, #6]	@ movhi
 2425              	.LBE1060:
  34:../../libdaisy/src/hid/disp/graphics_common.h **** 
 2426              		.loc 16 34 5 view .LVU509
 2427 0282 02E7     		b	.L136
 2428              	.LVL171:
 2429              	.L133:
  34:../../libdaisy/src/hid/disp/graphics_common.h **** 
 2430              		.loc 16 34 5 view .LVU510
 2431              	.LBE1063:
 2432              	.LBE1066:
 220:../../libdaisy/src/hid/disp/graphics_common.h ****                 return {int16_t(x_ + (other.GetCenterX() - GetCenterX())),
 2433              		.loc 16 220 13 is_stmt 1 view .LVU511
 221:../../libdaisy/src/hid/disp/graphics_common.h ****                         other.y_,
 2434              		.loc 16 221 17 view .LVU512
 2435              	.LBB1067:
 2436              	.LBI1067:
  62:../../libdaisy/src/hid/disp/graphics_common.h ****     int16_t GetCenterY() const { return y_ + height_ / 2; }
 2437              		.loc 16 62 13 view .LVU513
 2438              	.LBB1068:
  62:../../libdaisy/src/hid/disp/graphics_common.h ****     int16_t GetCenterY() const { return y_ + height_ / 2; }
 2439              		.loc 16 62 34 view .LVU514
ARM GAS  /tmp/ccoLrWzv.s 			page 79


  62:../../libdaisy/src/hid/disp/graphics_common.h ****     int16_t GetCenterY() const { return y_ + height_ / 2; }
 2440              		.loc 16 62 34 is_stmt 0 view .LVU515
 2441              	.LBE1068:
 2442              	.LBE1067:
 2443              	.LBB1071:
 2444              	.LBI1071:
  62:../../libdaisy/src/hid/disp/graphics_common.h ****     int16_t GetCenterY() const { return y_ + height_ / 2; }
 2445              		.loc 16 62 13 is_stmt 1 view .LVU516
 2446              	.LBB1072:
  62:../../libdaisy/src/hid/disp/graphics_common.h ****     int16_t GetCenterY() const { return y_ + height_ / 2; }
 2447              		.loc 16 62 34 view .LVU517
 2448              	.LBE1072:
 2449              	.LBE1071:
 2450              	.LBB1073:
 2451              	.LBB1069:
  62:../../libdaisy/src/hid/disp/graphics_common.h ****     int16_t GetCenterY() const { return y_ + height_ / 2; }
 2452              		.loc 16 62 53 is_stmt 0 view .LVU518
 2453 0284 B6F90430 		ldrsh	r3, [r6, #4]
 2454              	.LVL172:
  62:../../libdaisy/src/hid/disp/graphics_common.h ****     int16_t GetCenterY() const { return y_ + height_ / 2; }
 2455              		.loc 16 62 44 view .LVU519
 2456 0288 3788     		ldrh	r7, [r6]
  62:../../libdaisy/src/hid/disp/graphics_common.h ****     int16_t GetCenterY() const { return y_ + height_ / 2; }
 2457              		.loc 16 62 53 view .LVU520
 2458 028a 002B     		cmp	r3, #0
 2459              	.LBE1069:
 2460              	.LBE1073:
 222:../../libdaisy/src/hid/disp/graphics_common.h ****                         width_,
 2461              		.loc 16 222 31 view .LVU521
 2462 028c B6F90260 		ldrsh	r6, [r6, #2]
 2463              	.LVL173:
 2464              	.LBB1074:
 2465              	.LBB1070:
  62:../../libdaisy/src/hid/disp/graphics_common.h ****     int16_t GetCenterY() const { return y_ + height_ / 2; }
 2466              		.loc 16 62 53 view .LVU522
 2467 0290 B8BF     		it	lt
 2468 0292 0133     		addlt	r3, r3, #1
  62:../../libdaisy/src/hid/disp/graphics_common.h ****     int16_t GetCenterY() const { return y_ + height_ / 2; }
 2469              		.loc 16 62 44 view .LVU523
 2470 0294 07EB6307 		add	r7, r7, r3, asr #1
 2471              	.LBE1070:
 2472              	.LBE1074:
 2473              	.LBB1075:
 2474              	.LBB1076:
 2475              	.LBB1077:
  32:../../libdaisy/src/hid/disp/graphics_common.h ****     {
 2476              		.loc 16 32 66 view .LVU524
 2477 0298 099B     		ldr	r3, [sp, #36]
 2478 029a 9A80     		strh	r2, [r3, #4]	@ movhi
 2479              	.LBE1077:
 2480              	.LBE1076:
 2481              	.LBE1075:
 221:../../libdaisy/src/hid/disp/graphics_common.h ****                         other.y_,
 2482              		.loc 16 221 58 view .LVU525
