ARM GAS  /tmp/ccoLrWzv.s 			page 1


   1              		.cpu cortex-m7
   2              		.eabi_attribute 28, 1
   3              		.eabi_attribute 20, 1
   4              		.eabi_attribute 21, 1
   5              		.eabi_attribute 23, 3
   6              		.eabi_attribute 24, 1
   7              		.eabi_attribute 25, 1
   8              		.eabi_attribute 26, 1
   9              		.eabi_attribute 30, 2
  10              		.eabi_attribute 34, 1
  11              		.eabi_attribute 18, 4
  12              		.file	"Midi.cpp"
  13              		.text
  14              	.Ltext0:
  15              		.cfi_sections	.debug_frame
  16              		.section	.text._ZN5daisy10DaisyPatchD2Ev,"axG",%progbits,_ZN5daisy10DaisyPatchD5Ev,comdat
  17              		.align	1
  18              		.p2align 2,,3
  19              		.weak	_ZN5daisy10DaisyPatchD2Ev
  20              		.arch armv7e-m
  21              		.syntax unified
  22              		.thumb
  23              		.thumb_func
  24              		.fpu fpv5-d16
  26              	_ZN5daisy10DaisyPatchD2Ev:
  27              	.LVL0:
  28              	.LFB2060:
  29              		.file 1 "../../libdaisy/src/daisy_patch.h"
   1:../../libdaisy/src/daisy_patch.h **** #pragma once
   2:../../libdaisy/src/daisy_patch.h **** #ifndef DSY_PATCH_BSP_H
   3:../../libdaisy/src/daisy_patch.h **** #define DSY_PATCH_BSP_H
   4:../../libdaisy/src/daisy_patch.h **** #include "daisy_seed.h"
   5:../../libdaisy/src/daisy_patch.h **** #include "dev/oled_ssd130x.h"
   6:../../libdaisy/src/daisy_patch.h **** 
   7:../../libdaisy/src/daisy_patch.h **** namespace daisy
   8:../../libdaisy/src/daisy_patch.h **** {
   9:../../libdaisy/src/daisy_patch.h **** /**
  10:../../libdaisy/src/daisy_patch.h ****     @brief Class that handles initializing all of the hardware specific to the Daisy Patch Board. \
  11:../../libdaisy/src/daisy_patch.h ****     Helper funtions are also in place to provide easy access to built-in controls and peripherals.
  12:../../libdaisy/src/daisy_patch.h ****     @author Stephen Hensley
  13:../../libdaisy/src/daisy_patch.h ****     @date November 2019
  14:../../libdaisy/src/daisy_patch.h ****     @ingroup boards
  15:../../libdaisy/src/daisy_patch.h **** */
  16:../../libdaisy/src/daisy_patch.h **** class DaisyPatch
  17:../../libdaisy/src/daisy_patch.h **** {
  18:../../libdaisy/src/daisy_patch.h ****   public:
  19:../../libdaisy/src/daisy_patch.h ****     /** Enum of Ctrls to represent the four CV/Knob combos on the Patch
  20:../../libdaisy/src/daisy_patch.h ****      */
  21:../../libdaisy/src/daisy_patch.h ****     enum Ctrl
  22:../../libdaisy/src/daisy_patch.h ****     {
  23:../../libdaisy/src/daisy_patch.h ****         CTRL_1,    /**< */
  24:../../libdaisy/src/daisy_patch.h ****         CTRL_2,    /**< */
  25:../../libdaisy/src/daisy_patch.h ****         CTRL_3,    /**< */
  26:../../libdaisy/src/daisy_patch.h ****         CTRL_4,    /**< */
  27:../../libdaisy/src/daisy_patch.h ****         CTRL_LAST, /**< */
  28:../../libdaisy/src/daisy_patch.h ****     };
  29:../../libdaisy/src/daisy_patch.h **** 
ARM GAS  /tmp/ccoLrWzv.s 			page 2


  30:../../libdaisy/src/daisy_patch.h ****     /** Daisy patch gate inputs */
  31:../../libdaisy/src/daisy_patch.h ****     enum GateInput
  32:../../libdaisy/src/daisy_patch.h ****     {
  33:../../libdaisy/src/daisy_patch.h ****         GATE_IN_1,    /**< */
  34:../../libdaisy/src/daisy_patch.h ****         GATE_IN_2,    /** <*/
  35:../../libdaisy/src/daisy_patch.h ****         GATE_IN_LAST, /**< */
  36:../../libdaisy/src/daisy_patch.h ****     };
  37:../../libdaisy/src/daisy_patch.h **** 
  38:../../libdaisy/src/daisy_patch.h ****     /** Constructor */
  39:../../libdaisy/src/daisy_patch.h ****     DaisyPatch() {}
  40:../../libdaisy/src/daisy_patch.h ****     /** Destructor */
  41:../../libdaisy/src/daisy_patch.h ****     ~DaisyPatch() {}
  30              		.loc 1 41 5 view -0
  31              		.cfi_startproc
  32              		@ args = 0, pretend = 0, frame = 0
  33              		@ frame_needed = 0, uses_anonymous_args = 0
  34              		@ link register save eliminated.
  35              	.LBB647:
  36              	.LBI647:
  37              		.file 2 "../../libdaisy/src/hid/disp/oled_display.h"
   1:../../libdaisy/src/hid/disp/oled_display.h **** #pragma once
   2:../../libdaisy/src/hid/disp/oled_display.h **** #ifndef DSY_OLED_DISPLAY_H
   3:../../libdaisy/src/hid/disp/oled_display.h **** #define DSY_OLED_DISPLAY_H /**< Macro */
   4:../../libdaisy/src/hid/disp/oled_display.h **** 
   5:../../libdaisy/src/hid/disp/oled_display.h **** #include "display.h"
   6:../../libdaisy/src/hid/disp/oled_display.h **** 
   7:../../libdaisy/src/hid/disp/oled_display.h **** namespace daisy
   8:../../libdaisy/src/hid/disp/oled_display.h **** {
   9:../../libdaisy/src/hid/disp/oled_display.h **** /** 
  10:../../libdaisy/src/hid/disp/oled_display.h ****  * This class is for drawing to a monochrome OLED display. 
  11:../../libdaisy/src/hid/disp/oled_display.h **** */
  12:../../libdaisy/src/hid/disp/oled_display.h **** template <typename DisplayDriver>
  13:../../libdaisy/src/hid/disp/oled_display.h **** class OledDisplay : public OneBitGraphicsDisplayImpl<OledDisplay<DisplayDriver>>
  14:../../libdaisy/src/hid/disp/oled_display.h **** {
  15:../../libdaisy/src/hid/disp/oled_display.h ****   public:
  16:../../libdaisy/src/hid/disp/oled_display.h ****     OledDisplay() {}
  17:../../libdaisy/src/hid/disp/oled_display.h ****     virtual ~OledDisplay() {}
  38              		.loc 2 17 13 view .LVU1
  39              	.LBB648:
  40              	.LBI648:
  41              		.file 3 "../../libdaisy/src/hid/disp/display.h"
   1:../../libdaisy/src/hid/disp/display.h **** #pragma once
   2:../../libdaisy/src/hid/disp/display.h **** #ifndef DSY_DISPLAY_H
   3:../../libdaisy/src/hid/disp/display.h **** #define DSY_DISPLAY_H /**< Macro */
   4:../../libdaisy/src/hid/disp/display.h **** #include <cmath>
   5:../../libdaisy/src/hid/disp/display.h **** #include "util/oled_fonts.h"
   6:../../libdaisy/src/hid/disp/display.h **** #include "daisy_core.h"
   7:../../libdaisy/src/hid/disp/display.h **** #include "graphics_common.h"
   8:../../libdaisy/src/hid/disp/display.h **** 
   9:../../libdaisy/src/hid/disp/display.h **** #ifndef deg2rad
  10:../../libdaisy/src/hid/disp/display.h **** #define deg2rad(deg) ((deg)*3.141592 / 180.0)
  11:../../libdaisy/src/hid/disp/display.h **** #endif
  12:../../libdaisy/src/hid/disp/display.h **** 
  13:../../libdaisy/src/hid/disp/display.h **** namespace daisy
  14:../../libdaisy/src/hid/disp/display.h **** {
  15:../../libdaisy/src/hid/disp/display.h **** /** 
  16:../../libdaisy/src/hid/disp/display.h ****  * This interface is used as a base class for all types of 1bit-per-pixel
ARM GAS  /tmp/ccoLrWzv.s 			page 3


  17:../../libdaisy/src/hid/disp/display.h ****  * graphics displays.
  18:../../libdaisy/src/hid/disp/display.h **** */
  19:../../libdaisy/src/hid/disp/display.h **** class OneBitGraphicsDisplay
  20:../../libdaisy/src/hid/disp/display.h **** {
  21:../../libdaisy/src/hid/disp/display.h ****   public:
  22:../../libdaisy/src/hid/disp/display.h ****     OneBitGraphicsDisplay() {}
  23:../../libdaisy/src/hid/disp/display.h ****     virtual ~OneBitGraphicsDisplay() {}
  24:../../libdaisy/src/hid/disp/display.h **** 
  25:../../libdaisy/src/hid/disp/display.h ****     virtual uint16_t Height() const = 0;
  26:../../libdaisy/src/hid/disp/display.h ****     virtual uint16_t Width() const  = 0;
  27:../../libdaisy/src/hid/disp/display.h **** 
  28:../../libdaisy/src/hid/disp/display.h ****     Rectangle GetBounds() const
  29:../../libdaisy/src/hid/disp/display.h ****     {
  30:../../libdaisy/src/hid/disp/display.h ****         return Rectangle(int16_t(Width()), int16_t(Height()));
  31:../../libdaisy/src/hid/disp/display.h ****     }
  32:../../libdaisy/src/hid/disp/display.h **** 
  33:../../libdaisy/src/hid/disp/display.h **** 
  34:../../libdaisy/src/hid/disp/display.h ****     size_t CurrentX() { return currentX_; };
  35:../../libdaisy/src/hid/disp/display.h ****     size_t CurrentY() { return currentY_; };
  36:../../libdaisy/src/hid/disp/display.h **** 
  37:../../libdaisy/src/hid/disp/display.h ****     /** 
  38:../../libdaisy/src/hid/disp/display.h ****     Fills the entire display with either on/off.
  39:../../libdaisy/src/hid/disp/display.h ****     \param on Sets on or off.
  40:../../libdaisy/src/hid/disp/display.h ****     */
  41:../../libdaisy/src/hid/disp/display.h ****     virtual void Fill(bool on) = 0;
  42:../../libdaisy/src/hid/disp/display.h **** 
  43:../../libdaisy/src/hid/disp/display.h ****     /**
  44:../../libdaisy/src/hid/disp/display.h ****     Sets the pixel at the specified coordinate to be on/off.
  45:../../libdaisy/src/hid/disp/display.h ****     \param x   x Coordinate
  46:../../libdaisy/src/hid/disp/display.h ****     \param y   y coordinate
  47:../../libdaisy/src/hid/disp/display.h ****     \param on  on or off
  48:../../libdaisy/src/hid/disp/display.h ****     */
  49:../../libdaisy/src/hid/disp/display.h ****     virtual void DrawPixel(uint_fast8_t x, uint_fast8_t y, bool on) = 0;
  50:../../libdaisy/src/hid/disp/display.h **** 
  51:../../libdaisy/src/hid/disp/display.h ****     /**
  52:../../libdaisy/src/hid/disp/display.h ****     Draws a line from (x1, y1) to (y1, y2)
  53:../../libdaisy/src/hid/disp/display.h ****     \param x1  x Coordinate of the starting point
  54:../../libdaisy/src/hid/disp/display.h ****     \param y1  y Coordinate of the starting point
  55:../../libdaisy/src/hid/disp/display.h ****     \param x2  x Coordinate of the ending point
  56:../../libdaisy/src/hid/disp/display.h ****     \param y2  y Coordinate of the ending point
  57:../../libdaisy/src/hid/disp/display.h ****     \param on  on or off
  58:../../libdaisy/src/hid/disp/display.h ****     */
  59:../../libdaisy/src/hid/disp/display.h ****     virtual void DrawLine(uint_fast8_t x1,
  60:../../libdaisy/src/hid/disp/display.h ****                           uint_fast8_t y1,
  61:../../libdaisy/src/hid/disp/display.h ****                           uint_fast8_t x2,
  62:../../libdaisy/src/hid/disp/display.h ****                           uint_fast8_t y2,
  63:../../libdaisy/src/hid/disp/display.h ****                           bool         on)
  64:../../libdaisy/src/hid/disp/display.h ****         = 0;
  65:../../libdaisy/src/hid/disp/display.h **** 
  66:../../libdaisy/src/hid/disp/display.h ****     /**
  67:../../libdaisy/src/hid/disp/display.h ****     Draws a rectangle based on two coordinates.
  68:../../libdaisy/src/hid/disp/display.h ****     \param x1 x Coordinate of the first point
  69:../../libdaisy/src/hid/disp/display.h ****     \param y1 y Coordinate of the first point
  70:../../libdaisy/src/hid/disp/display.h ****     \param x2 x Coordinate of the second point
  71:../../libdaisy/src/hid/disp/display.h ****     \param y2 y Coordinate of the second point
  72:../../libdaisy/src/hid/disp/display.h ****     \param on on or off
  73:../../libdaisy/src/hid/disp/display.h ****     \param fill fill the rectangle or draw only the outline
ARM GAS  /tmp/ccoLrWzv.s 			page 4


  74:../../libdaisy/src/hid/disp/display.h ****     */
  75:../../libdaisy/src/hid/disp/display.h ****     virtual void DrawRect(uint_fast8_t x1,
  76:../../libdaisy/src/hid/disp/display.h ****                           uint_fast8_t y1,
  77:../../libdaisy/src/hid/disp/display.h ****                           uint_fast8_t x2,
  78:../../libdaisy/src/hid/disp/display.h ****                           uint_fast8_t y2,
  79:../../libdaisy/src/hid/disp/display.h ****                           bool         on,
  80:../../libdaisy/src/hid/disp/display.h ****                           bool         fill = false)
  81:../../libdaisy/src/hid/disp/display.h ****         = 0;
  82:../../libdaisy/src/hid/disp/display.h **** 
  83:../../libdaisy/src/hid/disp/display.h ****     /**
  84:../../libdaisy/src/hid/disp/display.h ****     Draws a rectangle.
  85:../../libdaisy/src/hid/disp/display.h ****     \param rect the rectangle
  86:../../libdaisy/src/hid/disp/display.h ****     \param on   on or off
  87:../../libdaisy/src/hid/disp/display.h ****     \param fill fill the rectangle or draw only the outline
  88:../../libdaisy/src/hid/disp/display.h ****     */
  89:../../libdaisy/src/hid/disp/display.h ****     void DrawRect(const Rectangle& rect, bool on, bool fill = false)
  90:../../libdaisy/src/hid/disp/display.h ****     {
  91:../../libdaisy/src/hid/disp/display.h ****         DrawRect(rect.GetX(),
  92:../../libdaisy/src/hid/disp/display.h ****                  rect.GetY(),
  93:../../libdaisy/src/hid/disp/display.h ****                  rect.GetRight(),
  94:../../libdaisy/src/hid/disp/display.h ****                  rect.GetBottom(),
  95:../../libdaisy/src/hid/disp/display.h ****                  on,
  96:../../libdaisy/src/hid/disp/display.h ****                  fill);
  97:../../libdaisy/src/hid/disp/display.h ****     }
  98:../../libdaisy/src/hid/disp/display.h **** 
  99:../../libdaisy/src/hid/disp/display.h ****     /**
 100:../../libdaisy/src/hid/disp/display.h ****     Draws an arc around the specified coordinate
 101:../../libdaisy/src/hid/disp/display.h ****     \param x           x Coordinate of the center of the arc
 102:../../libdaisy/src/hid/disp/display.h ****     \param y           y Coordinate of the center of the arc
 103:../../libdaisy/src/hid/disp/display.h ****     \param radius      radius of the arc
 104:../../libdaisy/src/hid/disp/display.h ****     \param start_angle angle where to start the arc
 105:../../libdaisy/src/hid/disp/display.h ****     \param sweep       total angle of the arc
 106:../../libdaisy/src/hid/disp/display.h ****     \param on  on or off
 107:../../libdaisy/src/hid/disp/display.h ****     */
 108:../../libdaisy/src/hid/disp/display.h ****     virtual void DrawArc(uint_fast8_t x,
 109:../../libdaisy/src/hid/disp/display.h ****                          uint_fast8_t y,
 110:../../libdaisy/src/hid/disp/display.h ****                          uint_fast8_t radius,
 111:../../libdaisy/src/hid/disp/display.h ****                          int_fast16_t start_angle,
 112:../../libdaisy/src/hid/disp/display.h ****                          int_fast16_t sweep,
 113:../../libdaisy/src/hid/disp/display.h ****                          bool         on)
 114:../../libdaisy/src/hid/disp/display.h ****         = 0;
 115:../../libdaisy/src/hid/disp/display.h **** 
 116:../../libdaisy/src/hid/disp/display.h ****     /**
 117:../../libdaisy/src/hid/disp/display.h ****     Draws a circle around the specified coordinate
 118:../../libdaisy/src/hid/disp/display.h ****     \param x           x Coordinate of the center of the circle
 119:../../libdaisy/src/hid/disp/display.h ****     \param y           y Coordinate of the center of the circle
 120:../../libdaisy/src/hid/disp/display.h ****     \param radius      radius of the circle
 121:../../libdaisy/src/hid/disp/display.h ****     \param on  on or off
 122:../../libdaisy/src/hid/disp/display.h ****     */
 123:../../libdaisy/src/hid/disp/display.h ****     void
 124:../../libdaisy/src/hid/disp/display.h ****     DrawCircle(uint_fast8_t x, uint_fast8_t y, uint_fast8_t radius, bool on)
 125:../../libdaisy/src/hid/disp/display.h ****     {
 126:../../libdaisy/src/hid/disp/display.h ****         DrawArc(x, y, radius, 0, 360, on);
 127:../../libdaisy/src/hid/disp/display.h ****     };
 128:../../libdaisy/src/hid/disp/display.h **** 
 129:../../libdaisy/src/hid/disp/display.h ****     /** 
 130:../../libdaisy/src/hid/disp/display.h ****     Writes the character with the specific FontDef
ARM GAS  /tmp/ccoLrWzv.s 			page 5


 131:../../libdaisy/src/hid/disp/display.h ****     to the display buffer at the current Cursor position.
 132:../../libdaisy/src/hid/disp/display.h ****     \param ch character to be written
 133:../../libdaisy/src/hid/disp/display.h ****     \param font font to be written in
 134:../../libdaisy/src/hid/disp/display.h ****     \param on    on or off
 135:../../libdaisy/src/hid/disp/display.h ****     \return &
 136:../../libdaisy/src/hid/disp/display.h ****     */
 137:../../libdaisy/src/hid/disp/display.h ****     virtual char WriteChar(char ch, FontDef font, bool on) = 0;
 138:../../libdaisy/src/hid/disp/display.h **** 
 139:../../libdaisy/src/hid/disp/display.h ****     /** 
 140:../../libdaisy/src/hid/disp/display.h ****     Similar to WriteChar, except it will handle an entire String.
 141:../../libdaisy/src/hid/disp/display.h ****     Wrapping does not happen automatically, so the width
 142:../../libdaisy/src/hid/disp/display.h ****     of the string must be kept within the dimensions of the screen.
 143:../../libdaisy/src/hid/disp/display.h ****     \param str string to be written
 144:../../libdaisy/src/hid/disp/display.h ****     \param font font to use
 145:../../libdaisy/src/hid/disp/display.h ****     \param on  on or off
 146:../../libdaisy/src/hid/disp/display.h ****     \return &
 147:../../libdaisy/src/hid/disp/display.h ****     */
 148:../../libdaisy/src/hid/disp/display.h ****     virtual char WriteString(const char* str, FontDef font, bool on) = 0;
 149:../../libdaisy/src/hid/disp/display.h **** 
 150:../../libdaisy/src/hid/disp/display.h ****     /** 
 151:../../libdaisy/src/hid/disp/display.h ****     Similar to WriteString but justified within a bounding box.
 152:../../libdaisy/src/hid/disp/display.h ****     \param str          string to be written
 153:../../libdaisy/src/hid/disp/display.h ****     \param font         font to use
 154:../../libdaisy/src/hid/disp/display.h ****     \param boundingBox  the bounding box to draw the text in
 155:../../libdaisy/src/hid/disp/display.h ****     \param alignment    the alignment to use
 156:../../libdaisy/src/hid/disp/display.h ****     \param on           on or off
 157:../../libdaisy/src/hid/disp/display.h ****     \return The rectangle that was drawn to
 158:../../libdaisy/src/hid/disp/display.h ****     */
 159:../../libdaisy/src/hid/disp/display.h ****     virtual Rectangle WriteStringAligned(const char*    str,
 160:../../libdaisy/src/hid/disp/display.h ****                                          const FontDef& font,
 161:../../libdaisy/src/hid/disp/display.h ****                                          Rectangle      boundingBox,
 162:../../libdaisy/src/hid/disp/display.h ****                                          Alignment      alignment,
 163:../../libdaisy/src/hid/disp/display.h ****                                          bool           on)
 164:../../libdaisy/src/hid/disp/display.h ****         = 0;
 165:../../libdaisy/src/hid/disp/display.h **** 
 166:../../libdaisy/src/hid/disp/display.h ****     /** 
 167:../../libdaisy/src/hid/disp/display.h ****     Moves the 'Cursor' position used for WriteChar, and WriteStr to the specified coordinate.
 168:../../libdaisy/src/hid/disp/display.h ****     \param x x pos
 169:../../libdaisy/src/hid/disp/display.h ****     \param y y pos
 170:../../libdaisy/src/hid/disp/display.h ****     */
 171:../../libdaisy/src/hid/disp/display.h ****     void SetCursor(uint16_t x, uint16_t y)
 172:../../libdaisy/src/hid/disp/display.h ****     {
 173:../../libdaisy/src/hid/disp/display.h ****         currentX_ = (x >= Width()) ? Width() - 1 : x;
 174:../../libdaisy/src/hid/disp/display.h ****         currentY_ = (y >= Height()) ? Height() - 1 : y;
 175:../../libdaisy/src/hid/disp/display.h ****     }
 176:../../libdaisy/src/hid/disp/display.h **** 
 177:../../libdaisy/src/hid/disp/display.h ****     /** 
 178:../../libdaisy/src/hid/disp/display.h ****     Writes the current display buffer to the OLED device using SPI or I2C depending on 
 179:../../libdaisy/src/hid/disp/display.h ****     how the object was initialized.
 180:../../libdaisy/src/hid/disp/display.h ****     */
 181:../../libdaisy/src/hid/disp/display.h ****     virtual void Update() = 0;
 182:../../libdaisy/src/hid/disp/display.h **** 
 183:../../libdaisy/src/hid/disp/display.h ****   protected:
 184:../../libdaisy/src/hid/disp/display.h ****     uint16_t currentX_;
 185:../../libdaisy/src/hid/disp/display.h ****     uint16_t currentY_;
 186:../../libdaisy/src/hid/disp/display.h **** };
 187:../../libdaisy/src/hid/disp/display.h **** 
ARM GAS  /tmp/ccoLrWzv.s 			page 6


 188:../../libdaisy/src/hid/disp/display.h **** /** This class is intended as a intermediary class for your actual implementation of the OneBitGrap
 189:../../libdaisy/src/hid/disp/display.h ****  *  interface. It uses the CRTP design pattern where the template argument is the child class. It p
 190:../../libdaisy/src/hid/disp/display.h ****  *  implementations for most of the functions, except DrawPixel(), Update() and Fill(), which you'l
 191:../../libdaisy/src/hid/disp/display.h ****  *  to provide in your child class.
 192:../../libdaisy/src/hid/disp/display.h ****  *  The main goal of this class is to provide common drawing functions without relying on massive a
 193:../../libdaisy/src/hid/disp/display.h ****  *  virtual function calls that would result in a performance loss. To achieve this, any drawing fu
 194:../../libdaisy/src/hid/disp/display.h ****  *  is implemented here and internally calls other drawing functions (e.g. DrawRect() which interna
 195:../../libdaisy/src/hid/disp/display.h ****  *  DrawPixel() and DrawLine()) makes these calls via the qualified name of these functions to expl
 196:../../libdaisy/src/hid/disp/display.h ****  *  suppress the virtual dispatch mechanism like this:
 197:../../libdaisy/src/hid/disp/display.h ****  * 
 198:../../libdaisy/src/hid/disp/display.h ****  *      ChildType::DrawPixel(...); // no virtual function call; direct call into the child class fu
 199:../../libdaisy/src/hid/disp/display.h ****  *  
 200:../../libdaisy/src/hid/disp/display.h ****  *  To create a custom OneBitGraphicsDisplay implementation, you can 
 201:../../libdaisy/src/hid/disp/display.h ****  *  A) inherit from OneBitGraphicsDisplay directly and provide all the drawing functions yourself
 202:../../libdaisy/src/hid/disp/display.h ****  *  B) Inherit from OneBitGraphicsDisplayImpl and only provide DrawPixel(), Fill() and Update()
 203:../../libdaisy/src/hid/disp/display.h ****  *     like this:
 204:../../libdaisy/src/hid/disp/display.h ****  *  
 205:../../libdaisy/src/hid/disp/display.h ****  *      class MyDisplayClass : public OneBitGraphicsDisplayImpl<MyDisplayClass> 
 206:../../libdaisy/src/hid/disp/display.h ****  *      {
 207:../../libdaisy/src/hid/disp/display.h ****  *      public:
 208:../../libdaisy/src/hid/disp/display.h ****  *          void Fill() override { ... };
 209:../../libdaisy/src/hid/disp/display.h ****  *          void DrawPixel(uint_fast8_t x, uint_fast8_t y, bool on) override { ... };
 210:../../libdaisy/src/hid/disp/display.h ****  *          void Update() override { ... }
 211:../../libdaisy/src/hid/disp/display.h ****  *      };
 212:../../libdaisy/src/hid/disp/display.h ****  *  
 213:../../libdaisy/src/hid/disp/display.h ****  */
 214:../../libdaisy/src/hid/disp/display.h **** template <class ChildType>
 215:../../libdaisy/src/hid/disp/display.h **** class OneBitGraphicsDisplayImpl : public OneBitGraphicsDisplay
 216:../../libdaisy/src/hid/disp/display.h **** {
 217:../../libdaisy/src/hid/disp/display.h ****   public:
 218:../../libdaisy/src/hid/disp/display.h ****     OneBitGraphicsDisplayImpl() {}
 219:../../libdaisy/src/hid/disp/display.h ****     virtual ~OneBitGraphicsDisplayImpl() {}
  42              		.loc 3 219 13 view .LVU2
  43              	.LBB649:
  44              	.LBI649:
  23:../../libdaisy/src/hid/disp/display.h **** 
  45              		.loc 3 23 13 view .LVU3
  23:../../libdaisy/src/hid/disp/display.h **** 
  46              		.loc 3 23 13 is_stmt 0 view .LVU4
  47              	.LBE649:
  48              	.LBE648:
  49              	.LBE647:
  50              	.LBB650:
  51              	.LBI650:
  52              		.file 4 "../../libdaisy/src/hid/midi.h"
   1:../../libdaisy/src/hid/midi.h **** #pragma once
   2:../../libdaisy/src/hid/midi.h **** #ifndef DSY_MIDI_H
   3:../../libdaisy/src/hid/midi.h **** #define DSY_MIDI_H
   4:../../libdaisy/src/hid/midi.h **** 
   5:../../libdaisy/src/hid/midi.h **** // TODO: make this adjustable
   6:../../libdaisy/src/hid/midi.h **** #define SYSEX_BUFFER_LEN 128
   7:../../libdaisy/src/hid/midi.h **** 
   8:../../libdaisy/src/hid/midi.h **** #include <stdint.h>
   9:../../libdaisy/src/hid/midi.h **** #include <stdlib.h>
  10:../../libdaisy/src/hid/midi.h **** #include "per/uart.h"
  11:../../libdaisy/src/hid/midi.h **** #include "util/ringbuffer.h"
  12:../../libdaisy/src/hid/midi.h **** #include "hid/MidiEvent.h"
ARM GAS  /tmp/ccoLrWzv.s 			page 7


  13:../../libdaisy/src/hid/midi.h **** #include "sys/system.h"
  14:../../libdaisy/src/hid/midi.h **** 
  15:../../libdaisy/src/hid/midi.h **** namespace daisy
  16:../../libdaisy/src/hid/midi.h **** {
  17:../../libdaisy/src/hid/midi.h **** /** @addtogroup external 
  18:../../libdaisy/src/hid/midi.h ****     @{ 
  19:../../libdaisy/src/hid/midi.h **** */
  20:../../libdaisy/src/hid/midi.h **** 
  21:../../libdaisy/src/hid/midi.h **** class MidiUartTransport
  22:../../libdaisy/src/hid/midi.h **** {
  23:../../libdaisy/src/hid/midi.h ****   public:
  24:../../libdaisy/src/hid/midi.h ****     MidiUartTransport() {}
  25:../../libdaisy/src/hid/midi.h ****     ~MidiUartTransport() {}
  26:../../libdaisy/src/hid/midi.h **** 
  27:../../libdaisy/src/hid/midi.h ****     struct Config
  28:../../libdaisy/src/hid/midi.h ****     {
  29:../../libdaisy/src/hid/midi.h ****         UartHandler::Config::Peripheral periph;
  30:../../libdaisy/src/hid/midi.h ****         dsy_gpio_pin                    rx;
  31:../../libdaisy/src/hid/midi.h ****         dsy_gpio_pin                    tx;
  32:../../libdaisy/src/hid/midi.h **** 
  33:../../libdaisy/src/hid/midi.h ****         Config()
  34:../../libdaisy/src/hid/midi.h ****         {
  35:../../libdaisy/src/hid/midi.h ****             periph = UartHandler::Config::Peripheral::USART_1;
  36:../../libdaisy/src/hid/midi.h ****             rx     = {DSY_GPIOB, 7};
  37:../../libdaisy/src/hid/midi.h ****             tx     = {DSY_GPIOB, 6};
  38:../../libdaisy/src/hid/midi.h ****         }
  39:../../libdaisy/src/hid/midi.h ****     };
  40:../../libdaisy/src/hid/midi.h **** 
  41:../../libdaisy/src/hid/midi.h ****     inline void Init(Config config)
  42:../../libdaisy/src/hid/midi.h ****     {
  43:../../libdaisy/src/hid/midi.h ****         UartHandler::Config uart_config;
  44:../../libdaisy/src/hid/midi.h **** 
  45:../../libdaisy/src/hid/midi.h ****         //defaults
  46:../../libdaisy/src/hid/midi.h ****         uart_config.baudrate   = 31250;
  47:../../libdaisy/src/hid/midi.h ****         uart_config.stopbits   = UartHandler::Config::StopBits::BITS_1;
  48:../../libdaisy/src/hid/midi.h ****         uart_config.parity     = UartHandler::Config::Parity::NONE;
  49:../../libdaisy/src/hid/midi.h ****         uart_config.mode       = UartHandler::Config::Mode::TX_RX;
  50:../../libdaisy/src/hid/midi.h ****         uart_config.wordlength = UartHandler::Config::WordLength::BITS_8;
  51:../../libdaisy/src/hid/midi.h **** 
  52:../../libdaisy/src/hid/midi.h ****         //user settings
  53:../../libdaisy/src/hid/midi.h ****         uart_config.periph        = config.periph;
  54:../../libdaisy/src/hid/midi.h ****         uart_config.pin_config.rx = config.rx;
  55:../../libdaisy/src/hid/midi.h ****         uart_config.pin_config.tx = config.tx;
  56:../../libdaisy/src/hid/midi.h **** 
  57:../../libdaisy/src/hid/midi.h ****         uart_.Init(uart_config);
  58:../../libdaisy/src/hid/midi.h ****     }
  59:../../libdaisy/src/hid/midi.h **** 
  60:../../libdaisy/src/hid/midi.h ****     inline void    StartRx() { uart_.StartRx(); }
  61:../../libdaisy/src/hid/midi.h ****     inline size_t  Readable() { return uart_.Readable(); }
  62:../../libdaisy/src/hid/midi.h ****     inline uint8_t Rx() { return uart_.PopRx(); }
  63:../../libdaisy/src/hid/midi.h ****     inline bool    RxActive() { return uart_.RxActive(); }
  64:../../libdaisy/src/hid/midi.h ****     inline void    FlushRx() { uart_.FlushRx(); }
  65:../../libdaisy/src/hid/midi.h ****     inline void    Tx(uint8_t* buff, size_t size) { uart_.PollTx(buff, size); }
  66:../../libdaisy/src/hid/midi.h **** 
  67:../../libdaisy/src/hid/midi.h ****   private:
  68:../../libdaisy/src/hid/midi.h ****     UartHandler uart_;
  69:../../libdaisy/src/hid/midi.h **** };
ARM GAS  /tmp/ccoLrWzv.s 			page 8


  70:../../libdaisy/src/hid/midi.h **** 
  71:../../libdaisy/src/hid/midi.h **** /** 
  72:../../libdaisy/src/hid/midi.h ****     @brief Simple MIDI Handler \n 
  73:../../libdaisy/src/hid/midi.h ****     Parses bytes from an input into valid MidiEvents. \n 
  74:../../libdaisy/src/hid/midi.h ****     The MidiEvents fill a FIFO queue that the user can pop messages from.
  75:../../libdaisy/src/hid/midi.h ****     @author shensley
  76:../../libdaisy/src/hid/midi.h ****     @date March 2020
  77:../../libdaisy/src/hid/midi.h **** */
  78:../../libdaisy/src/hid/midi.h **** template <typename Transport>
  79:../../libdaisy/src/hid/midi.h **** class MidiHandler
  80:../../libdaisy/src/hid/midi.h **** {
  81:../../libdaisy/src/hid/midi.h ****   public:
  82:../../libdaisy/src/hid/midi.h ****     MidiHandler() {}
  83:../../libdaisy/src/hid/midi.h ****     ~MidiHandler() {}
  53              		.loc 4 83 5 is_stmt 1 view .LVU5
  54              	.LBB651:
  55              	.LBI651:
  25:../../libdaisy/src/hid/midi.h **** 
  56              		.loc 4 25 5 view .LVU6
  25:../../libdaisy/src/hid/midi.h **** 
  57              		.loc 4 25 5 is_stmt 0 view .LVU7
  58              	.LBE651:
  59              	.LBE650:
  60              	.LBB652:
  61              	.LBI652:
  62              		.file 5 "../../libdaisy/src/hid/encoder.h"
   1:../../libdaisy/src/hid/encoder.h **** #pragma once
   2:../../libdaisy/src/hid/encoder.h **** #ifndef DSY_ENCODER_H
   3:../../libdaisy/src/hid/encoder.h **** #define DSY_ENCODER_H
   4:../../libdaisy/src/hid/encoder.h **** #include "daisy_core.h"
   5:../../libdaisy/src/hid/encoder.h **** #include "per/gpio.h"
   6:../../libdaisy/src/hid/encoder.h **** #include "hid/switch.h"
   7:../../libdaisy/src/hid/encoder.h **** 
   8:../../libdaisy/src/hid/encoder.h **** namespace daisy
   9:../../libdaisy/src/hid/encoder.h **** {
  10:../../libdaisy/src/hid/encoder.h **** /** 
  11:../../libdaisy/src/hid/encoder.h ****     @brief Generic Class for handling Quadrature Encoders \n 
  12:../../libdaisy/src/hid/encoder.h ****     Inspired/influenced by Mutable Instruments (pichenettes) Encoder classes
  13:../../libdaisy/src/hid/encoder.h ****     @author Stephen Hensley
  14:../../libdaisy/src/hid/encoder.h ****     @date December 2019
  15:../../libdaisy/src/hid/encoder.h ****     @ingroup controls
  16:../../libdaisy/src/hid/encoder.h **** */
  17:../../libdaisy/src/hid/encoder.h **** class Encoder
  18:../../libdaisy/src/hid/encoder.h **** {
  19:../../libdaisy/src/hid/encoder.h ****   public:
  20:../../libdaisy/src/hid/encoder.h ****     Encoder() {}
  21:../../libdaisy/src/hid/encoder.h ****     ~Encoder() {}
  63              		.loc 5 21 5 is_stmt 1 view .LVU8
  64              	.LBB653:
  65              	.LBI653:
  66              		.file 6 "../../libdaisy/src/hid/switch.h"
   1:../../libdaisy/src/hid/switch.h **** #pragma once
   2:../../libdaisy/src/hid/switch.h **** #ifndef DSY_SWITCH_H
   3:../../libdaisy/src/hid/switch.h **** #define DSY_SWITCH_H
   4:../../libdaisy/src/hid/switch.h **** #include "daisy_core.h"
   5:../../libdaisy/src/hid/switch.h **** #include "per/gpio.h"
   6:../../libdaisy/src/hid/switch.h **** 
ARM GAS  /tmp/ccoLrWzv.s 			page 9


   7:../../libdaisy/src/hid/switch.h **** namespace daisy
   8:../../libdaisy/src/hid/switch.h **** {
   9:../../libdaisy/src/hid/switch.h **** /** 
  10:../../libdaisy/src/hid/switch.h ****     Generic Class for handling momentary/latching switches \n 
  11:../../libdaisy/src/hid/switch.h ****     Inspired/influenced by Mutable Instruments (pichenettes) Switch classes
  12:../../libdaisy/src/hid/switch.h ****     @author Stephen Hensley
  13:../../libdaisy/src/hid/switch.h ****     @date December 2019
  14:../../libdaisy/src/hid/switch.h ****     @ingroup controls
  15:../../libdaisy/src/hid/switch.h **** */
  16:../../libdaisy/src/hid/switch.h **** class Switch
  17:../../libdaisy/src/hid/switch.h **** {
  18:../../libdaisy/src/hid/switch.h ****   public:
  19:../../libdaisy/src/hid/switch.h ****     /** Specifies the expected behavior of the switch */
  20:../../libdaisy/src/hid/switch.h ****     enum Type
  21:../../libdaisy/src/hid/switch.h ****     {
  22:../../libdaisy/src/hid/switch.h ****         TYPE_TOGGLE,    /**< & */
  23:../../libdaisy/src/hid/switch.h ****         TYPE_MOMENTARY, /**< & */
  24:../../libdaisy/src/hid/switch.h ****     };
  25:../../libdaisy/src/hid/switch.h ****     /** Specifies whether the pressed is HIGH or LOW. */
  26:../../libdaisy/src/hid/switch.h ****     enum Polarity
  27:../../libdaisy/src/hid/switch.h ****     {
  28:../../libdaisy/src/hid/switch.h ****         POLARITY_NORMAL,   /**< & */
  29:../../libdaisy/src/hid/switch.h ****         POLARITY_INVERTED, /**< & */
  30:../../libdaisy/src/hid/switch.h ****     };
  31:../../libdaisy/src/hid/switch.h **** 
  32:../../libdaisy/src/hid/switch.h ****     /** Specifies whether to use built-in Pull Up/Down resistors to hold button at a given state wh
  33:../../libdaisy/src/hid/switch.h ****     enum Pull
  34:../../libdaisy/src/hid/switch.h ****     {
  35:../../libdaisy/src/hid/switch.h ****         PULL_UP,   /**< & */
  36:../../libdaisy/src/hid/switch.h ****         PULL_DOWN, /**< & */
  37:../../libdaisy/src/hid/switch.h ****         PULL_NONE, /**< & */
  38:../../libdaisy/src/hid/switch.h ****     };
  39:../../libdaisy/src/hid/switch.h **** 
  40:../../libdaisy/src/hid/switch.h ****     Switch() {}
  41:../../libdaisy/src/hid/switch.h ****     ~Switch() {}
  67              		.loc 6 41 5 view .LVU9
  68              		.loc 6 41 5 is_stmt 0 view .LVU10
  69              	.LBE653:
  70              	.LBE652:
  71              	.LBB654:
  72              	.LBI654:
  73              		.file 7 "../../libdaisy/src/daisy_seed.h"
   1:../../libdaisy/src/daisy_seed.h **** #pragma once
   2:../../libdaisy/src/daisy_seed.h **** #ifndef DSY_SEED_H
   3:../../libdaisy/src/daisy_seed.h **** #define DSY_SEED_H
   4:../../libdaisy/src/daisy_seed.h **** 
   5:../../libdaisy/src/daisy_seed.h **** #include "daisy.h"
   6:../../libdaisy/src/daisy_seed.h **** 
   7:../../libdaisy/src/daisy_seed.h **** //Uncomment this out if you're still using the rev2 hardware
   8:../../libdaisy/src/daisy_seed.h **** //#define SEED_REV2
   9:../../libdaisy/src/daisy_seed.h **** 
  10:../../libdaisy/src/daisy_seed.h **** namespace daisy
  11:../../libdaisy/src/daisy_seed.h **** {
  12:../../libdaisy/src/daisy_seed.h **** /**
  13:../../libdaisy/src/daisy_seed.h ****    @brief This is the higher-level interface for the Daisy board. \n 
  14:../../libdaisy/src/daisy_seed.h ****     All basic peripheral configuration/initialization is setup here. \n
  15:../../libdaisy/src/daisy_seed.h **** 
ARM GAS  /tmp/ccoLrWzv.s 			page 10


  16:../../libdaisy/src/daisy_seed.h ****    @ingroup boards
  17:../../libdaisy/src/daisy_seed.h **** */
  18:../../libdaisy/src/daisy_seed.h **** class DaisySeed
  19:../../libdaisy/src/daisy_seed.h **** {
  20:../../libdaisy/src/daisy_seed.h ****   public:
  21:../../libdaisy/src/daisy_seed.h ****     DaisySeed() {}
  22:../../libdaisy/src/daisy_seed.h ****     ~DaisySeed() {}
  74              		.loc 7 22 5 is_stmt 1 view .LVU11
  75              	.LBB655:
  76              	.LBI655:
  77              		.file 8 "../../libdaisy/src/sys/system.h"
   1:../../libdaisy/src/sys/system.h **** #ifndef DSY_SYSTEM_H
   2:../../libdaisy/src/sys/system.h **** #define DSY_SYSTEM_H
   3:../../libdaisy/src/sys/system.h **** 
   4:../../libdaisy/src/sys/system.h **** #ifndef UNIT_TEST // for unit tests, a dummy implementation is provided below
   5:../../libdaisy/src/sys/system.h **** 
   6:../../libdaisy/src/sys/system.h **** #include <cstdint>
   7:../../libdaisy/src/sys/system.h **** #include "per/tim.h"
   8:../../libdaisy/src/sys/system.h **** 
   9:../../libdaisy/src/sys/system.h **** namespace daisy
  10:../../libdaisy/src/sys/system.h **** {
  11:../../libdaisy/src/sys/system.h **** /** A handle for interacting with the Core System. 
  12:../../libdaisy/src/sys/system.h ****  ** This includes the Clock tree, MPU, global DMA initialization,
  13:../../libdaisy/src/sys/system.h ****  ** cache handling, and any other necessary global initiailzation
  14:../../libdaisy/src/sys/system.h ****  **
  15:../../libdaisy/src/sys/system.h ****  ** @author shensley
  16:../../libdaisy/src/sys/system.h ****  ** @addtogroup system
  17:../../libdaisy/src/sys/system.h ****  */
  18:../../libdaisy/src/sys/system.h **** class System
  19:../../libdaisy/src/sys/system.h **** {
  20:../../libdaisy/src/sys/system.h ****   public:
  21:../../libdaisy/src/sys/system.h ****     /** Contains settings for initializing the System */
  22:../../libdaisy/src/sys/system.h ****     struct Config
  23:../../libdaisy/src/sys/system.h ****     {
  24:../../libdaisy/src/sys/system.h ****         /** Specifies the system clock frequency that feeds APB/AHB clocks, etc. */
  25:../../libdaisy/src/sys/system.h ****         enum class SysClkFreq
  26:../../libdaisy/src/sys/system.h ****         {
  27:../../libdaisy/src/sys/system.h ****             FREQ_400MHZ,
  28:../../libdaisy/src/sys/system.h ****             FREQ_480MHZ,
  29:../../libdaisy/src/sys/system.h ****         };
  30:../../libdaisy/src/sys/system.h **** 
  31:../../libdaisy/src/sys/system.h ****         /** Method to call on the struct to set to defaults
  32:../../libdaisy/src/sys/system.h ****          ** CPU Freq set to 400MHz
  33:../../libdaisy/src/sys/system.h ****          ** Cache Enabled 
  34:../../libdaisy/src/sys/system.h ****          ** */
  35:../../libdaisy/src/sys/system.h ****         void Defaults()
  36:../../libdaisy/src/sys/system.h ****         {
  37:../../libdaisy/src/sys/system.h ****             cpu_freq   = SysClkFreq::FREQ_400MHZ;
  38:../../libdaisy/src/sys/system.h ****             use_dcache = true;
  39:../../libdaisy/src/sys/system.h ****             use_icache = true;
  40:../../libdaisy/src/sys/system.h ****         }
  41:../../libdaisy/src/sys/system.h **** 
  42:../../libdaisy/src/sys/system.h ****         /** Method to call on the struct to set to boost mode:
  43:../../libdaisy/src/sys/system.h ****          ** CPU Freq set to 480MHz
  44:../../libdaisy/src/sys/system.h ****          ** Cache Enabled 
  45:../../libdaisy/src/sys/system.h ****          ** */
  46:../../libdaisy/src/sys/system.h ****         void Boost()
ARM GAS  /tmp/ccoLrWzv.s 			page 11


  47:../../libdaisy/src/sys/system.h ****         {
  48:../../libdaisy/src/sys/system.h ****             cpu_freq   = SysClkFreq::FREQ_480MHZ;
  49:../../libdaisy/src/sys/system.h ****             use_dcache = true;
  50:../../libdaisy/src/sys/system.h ****             use_icache = true;
  51:../../libdaisy/src/sys/system.h ****         }
  52:../../libdaisy/src/sys/system.h **** 
  53:../../libdaisy/src/sys/system.h ****         SysClkFreq cpu_freq;
  54:../../libdaisy/src/sys/system.h ****         bool       use_dcache;
  55:../../libdaisy/src/sys/system.h ****         bool       use_icache;
  56:../../libdaisy/src/sys/system.h ****     };
  57:../../libdaisy/src/sys/system.h **** 
  58:../../libdaisy/src/sys/system.h ****     System() {}
  59:../../libdaisy/src/sys/system.h ****     ~System() {}
  78              		.loc 8 59 5 view .LVU12
  79              		.loc 8 59 5 is_stmt 0 view .LVU13
  80              	.LBE655:
  81              	.LBB656:
  82              	.LBI656:
  83              		.file 9 "../../libdaisy/src/hid/usb.h"
   1:../../libdaisy/src/hid/usb.h **** #pragma once
   2:../../libdaisy/src/hid/usb.h **** #ifndef DSY_HID_USB_H
   3:../../libdaisy/src/hid/usb.h **** #define DSY_HID_USB_H
   4:../../libdaisy/src/hid/usb.h **** #include <stdint.h>
   5:../../libdaisy/src/hid/usb.h **** #include <stdlib.h>
   6:../../libdaisy/src/hid/usb.h **** 
   7:../../libdaisy/src/hid/usb.h **** namespace daisy
   8:../../libdaisy/src/hid/usb.h **** /** @addtogroup externals
   9:../../libdaisy/src/hid/usb.h ****     @{
  10:../../libdaisy/src/hid/usb.h **** */
  11:../../libdaisy/src/hid/usb.h **** 
  12:../../libdaisy/src/hid/usb.h **** {
  13:../../libdaisy/src/hid/usb.h **** /** 
  14:../../libdaisy/src/hid/usb.h ****     @brief Interface for initializing and using the USB Peripherals on the daisy
  15:../../libdaisy/src/hid/usb.h ****     @author Stephen Hensley
  16:../../libdaisy/src/hid/usb.h ****     @date December 2019
  17:../../libdaisy/src/hid/usb.h **** */
  18:../../libdaisy/src/hid/usb.h **** class UsbHandle
  19:../../libdaisy/src/hid/usb.h **** {
  20:../../libdaisy/src/hid/usb.h ****   public:
  21:../../libdaisy/src/hid/usb.h ****     /** Return values for USBHandle Functions */
  22:../../libdaisy/src/hid/usb.h ****     enum class Result
  23:../../libdaisy/src/hid/usb.h ****     {
  24:../../libdaisy/src/hid/usb.h ****         OK,
  25:../../libdaisy/src/hid/usb.h ****         ERR,
  26:../../libdaisy/src/hid/usb.h ****     };
  27:../../libdaisy/src/hid/usb.h **** 
  28:../../libdaisy/src/hid/usb.h ****     /** Specified which of the two USB Peripherals to initialize. */
  29:../../libdaisy/src/hid/usb.h ****     enum UsbPeriph
  30:../../libdaisy/src/hid/usb.h ****     {
  31:../../libdaisy/src/hid/usb.h ****         FS_INTERNAL, /**< Internal pin */
  32:../../libdaisy/src/hid/usb.h ****         FS_EXTERNAL, /**< FS External D+ pin is Pin 38 (GPIO32). FS External D- pin is Pin 37 (GPIO
  33:../../libdaisy/src/hid/usb.h ****         FS_BOTH,     /**< Both */
  34:../../libdaisy/src/hid/usb.h ****     };
  35:../../libdaisy/src/hid/usb.h **** 
  36:../../libdaisy/src/hid/usb.h **** 
  37:../../libdaisy/src/hid/usb.h ****     /** Function called upon reception of a buffer */
  38:../../libdaisy/src/hid/usb.h ****     typedef void (*ReceiveCallback)(uint8_t* buff, uint32_t* len);
ARM GAS  /tmp/ccoLrWzv.s 			page 12


  39:../../libdaisy/src/hid/usb.h **** 
  40:../../libdaisy/src/hid/usb.h ****     UsbHandle() {}
  41:../../libdaisy/src/hid/usb.h **** 
  42:../../libdaisy/src/hid/usb.h ****     ~UsbHandle() {}
  84              		.loc 9 42 5 is_stmt 1 view .LVU14
  85              		.loc 9 42 5 is_stmt 0 view .LVU15
  86              	.LBE656:
  87              	.LBB657:
  88              	.LBI657:
  89              		.file 10 "../../libdaisy/src/per/adc.h"
   1:../../libdaisy/src/per/adc.h **** #pragma once
   2:../../libdaisy/src/per/adc.h **** #ifndef DSY_ADC_H
   3:../../libdaisy/src/per/adc.h **** #define DSY_ADC_H /**< Macro */
   4:../../libdaisy/src/per/adc.h **** #include <stdint.h>
   5:../../libdaisy/src/per/adc.h **** #include <stdlib.h>
   6:../../libdaisy/src/per/adc.h **** #include "daisy_core.h"
   7:../../libdaisy/src/per/adc.h **** #include "per/gpio.h"
   8:../../libdaisy/src/per/adc.h **** 
   9:../../libdaisy/src/per/adc.h **** #define DSY_ADC_MAX_CHANNELS 14 /**< Maximum number of ADC channels */
  10:../../libdaisy/src/per/adc.h **** 
  11:../../libdaisy/src/per/adc.h **** namespace daisy
  12:../../libdaisy/src/per/adc.h **** {
  13:../../libdaisy/src/per/adc.h **** /** @addtogroup analog_digital_conversion
  14:../../libdaisy/src/per/adc.h ****     @{
  15:../../libdaisy/src/per/adc.h **** */
  16:../../libdaisy/src/per/adc.h **** 
  17:../../libdaisy/src/per/adc.h **** /* While there may not be many configuration options here,
  18:../../libdaisy/src/per/adc.h **** using a struct like this allows us to add more configuration
  19:../../libdaisy/src/per/adc.h **** later without breaking existing functionality.
  20:../../libdaisy/src/per/adc.h **** */
  21:../../libdaisy/src/per/adc.h **** 
  22:../../libdaisy/src/per/adc.h **** /** Configuration Structure for a given channel */
  23:../../libdaisy/src/per/adc.h **** struct AdcChannelConfig
  24:../../libdaisy/src/per/adc.h **** {
  25:../../libdaisy/src/per/adc.h ****     /** Which pin to use for multiplexing */
  26:../../libdaisy/src/per/adc.h ****     enum MuxPin
  27:../../libdaisy/src/per/adc.h ****     {
  28:../../libdaisy/src/per/adc.h ****         MUX_SEL_0,    /**< & */
  29:../../libdaisy/src/per/adc.h ****         MUX_SEL_1,    /**< & */
  30:../../libdaisy/src/per/adc.h ****         MUX_SEL_2,    /**< & */
  31:../../libdaisy/src/per/adc.h ****         MUX_SEL_LAST, /**< & */
  32:../../libdaisy/src/per/adc.h ****     };
  33:../../libdaisy/src/per/adc.h **** 
  34:../../libdaisy/src/per/adc.h ****     /** Initializes a single ADC pin as an ADC. 
  35:../../libdaisy/src/per/adc.h ****     \param pin Pin to init.
  36:../../libdaisy/src/per/adc.h ****      */
  37:../../libdaisy/src/per/adc.h ****     void InitSingle(dsy_gpio_pin pin);
  38:../../libdaisy/src/per/adc.h **** 
  39:../../libdaisy/src/per/adc.h ****     /** 
  40:../../libdaisy/src/per/adc.h ****     Initializes a single ADC pin as a Multiplexed ADC.
  41:../../libdaisy/src/per/adc.h ****     Requires a CD405X Multiplexer connected to the pin.
  42:../../libdaisy/src/per/adc.h ****     You only need to supply the mux pins that are required,
  43:../../libdaisy/src/per/adc.h ****     e.g. a 4052 mux would only require mux_0 and mux_1.
  44:../../libdaisy/src/per/adc.h ****     Internal Callbacks handle the pin addressing.
  45:../../libdaisy/src/per/adc.h ****     \param mux_channels must be 1-8
  46:../../libdaisy/src/per/adc.h ****     \param mux_0 First mux pin
  47:../../libdaisy/src/per/adc.h ****     \param mux_1 Second mux pin
ARM GAS  /tmp/ccoLrWzv.s 			page 13


  48:../../libdaisy/src/per/adc.h ****     \param mux_2 Third mux pin
  49:../../libdaisy/src/per/adc.h ****     \param adc_pin &
  50:../../libdaisy/src/per/adc.h ****     */
  51:../../libdaisy/src/per/adc.h ****     void InitMux(dsy_gpio_pin adc_pin,
  52:../../libdaisy/src/per/adc.h ****                  size_t       mux_channels,
  53:../../libdaisy/src/per/adc.h ****                  dsy_gpio_pin mux_0,
  54:../../libdaisy/src/per/adc.h ****                  dsy_gpio_pin mux_1 = {DSY_GPIOX, 0},
  55:../../libdaisy/src/per/adc.h ****                  dsy_gpio_pin mux_2 = {DSY_GPIOX, 0});
  56:../../libdaisy/src/per/adc.h **** 
  57:../../libdaisy/src/per/adc.h ****     dsy_gpio pin_;                   /**< & */
  58:../../libdaisy/src/per/adc.h ****     dsy_gpio mux_pin_[MUX_SEL_LAST]; /**< & */
  59:../../libdaisy/src/per/adc.h ****     uint8_t  mux_channels_;          /**< & */
  60:../../libdaisy/src/per/adc.h **** };
  61:../../libdaisy/src/per/adc.h **** 
  62:../../libdaisy/src/per/adc.h **** /**
  63:../../libdaisy/src/per/adc.h ****    Handler for analog to digital conversion
  64:../../libdaisy/src/per/adc.h **** */
  65:../../libdaisy/src/per/adc.h **** class AdcHandle
  66:../../libdaisy/src/per/adc.h **** {
  67:../../libdaisy/src/per/adc.h ****   public:
  68:../../libdaisy/src/per/adc.h ****     /** Supported oversampling amounts */
  69:../../libdaisy/src/per/adc.h ****     enum OverSampling
  70:../../libdaisy/src/per/adc.h ****     {
  71:../../libdaisy/src/per/adc.h ****         OVS_NONE, /**< & */
  72:../../libdaisy/src/per/adc.h ****         OVS_4,    /**< & */
  73:../../libdaisy/src/per/adc.h ****         OVS_8,    /**< & */
  74:../../libdaisy/src/per/adc.h ****         OVS_16,   /**< & */
  75:../../libdaisy/src/per/adc.h ****         OVS_32,   /**< & */
  76:../../libdaisy/src/per/adc.h ****         OVS_64,   /**< & */
  77:../../libdaisy/src/per/adc.h ****         OVS_128,  /**< & */
  78:../../libdaisy/src/per/adc.h ****         OVS_256,  /**< & */
  79:../../libdaisy/src/per/adc.h ****         OVS_512,  /**< & */
  80:../../libdaisy/src/per/adc.h ****         OVS_1024, /**< & */
  81:../../libdaisy/src/per/adc.h ****         OVS_LAST, /**< & */
  82:../../libdaisy/src/per/adc.h ****     };
  83:../../libdaisy/src/per/adc.h **** 
  84:../../libdaisy/src/per/adc.h ****     AdcHandle() {}
  85:../../libdaisy/src/per/adc.h ****     ~AdcHandle() {}
  90              		.loc 10 85 5 is_stmt 1 view .LVU16
  91              		.loc 10 85 5 is_stmt 0 view .LVU17
  92              	.LBE657:
  93              	.LBB658:
  94              	.LBI658:
  95              		.file 11 "../../libdaisy/src/hid/audio.h"
   1:../../libdaisy/src/hid/audio.h **** #ifndef DSY_AUDIO_H
   2:../../libdaisy/src/hid/audio.h **** #define DSY_AUDIO_H /**< & */
   3:../../libdaisy/src/hid/audio.h **** 
   4:../../libdaisy/src/hid/audio.h **** #include "per/sai.h"
   5:../../libdaisy/src/hid/audio.h **** 
   6:../../libdaisy/src/hid/audio.h **** namespace daisy
   7:../../libdaisy/src/hid/audio.h **** {
   8:../../libdaisy/src/hid/audio.h **** class AudioHandle
   9:../../libdaisy/src/hid/audio.h **** {
  10:../../libdaisy/src/hid/audio.h ****   public:
  11:../../libdaisy/src/hid/audio.h ****     /** Manually configurable details about the Audio Engine */
  12:../../libdaisy/src/hid/audio.h ****     /** TODO: Figure out how to get samplerate in here. */
  13:../../libdaisy/src/hid/audio.h ****     struct Config
ARM GAS  /tmp/ccoLrWzv.s 			page 14


  14:../../libdaisy/src/hid/audio.h ****     {
  15:../../libdaisy/src/hid/audio.h ****         size_t                        blocksize;
  16:../../libdaisy/src/hid/audio.h ****         SaiHandle::Config::SampleRate samplerate;
  17:../../libdaisy/src/hid/audio.h ****         float                         postgain;
  18:../../libdaisy/src/hid/audio.h ****     };
  19:../../libdaisy/src/hid/audio.h **** 
  20:../../libdaisy/src/hid/audio.h ****     enum class Result
  21:../../libdaisy/src/hid/audio.h ****     {
  22:../../libdaisy/src/hid/audio.h ****         OK,
  23:../../libdaisy/src/hid/audio.h ****         ERR,
  24:../../libdaisy/src/hid/audio.h ****     };
  25:../../libdaisy/src/hid/audio.h **** 
  26:../../libdaisy/src/hid/audio.h ****     /** Non-Interleaving input buffer
  27:../../libdaisy/src/hid/audio.h ****      * Buffer arranged by float[chn][sample] 
  28:../../libdaisy/src/hid/audio.h ****      * const so that the user can't modify the input
  29:../../libdaisy/src/hid/audio.h ****     */
  30:../../libdaisy/src/hid/audio.h ****     typedef const float* const* InputBuffer;
  31:../../libdaisy/src/hid/audio.h **** 
  32:../../libdaisy/src/hid/audio.h ****     /** Non-Interleaving output buffer
  33:../../libdaisy/src/hid/audio.h ****      * Arranged by float[chn][sample] 
  34:../../libdaisy/src/hid/audio.h ****     */
  35:../../libdaisy/src/hid/audio.h ****     typedef float** OutputBuffer;
  36:../../libdaisy/src/hid/audio.h **** 
  37:../../libdaisy/src/hid/audio.h ****     /** Type for a Non-Interleaving audio callback 
  38:../../libdaisy/src/hid/audio.h ****    * Non-Interleaving audio callbacks in daisy will be of this type
  39:../../libdaisy/src/hid/audio.h ****   */
  40:../../libdaisy/src/hid/audio.h ****     typedef void (*AudioCallback)(InputBuffer  in,
  41:../../libdaisy/src/hid/audio.h ****                                   OutputBuffer out,
  42:../../libdaisy/src/hid/audio.h ****                                   size_t       size);
  43:../../libdaisy/src/hid/audio.h **** 
  44:../../libdaisy/src/hid/audio.h ****     /** Interleaving Input buffer
  45:../../libdaisy/src/hid/audio.h ****      ** audio is prepared as { L0, R0, L1, R1, . . . LN, RN }]
  46:../../libdaisy/src/hid/audio.h ****      ** this is const, as the user shouldn't modify it
  47:../../libdaisy/src/hid/audio.h ****     */
  48:../../libdaisy/src/hid/audio.h ****     typedef const float* InterleavingInputBuffer;
  49:../../libdaisy/src/hid/audio.h **** 
  50:../../libdaisy/src/hid/audio.h ****     /** Interleaving Output buffer 
  51:../../libdaisy/src/hid/audio.h ****      ** audio is prepared as { L0, R0, L1, R1, . . . LN, RN }
  52:../../libdaisy/src/hid/audio.h ****     */
  53:../../libdaisy/src/hid/audio.h ****     typedef float* InterleavingOutputBuffer;
  54:../../libdaisy/src/hid/audio.h **** 
  55:../../libdaisy/src/hid/audio.h ****     /** Interleaving Audio Callback 
  56:../../libdaisy/src/hid/audio.h ****    * Interleaving audio callbacks in daisy must be of this type
  57:../../libdaisy/src/hid/audio.h ****   */
  58:../../libdaisy/src/hid/audio.h ****     typedef void (*InterleavingAudioCallback)(InterleavingInputBuffer  in,
  59:../../libdaisy/src/hid/audio.h ****                                               InterleavingOutputBuffer out,
  60:../../libdaisy/src/hid/audio.h ****                                               size_t                   size);
  61:../../libdaisy/src/hid/audio.h **** 
  62:../../libdaisy/src/hid/audio.h ****     AudioHandle() : pimpl_(nullptr) {}
  63:../../libdaisy/src/hid/audio.h ****     ~AudioHandle() {}
  96              		.loc 11 63 5 is_stmt 1 view .LVU18
  97              		.loc 11 63 5 is_stmt 0 view .LVU19
  98              	.LBE658:
  99              	.LBE654:
 100              		.loc 1 41 20 view .LVU20
 101 0000 7047     		bx	lr
 102              		.cfi_endproc
ARM GAS  /tmp/ccoLrWzv.s 			page 15


 103              	.LFE2060:
 105              		.weak	_ZN5daisy10DaisyPatchD1Ev
 106              		.thumb_set _ZN5daisy10DaisyPatchD1Ev,_ZN5daisy10DaisyPatchD2Ev
 107 0002 00BF     		.section	.text._ZN7daisysp10OscillatorD2Ev,"axG",%progbits,_ZN7daisysp10OscillatorD5Ev,comdat
 108              		.align	1
 109              		.p2align 2,,3
 110              		.weak	_ZN7daisysp10OscillatorD2Ev
 111              		.syntax unified
 112              		.thumb
 113              		.thumb_func
 114              		.fpu fpv5-d16
 116              	_ZN7daisysp10OscillatorD2Ev:
 117              	.LVL1:
 118              	.LFB3695:
 119              		.file 12 "../../DaisySP/Source/Synthesis/oscillator.h"
   1:../../DaisySP/Source/Synthesis/oscillator.h **** #pragma once
   2:../../DaisySP/Source/Synthesis/oscillator.h **** #ifndef DSY_OSCILLATOR_H
   3:../../DaisySP/Source/Synthesis/oscillator.h **** #define DSY_OSCILLATOR_H
   4:../../DaisySP/Source/Synthesis/oscillator.h **** #include <stdint.h>
   5:../../DaisySP/Source/Synthesis/oscillator.h **** #include "Utility/dsp.h"
   6:../../DaisySP/Source/Synthesis/oscillator.h **** #ifdef __cplusplus
   7:../../DaisySP/Source/Synthesis/oscillator.h **** 
   8:../../DaisySP/Source/Synthesis/oscillator.h **** namespace daisysp
   9:../../DaisySP/Source/Synthesis/oscillator.h **** {
  10:../../DaisySP/Source/Synthesis/oscillator.h **** /** Synthesis of several waveforms, including polyBLEP bandlimited waveforms.
  11:../../DaisySP/Source/Synthesis/oscillator.h **** */
  12:../../DaisySP/Source/Synthesis/oscillator.h **** class Oscillator
  13:../../DaisySP/Source/Synthesis/oscillator.h **** {
  14:../../DaisySP/Source/Synthesis/oscillator.h ****   public:
  15:../../DaisySP/Source/Synthesis/oscillator.h ****     Oscillator() {}
  16:../../DaisySP/Source/Synthesis/oscillator.h ****     ~Oscillator() {}
 120              		.loc 12 16 5 is_stmt 1 view -0
 121              		.cfi_startproc
 122              		@ args = 0, pretend = 0, frame = 0
 123              		@ frame_needed = 0, uses_anonymous_args = 0
 124              		@ link register save eliminated.
 125              		.loc 12 16 20 is_stmt 0 view .LVU22
 126 0000 7047     		bx	lr
 127              		.cfi_endproc
 128              	.LFE3695:
 130              		.weak	_ZN7daisysp10OscillatorD1Ev
 131              		.thumb_set _ZN7daisysp10OscillatorD1Ev,_ZN7daisysp10OscillatorD2Ev
 132 0002 00BF     		.section	.text._ZN7daisysp3SvfD2Ev,"axG",%progbits,_ZN7daisysp3SvfD5Ev,comdat
 133              		.align	1
 134              		.p2align 2,,3
 135              		.weak	_ZN7daisysp3SvfD2Ev
 136              		.syntax unified
 137              		.thumb
 138              		.thumb_func
 139              		.fpu fpv5-d16
 141              	_ZN7daisysp3SvfD2Ev:
 142              	.LVL2:
 143              	.LFB3711:
 144              		.file 13 "../../DaisySP/Source/Filters/svf.h"
   1:../../DaisySP/Source/Filters/svf.h **** #pragma once
   2:../../DaisySP/Source/Filters/svf.h **** #ifndef DSY_SVF_H
   3:../../DaisySP/Source/Filters/svf.h **** #define DSY_SVF_H
ARM GAS  /tmp/ccoLrWzv.s 			page 16


   4:../../DaisySP/Source/Filters/svf.h **** 
   5:../../DaisySP/Source/Filters/svf.h **** namespace daisysp
   6:../../DaisySP/Source/Filters/svf.h **** {
   7:../../DaisySP/Source/Filters/svf.h **** /**      Double Sampled, Stable State Variable Filter
   8:../../DaisySP/Source/Filters/svf.h **** 
   9:../../DaisySP/Source/Filters/svf.h **** Credit to Andrew Simper from musicdsp.org
  10:../../DaisySP/Source/Filters/svf.h **** 
  11:../../DaisySP/Source/Filters/svf.h **** This is his "State Variable Filter (Double Sampled, Stable)"
  12:../../DaisySP/Source/Filters/svf.h **** 
  13:../../DaisySP/Source/Filters/svf.h **** Additional thanks to Laurent de Soras for stability limit, and 
  14:../../DaisySP/Source/Filters/svf.h **** Stefan Diedrichsen for the correct notch output
  15:../../DaisySP/Source/Filters/svf.h **** 
  16:../../DaisySP/Source/Filters/svf.h **** Ported by: Stephen Hensley
  17:../../DaisySP/Source/Filters/svf.h **** */
  18:../../DaisySP/Source/Filters/svf.h **** class Svf
  19:../../DaisySP/Source/Filters/svf.h **** {
  20:../../DaisySP/Source/Filters/svf.h ****   public:
  21:../../DaisySP/Source/Filters/svf.h ****     Svf() {}
  22:../../DaisySP/Source/Filters/svf.h ****     ~Svf() {}
 145              		.loc 13 22 5 is_stmt 1 view -0
 146              		.cfi_startproc
 147              		@ args = 0, pretend = 0, frame = 0
 148              		@ frame_needed = 0, uses_anonymous_args = 0
 149              		@ link register save eliminated.
 150              		.loc 13 22 13 is_stmt 0 view .LVU24
 151 0000 7047     		bx	lr
 152              		.cfi_endproc
 153              	.LFE3711:
 155              		.weak	_ZN7daisysp3SvfD1Ev
 156              		.thumb_set _ZN7daisysp3SvfD1Ev,_ZN7daisysp3SvfD2Ev
 157 0002 00BF     		.section	.text._ZN5daisy11OledDisplayINS_13SSD130xDriverILj128ELj64ENS_24SSD130x4WireSpiTransportE
 158              		.align	1
 159              		.p2align 2,,3
 160              		.weak	_ZN5daisy11OledDisplayINS_13SSD130xDriverILj128ELj64ENS_24SSD130x4WireSpiTransportEEEED2Ev
 161              		.syntax unified
 162              		.thumb
 163              		.thumb_func
 164              		.fpu fpv5-d16
 166              	_ZN5daisy11OledDisplayINS_13SSD130xDriverILj128ELj64ENS_24SSD130x4WireSpiTransportEEEED2Ev:
 167              	.LVL3:
 168              	.LFB4264:
 169              		.loc 2 17 13 is_stmt 1 view -0
 170              		.cfi_startproc
 171              		@ args = 0, pretend = 0, frame = 0
 172              		@ frame_needed = 0, uses_anonymous_args = 0
 173              		@ link register save eliminated.
 174              	.LBB659:
 175              	.LBI659:
 176              		.loc 3 219 13 view .LVU26
 177              	.LBB660:
 178              	.LBI660:
  23:../../libdaisy/src/hid/disp/display.h **** 
 179              		.loc 3 23 13 view .LVU27
  23:../../libdaisy/src/hid/disp/display.h **** 
 180              		.loc 3 23 13 is_stmt 0 view .LVU28
 181              	.LBE660:
 182              	.LBE659:
ARM GAS  /tmp/ccoLrWzv.s 			page 17


 183              		.loc 2 17 29 view .LVU29
 184 0000 7047     		bx	lr
 185              		.cfi_endproc
 186              	.LFE4264:
 188              		.weak	_ZN5daisy11OledDisplayINS_13SSD130xDriverILj128ELj64ENS_24SSD130x4WireSpiTransportEEEED1Ev
 189              		.thumb_set _ZN5daisy11OledDisplayINS_13SSD130xDriverILj128ELj64ENS_24SSD130x4WireSpiTransportEEEED
 190 0002 00BF     		.section	.text._ZNK5daisy11OledDisplayINS_13SSD130xDriverILj128ELj64ENS_24SSD130x4WireSpiTransport
 191              		.align	1
 192              		.p2align 2,,3
 193              		.weak	_ZNK5daisy11OledDisplayINS_13SSD130xDriverILj128ELj64ENS_24SSD130x4WireSpiTransportEEEE6Heig
 194              		.syntax unified
 195              		.thumb
 196              		.thumb_func
 197              		.fpu fpv5-d16
 199              	_ZNK5daisy11OledDisplayINS_13SSD130xDriverILj128ELj64ENS_24SSD130x4WireSpiTransportEEEE6HeightEv:
 200              	.LVL4:
 201              	.LFB4831:
  18:../../libdaisy/src/hid/disp/oled_display.h **** 
  19:../../libdaisy/src/hid/disp/oled_display.h ****     struct Config
  20:../../libdaisy/src/hid/disp/oled_display.h ****     {
  21:../../libdaisy/src/hid/disp/oled_display.h ****         typename DisplayDriver::Config driver_config;
  22:../../libdaisy/src/hid/disp/oled_display.h ****     };
  23:../../libdaisy/src/hid/disp/oled_display.h **** 
  24:../../libdaisy/src/hid/disp/oled_display.h ****     void Init(Config config) { driver_.Init(config.driver_config); }
  25:../../libdaisy/src/hid/disp/oled_display.h **** 
  26:../../libdaisy/src/hid/disp/oled_display.h ****     uint16_t Height() const override { return driver_.Height(); }
 202              		.loc 2 26 14 is_stmt 1 view -0
 203              		.cfi_startproc
 204              		@ args = 0, pretend = 0, frame = 0
 205              		@ frame_needed = 0, uses_anonymous_args = 0
 206              		@ link register save eliminated.
 207              		.loc 2 26 65 is_stmt 0 view .LVU31
 208 0000 4020     		movs	r0, #64
 209              	.LVL5:
 210              		.loc 2 26 65 view .LVU32
 211 0002 7047     		bx	lr
 212              		.cfi_endproc
 213              	.LFE4831:
 215              		.section	.text._ZNK5daisy11OledDisplayINS_13SSD130xDriverILj128ELj64ENS_24SSD130x4WireSpiTransport
 216              		.align	1
 217              		.p2align 2,,3
 218              		.weak	_ZNK5daisy11OledDisplayINS_13SSD130xDriverILj128ELj64ENS_24SSD130x4WireSpiTransportEEEE5Widt
 219              		.syntax unified
 220              		.thumb
 221              		.thumb_func
 222              		.fpu fpv5-d16
 224              	_ZNK5daisy11OledDisplayINS_13SSD130xDriverILj128ELj64ENS_24SSD130x4WireSpiTransportEEEE5WidthEv:
 225              	.LVL6:
 226              	.LFB4832:
  27:../../libdaisy/src/hid/disp/oled_display.h ****     uint16_t Width() const override { return driver_.Width(); }
 227              		.loc 2 27 14 is_stmt 1 view -0
 228              		.cfi_startproc
 229              		@ args = 0, pretend = 0, frame = 0
 230              		@ frame_needed = 0, uses_anonymous_args = 0
 231              		@ link register save eliminated.
 232              		.loc 2 27 63 is_stmt 0 view .LVU34
 233 0000 8020     		movs	r0, #128
ARM GAS  /tmp/ccoLrWzv.s 			page 18


 234              	.LVL7:
 235              		.loc 2 27 63 view .LVU35
 236 0002 7047     		bx	lr
 237              		.cfi_endproc
 238              	.LFE4832:
 240              		.section	.text._ZN5daisy11OledDisplayINS_13SSD130xDriverILj128ELj64ENS_24SSD130x4WireSpiTransportE
 241              		.align	1
 242              		.p2align 2,,3
 243              		.weak	_ZN5daisy11OledDisplayINS_13SSD130xDriverILj128ELj64ENS_24SSD130x4WireSpiTransportEEEE4FillE
 244              		.syntax unified
 245              		.thumb
 246              		.thumb_func
 247              		.fpu fpv5-d16
 249              	_ZN5daisy11OledDisplayINS_13SSD130xDriverILj128ELj64ENS_24SSD130x4WireSpiTransportEEEE4FillEb:
 250              	.LVL8:
 251              	.LFB4833:
  28:../../libdaisy/src/hid/disp/oled_display.h **** 
  29:../../libdaisy/src/hid/disp/oled_display.h ****     /** 
  30:../../libdaisy/src/hid/disp/oled_display.h ****     Fills the entire display with either on/off.
  31:../../libdaisy/src/hid/disp/oled_display.h ****     \param on Sets on or off.
  32:../../libdaisy/src/hid/disp/oled_display.h ****     */
  33:../../libdaisy/src/hid/disp/oled_display.h ****     void Fill(bool on) override { driver_.Fill(on); }
 252              		.loc 2 33 10 is_stmt 1 view -0
 253              		.cfi_startproc
 254              		@ args = 0, pretend = 0, frame = 0
 255              		@ frame_needed = 0, uses_anonymous_args = 0
 256              		@ link register save eliminated.
 257              	.LBB661:
 258              	.LBI661:
 259              		.file 14 "../../libdaisy/src/dev/oled_ssd130x.h"
   1:../../libdaisy/src/dev/oled_ssd130x.h **** #pragma once
   2:../../libdaisy/src/dev/oled_ssd130x.h **** #ifndef SA_OLED_SSD130X_H
   3:../../libdaisy/src/dev/oled_ssd130x.h **** #define SA_OLED_SSD130X_H /**< & */
   4:../../libdaisy/src/dev/oled_ssd130x.h **** 
   5:../../libdaisy/src/dev/oled_ssd130x.h **** #include "per/i2c.h"
   6:../../libdaisy/src/dev/oled_ssd130x.h **** #include "per/spi.h"
   7:../../libdaisy/src/dev/oled_ssd130x.h **** #include "per/gpio.h"
   8:../../libdaisy/src/dev/oled_ssd130x.h **** #include "sys/system.h"
   9:../../libdaisy/src/dev/oled_ssd130x.h **** 
  10:../../libdaisy/src/dev/oled_ssd130x.h **** namespace daisy
  11:../../libdaisy/src/dev/oled_ssd130x.h **** {
  12:../../libdaisy/src/dev/oled_ssd130x.h **** /**
  13:../../libdaisy/src/dev/oled_ssd130x.h ****  * I2C Transport for SSD1306 / SSD1309 OLED display devices
  14:../../libdaisy/src/dev/oled_ssd130x.h ****  */
  15:../../libdaisy/src/dev/oled_ssd130x.h **** class SSD130xI2CTransport
  16:../../libdaisy/src/dev/oled_ssd130x.h **** {
  17:../../libdaisy/src/dev/oled_ssd130x.h ****   public:
  18:../../libdaisy/src/dev/oled_ssd130x.h ****     struct Config
  19:../../libdaisy/src/dev/oled_ssd130x.h ****     {
  20:../../libdaisy/src/dev/oled_ssd130x.h ****         I2CHandle::Config i2c_config;
  21:../../libdaisy/src/dev/oled_ssd130x.h ****         uint8_t           i2c_address;
  22:../../libdaisy/src/dev/oled_ssd130x.h ****         void              Defaults()
  23:../../libdaisy/src/dev/oled_ssd130x.h ****         {
  24:../../libdaisy/src/dev/oled_ssd130x.h ****             i2c_config.periph         = I2CHandle::Config::Peripheral::I2C_1;
  25:../../libdaisy/src/dev/oled_ssd130x.h ****             i2c_config.speed          = I2CHandle::Config::Speed::I2C_1MHZ;
  26:../../libdaisy/src/dev/oled_ssd130x.h ****             i2c_config.mode           = I2CHandle::Config::Mode::I2C_MASTER;
  27:../../libdaisy/src/dev/oled_ssd130x.h ****             i2c_config.pin_config.scl = {DSY_GPIOB, 8};
ARM GAS  /tmp/ccoLrWzv.s 			page 19


  28:../../libdaisy/src/dev/oled_ssd130x.h ****             i2c_config.pin_config.sda = {DSY_GPIOB, 9};
  29:../../libdaisy/src/dev/oled_ssd130x.h ****             i2c_address               = 0x3C;
  30:../../libdaisy/src/dev/oled_ssd130x.h ****         }
  31:../../libdaisy/src/dev/oled_ssd130x.h ****     };
  32:../../libdaisy/src/dev/oled_ssd130x.h ****     void Init(const Config& config)
  33:../../libdaisy/src/dev/oled_ssd130x.h ****     {
  34:../../libdaisy/src/dev/oled_ssd130x.h ****         i2c_address_ = config.i2c_address;
  35:../../libdaisy/src/dev/oled_ssd130x.h ****         i2c_.Init(config.i2c_config);
  36:../../libdaisy/src/dev/oled_ssd130x.h ****     };
  37:../../libdaisy/src/dev/oled_ssd130x.h ****     void SendCommand(uint8_t cmd)
  38:../../libdaisy/src/dev/oled_ssd130x.h ****     {
  39:../../libdaisy/src/dev/oled_ssd130x.h ****         uint8_t buf[2] = {0X00, cmd};
  40:../../libdaisy/src/dev/oled_ssd130x.h ****         i2c_.TransmitBlocking(i2c_address_, buf, 2, 1000);
  41:../../libdaisy/src/dev/oled_ssd130x.h ****     };
  42:../../libdaisy/src/dev/oled_ssd130x.h **** 
  43:../../libdaisy/src/dev/oled_ssd130x.h ****     void SendData(uint8_t* buff, size_t size)
  44:../../libdaisy/src/dev/oled_ssd130x.h ****     {
  45:../../libdaisy/src/dev/oled_ssd130x.h ****         for(size_t i = 0; i < size; i++)
  46:../../libdaisy/src/dev/oled_ssd130x.h ****         {
  47:../../libdaisy/src/dev/oled_ssd130x.h ****             uint8_t buf[2] = {0X40, buff[i]};
  48:../../libdaisy/src/dev/oled_ssd130x.h ****             i2c_.TransmitBlocking(i2c_address_, buf, 2, 1000);
  49:../../libdaisy/src/dev/oled_ssd130x.h ****         }
  50:../../libdaisy/src/dev/oled_ssd130x.h ****     };
  51:../../libdaisy/src/dev/oled_ssd130x.h **** 
  52:../../libdaisy/src/dev/oled_ssd130x.h ****   private:
  53:../../libdaisy/src/dev/oled_ssd130x.h ****     daisy::I2CHandle i2c_;
  54:../../libdaisy/src/dev/oled_ssd130x.h ****     uint8_t          i2c_address_;
  55:../../libdaisy/src/dev/oled_ssd130x.h **** };
  56:../../libdaisy/src/dev/oled_ssd130x.h **** 
  57:../../libdaisy/src/dev/oled_ssd130x.h **** /**
  58:../../libdaisy/src/dev/oled_ssd130x.h ****  * 4 Wire SPI Transport for SSD1306 / SSD1309 OLED display devices
  59:../../libdaisy/src/dev/oled_ssd130x.h ****  */
  60:../../libdaisy/src/dev/oled_ssd130x.h **** class SSD130x4WireSpiTransport
  61:../../libdaisy/src/dev/oled_ssd130x.h **** {
  62:../../libdaisy/src/dev/oled_ssd130x.h ****   public:
  63:../../libdaisy/src/dev/oled_ssd130x.h ****     struct Config
  64:../../libdaisy/src/dev/oled_ssd130x.h ****     {
  65:../../libdaisy/src/dev/oled_ssd130x.h ****         struct
  66:../../libdaisy/src/dev/oled_ssd130x.h ****         {
  67:../../libdaisy/src/dev/oled_ssd130x.h ****             dsy_gpio_pin dc;    /**< & */
  68:../../libdaisy/src/dev/oled_ssd130x.h ****             dsy_gpio_pin reset; /**< & */
  69:../../libdaisy/src/dev/oled_ssd130x.h ****         } pin_config;
  70:../../libdaisy/src/dev/oled_ssd130x.h ****         void Defaults()
  71:../../libdaisy/src/dev/oled_ssd130x.h ****         {
  72:../../libdaisy/src/dev/oled_ssd130x.h ****             pin_config.dc    = {DSY_GPIOB, 4};
  73:../../libdaisy/src/dev/oled_ssd130x.h ****             pin_config.reset = {DSY_GPIOB, 15};
  74:../../libdaisy/src/dev/oled_ssd130x.h ****         }
  75:../../libdaisy/src/dev/oled_ssd130x.h ****     };
  76:../../libdaisy/src/dev/oled_ssd130x.h ****     void Init(const Config& config)
  77:../../libdaisy/src/dev/oled_ssd130x.h ****     {
  78:../../libdaisy/src/dev/oled_ssd130x.h ****         // Initialize both GPIO
  79:../../libdaisy/src/dev/oled_ssd130x.h ****         pin_dc_.mode = DSY_GPIO_MODE_OUTPUT_PP;
  80:../../libdaisy/src/dev/oled_ssd130x.h ****         pin_dc_.pin  = config.pin_config.dc;
  81:../../libdaisy/src/dev/oled_ssd130x.h ****         dsy_gpio_init(&pin_dc_);
  82:../../libdaisy/src/dev/oled_ssd130x.h ****         pin_reset_.mode = DSY_GPIO_MODE_OUTPUT_PP;
  83:../../libdaisy/src/dev/oled_ssd130x.h ****         pin_reset_.pin  = config.pin_config.reset;
  84:../../libdaisy/src/dev/oled_ssd130x.h ****         dsy_gpio_init(&pin_reset_);
ARM GAS  /tmp/ccoLrWzv.s 			page 20


  85:../../libdaisy/src/dev/oled_ssd130x.h ****         // Initialize SPI
  86:../../libdaisy/src/dev/oled_ssd130x.h ****         SpiHandle::Config spi_config;
  87:../../libdaisy/src/dev/oled_ssd130x.h ****         spi_config.periph    = SpiHandle::Config::Peripheral::SPI_1;
  88:../../libdaisy/src/dev/oled_ssd130x.h ****         spi_config.mode      = SpiHandle::Config::Mode::MASTER;
  89:../../libdaisy/src/dev/oled_ssd130x.h ****         spi_config.direction = SpiHandle::Config::Direction::TWO_LINES_TX_ONLY;
  90:../../libdaisy/src/dev/oled_ssd130x.h ****         spi_config.datasize  = 8;
  91:../../libdaisy/src/dev/oled_ssd130x.h ****         spi_config.clock_polarity = SpiHandle::Config::ClockPolarity::LOW;
  92:../../libdaisy/src/dev/oled_ssd130x.h ****         spi_config.clock_phase    = SpiHandle::Config::ClockPhase::ONE_EDGE;
  93:../../libdaisy/src/dev/oled_ssd130x.h ****         spi_config.nss            = SpiHandle::Config::NSS::HARD_OUTPUT;
  94:../../libdaisy/src/dev/oled_ssd130x.h ****         spi_config.baud_prescaler = SpiHandle::Config::BaudPrescaler::PS_8;
  95:../../libdaisy/src/dev/oled_ssd130x.h **** 
  96:../../libdaisy/src/dev/oled_ssd130x.h ****         spi_config.pin_config.sclk = {DSY_GPIOG, 11};
  97:../../libdaisy/src/dev/oled_ssd130x.h ****         spi_config.pin_config.miso = {DSY_GPIOX, 0};
  98:../../libdaisy/src/dev/oled_ssd130x.h ****         spi_config.pin_config.mosi = {DSY_GPIOB, 5};
  99:../../libdaisy/src/dev/oled_ssd130x.h ****         spi_config.pin_config.nss  = {DSY_GPIOG, 10};
 100:../../libdaisy/src/dev/oled_ssd130x.h **** 
 101:../../libdaisy/src/dev/oled_ssd130x.h ****         spi_.Init(spi_config);
 102:../../libdaisy/src/dev/oled_ssd130x.h **** 
 103:../../libdaisy/src/dev/oled_ssd130x.h ****         // Reset and Configure OLED.
 104:../../libdaisy/src/dev/oled_ssd130x.h ****         dsy_gpio_write(&pin_reset_, 0);
 105:../../libdaisy/src/dev/oled_ssd130x.h ****         System::Delay(10);
 106:../../libdaisy/src/dev/oled_ssd130x.h ****         dsy_gpio_write(&pin_reset_, 1);
 107:../../libdaisy/src/dev/oled_ssd130x.h ****         System::Delay(10);
 108:../../libdaisy/src/dev/oled_ssd130x.h ****     };
 109:../../libdaisy/src/dev/oled_ssd130x.h ****     void SendCommand(uint8_t cmd)
 110:../../libdaisy/src/dev/oled_ssd130x.h ****     {
 111:../../libdaisy/src/dev/oled_ssd130x.h ****         dsy_gpio_write(&pin_dc_, 0);
 112:../../libdaisy/src/dev/oled_ssd130x.h ****         spi_.BlockingTransmit(&cmd, 1);
 113:../../libdaisy/src/dev/oled_ssd130x.h ****     };
 114:../../libdaisy/src/dev/oled_ssd130x.h **** 
 115:../../libdaisy/src/dev/oled_ssd130x.h ****     void SendData(uint8_t* buff, size_t size)
 116:../../libdaisy/src/dev/oled_ssd130x.h ****     {
 117:../../libdaisy/src/dev/oled_ssd130x.h ****         dsy_gpio_write(&pin_dc_, 1);
 118:../../libdaisy/src/dev/oled_ssd130x.h ****         spi_.BlockingTransmit(buff, size);
 119:../../libdaisy/src/dev/oled_ssd130x.h ****     };
 120:../../libdaisy/src/dev/oled_ssd130x.h **** 
 121:../../libdaisy/src/dev/oled_ssd130x.h ****   private:
 122:../../libdaisy/src/dev/oled_ssd130x.h ****     SpiHandle spi_;
 123:../../libdaisy/src/dev/oled_ssd130x.h ****     dsy_gpio  pin_reset_;
 124:../../libdaisy/src/dev/oled_ssd130x.h ****     dsy_gpio  pin_dc_;
 125:../../libdaisy/src/dev/oled_ssd130x.h **** };
 126:../../libdaisy/src/dev/oled_ssd130x.h **** 
 127:../../libdaisy/src/dev/oled_ssd130x.h **** 
 128:../../libdaisy/src/dev/oled_ssd130x.h **** /**
 129:../../libdaisy/src/dev/oled_ssd130x.h ****  * A driver implementation for the SSD1306/SSD1309
 130:../../libdaisy/src/dev/oled_ssd130x.h ****  */
 131:../../libdaisy/src/dev/oled_ssd130x.h **** template <size_t width, size_t height, typename Transport>
 132:../../libdaisy/src/dev/oled_ssd130x.h **** class SSD130xDriver
 133:../../libdaisy/src/dev/oled_ssd130x.h **** {
 134:../../libdaisy/src/dev/oled_ssd130x.h ****   public:
 135:../../libdaisy/src/dev/oled_ssd130x.h ****     struct Config
 136:../../libdaisy/src/dev/oled_ssd130x.h ****     {
 137:../../libdaisy/src/dev/oled_ssd130x.h ****         typename Transport::Config transport_config;
 138:../../libdaisy/src/dev/oled_ssd130x.h ****     };
 139:../../libdaisy/src/dev/oled_ssd130x.h **** 
 140:../../libdaisy/src/dev/oled_ssd130x.h ****     void Init(Config config)
 141:../../libdaisy/src/dev/oled_ssd130x.h ****     {
ARM GAS  /tmp/ccoLrWzv.s 			page 21


 142:../../libdaisy/src/dev/oled_ssd130x.h ****         transport_.Init(config.transport_config);
 143:../../libdaisy/src/dev/oled_ssd130x.h **** 
 144:../../libdaisy/src/dev/oled_ssd130x.h ****         // Init routine...
 145:../../libdaisy/src/dev/oled_ssd130x.h **** 
 146:../../libdaisy/src/dev/oled_ssd130x.h ****         // Display Off
 147:../../libdaisy/src/dev/oled_ssd130x.h ****         transport_.SendCommand(0xaE);
 148:../../libdaisy/src/dev/oled_ssd130x.h ****         // Dimension dependent commands...
 149:../../libdaisy/src/dev/oled_ssd130x.h ****         switch(height)
 150:../../libdaisy/src/dev/oled_ssd130x.h ****         {
 151:../../libdaisy/src/dev/oled_ssd130x.h ****             case 16:
 152:../../libdaisy/src/dev/oled_ssd130x.h ****                 // Display Clock Divide Ratio
 153:../../libdaisy/src/dev/oled_ssd130x.h ****                 transport_.SendCommand(0xD5);
 154:../../libdaisy/src/dev/oled_ssd130x.h ****                 transport_.SendCommand(0x60);
 155:../../libdaisy/src/dev/oled_ssd130x.h ****                 // Multiplex Ratio
 156:../../libdaisy/src/dev/oled_ssd130x.h ****                 transport_.SendCommand(0xA8);
 157:../../libdaisy/src/dev/oled_ssd130x.h ****                 transport_.SendCommand(0x0F);
 158:../../libdaisy/src/dev/oled_ssd130x.h ****                 // COM Pins
 159:../../libdaisy/src/dev/oled_ssd130x.h ****                 transport_.SendCommand(0xDA);
 160:../../libdaisy/src/dev/oled_ssd130x.h ****                 transport_.SendCommand(0x02);
 161:../../libdaisy/src/dev/oled_ssd130x.h ****                 break;
 162:../../libdaisy/src/dev/oled_ssd130x.h ****             case 32:
 163:../../libdaisy/src/dev/oled_ssd130x.h ****                 // Display Clock Divide Ratio
 164:../../libdaisy/src/dev/oled_ssd130x.h ****                 transport_.SendCommand(0xD5);
 165:../../libdaisy/src/dev/oled_ssd130x.h ****                 transport_.SendCommand(0x80);
 166:../../libdaisy/src/dev/oled_ssd130x.h ****                 // Multiplex Ratio
 167:../../libdaisy/src/dev/oled_ssd130x.h ****                 transport_.SendCommand(0xA8);
 168:../../libdaisy/src/dev/oled_ssd130x.h ****                 transport_.SendCommand(0x1F);
 169:../../libdaisy/src/dev/oled_ssd130x.h ****                 // COM Pins
 170:../../libdaisy/src/dev/oled_ssd130x.h ****                 transport_.SendCommand(0xDA);
 171:../../libdaisy/src/dev/oled_ssd130x.h ****                 if(width == 64)
 172:../../libdaisy/src/dev/oled_ssd130x.h ****                 {
 173:../../libdaisy/src/dev/oled_ssd130x.h ****                     transport_.SendCommand(0x12);
 174:../../libdaisy/src/dev/oled_ssd130x.h ****                 }
 175:../../libdaisy/src/dev/oled_ssd130x.h ****                 else
 176:../../libdaisy/src/dev/oled_ssd130x.h ****                 {
 177:../../libdaisy/src/dev/oled_ssd130x.h ****                     transport_.SendCommand(0x02);
 178:../../libdaisy/src/dev/oled_ssd130x.h ****                 }
 179:../../libdaisy/src/dev/oled_ssd130x.h **** 
 180:../../libdaisy/src/dev/oled_ssd130x.h ****                 break;
 181:../../libdaisy/src/dev/oled_ssd130x.h ****             case 48:
 182:../../libdaisy/src/dev/oled_ssd130x.h ****                 // Display Clock Divide Ratio
 183:../../libdaisy/src/dev/oled_ssd130x.h ****                 transport_.SendCommand(0xD5);
 184:../../libdaisy/src/dev/oled_ssd130x.h ****                 transport_.SendCommand(0x80);
 185:../../libdaisy/src/dev/oled_ssd130x.h ****                 // Multiplex Ratio
 186:../../libdaisy/src/dev/oled_ssd130x.h ****                 transport_.SendCommand(0xA8);
 187:../../libdaisy/src/dev/oled_ssd130x.h ****                 transport_.SendCommand(0x2F);
 188:../../libdaisy/src/dev/oled_ssd130x.h ****                 // COM Pins
 189:../../libdaisy/src/dev/oled_ssd130x.h ****                 transport_.SendCommand(0xDA);
 190:../../libdaisy/src/dev/oled_ssd130x.h ****                 transport_.SendCommand(0x12);
 191:../../libdaisy/src/dev/oled_ssd130x.h ****                 break;
 192:../../libdaisy/src/dev/oled_ssd130x.h ****             default: // 128
 193:../../libdaisy/src/dev/oled_ssd130x.h ****                 // Display Clock Divide Ratio
 194:../../libdaisy/src/dev/oled_ssd130x.h ****                 transport_.SendCommand(0xD5);
 195:../../libdaisy/src/dev/oled_ssd130x.h ****                 transport_.SendCommand(0x80);
 196:../../libdaisy/src/dev/oled_ssd130x.h ****                 // Multiplex Ratio
 197:../../libdaisy/src/dev/oled_ssd130x.h ****                 transport_.SendCommand(0xA8);
 198:../../libdaisy/src/dev/oled_ssd130x.h ****                 transport_.SendCommand(0x3F);
ARM GAS  /tmp/ccoLrWzv.s 			page 22


 199:../../libdaisy/src/dev/oled_ssd130x.h ****                 // COM Pins
 200:../../libdaisy/src/dev/oled_ssd130x.h ****                 transport_.SendCommand(0xDA);
 201:../../libdaisy/src/dev/oled_ssd130x.h ****                 transport_.SendCommand(0x12);
 202:../../libdaisy/src/dev/oled_ssd130x.h ****                 break;
 203:../../libdaisy/src/dev/oled_ssd130x.h ****         }
 204:../../libdaisy/src/dev/oled_ssd130x.h **** 
 205:../../libdaisy/src/dev/oled_ssd130x.h ****         // Display Offset
 206:../../libdaisy/src/dev/oled_ssd130x.h ****         transport_.SendCommand(0xD3);
 207:../../libdaisy/src/dev/oled_ssd130x.h ****         transport_.SendCommand(0x00);
 208:../../libdaisy/src/dev/oled_ssd130x.h ****         // Start Line Address
 209:../../libdaisy/src/dev/oled_ssd130x.h ****         transport_.SendCommand(0x40);
 210:../../libdaisy/src/dev/oled_ssd130x.h ****         // Normal Display
 211:../../libdaisy/src/dev/oled_ssd130x.h ****         transport_.SendCommand(0xA6);
 212:../../libdaisy/src/dev/oled_ssd130x.h ****         // All On Resume
 213:../../libdaisy/src/dev/oled_ssd130x.h ****         transport_.SendCommand(0xA4);
 214:../../libdaisy/src/dev/oled_ssd130x.h ****         // Charge Pump
 215:../../libdaisy/src/dev/oled_ssd130x.h ****         transport_.SendCommand(0x8D);
 216:../../libdaisy/src/dev/oled_ssd130x.h ****         transport_.SendCommand(0x14);
 217:../../libdaisy/src/dev/oled_ssd130x.h ****         // Set Segment Remap
 218:../../libdaisy/src/dev/oled_ssd130x.h ****         transport_.SendCommand(0xA1);
 219:../../libdaisy/src/dev/oled_ssd130x.h ****         // COM Output Scan Direction
 220:../../libdaisy/src/dev/oled_ssd130x.h ****         transport_.SendCommand(0xC8);
 221:../../libdaisy/src/dev/oled_ssd130x.h ****         // Contrast Control
 222:../../libdaisy/src/dev/oled_ssd130x.h ****         transport_.SendCommand(0x81);
 223:../../libdaisy/src/dev/oled_ssd130x.h ****         transport_.SendCommand(0x8F);
 224:../../libdaisy/src/dev/oled_ssd130x.h ****         // Pre Charge
 225:../../libdaisy/src/dev/oled_ssd130x.h ****         transport_.SendCommand(0xD9);
 226:../../libdaisy/src/dev/oled_ssd130x.h ****         transport_.SendCommand(0x25);
 227:../../libdaisy/src/dev/oled_ssd130x.h ****         // VCOM Detect
 228:../../libdaisy/src/dev/oled_ssd130x.h ****         transport_.SendCommand(0xDB);
 229:../../libdaisy/src/dev/oled_ssd130x.h ****         transport_.SendCommand(0x34);
 230:../../libdaisy/src/dev/oled_ssd130x.h **** 
 231:../../libdaisy/src/dev/oled_ssd130x.h **** 
 232:../../libdaisy/src/dev/oled_ssd130x.h ****         // Display On
 233:../../libdaisy/src/dev/oled_ssd130x.h ****         transport_.SendCommand(0xAF); //--turn on oled panel
 234:../../libdaisy/src/dev/oled_ssd130x.h ****     };
 235:../../libdaisy/src/dev/oled_ssd130x.h **** 
 236:../../libdaisy/src/dev/oled_ssd130x.h ****     size_t Width() const { return width; };
 237:../../libdaisy/src/dev/oled_ssd130x.h ****     size_t Height() const { return height; };
 238:../../libdaisy/src/dev/oled_ssd130x.h **** 
 239:../../libdaisy/src/dev/oled_ssd130x.h ****     void DrawPixel(uint_fast8_t x, uint_fast8_t y, bool on)
 240:../../libdaisy/src/dev/oled_ssd130x.h ****     {
 241:../../libdaisy/src/dev/oled_ssd130x.h ****         if(x >= width || y >= height)
 242:../../libdaisy/src/dev/oled_ssd130x.h ****             return;
 243:../../libdaisy/src/dev/oled_ssd130x.h ****         if(on)
 244:../../libdaisy/src/dev/oled_ssd130x.h ****             buffer_[x + (y / 8) * width] |= (1 << (y % 8));
 245:../../libdaisy/src/dev/oled_ssd130x.h ****         else
 246:../../libdaisy/src/dev/oled_ssd130x.h ****             buffer_[x + (y / 8) * width] &= ~(1 << (y % 8));
 247:../../libdaisy/src/dev/oled_ssd130x.h ****     }
 248:../../libdaisy/src/dev/oled_ssd130x.h **** 
 249:../../libdaisy/src/dev/oled_ssd130x.h ****     void Fill(bool on)
 260              		.loc 14 249 10 view .LVU37
 261              	.LBB662:
 250:../../libdaisy/src/dev/oled_ssd130x.h ****     {
 251:../../libdaisy/src/dev/oled_ssd130x.h ****         for(size_t i = 0; i < sizeof(buffer_); i++)
 262              		.loc 14 251 29 view .LVU38
 263 0000 4942     		rsbs	r1, r1, #0
ARM GAS  /tmp/ccoLrWzv.s 			page 23


 264              	.LVL9:
 265              		.loc 14 251 29 is_stmt 0 view .LVU39
 266 0002 00F11303 		add	r3, r0, #19
 267 0006 00F21342 		addw	r2, r0, #1043
 268 000a C9B2     		uxtb	r1, r1
 269              	.LVL10:
 270              	.L9:
 252:../../libdaisy/src/dev/oled_ssd130x.h ****         {
 253:../../libdaisy/src/dev/oled_ssd130x.h ****             buffer_[i] = on ? 0xff : 0x00;
 271              		.loc 14 253 13 view .LVU40
 272 000c 03F8011F 		strb	r1, [r3, #1]!
 273              	.LVL11:
 251:../../libdaisy/src/dev/oled_ssd130x.h ****         {
 274              		.loc 14 251 9 is_stmt 1 view .LVU41
 251:../../libdaisy/src/dev/oled_ssd130x.h ****         {
 275              		.loc 14 251 29 view .LVU42
 276 0010 9342     		cmp	r3, r2
 277 0012 FBD1     		bne	.L9
 278              	.LBE662:
 279              	.LBE661:
 280              		.loc 2 33 53 is_stmt 0 view .LVU43
 281 0014 7047     		bx	lr
 282              		.cfi_endproc
 283              	.LFE4833:
 285 0016 00BF     		.section	.text._Z13AudioCallbackPKPKfPPfj,"ax",%progbits
 286              		.align	1
 287              		.p2align 2,,3
 288              		.global	_Z13AudioCallbackPKPKfPPfj
 289              		.syntax unified
 290              		.thumb
 291              		.thumb_func
 292              		.fpu fpv5-d16
 294              	_Z13AudioCallbackPKPKfPPfj:
 295              	.LVL12:
 296              	.LFB4233:
 297              		.file 15 "Midi.cpp"
   1:Midi.cpp      **** #include "daisy_patch.h"
   2:Midi.cpp      **** #include "daisysp.h"
   3:Midi.cpp      **** #include <string>
   4:Midi.cpp      **** 
   5:Midi.cpp      **** using namespace daisy;
   6:Midi.cpp      **** using namespace daisysp;
   7:Midi.cpp      **** 
   8:Midi.cpp      **** DaisyPatch hw;
   9:Midi.cpp      **** Oscillator osc;
  10:Midi.cpp      **** Svf        filt;
  11:Midi.cpp      **** 
  12:Midi.cpp      **** void AudioCallback(AudioHandle::InputBuffer  in,
  13:Midi.cpp      ****                    AudioHandle::OutputBuffer out,
  14:Midi.cpp      ****                    size_t                    size)
  15:Midi.cpp      **** {
 298              		.loc 15 15 1 is_stmt 1 view -0
 299              		.cfi_startproc
 300              		@ args = 0, pretend = 0, frame = 0
 301              		@ frame_needed = 0, uses_anonymous_args = 0
  16:Midi.cpp      ****     float sig;
 302              		.loc 15 16 5 view .LVU45
ARM GAS  /tmp/ccoLrWzv.s 			page 24


  17:Midi.cpp      ****     for(size_t i = 0; i < size; i++)
 303              		.loc 15 17 5 view .LVU46
 304              	.LBB663:
 305              		.loc 15 17 25 view .LVU47
 306 0000 02B3     		cbz	r2, .L21
 307              	.LBE663:
  15:Midi.cpp      ****     float sig;
 308              		.loc 15 15 1 is_stmt 0 view .LVU48
 309 0002 2DE9F843 		push	{r3, r4, r5, r6, r7, r8, r9, lr}
 310              		.cfi_def_cfa_offset 32
 311              		.cfi_offset 3, -32
 312              		.cfi_offset 4, -28
 313              		.cfi_offset 5, -24
 314              		.cfi_offset 6, -20
 315              		.cfi_offset 7, -16
 316              		.cfi_offset 8, -12
 317              		.cfi_offset 9, -8
 318              		.cfi_offset 14, -4
 319 0006 1646     		mov	r6, r2
 320              	.LBB668:
 321              		.loc 15 17 16 view .LVU49
 322 0008 4FF00009 		mov	r9, #0
 323 000c 0F1F     		subs	r7, r1, #4
 324 000e 01F10C05 		add	r5, r1, #12
 325 0012 DFF83880 		ldr	r8, .L24+4
 326              	.LVL13:
 327              	.L14:
 328              	.LBB664:
  18:Midi.cpp      ****     {
  19:Midi.cpp      ****         sig = osc.Process();
 329              		.loc 15 19 9 is_stmt 1 view .LVU50
 330              		.loc 15 19 26 is_stmt 0 view .LVU51
 331 0016 0C48     		ldr	r0, .L24
 332 0018 4FEA8904 		lsl	r4, r9, #2
 333 001c FFF7FEFF 		bl	_ZN7daisysp10Oscillator7ProcessEv
 334              	.LVL14:
  20:Midi.cpp      ****         filt.Process(sig);
 335              		.loc 15 20 9 is_stmt 1 view .LVU52
 336              		.loc 15 20 21 is_stmt 0 view .LVU53
 337 0020 0A48     		ldr	r0, .L24+4
 338 0022 FFF7FEFF 		bl	_ZN7daisysp3Svf7ProcessEf
 339              	.LVL15:
  21:Midi.cpp      ****         for(size_t chn = 0; chn < 4; chn++)
 340              		.loc 15 21 9 is_stmt 1 view .LVU54
 341              	.LBB665:
 342              		.loc 15 21 33 view .LVU55
 343 0026 3946     		mov	r1, r7
 344              	.LVL16:
 345              	.L13:
  22:Midi.cpp      ****         {
  23:Midi.cpp      ****             out[chn][i] = filt.Low();
 346              		.loc 15 23 13 discriminator 2 view .LVU56
 347              		.loc 15 23 25 is_stmt 0 discriminator 2 view .LVU57
 348 0028 51F8043F 		ldr	r3, [r1, #4]!
 349              		.loc 15 23 35 discriminator 2 view .LVU58
 350 002c D8F83000 		ldr	r0, [r8, #48]	@ float
 351              	.LVL17:
ARM GAS  /tmp/ccoLrWzv.s 			page 25


 352              		.loc 15 23 35 discriminator 2 view .LVU59
 353              	.LBE665:
 354              	.LBE664:
 355              	.LBE668:
  23:../../DaisySP/Source/Filters/svf.h ****     /** Initializes the filter
  24:../../DaisySP/Source/Filters/svf.h ****         float sample_rate - sample rate of the audio engine being run, and the frequency that the P
  25:../../DaisySP/Source/Filters/svf.h ****     */
  26:../../DaisySP/Source/Filters/svf.h ****     void Init(float sample_rate);
  27:../../DaisySP/Source/Filters/svf.h **** 
  28:../../DaisySP/Source/Filters/svf.h **** 
  29:../../DaisySP/Source/Filters/svf.h ****     /** 
  30:../../DaisySP/Source/Filters/svf.h ****         Process the input signal, updating all of the outputs.
  31:../../DaisySP/Source/Filters/svf.h ****     */
  32:../../DaisySP/Source/Filters/svf.h ****     void Process(float in);
  33:../../DaisySP/Source/Filters/svf.h **** 
  34:../../DaisySP/Source/Filters/svf.h **** 
  35:../../DaisySP/Source/Filters/svf.h ****     /** sets the frequency of the cutoff frequency. 
  36:../../DaisySP/Source/Filters/svf.h ****         f must be between 0.0 and sample_rate / 3
  37:../../DaisySP/Source/Filters/svf.h ****     */
  38:../../DaisySP/Source/Filters/svf.h ****     void SetFreq(float f);
  39:../../DaisySP/Source/Filters/svf.h **** 
  40:../../DaisySP/Source/Filters/svf.h ****     /** sets the resonance of the filter.
  41:../../DaisySP/Source/Filters/svf.h ****         Must be between 0.0 and 1.0 to ensure stability.
  42:../../DaisySP/Source/Filters/svf.h ****     */
  43:../../DaisySP/Source/Filters/svf.h ****     void SetRes(float r);
  44:../../DaisySP/Source/Filters/svf.h **** 
  45:../../DaisySP/Source/Filters/svf.h ****     /** sets the drive of the filter 
  46:../../DaisySP/Source/Filters/svf.h ****         affects the response of the resonance of the filter
  47:../../DaisySP/Source/Filters/svf.h ****     */
  48:../../DaisySP/Source/Filters/svf.h ****     void SetDrive(float d);
  49:../../DaisySP/Source/Filters/svf.h ****     /** lowpass output
  50:../../DaisySP/Source/Filters/svf.h ****         \return low pass output of the filter
  51:../../DaisySP/Source/Filters/svf.h ****     */
  52:../../DaisySP/Source/Filters/svf.h ****     inline float Low() { return out_low_; }
 356              		.loc 13 52 26 is_stmt 1 discriminator 2 view .LVU60
 357              	.LBB669:
 358              	.LBB667:
 359              	.LBB666:
 360              		.loc 15 23 25 is_stmt 0 discriminator 2 view .LVU61
 361 0030 2344     		add	r3, r3, r4
  21:Midi.cpp      ****         {
 362              		.loc 15 21 33 discriminator 2 view .LVU62
 363 0032 A942     		cmp	r1, r5
 364              		.loc 15 23 25 discriminator 2 view .LVU63
 365 0034 1860     		str	r0, [r3]	@ float
  21:Midi.cpp      ****         {
 366              		.loc 15 21 9 is_stmt 1 discriminator 2 view .LVU64
  21:Midi.cpp      ****         {
 367              		.loc 15 21 33 discriminator 2 view .LVU65
 368 0036 F7D1     		bne	.L13
 369              	.LBE666:
 370              	.LBE667:
  17:Midi.cpp      ****     {
 371              		.loc 15 17 5 discriminator 2 view .LVU66
 372 0038 09F10109 		add	r9, r9, #1
 373              	.LVL18:
  17:Midi.cpp      ****     {
ARM GAS  /tmp/ccoLrWzv.s 			page 26


 374              		.loc 15 17 25 discriminator 2 view .LVU67
 375 003c 4E45     		cmp	r6, r9
 376 003e EAD1     		bne	.L14
 377              	.LBE669:
  24:Midi.cpp      ****         }
  25:Midi.cpp      ****     }
  26:Midi.cpp      **** }
 378              		.loc 15 26 1 is_stmt 0 view .LVU68
 379 0040 BDE8F883 		pop	{r3, r4, r5, r6, r7, r8, r9, pc}
 380              	.LVL19:
 381              	.L21:
 382              		.cfi_def_cfa_offset 0
 383              		.cfi_restore 3
 384              		.cfi_restore 4
 385              		.cfi_restore 5
 386              		.cfi_restore 6
 387              		.cfi_restore 7
 388              		.cfi_restore 8
 389              		.cfi_restore 9
 390              		.cfi_restore 14
 391              		.loc 15 26 1 view .LVU69
 392 0044 7047     		bx	lr
 393              	.L25:
 394 0046 00BF     		.align	2
 395              	.L24:
 396 0048 00000000 		.word	.LANCHOR0
 397 004c 00000000 		.word	.LANCHOR1
 398              		.cfi_endproc
 399              	.LFE4233:
 401              		.section	.text._ZN5daisy11OledDisplayINS_13SSD130xDriverILj128ELj64ENS_24SSD130x4WireSpiTransportE
 402              		.align	1
 403              		.p2align 2,,3
 404              		.weak	_ZN5daisy11OledDisplayINS_13SSD130xDriverILj128ELj64ENS_24SSD130x4WireSpiTransportEEEED0Ev
 405              		.syntax unified
 406              		.thumb
 407              		.thumb_func
 408              		.fpu fpv5-d16
 410              	_ZN5daisy11OledDisplayINS_13SSD130xDriverILj128ELj64ENS_24SSD130x4WireSpiTransportEEEED0Ev:
 411              	.LVL20:
 412              	.LFB4266:
  17:../../libdaisy/src/hid/disp/oled_display.h **** 
 413              		.loc 2 17 13 is_stmt 1 view -0
 414              		.cfi_startproc
 415              		@ args = 0, pretend = 0, frame = 0
 416              		@ frame_needed = 0, uses_anonymous_args = 0
  17:../../libdaisy/src/hid/disp/oled_display.h **** 
 417              		.loc 2 17 13 is_stmt 0 view .LVU71
 418 0000 10B5     		push	{r4, lr}
 419              		.cfi_def_cfa_offset 8
 420              		.cfi_offset 4, -8
 421              		.cfi_offset 14, -4
  17:../../libdaisy/src/hid/disp/oled_display.h **** 
 422              		.loc 2 17 13 view .LVU72
 423 0002 0446     		mov	r4, r0
 424              	.LVL21:
 425              	.LBB670:
 426              	.LBI670:
ARM GAS  /tmp/ccoLrWzv.s 			page 27


  17:../../libdaisy/src/hid/disp/oled_display.h **** 
 427              		.loc 2 17 13 is_stmt 1 view .LVU73
 428              	.LBB671:
 429              	.LBI671:
 430              		.loc 3 219 13 view .LVU74
 431              	.LBB672:
 432              	.LBI672:
  23:../../libdaisy/src/hid/disp/display.h **** 
 433              		.loc 3 23 13 view .LVU75
  23:../../libdaisy/src/hid/disp/display.h **** 
 434              		.loc 3 23 13 is_stmt 0 view .LVU76
 435              	.LBE672:
 436              	.LBE671:
 437              	.LBE670:
  17:../../libdaisy/src/hid/disp/oled_display.h **** 
 438              		.loc 2 17 29 view .LVU77
 439 0004 40F21441 		movw	r1, #1044
 440 0008 FFF7FEFF 		bl	_ZdlPvj
 441              	.LVL22:
  17:../../libdaisy/src/hid/disp/oled_display.h **** 
 442              		.loc 2 17 29 view .LVU78
 443 000c 2046     		mov	r0, r4
 444 000e 10BD     		pop	{r4, pc}
  17:../../libdaisy/src/hid/disp/oled_display.h **** 
 445              		.loc 2 17 29 view .LVU79
 446              		.cfi_endproc
 447              	.LFE4266:
 449              		.section	.text._ZN5daisy11OledDisplayINS_13SSD130xDriverILj128ELj64ENS_24SSD130x4WireSpiTransportE
 450              		.align	1
 451              		.p2align 2,,3
 452              		.weak	_ZN5daisy11OledDisplayINS_13SSD130xDriverILj128ELj64ENS_24SSD130x4WireSpiTransportEEEE6Updat
 453              		.syntax unified
 454              		.thumb
 455              		.thumb_func
 456              		.fpu fpv5-d16
 458              	_ZN5daisy11OledDisplayINS_13SSD130xDriverILj128ELj64ENS_24SSD130x4WireSpiTransportEEEE6UpdateEv:
 459              	.LVL23:
 460              	.LFB4555:
  34:../../libdaisy/src/hid/disp/oled_display.h **** 
  35:../../libdaisy/src/hid/disp/oled_display.h ****     /**
  36:../../libdaisy/src/hid/disp/oled_display.h ****     Sets the pixel at the specified coordinate to be on/off.
  37:../../libdaisy/src/hid/disp/oled_display.h ****     \param x   x Coordinate
  38:../../libdaisy/src/hid/disp/oled_display.h ****     \param y   y coordinate
  39:../../libdaisy/src/hid/disp/oled_display.h ****     \param on  on or off
  40:../../libdaisy/src/hid/disp/oled_display.h ****     */
  41:../../libdaisy/src/hid/disp/oled_display.h ****     void DrawPixel(uint_fast8_t x, uint_fast8_t y, bool on) override
  42:../../libdaisy/src/hid/disp/oled_display.h ****     {
  43:../../libdaisy/src/hid/disp/oled_display.h ****         driver_.DrawPixel(x, y, on);
  44:../../libdaisy/src/hid/disp/oled_display.h ****     }
  45:../../libdaisy/src/hid/disp/oled_display.h **** 
  46:../../libdaisy/src/hid/disp/oled_display.h ****     /** 
  47:../../libdaisy/src/hid/disp/oled_display.h ****     Writes the current display buffer to the OLED device using SPI or I2C depending on 
  48:../../libdaisy/src/hid/disp/oled_display.h ****     how the object was initialized.
  49:../../libdaisy/src/hid/disp/oled_display.h ****     */
  50:../../libdaisy/src/hid/disp/oled_display.h ****     void Update() override { driver_.Update(); }
 461              		.loc 2 50 10 is_stmt 1 view -0
 462              		.cfi_startproc
ARM GAS  /tmp/ccoLrWzv.s 			page 28


 463              		@ args = 0, pretend = 0, frame = 8
 464              		@ frame_needed = 0, uses_anonymous_args = 0
 465              	.LBB683:
 466              	.LBI683:
 254:../../libdaisy/src/dev/oled_ssd130x.h ****         }
 255:../../libdaisy/src/dev/oled_ssd130x.h ****     };
 256:../../libdaisy/src/dev/oled_ssd130x.h **** 
 257:../../libdaisy/src/dev/oled_ssd130x.h ****     /**
 258:../../libdaisy/src/dev/oled_ssd130x.h ****      * Update the display 
 259:../../libdaisy/src/dev/oled_ssd130x.h ****     */
 260:../../libdaisy/src/dev/oled_ssd130x.h ****     void Update()
 467              		.loc 14 260 10 view .LVU81
 468              	.LBB684:
 261:../../libdaisy/src/dev/oled_ssd130x.h ****     {
 262:../../libdaisy/src/dev/oled_ssd130x.h ****         uint8_t i;
 263:../../libdaisy/src/dev/oled_ssd130x.h ****         uint8_t high_column_addr;
 264:../../libdaisy/src/dev/oled_ssd130x.h ****         switch(height)
 265:../../libdaisy/src/dev/oled_ssd130x.h ****         {
 266:../../libdaisy/src/dev/oled_ssd130x.h ****             case 32: high_column_addr = 0x12; break;
 267:../../libdaisy/src/dev/oled_ssd130x.h **** 
 268:../../libdaisy/src/dev/oled_ssd130x.h ****             default: high_column_addr = 0x10; break;
 269:../../libdaisy/src/dev/oled_ssd130x.h ****         }
 270:../../libdaisy/src/dev/oled_ssd130x.h ****         for(i = 0; i < (height / 8); i++)
 469              		.loc 14 270 22 view .LVU82
 470              	.LBE684:
 471              	.LBE683:
 472              		.loc 2 50 10 is_stmt 0 view .LVU83
 473 0000 2DE9F041 		push	{r4, r5, r6, r7, r8, lr}
 474              		.cfi_def_cfa_offset 24
 475              		.cfi_offset 4, -24
 476              		.cfi_offset 5, -20
 477              		.cfi_offset 6, -16
 478              		.cfi_offset 7, -12
 479              		.cfi_offset 8, -8
 480              		.cfi_offset 14, -4
 481 0004 B025     		movs	r5, #176
 482 0006 82B0     		sub	sp, sp, #8
 483              		.cfi_def_cfa_offset 32
 484 0008 00F10807 		add	r7, r0, #8
 485 000c 00F11006 		add	r6, r0, #16
 486 0010 00F11404 		add	r4, r0, #20
 487              	.LVL24:
 488              	.L29:
 489              	.LBB697:
 490              	.LBB696:
 491              	.LBB685:
 492              	.LBB686:
 111:../../libdaisy/src/dev/oled_ssd130x.h ****         spi_.BlockingTransmit(&cmd, 1);
 493              		.loc 14 111 23 view .LVU84
 494 0014 0021     		movs	r1, #0
 495 0016 3046     		mov	r0, r6
 496 0018 8DF80750 		strb	r5, [sp, #7]
 497              	.LVL25:
 111:../../libdaisy/src/dev/oled_ssd130x.h ****         spi_.BlockingTransmit(&cmd, 1);
 498              		.loc 14 111 23 view .LVU85
 499              	.LBE686:
 500              	.LBI685:
ARM GAS  /tmp/ccoLrWzv.s 			page 29


 109:../../libdaisy/src/dev/oled_ssd130x.h ****     {
 501              		.loc 14 109 10 is_stmt 1 view .LVU86
 502              	.LBB687:
 111:../../libdaisy/src/dev/oled_ssd130x.h ****         spi_.BlockingTransmit(&cmd, 1);
 503              		.loc 14 111 9 view .LVU87
 504 001c 0135     		adds	r5, r5, #1
 505              	.LVL26:
 111:../../libdaisy/src/dev/oled_ssd130x.h ****         spi_.BlockingTransmit(&cmd, 1);
 506              		.loc 14 111 9 is_stmt 0 view .LVU88
 507 001e 8846     		mov	r8, r1
 111:../../libdaisy/src/dev/oled_ssd130x.h ****         spi_.BlockingTransmit(&cmd, 1);
 508              		.loc 14 111 23 view .LVU89
 509 0020 FFF7FEFF 		bl	dsy_gpio_write
 510              	.LVL27:
 112:../../libdaisy/src/dev/oled_ssd130x.h ****     };
 511              		.loc 14 112 9 is_stmt 1 view .LVU90
 112:../../libdaisy/src/dev/oled_ssd130x.h ****     };
 512              		.loc 14 112 30 is_stmt 0 view .LVU91
 513 0024 6423     		movs	r3, #100
 514 0026 0122     		movs	r2, #1
 515 0028 0DF10701 		add	r1, sp, #7
 516 002c 3846     		mov	r0, r7
 517 002e FFF7FEFF 		bl	_ZN5daisy9SpiHandle16BlockingTransmitEPhjm
 518              	.LVL28:
 112:../../libdaisy/src/dev/oled_ssd130x.h ****     };
 519              		.loc 14 112 30 view .LVU92
 520              	.LBE687:
 521              	.LBE685:
 522              	.LBB688:
 523              	.LBB689:
 111:../../libdaisy/src/dev/oled_ssd130x.h ****         spi_.BlockingTransmit(&cmd, 1);
 524              		.loc 14 111 23 view .LVU93
 525 0032 4146     		mov	r1, r8
 526 0034 3046     		mov	r0, r6
 527 0036 8DF80780 		strb	r8, [sp, #7]
 528              	.LVL29:
 111:../../libdaisy/src/dev/oled_ssd130x.h ****         spi_.BlockingTransmit(&cmd, 1);
 529              		.loc 14 111 23 view .LVU94
 530              	.LBE689:
 531              	.LBI688:
 109:../../libdaisy/src/dev/oled_ssd130x.h ****     {
 532              		.loc 14 109 10 is_stmt 1 view .LVU95
 533              	.LBB690:
 111:../../libdaisy/src/dev/oled_ssd130x.h ****         spi_.BlockingTransmit(&cmd, 1);
 534              		.loc 14 111 9 view .LVU96
 111:../../libdaisy/src/dev/oled_ssd130x.h ****         spi_.BlockingTransmit(&cmd, 1);
 535              		.loc 14 111 23 is_stmt 0 view .LVU97
 536 003a FFF7FEFF 		bl	dsy_gpio_write
 537              	.LVL30:
 112:../../libdaisy/src/dev/oled_ssd130x.h ****     };
 538              		.loc 14 112 9 is_stmt 1 view .LVU98
 112:../../libdaisy/src/dev/oled_ssd130x.h ****     };
 539              		.loc 14 112 30 is_stmt 0 view .LVU99
 540 003e 0122     		movs	r2, #1
 541 0040 6423     		movs	r3, #100
 542 0042 0DF10701 		add	r1, sp, #7
 543 0046 3846     		mov	r0, r7
ARM GAS  /tmp/ccoLrWzv.s 			page 30


 544 0048 EDB2     		uxtb	r5, r5
 545 004a FFF7FEFF 		bl	_ZN5daisy9SpiHandle16BlockingTransmitEPhjm
 546              	.LVL31:
 112:../../libdaisy/src/dev/oled_ssd130x.h ****     };
 547              		.loc 14 112 30 view .LVU100
 548 004e 1023     		movs	r3, #16
 549              	.LBE690:
 550              	.LBE688:
 551              	.LBB691:
 552              	.LBB692:
 111:../../libdaisy/src/dev/oled_ssd130x.h ****         spi_.BlockingTransmit(&cmd, 1);
 553              		.loc 14 111 23 view .LVU101
 554 0050 4146     		mov	r1, r8
 555 0052 3046     		mov	r0, r6
 556 0054 8DF80730 		strb	r3, [sp, #7]
 557              	.LVL32:
 111:../../libdaisy/src/dev/oled_ssd130x.h ****         spi_.BlockingTransmit(&cmd, 1);
 558              		.loc 14 111 23 view .LVU102
 559              	.LBE692:
 560              	.LBI691:
 109:../../libdaisy/src/dev/oled_ssd130x.h ****     {
 561              		.loc 14 109 10 is_stmt 1 view .LVU103
 562              	.LBB693:
 111:../../libdaisy/src/dev/oled_ssd130x.h ****         spi_.BlockingTransmit(&cmd, 1);
 563              		.loc 14 111 9 view .LVU104
 111:../../libdaisy/src/dev/oled_ssd130x.h ****         spi_.BlockingTransmit(&cmd, 1);
 564              		.loc 14 111 23 is_stmt 0 view .LVU105
 565 0058 FFF7FEFF 		bl	dsy_gpio_write
 566              	.LVL33:
 112:../../libdaisy/src/dev/oled_ssd130x.h ****     };
 567              		.loc 14 112 9 is_stmt 1 view .LVU106
 112:../../libdaisy/src/dev/oled_ssd130x.h ****     };
 568              		.loc 14 112 30 is_stmt 0 view .LVU107
 569 005c 6423     		movs	r3, #100
 570 005e 0122     		movs	r2, #1
 571 0060 0DF10701 		add	r1, sp, #7
 572 0064 3846     		mov	r0, r7
 573 0066 FFF7FEFF 		bl	_ZN5daisy9SpiHandle16BlockingTransmitEPhjm
 574              	.LVL34:
 112:../../libdaisy/src/dev/oled_ssd130x.h ****     };
 575              		.loc 14 112 30 view .LVU108
 576              	.LBE693:
 577              	.LBE691:
 578              	.LBB694:
 579              	.LBI694:
 115:../../libdaisy/src/dev/oled_ssd130x.h ****     {
 580              		.loc 14 115 10 is_stmt 1 view .LVU109
 581              	.LBB695:
 117:../../libdaisy/src/dev/oled_ssd130x.h ****         spi_.BlockingTransmit(buff, size);
 582              		.loc 14 117 9 view .LVU110
 117:../../libdaisy/src/dev/oled_ssd130x.h ****         spi_.BlockingTransmit(buff, size);
 583              		.loc 14 117 23 is_stmt 0 view .LVU111
 584 006a 0121     		movs	r1, #1
 585 006c 3046     		mov	r0, r6
 586 006e FFF7FEFF 		bl	dsy_gpio_write
 587              	.LVL35:
 118:../../libdaisy/src/dev/oled_ssd130x.h ****     };
ARM GAS  /tmp/ccoLrWzv.s 			page 31


 588              		.loc 14 118 9 is_stmt 1 view .LVU112
 118:../../libdaisy/src/dev/oled_ssd130x.h ****     };
 589              		.loc 14 118 30 is_stmt 0 view .LVU113
 590 0072 8022     		movs	r2, #128
 591 0074 2146     		mov	r1, r4
 592 0076 6423     		movs	r3, #100
 593 0078 3846     		mov	r0, r7
 594 007a 1444     		add	r4, r4, r2
 595              	.LVL36:
 118:../../libdaisy/src/dev/oled_ssd130x.h ****     };
 596              		.loc 14 118 30 view .LVU114
 597 007c FFF7FEFF 		bl	_ZN5daisy9SpiHandle16BlockingTransmitEPhjm
 598              	.LVL37:
 118:../../libdaisy/src/dev/oled_ssd130x.h ****     };
 599              		.loc 14 118 30 view .LVU115
 600              	.LBE695:
 601              	.LBE694:
 602              		.loc 14 270 9 is_stmt 1 view .LVU116
 603              		.loc 14 270 22 view .LVU117
 604 0080 B82D     		cmp	r5, #184
 605 0082 C7D1     		bne	.L29
 606              	.LBE696:
 607              	.LBE697:
 608              		.loc 2 50 48 is_stmt 0 view .LVU118
 609 0084 02B0     		add	sp, sp, #8
 610              		.cfi_def_cfa_offset 24
 611              		@ sp needed
 612 0086 BDE8F081 		pop	{r4, r5, r6, r7, r8, pc}
 613              		.loc 2 50 48 view .LVU119
 614              		.cfi_endproc
 615              	.LFE4555:
 617 008a 00BF     		.section	.text._ZN5daisy25OneBitGraphicsDisplayImplINS_11OledDisplayINS_13SSD130xDriverILj128ELj64
 618              		.align	1
 619              		.p2align 2,,3
 620              		.weak	_ZN5daisy25OneBitGraphicsDisplayImplINS_11OledDisplayINS_13SSD130xDriverILj128ELj64ENS_24SSD
 621              		.syntax unified
 622              		.thumb
 623              		.thumb_func
 624              		.fpu fpv5-d16
 626              	_ZN5daisy25OneBitGraphicsDisplayImplINS_11OledDisplayINS_13SSD130xDriverILj128ELj64ENS_24SSD130x4Wi
 627              	.LVL38:
 628              	.LFB4554:
 220:../../libdaisy/src/hid/disp/display.h **** 
 221:../../libdaisy/src/hid/disp/display.h ****     void DrawLine(uint_fast8_t x1,
 222:../../libdaisy/src/hid/disp/display.h ****                   uint_fast8_t y1,
 223:../../libdaisy/src/hid/disp/display.h ****                   uint_fast8_t x2,
 224:../../libdaisy/src/hid/disp/display.h ****                   uint_fast8_t y2,
 225:../../libdaisy/src/hid/disp/display.h ****                   bool         on) override
 226:../../libdaisy/src/hid/disp/display.h ****     {
 227:../../libdaisy/src/hid/disp/display.h ****         int_fast16_t deltaX = abs((int_fast16_t)x2 - (int_fast16_t)x1);
 228:../../libdaisy/src/hid/disp/display.h ****         int_fast16_t deltaY = abs((int_fast16_t)y2 - (int_fast16_t)y1);
 229:../../libdaisy/src/hid/disp/display.h ****         int_fast16_t signX  = ((x1 < x2) ? 1 : -1);
 230:../../libdaisy/src/hid/disp/display.h ****         int_fast16_t signY  = ((y1 < y2) ? 1 : -1);
 231:../../libdaisy/src/hid/disp/display.h ****         int_fast16_t error  = deltaX - deltaY;
 232:../../libdaisy/src/hid/disp/display.h ****         int_fast16_t error2;
 233:../../libdaisy/src/hid/disp/display.h **** 
 234:../../libdaisy/src/hid/disp/display.h ****         // If we write "ChildType::DrawPixel(x2, y2, on);", we end up with
ARM GAS  /tmp/ccoLrWzv.s 			page 32


 235:../../libdaisy/src/hid/disp/display.h ****         // all sorts of weird compiler errors when the Child class is a template
 236:../../libdaisy/src/hid/disp/display.h ****         // class. The only way around this is to use this very verbose syntax:
 237:../../libdaisy/src/hid/disp/display.h ****         ((ChildType*)(this))->ChildType::DrawPixel(x2, y2, on);
 238:../../libdaisy/src/hid/disp/display.h **** 
 239:../../libdaisy/src/hid/disp/display.h ****         while((x1 != x2) || (y1 != y2))
 240:../../libdaisy/src/hid/disp/display.h ****         {
 241:../../libdaisy/src/hid/disp/display.h ****             ((ChildType*)(this))->ChildType::DrawPixel(x1, y1, on);
 242:../../libdaisy/src/hid/disp/display.h ****             error2 = error * 2;
 243:../../libdaisy/src/hid/disp/display.h ****             if(error2 > -deltaY)
 244:../../libdaisy/src/hid/disp/display.h ****             {
 245:../../libdaisy/src/hid/disp/display.h ****                 error -= deltaY;
 246:../../libdaisy/src/hid/disp/display.h ****                 x1 += signX;
 247:../../libdaisy/src/hid/disp/display.h ****             }
 248:../../libdaisy/src/hid/disp/display.h **** 
 249:../../libdaisy/src/hid/disp/display.h ****             if(error2 < deltaX)
 250:../../libdaisy/src/hid/disp/display.h ****             {
 251:../../libdaisy/src/hid/disp/display.h ****                 error += deltaX;
 252:../../libdaisy/src/hid/disp/display.h ****                 y1 += signY;
 253:../../libdaisy/src/hid/disp/display.h ****             }
 254:../../libdaisy/src/hid/disp/display.h ****         }
 255:../../libdaisy/src/hid/disp/display.h ****     }
 256:../../libdaisy/src/hid/disp/display.h **** 
 257:../../libdaisy/src/hid/disp/display.h ****     void DrawRect(uint_fast8_t x1,
 258:../../libdaisy/src/hid/disp/display.h ****                   uint_fast8_t y1,
 259:../../libdaisy/src/hid/disp/display.h ****                   uint_fast8_t x2,
 260:../../libdaisy/src/hid/disp/display.h ****                   uint_fast8_t y2,
 261:../../libdaisy/src/hid/disp/display.h ****                   bool         on,
 262:../../libdaisy/src/hid/disp/display.h ****                   bool         fill = false) override
 263:../../libdaisy/src/hid/disp/display.h ****     {
 264:../../libdaisy/src/hid/disp/display.h ****         if(fill)
 265:../../libdaisy/src/hid/disp/display.h ****         {
 266:../../libdaisy/src/hid/disp/display.h ****             for(uint_fast8_t x = x1; x <= x2; x++)
 267:../../libdaisy/src/hid/disp/display.h ****             {
 268:../../libdaisy/src/hid/disp/display.h ****                 for(uint_fast8_t y = y1; y <= y2; y++)
 269:../../libdaisy/src/hid/disp/display.h ****                 {
 270:../../libdaisy/src/hid/disp/display.h ****                     ((ChildType*)(this))->ChildType::DrawPixel(x, y, on);
 271:../../libdaisy/src/hid/disp/display.h ****                 }
 272:../../libdaisy/src/hid/disp/display.h ****             }
 273:../../libdaisy/src/hid/disp/display.h ****         }
 274:../../libdaisy/src/hid/disp/display.h ****         else
 275:../../libdaisy/src/hid/disp/display.h ****         {
 276:../../libdaisy/src/hid/disp/display.h ****             ((ChildType*)(this))->ChildType::DrawLine(x1, y1, x2, y1, on);
 277:../../libdaisy/src/hid/disp/display.h ****             ((ChildType*)(this))->ChildType::DrawLine(x2, y1, x2, y2, on);
 278:../../libdaisy/src/hid/disp/display.h ****             ((ChildType*)(this))->ChildType::DrawLine(x2, y2, x1, y2, on);
 279:../../libdaisy/src/hid/disp/display.h ****             ((ChildType*)(this))->ChildType::DrawLine(x1, y2, x1, y1, on);
 280:../../libdaisy/src/hid/disp/display.h ****         }
 281:../../libdaisy/src/hid/disp/display.h ****     }
 282:../../libdaisy/src/hid/disp/display.h **** 
 283:../../libdaisy/src/hid/disp/display.h ****     void DrawArc(uint_fast8_t x,
 284:../../libdaisy/src/hid/disp/display.h ****                  uint_fast8_t y,
 285:../../libdaisy/src/hid/disp/display.h ****                  uint_fast8_t radius,
 286:../../libdaisy/src/hid/disp/display.h ****                  int_fast16_t start_angle,
 287:../../libdaisy/src/hid/disp/display.h ****                  int_fast16_t sweep,
 288:../../libdaisy/src/hid/disp/display.h ****                  bool         on) override
 289:../../libdaisy/src/hid/disp/display.h ****     {
 290:../../libdaisy/src/hid/disp/display.h ****         // Values to calculate the circle
 291:../../libdaisy/src/hid/disp/display.h ****         int_fast16_t t_x, t_y, err, e2;
ARM GAS  /tmp/ccoLrWzv.s 			page 33


 292:../../libdaisy/src/hid/disp/display.h **** 
 293:../../libdaisy/src/hid/disp/display.h ****         // Temporary values to speed up comparisons
 294:../../libdaisy/src/hid/disp/display.h ****         float t_sxy, t_syx, t_sxny, t_synx;
 295:../../libdaisy/src/hid/disp/display.h ****         float t_exy, t_eyx, t_exny, t_eynx;
 296:../../libdaisy/src/hid/disp/display.h **** 
 297:../../libdaisy/src/hid/disp/display.h ****         float start_angle_rad, end_angle_rad;
 298:../../libdaisy/src/hid/disp/display.h ****         float start_x, start_y, end_x, end_y;
 299:../../libdaisy/src/hid/disp/display.h **** 
 300:../../libdaisy/src/hid/disp/display.h ****         bool d1, d2, d3, d4;
 301:../../libdaisy/src/hid/disp/display.h **** 
 302:../../libdaisy/src/hid/disp/display.h ****         d1 = d2 = d3 = d4 = true;
 303:../../libdaisy/src/hid/disp/display.h **** 
 304:../../libdaisy/src/hid/disp/display.h ****         bool circle = false;
 305:../../libdaisy/src/hid/disp/display.h **** 
 306:../../libdaisy/src/hid/disp/display.h ****         if(sweep < 0)
 307:../../libdaisy/src/hid/disp/display.h ****         {
 308:../../libdaisy/src/hid/disp/display.h ****             start_angle += sweep;
 309:../../libdaisy/src/hid/disp/display.h ****             sweep = -sweep;
 310:../../libdaisy/src/hid/disp/display.h ****         }
 311:../../libdaisy/src/hid/disp/display.h **** 
 312:../../libdaisy/src/hid/disp/display.h ****         start_angle_rad = deg2rad(start_angle);
 313:../../libdaisy/src/hid/disp/display.h ****         end_angle_rad   = deg2rad(start_angle + sweep);
 314:../../libdaisy/src/hid/disp/display.h **** 
 315:../../libdaisy/src/hid/disp/display.h ****         start_x = cos(start_angle_rad) * radius;
 316:../../libdaisy/src/hid/disp/display.h ****         start_y = -sin(start_angle_rad) * radius;
 317:../../libdaisy/src/hid/disp/display.h ****         end_x   = cos(end_angle_rad) * radius;
 318:../../libdaisy/src/hid/disp/display.h ****         end_y   = -sin(end_angle_rad) * radius;
 319:../../libdaisy/src/hid/disp/display.h **** 
 320:../../libdaisy/src/hid/disp/display.h ****         // Check if start and endpoint are very near
 321:../../libdaisy/src/hid/disp/display.h ****         if((end_x - start_x) * (end_x - start_x)
 322:../../libdaisy/src/hid/disp/display.h ****                + (end_y - start_y) * (end_y - start_y)
 323:../../libdaisy/src/hid/disp/display.h ****            < 2.0f)
 324:../../libdaisy/src/hid/disp/display.h ****         {
 325:../../libdaisy/src/hid/disp/display.h ****             if(sweep > 180)
 326:../../libdaisy/src/hid/disp/display.h ****                 circle = true;
 327:../../libdaisy/src/hid/disp/display.h ****             else
 328:../../libdaisy/src/hid/disp/display.h ****                 // Nothing to draw
 329:../../libdaisy/src/hid/disp/display.h ****                 return;
 330:../../libdaisy/src/hid/disp/display.h ****         }
 331:../../libdaisy/src/hid/disp/display.h **** 
 332:../../libdaisy/src/hid/disp/display.h ****         t_x = -radius;
 333:../../libdaisy/src/hid/disp/display.h ****         t_y = 0;
 334:../../libdaisy/src/hid/disp/display.h ****         err = 2 - 2 * radius;
 335:../../libdaisy/src/hid/disp/display.h **** 
 336:../../libdaisy/src/hid/disp/display.h ****         do
 337:../../libdaisy/src/hid/disp/display.h ****         {
 338:../../libdaisy/src/hid/disp/display.h ****             if(!circle)
 339:../../libdaisy/src/hid/disp/display.h ****             {
 340:../../libdaisy/src/hid/disp/display.h ****                 t_sxy  = start_x * t_y;
 341:../../libdaisy/src/hid/disp/display.h ****                 t_syx  = start_y * t_x;
 342:../../libdaisy/src/hid/disp/display.h ****                 t_sxny = start_x * -t_y;
 343:../../libdaisy/src/hid/disp/display.h ****                 t_synx = start_y * -t_x;
 344:../../libdaisy/src/hid/disp/display.h ****                 t_exy  = end_x * t_y;
 345:../../libdaisy/src/hid/disp/display.h ****                 t_eyx  = end_y * t_x;
 346:../../libdaisy/src/hid/disp/display.h ****                 t_exny = end_x * -t_y;
 347:../../libdaisy/src/hid/disp/display.h ****                 t_eynx = end_y * -t_x;
 348:../../libdaisy/src/hid/disp/display.h **** 
ARM GAS  /tmp/ccoLrWzv.s 			page 34


 349:../../libdaisy/src/hid/disp/display.h ****                 if(sweep > 180)
 350:../../libdaisy/src/hid/disp/display.h ****                 {
 351:../../libdaisy/src/hid/disp/display.h ****                     d1 = (t_sxy - t_synx < 0 || t_exy - t_eynx > 0);
 352:../../libdaisy/src/hid/disp/display.h ****                     d2 = (t_sxy - t_syx < 0 || t_exy - t_eyx > 0);
 353:../../libdaisy/src/hid/disp/display.h ****                     d3 = (t_sxny - t_syx < 0 || t_exny - t_eyx > 0);
 354:../../libdaisy/src/hid/disp/display.h ****                     d4 = (t_sxny - t_synx < 0 || t_exny - t_eynx > 0);
 355:../../libdaisy/src/hid/disp/display.h ****                 }
 356:../../libdaisy/src/hid/disp/display.h ****                 else
 357:../../libdaisy/src/hid/disp/display.h ****                 {
 358:../../libdaisy/src/hid/disp/display.h ****                     d1 = (t_sxy - t_synx < 0 && t_exy - t_eynx > 0);
 359:../../libdaisy/src/hid/disp/display.h ****                     d2 = (t_sxy - t_syx < 0 && t_exy - t_eyx > 0);
 360:../../libdaisy/src/hid/disp/display.h ****                     d3 = (t_sxny - t_syx < 0 && t_exny - t_eyx > 0);
 361:../../libdaisy/src/hid/disp/display.h ****                     d4 = (t_sxny - t_synx < 0 && t_exny - t_eynx > 0);
 362:../../libdaisy/src/hid/disp/display.h ****                 }
 363:../../libdaisy/src/hid/disp/display.h ****             }
 364:../../libdaisy/src/hid/disp/display.h **** 
 365:../../libdaisy/src/hid/disp/display.h ****             if(d1)
 366:../../libdaisy/src/hid/disp/display.h ****                 ((ChildType*)(this))
 367:../../libdaisy/src/hid/disp/display.h ****                     ->ChildType::DrawPixel(x - t_x, y + t_y, on);
 368:../../libdaisy/src/hid/disp/display.h ****             if(d2)
 369:../../libdaisy/src/hid/disp/display.h ****                 ((ChildType*)(this))
 370:../../libdaisy/src/hid/disp/display.h ****                     ->ChildType::DrawPixel(x + t_x, y + t_y, on);
 371:../../libdaisy/src/hid/disp/display.h ****             if(d3)
 372:../../libdaisy/src/hid/disp/display.h ****                 ((ChildType*)(this))
 373:../../libdaisy/src/hid/disp/display.h ****                     ->ChildType::DrawPixel(x + t_x, y - t_y, on);
 374:../../libdaisy/src/hid/disp/display.h ****             if(d4)
 375:../../libdaisy/src/hid/disp/display.h ****                 ((ChildType*)(this))
 376:../../libdaisy/src/hid/disp/display.h ****                     ->ChildType::DrawPixel(x - t_x, y - t_y, on);
 377:../../libdaisy/src/hid/disp/display.h **** 
 378:../../libdaisy/src/hid/disp/display.h ****             e2 = err;
 379:../../libdaisy/src/hid/disp/display.h ****             if(e2 <= t_y)
 380:../../libdaisy/src/hid/disp/display.h ****             {
 381:../../libdaisy/src/hid/disp/display.h ****                 t_y++;
 382:../../libdaisy/src/hid/disp/display.h ****                 err = err + (t_y * 2 + 1);
 383:../../libdaisy/src/hid/disp/display.h ****                 if(-t_x == t_y && e2 <= t_x)
 384:../../libdaisy/src/hid/disp/display.h ****                 {
 385:../../libdaisy/src/hid/disp/display.h ****                     e2 = 0;
 386:../../libdaisy/src/hid/disp/display.h ****                 }
 387:../../libdaisy/src/hid/disp/display.h ****             }
 388:../../libdaisy/src/hid/disp/display.h ****             if(e2 > t_x)
 389:../../libdaisy/src/hid/disp/display.h ****             {
 390:../../libdaisy/src/hid/disp/display.h ****                 t_x++;
 391:../../libdaisy/src/hid/disp/display.h ****                 err = err + (t_x * 2 + 1);
 392:../../libdaisy/src/hid/disp/display.h ****             }
 393:../../libdaisy/src/hid/disp/display.h ****         } while(t_x <= 0);
 394:../../libdaisy/src/hid/disp/display.h ****     }
 395:../../libdaisy/src/hid/disp/display.h **** 
 396:../../libdaisy/src/hid/disp/display.h ****     char WriteChar(char ch, FontDef font, bool on) override
 397:../../libdaisy/src/hid/disp/display.h ****     {
 398:../../libdaisy/src/hid/disp/display.h ****         uint32_t i, b, j;
 399:../../libdaisy/src/hid/disp/display.h **** 
 400:../../libdaisy/src/hid/disp/display.h ****         // Check if character is valid
 401:../../libdaisy/src/hid/disp/display.h ****         if(ch < 32 || ch > 126)
 402:../../libdaisy/src/hid/disp/display.h ****             return 0;
 403:../../libdaisy/src/hid/disp/display.h **** 
 404:../../libdaisy/src/hid/disp/display.h ****         // Check remaining space on current line
 405:../../libdaisy/src/hid/disp/display.h ****         if(Width() < (currentX_ + font.FontWidth)
ARM GAS  /tmp/ccoLrWzv.s 			page 35


 406:../../libdaisy/src/hid/disp/display.h ****            || Height() < (currentY_ + font.FontHeight))
 407:../../libdaisy/src/hid/disp/display.h ****         {
 408:../../libdaisy/src/hid/disp/display.h ****             // Not enough space on current line
 409:../../libdaisy/src/hid/disp/display.h ****             return 0;
 410:../../libdaisy/src/hid/disp/display.h ****         }
 411:../../libdaisy/src/hid/disp/display.h **** 
 412:../../libdaisy/src/hid/disp/display.h ****         // Use the font to write
 413:../../libdaisy/src/hid/disp/display.h ****         for(i = 0; i < font.FontHeight; i++)
 414:../../libdaisy/src/hid/disp/display.h ****         {
 415:../../libdaisy/src/hid/disp/display.h ****             b = font.data[(ch - 32) * font.FontHeight + i];
 416:../../libdaisy/src/hid/disp/display.h ****             for(j = 0; j < font.FontWidth; j++)
 417:../../libdaisy/src/hid/disp/display.h ****             {
 418:../../libdaisy/src/hid/disp/display.h ****                 if((b << j) & 0x8000)
 419:../../libdaisy/src/hid/disp/display.h ****                 {
 420:../../libdaisy/src/hid/disp/display.h ****                     ((ChildType*)(this))
 421:../../libdaisy/src/hid/disp/display.h ****                         ->ChildType::DrawPixel(
 422:../../libdaisy/src/hid/disp/display.h ****                             currentX_ + j, (currentY_ + i), on);
 423:../../libdaisy/src/hid/disp/display.h ****                 }
 424:../../libdaisy/src/hid/disp/display.h ****                 else
 425:../../libdaisy/src/hid/disp/display.h ****                 {
 426:../../libdaisy/src/hid/disp/display.h ****                     ((ChildType*)(this))
 427:../../libdaisy/src/hid/disp/display.h ****                         ->ChildType::DrawPixel(
 428:../../libdaisy/src/hid/disp/display.h ****                             currentX_ + j, (currentY_ + i), !on);
 429:../../libdaisy/src/hid/disp/display.h ****                 }
 430:../../libdaisy/src/hid/disp/display.h ****             }
 431:../../libdaisy/src/hid/disp/display.h ****         }
 432:../../libdaisy/src/hid/disp/display.h **** 
 433:../../libdaisy/src/hid/disp/display.h ****         // The current space is now taken
 434:../../libdaisy/src/hid/disp/display.h ****         SetCursor(currentX_ + font.FontWidth, currentY_);
 435:../../libdaisy/src/hid/disp/display.h **** 
 436:../../libdaisy/src/hid/disp/display.h ****         // Return written char for validation
 437:../../libdaisy/src/hid/disp/display.h ****         return ch;
 438:../../libdaisy/src/hid/disp/display.h ****     }
 439:../../libdaisy/src/hid/disp/display.h **** 
 440:../../libdaisy/src/hid/disp/display.h ****     char WriteString(const char* str, FontDef font, bool on) override
 629              		.loc 3 440 10 is_stmt 1 view -0
 630              		.cfi_startproc
 631              		@ args = 4, pretend = 0, frame = 32
 632              		@ frame_needed = 0, uses_anonymous_args = 0
 633              		.loc 3 440 10 is_stmt 0 view .LVU121
 634 0000 2DE9F04F 		push	{r4, r5, r6, r7, r8, r9, r10, fp, lr}
 635              		.cfi_def_cfa_offset 36
 636              		.cfi_offset 4, -36
 637              		.cfi_offset 5, -32
 638              		.cfi_offset 6, -28
 639              		.cfi_offset 7, -24
 640              		.cfi_offset 8, -20
 641              		.cfi_offset 9, -16
 642              		.cfi_offset 10, -12
 643              		.cfi_offset 11, -8
 644              		.cfi_offset 14, -4
 645 0004 89B0     		sub	sp, sp, #36
 646              		.cfi_def_cfa_offset 72
 647              		.loc 3 440 10 view .LVU122
 648 0006 8B46     		mov	fp, r1
 441:../../libdaisy/src/hid/disp/display.h ****     {
 442:../../libdaisy/src/hid/disp/display.h ****         // Write until null-byte
ARM GAS  /tmp/ccoLrWzv.s 			page 36


 443:../../libdaisy/src/hid/disp/display.h ****         while(*str)
 649              		.loc 3 443 9 is_stmt 1 view .LVU123
 650 0008 91F80090 		ldrb	r9, [r1]	@ zero_extendqisi2
 440:../../libdaisy/src/hid/disp/display.h ****     {
 651              		.loc 3 440 10 is_stmt 0 view .LVU124
 652 000c 9DF84840 		ldrb	r4, [sp, #72]	@ zero_extendqisi2
 653 0010 08A9     		add	r1, sp, #32
 654              	.LVL39:
 440:../../libdaisy/src/hid/disp/display.h ****     {
 655              		.loc 3 440 10 view .LVU125
 656 0012 0494     		str	r4, [sp, #16]
 657 0014 01E90C00 		stmdb	r1, {r2, r3}
 658              		.loc 3 443 9 view .LVU126
 659 0018 B9F1000F 		cmp	r9, #0
 660 001c 00F0B780 		beq	.L56
 661 0020 9DF81930 		ldrb	r3, [sp, #25]	@ zero_extendqisi2
 662 0024 8046     		mov	r8, r0
 663 0026 9DF818A0 		ldrb	r10, [sp, #24]	@ zero_extendqisi2
 664 002a 4D46     		mov	r5, r9
 665 002c 0193     		str	r3, [sp, #4]
 666 002e 079B     		ldr	r3, [sp, #28]
 667 0030 0593     		str	r3, [sp, #20]
 668              	.LVL40:
 669              	.L57:
 670              	.LBB726:
 671              	.LBI726:
 396:../../libdaisy/src/hid/disp/display.h ****     {
 672              		.loc 3 396 10 is_stmt 1 view .LVU127
 673              	.LBB727:
 401:../../libdaisy/src/hid/disp/display.h ****             return 0;
 674              		.loc 3 401 20 is_stmt 0 view .LVU128
 675 0032 A5F12004 		sub	r4, r5, #32
 401:../../libdaisy/src/hid/disp/display.h ****             return 0;
 676              		.loc 3 401 9 view .LVU129
 677 0036 E3B2     		uxtb	r3, r4
 678 0038 5E2B     		cmp	r3, #94
 679 003a 00F2AC80 		bhi	.L38
 405:../../libdaisy/src/hid/disp/display.h ****            || Height() < (currentY_ + font.FontHeight))
 680              		.loc 3 405 17 view .LVU130
 681 003e D8F80030 		ldr	r3, [r8]
 682 0042 654A     		ldr	r2, .L78
 683 0044 DB68     		ldr	r3, [r3, #12]
 684 0046 9342     		cmp	r3, r2
 685 0048 40F0A780 		bne	.L71
 686 004c 8020     		movs	r0, #128
 687              	.L37:
 405:../../libdaisy/src/hid/disp/display.h ****            || Height() < (currentY_ + font.FontHeight))
 688              		.loc 3 405 23 view .LVU131
 689 004e B8F80430 		ldrh	r3, [r8, #4]
 405:../../libdaisy/src/hid/disp/display.h ****            || Height() < (currentY_ + font.FontHeight))
 690              		.loc 3 405 33 view .LVU132
 691 0052 5344     		add	r3, r3, r10
 406:../../libdaisy/src/hid/disp/display.h ****         {
 692              		.loc 3 406 12 view .LVU133
 693 0054 8342     		cmp	r3, r0
 694 0056 00F39E80 		bgt	.L38
 406:../../libdaisy/src/hid/disp/display.h ****         {
ARM GAS  /tmp/ccoLrWzv.s 			page 37


 695              		.loc 3 406 21 view .LVU134
 696 005a D8F80030 		ldr	r3, [r8]
 697 005e 5F4A     		ldr	r2, .L78+4
 698 0060 9B68     		ldr	r3, [r3, #8]
 699 0062 9342     		cmp	r3, r2
 700 0064 40F09C80 		bne	.L72
 701 0068 4020     		movs	r0, #64
 702              	.L39:
 406:../../libdaisy/src/hid/disp/display.h ****         {
 703              		.loc 3 406 27 view .LVU135
 704 006a B8F80610 		ldrh	r1, [r8, #6]
 406:../../libdaisy/src/hid/disp/display.h ****         {
 705              		.loc 3 406 37 view .LVU136
 706 006e 019A     		ldr	r2, [sp, #4]
 406:../../libdaisy/src/hid/disp/display.h ****         {
 707              		.loc 3 406 27 view .LVU137
 708 0070 0091     		str	r1, [sp]
 406:../../libdaisy/src/hid/disp/display.h ****         {
 709              		.loc 3 406 37 view .LVU138
 710 0072 8B18     		adds	r3, r1, r2
 406:../../libdaisy/src/hid/disp/display.h ****         {
 711              		.loc 3 406 12 view .LVU139
 712 0074 8342     		cmp	r3, r0
 713 0076 00F38E80 		bgt	.L38
 714              	.LVL41:
 413:../../libdaisy/src/hid/disp/display.h ****         {
 715              		.loc 3 413 22 is_stmt 1 view .LVU140
 716 007a 1046     		mov	r0, r2
 717 007c 002A     		cmp	r2, #0
 718 007e 00F09A80 		beq	.L40
 415:../../libdaisy/src/hid/disp/display.h ****             for(j = 0; j < font.FontWidth; j++)
 719              		.loc 3 415 37 is_stmt 0 view .LVU141
 720 0082 1346     		mov	r3, r2
 721 0084 6FF00046 		mvn	r6, #-2147483648
 722 0088 B8F80470 		ldrh	r7, [r8, #4]
 723 008c 03FB04F3 		mul	r3, r3, r4
 724 0090 059C     		ldr	r4, [sp, #20]
 725 0092 BE46     		mov	lr, r7
 726 0094 CDF80CB0 		str	fp, [sp, #12]
 727 0098 1E44     		add	r6, r6, r3
 728 009a A21E     		subs	r2, r4, #2
 729 009c 0344     		add	r3, r3, r0
 730 009e 5746     		mov	r7, r10
 731 00a0 04EB4606 		add	r6, r4, r6, lsl #1
 732 00a4 DDF81090 		ldr	r9, [sp, #16]
 733 00a8 02EB4303 		add	r3, r2, r3, lsl #1
 734 00ac 0295     		str	r5, [sp, #8]
 735 00ae 9B46     		mov	fp, r3
 736              	.LVL42:
 737              	.L43:
 415:../../libdaisy/src/hid/disp/display.h ****             for(j = 0; j < font.FontWidth; j++)
 738              		.loc 3 415 13 view .LVU142
 739 00b0 36F802AF 		ldrh	r10, [r6, #2]!
 740              	.LVL43:
 416:../../libdaisy/src/hid/disp/display.h ****             {
 741              		.loc 3 416 26 is_stmt 1 view .LVU143
 742 00b4 A7B3     		cbz	r7, .L48
ARM GAS  /tmp/ccoLrWzv.s 			page 38


 743              	.LBB728:
 744              	.LBB729:
 745              	.LBB730:
 746              	.LBB731:
 747              	.LBB732:
 246:../../libdaisy/src/dev/oled_ssd130x.h ****     }
 748              		.loc 14 246 49 is_stmt 0 view .LVU144
 749 00b6 0124     		movs	r4, #1
 246:../../libdaisy/src/dev/oled_ssd130x.h ****     }
 750              		.loc 14 246 55 view .LVU145
 751 00b8 01F00702 		and	r2, r1, #7
 246:../../libdaisy/src/dev/oled_ssd130x.h ****     }
 752              		.loc 14 246 28 view .LVU146
 753 00bc C808     		lsrs	r0, r1, #3
 754 00be 0EF11403 		add	r3, lr, #20
 246:../../libdaisy/src/dev/oled_ssd130x.h ****     }
 755              		.loc 14 246 49 view .LVU147
 756 00c2 04FA02F2 		lsl	r2, r4, r2
 757 00c6 7446     		mov	r4, lr
 758 00c8 03EBC013 		add	r3, r3, r0, lsl #7
 759              	.LBE732:
 760              	.LBE731:
 761              	.LBE730:
 762              	.LBE729:
 763              	.LBE728:
 416:../../libdaisy/src/hid/disp/display.h ****             {
 764              		.loc 3 416 19 view .LVU148
 765 00cc 0020     		movs	r0, #0
 766              	.LBB750:
 767              	.LBB745:
 768              	.LBB740:
 769              	.LBB736:
 770              	.LBB733:
 246:../../libdaisy/src/dev/oled_ssd130x.h ****     }
 771              		.loc 14 246 42 view .LVU149
 772 00ce 52B2     		sxtb	r2, r2
 773 00d0 4344     		add	r3, r3, r8
 774 00d2 6FEA020C 		mvn	ip, r2
 775 00d6 0EE0     		b	.L49
 776              	.LVL44:
 777              	.L73:
 246:../../libdaisy/src/dev/oled_ssd130x.h ****     }
 778              		.loc 14 246 42 view .LVU150
 779              	.LBE733:
 780              	.LBE736:
 781              	.LBE740:
 782              	.LBE745:
 783              	.LBE750:
 784              	.LBB751:
 785              	.LBI751:
  41:../../libdaisy/src/hid/disp/oled_display.h ****     {
 786              		.loc 2 41 10 is_stmt 1 view .LVU151
 787              	.LBB752:
 788              	.LBI752:
 239:../../libdaisy/src/dev/oled_ssd130x.h ****     {
 789              		.loc 14 239 10 view .LVU152
 790              	.LBB753:
ARM GAS  /tmp/ccoLrWzv.s 			page 39


 241:../../libdaisy/src/dev/oled_ssd130x.h ****             return;
 791              		.loc 14 241 9 is_stmt 0 view .LVU153
 792 00d8 7F2C     		cmp	r4, #127
 793 00da 07D8     		bhi	.L45
 794 00dc 3F29     		cmp	r1, #63
 795 00de 05D8     		bhi	.L45
 244:../../libdaisy/src/dev/oled_ssd130x.h ****         else
 796              		.loc 14 244 42 view .LVU154
 797 00e0 1D78     		ldrb	r5, [r3]	@ zero_extendqisi2
 243:../../libdaisy/src/dev/oled_ssd130x.h ****             buffer_[x + (y / 8) * width] |= (1 << (y % 8));
 798              		.loc 14 243 9 view .LVU155
 799 00e2 B9F1000F 		cmp	r9, #0
 800 00e6 12D0     		beq	.L47
 801              	.L70:
 243:../../libdaisy/src/dev/oled_ssd130x.h ****             buffer_[x + (y / 8) * width] |= (1 << (y % 8));
 802              		.loc 14 243 9 view .LVU156
 803              	.LBE753:
 804              	.LBE752:
 805              	.LBE751:
 806              	.LBB754:
 807              	.LBB746:
 808              	.LBB741:
 244:../../libdaisy/src/dev/oled_ssd130x.h ****         else
 809              		.loc 14 244 42 view .LVU157
 810 00e8 1543     		orrs	r5, r5, r2
 244:../../libdaisy/src/dev/oled_ssd130x.h ****         else
 811              		.loc 14 244 13 view .LVU158
 812 00ea 1D70     		strb	r5, [r3]
 813              	.L45:
 814              	.LBE741:
 815              	.LBE746:
 816              	.LBE754:
 416:../../libdaisy/src/hid/disp/display.h ****             {
 817              		.loc 3 416 13 is_stmt 1 view .LVU159
 818 00ec 0130     		adds	r0, r0, #1
 819              	.LVL45:
 416:../../libdaisy/src/hid/disp/display.h ****             {
 820              		.loc 3 416 26 view .LVU160
 821 00ee 0133     		adds	r3, r3, #1
 822 00f0 0134     		adds	r4, r4, #1
 823 00f2 B842     		cmp	r0, r7
 824 00f4 14D0     		beq	.L48
 825              	.LVL46:
 826              	.L49:
 418:../../libdaisy/src/hid/disp/display.h ****                 {
 827              		.loc 3 418 23 is_stmt 0 view .LVU161
 828 00f6 0AFA00F5 		lsl	r5, r10, r0
 418:../../libdaisy/src/hid/disp/display.h ****                 {
 829              		.loc 3 418 17 view .LVU162
 830 00fa 2D04     		lsls	r5, r5, #16
 831 00fc ECD4     		bmi	.L73
 832              	.LVL47:
 833              	.LBB755:
 834              	.LBI728:
  41:../../libdaisy/src/hid/disp/oled_display.h ****     {
 835              		.loc 2 41 10 is_stmt 1 view .LVU163
 836              	.LBB747:
ARM GAS  /tmp/ccoLrWzv.s 			page 40


 837              	.LBI729:
 239:../../libdaisy/src/dev/oled_ssd130x.h ****     {
 838              		.loc 14 239 10 view .LVU164
 839              	.LBB742:
 241:../../libdaisy/src/dev/oled_ssd130x.h ****             return;
 840              		.loc 14 241 9 is_stmt 0 view .LVU165
 841 00fe 7F2C     		cmp	r4, #127
 842 0100 F4D8     		bhi	.L45
 843 0102 3F29     		cmp	r1, #63
 844 0104 F2D8     		bhi	.L45
 244:../../libdaisy/src/dev/oled_ssd130x.h ****         else
 845              		.loc 14 244 42 view .LVU166
 846 0106 1D78     		ldrb	r5, [r3]	@ zero_extendqisi2
 243:../../libdaisy/src/dev/oled_ssd130x.h ****             buffer_[x + (y / 8) * width] |= (1 << (y % 8));
 847              		.loc 14 243 9 view .LVU167
 848 0108 B9F1000F 		cmp	r9, #0
 849 010c ECD0     		beq	.L70
 850              	.L47:
 851              	.LVL48:
 852              	.LBB737:
 853              	.LBI731:
 239:../../libdaisy/src/dev/oled_ssd130x.h ****     {
 854              		.loc 14 239 10 is_stmt 1 view .LVU168
 239:../../libdaisy/src/dev/oled_ssd130x.h ****     {
 855              		.loc 14 239 10 is_stmt 0 view .LVU169
 856              	.LBE737:
 857              	.LBE742:
 858              	.LBE747:
 859              	.LBE755:
 416:../../libdaisy/src/hid/disp/display.h ****             {
 860              		.loc 3 416 13 view .LVU170
 861 010e 0130     		adds	r0, r0, #1
 862              	.LVL49:
 863              	.LBB756:
 864              	.LBB748:
 865              	.LBB743:
 866              	.LBB738:
 867              	.LBB734:
 246:../../libdaisy/src/dev/oled_ssd130x.h ****     }
 868              		.loc 14 246 42 view .LVU171
 869 0110 0CEA0505 		and	r5, ip, r5
 870 0114 0133     		adds	r3, r3, #1
 871 0116 0134     		adds	r4, r4, #1
 872              	.LBE734:
 873              	.LBE738:
 874              	.LBE743:
 875              	.LBE748:
 876              	.LBE756:
 416:../../libdaisy/src/hid/disp/display.h ****             {
 877              		.loc 3 416 26 view .LVU172
 878 0118 B842     		cmp	r0, r7
 879              	.LBB757:
 880              	.LBB749:
 881              	.LBB744:
 882              	.LBB739:
 883              	.LBB735:
 246:../../libdaisy/src/dev/oled_ssd130x.h ****     }
ARM GAS  /tmp/ccoLrWzv.s 			page 41


 884              		.loc 14 246 13 view .LVU173
 885 011a 03F8015C 		strb	r5, [r3, #-1]
 246:../../libdaisy/src/dev/oled_ssd130x.h ****     }
 886              		.loc 14 246 13 view .LVU174
 887              	.LBE735:
 888              	.LBE739:
 889              	.LBE744:
 890              	.LBE749:
 891              	.LBE757:
 416:../../libdaisy/src/hid/disp/display.h ****             {
 892              		.loc 3 416 13 is_stmt 1 view .LVU175
 893              	.LVL50:
 416:../../libdaisy/src/hid/disp/display.h ****             {
 894              		.loc 3 416 26 view .LVU176
 895 011e EAD1     		bne	.L49
 896              	.LVL51:
 897              	.L48:
 413:../../libdaisy/src/hid/disp/display.h ****         {
 898              		.loc 3 413 9 view .LVU177
 413:../../libdaisy/src/hid/disp/display.h ****         {
 899              		.loc 3 413 22 view .LVU178
 900 0120 5E45     		cmp	r6, fp
 901 0122 01F10101 		add	r1, r1, #1
 902 0126 C3D1     		bne	.L43
 903 0128 BA46     		mov	r10, r7
 904              	.LVL52:
 413:../../libdaisy/src/hid/disp/display.h ****         {
 905              		.loc 3 413 22 is_stmt 0 view .LVU179
 906 012a 029D     		ldr	r5, [sp, #8]
 907 012c 7746     		mov	r7, lr
 908 012e DDF80CB0 		ldr	fp, [sp, #12]
 909              	.L42:
 910              	.LBB758:
 911              	.LBB759:
 173:../../libdaisy/src/hid/disp/display.h ****         currentY_ = (y >= Height()) ? Height() - 1 : y;
 912              		.loc 3 173 33 view .LVU180
 913 0132 D8F80020 		ldr	r2, [r8]
 914              	.LBE759:
 915              	.LBE758:
 434:../../libdaisy/src/hid/disp/display.h **** 
 916              		.loc 3 434 18 view .LVU181
 917 0136 5744     		add	r7, r7, r10
 918 0138 2749     		ldr	r1, .L78
 919              	.LBB763:
 920              	.LBB760:
 173:../../libdaisy/src/hid/disp/display.h ****         currentY_ = (y >= Height()) ? Height() - 1 : y;
 921              		.loc 3 173 33 view .LVU182
 922 013a D368     		ldr	r3, [r2, #12]
 923              	.LBE760:
 924              	.LBE763:
 434:../../libdaisy/src/hid/disp/display.h **** 
 925              		.loc 3 434 18 view .LVU183
 926 013c BFB2     		uxth	r7, r7
 927              	.LVL53:
 928              	.LBB764:
 929              	.LBI758:
 171:../../libdaisy/src/hid/disp/display.h ****     {
ARM GAS  /tmp/ccoLrWzv.s 			page 42


 930              		.loc 3 171 10 is_stmt 1 view .LVU184
 931              	.LBB761:
 173:../../libdaisy/src/hid/disp/display.h ****         currentY_ = (y >= Height()) ? Height() - 1 : y;
 932              		.loc 3 173 9 view .LVU185
 933 013e 8B42     		cmp	r3, r1
 934 0140 34D1     		bne	.L74
 173:../../libdaisy/src/hid/disp/display.h ****         currentY_ = (y >= Height()) ? Height() - 1 : y;
 935              		.loc 3 173 33 is_stmt 0 view .LVU186
 936 0142 8020     		movs	r0, #128
 937              	.L50:
 173:../../libdaisy/src/hid/disp/display.h ****         currentY_ = (y >= Height()) ? Height() - 1 : y;
 938              		.loc 3 173 19 view .LVU187
 939 0144 8742     		cmp	r7, r0
 940 0146 04D3     		bcc	.L51
 173:../../libdaisy/src/hid/disp/display.h ****         currentY_ = (y >= Height()) ? Height() - 1 : y;
 941              		.loc 3 173 44 view .LVU188
 942 0148 D368     		ldr	r3, [r2, #12]
 943 014a 2349     		ldr	r1, .L78
 944 014c 8B42     		cmp	r3, r1
 945 014e 3BD1     		bne	.L75
 946 0150 7F27     		movs	r7, #127
 947              	.LVL54:
 948              	.L51:
 174:../../libdaisy/src/hid/disp/display.h ****     }
 949              		.loc 3 174 34 view .LVU189
 950 0152 9368     		ldr	r3, [r2, #8]
 951 0154 214A     		ldr	r2, .L78+4
 173:../../libdaisy/src/hid/disp/display.h ****         currentY_ = (y >= Height()) ? Height() - 1 : y;
 952              		.loc 3 173 19 view .LVU190
 953 0156 A8F80470 		strh	r7, [r8, #4]	@ movhi
 174:../../libdaisy/src/hid/disp/display.h ****     }
 954              		.loc 3 174 9 is_stmt 1 view .LVU191
 955 015a 9342     		cmp	r3, r2
 956 015c 23D1     		bne	.L76
 174:../../libdaisy/src/hid/disp/display.h ****     }
 957              		.loc 3 174 34 is_stmt 0 view .LVU192
 958 015e 4020     		movs	r0, #64
 959              	.L53:
 174:../../libdaisy/src/hid/disp/display.h ****     }
 960              		.loc 3 174 19 view .LVU193
 961 0160 009B     		ldr	r3, [sp]
 962 0162 8342     		cmp	r3, r0
 963 0164 07D3     		bcc	.L54
 174:../../libdaisy/src/hid/disp/display.h ****     }
 964              		.loc 3 174 46 view .LVU194
 965 0166 D8F80030 		ldr	r3, [r8]
 966 016a 1C4A     		ldr	r2, .L78+4
 967 016c 9B68     		ldr	r3, [r3, #8]
 968 016e 9342     		cmp	r3, r2
 969 0170 24D1     		bne	.L77
 970 0172 3F23     		movs	r3, #63
 971 0174 0093     		str	r3, [sp]
 972              	.LVL55:
 973              	.L54:
 174:../../libdaisy/src/hid/disp/display.h ****     }
 974              		.loc 3 174 19 view .LVU195
 975 0176 009B     		ldr	r3, [sp]
ARM GAS  /tmp/ccoLrWzv.s 			page 43


 976 0178 A8F80630 		strh	r3, [r8, #6]	@ movhi
 977              	.LVL56:
 978              	.L36:
 174:../../libdaisy/src/hid/disp/display.h ****     }
 979              		.loc 3 174 19 view .LVU196
 980              	.LBE761:
 981              	.LBE764:
 982              	.LBE727:
 983              	.LBE726:
 444:../../libdaisy/src/hid/disp/display.h ****         {
 445:../../libdaisy/src/hid/disp/display.h ****             if(((ChildType*)(this))->ChildType::WriteChar(*str, font, on)
 446:../../libdaisy/src/hid/disp/display.h ****                != *str)
 984              		.loc 3 446 16 view .LVU197
 985 017c 9BF80000 		ldrb	r0, [fp]	@ zero_extendqisi2
 445:../../libdaisy/src/hid/disp/display.h ****                != *str)
 986              		.loc 3 445 13 view .LVU198
 987 0180 A842     		cmp	r0, r5
 988 0182 05D1     		bne	.L34
 989              	.LVL57:
 443:../../libdaisy/src/hid/disp/display.h ****         {
 990              		.loc 3 443 9 is_stmt 1 view .LVU199
 991 0184 1BF8015F 		ldrb	r5, [fp, #1]!	@ zero_extendqisi2
 992              	.LVL58:
 443:../../libdaisy/src/hid/disp/display.h ****         {
 993              		.loc 3 443 9 is_stmt 0 view .LVU200
 994 0188 002D     		cmp	r5, #0
 995 018a 7FF452AF 		bne	.L57
 996              	.LVL59:
 997              	.L56:
 998              	.LBB768:
 999              	.LBB766:
 402:../../libdaisy/src/hid/disp/display.h **** 
 1000              		.loc 3 402 20 view .LVU201
 1001 018e 0020     		movs	r0, #0
 1002              	.LVL60:
 1003              	.L34:
 402:../../libdaisy/src/hid/disp/display.h **** 
 1004              		.loc 3 402 20 view .LVU202
 1005              	.LBE766:
 1006              	.LBE768:
 447:../../libdaisy/src/hid/disp/display.h ****             {
 448:../../libdaisy/src/hid/disp/display.h ****                 // Char could not be written
 449:../../libdaisy/src/hid/disp/display.h ****                 return *str;
 450:../../libdaisy/src/hid/disp/display.h ****             }
 451:../../libdaisy/src/hid/disp/display.h **** 
 452:../../libdaisy/src/hid/disp/display.h ****             // Next char
 453:../../libdaisy/src/hid/disp/display.h ****             str++;
 454:../../libdaisy/src/hid/disp/display.h ****         }
 455:../../libdaisy/src/hid/disp/display.h **** 
 456:../../libdaisy/src/hid/disp/display.h ****         // Everything ok
 457:../../libdaisy/src/hid/disp/display.h ****         return *str;
 458:../../libdaisy/src/hid/disp/display.h ****     }
 1007              		.loc 3 458 5 view .LVU203
 1008 0190 09B0     		add	sp, sp, #36
 1009              		.cfi_remember_state
 1010              		.cfi_def_cfa_offset 36
 1011              		@ sp needed
ARM GAS  /tmp/ccoLrWzv.s 			page 44


 1012 0192 BDE8F08F 		pop	{r4, r5, r6, r7, r8, r9, r10, fp, pc}
 1013              	.LVL61:
 1014              	.L38:
 1015              		.cfi_restore_state
 1016              	.LBB769:
 1017              	.LBB767:
 402:../../libdaisy/src/hid/disp/display.h **** 
 1018              		.loc 3 402 20 view .LVU204
 1019 0196 0025     		movs	r5, #0
 1020              	.LVL62:
 402:../../libdaisy/src/hid/disp/display.h **** 
 1021              		.loc 3 402 20 view .LVU205
 1022 0198 F0E7     		b	.L36
 1023              	.LVL63:
 1024              	.L71:
 405:../../libdaisy/src/hid/disp/display.h ****            || Height() < (currentY_ + font.FontHeight))
 1025              		.loc 3 405 17 view .LVU206
 1026 019a 4046     		mov	r0, r8
 1027 019c 9847     		blx	r3
 1028              	.LVL64:
 1029 019e 56E7     		b	.L37
 1030              	.L72:
 406:../../libdaisy/src/hid/disp/display.h ****         {
 1031              		.loc 3 406 21 view .LVU207
 1032 01a0 4046     		mov	r0, r8
 1033 01a2 9847     		blx	r3
 1034              	.LVL65:
 1035 01a4 61E7     		b	.L39
 1036              	.LVL66:
 1037              	.L76:
 1038              	.LBB765:
 1039              	.LBB762:
 174:../../libdaisy/src/hid/disp/display.h ****     }
 1040              		.loc 3 174 33 view .LVU208
 1041 01a6 4046     		mov	r0, r8
 1042 01a8 9847     		blx	r3
 1043              	.LVL67:
 1044 01aa D9E7     		b	.L53
 1045              	.LVL68:
 1046              	.L74:
 173:../../libdaisy/src/hid/disp/display.h ****         currentY_ = (y >= Height()) ? Height() - 1 : y;
 1047              		.loc 3 173 32 view .LVU209
 1048 01ac 4046     		mov	r0, r8
 1049 01ae 9847     		blx	r3
 1050              	.LVL69:
 1051 01b0 D8F80020 		ldr	r2, [r8]
 1052 01b4 C6E7     		b	.L50
 1053              	.LVL70:
 1054              	.L40:
 173:../../libdaisy/src/hid/disp/display.h ****         currentY_ = (y >= Height()) ? Height() - 1 : y;
 1055              		.loc 3 173 32 view .LVU210
 1056 01b6 B8F80470 		ldrh	r7, [r8, #4]
 1057 01ba BAE7     		b	.L42
 1058              	.LVL71:
 1059              	.L77:
 174:../../libdaisy/src/hid/disp/display.h ****     }
 1060              		.loc 3 174 45 view .LVU211
ARM GAS  /tmp/ccoLrWzv.s 			page 45


 1061 01bc 4046     		mov	r0, r8
 1062 01be 9847     		blx	r3
 1063              	.LVL72:
 1064 01c0 0138     		subs	r0, r0, #1
 1065 01c2 83B2     		uxth	r3, r0
 1066 01c4 0093     		str	r3, [sp]
 1067              	.LVL73:
 174:../../libdaisy/src/hid/disp/display.h ****     }
 1068              		.loc 3 174 45 view .LVU212
 1069 01c6 D6E7     		b	.L54
 1070              	.LVL74:
 1071              	.L75:
 173:../../libdaisy/src/hid/disp/display.h ****         currentY_ = (y >= Height()) ? Height() - 1 : y;
 1072              		.loc 3 173 43 view .LVU213
 1073 01c8 4046     		mov	r0, r8
 1074 01ca 9847     		blx	r3
 1075              	.LVL75:
 1076 01cc 0138     		subs	r0, r0, #1
 1077 01ce D8F80020 		ldr	r2, [r8]
 1078 01d2 87B2     		uxth	r7, r0
 1079              	.LVL76:
 173:../../libdaisy/src/hid/disp/display.h ****         currentY_ = (y >= Height()) ? Height() - 1 : y;
 1080              		.loc 3 173 43 view .LVU214
 1081 01d4 BDE7     		b	.L51
 1082              	.L79:
 1083 01d6 00BF     		.align	2
 1084              	.L78:
 1085 01d8 00000000 		.word	_ZNK5daisy11OledDisplayINS_13SSD130xDriverILj128ELj64ENS_24SSD130x4WireSpiTransportEEEE5Widt
 1086 01dc 00000000 		.word	_ZNK5daisy11OledDisplayINS_13SSD130xDriverILj128ELj64ENS_24SSD130x4WireSpiTransportEEEE6Heig
 1087              	.LBE762:
 1088              	.LBE765:
 1089              	.LBE767:
 1090              	.LBE769:
 1091              		.cfi_endproc
 1092              	.LFE4554:
 1094              		.section	.text._ZN5daisy25OneBitGraphicsDisplayImplINS_11OledDisplayINS_13SSD130xDriverILj128ELj64
 1095              		.align	1
 1096              		.p2align 2,,3
 1097              		.weak	_ZN5daisy25OneBitGraphicsDisplayImplINS_11OledDisplayINS_13SSD130xDriverILj128ELj64ENS_24SSD
 1098              		.syntax unified
 1099              		.thumb
 1100              		.thumb_func
 1101              		.fpu fpv5-d16
 1103              	_ZN5daisy25OneBitGraphicsDisplayImplINS_11OledDisplayINS_13SSD130xDriverILj128ELj64ENS_24SSD130x4Wi
 1104              	.LVL77:
 1105              	.LFB4685:
 396:../../libdaisy/src/hid/disp/display.h ****     {
 1106              		.loc 3 396 10 is_stmt 1 view -0
 1107              		.cfi_startproc
 1108              		@ args = 4, pretend = 0, frame = 16
 1109              		@ frame_needed = 0, uses_anonymous_args = 0
 396:../../libdaisy/src/hid/disp/display.h ****     {
 1110              		.loc 3 396 10 is_stmt 0 view .LVU216
 1111 0000 2DE9F04F 		push	{r4, r5, r6, r7, r8, r9, r10, fp, lr}
 1112              		.cfi_def_cfa_offset 36
 1113              		.cfi_offset 4, -36
 1114              		.cfi_offset 5, -32
ARM GAS  /tmp/ccoLrWzv.s 			page 46


 1115              		.cfi_offset 6, -28
 1116              		.cfi_offset 7, -24
 1117              		.cfi_offset 8, -20
 1118              		.cfi_offset 9, -16
 1119              		.cfi_offset 10, -12
 1120              		.cfi_offset 11, -8
 1121              		.cfi_offset 14, -4
 1122 0004 85B0     		sub	sp, sp, #20
 1123              		.cfi_def_cfa_offset 56
 1124              	.LVL78:
 401:../../libdaisy/src/hid/disp/display.h ****             return 0;
 1125              		.loc 3 401 20 view .LVU217
 1126 0006 A1F12004 		sub	r4, r1, #32
 396:../../libdaisy/src/hid/disp/display.h ****     {
 1127              		.loc 3 396 10 view .LVU218
 1128 000a 0091     		str	r1, [sp]
 1129 000c 04A9     		add	r1, sp, #16
 1130              	.LVL79:
 396:../../libdaisy/src/hid/disp/display.h ****     {
 1131              		.loc 3 396 10 view .LVU219
 1132 000e 9DF83880 		ldrb	r8, [sp, #56]	@ zero_extendqisi2
 1133 0012 01E90C00 		stmdb	r1, {r2, r3}
 1134              	.LVL80:
 401:../../libdaisy/src/hid/disp/display.h ****             return 0;
 1135              		.loc 3 401 9 view .LVU220
 1136 0016 E3B2     		uxtb	r3, r4
 1137 0018 5E2B     		cmp	r3, #94
 1138 001a 00F29480 		bhi	.L84
 405:../../libdaisy/src/hid/disp/display.h ****            || Height() < (currentY_ + font.FontHeight))
 1139              		.loc 3 405 17 view .LVU221
 1140 001e 0368     		ldr	r3, [r0]
 1141 0020 8146     		mov	r9, r0
 1142 0022 5E4A     		ldr	r2, .L120
 1143 0024 DB68     		ldr	r3, [r3, #12]
 1144 0026 9DF80860 		ldrb	r6, [sp, #8]	@ zero_extendqisi2
 1145 002a 9342     		cmp	r3, r2
 1146 002c 9DF80950 		ldrb	r5, [sp, #9]	@ zero_extendqisi2
 1147 0030 40F09380 		bne	.L111
 1148 0034 8022     		movs	r2, #128
 1149              	.LVL81:
 1150              	.L83:
 405:../../libdaisy/src/hid/disp/display.h ****            || Height() < (currentY_ + font.FontHeight))
 1151              		.loc 3 405 23 view .LVU222
 1152 0036 B9F80430 		ldrh	r3, [r9, #4]
 405:../../libdaisy/src/hid/disp/display.h ****            || Height() < (currentY_ + font.FontHeight))
 1153              		.loc 3 405 33 view .LVU223
 1154 003a 3344     		add	r3, r3, r6
 406:../../libdaisy/src/hid/disp/display.h ****         {
 1155              		.loc 3 406 12 view .LVU224
 1156 003c 9342     		cmp	r3, r2
 1157 003e 00F38280 		bgt	.L84
 406:../../libdaisy/src/hid/disp/display.h ****         {
 1158              		.loc 3 406 21 discriminator 2 view .LVU225
 1159 0042 D9F80030 		ldr	r3, [r9]
 1160 0046 564A     		ldr	r2, .L120+4
 1161 0048 9B68     		ldr	r3, [r3, #8]
 1162 004a 9342     		cmp	r3, r2
ARM GAS  /tmp/ccoLrWzv.s 			page 47


 1163 004c 40F08980 		bne	.L112
 406:../../libdaisy/src/hid/disp/display.h ****         {
 1164              		.loc 3 406 21 view .LVU226
 1165 0050 4023     		movs	r3, #64
 1166              	.L85:
 406:../../libdaisy/src/hid/disp/display.h ****         {
 1167              		.loc 3 406 27 discriminator 2 view .LVU227
 1168 0052 B9F80610 		ldrh	r1, [r9, #6]
 406:../../libdaisy/src/hid/disp/display.h ****         {
 1169              		.loc 3 406 37 discriminator 2 view .LVU228
 1170 0056 4A19     		adds	r2, r1, r5
 406:../../libdaisy/src/hid/disp/display.h ****         {
 1171              		.loc 3 406 27 discriminator 2 view .LVU229
 1172 0058 0191     		str	r1, [sp, #4]
 406:../../libdaisy/src/hid/disp/display.h ****         {
 1173              		.loc 3 406 12 discriminator 2 view .LVU230
 1174 005a 9A42     		cmp	r2, r3
 1175 005c 73DC     		bgt	.L84
 1176              	.LVL82:
 413:../../libdaisy/src/hid/disp/display.h ****         {
 1177              		.loc 3 413 22 is_stmt 1 view .LVU231
 1178 005e 002D     		cmp	r5, #0
 1179 0060 00F08C80 		beq	.L86
 415:../../libdaisy/src/hid/disp/display.h ****             for(j = 0; j < font.FontWidth; j++)
 1180              		.loc 3 415 37 is_stmt 0 view .LVU232
 1181 0064 05FB04F4 		mul	r4, r5, r4
 415:../../libdaisy/src/hid/disp/display.h ****             for(j = 0; j < font.FontWidth; j++)
 1182              		.loc 3 415 22 view .LVU233
 1183 0068 039A     		ldr	r2, [sp, #12]
 1184 006a 6FF00043 		mvn	r3, #-2147483648
 1185 006e B9F804A0 		ldrh	r10, [r9, #4]
 1186 0072 2544     		add	r5, r5, r4
 1187 0074 A2F1020B 		sub	fp, r2, #2
 1188 0078 2344     		add	r3, r3, r4
 1189 007a 0BEB450B 		add	fp, fp, r5, lsl #1
 1190 007e 0D46     		mov	r5, r1
 1191 0080 02EB430E 		add	lr, r2, r3, lsl #1
 1192              	.LVL83:
 1193              	.L89:
 415:../../libdaisy/src/hid/disp/display.h ****             for(j = 0; j < font.FontWidth; j++)
 1194              		.loc 3 415 13 view .LVU234
 1195 0084 3EF8024F 		ldrh	r4, [lr, #2]!
 1196              	.LVL84:
 416:../../libdaisy/src/hid/disp/display.h ****             {
 1197              		.loc 3 416 26 is_stmt 1 view .LVU235
 1198 0088 A6B3     		cbz	r6, .L94
 1199              	.LBB800:
 1200              	.LBB801:
 1201              	.LBB802:
 1202              	.LBB803:
 1203              	.LBB804:
 246:../../libdaisy/src/dev/oled_ssd130x.h ****     }
 1204              		.loc 14 246 55 is_stmt 0 view .LVU236
 1205 008a 05F00703 		and	r3, r5, #7
 246:../../libdaisy/src/dev/oled_ssd130x.h ****     }
 1206              		.loc 14 246 49 view .LVU237
 1207 008e 0127     		movs	r7, #1
ARM GAS  /tmp/ccoLrWzv.s 			page 48


 246:../../libdaisy/src/dev/oled_ssd130x.h ****     }
 1208              		.loc 14 246 28 view .LVU238
 1209 0090 E808     		lsrs	r0, r5, #3
 246:../../libdaisy/src/dev/oled_ssd130x.h ****     }
 1210              		.loc 14 246 42 view .LVU239
 1211 0092 4146     		mov	r1, r8
 246:../../libdaisy/src/dev/oled_ssd130x.h ****     }
 1212              		.loc 14 246 49 view .LVU240
 1213 0094 9F40     		lsls	r7, r7, r3
 1214              	.LBE804:
 1215              	.LBE803:
 1216              	.LBE802:
 1217              	.LBE801:
 1218              	.LBE800:
 416:../../libdaisy/src/hid/disp/display.h ****             {
 1219              		.loc 3 416 19 view .LVU241
 1220 0096 0022     		movs	r2, #0
 1221 0098 0AEBC013 		add	r3, r10, r0, lsl #7
 1222              	.LBB822:
 1223              	.LBB817:
 1224              	.LBB812:
 1225              	.LBB808:
 1226              	.LBB805:
 246:../../libdaisy/src/dev/oled_ssd130x.h ****     }
 1227              		.loc 14 246 42 view .LVU242
 1228 009c 7FB2     		sxtb	r7, r7
 1229 009e 4B44     		add	r3, r3, r9
 1230 00a0 09EBC010 		add	r0, r9, r0, lsl #7
 1231 00a4 6FEA070C 		mvn	ip, r7
 1232 00a8 B846     		mov	r8, r7
 1233 00aa 0F46     		mov	r7, r1
 1234 00ac 0CE0     		b	.L95
 1235              	.LVL85:
 1236              	.L114:
 246:../../libdaisy/src/dev/oled_ssd130x.h ****     }
 1237              		.loc 14 246 42 view .LVU243
 1238              	.LBE805:
 1239              	.LBE808:
 1240              	.LBE812:
 1241              	.LBE817:
 1242              	.LBE822:
 1243              	.LBB823:
 1244              	.LBI823:
  41:../../libdaisy/src/hid/disp/oled_display.h ****     {
 1245              		.loc 2 41 10 is_stmt 1 view .LVU244
 1246              	.LBB824:
 1247              	.LBI824:
 239:../../libdaisy/src/dev/oled_ssd130x.h ****     {
 1248              		.loc 14 239 10 view .LVU245
 1249              	.LBB825:
 241:../../libdaisy/src/dev/oled_ssd130x.h ****             return;
 1250              		.loc 14 241 9 is_stmt 0 view .LVU246
 1251 00ae 7F29     		cmp	r1, #127
 1252 00b0 06D8     		bhi	.L91
 1253 00b2 3F2D     		cmp	r5, #63
 1254 00b4 04D8     		bhi	.L91
 244:../../libdaisy/src/dev/oled_ssd130x.h ****         else
ARM GAS  /tmp/ccoLrWzv.s 			page 49


 1255              		.loc 14 244 42 view .LVU247
 1256 00b6 197D     		ldrb	r1, [r3, #20]	@ zero_extendqisi2
 243:../../libdaisy/src/dev/oled_ssd130x.h ****             buffer_[x + (y / 8) * width] |= (1 << (y % 8));
 1257              		.loc 14 243 9 view .LVU248
 1258 00b8 A7B1     		cbz	r7, .L93
 1259              	.L110:
 243:../../libdaisy/src/dev/oled_ssd130x.h ****             buffer_[x + (y / 8) * width] |= (1 << (y % 8));
 1260              		.loc 14 243 9 view .LVU249
 1261              	.LBE825:
 1262              	.LBE824:
 1263              	.LBE823:
 1264              	.LBB828:
 1265              	.LBB818:
 1266              	.LBB813:
 244:../../libdaisy/src/dev/oled_ssd130x.h ****         else
 1267              		.loc 14 244 42 view .LVU250
 1268 00ba 48EA0101 		orr	r1, r8, r1
 244:../../libdaisy/src/dev/oled_ssd130x.h ****         else
 1269              		.loc 14 244 13 view .LVU251
 1270 00be 1975     		strb	r1, [r3, #20]
 1271              	.L91:
 1272              	.LBE813:
 1273              	.LBE818:
 1274              	.LBE828:
 416:../../libdaisy/src/hid/disp/display.h ****             {
 1275              		.loc 3 416 13 is_stmt 1 discriminator 2 view .LVU252
 1276 00c0 0132     		adds	r2, r2, #1
 1277              	.LVL86:
 416:../../libdaisy/src/hid/disp/display.h ****             {
 1278              		.loc 3 416 26 discriminator 2 view .LVU253
 1279 00c2 0133     		adds	r3, r3, #1
 1280 00c4 9642     		cmp	r6, r2
 1281 00c6 14D0     		beq	.L113
 1282              	.LVL87:
 1283              	.L95:
 418:../../libdaisy/src/hid/disp/display.h ****                 {
 1284              		.loc 3 418 23 is_stmt 0 view .LVU254
 1285 00c8 04FA02F1 		lsl	r1, r4, r2
 418:../../libdaisy/src/hid/disp/display.h ****                 {
 1286              		.loc 3 418 17 view .LVU255
 1287 00cc 11F4004F 		tst	r1, #32768
 1288              	.LBB829:
 1289              	.LBB827:
 1290              	.LBB826:
 241:../../libdaisy/src/dev/oled_ssd130x.h ****             return;
 1291              		.loc 14 241 14 view .LVU256
 1292 00d0 A3EB0001 		sub	r1, r3, r0
 1293              	.LBE826:
 1294              	.LBE827:
 1295              	.LBE829:
 418:../../libdaisy/src/hid/disp/display.h ****                 {
 1296              		.loc 3 418 17 view .LVU257
 1297 00d4 EBD1     		bne	.L114
 1298              	.LVL88:
 1299              	.LBB830:
 1300              	.LBI800:
  41:../../libdaisy/src/hid/disp/oled_display.h ****     {
ARM GAS  /tmp/ccoLrWzv.s 			page 50


 1301              		.loc 2 41 10 is_stmt 1 view .LVU258
 1302              	.LBB819:
 1303              	.LBI801:
 239:../../libdaisy/src/dev/oled_ssd130x.h ****     {
 1304              		.loc 14 239 10 view .LVU259
 1305              	.LBB814:
 241:../../libdaisy/src/dev/oled_ssd130x.h ****             return;
 1306              		.loc 14 241 9 is_stmt 0 view .LVU260
 1307 00d6 7F29     		cmp	r1, #127
 1308 00d8 F2D8     		bhi	.L91
 1309 00da 3F2D     		cmp	r5, #63
 1310 00dc F0D8     		bhi	.L91
 244:../../libdaisy/src/dev/oled_ssd130x.h ****         else
 1311              		.loc 14 244 42 view .LVU261
 1312 00de 197D     		ldrb	r1, [r3, #20]	@ zero_extendqisi2
 243:../../libdaisy/src/dev/oled_ssd130x.h ****             buffer_[x + (y / 8) * width] |= (1 << (y % 8));
 1313              		.loc 14 243 9 view .LVU262
 1314 00e0 002F     		cmp	r7, #0
 1315 00e2 EAD0     		beq	.L110
 1316              	.L93:
 1317              	.LVL89:
 1318              	.LBB809:
 1319              	.LBI803:
 239:../../libdaisy/src/dev/oled_ssd130x.h ****     {
 1320              		.loc 14 239 10 is_stmt 1 view .LVU263
 239:../../libdaisy/src/dev/oled_ssd130x.h ****     {
 1321              		.loc 14 239 10 is_stmt 0 view .LVU264
 1322              	.LBE809:
 1323              	.LBE814:
 1324              	.LBE819:
 1325              	.LBE830:
 416:../../libdaisy/src/hid/disp/display.h ****             {
 1326              		.loc 3 416 13 view .LVU265
 1327 00e4 0132     		adds	r2, r2, #1
 1328              	.LVL90:
 1329              	.LBB831:
 1330              	.LBB820:
 1331              	.LBB815:
 1332              	.LBB810:
 1333              	.LBB806:
 246:../../libdaisy/src/dev/oled_ssd130x.h ****     }
 1334              		.loc 14 246 42 view .LVU266
 1335 00e6 0CEA0101 		and	r1, ip, r1
 1336 00ea 0133     		adds	r3, r3, #1
 1337              	.LBE806:
 1338              	.LBE810:
 1339              	.LBE815:
 1340              	.LBE820:
 1341              	.LBE831:
 416:../../libdaisy/src/hid/disp/display.h ****             {
 1342              		.loc 3 416 26 view .LVU267
 1343 00ec 9642     		cmp	r6, r2
 1344              	.LBB832:
 1345              	.LBB821:
 1346              	.LBB816:
 1347              	.LBB811:
 1348              	.LBB807:
ARM GAS  /tmp/ccoLrWzv.s 			page 51


 246:../../libdaisy/src/dev/oled_ssd130x.h ****     }
 1349              		.loc 14 246 13 view .LVU268
 1350 00ee D974     		strb	r1, [r3, #19]
 246:../../libdaisy/src/dev/oled_ssd130x.h ****     }
 1351              		.loc 14 246 13 view .LVU269
 1352              	.LBE807:
 1353              	.LBE811:
 1354              	.LBE816:
 1355              	.LBE821:
 1356              	.LBE832:
 416:../../libdaisy/src/hid/disp/display.h ****             {
 1357              		.loc 3 416 13 is_stmt 1 view .LVU270
 1358              	.LVL91:
 416:../../libdaisy/src/hid/disp/display.h ****             {
 1359              		.loc 3 416 26 view .LVU271
 1360 00f0 EAD1     		bne	.L95
 1361              	.L113:
 416:../../libdaisy/src/hid/disp/display.h ****             {
 1362              		.loc 3 416 26 is_stmt 0 view .LVU272
 1363 00f2 B846     		mov	r8, r7
 1364              	.LVL92:
 1365              	.L94:
 413:../../libdaisy/src/hid/disp/display.h ****         {
 1366              		.loc 3 413 9 is_stmt 1 view .LVU273
 413:../../libdaisy/src/hid/disp/display.h ****         {
 1367              		.loc 3 413 22 view .LVU274
 1368 00f4 F345     		cmp	fp, lr
 1369 00f6 05F10105 		add	r5, r5, #1
 1370 00fa C3D1     		bne	.L89
 1371              	.LVL93:
 1372              	.L88:
 1373              	.LBB833:
 1374              	.LBB834:
 173:../../libdaisy/src/hid/disp/display.h ****         currentY_ = (y >= Height()) ? Height() - 1 : y;
 1375              		.loc 3 173 33 is_stmt 0 view .LVU275
 1376 00fc D9F80030 		ldr	r3, [r9]
 1377              	.LBE834:
 1378              	.LBE833:
 434:../../libdaisy/src/hid/disp/display.h **** 
 1379              		.loc 3 434 18 view .LVU276
 1380 0100 0AEB0604 		add	r4, r10, r6
 1381 0104 2549     		ldr	r1, .L120
 1382              	.LBB839:
 1383              	.LBB835:
 173:../../libdaisy/src/hid/disp/display.h ****         currentY_ = (y >= Height()) ? Height() - 1 : y;
 1384              		.loc 3 173 33 view .LVU277
 1385 0106 DA68     		ldr	r2, [r3, #12]
 1386              	.LBE835:
 1387              	.LBE839:
 434:../../libdaisy/src/hid/disp/display.h **** 
 1388              		.loc 3 434 18 view .LVU278
 1389 0108 A4B2     		uxth	r4, r4
 1390              	.LVL94:
 1391              	.LBB840:
 1392              	.LBI833:
 171:../../libdaisy/src/hid/disp/display.h ****     {
 1393              		.loc 3 171 10 is_stmt 1 view .LVU279
ARM GAS  /tmp/ccoLrWzv.s 			page 52


 1394              	.LBB836:
 173:../../libdaisy/src/hid/disp/display.h ****         currentY_ = (y >= Height()) ? Height() - 1 : y;
 1395              		.loc 3 173 9 view .LVU280
 1396 010a 8A42     		cmp	r2, r1
 1397 010c 31D1     		bne	.L115
 173:../../libdaisy/src/hid/disp/display.h ****         currentY_ = (y >= Height()) ? Height() - 1 : y;
 1398              		.loc 3 173 33 is_stmt 0 view .LVU281
 1399 010e 8020     		movs	r0, #128
 1400              	.L96:
 173:../../libdaisy/src/hid/disp/display.h ****         currentY_ = (y >= Height()) ? Height() - 1 : y;
 1401              		.loc 3 173 19 view .LVU282
 1402 0110 8442     		cmp	r4, r0
 1403 0112 1CD2     		bcs	.L116
 1404              	.LVL95:
 1405              	.L97:
 174:../../libdaisy/src/hid/disp/display.h ****     }
 1406              		.loc 3 174 34 view .LVU283
 1407 0114 9B68     		ldr	r3, [r3, #8]
 1408 0116 224A     		ldr	r2, .L120+4
 173:../../libdaisy/src/hid/disp/display.h ****         currentY_ = (y >= Height()) ? Height() - 1 : y;
 1409              		.loc 3 173 19 view .LVU284
 1410 0118 A9F80440 		strh	r4, [r9, #4]	@ movhi
 174:../../libdaisy/src/hid/disp/display.h ****     }
 1411              		.loc 3 174 9 is_stmt 1 view .LVU285
 1412 011c 9342     		cmp	r3, r2
 1413 011e 25D1     		bne	.L117
 174:../../libdaisy/src/hid/disp/display.h ****     }
 1414              		.loc 3 174 34 is_stmt 0 view .LVU286
 1415 0120 4020     		movs	r0, #64
 1416              	.L99:
 174:../../libdaisy/src/hid/disp/display.h ****     }
 1417              		.loc 3 174 19 view .LVU287
 1418 0122 019B     		ldr	r3, [sp, #4]
 1419 0124 8342     		cmp	r3, r0
 1420 0126 07D3     		bcc	.L100
 174:../../libdaisy/src/hid/disp/display.h ****     }
 1421              		.loc 3 174 46 view .LVU288
 1422 0128 D9F80030 		ldr	r3, [r9]
 1423 012c 1C4A     		ldr	r2, .L120+4
 1424 012e 9B68     		ldr	r3, [r3, #8]
 1425 0130 9342     		cmp	r3, r2
 1426 0132 2DD1     		bne	.L118
 1427 0134 3F23     		movs	r3, #63
 1428 0136 0193     		str	r3, [sp, #4]
 1429              	.LVL96:
 1430              	.L100:
 174:../../libdaisy/src/hid/disp/display.h ****     }
 1431              		.loc 3 174 19 view .LVU289
 1432 0138 DDE90003 		ldrd	r0, r3, [sp]
 1433 013c A9F80630 		strh	r3, [r9, #6]	@ movhi
 1434              	.LVL97:
 174:../../libdaisy/src/hid/disp/display.h ****     }
 1435              		.loc 3 174 19 view .LVU290
 1436              	.LBE836:
 1437              	.LBE840:
 438:../../libdaisy/src/hid/disp/display.h **** 
 1438              		.loc 3 438 5 view .LVU291
ARM GAS  /tmp/ccoLrWzv.s 			page 53


 1439 0140 05B0     		add	sp, sp, #20
 1440              		.cfi_remember_state
 1441              		.cfi_def_cfa_offset 36
 1442              		@ sp needed
 1443 0142 BDE8F08F 		pop	{r4, r5, r6, r7, r8, r9, r10, fp, pc}
 1444              	.LVL98:
 1445              	.L84:
 1446              		.cfi_restore_state
 402:../../libdaisy/src/hid/disp/display.h **** 
 1447              		.loc 3 402 20 view .LVU292
 1448 0146 0020     		movs	r0, #0
 438:../../libdaisy/src/hid/disp/display.h **** 
 1449              		.loc 3 438 5 view .LVU293
 1450 0148 05B0     		add	sp, sp, #20
 1451              		.cfi_remember_state
 1452              		.cfi_def_cfa_offset 36
 1453              		@ sp needed
 1454 014a BDE8F08F 		pop	{r4, r5, r6, r7, r8, r9, r10, fp, pc}
 1455              	.LVL99:
 1456              	.L116:
 1457              		.cfi_restore_state
 1458              	.LBB841:
 1459              	.LBB837:
 173:../../libdaisy/src/hid/disp/display.h ****         currentY_ = (y >= Height()) ? Height() - 1 : y;
 1460              		.loc 3 173 44 view .LVU294
 1461 014e DA68     		ldr	r2, [r3, #12]
 1462 0150 1249     		ldr	r1, .L120
 1463 0152 8A42     		cmp	r2, r1
 1464 0154 15D1     		bne	.L119
 1465 0156 7F24     		movs	r4, #127
 1466              	.LVL100:
 173:../../libdaisy/src/hid/disp/display.h ****         currentY_ = (y >= Height()) ? Height() - 1 : y;
 1467              		.loc 3 173 44 view .LVU295
 1468 0158 DCE7     		b	.L97
 1469              	.LVL101:
 1470              	.L111:
 173:../../libdaisy/src/hid/disp/display.h ****         currentY_ = (y >= Height()) ? Height() - 1 : y;
 1471              		.loc 3 173 44 view .LVU296
 1472              	.LBE837:
 1473              	.LBE841:
 405:../../libdaisy/src/hid/disp/display.h ****            || Height() < (currentY_ + font.FontHeight))
 1474              		.loc 3 405 17 view .LVU297
 1475 015a 9847     		blx	r3
 1476              	.LVL102:
 405:../../libdaisy/src/hid/disp/display.h ****            || Height() < (currentY_ + font.FontHeight))
 1477              		.loc 3 405 17 view .LVU298
 1478 015c 0246     		mov	r2, r0
 1479 015e 0190     		str	r0, [sp, #4]
 1480 0160 69E7     		b	.L83
 1481              	.L112:
 406:../../libdaisy/src/hid/disp/display.h ****         {
 1482              		.loc 3 406 21 discriminator 2 view .LVU299
 1483 0162 4846     		mov	r0, r9
 1484 0164 9847     		blx	r3
 1485              	.LVL103:
 1486 0166 0346     		mov	r3, r0
 1487 0168 0190     		str	r0, [sp, #4]
ARM GAS  /tmp/ccoLrWzv.s 			page 54


 1488 016a 72E7     		b	.L85
 1489              	.LVL104:
 1490              	.L117:
 1491              	.LBB842:
 1492              	.LBB838:
 174:../../libdaisy/src/hid/disp/display.h ****     }
 1493              		.loc 3 174 33 view .LVU300
 1494 016c 4846     		mov	r0, r9
 1495 016e 9847     		blx	r3
 1496              	.LVL105:
 1497 0170 D7E7     		b	.L99
 1498              	.LVL106:
 1499              	.L115:
 173:../../libdaisy/src/hid/disp/display.h ****         currentY_ = (y >= Height()) ? Height() - 1 : y;
 1500              		.loc 3 173 32 view .LVU301
 1501 0172 4846     		mov	r0, r9
 1502 0174 9047     		blx	r2
 1503              	.LVL107:
 1504 0176 D9F80030 		ldr	r3, [r9]
 1505 017a C9E7     		b	.L96
 1506              	.LVL108:
 1507              	.L86:
 173:../../libdaisy/src/hid/disp/display.h ****         currentY_ = (y >= Height()) ? Height() - 1 : y;
 1508              		.loc 3 173 32 view .LVU302
 1509 017c B9F804A0 		ldrh	r10, [r9, #4]
 1510 0180 BCE7     		b	.L88
 1511              	.LVL109:
 1512              	.L119:
 173:../../libdaisy/src/hid/disp/display.h ****         currentY_ = (y >= Height()) ? Height() - 1 : y;
 1513              		.loc 3 173 43 view .LVU303
 1514 0182 4846     		mov	r0, r9
 1515 0184 9047     		blx	r2
 1516              	.LVL110:
 1517 0186 0138     		subs	r0, r0, #1
 1518 0188 D9F80030 		ldr	r3, [r9]
 1519 018c 84B2     		uxth	r4, r0
 1520              	.LVL111:
 173:../../libdaisy/src/hid/disp/display.h ****         currentY_ = (y >= Height()) ? Height() - 1 : y;
 1521              		.loc 3 173 43 view .LVU304
 1522 018e C1E7     		b	.L97
 1523              	.L118:
 174:../../libdaisy/src/hid/disp/display.h ****     }
 1524              		.loc 3 174 45 view .LVU305
 1525 0190 4846     		mov	r0, r9
 1526 0192 9847     		blx	r3
 1527              	.LVL112:
 1528 0194 0138     		subs	r0, r0, #1
 1529 0196 83B2     		uxth	r3, r0
 1530 0198 0193     		str	r3, [sp, #4]
 1531              	.LVL113:
 174:../../libdaisy/src/hid/disp/display.h ****     }
 1532              		.loc 3 174 45 view .LVU306
 1533 019a CDE7     		b	.L100
 1534              	.L121:
 1535              		.align	2
 1536              	.L120:
 1537 019c 00000000 		.word	_ZNK5daisy11OledDisplayINS_13SSD130xDriverILj128ELj64ENS_24SSD130x4WireSpiTransportEEEE5Widt
ARM GAS  /tmp/ccoLrWzv.s 			page 55


 1538 01a0 00000000 		.word	_ZNK5daisy11OledDisplayINS_13SSD130xDriverILj128ELj64ENS_24SSD130x4WireSpiTransportEEEE6Heig
 1539              	.LBE838:
 1540              	.LBE842:
 1541              		.cfi_endproc
 1542              	.LFE4685:
 1544              		.section	.text._ZN5daisy25OneBitGraphicsDisplayImplINS_11OledDisplayINS_13SSD130xDriverILj128ELj64
 1545              		.align	1
 1546              		.p2align 2,,3
 1547              		.weak	_ZN5daisy25OneBitGraphicsDisplayImplINS_11OledDisplayINS_13SSD130xDriverILj128ELj64ENS_24SSD
 1548              		.syntax unified
 1549              		.thumb
 1550              		.thumb_func
 1551              		.fpu fpv5-d16
 1553              	_ZN5daisy25OneBitGraphicsDisplayImplINS_11OledDisplayINS_13SSD130xDriverILj128ELj64ENS_24SSD130x4Wi
 1554              	.LVL114:
 1555              	.LFB4837:
 459:../../libdaisy/src/hid/disp/display.h **** 
 460:../../libdaisy/src/hid/disp/display.h ****     Rectangle WriteStringAligned(const char*    str,
 1556              		.loc 3 460 15 is_stmt 1 view -0
 1557              		.cfi_startproc
 1558              		@ args = 12, pretend = 0, frame = 40
 1559              		@ frame_needed = 0, uses_anonymous_args = 0
 1560              		.loc 3 460 15 is_stmt 0 view .LVU308
 1561 0000 2DE9F04F 		push	{r4, r5, r6, r7, r8, r9, r10, fp, lr}
 1562              		.cfi_def_cfa_offset 36
 1563              		.cfi_offset 4, -36
 1564              		.cfi_offset 5, -32
 1565              		.cfi_offset 6, -28
 1566              		.cfi_offset 7, -24
 1567              		.cfi_offset 8, -20
 1568              		.cfi_offset 9, -16
 1569              		.cfi_offset 10, -12
 1570              		.cfi_offset 11, -8
 1571              		.cfi_offset 14, -4
 1572 0004 0C46     		mov	r4, r1
 1573 0006 8BB0     		sub	sp, sp, #44
 1574              		.cfi_def_cfa_offset 80
 1575              	.LBB977:
 1576              	.LBB978:
 1577              	.LBB979:
 1578              	.LBB980:
 461:../../libdaisy/src/hid/disp/display.h ****                                  const FontDef& font,
 462:../../libdaisy/src/hid/disp/display.h ****                                  Rectangle      boundingBox,
 463:../../libdaisy/src/hid/disp/display.h ****                                  Alignment      alignment,
 464:../../libdaisy/src/hid/disp/display.h ****                                  bool           on) override
 465:../../libdaisy/src/hid/disp/display.h ****     {
 466:../../libdaisy/src/hid/disp/display.h ****         const auto alignedRect
 467:../../libdaisy/src/hid/disp/display.h ****             = GetTextRect(str, font).AlignedWithin(boundingBox, alignment);
 468:../../libdaisy/src/hid/disp/display.h ****         SetCursor(alignedRect.GetX(), alignedRect.GetY());
 469:../../libdaisy/src/hid/disp/display.h ****         ((ChildType*)(this))->ChildType::WriteString(str, font, on);
 470:../../libdaisy/src/hid/disp/display.h ****         return alignedRect;
 471:../../libdaisy/src/hid/disp/display.h ****     }
 472:../../libdaisy/src/hid/disp/display.h **** 
 473:../../libdaisy/src/hid/disp/display.h ****   private:
 474:../../libdaisy/src/hid/disp/display.h ****     uint32_t strlen(const char* string)
 475:../../libdaisy/src/hid/disp/display.h ****     {
 476:../../libdaisy/src/hid/disp/display.h ****         uint32_t result = 0;
ARM GAS  /tmp/ccoLrWzv.s 			page 56


 477:../../libdaisy/src/hid/disp/display.h ****         while(*string++ != '\0')
 1579              		.loc 3 477 25 view .LVU309
 1580 0008 1146     		mov	r1, r2
 1581              	.LVL115:
 1582              		.loc 3 477 25 view .LVU310
 1583              	.LBE980:
 1584              	.LBE979:
 1585              	.LBE978:
 1586              	.LBE977:
 460:../../libdaisy/src/hid/disp/display.h ****                                  const FontDef& font,
 1587              		.loc 3 460 15 view .LVU311
 1588 000a 9046     		mov	r8, r2
 1589 000c 0990     		str	r0, [sp, #36]
 1590 000e 1D46     		mov	r5, r3
 1591              	.LVL116:
 1592              	.LBB995:
 1593              	.LBI977:
 478:../../libdaisy/src/hid/disp/display.h ****             result++;
 479:../../libdaisy/src/hid/disp/display.h ****         return result;
 480:../../libdaisy/src/hid/disp/display.h ****     }
 481:../../libdaisy/src/hid/disp/display.h **** 
 482:../../libdaisy/src/hid/disp/display.h ****     Rectangle GetTextRect(const char* text, const FontDef& font)
 1594              		.loc 3 482 15 is_stmt 1 view .LVU312
 1595              	.LBB991:
 1596              	.LBB984:
 1597              	.LBB981:
 477:../../libdaisy/src/hid/disp/display.h ****             result++;
 1598              		.loc 3 477 25 view .LVU313
 477:../../libdaisy/src/hid/disp/display.h ****             result++;
 1599              		.loc 3 477 25 is_stmt 0 view .LVU314
 1600              	.LBE981:
 1601              	.LBE984:
 1602              	.LBE991:
 1603              	.LBE995:
 460:../../libdaisy/src/hid/disp/display.h ****                                  const FontDef& font,
 1604              		.loc 3 460 15 view .LVU315
 1605 0010 9DF85800 		ldrb	r0, [sp, #88]	@ zero_extendqisi2
 1606              	.LVL117:
 1607              	.LBB996:
 1608              	.LBB992:
 1609              	.LBB985:
 1610              	.LBB982:
 477:../../libdaisy/src/hid/disp/display.h ****             result++;
 1611              		.loc 3 477 25 view .LVU316
 1612 0014 11F8012B 		ldrb	r2, [r1], #1	@ zero_extendqisi2
 1613              	.LVL118:
 477:../../libdaisy/src/hid/disp/display.h ****             result++;
 1614              		.loc 3 477 25 view .LVU317
 1615              	.LBE982:
 1616              	.LBE985:
 1617              	.LBE992:
 1618              	.LBE996:
 460:../../libdaisy/src/hid/disp/display.h ****                                  const FontDef& font,
 1619              		.loc 3 460 15 view .LVU318
 1620 0018 0890     		str	r0, [sp, #32]
 1621 001a DDE91463 		ldrd	r6, r3, [sp, #80]
 1622              	.LVL119:
ARM GAS  /tmp/ccoLrWzv.s 			page 57


 1623              	.LBB997:
 1624              	.LBB993:
 1625              	.LBB986:
 1626              	.LBB983:
 477:../../libdaisy/src/hid/disp/display.h ****             result++;
 1627              		.loc 3 477 25 view .LVU319
 1628 001e 32B1     		cbz	r2, .L123
 476:../../libdaisy/src/hid/disp/display.h ****         while(*string++ != '\0')
 1629              		.loc 3 476 18 view .LVU320
 1630 0020 0022     		movs	r2, #0
 1631              	.LVL120:
 1632              	.L124:
 477:../../libdaisy/src/hid/disp/display.h ****             result++;
 1633              		.loc 3 477 25 view .LVU321
 1634 0022 11F8010B 		ldrb	r0, [r1], #1	@ zero_extendqisi2
 1635              	.LVL121:
 478:../../libdaisy/src/hid/disp/display.h ****             result++;
 1636              		.loc 3 478 13 view .LVU322
 1637 0026 0132     		adds	r2, r2, #1
 1638              	.LVL122:
 477:../../libdaisy/src/hid/disp/display.h ****             result++;
 1639              		.loc 3 477 25 is_stmt 1 view .LVU323
 1640 0028 0028     		cmp	r0, #0
 1641 002a FAD1     		bne	.L124
 1642 002c 92B2     		uxth	r2, r2
 1643              	.LVL123:
 1644              	.L123:
 477:../../libdaisy/src/hid/disp/display.h ****             result++;
 1645              		.loc 3 477 25 is_stmt 0 view .LVU324
 1646              	.LBE983:
 1647              	.LBE986:
 483:../../libdaisy/src/hid/disp/display.h ****     {
 484:../../libdaisy/src/hid/disp/display.h ****         const auto numChars = strlen(text);
 485:../../libdaisy/src/hid/disp/display.h ****         return {int16_t(numChars * font.FontWidth), font.FontHeight};
 1648              		.loc 3 485 68 view .LVU325
 1649 002e 2978     		ldrb	r1, [r5]	@ zero_extendqisi2
 1650              		.loc 3 485 58 view .LVU326
 1651 0030 6878     		ldrb	r0, [r5, #1]	@ zero_extendqisi2
 1652              		.loc 3 485 68 view .LVU327
 1653 0032 11FB02F2 		smulbb	r2, r1, r2
 1654 0036 01B2     		sxth	r1, r0
 1655              	.LVL124:
 1656              	.LBB987:
 1657              	.LBI987:
 1658              		.file 16 "../../libdaisy/src/hid/disp/graphics_common.h"
   1:../../libdaisy/src/hid/disp/graphics_common.h **** #pragma once
   2:../../libdaisy/src/hid/disp/graphics_common.h **** 
   3:../../libdaisy/src/hid/disp/graphics_common.h **** #include <cstdint>
   4:../../libdaisy/src/hid/disp/graphics_common.h **** 
   5:../../libdaisy/src/hid/disp/graphics_common.h **** namespace daisy
   6:../../libdaisy/src/hid/disp/graphics_common.h **** {
   7:../../libdaisy/src/hid/disp/graphics_common.h **** /** Justifications */
   8:../../libdaisy/src/hid/disp/graphics_common.h **** enum class Alignment
   9:../../libdaisy/src/hid/disp/graphics_common.h **** {
  10:../../libdaisy/src/hid/disp/graphics_common.h ****     centered,
  11:../../libdaisy/src/hid/disp/graphics_common.h ****     topLeft,
  12:../../libdaisy/src/hid/disp/graphics_common.h ****     topCentered,
ARM GAS  /tmp/ccoLrWzv.s 			page 58


  13:../../libdaisy/src/hid/disp/graphics_common.h ****     topRight,
  14:../../libdaisy/src/hid/disp/graphics_common.h ****     bottomLeft,
  15:../../libdaisy/src/hid/disp/graphics_common.h ****     bottomCentered,
  16:../../libdaisy/src/hid/disp/graphics_common.h ****     bottomRight,
  17:../../libdaisy/src/hid/disp/graphics_common.h ****     centeredLeft,
  18:../../libdaisy/src/hid/disp/graphics_common.h ****     centeredRight
  19:../../libdaisy/src/hid/disp/graphics_common.h **** };
  20:../../libdaisy/src/hid/disp/graphics_common.h **** 
  21:../../libdaisy/src/hid/disp/graphics_common.h **** class Rectangle
  22:../../libdaisy/src/hid/disp/graphics_common.h **** {
  23:../../libdaisy/src/hid/disp/graphics_common.h ****   public:
  24:../../libdaisy/src/hid/disp/graphics_common.h ****     Rectangle() : x_(0), y_(0), width_(0), height_(0) {}
  25:../../libdaisy/src/hid/disp/graphics_common.h **** 
  26:../../libdaisy/src/hid/disp/graphics_common.h ****     Rectangle(int16_t width, int16_t height)
 1659              		.loc 16 26 5 is_stmt 1 view .LVU328
 1660              	.LBB988:
 1661              	.LBI988:
  27:../../libdaisy/src/hid/disp/graphics_common.h ****     : x_(0), y_(0), width_(max(0, width)), height_(max(0, height))
  28:../../libdaisy/src/hid/disp/graphics_common.h ****     {
  29:../../libdaisy/src/hid/disp/graphics_common.h ****     }
  30:../../libdaisy/src/hid/disp/graphics_common.h **** 
  31:../../libdaisy/src/hid/disp/graphics_common.h ****     Rectangle(int16_t x, int16_t y, int16_t width, int16_t height)
  32:../../libdaisy/src/hid/disp/graphics_common.h ****     : x_(x), y_(y), width_(max(0, width)), height_(max(0, height))
  33:../../libdaisy/src/hid/disp/graphics_common.h ****     {
  34:../../libdaisy/src/hid/disp/graphics_common.h ****     }
  35:../../libdaisy/src/hid/disp/graphics_common.h **** 
  36:../../libdaisy/src/hid/disp/graphics_common.h ****     Rectangle(const Rectangle& other) { *this = other; }
  37:../../libdaisy/src/hid/disp/graphics_common.h **** 
  38:../../libdaisy/src/hid/disp/graphics_common.h ****     Rectangle& operator=(const Rectangle& other)
  39:../../libdaisy/src/hid/disp/graphics_common.h ****     {
  40:../../libdaisy/src/hid/disp/graphics_common.h ****         x_      = other.x_;
  41:../../libdaisy/src/hid/disp/graphics_common.h ****         y_      = other.y_;
  42:../../libdaisy/src/hid/disp/graphics_common.h ****         width_  = other.width_;
  43:../../libdaisy/src/hid/disp/graphics_common.h ****         height_ = other.height_;
  44:../../libdaisy/src/hid/disp/graphics_common.h ****         return *this;
  45:../../libdaisy/src/hid/disp/graphics_common.h ****     }
  46:../../libdaisy/src/hid/disp/graphics_common.h **** 
  47:../../libdaisy/src/hid/disp/graphics_common.h ****     bool operator==(const Rectangle& other) const
  48:../../libdaisy/src/hid/disp/graphics_common.h ****     {
  49:../../libdaisy/src/hid/disp/graphics_common.h ****         return (x_ == other.x_) && (y_ == other.y_) && (width_ == other.width_)
  50:../../libdaisy/src/hid/disp/graphics_common.h ****                && (height_ == other.height_);
  51:../../libdaisy/src/hid/disp/graphics_common.h ****     }
  52:../../libdaisy/src/hid/disp/graphics_common.h ****     bool operator!=(const Rectangle& other) const { return !(*this == other); }
  53:../../libdaisy/src/hid/disp/graphics_common.h **** 
  54:../../libdaisy/src/hid/disp/graphics_common.h ****     bool IsEmpty() const { return (width_ <= 0) || (height_ <= 0); }
  55:../../libdaisy/src/hid/disp/graphics_common.h **** 
  56:../../libdaisy/src/hid/disp/graphics_common.h ****     int16_t GetX() const { return x_; }
  57:../../libdaisy/src/hid/disp/graphics_common.h ****     int16_t GetY() const { return y_; }
  58:../../libdaisy/src/hid/disp/graphics_common.h ****     int16_t GetWidth() const { return width_; }
  59:../../libdaisy/src/hid/disp/graphics_common.h ****     int16_t GetHeight() const { return height_; }
  60:../../libdaisy/src/hid/disp/graphics_common.h ****     int16_t GetRight() const { return x_ + width_; }
  61:../../libdaisy/src/hid/disp/graphics_common.h ****     int16_t GetBottom() const { return y_ + height_; }
  62:../../libdaisy/src/hid/disp/graphics_common.h ****     int16_t GetCenterX() const { return x_ + width_ / 2; }
  63:../../libdaisy/src/hid/disp/graphics_common.h ****     int16_t GetCenterY() const { return y_ + height_ / 2; }
  64:../../libdaisy/src/hid/disp/graphics_common.h **** 
  65:../../libdaisy/src/hid/disp/graphics_common.h ****     Rectangle WithX(int16_t x) const { return {x, y_, width_, height_}; }
  66:../../libdaisy/src/hid/disp/graphics_common.h ****     Rectangle WithY(int16_t y) const { return {x_, y, width_, height_}; }
ARM GAS  /tmp/ccoLrWzv.s 			page 59


  67:../../libdaisy/src/hid/disp/graphics_common.h ****     Rectangle WithWidth(int16_t width) const
  68:../../libdaisy/src/hid/disp/graphics_common.h ****     {
  69:../../libdaisy/src/hid/disp/graphics_common.h ****         return {x_, y_, width, height_};
  70:../../libdaisy/src/hid/disp/graphics_common.h ****     }
  71:../../libdaisy/src/hid/disp/graphics_common.h ****     Rectangle WithHeight(int16_t height) const
  72:../../libdaisy/src/hid/disp/graphics_common.h ****     {
  73:../../libdaisy/src/hid/disp/graphics_common.h ****         return {x_, y_, width_, height};
  74:../../libdaisy/src/hid/disp/graphics_common.h ****     }
  75:../../libdaisy/src/hid/disp/graphics_common.h ****     Rectangle WithSize(int16_t width, int16_t height) const
  76:../../libdaisy/src/hid/disp/graphics_common.h ****     {
  77:../../libdaisy/src/hid/disp/graphics_common.h ****         return {x_, y_, width, height};
  78:../../libdaisy/src/hid/disp/graphics_common.h ****     }
  79:../../libdaisy/src/hid/disp/graphics_common.h ****     Rectangle WithWidthKeepingCenter(int16_t width) const
  80:../../libdaisy/src/hid/disp/graphics_common.h ****     {
  81:../../libdaisy/src/hid/disp/graphics_common.h ****         return Rectangle(x_, y_, width, height_)
  82:../../libdaisy/src/hid/disp/graphics_common.h ****             .WithCenter(GetCenterX(), GetCenterY());
  83:../../libdaisy/src/hid/disp/graphics_common.h ****     }
  84:../../libdaisy/src/hid/disp/graphics_common.h ****     Rectangle WithHeightKeepingCenter(int16_t height) const
  85:../../libdaisy/src/hid/disp/graphics_common.h ****     {
  86:../../libdaisy/src/hid/disp/graphics_common.h ****         return Rectangle(x_, y_, width_, height)
  87:../../libdaisy/src/hid/disp/graphics_common.h ****             .WithCenter(GetCenterX(), GetCenterY());
  88:../../libdaisy/src/hid/disp/graphics_common.h ****     }
  89:../../libdaisy/src/hid/disp/graphics_common.h ****     Rectangle WithSizeKeepingCenter(int16_t width, int16_t height) const
  90:../../libdaisy/src/hid/disp/graphics_common.h ****     {
  91:../../libdaisy/src/hid/disp/graphics_common.h ****         return Rectangle(x_, y_, width, height)
  92:../../libdaisy/src/hid/disp/graphics_common.h ****             .WithCenter(GetCenterX(), GetCenterY());
  93:../../libdaisy/src/hid/disp/graphics_common.h ****     }
  94:../../libdaisy/src/hid/disp/graphics_common.h **** 
  95:../../libdaisy/src/hid/disp/graphics_common.h ****     Rectangle Reduced(int16_t sizeToReduce) const
  96:../../libdaisy/src/hid/disp/graphics_common.h ****     {
  97:../../libdaisy/src/hid/disp/graphics_common.h ****         return {int16_t(x_ + sizeToReduce),
  98:../../libdaisy/src/hid/disp/graphics_common.h ****                 int16_t(y_ + sizeToReduce),
  99:../../libdaisy/src/hid/disp/graphics_common.h ****                 int16_t(width_ - 2 * sizeToReduce),
 100:../../libdaisy/src/hid/disp/graphics_common.h ****                 int16_t(height_ - 2 * sizeToReduce)};
 101:../../libdaisy/src/hid/disp/graphics_common.h ****     }
 102:../../libdaisy/src/hid/disp/graphics_common.h ****     Rectangle Reduced(int16_t xToReduce, int16_t yToReduce) const
 103:../../libdaisy/src/hid/disp/graphics_common.h ****     {
 104:../../libdaisy/src/hid/disp/graphics_common.h ****         return {int16_t(x_ + xToReduce),
 105:../../libdaisy/src/hid/disp/graphics_common.h ****                 int16_t(y_ + yToReduce),
 106:../../libdaisy/src/hid/disp/graphics_common.h ****                 int16_t(width_ - 2 * xToReduce),
 107:../../libdaisy/src/hid/disp/graphics_common.h ****                 int16_t(height_ - 2 * yToReduce)};
 108:../../libdaisy/src/hid/disp/graphics_common.h ****     }
 109:../../libdaisy/src/hid/disp/graphics_common.h **** 
 110:../../libdaisy/src/hid/disp/graphics_common.h ****     Rectangle Translated(int16_t x, int16_t y) const
 111:../../libdaisy/src/hid/disp/graphics_common.h ****     {
 112:../../libdaisy/src/hid/disp/graphics_common.h ****         return {int16_t(x_ + x), int16_t(y_ + y), width_, height_};
 113:../../libdaisy/src/hid/disp/graphics_common.h ****     }
 114:../../libdaisy/src/hid/disp/graphics_common.h **** 
 115:../../libdaisy/src/hid/disp/graphics_common.h ****     Rectangle WithLeft(int16_t left) const
 116:../../libdaisy/src/hid/disp/graphics_common.h ****     {
 117:../../libdaisy/src/hid/disp/graphics_common.h ****         const auto newWidth = int16_t((x_ - left) + width_);
 118:../../libdaisy/src/hid/disp/graphics_common.h ****         return {left, y_, newWidth, height_};
 119:../../libdaisy/src/hid/disp/graphics_common.h ****     }
 120:../../libdaisy/src/hid/disp/graphics_common.h **** 
 121:../../libdaisy/src/hid/disp/graphics_common.h ****     Rectangle WithRight(int16_t right) const
 122:../../libdaisy/src/hid/disp/graphics_common.h ****     {
 123:../../libdaisy/src/hid/disp/graphics_common.h ****         const auto newWidth = int16_t(right - x_);
ARM GAS  /tmp/ccoLrWzv.s 			page 60


 124:../../libdaisy/src/hid/disp/graphics_common.h ****         return {x_, y_, newWidth, height_};
 125:../../libdaisy/src/hid/disp/graphics_common.h ****     }
 126:../../libdaisy/src/hid/disp/graphics_common.h **** 
 127:../../libdaisy/src/hid/disp/graphics_common.h ****     Rectangle WithTop(int16_t top) const
 128:../../libdaisy/src/hid/disp/graphics_common.h ****     {
 129:../../libdaisy/src/hid/disp/graphics_common.h ****         const auto newHeight = int16_t((y_ - top) + height_);
 130:../../libdaisy/src/hid/disp/graphics_common.h ****         return {x_, top, width_, newHeight};
 131:../../libdaisy/src/hid/disp/graphics_common.h ****     }
 132:../../libdaisy/src/hid/disp/graphics_common.h **** 
 133:../../libdaisy/src/hid/disp/graphics_common.h ****     Rectangle WithBottom(int16_t bottom) const
 134:../../libdaisy/src/hid/disp/graphics_common.h ****     {
 135:../../libdaisy/src/hid/disp/graphics_common.h ****         const auto newHeight = int16_t(bottom - y_);
 136:../../libdaisy/src/hid/disp/graphics_common.h ****         return {x_, y_, width_, newHeight};
 137:../../libdaisy/src/hid/disp/graphics_common.h ****     }
 138:../../libdaisy/src/hid/disp/graphics_common.h **** 
 139:../../libdaisy/src/hid/disp/graphics_common.h ****     Rectangle WithTrimmedLeft(int16_t pxToTrim) const
 140:../../libdaisy/src/hid/disp/graphics_common.h ****     {
 141:../../libdaisy/src/hid/disp/graphics_common.h ****         return {
 142:../../libdaisy/src/hid/disp/graphics_common.h ****             int16_t(x_ + pxToTrim), y_, int16_t(width_ - pxToTrim), height_};
 143:../../libdaisy/src/hid/disp/graphics_common.h ****     }
 144:../../libdaisy/src/hid/disp/graphics_common.h **** 
 145:../../libdaisy/src/hid/disp/graphics_common.h ****     Rectangle WithTrimmedRight(int16_t pxToTrim) const
 146:../../libdaisy/src/hid/disp/graphics_common.h ****     {
 147:../../libdaisy/src/hid/disp/graphics_common.h ****         return {x_, y_, int16_t(width_ - pxToTrim), height_};
 148:../../libdaisy/src/hid/disp/graphics_common.h ****     }
 149:../../libdaisy/src/hid/disp/graphics_common.h **** 
 150:../../libdaisy/src/hid/disp/graphics_common.h ****     Rectangle WithTrimmedTop(int16_t pxToTrim) const
 151:../../libdaisy/src/hid/disp/graphics_common.h ****     {
 152:../../libdaisy/src/hid/disp/graphics_common.h ****         return {
 153:../../libdaisy/src/hid/disp/graphics_common.h ****             x_, int16_t(y_ + pxToTrim), width_, int16_t(height_ - pxToTrim)};
 154:../../libdaisy/src/hid/disp/graphics_common.h ****     }
 155:../../libdaisy/src/hid/disp/graphics_common.h **** 
 156:../../libdaisy/src/hid/disp/graphics_common.h ****     Rectangle WithTrimmedBottom(int16_t pxToTrim) const
 157:../../libdaisy/src/hid/disp/graphics_common.h ****     {
 158:../../libdaisy/src/hid/disp/graphics_common.h ****         return {x_, y_, width_, int16_t(height_ - pxToTrim)};
 159:../../libdaisy/src/hid/disp/graphics_common.h ****     }
 160:../../libdaisy/src/hid/disp/graphics_common.h **** 
 161:../../libdaisy/src/hid/disp/graphics_common.h ****     Rectangle WithCenterX(int16_t centerX) const
 162:../../libdaisy/src/hid/disp/graphics_common.h ****     {
 163:../../libdaisy/src/hid/disp/graphics_common.h ****         return {int16_t(x_ + centerX - GetCenterX()), y_, width_, height_};
 164:../../libdaisy/src/hid/disp/graphics_common.h ****     }
 165:../../libdaisy/src/hid/disp/graphics_common.h **** 
 166:../../libdaisy/src/hid/disp/graphics_common.h ****     Rectangle WithCenterY(int16_t centerY) const
 167:../../libdaisy/src/hid/disp/graphics_common.h ****     {
 168:../../libdaisy/src/hid/disp/graphics_common.h ****         return {x_, int16_t(y_ + centerY - GetCenterY()), width_, height_};
 169:../../libdaisy/src/hid/disp/graphics_common.h ****     }
 170:../../libdaisy/src/hid/disp/graphics_common.h **** 
 171:../../libdaisy/src/hid/disp/graphics_common.h ****     Rectangle WithCenter(int16_t centerX, int16_t centerY) const
 172:../../libdaisy/src/hid/disp/graphics_common.h ****     {
 173:../../libdaisy/src/hid/disp/graphics_common.h ****         return {int16_t(x_ + centerX - GetCenterX()),
 174:../../libdaisy/src/hid/disp/graphics_common.h ****                 int16_t(y_ + centerY - GetCenterY()),
 175:../../libdaisy/src/hid/disp/graphics_common.h ****                 width_,
 176:../../libdaisy/src/hid/disp/graphics_common.h ****                 height_};
 177:../../libdaisy/src/hid/disp/graphics_common.h ****     }
 178:../../libdaisy/src/hid/disp/graphics_common.h **** 
 179:../../libdaisy/src/hid/disp/graphics_common.h ****     Rectangle RemoveFromLeft(int16_t pxToRemove)
 180:../../libdaisy/src/hid/disp/graphics_common.h ****     {
ARM GAS  /tmp/ccoLrWzv.s 			page 61


 181:../../libdaisy/src/hid/disp/graphics_common.h ****         const auto result = this->WithWidth(min(pxToRemove, width_));
 182:../../libdaisy/src/hid/disp/graphics_common.h ****         x_ += min(pxToRemove, width_);
 183:../../libdaisy/src/hid/disp/graphics_common.h ****         width_ = max(int16_t(width_ - pxToRemove), 0);
 184:../../libdaisy/src/hid/disp/graphics_common.h ****         return result;
 185:../../libdaisy/src/hid/disp/graphics_common.h ****     }
 186:../../libdaisy/src/hid/disp/graphics_common.h **** 
 187:../../libdaisy/src/hid/disp/graphics_common.h ****     Rectangle RemoveFromRight(int16_t pxToRemove)
 188:../../libdaisy/src/hid/disp/graphics_common.h ****     {
 189:../../libdaisy/src/hid/disp/graphics_common.h ****         const auto canRemove = min(pxToRemove, width_);
 190:../../libdaisy/src/hid/disp/graphics_common.h ****         width_ -= canRemove;
 191:../../libdaisy/src/hid/disp/graphics_common.h ****         return {int16_t(x_ + width_), y_, canRemove, height_};
 192:../../libdaisy/src/hid/disp/graphics_common.h ****     }
 193:../../libdaisy/src/hid/disp/graphics_common.h **** 
 194:../../libdaisy/src/hid/disp/graphics_common.h ****     Rectangle RemoveFromTop(int16_t pxToRemove)
 195:../../libdaisy/src/hid/disp/graphics_common.h ****     {
 196:../../libdaisy/src/hid/disp/graphics_common.h ****         const auto result = this->WithHeight(min(pxToRemove, height_));
 197:../../libdaisy/src/hid/disp/graphics_common.h ****         y_ += min(pxToRemove, height_);
 198:../../libdaisy/src/hid/disp/graphics_common.h ****         height_ = max(height_ - pxToRemove, 0);
 199:../../libdaisy/src/hid/disp/graphics_common.h ****         return result;
 200:../../libdaisy/src/hid/disp/graphics_common.h ****     }
 201:../../libdaisy/src/hid/disp/graphics_common.h **** 
 202:../../libdaisy/src/hid/disp/graphics_common.h ****     Rectangle RemoveFromBottom(int16_t pxToRemove)
 203:../../libdaisy/src/hid/disp/graphics_common.h ****     {
 204:../../libdaisy/src/hid/disp/graphics_common.h ****         const auto canRemove = min(pxToRemove, height_);
 205:../../libdaisy/src/hid/disp/graphics_common.h ****         height_ -= canRemove;
 206:../../libdaisy/src/hid/disp/graphics_common.h ****         return {x_, int16_t(y_ + height_), width_, canRemove};
 207:../../libdaisy/src/hid/disp/graphics_common.h ****     }
 208:../../libdaisy/src/hid/disp/graphics_common.h **** 
 209:../../libdaisy/src/hid/disp/graphics_common.h ****     Rectangle AlignedWithin(const Rectangle& other, Alignment alignment) const
 210:../../libdaisy/src/hid/disp/graphics_common.h ****     {
 211:../../libdaisy/src/hid/disp/graphics_common.h ****         switch(alignment)
 212:../../libdaisy/src/hid/disp/graphics_common.h ****         {
 213:../../libdaisy/src/hid/disp/graphics_common.h ****             case Alignment::topLeft:
 214:../../libdaisy/src/hid/disp/graphics_common.h ****                 return {other.x_, other.y_, width_, height_};
 215:../../libdaisy/src/hid/disp/graphics_common.h ****             case Alignment::topRight:
 216:../../libdaisy/src/hid/disp/graphics_common.h ****                 return {int16_t(other.GetRight() - width_),
 217:../../libdaisy/src/hid/disp/graphics_common.h ****                         other.y_,
 218:../../libdaisy/src/hid/disp/graphics_common.h ****                         width_,
 219:../../libdaisy/src/hid/disp/graphics_common.h ****                         height_};
 220:../../libdaisy/src/hid/disp/graphics_common.h ****             case Alignment::topCentered:
 221:../../libdaisy/src/hid/disp/graphics_common.h ****                 return {int16_t(x_ + (other.GetCenterX() - GetCenterX())),
 222:../../libdaisy/src/hid/disp/graphics_common.h ****                         other.y_,
 223:../../libdaisy/src/hid/disp/graphics_common.h ****                         width_,
 224:../../libdaisy/src/hid/disp/graphics_common.h ****                         height_};
 225:../../libdaisy/src/hid/disp/graphics_common.h ****             case Alignment::bottomLeft:
 226:../../libdaisy/src/hid/disp/graphics_common.h ****                 return {other.x_,
 227:../../libdaisy/src/hid/disp/graphics_common.h ****                         int16_t(other.GetBottom() - height_),
 228:../../libdaisy/src/hid/disp/graphics_common.h ****                         width_,
 229:../../libdaisy/src/hid/disp/graphics_common.h ****                         height_};
 230:../../libdaisy/src/hid/disp/graphics_common.h ****             case Alignment::bottomRight:
 231:../../libdaisy/src/hid/disp/graphics_common.h ****                 return {int16_t(other.GetRight() - width_),
 232:../../libdaisy/src/hid/disp/graphics_common.h ****                         int16_t(other.GetBottom() - height_),
 233:../../libdaisy/src/hid/disp/graphics_common.h ****                         width_,
 234:../../libdaisy/src/hid/disp/graphics_common.h ****                         height_};
 235:../../libdaisy/src/hid/disp/graphics_common.h ****             case Alignment::bottomCentered:
 236:../../libdaisy/src/hid/disp/graphics_common.h ****                 return {int16_t(x_ + (other.GetCenterX() - GetCenterX())),
 237:../../libdaisy/src/hid/disp/graphics_common.h ****                         int16_t(other.GetBottom() - height_),
ARM GAS  /tmp/ccoLrWzv.s 			page 62


 238:../../libdaisy/src/hid/disp/graphics_common.h ****                         width_,
 239:../../libdaisy/src/hid/disp/graphics_common.h ****                         height_};
 240:../../libdaisy/src/hid/disp/graphics_common.h ****             case Alignment::centeredLeft:
 241:../../libdaisy/src/hid/disp/graphics_common.h ****                 return {other.x_,
 242:../../libdaisy/src/hid/disp/graphics_common.h ****                         int16_t(y_ + (other.GetCenterY() - GetCenterY())),
 243:../../libdaisy/src/hid/disp/graphics_common.h ****                         width_,
 244:../../libdaisy/src/hid/disp/graphics_common.h ****                         height_};
 245:../../libdaisy/src/hid/disp/graphics_common.h ****             case Alignment::centeredRight:
 246:../../libdaisy/src/hid/disp/graphics_common.h ****                 return {int16_t(other.GetRight() - width_),
 247:../../libdaisy/src/hid/disp/graphics_common.h ****                         int16_t(y_ + (other.GetCenterY() - GetCenterY())),
 248:../../libdaisy/src/hid/disp/graphics_common.h ****                         width_,
 249:../../libdaisy/src/hid/disp/graphics_common.h ****                         height_};
 250:../../libdaisy/src/hid/disp/graphics_common.h ****             case Alignment::centered:
 251:../../libdaisy/src/hid/disp/graphics_common.h ****                 return {int16_t(x_ + (other.GetCenterX() - GetCenterX())),
 252:../../libdaisy/src/hid/disp/graphics_common.h ****                         int16_t(y_ + (other.GetCenterY() - GetCenterY())),
 253:../../libdaisy/src/hid/disp/graphics_common.h ****                         width_,
 254:../../libdaisy/src/hid/disp/graphics_common.h ****                         height_};
 255:../../libdaisy/src/hid/disp/graphics_common.h ****             default: return {};
 256:../../libdaisy/src/hid/disp/graphics_common.h ****         }
 257:../../libdaisy/src/hid/disp/graphics_common.h ****     }
 258:../../libdaisy/src/hid/disp/graphics_common.h **** 
 259:../../libdaisy/src/hid/disp/graphics_common.h ****   private:
 260:../../libdaisy/src/hid/disp/graphics_common.h ****     int16_t x_, y_, width_, height_;
 261:../../libdaisy/src/hid/disp/graphics_common.h ****     int16_t max(int16_t a, int16_t b) { return (a > b) ? a : b; }
 1662              		.loc 16 261 13 view .LVU329
 1663              		.loc 16 261 13 is_stmt 0 view .LVU330
 1664              	.LBE988:
 1665              	.LBE987:
 1666              	.LBE993:
 1667              	.LBE997:
 1668              		.loc 16 261 41 is_stmt 1 view .LVU331
 1669 0038 12B2     		sxth	r2, r2
 1670 003a 22EAE272 		bic	r2, r2, r2, asr #31
 1671              	.LVL125:
 1672              	.LBB998:
 1673              	.LBB994:
 1674              	.LBB990:
 1675              	.LBB989:
 1676              	.LBI989:
 1677              		.loc 16 261 13 view .LVU332
 1678              		.loc 16 261 13 is_stmt 0 view .LVU333
 1679              	.LBE989:
 1680              	.LBE990:
 1681              	.LBE994:
 1682              	.LBE998:
 1683              		.loc 16 261 41 is_stmt 1 view .LVU334
 1684              	.LBB999:
 1685              	.LBI999:
 209:../../libdaisy/src/hid/disp/graphics_common.h ****     {
 1686              		.loc 16 209 15 view .LVU335
 1687              	.LBB1000:
 211:../../libdaisy/src/hid/disp/graphics_common.h ****         {
 1688              		.loc 16 211 9 view .LVU336
 1689 003e 082B     		cmp	r3, #8
 1690 0040 00F2AD81 		bhi	.L125
 1691 0044 DFE813F0 		tbh	[pc, r3, lsl #1]
 1692              	.L127:
ARM GAS  /tmp/ccoLrWzv.s 			page 63


 1693 0048 0001     		.2byte	(.L135-.L127)/2
 1694 004a 1201     		.2byte	(.L134-.L127)/2
 1695 004c 1E01     		.2byte	(.L133-.L127)/2
 1696 004e 3201     		.2byte	(.L132-.L127)/2
 1697 0050 4001     		.2byte	(.L131-.L127)/2
 1698 0052 5001     		.2byte	(.L130-.L127)/2
 1699 0054 6B01     		.2byte	(.L129-.L127)/2
 1700 0056 7801     		.2byte	(.L128-.L127)/2
 1701 0058 0900     		.2byte	(.L126-.L127)/2
 1702              		.p2align 1
 1703              	.L126:
 245:../../libdaisy/src/hid/disp/graphics_common.h ****                 return {int16_t(other.GetRight() - width_),
 1704              		.loc 16 245 13 view .LVU337
 246:../../libdaisy/src/hid/disp/graphics_common.h ****                         int16_t(y_ + (other.GetCenterY() - GetCenterY())),
 1705              		.loc 16 246 17 view .LVU338
 1706              	.LBB1001:
 1707              	.LBI1001:
  60:../../libdaisy/src/hid/disp/graphics_common.h ****     int16_t GetBottom() const { return y_ + height_; }
 1708              		.loc 16 60 13 view .LVU339
 1709              	.LVL126:
 1710              	.LBB1002:
  60:../../libdaisy/src/hid/disp/graphics_common.h ****     int16_t GetBottom() const { return y_ + height_; }
 1711              		.loc 16 60 32 view .LVU340
  60:../../libdaisy/src/hid/disp/graphics_common.h ****     int16_t GetBottom() const { return y_ + height_; }
 1712              		.loc 16 60 42 is_stmt 0 view .LVU341
 1713 005a 3788     		ldrh	r7, [r6]
 1714 005c B088     		ldrh	r0, [r6, #4]
 1715              	.LBE1002:
 1716              	.LBE1001:
 1717              	.LBB1004:
 1718              	.LBB1005:
  63:../../libdaisy/src/hid/disp/graphics_common.h **** 
 1719              		.loc 16 63 54 view .LVU342
 1720 005e B6F90630 		ldrsh	r3, [r6, #6]
 1721              	.LVL127:
  63:../../libdaisy/src/hid/disp/graphics_common.h **** 
 1722              		.loc 16 63 54 view .LVU343
 1723              	.LBE1005:
 1724              	.LBE1004:
 1725              	.LBB1009:
 1726              	.LBB1003:
  60:../../libdaisy/src/hid/disp/graphics_common.h ****     int16_t GetBottom() const { return y_ + height_; }
 1727              		.loc 16 60 42 view .LVU344
 1728 0062 0744     		add	r7, r7, r0
 1729              	.LBE1003:
 1730              	.LBE1009:
 1731              	.LBB1010:
 1732              	.LBB1006:
  63:../../libdaisy/src/hid/disp/graphics_common.h **** 
 1733              		.loc 16 63 54 view .LVU345
 1734 0064 002B     		cmp	r3, #0
 1735              	.LBE1006:
 1736              	.LBE1010:
 246:../../libdaisy/src/hid/disp/graphics_common.h ****                         int16_t(y_ + (other.GetCenterY() - GetCenterY())),
 1737              		.loc 16 246 50 view .LVU346
 1738 0066 A7EB0207 		sub	r7, r7, r2
 1739 006a BFB2     		uxth	r7, r7
ARM GAS  /tmp/ccoLrWzv.s 			page 64


 1740              	.LBB1011:
 1741              	.LBI1004:
  63:../../libdaisy/src/hid/disp/graphics_common.h **** 
 1742              		.loc 16 63 13 is_stmt 1 view .LVU347
 1743              	.LVL128:
 1744              	.LBB1007:
  63:../../libdaisy/src/hid/disp/graphics_common.h **** 
 1745              		.loc 16 63 34 view .LVU348
  63:../../libdaisy/src/hid/disp/graphics_common.h **** 
 1746              		.loc 16 63 34 is_stmt 0 view .LVU349
 1747              	.LBE1007:
 1748              	.LBE1011:
 1749              	.LBB1012:
 1750              	.LBI1012:
  63:../../libdaisy/src/hid/disp/graphics_common.h **** 
 1751              		.loc 16 63 13 is_stmt 1 view .LVU350
 1752              	.LBB1013:
  63:../../libdaisy/src/hid/disp/graphics_common.h **** 
 1753              		.loc 16 63 34 view .LVU351
 1754              	.LBE1013:
 1755              	.LBE1012:
 1756              	.LBB1014:
 1757              	.LBB1008:
  63:../../libdaisy/src/hid/disp/graphics_common.h **** 
 1758              		.loc 16 63 54 is_stmt 0 view .LVU352
 1759 006c C0F2FC80 		blt	.L199
 1760              	.LVL129:
 1761              	.L142:
  63:../../libdaisy/src/hid/disp/graphics_common.h **** 
 1762              		.loc 16 63 54 view .LVU353
 1763              	.LBE1008:
 1764              	.LBE1014:
 1765              	.LBB1015:
 1766              	.LBB1016:
  63:../../libdaisy/src/hid/disp/graphics_common.h **** 
 1767              		.loc 16 63 44 view .LVU354
 1768 0070 B6F802C0 		ldrh	ip, [r6, #2]
 1769              	.LBE1016:
 1770              	.LBE1015:
 1771              	.LBB1022:
 1772              	.LBB1023:
 1773              	.LBB1024:
  32:../../libdaisy/src/hid/disp/graphics_common.h ****     {
 1774              		.loc 16 32 66 view .LVU355
 1775 0074 0998     		ldr	r0, [sp, #36]
 1776              	.LBE1024:
 1777              	.LBE1023:
 1778              	.LBE1022:
 1779              	.LBB1033:
 1780              	.LBB1017:
  63:../../libdaisy/src/hid/disp/graphics_common.h **** 
 1781              		.loc 16 63 44 view .LVU356
 1782 0076 0CEB6306 		add	r6, ip, r3, asr #1
 1783              	.LVL130:
  63:../../libdaisy/src/hid/disp/graphics_common.h **** 
 1784              		.loc 16 63 44 view .LVU357
 1785              	.LBE1017:
ARM GAS  /tmp/ccoLrWzv.s 			page 65


 1786              	.LBE1033:
 1787              	.LBB1034:
 1788              	.LBB1030:
 1789              	.LBB1027:
  32:../../libdaisy/src/hid/disp/graphics_common.h ****     {
 1790              		.loc 16 32 66 view .LVU358
 1791 007a 0346     		mov	r3, r0
 1792 007c 0780     		strh	r7, [r0]	@ movhi
 1793              	.L197:
  32:../../libdaisy/src/hid/disp/graphics_common.h ****     {
 1794              		.loc 16 32 66 view .LVU359
 1795 007e 8280     		strh	r2, [r0, #4]	@ movhi
 1796 0080 D980     		strh	r1, [r3, #6]	@ movhi
 1797              	.LBE1027:
 1798              	.LBE1030:
 1799              	.LBE1034:
 252:../../libdaisy/src/hid/disp/graphics_common.h ****                         width_,
 1800              		.loc 16 252 58 view .LVU360
 1801 0082 A6EB5101 		sub	r1, r6, r1, lsr #1
 1802 0086 8EB2     		uxth	r6, r1
 1803              	.LVL131:
 1804              	.LBB1035:
 1805              	.LBI1022:
  31:../../libdaisy/src/hid/disp/graphics_common.h ****     : x_(x), y_(y), width_(max(0, width)), height_(max(0, height))
 1806              		.loc 16 31 5 is_stmt 1 view .LVU361
 1807              	.LBB1031:
 1808              	.LBB1028:
  32:../../libdaisy/src/hid/disp/graphics_common.h ****     {
 1809              		.loc 16 32 66 is_stmt 0 view .LVU362
 1810 0088 5E80     		strh	r6, [r3, #2]	@ movhi
 1811              	.LVL132:
 1812              	.LBB1025:
 1813              	.LBI1025:
 1814              		.loc 16 261 13 is_stmt 1 view .LVU363
 1815              		.loc 16 261 13 is_stmt 0 view .LVU364
 1816              	.LBE1025:
 1817              	.LBE1028:
 1818              	.LBE1031:
 1819              	.LBE1035:
 1820              	.LBE1000:
 1821              	.LBE999:
 1822              		.loc 16 261 41 is_stmt 1 view .LVU365
 1823              	.LBB1220:
 1824              	.LBB1205:
 1825              	.LBB1036:
 1826              	.LBB1032:
 1827              	.LBB1029:
 1828              	.LBB1026:
 1829              	.LBI1026:
 1830              		.loc 16 261 13 view .LVU366
 1831              		.loc 16 261 13 is_stmt 0 view .LVU367
 1832              	.LBE1026:
 1833              	.LBE1029:
 1834              	.LBE1032:
 1835              	.LBE1036:
 1836              	.LBE1205:
 1837              	.LBE1220:
ARM GAS  /tmp/ccoLrWzv.s 			page 66


 1838              		.loc 16 261 41 is_stmt 1 view .LVU368
 1839              	.L136:
  56:../../libdaisy/src/hid/disp/graphics_common.h ****     int16_t GetY() const { return y_; }
 1840              		.loc 16 56 28 view .LVU369
  57:../../libdaisy/src/hid/disp/graphics_common.h ****     int16_t GetWidth() const { return width_; }
 1841              		.loc 16 57 28 view .LVU370
 1842              	.LBB1221:
 1843              	.LBI1221:
 171:../../libdaisy/src/hid/disp/display.h ****     {
 1844              		.loc 3 171 10 view .LVU371
 1845              	.LBB1222:
 173:../../libdaisy/src/hid/disp/display.h ****         currentY_ = (y >= Height()) ? Height() - 1 : y;
 1846              		.loc 3 173 9 view .LVU372
 1847 008a B64A     		ldr	r2, .L209
 173:../../libdaisy/src/hid/disp/display.h ****         currentY_ = (y >= Height()) ? Height() - 1 : y;
 1848              		.loc 3 173 33 is_stmt 0 view .LVU373
 1849 008c 2368     		ldr	r3, [r4]
 1850 008e 1146     		mov	r1, r2
 1851 0090 0192     		str	r2, [sp, #4]
 1852 0092 DA68     		ldr	r2, [r3, #12]
 1853 0094 8A42     		cmp	r2, r1
 1854 0096 40F08F81 		bne	.L144
 1855 009a 8020     		movs	r0, #128
 1856              	.LVL133:
 1857              	.L145:
 173:../../libdaisy/src/hid/disp/display.h ****         currentY_ = (y >= Height()) ? Height() - 1 : y;
 1858              		.loc 3 173 19 view .LVU374
 1859 009c B842     		cmp	r0, r7
 1860 009e 05D8     		bhi	.L146
 173:../../libdaisy/src/hid/disp/display.h ****         currentY_ = (y >= Height()) ? Height() - 1 : y;
 1861              		.loc 3 173 44 view .LVU375
 1862 00a0 DA68     		ldr	r2, [r3, #12]
 1863 00a2 0199     		ldr	r1, [sp, #4]
 1864 00a4 8A42     		cmp	r2, r1
 1865 00a6 40F09A81 		bne	.L200
 1866 00aa 7F27     		movs	r7, #127
 1867              	.L146:
 174:../../libdaisy/src/hid/disp/display.h ****     }
 1868              		.loc 3 174 34 view .LVU376
 1869 00ac 9B68     		ldr	r3, [r3, #8]
 1870 00ae AE4A     		ldr	r2, .L209+4
 173:../../libdaisy/src/hid/disp/display.h ****         currentY_ = (y >= Height()) ? Height() - 1 : y;
 1871              		.loc 3 173 19 view .LVU377
 1872 00b0 A780     		strh	r7, [r4, #4]	@ movhi
 174:../../libdaisy/src/hid/disp/display.h ****     }
 1873              		.loc 3 174 9 is_stmt 1 view .LVU378
 1874 00b2 9342     		cmp	r3, r2
 1875 00b4 0392     		str	r2, [sp, #12]
 1876 00b6 40F08A81 		bne	.L176
 174:../../libdaisy/src/hid/disp/display.h ****     }
 1877              		.loc 3 174 34 is_stmt 0 view .LVU379
 1878 00ba 4020     		movs	r0, #64
 1879              	.L148:
 174:../../libdaisy/src/hid/disp/display.h ****     }
 1880              		.loc 3 174 19 view .LVU380
 1881 00bc B042     		cmp	r0, r6
 1882 00be 06D8     		bhi	.L150
ARM GAS  /tmp/ccoLrWzv.s 			page 67


 174:../../libdaisy/src/hid/disp/display.h ****     }
 1883              		.loc 3 174 46 view .LVU381
 1884 00c0 2368     		ldr	r3, [r4]
 1885 00c2 039A     		ldr	r2, [sp, #12]
 1886 00c4 9B68     		ldr	r3, [r3, #8]
 1887 00c6 9342     		cmp	r3, r2
 1888 00c8 40F08481 		bne	.L201
 1889 00cc 3F26     		movs	r6, #63
 1890              	.L150:
 174:../../libdaisy/src/hid/disp/display.h ****     }
 1891              		.loc 3 174 46 view .LVU382
 1892 00ce 6B78     		ldrb	r3, [r5, #1]	@ zero_extendqisi2
 174:../../libdaisy/src/hid/disp/display.h ****     }
 1893              		.loc 3 174 19 view .LVU383
 1894 00d0 E680     		strh	r6, [r4, #6]	@ movhi
 1895              	.LVL134:
 174:../../libdaisy/src/hid/disp/display.h ****     }
 1896              		.loc 3 174 19 view .LVU384
 1897 00d2 0493     		str	r3, [sp, #16]
 1898              	.LBE1222:
 1899              	.LBE1221:
 1900              	.LBB1226:
 1901              	.LBB1227:
 443:../../libdaisy/src/hid/disp/display.h ****         {
 1902              		.loc 3 443 9 view .LVU385
 1903 00d4 98F80060 		ldrb	r6, [r8]	@ zero_extendqisi2
 1904 00d8 6B68     		ldr	r3, [r5, #4]
 1905 00da 95F800B0 		ldrb	fp, [r5]	@ zero_extendqisi2
 1906              	.LVL135:
 443:../../libdaisy/src/hid/disp/display.h ****         {
 1907              		.loc 3 443 9 view .LVU386
 1908 00de 0793     		str	r3, [sp, #28]
 1909              	.LVL136:
 443:../../libdaisy/src/hid/disp/display.h ****         {
 1910              		.loc 3 443 9 view .LVU387
 1911              	.LBE1227:
 1912              	.LBI1226:
 440:../../libdaisy/src/hid/disp/display.h ****     {
 1913              		.loc 3 440 10 is_stmt 1 view .LVU388
 1914              	.LBB1270:
 443:../../libdaisy/src/hid/disp/display.h ****         {
 1915              		.loc 3 443 9 view .LVU389
 1916 00e0 002E     		cmp	r6, #0
 1917 00e2 00F0AD80 		beq	.L122
 1918              	.LVL137:
 1919              	.L152:
 1920              	.LBB1228:
 1921              	.LBI1228:
 396:../../libdaisy/src/hid/disp/display.h ****     {
 1922              		.loc 3 396 10 view .LVU390
 1923              	.LBB1229:
 401:../../libdaisy/src/hid/disp/display.h ****             return 0;
 1924              		.loc 3 401 20 is_stmt 0 view .LVU391
 1925 00e6 A6F12005 		sub	r5, r6, #32
 401:../../libdaisy/src/hid/disp/display.h ****             return 0;
 1926              		.loc 3 401 9 view .LVU392
 1927 00ea EBB2     		uxtb	r3, r5
ARM GAS  /tmp/ccoLrWzv.s 			page 68


 1928 00ec 5E2B     		cmp	r3, #94
 1929 00ee 00F23481 		bhi	.L156
 405:../../libdaisy/src/hid/disp/display.h ****            || Height() < (currentY_ + font.FontHeight))
 1930              		.loc 3 405 17 view .LVU393
 1931 00f2 2368     		ldr	r3, [r4]
 1932 00f4 019A     		ldr	r2, [sp, #4]
 1933 00f6 DB68     		ldr	r3, [r3, #12]
 1934 00f8 9342     		cmp	r3, r2
 1935 00fa 40F03081 		bne	.L202
 1936 00fe 8020     		movs	r0, #128
 1937              	.L155:
 405:../../libdaisy/src/hid/disp/display.h ****            || Height() < (currentY_ + font.FontHeight))
 1938              		.loc 3 405 23 view .LVU394
 1939 0100 A388     		ldrh	r3, [r4, #4]
 405:../../libdaisy/src/hid/disp/display.h ****            || Height() < (currentY_ + font.FontHeight))
 1940              		.loc 3 405 33 view .LVU395
 1941 0102 5B44     		add	r3, r3, fp
 406:../../libdaisy/src/hid/disp/display.h ****         {
 1942              		.loc 3 406 12 view .LVU396
 1943 0104 9842     		cmp	r0, r3
 1944 0106 C0F22881 		blt	.L156
 406:../../libdaisy/src/hid/disp/display.h ****         {
 1945              		.loc 3 406 21 view .LVU397
 1946 010a 2368     		ldr	r3, [r4]
 1947 010c 039A     		ldr	r2, [sp, #12]
 1948 010e 9B68     		ldr	r3, [r3, #8]
 1949 0110 9342     		cmp	r3, r2
 1950 0112 40F02B81 		bne	.L203
 1951 0116 4020     		movs	r0, #64
 1952              	.L157:
 406:../../libdaisy/src/hid/disp/display.h ****         {
 1953              		.loc 3 406 27 view .LVU398
 1954 0118 E188     		ldrh	r1, [r4, #6]
 406:../../libdaisy/src/hid/disp/display.h ****         {
 1955              		.loc 3 406 37 view .LVU399
 1956 011a 049A     		ldr	r2, [sp, #16]
 406:../../libdaisy/src/hid/disp/display.h ****         {
 1957              		.loc 3 406 27 view .LVU400
 1958 011c 0291     		str	r1, [sp, #8]
 406:../../libdaisy/src/hid/disp/display.h ****         {
 1959              		.loc 3 406 37 view .LVU401
 1960 011e 8B18     		adds	r3, r1, r2
 406:../../libdaisy/src/hid/disp/display.h ****         {
 1961              		.loc 3 406 12 view .LVU402
 1962 0120 9842     		cmp	r0, r3
 1963 0122 C0F21A81 		blt	.L156
 1964              	.LVL138:
 413:../../libdaisy/src/hid/disp/display.h ****         {
 1965              		.loc 3 413 22 is_stmt 1 view .LVU403
 1966 0126 1046     		mov	r0, r2
 1967 0128 002A     		cmp	r2, #0
 1968 012a 00F02981 		beq	.L158
 415:../../libdaisy/src/hid/disp/display.h ****             for(j = 0; j < font.FontWidth; j++)
 1969              		.loc 3 415 37 is_stmt 0 view .LVU404
 1970 012e 1346     		mov	r3, r2
 1971 0130 6FF00047 		mvn	r7, #-2147483648
 1972 0134 B4F804C0 		ldrh	ip, [r4, #4]
ARM GAS  /tmp/ccoLrWzv.s 			page 69


 1973 0138 03FB05F3 		mul	r3, r3, r5
 1974 013c 079D     		ldr	r5, [sp, #28]
 1975 013e CDF81880 		str	r8, [sp, #24]
 1976 0142 AA1E     		subs	r2, r5, #2
 1977 0144 1F44     		add	r7, r7, r3
 1978 0146 0344     		add	r3, r3, r0
 1979 0148 DDF82090 		ldr	r9, [sp, #32]
 1980 014c 05EB4707 		add	r7, r5, r7, lsl #1
 1981 0150 0596     		str	r6, [sp, #20]
 1982 0152 02EB4303 		add	r3, r2, r3, lsl #1
 1983 0156 2246     		mov	r2, r4
 1984 0158 5C46     		mov	r4, fp
 1985              	.LVL139:
 415:../../libdaisy/src/hid/disp/display.h ****             for(j = 0; j < font.FontWidth; j++)
 1986              		.loc 3 415 37 view .LVU405
 1987 015a 9846     		mov	r8, r3
 1988              	.LVL140:
 415:../../libdaisy/src/hid/disp/display.h ****             for(j = 0; j < font.FontWidth; j++)
 1989              		.loc 3 415 37 view .LVU406
 1990 015c 9346     		mov	fp, r2
 1991              	.LVL141:
 1992              	.L161:
 415:../../libdaisy/src/hid/disp/display.h ****             for(j = 0; j < font.FontWidth; j++)
 1993              		.loc 3 415 13 view .LVU407
 1994 015e 37F802AF 		ldrh	r10, [r7, #2]!
 1995              	.LVL142:
 416:../../libdaisy/src/hid/disp/display.h ****             {
 1996              		.loc 3 416 26 is_stmt 1 view .LVU408
 1997 0162 A4B3     		cbz	r4, .L166
 1998              	.LBB1230:
 1999              	.LBB1231:
 2000              	.LBB1232:
 2001              	.LBB1233:
 2002              	.LBB1234:
 246:../../libdaisy/src/dev/oled_ssd130x.h ****     }
 2003              		.loc 14 246 49 is_stmt 0 view .LVU409
 2004 0164 0125     		movs	r5, #1
 246:../../libdaisy/src/dev/oled_ssd130x.h ****     }
 2005              		.loc 14 246 55 view .LVU410
 2006 0166 01F00702 		and	r2, r1, #7
 246:../../libdaisy/src/dev/oled_ssd130x.h ****     }
 2007              		.loc 14 246 28 view .LVU411
 2008 016a C808     		lsrs	r0, r1, #3
 2009 016c 0CF11403 		add	r3, ip, #20
 246:../../libdaisy/src/dev/oled_ssd130x.h ****     }
 2010              		.loc 14 246 49 view .LVU412
 2011 0170 05FA02F2 		lsl	r2, r5, r2
 2012 0174 6546     		mov	r5, ip
 2013 0176 03EBC013 		add	r3, r3, r0, lsl #7
 2014              	.LBE1234:
 2015              	.LBE1233:
 2016              	.LBE1232:
 2017              	.LBE1231:
 2018              	.LBE1230:
 416:../../libdaisy/src/hid/disp/display.h ****             {
 2019              		.loc 3 416 19 view .LVU413
 2020 017a 0020     		movs	r0, #0
ARM GAS  /tmp/ccoLrWzv.s 			page 70


 2021              	.LBB1252:
 2022              	.LBB1247:
 2023              	.LBB1242:
 2024              	.LBB1238:
 2025              	.LBB1235:
 246:../../libdaisy/src/dev/oled_ssd130x.h ****     }
 2026              		.loc 14 246 42 view .LVU414
 2027 017c 52B2     		sxtb	r2, r2
 2028 017e 5B44     		add	r3, r3, fp
 2029 0180 6FEA020E 		mvn	lr, r2
 2030 0184 0EE0     		b	.L167
 2031              	.LVL143:
 2032              	.L204:
 246:../../libdaisy/src/dev/oled_ssd130x.h ****     }
 2033              		.loc 14 246 42 view .LVU415
 2034              	.LBE1235:
 2035              	.LBE1238:
 2036              	.LBE1242:
 2037              	.LBE1247:
 2038              	.LBE1252:
 2039              	.LBB1253:
 2040              	.LBI1253:
  41:../../libdaisy/src/hid/disp/oled_display.h ****     {
 2041              		.loc 2 41 10 is_stmt 1 view .LVU416
 2042              	.LBB1254:
 2043              	.LBI1254:
 239:../../libdaisy/src/dev/oled_ssd130x.h ****     {
 2044              		.loc 14 239 10 view .LVU417
 2045              	.LBB1255:
 241:../../libdaisy/src/dev/oled_ssd130x.h ****             return;
 2046              		.loc 14 241 9 is_stmt 0 view .LVU418
 2047 0186 7F2D     		cmp	r5, #127
 2048 0188 07D8     		bhi	.L163
 2049 018a 3F29     		cmp	r1, #63
 2050 018c 05D8     		bhi	.L163
 244:../../libdaisy/src/dev/oled_ssd130x.h ****         else
 2051              		.loc 14 244 42 view .LVU419
 2052 018e 1E78     		ldrb	r6, [r3]	@ zero_extendqisi2
 243:../../libdaisy/src/dev/oled_ssd130x.h ****             buffer_[x + (y / 8) * width] |= (1 << (y % 8));
 2053              		.loc 14 243 9 view .LVU420
 2054 0190 B9F1000F 		cmp	r9, #0
 2055 0194 12D0     		beq	.L165
 2056              	.L198:
 243:../../libdaisy/src/dev/oled_ssd130x.h ****             buffer_[x + (y / 8) * width] |= (1 << (y % 8));
 2057              		.loc 14 243 9 view .LVU421
 2058              	.LBE1255:
 2059              	.LBE1254:
 2060              	.LBE1253:
 2061              	.LBB1256:
 2062              	.LBB1248:
 2063              	.LBB1243:
 244:../../libdaisy/src/dev/oled_ssd130x.h ****         else
 2064              		.loc 14 244 42 view .LVU422
 2065 0196 1643     		orrs	r6, r6, r2
 244:../../libdaisy/src/dev/oled_ssd130x.h ****         else
 2066              		.loc 14 244 13 view .LVU423
 2067 0198 1E70     		strb	r6, [r3]
ARM GAS  /tmp/ccoLrWzv.s 			page 71


 2068              	.L163:
 2069              	.LBE1243:
 2070              	.LBE1248:
 2071              	.LBE1256:
 416:../../libdaisy/src/hid/disp/display.h ****             {
 2072              		.loc 3 416 13 is_stmt 1 view .LVU424
 2073 019a 0130     		adds	r0, r0, #1
 2074              	.LVL144:
 416:../../libdaisy/src/hid/disp/display.h ****             {
 2075              		.loc 3 416 26 view .LVU425
 2076 019c 0133     		adds	r3, r3, #1
 2077 019e 0135     		adds	r5, r5, #1
 2078 01a0 8442     		cmp	r4, r0
 2079 01a2 14D0     		beq	.L166
 2080              	.LVL145:
 2081              	.L167:
 418:../../libdaisy/src/hid/disp/display.h ****                 {
 2082              		.loc 3 418 23 is_stmt 0 view .LVU426
 2083 01a4 0AFA00F6 		lsl	r6, r10, r0
 418:../../libdaisy/src/hid/disp/display.h ****                 {
 2084              		.loc 3 418 17 view .LVU427
 2085 01a8 3604     		lsls	r6, r6, #16
 2086 01aa ECD4     		bmi	.L204
 2087              	.LVL146:
 2088              	.LBB1257:
 2089              	.LBI1230:
  41:../../libdaisy/src/hid/disp/oled_display.h ****     {
 2090              		.loc 2 41 10 is_stmt 1 view .LVU428
 2091              	.LBB1249:
 2092              	.LBI1231:
 239:../../libdaisy/src/dev/oled_ssd130x.h ****     {
 2093              		.loc 14 239 10 view .LVU429
 2094              	.LBB1244:
 241:../../libdaisy/src/dev/oled_ssd130x.h ****             return;
 2095              		.loc 14 241 9 is_stmt 0 view .LVU430
 2096 01ac 7F2D     		cmp	r5, #127
 2097 01ae F4D8     		bhi	.L163
 2098 01b0 3F29     		cmp	r1, #63
 2099 01b2 F2D8     		bhi	.L163
 244:../../libdaisy/src/dev/oled_ssd130x.h ****         else
 2100              		.loc 14 244 42 view .LVU431
 2101 01b4 1E78     		ldrb	r6, [r3]	@ zero_extendqisi2
 243:../../libdaisy/src/dev/oled_ssd130x.h ****             buffer_[x + (y / 8) * width] |= (1 << (y % 8));
 2102              		.loc 14 243 9 view .LVU432
 2103 01b6 B9F1000F 		cmp	r9, #0
 2104 01ba ECD0     		beq	.L198
 2105              	.L165:
 2106              	.LVL147:
 2107              	.LBB1239:
 2108              	.LBI1233:
 239:../../libdaisy/src/dev/oled_ssd130x.h ****     {
 2109              		.loc 14 239 10 is_stmt 1 view .LVU433
 239:../../libdaisy/src/dev/oled_ssd130x.h ****     {
 2110              		.loc 14 239 10 is_stmt 0 view .LVU434
 2111              	.LBE1239:
 2112              	.LBE1244:
 2113              	.LBE1249:
ARM GAS  /tmp/ccoLrWzv.s 			page 72


 2114              	.LBE1257:
 416:../../libdaisy/src/hid/disp/display.h ****             {
 2115              		.loc 3 416 13 view .LVU435
 2116 01bc 0130     		adds	r0, r0, #1
 2117              	.LVL148:
 2118              	.LBB1258:
 2119              	.LBB1250:
 2120              	.LBB1245:
 2121              	.LBB1240:
 2122              	.LBB1236:
 246:../../libdaisy/src/dev/oled_ssd130x.h ****     }
 2123              		.loc 14 246 42 view .LVU436
 2124 01be 0EEA0606 		and	r6, lr, r6
 2125 01c2 0133     		adds	r3, r3, #1
 2126 01c4 0135     		adds	r5, r5, #1
 2127              	.LBE1236:
 2128              	.LBE1240:
 2129              	.LBE1245:
 2130              	.LBE1250:
 2131              	.LBE1258:
 416:../../libdaisy/src/hid/disp/display.h ****             {
 2132              		.loc 3 416 26 view .LVU437
 2133 01c6 8442     		cmp	r4, r0
 2134              	.LBB1259:
 2135              	.LBB1251:
 2136              	.LBB1246:
 2137              	.LBB1241:
 2138              	.LBB1237:
 246:../../libdaisy/src/dev/oled_ssd130x.h ****     }
 2139              		.loc 14 246 13 view .LVU438
 2140 01c8 03F8016C 		strb	r6, [r3, #-1]
 246:../../libdaisy/src/dev/oled_ssd130x.h ****     }
 2141              		.loc 14 246 13 view .LVU439
 2142              	.LBE1237:
 2143              	.LBE1241:
 2144              	.LBE1246:
 2145              	.LBE1251:
 2146              	.LBE1259:
 416:../../libdaisy/src/hid/disp/display.h ****             {
 2147              		.loc 3 416 13 is_stmt 1 view .LVU440
 2148              	.LVL149:
 416:../../libdaisy/src/hid/disp/display.h ****             {
 2149              		.loc 3 416 26 view .LVU441
 2150 01cc EAD1     		bne	.L167
 2151              	.LVL150:
 2152              	.L166:
 413:../../libdaisy/src/hid/disp/display.h ****         {
 2153              		.loc 3 413 9 view .LVU442
 413:../../libdaisy/src/hid/disp/display.h ****         {
 2154              		.loc 3 413 22 view .LVU443
 2155 01ce B845     		cmp	r8, r7
 2156 01d0 01F10101 		add	r1, r1, #1
 2157 01d4 C3D1     		bne	.L161
 2158 01d6 5B46     		mov	r3, fp
 2159 01d8 059E     		ldr	r6, [sp, #20]
 2160 01da A346     		mov	fp, r4
 2161              	.LVL151:
ARM GAS  /tmp/ccoLrWzv.s 			page 73


 413:../../libdaisy/src/hid/disp/display.h ****         {
 2162              		.loc 3 413 22 is_stmt 0 view .LVU444
 2163 01dc DDF81880 		ldr	r8, [sp, #24]
 2164 01e0 1C46     		mov	r4, r3
 2165              	.LVL152:
 2166              	.L160:
 2167              	.LBB1260:
 2168              	.LBB1261:
 173:../../libdaisy/src/hid/disp/display.h ****         currentY_ = (y >= Height()) ? Height() - 1 : y;
 2169              		.loc 3 173 33 view .LVU445
 2170 01e2 2268     		ldr	r2, [r4]
 2171              	.LBE1261:
 2172              	.LBE1260:
 434:../../libdaisy/src/hid/disp/display.h **** 
 2173              		.loc 3 434 18 view .LVU446
 2174 01e4 DC44     		add	ip, ip, fp
 2175 01e6 0199     		ldr	r1, [sp, #4]
 2176              	.LBB1265:
 2177              	.LBB1262:
 173:../../libdaisy/src/hid/disp/display.h ****         currentY_ = (y >= Height()) ? Height() - 1 : y;
 2178              		.loc 3 173 33 view .LVU447
 2179 01e8 D368     		ldr	r3, [r2, #12]
 2180              	.LBE1262:
 2181              	.LBE1265:
 434:../../libdaisy/src/hid/disp/display.h **** 
 2182              		.loc 3 434 18 view .LVU448
 2183 01ea 1FFA8CF5 		uxth	r5, ip
 2184              	.LVL153:
 2185              	.LBB1266:
 2186              	.LBI1260:
 171:../../libdaisy/src/hid/disp/display.h ****     {
 2187              		.loc 3 171 10 is_stmt 1 view .LVU449
 2188              	.LBB1263:
 173:../../libdaisy/src/hid/disp/display.h ****         currentY_ = (y >= Height()) ? Height() - 1 : y;
 2189              		.loc 3 173 9 view .LVU450
 2190 01ee 8B42     		cmp	r3, r1
 2191 01f0 40F0C280 		bne	.L205
 173:../../libdaisy/src/hid/disp/display.h ****         currentY_ = (y >= Height()) ? Height() - 1 : y;
 2192              		.loc 3 173 33 is_stmt 0 view .LVU451
 2193 01f4 8020     		movs	r0, #128
 2194              	.L168:
 173:../../libdaisy/src/hid/disp/display.h ****         currentY_ = (y >= Height()) ? Height() - 1 : y;
 2195              		.loc 3 173 19 view .LVU452
 2196 01f6 8542     		cmp	r5, r0
 2197 01f8 05D3     		bcc	.L169
 173:../../libdaisy/src/hid/disp/display.h ****         currentY_ = (y >= Height()) ? Height() - 1 : y;
 2198              		.loc 3 173 44 view .LVU453
 2199 01fa D368     		ldr	r3, [r2, #12]
 2200 01fc 0199     		ldr	r1, [sp, #4]
 2201 01fe 8B42     		cmp	r3, r1
 2202 0200 40F0C780 		bne	.L206
 2203 0204 7F25     		movs	r5, #127
 2204              	.LVL154:
 2205              	.L169:
 174:../../libdaisy/src/hid/disp/display.h ****     }
 2206              		.loc 3 174 34 view .LVU454
 2207 0206 9368     		ldr	r3, [r2, #8]
ARM GAS  /tmp/ccoLrWzv.s 			page 74


 2208 0208 039A     		ldr	r2, [sp, #12]
 173:../../libdaisy/src/hid/disp/display.h ****         currentY_ = (y >= Height()) ? Height() - 1 : y;
 2209              		.loc 3 173 19 view .LVU455
 2210 020a A580     		strh	r5, [r4, #4]	@ movhi
 174:../../libdaisy/src/hid/disp/display.h ****     }
 2211              		.loc 3 174 9 is_stmt 1 view .LVU456
 2212 020c 9342     		cmp	r3, r2
 2213 020e 40F0B080 		bne	.L207
 174:../../libdaisy/src/hid/disp/display.h ****     }
 2214              		.loc 3 174 34 is_stmt 0 view .LVU457
 2215 0212 4020     		movs	r0, #64
 2216              	.L171:
 174:../../libdaisy/src/hid/disp/display.h ****     }
 2217              		.loc 3 174 19 view .LVU458
 2218 0214 029B     		ldr	r3, [sp, #8]
 2219 0216 8342     		cmp	r3, r0
 2220 0218 07D3     		bcc	.L172
 174:../../libdaisy/src/hid/disp/display.h ****     }
 2221              		.loc 3 174 46 view .LVU459
 2222 021a 2368     		ldr	r3, [r4]
 2223 021c 039A     		ldr	r2, [sp, #12]
 2224 021e 9B68     		ldr	r3, [r3, #8]
 2225 0220 9342     		cmp	r3, r2
 2226 0222 40F0B080 		bne	.L208
 2227 0226 3F23     		movs	r3, #63
 2228 0228 0293     		str	r3, [sp, #8]
 2229              	.LVL155:
 2230              	.L172:
 174:../../libdaisy/src/hid/disp/display.h ****     }
 2231              		.loc 3 174 19 view .LVU460
 2232 022a 029B     		ldr	r3, [sp, #8]
 2233 022c E380     		strh	r3, [r4, #6]	@ movhi
 2234              	.LVL156:
 2235              	.L154:
 174:../../libdaisy/src/hid/disp/display.h ****     }
 2236              		.loc 3 174 19 view .LVU461
 2237              	.LBE1263:
 2238              	.LBE1266:
 2239              	.LBE1229:
 2240              	.LBE1228:
 445:../../libdaisy/src/hid/disp/display.h ****                != *str)
 2241              		.loc 3 445 13 view .LVU462
 2242 022e 98F80030 		ldrb	r3, [r8]	@ zero_extendqisi2
 2243 0232 B342     		cmp	r3, r6
 2244 0234 04D1     		bne	.L122
 2245              	.LVL157:
 443:../../libdaisy/src/hid/disp/display.h ****         {
 2246              		.loc 3 443 9 is_stmt 1 view .LVU463
 2247 0236 18F8016F 		ldrb	r6, [r8, #1]!	@ zero_extendqisi2
 2248              	.LVL158:
 443:../../libdaisy/src/hid/disp/display.h ****         {
 2249              		.loc 3 443 9 is_stmt 0 view .LVU464
 2250 023a 002E     		cmp	r6, #0
 2251 023c 7FF453AF 		bne	.L152
 2252              	.LVL159:
 2253              	.L122:
 443:../../libdaisy/src/hid/disp/display.h ****         {
ARM GAS  /tmp/ccoLrWzv.s 			page 75


 2254              		.loc 3 443 9 view .LVU465
 2255              	.LBE1270:
 2256              	.LBE1226:
 471:../../libdaisy/src/hid/disp/display.h **** 
 2257              		.loc 3 471 5 view .LVU466
 2258 0240 0998     		ldr	r0, [sp, #36]
 2259 0242 0BB0     		add	sp, sp, #44
 2260              		.cfi_remember_state
 2261              		.cfi_def_cfa_offset 36
 2262              		@ sp needed
 2263 0244 BDE8F08F 		pop	{r4, r5, r6, r7, r8, r9, r10, fp, pc}
 2264              	.LVL160:
 2265              	.L135:
 2266              		.cfi_restore_state
 2267              	.LBB1272:
 2268              	.LBB1206:
 250:../../libdaisy/src/hid/disp/graphics_common.h ****                 return {int16_t(x_ + (other.GetCenterX() - GetCenterX())),
 2269              		.loc 16 250 13 is_stmt 1 view .LVU467
 251:../../libdaisy/src/hid/disp/graphics_common.h ****                         int16_t(y_ + (other.GetCenterY() - GetCenterY())),
 2270              		.loc 16 251 17 view .LVU468
 2271              	.LBB1037:
 2272              	.LBI1037:
  62:../../libdaisy/src/hid/disp/graphics_common.h ****     int16_t GetCenterY() const { return y_ + height_ / 2; }
 2273              		.loc 16 62 13 view .LVU469
 2274              	.LBB1038:
  62:../../libdaisy/src/hid/disp/graphics_common.h ****     int16_t GetCenterY() const { return y_ + height_ / 2; }
 2275              		.loc 16 62 34 view .LVU470
  62:../../libdaisy/src/hid/disp/graphics_common.h ****     int16_t GetCenterY() const { return y_ + height_ / 2; }
 2276              		.loc 16 62 34 is_stmt 0 view .LVU471
 2277              	.LBE1038:
 2278              	.LBE1037:
 2279              	.LBB1042:
 2280              	.LBI1042:
  62:../../libdaisy/src/hid/disp/graphics_common.h ****     int16_t GetCenterY() const { return y_ + height_ / 2; }
 2281              		.loc 16 62 13 is_stmt 1 view .LVU472
 2282              	.LBB1043:
  62:../../libdaisy/src/hid/disp/graphics_common.h ****     int16_t GetCenterY() const { return y_ + height_ / 2; }
 2283              		.loc 16 62 34 view .LVU473
 2284              	.LBE1043:
 2285              	.LBE1042:
 2286              	.LBB1044:
 2287              	.LBB1039:
  62:../../libdaisy/src/hid/disp/graphics_common.h ****     int16_t GetCenterY() const { return y_ + height_ / 2; }
 2288              		.loc 16 62 53 is_stmt 0 view .LVU474
 2289 0248 B6F90400 		ldrsh	r0, [r6, #4]
  62:../../libdaisy/src/hid/disp/graphics_common.h ****     int16_t GetCenterY() const { return y_ + height_ / 2; }
 2290              		.loc 16 62 44 view .LVU475
 2291 024c 3788     		ldrh	r7, [r6]
  62:../../libdaisy/src/hid/disp/graphics_common.h ****     int16_t GetCenterY() const { return y_ + height_ / 2; }
 2292              		.loc 16 62 53 view .LVU476
 2293 024e 0028     		cmp	r0, #0
 2294              	.LBE1039:
 2295              	.LBE1044:
 2296              	.LBB1045:
 2297              	.LBB1018:
  63:../../libdaisy/src/hid/disp/graphics_common.h **** 
 2298              		.loc 16 63 54 view .LVU477
ARM GAS  /tmp/ccoLrWzv.s 			page 76


 2299 0250 B6F90630 		ldrsh	r3, [r6, #6]
 2300              	.LVL161:
  63:../../libdaisy/src/hid/disp/graphics_common.h **** 
 2301              		.loc 16 63 54 view .LVU478
 2302              	.LBE1018:
 2303              	.LBE1045:
 2304              	.LBB1046:
 2305              	.LBB1040:
  62:../../libdaisy/src/hid/disp/graphics_common.h ****     int16_t GetCenterY() const { return y_ + height_ / 2; }
 2306              		.loc 16 62 53 view .LVU479
 2307 0254 B8BF     		it	lt
 2308 0256 0130     		addlt	r0, r0, #1
 2309              	.LBE1040:
 2310              	.LBE1046:
 2311              	.LBB1047:
 2312              	.LBB1019:
  63:../../libdaisy/src/hid/disp/graphics_common.h **** 
 2313              		.loc 16 63 54 view .LVU480
 2314 0258 002B     		cmp	r3, #0
 2315              	.LBE1019:
 2316              	.LBE1047:
 2317              	.LBB1048:
 2318              	.LBB1041:
  62:../../libdaisy/src/hid/disp/graphics_common.h ****     int16_t GetCenterY() const { return y_ + height_ / 2; }
 2319              		.loc 16 62 44 view .LVU481
 2320 025a 07EB6007 		add	r7, r7, r0, asr #1
 2321              	.LBE1041:
 2322              	.LBE1048:
 251:../../libdaisy/src/hid/disp/graphics_common.h ****                         int16_t(y_ + (other.GetCenterY() - GetCenterY())),
 2323              		.loc 16 251 58 view .LVU482
 2324 025e A7EB6207 		sub	r7, r7, r2, asr #1
 2325 0262 BFB2     		uxth	r7, r7
 2326              	.LBB1049:
 2327              	.LBI1015:
  63:../../libdaisy/src/hid/disp/graphics_common.h **** 
 2328              		.loc 16 63 13 is_stmt 1 view .LVU483
 2329              	.LVL162:
 2330              	.LBB1020:
  63:../../libdaisy/src/hid/disp/graphics_common.h **** 
 2331              		.loc 16 63 34 view .LVU484
  63:../../libdaisy/src/hid/disp/graphics_common.h **** 
 2332              		.loc 16 63 34 is_stmt 0 view .LVU485
 2333              	.LBE1020:
 2334              	.LBE1049:
 2335              	.LBB1050:
 2336              	.LBI1050:
  63:../../libdaisy/src/hid/disp/graphics_common.h **** 
 2337              		.loc 16 63 13 is_stmt 1 view .LVU486
 2338              	.LBB1051:
  63:../../libdaisy/src/hid/disp/graphics_common.h **** 
 2339              		.loc 16 63 34 view .LVU487
 2340              	.LBE1051:
 2341              	.LBE1050:
 2342              	.LBB1052:
 2343              	.LBB1021:
  63:../../libdaisy/src/hid/disp/graphics_common.h **** 
 2344              		.loc 16 63 54 is_stmt 0 view .LVU488
ARM GAS  /tmp/ccoLrWzv.s 			page 77


 2345 0264 BFF604AF 		bge	.L142
 2346              	.LVL163:
 2347              	.L199:
  63:../../libdaisy/src/hid/disp/graphics_common.h **** 
 2348              		.loc 16 63 54 view .LVU489
 2349 0268 0133     		adds	r3, r3, #1
 2350 026a 01E7     		b	.L142
 2351              	.LVL164:
 2352              	.L134:
  63:../../libdaisy/src/hid/disp/graphics_common.h **** 
 2353              		.loc 16 63 54 view .LVU490
 2354              	.LBE1021:
 2355              	.LBE1052:
 213:../../libdaisy/src/hid/disp/graphics_common.h ****                 return {other.x_, other.y_, width_, height_};
 2356              		.loc 16 213 13 is_stmt 1 view .LVU491
 214:../../libdaisy/src/hid/disp/graphics_common.h ****             case Alignment::topRight:
 2357              		.loc 16 214 17 view .LVU492
 214:../../libdaisy/src/hid/disp/graphics_common.h ****             case Alignment::topRight:
 2358              		.loc 16 214 31 is_stmt 0 view .LVU493
 2359 026c B6F90070 		ldrsh	r7, [r6]
 2360              	.LBB1053:
 2361              	.LBB1054:
 2362              	.LBB1055:
  32:../../libdaisy/src/hid/disp/graphics_common.h ****     {
 2363              		.loc 16 32 66 view .LVU494
 2364 0270 099B     		ldr	r3, [sp, #36]
 2365              	.LVL165:
  32:../../libdaisy/src/hid/disp/graphics_common.h ****     {
 2366              		.loc 16 32 66 view .LVU495
 2367              	.LBE1055:
 2368              	.LBE1054:
 2369              	.LBE1053:
 214:../../libdaisy/src/hid/disp/graphics_common.h ****             case Alignment::topRight:
 2370              		.loc 16 214 41 view .LVU496
 2371 0272 B6F90260 		ldrsh	r6, [r6, #2]
 2372              	.LVL166:
 2373              	.LBB1064:
 2374              	.LBI1053:
  31:../../libdaisy/src/hid/disp/graphics_common.h ****     : x_(x), y_(y), width_(max(0, width)), height_(max(0, height))
 2375              		.loc 16 31 5 is_stmt 1 view .LVU497
 2376              	.LBB1061:
 2377              	.LBB1058:
  32:../../libdaisy/src/hid/disp/graphics_common.h ****     {
 2378              		.loc 16 32 66 is_stmt 0 view .LVU498
 2379 0276 1F80     		strh	r7, [r3]	@ movhi
 2380 0278 BFB2     		uxth	r7, r7
 2381              	.LVL167:
  32:../../libdaisy/src/hid/disp/graphics_common.h ****     {
 2382              		.loc 16 32 66 view .LVU499
 2383 027a 5E80     		strh	r6, [r3, #2]	@ movhi
 2384              	.LVL168:
 2385              	.LBB1056:
 2386              	.LBI1056:
 2387              		.loc 16 261 13 is_stmt 1 view .LVU500
 2388              		.loc 16 261 13 is_stmt 0 view .LVU501
 2389              	.LBE1056:
 2390              	.LBE1058:
ARM GAS  /tmp/ccoLrWzv.s 			page 78


 2391              	.LBE1061:
 2392              	.LBE1064:
 2393              	.LBE1206:
 2394              	.LBE1272:
 2395              		.loc 16 261 41 is_stmt 1 view .LVU502
 2396              		.loc 16 261 41 is_stmt 0 view .LVU503
 2397 027c B6B2     		uxth	r6, r6
 2398              	.LVL169:
 2399              	.LBB1273:
 2400              	.LBB1207:
 2401              	.LBB1065:
 2402              	.LBB1062:
 2403              	.LBB1059:
  32:../../libdaisy/src/hid/disp/graphics_common.h ****     {
 2404              		.loc 16 32 66 view .LVU504
 2405 027e 9A80     		strh	r2, [r3, #4]	@ movhi
 2406              	.LVL170:
 2407              	.LBB1057:
 2408              	.LBI1057:
 2409              		.loc 16 261 13 is_stmt 1 view .LVU505
 2410              		.loc 16 261 13 is_stmt 0 view .LVU506
 2411              	.LBE1057:
 2412              	.LBE1059:
 2413              	.LBE1062:
 2414              	.LBE1065:
 2415              	.LBE1207:
 2416              	.LBE1273:
 2417              		.loc 16 261 41 is_stmt 1 view .LVU507
 2418              	.LBB1274:
 2419              	.LBB1208:
 2420              	.LBB1066:
 2421              	.LBB1063:
 2422              	.LBB1060:
  32:../../libdaisy/src/hid/disp/graphics_common.h ****     {
 2423              		.loc 16 32 66 is_stmt 0 view .LVU508
 2424 0280 D980     		strh	r1, [r3, #6]	@ movhi
 2425              	.LBE1060:
  34:../../libdaisy/src/hid/disp/graphics_common.h **** 
 2426              		.loc 16 34 5 view .LVU509
 2427 0282 02E7     		b	.L136
 2428              	.LVL171:
 2429              	.L133:
  34:../../libdaisy/src/hid/disp/graphics_common.h **** 
 2430              		.loc 16 34 5 view .LVU510
 2431              	.LBE1063:
 2432              	.LBE1066:
 220:../../libdaisy/src/hid/disp/graphics_common.h ****                 return {int16_t(x_ + (other.GetCenterX() - GetCenterX())),
 2433              		.loc 16 220 13 is_stmt 1 view .LVU511
 221:../../libdaisy/src/hid/disp/graphics_common.h ****                         other.y_,
 2434              		.loc 16 221 17 view .LVU512
 2435              	.LBB1067:
 2436              	.LBI1067:
  62:../../libdaisy/src/hid/disp/graphics_common.h ****     int16_t GetCenterY() const { return y_ + height_ / 2; }
 2437              		.loc 16 62 13 view .LVU513
 2438              	.LBB1068:
  62:../../libdaisy/src/hid/disp/graphics_common.h ****     int16_t GetCenterY() const { return y_ + height_ / 2; }
 2439              		.loc 16 62 34 view .LVU514
ARM GAS  /tmp/ccoLrWzv.s 			page 79


  62:../../libdaisy/src/hid/disp/graphics_common.h ****     int16_t GetCenterY() const { return y_ + height_ / 2; }
 2440              		.loc 16 62 34 is_stmt 0 view .LVU515
 2441              	.LBE1068:
 2442              	.LBE1067:
 2443              	.LBB1071:
 2444              	.LBI1071:
  62:../../libdaisy/src/hid/disp/graphics_common.h ****     int16_t GetCenterY() const { return y_ + height_ / 2; }
 2445              		.loc 16 62 13 is_stmt 1 view .LVU516
 2446              	.LBB1072:
  62:../../libdaisy/src/hid/disp/graphics_common.h ****     int16_t GetCenterY() const { return y_ + height_ / 2; }
 2447              		.loc 16 62 34 view .LVU517
 2448              	.LBE1072:
 2449              	.LBE1071:
 2450              	.LBB1073:
 2451              	.LBB1069:
  62:../../libdaisy/src/hid/disp/graphics_common.h ****     int16_t GetCenterY() const { return y_ + height_ / 2; }
 2452              		.loc 16 62 53 is_stmt 0 view .LVU518
 2453 0284 B6F90430 		ldrsh	r3, [r6, #4]
 2454              	.LVL172:
  62:../../libdaisy/src/hid/disp/graphics_common.h ****     int16_t GetCenterY() const { return y_ + height_ / 2; }
 2455              		.loc 16 62 44 view .LVU519
 2456 0288 3788     		ldrh	r7, [r6]
  62:../../libdaisy/src/hid/disp/graphics_common.h ****     int16_t GetCenterY() const { return y_ + height_ / 2; }
 2457              		.loc 16 62 53 view .LVU520
 2458 028a 002B     		cmp	r3, #0
 2459              	.LBE1069:
 2460              	.LBE1073:
 222:../../libdaisy/src/hid/disp/graphics_common.h ****                         width_,
 2461              		.loc 16 222 31 view .LVU521
 2462 028c B6F90260 		ldrsh	r6, [r6, #2]
 2463              	.LVL173:
 2464              	.LBB1074:
 2465              	.LBB1070:
  62:../../libdaisy/src/hid/disp/graphics_common.h ****     int16_t GetCenterY() const { return y_ + height_ / 2; }
 2466              		.loc 16 62 53 view .LVU522
 2467 0290 B8BF     		it	lt
 2468 0292 0133     		addlt	r3, r3, #1
  62:../../libdaisy/src/hid/disp/graphics_common.h ****     int16_t GetCenterY() const { return y_ + height_ / 2; }
 2469              		.loc 16 62 44 view .LVU523
 2470 0294 07EB6307 		add	r7, r7, r3, asr #1
 2471              	.LBE1070:
 2472              	.LBE1074:
 2473              	.LBB1075:
 2474              	.LBB1076:
 2475              	.LBB1077:
  32:../../libdaisy/src/hid/disp/graphics_common.h ****     {
 2476              		.loc 16 32 66 view .LVU524
 2477 0298 099B     		ldr	r3, [sp, #36]
 2478 029a 9A80     		strh	r2, [r3, #4]	@ movhi
 2479              	.LBE1077:
 2480              	.LBE1076:
 2481              	.LBE1075:
 221:../../libdaisy/src/hid/disp/graphics_common.h ****                         other.y_,
 2482              		.loc 16 221 58 view .LVU525
 2483 029c A7EB6202 		sub	r2, r7, r2, asr #1
 2484              	.LBB1088:
 2485              	.LBB1084:
ARM GAS  /tmp/ccoLrWzv.s 			page 80


 2486              	.LBB1080:
  32:../../libdaisy/src/hid/disp/graphics_common.h ****     {
 2487              		.loc 16 32 66 view .LVU526
 2488 02a0 5E80     		strh	r6, [r3, #2]	@ movhi
 2489 02a2 B6B2     		uxth	r6, r6
 2490              	.LBE1080:
 2491              	.LBE1084:
 2492              	.LBE1088:
 221:../../libdaisy/src/hid/disp/graphics_common.h ****                         other.y_,
 2493              		.loc 16 221 58 view .LVU527
 2494 02a4 97B2     		uxth	r7, r2
 2495              	.LVL174:
 2496              	.LBB1089:
 2497              	.LBI1075:
  31:../../libdaisy/src/hid/disp/graphics_common.h ****     : x_(x), y_(y), width_(max(0, width)), height_(max(0, height))
 2498              		.loc 16 31 5 is_stmt 1 view .LVU528
 2499              	.LBB1085:
 2500              	.LBB1081:
 2501              	.LBB1078:
 2502              	.LBI1078:
 2503              		.loc 16 261 13 view .LVU529
 2504              		.loc 16 261 13 is_stmt 0 view .LVU530
 2505              	.LBE1078:
 2506              	.LBE1081:
 2507              	.LBE1085:
 2508              	.LBE1089:
 2509              	.LBE1208:
 2510              	.LBE1274:
 2511              		.loc 16 261 41 is_stmt 1 view .LVU531
 2512              	.LBB1275:
 2513              	.LBB1209:
 2514              	.LBB1090:
 2515              	.LBB1086:
 2516              	.LBB1082:
 2517              	.LBB1079:
 2518              	.LBI1079:
 2519              		.loc 16 261 13 view .LVU532
 2520              		.loc 16 261 13 is_stmt 0 view .LVU533
 2521              	.LBE1079:
 2522              	.LBE1082:
 2523              	.LBE1086:
 2524              	.LBE1090:
 2525              	.LBE1209:
 2526              	.LBE1275:
 2527              		.loc 16 261 41 is_stmt 1 view .LVU534
 2528              	.LBB1276:
 2529              	.LBB1210:
 2530              	.LBB1091:
 2531              	.LBB1087:
 2532              	.LBB1083:
  32:../../libdaisy/src/hid/disp/graphics_common.h ****     {
 2533              		.loc 16 32 66 is_stmt 0 view .LVU535
 2534 02a6 D980     		strh	r1, [r3, #6]	@ movhi
 2535 02a8 1F80     		strh	r7, [r3]	@ movhi
 2536              	.LBE1083:
  34:../../libdaisy/src/hid/disp/graphics_common.h **** 
 2537              		.loc 16 34 5 view .LVU536
ARM GAS  /tmp/ccoLrWzv.s 			page 81


 2538 02aa EEE6     		b	.L136
 2539              	.LVL175:
 2540              	.L132:
  34:../../libdaisy/src/hid/disp/graphics_common.h **** 
 2541              		.loc 16 34 5 view .LVU537
 2542              	.LBE1087:
 2543              	.LBE1091:
 215:../../libdaisy/src/hid/disp/graphics_common.h ****                 return {int16_t(other.GetRight() - width_),
 2544              		.loc 16 215 13 is_stmt 1 view .LVU538
 216:../../libdaisy/src/hid/disp/graphics_common.h ****                         other.y_,
 2545              		.loc 16 216 17 view .LVU539
 2546              	.LBB1092:
 2547              	.LBI1092:
  60:../../libdaisy/src/hid/disp/graphics_common.h ****     int16_t GetBottom() const { return y_ + height_; }
 2548              		.loc 16 60 13 view .LVU540
 2549              	.LBB1093:
  60:../../libdaisy/src/hid/disp/graphics_common.h ****     int16_t GetBottom() const { return y_ + height_; }
 2550              		.loc 16 60 32 view .LVU541
  60:../../libdaisy/src/hid/disp/graphics_common.h ****     int16_t GetBottom() const { return y_ + height_; }
 2551              		.loc 16 60 42 is_stmt 0 view .LVU542
 2552 02ac B388     		ldrh	r3, [r6, #4]
 2553              	.LVL176:
  60:../../libdaisy/src/hid/disp/graphics_common.h ****     int16_t GetBottom() const { return y_ + height_; }
 2554              		.loc 16 60 42 view .LVU543
 2555 02ae 3788     		ldrh	r7, [r6]
 2556              	.LBE1093:
 2557              	.LBE1092:
 217:../../libdaisy/src/hid/disp/graphics_common.h ****                         width_,
 2558              		.loc 16 217 31 view .LVU544
 2559 02b0 B6F90260 		ldrsh	r6, [r6, #2]
 2560              	.LVL177:
 2561              	.LBB1095:
 2562              	.LBB1094:
  60:../../libdaisy/src/hid/disp/graphics_common.h ****     int16_t GetBottom() const { return y_ + height_; }
 2563              		.loc 16 60 42 view .LVU545
 2564 02b4 1F44     		add	r7, r7, r3
 2565              	.LBE1094:
 2566              	.LBE1095:
 2567              	.LBB1096:
 2568              	.LBB1097:
 2569              	.LBB1098:
  32:../../libdaisy/src/hid/disp/graphics_common.h ****     {
 2570              		.loc 16 32 66 view .LVU546
 2571 02b6 099B     		ldr	r3, [sp, #36]
 2572 02b8 9A80     		strh	r2, [r3, #4]	@ movhi
 2573              	.LBE1098:
 2574              	.LBE1097:
 2575              	.LBE1096:
 216:../../libdaisy/src/hid/disp/graphics_common.h ****                         other.y_,
 2576              		.loc 16 216 50 view .LVU547
 2577 02ba BA1A     		subs	r2, r7, r2
 2578              	.LBB1109:
 2579              	.LBB1105:
 2580              	.LBB1101:
  32:../../libdaisy/src/hid/disp/graphics_common.h ****     {
 2581              		.loc 16 32 66 view .LVU548
 2582 02bc 5E80     		strh	r6, [r3, #2]	@ movhi
ARM GAS  /tmp/ccoLrWzv.s 			page 82


 2583 02be B6B2     		uxth	r6, r6
 2584              	.LBE1101:
 2585              	.LBE1105:
 2586              	.LBE1109:
 216:../../libdaisy/src/hid/disp/graphics_common.h ****                         other.y_,
 2587              		.loc 16 216 50 view .LVU549
 2588 02c0 97B2     		uxth	r7, r2
 2589              	.LVL178:
 2590              	.LBB1110:
 2591              	.LBI1096:
  31:../../libdaisy/src/hid/disp/graphics_common.h ****     : x_(x), y_(y), width_(max(0, width)), height_(max(0, height))
 2592              		.loc 16 31 5 is_stmt 1 view .LVU550
 2593              	.LBB1106:
 2594              	.LBB1102:
 2595              	.LBB1099:
 2596              	.LBI1099:
 2597              		.loc 16 261 13 view .LVU551
 2598              		.loc 16 261 13 is_stmt 0 view .LVU552
 2599              	.LBE1099:
 2600              	.LBE1102:
 2601              	.LBE1106:
 2602              	.LBE1110:
 2603              	.LBE1210:
 2604              	.LBE1276:
 2605              		.loc 16 261 41 is_stmt 1 view .LVU553
 2606              	.LBB1277:
 2607              	.LBB1211:
 2608              	.LBB1111:
 2609              	.LBB1107:
 2610              	.LBB1103:
 2611              	.LBB1100:
 2612              	.LBI1100:
 2613              		.loc 16 261 13 view .LVU554
 2614              		.loc 16 261 13 is_stmt 0 view .LVU555
 2615              	.LBE1100:
 2616              	.LBE1103:
 2617              	.LBE1107:
 2618              	.LBE1111:
 2619              	.LBE1211:
 2620              	.LBE1277:
 2621              		.loc 16 261 41 is_stmt 1 view .LVU556
 2622              	.LBB1278:
 2623              	.LBB1212:
 2624              	.LBB1112:
 2625              	.LBB1108:
 2626              	.LBB1104:
  32:../../libdaisy/src/hid/disp/graphics_common.h ****     {
 2627              		.loc 16 32 66 is_stmt 0 view .LVU557
 2628 02c2 D980     		strh	r1, [r3, #6]	@ movhi
 2629 02c4 1F80     		strh	r7, [r3]	@ movhi
 2630              	.LBE1104:
  34:../../libdaisy/src/hid/disp/graphics_common.h **** 
 2631              		.loc 16 34 5 view .LVU558
 2632 02c6 E0E6     		b	.L136
 2633              	.LVL179:
 2634              	.L131:
  34:../../libdaisy/src/hid/disp/graphics_common.h **** 
ARM GAS  /tmp/ccoLrWzv.s 			page 83


 2635              		.loc 16 34 5 view .LVU559
 2636              	.LBE1108:
 2637              	.LBE1112:
 225:../../libdaisy/src/hid/disp/graphics_common.h ****                 return {other.x_,
 2638              		.loc 16 225 13 is_stmt 1 view .LVU560
 226:../../libdaisy/src/hid/disp/graphics_common.h ****                         int16_t(other.GetBottom() - height_),
 2639              		.loc 16 226 17 view .LVU561
 2640              	.LBB1113:
 2641              	.LBB1114:
  61:../../libdaisy/src/hid/disp/graphics_common.h ****     int16_t GetCenterX() const { return x_ + width_ / 2; }
 2642              		.loc 16 61 43 is_stmt 0 view .LVU562
 2643 02c8 7388     		ldrh	r3, [r6, #2]
 2644              	.LVL180:
  61:../../libdaisy/src/hid/disp/graphics_common.h ****     int16_t GetCenterX() const { return x_ + width_ / 2; }
 2645              		.loc 16 61 43 view .LVU563
 2646 02ca B6F806C0 		ldrh	ip, [r6, #6]
 2647              	.LBE1114:
 2648              	.LBE1113:
 226:../../libdaisy/src/hid/disp/graphics_common.h ****                         int16_t(other.GetBottom() - height_),
 2649              		.loc 16 226 31 view .LVU564
 2650 02ce B6F90070 		ldrsh	r7, [r6]
 2651              	.LBB1116:
 2652              	.LBI1113:
  61:../../libdaisy/src/hid/disp/graphics_common.h ****     int16_t GetCenterX() const { return x_ + width_ / 2; }
 2653              		.loc 16 61 13 is_stmt 1 view .LVU565
 2654              	.LVL181:
 2655              	.LBB1115:
  61:../../libdaisy/src/hid/disp/graphics_common.h ****     int16_t GetCenterX() const { return x_ + width_ / 2; }
 2656              		.loc 16 61 33 view .LVU566
  61:../../libdaisy/src/hid/disp/graphics_common.h ****     int16_t GetCenterX() const { return x_ + width_ / 2; }
 2657              		.loc 16 61 43 is_stmt 0 view .LVU567
 2658 02d2 9C44     		add	ip, ip, r3
 2659              	.LBE1115:
 2660              	.LBE1116:
 2661              	.LBB1117:
 2662              	.LBB1118:
 2663              	.LBB1119:
  32:../../libdaisy/src/hid/disp/graphics_common.h ****     {
 2664              		.loc 16 32 66 view .LVU568
 2665 02d4 099B     		ldr	r3, [sp, #36]
 2666              	.LBE1119:
 2667              	.LBE1118:
 2668              	.LBE1117:
 227:../../libdaisy/src/hid/disp/graphics_common.h ****                         width_,
 2669              		.loc 16 227 51 view .LVU569
 2670 02d6 ACEB0000 		sub	r0, ip, r0
 2671              	.LBB1129:
 2672              	.LBB1125:
 2673              	.LBB1122:
  32:../../libdaisy/src/hid/disp/graphics_common.h ****     {
 2674              		.loc 16 32 66 view .LVU570
 2675 02da 1F80     		strh	r7, [r3]	@ movhi
 2676 02dc 9A80     		strh	r2, [r3, #4]	@ movhi
 2677 02de BFB2     		uxth	r7, r7
 2678              	.LBE1122:
 2679              	.LBE1125:
 2680              	.LBE1129:
ARM GAS  /tmp/ccoLrWzv.s 			page 84


 227:../../libdaisy/src/hid/disp/graphics_common.h ****                         width_,
 2681              		.loc 16 227 51 view .LVU571
 2682 02e0 86B2     		uxth	r6, r0
 2683              	.LVL182:
 2684              	.LBB1130:
 2685              	.LBI1117:
  31:../../libdaisy/src/hid/disp/graphics_common.h ****     : x_(x), y_(y), width_(max(0, width)), height_(max(0, height))
 2686              		.loc 16 31 5 is_stmt 1 view .LVU572
 2687              	.LBB1126:
 2688              	.LBB1123:
  32:../../libdaisy/src/hid/disp/graphics_common.h ****     {
 2689              		.loc 16 32 66 is_stmt 0 view .LVU573
 2690 02e2 D980     		strh	r1, [r3, #6]	@ movhi
 2691 02e4 5E80     		strh	r6, [r3, #2]	@ movhi
 2692              	.LVL183:
 2693              	.LBB1120:
 2694              	.LBI1120:
 2695              		.loc 16 261 13 is_stmt 1 view .LVU574
 2696              		.loc 16 261 13 is_stmt 0 view .LVU575
 2697              	.LBE1120:
 2698              	.LBE1123:
 2699              	.LBE1126:
 2700              	.LBE1130:
 2701              	.LBE1212:
 2702              	.LBE1278:
 2703              		.loc 16 261 41 is_stmt 1 view .LVU576
 2704              	.LBB1279:
 2705              	.LBB1213:
 2706              	.LBB1131:
 2707              	.LBB1127:
 2708              	.LBB1124:
 2709              	.LBB1121:
 2710              	.LBI1121:
 2711              		.loc 16 261 13 view .LVU577
 2712              		.loc 16 261 13 is_stmt 0 view .LVU578
 2713              	.LBE1121:
 2714              	.LBE1124:
 2715              	.LBE1127:
 2716              	.LBE1131:
 2717              	.LBE1213:
 2718              	.LBE1279:
 2719              		.loc 16 261 41 is_stmt 1 view .LVU579
 2720              	.LBB1280:
 2721              	.LBB1214:
 2722              	.LBB1132:
 2723              	.LBB1128:
  34:../../libdaisy/src/hid/disp/graphics_common.h **** 
 2724              		.loc 16 34 5 is_stmt 0 view .LVU580
 2725 02e6 D0E6     		b	.L136
 2726              	.LVL184:
 2727              	.L130:
  34:../../libdaisy/src/hid/disp/graphics_common.h **** 
 2728              		.loc 16 34 5 view .LVU581
 2729              	.LBE1128:
 2730              	.LBE1132:
 235:../../libdaisy/src/hid/disp/graphics_common.h ****                 return {int16_t(x_ + (other.GetCenterX() - GetCenterX())),
 2731              		.loc 16 235 13 is_stmt 1 view .LVU582
ARM GAS  /tmp/ccoLrWzv.s 			page 85


 236:../../libdaisy/src/hid/disp/graphics_common.h ****                         int16_t(other.GetBottom() - height_),
 2732              		.loc 16 236 17 view .LVU583
 2733              	.LBB1133:
 2734              	.LBI1133:
  62:../../libdaisy/src/hid/disp/graphics_common.h ****     int16_t GetCenterY() const { return y_ + height_ / 2; }
 2735              		.loc 16 62 13 view .LVU584
 2736              	.LBB1134:
  62:../../libdaisy/src/hid/disp/graphics_common.h ****     int16_t GetCenterY() const { return y_ + height_ / 2; }
 2737              		.loc 16 62 34 view .LVU585
  62:../../libdaisy/src/hid/disp/graphics_common.h ****     int16_t GetCenterY() const { return y_ + height_ / 2; }
 2738              		.loc 16 62 34 is_stmt 0 view .LVU586
 2739              	.LBE1134:
 2740              	.LBE1133:
 2741              	.LBB1138:
 2742              	.LBI1138:
  62:../../libdaisy/src/hid/disp/graphics_common.h ****     int16_t GetCenterY() const { return y_ + height_ / 2; }
 2743              		.loc 16 62 13 is_stmt 1 view .LVU587
 2744              	.LBB1139:
  62:../../libdaisy/src/hid/disp/graphics_common.h ****     int16_t GetCenterY() const { return y_ + height_ / 2; }
 2745              		.loc 16 62 34 view .LVU588
 2746              	.LBE1139:
 2747              	.LBE1138:
 2748              	.LBB1140:
 2749              	.LBB1135:
  62:../../libdaisy/src/hid/disp/graphics_common.h ****     int16_t GetCenterY() const { return y_ + height_ / 2; }
 2750              		.loc 16 62 53 is_stmt 0 view .LVU589
 2751 02e8 B6F904C0 		ldrsh	ip, [r6, #4]
  62:../../libdaisy/src/hid/disp/graphics_common.h ****     int16_t GetCenterY() const { return y_ + height_ / 2; }
 2752              		.loc 16 62 44 view .LVU590
 2753 02ec 3788     		ldrh	r7, [r6]
  62:../../libdaisy/src/hid/disp/graphics_common.h ****     int16_t GetCenterY() const { return y_ + height_ / 2; }
 2754              		.loc 16 62 53 view .LVU591
 2755 02ee BCF1000F 		cmp	ip, #0
 2756              	.LBE1135:
 2757              	.LBE1140:
 2758              	.LBB1141:
 2759              	.LBB1142:
  61:../../libdaisy/src/hid/disp/graphics_common.h ****     int16_t GetCenterX() const { return x_ + width_ / 2; }
 2760              		.loc 16 61 43 view .LVU592
 2761 02f2 7388     		ldrh	r3, [r6, #2]
 2762              	.LVL185:
  61:../../libdaisy/src/hid/disp/graphics_common.h ****     int16_t GetCenterX() const { return x_ + width_ / 2; }
 2763              		.loc 16 61 43 view .LVU593
 2764 02f4 B6F806E0 		ldrh	lr, [r6, #6]
 2765              	.LBE1142:
 2766              	.LBE1141:
 2767              	.LBB1145:
 2768              	.LBB1136:
  62:../../libdaisy/src/hid/disp/graphics_common.h ****     int16_t GetCenterY() const { return y_ + height_ / 2; }
 2769              		.loc 16 62 53 view .LVU594
 2770 02f8 B8BF     		it	lt
 2771 02fa 0CF1010C 		addlt	ip, ip, #1
 2772              	.LBE1136:
 2773              	.LBE1145:
 2774              	.LBB1146:
 2775              	.LBB1147:
 2776              	.LBB1148:
ARM GAS  /tmp/ccoLrWzv.s 			page 86


  32:../../libdaisy/src/hid/disp/graphics_common.h ****     {
 2777              		.loc 16 32 66 view .LVU595
 2778 02fe 099E     		ldr	r6, [sp, #36]
 2779              	.LVL186:
  32:../../libdaisy/src/hid/disp/graphics_common.h ****     {
 2780              		.loc 16 32 66 view .LVU596
 2781              	.LBE1148:
 2782              	.LBE1147:
 2783              	.LBE1146:
 2784              	.LBB1160:
 2785              	.LBB1137:
  62:../../libdaisy/src/hid/disp/graphics_common.h ****     int16_t GetCenterY() const { return y_ + height_ / 2; }
 2786              		.loc 16 62 44 view .LVU597
 2787 0300 07EB6C07 		add	r7, r7, ip, asr #1
 2788              	.LBE1137:
 2789              	.LBE1160:
 2790              	.LBB1161:
 2791              	.LBB1155:
 2792              	.LBB1151:
  32:../../libdaisy/src/hid/disp/graphics_common.h ****     {
 2793              		.loc 16 32 66 view .LVU598
 2794 0304 B280     		strh	r2, [r6, #4]	@ movhi
 2795              	.LBE1151:
 2796              	.LBE1155:
 2797              	.LBE1161:
 2798              	.LBB1162:
 2799              	.LBB1143:
  61:../../libdaisy/src/hid/disp/graphics_common.h ****     int16_t GetCenterX() const { return x_ + width_ / 2; }
 2800              		.loc 16 61 43 view .LVU599
 2801 0306 0EEB0306 		add	r6, lr, r3
 2802              	.LBE1143:
 2803              	.LBE1162:
 236:../../libdaisy/src/hid/disp/graphics_common.h ****                         int16_t(other.GetBottom() - height_),
 2804              		.loc 16 236 58 view .LVU600
 2805 030a A7EB6202 		sub	r2, r7, r2, asr #1
 2806              	.LVL187:
 2807              	.L196:
 237:../../libdaisy/src/hid/disp/graphics_common.h ****                         width_,
 2808              		.loc 16 237 51 view .LVU601
 2809 030e 301A     		subs	r0, r6, r0
 2810              	.LBB1163:
 2811              	.LBB1156:
 2812              	.LBB1152:
  32:../../libdaisy/src/hid/disp/graphics_common.h ****     {
 2813              		.loc 16 32 66 view .LVU602
 2814 0310 099B     		ldr	r3, [sp, #36]
 2815              	.LBE1152:
 2816              	.LBE1156:
 2817              	.LBE1163:
 236:../../libdaisy/src/hid/disp/graphics_common.h ****                         int16_t(other.GetBottom() - height_),
 2818              		.loc 16 236 58 view .LVU603
 2819 0312 97B2     		uxth	r7, r2
 2820              	.LBB1164:
 2821              	.LBI1141:
  61:../../libdaisy/src/hid/disp/graphics_common.h ****     int16_t GetCenterX() const { return x_ + width_ / 2; }
 2822              		.loc 16 61 13 is_stmt 1 view .LVU604
 2823              	.LVL188:
ARM GAS  /tmp/ccoLrWzv.s 			page 87


 2824              	.LBB1144:
  61:../../libdaisy/src/hid/disp/graphics_common.h ****     int16_t GetCenterX() const { return x_ + width_ / 2; }
 2825              		.loc 16 61 33 view .LVU605
 2826              	.LBE1144:
 2827              	.LBE1164:
 237:../../libdaisy/src/hid/disp/graphics_common.h ****                         width_,
 2828              		.loc 16 237 51 is_stmt 0 view .LVU606
 2829 0314 86B2     		uxth	r6, r0
 2830              	.LVL189:
 2831              	.LBB1165:
 2832              	.LBI1146:
  31:../../libdaisy/src/hid/disp/graphics_common.h ****     : x_(x), y_(y), width_(max(0, width)), height_(max(0, height))
 2833              		.loc 16 31 5 is_stmt 1 view .LVU607
 2834              	.LBB1157:
 2835              	.LBB1153:
  32:../../libdaisy/src/hid/disp/graphics_common.h ****     {
 2836              		.loc 16 32 66 is_stmt 0 view .LVU608
 2837 0316 D980     		strh	r1, [r3, #6]	@ movhi
 2838 0318 1F80     		strh	r7, [r3]	@ movhi
 2839 031a 5E80     		strh	r6, [r3, #2]	@ movhi
 2840              	.LVL190:
 2841              	.LBB1149:
 2842              	.LBI1149:
 2843              		.loc 16 261 13 is_stmt 1 view .LVU609
 2844              		.loc 16 261 13 is_stmt 0 view .LVU610
 2845              	.LBE1149:
 2846              	.LBE1153:
 2847              	.LBE1157:
 2848              	.LBE1165:
 2849              	.LBE1214:
 2850              	.LBE1280:
 2851              		.loc 16 261 41 is_stmt 1 view .LVU611
 2852              	.LBB1281:
 2853              	.LBB1215:
 2854              	.LBB1166:
 2855              	.LBB1158:
 2856              	.LBB1154:
 2857              	.LBB1150:
 2858              	.LBI1150:
 2859              		.loc 16 261 13 view .LVU612
 2860              		.loc 16 261 13 is_stmt 0 view .LVU613
 2861              	.LBE1150:
 2862              	.LBE1154:
 2863              	.LBE1158:
 2864              	.LBE1166:
 2865              	.LBE1215:
 2866              	.LBE1281:
 2867              		.loc 16 261 41 is_stmt 1 view .LVU614
 2868              	.LBB1282:
 2869              	.LBB1216:
 2870              	.LBB1167:
 2871              	.LBB1159:
  34:../../libdaisy/src/hid/disp/graphics_common.h **** 
 2872              		.loc 16 34 5 is_stmt 0 view .LVU615
 2873 031c B5E6     		b	.L136
 2874              	.LVL191:
 2875              	.L129:
ARM GAS  /tmp/ccoLrWzv.s 			page 88


  34:../../libdaisy/src/hid/disp/graphics_common.h **** 
 2876              		.loc 16 34 5 view .LVU616
 2877              	.LBE1159:
 2878              	.LBE1167:
 230:../../libdaisy/src/hid/disp/graphics_common.h ****                 return {int16_t(other.GetRight() - width_),
 2879              		.loc 16 230 13 is_stmt 1 view .LVU617
 231:../../libdaisy/src/hid/disp/graphics_common.h ****                         int16_t(other.GetBottom() - height_),
 2880              		.loc 16 231 17 view .LVU618
 2881              	.LBB1168:
 2882              	.LBI1168:
  60:../../libdaisy/src/hid/disp/graphics_common.h ****     int16_t GetBottom() const { return y_ + height_; }
 2883              		.loc 16 60 13 view .LVU619
 2884              	.LBB1169:
  60:../../libdaisy/src/hid/disp/graphics_common.h ****     int16_t GetBottom() const { return y_ + height_; }
 2885              		.loc 16 60 32 view .LVU620
  60:../../libdaisy/src/hid/disp/graphics_common.h ****     int16_t GetBottom() const { return y_ + height_; }
 2886              		.loc 16 60 42 is_stmt 0 view .LVU621
 2887 031e B6F804C0 		ldrh	ip, [r6, #4]
 2888 0322 3788     		ldrh	r7, [r6]
 2889              	.LBE1169:
 2890              	.LBE1168:
 2891              	.LBB1171:
 2892              	.LBB1172:
  61:../../libdaisy/src/hid/disp/graphics_common.h ****     int16_t GetCenterX() const { return x_ + width_ / 2; }
 2893              		.loc 16 61 43 view .LVU622
 2894 0324 7388     		ldrh	r3, [r6, #2]
 2895              	.LVL192:
  61:../../libdaisy/src/hid/disp/graphics_common.h ****     int16_t GetCenterX() const { return x_ + width_ / 2; }
 2896              		.loc 16 61 43 view .LVU623
 2897 0326 B6F806E0 		ldrh	lr, [r6, #6]
 2898              	.LBE1172:
 2899              	.LBE1171:
 2900              	.LBB1174:
 2901              	.LBB1170:
  60:../../libdaisy/src/hid/disp/graphics_common.h ****     int16_t GetBottom() const { return y_ + height_; }
 2902              		.loc 16 60 42 view .LVU624
 2903 032a 6744     		add	r7, r7, ip
 2904              	.LBE1170:
 2905              	.LBE1174:
 2906              	.LBB1175:
 2907              	.LBB1176:
 2908              	.LBB1177:
  32:../../libdaisy/src/hid/disp/graphics_common.h ****     {
 2909              		.loc 16 32 66 view .LVU625
 2910 032c 099E     		ldr	r6, [sp, #36]
 2911              	.LVL193:
  32:../../libdaisy/src/hid/disp/graphics_common.h ****     {
 2912              		.loc 16 32 66 view .LVU626
 2913 032e B280     		strh	r2, [r6, #4]	@ movhi
 2914              	.LBE1177:
 2915              	.LBE1176:
 2916              	.LBE1175:
 2917              	.LBB1178:
 2918              	.LBB1173:
  61:../../libdaisy/src/hid/disp/graphics_common.h ****     int16_t GetCenterX() const { return x_ + width_ / 2; }
 2919              		.loc 16 61 43 view .LVU627
 2920 0330 0EEB0306 		add	r6, lr, r3
ARM GAS  /tmp/ccoLrWzv.s 			page 89


 2921              	.LBE1173:
 2922              	.LBE1178:
 231:../../libdaisy/src/hid/disp/graphics_common.h ****                         int16_t(other.GetBottom() - height_),
 2923              		.loc 16 231 50 view .LVU628
 2924 0334 BA1A     		subs	r2, r7, r2
 2925 0336 EAE7     		b	.L196
 2926              	.LVL194:
 2927              	.L128:
 240:../../libdaisy/src/hid/disp/graphics_common.h ****                 return {other.x_,
 2928              		.loc 16 240 13 is_stmt 1 view .LVU629
 241:../../libdaisy/src/hid/disp/graphics_common.h ****                         int16_t(y_ + (other.GetCenterY() - GetCenterY())),
 2929              		.loc 16 241 17 view .LVU630
 2930              	.LBB1179:
 2931              	.LBB1180:
  63:../../libdaisy/src/hid/disp/graphics_common.h **** 
 2932              		.loc 16 63 54 is_stmt 0 view .LVU631
 2933 0338 B6F90630 		ldrsh	r3, [r6, #6]
 2934              	.LVL195:
  63:../../libdaisy/src/hid/disp/graphics_common.h **** 
 2935              		.loc 16 63 54 view .LVU632
 2936              	.LBE1180:
 2937              	.LBE1179:
 241:../../libdaisy/src/hid/disp/graphics_common.h ****                         int16_t(y_ + (other.GetCenterY() - GetCenterY())),
 2938              		.loc 16 241 31 view .LVU633
 2939 033c B6F90000 		ldrsh	r0, [r6]
 2940              	.LBB1185:
 2941              	.LBI1179:
  63:../../libdaisy/src/hid/disp/graphics_common.h **** 
 2942              		.loc 16 63 13 is_stmt 1 view .LVU634
 2943              	.LVL196:
 2944              	.LBB1181:
  63:../../libdaisy/src/hid/disp/graphics_common.h **** 
 2945              		.loc 16 63 34 view .LVU635
  63:../../libdaisy/src/hid/disp/graphics_common.h **** 
 2946              		.loc 16 63 34 is_stmt 0 view .LVU636
 2947              	.LBE1181:
 2948              	.LBE1185:
 2949              	.LBB1186:
 2950              	.LBI1186:
  63:../../libdaisy/src/hid/disp/graphics_common.h **** 
 2951              		.loc 16 63 13 is_stmt 1 view .LVU637
 2952              	.LBB1187:
  63:../../libdaisy/src/hid/disp/graphics_common.h **** 
 2953              		.loc 16 63 34 view .LVU638
 2954              	.LBE1187:
 2955              	.LBE1186:
 2956              	.LBB1188:
 2957              	.LBB1182:
  63:../../libdaisy/src/hid/disp/graphics_common.h **** 
 2958              		.loc 16 63 54 is_stmt 0 view .LVU639
 2959 0340 002B     		cmp	r3, #0
  63:../../libdaisy/src/hid/disp/graphics_common.h **** 
 2960              		.loc 16 63 44 view .LVU640
 2961 0342 B6F802C0 		ldrh	ip, [r6, #2]
 2962              	.LBE1182:
 2963              	.LBE1188:
 2964              	.LBB1189:
ARM GAS  /tmp/ccoLrWzv.s 			page 90


 2965              	.LBB1190:
 2966              	.LBB1191:
  32:../../libdaisy/src/hid/disp/graphics_common.h ****     {
 2967              		.loc 16 32 66 view .LVU641
 2968 0346 099E     		ldr	r6, [sp, #36]
 2969              	.LVL197:
  32:../../libdaisy/src/hid/disp/graphics_common.h ****     {
 2970              		.loc 16 32 66 view .LVU642
 2971 0348 87B2     		uxth	r7, r0
 2972              	.LBE1191:
 2973              	.LBE1190:
 2974              	.LBE1189:
 2975              	.LBB1196:
 2976              	.LBB1183:
  63:../../libdaisy/src/hid/disp/graphics_common.h **** 
 2977              		.loc 16 63 54 view .LVU643
 2978 034a B8BF     		it	lt
 2979 034c 0133     		addlt	r3, r3, #1
 2980              	.LBE1183:
 2981              	.LBE1196:
 2982              	.LBB1197:
 2983              	.LBB1194:
 2984              	.LBB1192:
  32:../../libdaisy/src/hid/disp/graphics_common.h ****     {
 2985              		.loc 16 32 66 view .LVU644
 2986 034e 3080     		strh	r0, [r6]	@ movhi
 2987              	.LBE1192:
 2988              	.LBE1194:
 2989              	.LBE1197:
 2990              	.LBB1198:
 2991              	.LBB1184:
  63:../../libdaisy/src/hid/disp/graphics_common.h **** 
 2992              		.loc 16 63 44 view .LVU645
 2993 0350 0CEB6306 		add	r6, ip, r3, asr #1
 2994              	.LBE1184:
 2995              	.LBE1198:
 2996              	.LBB1199:
 2997              	.LBB1195:
 2998              	.LBB1193:
  32:../../libdaisy/src/hid/disp/graphics_common.h ****     {
 2999              		.loc 16 32 66 view .LVU646
 3000 0354 099B     		ldr	r3, [sp, #36]
 3001 0356 1846     		mov	r0, r3
 3002 0358 91E6     		b	.L197
 3003              	.LVL198:
 3004              	.L156:
  32:../../libdaisy/src/hid/disp/graphics_common.h ****     {
 3005              		.loc 16 32 66 view .LVU647
 3006              	.LBE1193:
 3007              	.LBE1195:
 3008              	.LBE1199:
 3009              	.LBE1216:
 3010              	.LBE1282:
 3011              	.LBB1283:
 3012              	.LBB1271:
 3013              	.LBB1269:
 3014              	.LBB1268:
ARM GAS  /tmp/ccoLrWzv.s 			page 91


 402:../../libdaisy/src/hid/disp/display.h **** 
 3015              		.loc 3 402 20 view .LVU648
 3016 035a 0026     		movs	r6, #0
 3017              	.LVL199:
 402:../../libdaisy/src/hid/disp/display.h **** 
 3018              		.loc 3 402 20 view .LVU649
 3019 035c 67E7     		b	.L154
 3020              	.LVL200:
 3021              	.L202:
 405:../../libdaisy/src/hid/disp/display.h ****            || Height() < (currentY_ + font.FontHeight))
 3022              		.loc 3 405 17 view .LVU650
 3023 035e 2046     		mov	r0, r4
 3024 0360 9847     		blx	r3
 3025              	.LVL201:
 3026 0362 CDE6     		b	.L155
 3027              	.L210:
 3028              		.align	2
 3029              	.L209:
 3030 0364 00000000 		.word	_ZNK5daisy11OledDisplayINS_13SSD130xDriverILj128ELj64ENS_24SSD130x4WireSpiTransportEEEE5Widt
 3031 0368 00000000 		.word	_ZNK5daisy11OledDisplayINS_13SSD130xDriverILj128ELj64ENS_24SSD130x4WireSpiTransportEEEE6Heig
 3032              	.L203:
 406:../../libdaisy/src/hid/disp/display.h ****         {
 3033              		.loc 3 406 21 view .LVU651
 3034 036c 2046     		mov	r0, r4
 3035 036e 9847     		blx	r3
 3036              	.LVL202:
 3037 0370 D2E6     		b	.L157
 3038              	.LVL203:
 3039              	.L207:
 3040              	.LBB1267:
 3041              	.LBB1264:
 174:../../libdaisy/src/hid/disp/display.h ****     }
 3042              		.loc 3 174 33 view .LVU652
 3043 0372 2046     		mov	r0, r4
 3044 0374 9847     		blx	r3
 3045              	.LVL204:
 3046 0376 4DE7     		b	.L171
 3047              	.LVL205:
 3048              	.L205:
 173:../../libdaisy/src/hid/disp/display.h ****         currentY_ = (y >= Height()) ? Height() - 1 : y;
 3049              		.loc 3 173 32 view .LVU653
 3050 0378 2046     		mov	r0, r4
 3051 037a 9847     		blx	r3
 3052              	.LVL206:
 3053 037c 2268     		ldr	r2, [r4]
 3054 037e 3AE7     		b	.L168
 3055              	.LVL207:
 3056              	.L158:
 173:../../libdaisy/src/hid/disp/display.h ****         currentY_ = (y >= Height()) ? Height() - 1 : y;
 3057              		.loc 3 173 32 view .LVU654
 3058 0380 B4F804C0 		ldrh	ip, [r4, #4]
 3059 0384 2DE7     		b	.L160
 3060              	.LVL208:
 3061              	.L208:
 174:../../libdaisy/src/hid/disp/display.h ****     }
 3062              		.loc 3 174 45 view .LVU655
 3063 0386 2046     		mov	r0, r4
ARM GAS  /tmp/ccoLrWzv.s 			page 92


 3064 0388 9847     		blx	r3
 3065              	.LVL209:
 3066 038a 0138     		subs	r0, r0, #1
 3067 038c 83B2     		uxth	r3, r0
 3068 038e 0293     		str	r3, [sp, #8]
 3069              	.LVL210:
 174:../../libdaisy/src/hid/disp/display.h ****     }
 3070              		.loc 3 174 45 view .LVU656
 3071 0390 4BE7     		b	.L172
 3072              	.LVL211:
 3073              	.L206:
 173:../../libdaisy/src/hid/disp/display.h ****         currentY_ = (y >= Height()) ? Height() - 1 : y;
 3074              		.loc 3 173 43 view .LVU657
 3075 0392 2046     		mov	r0, r4
 3076 0394 9847     		blx	r3
 3077              	.LVL212:
 3078 0396 0138     		subs	r0, r0, #1
 3079 0398 2268     		ldr	r2, [r4]
 3080 039a 85B2     		uxth	r5, r0
 3081              	.LVL213:
 173:../../libdaisy/src/hid/disp/display.h ****         currentY_ = (y >= Height()) ? Height() - 1 : y;
 3082              		.loc 3 173 43 view .LVU658
 3083 039c 33E7     		b	.L169
 3084              	.LVL214:
 3085              	.L125:
 173:../../libdaisy/src/hid/disp/display.h ****         currentY_ = (y >= Height()) ? Height() - 1 : y;
 3086              		.loc 3 173 43 view .LVU659
 3087              	.LBE1264:
 3088              	.LBE1267:
 3089              	.LBE1268:
 3090              	.LBE1269:
 3091              	.LBE1271:
 3092              	.LBE1283:
 3093              	.LBB1284:
 3094              	.LBB1217:
 255:../../libdaisy/src/hid/disp/graphics_common.h ****         }
 3095              		.loc 16 255 13 is_stmt 1 view .LVU660
 255:../../libdaisy/src/hid/disp/graphics_common.h ****         }
 3096              		.loc 16 255 22 view .LVU661
 3097              	.LBB1200:
 3098              	.LBI1200:
  24:../../libdaisy/src/hid/disp/graphics_common.h **** 
 3099              		.loc 16 24 5 view .LVU662
 3100              	.LBE1200:
 3101              	.LBE1217:
 3102              	.LBE1284:
 3103              	.LBB1285:
 3104              	.LBB1223:
 173:../../libdaisy/src/hid/disp/display.h ****         currentY_ = (y >= Height()) ? Height() - 1 : y;
 3105              		.loc 3 173 33 is_stmt 0 view .LVU663
 3106 039e 2368     		ldr	r3, [r4]
 3107              	.LVL215:
 173:../../libdaisy/src/hid/disp/display.h ****         currentY_ = (y >= Height()) ? Height() - 1 : y;
 3108              		.loc 3 173 33 view .LVU664
 3109              	.LBE1223:
 3110              	.LBE1285:
 3111              	.LBB1286:
ARM GAS  /tmp/ccoLrWzv.s 			page 93


 3112              	.LBB1218:
 3113              	.LBB1203:
 3114              	.LBB1201:
  24:../../libdaisy/src/hid/disp/graphics_common.h **** 
 3115              		.loc 16 24 53 view .LVU665
 3116 03a0 0026     		movs	r6, #0
 3117              	.LVL216:
  24:../../libdaisy/src/hid/disp/graphics_common.h **** 
 3118              		.loc 16 24 53 view .LVU666
 3119 03a2 124F     		ldr	r7, .L211
 3120              	.LBE1201:
 3121              	.LBE1203:
 3122              	.LBE1218:
 3123              	.LBE1286:
 3124              	.LBB1287:
 3125              	.LBB1224:
 173:../../libdaisy/src/hid/disp/display.h ****         currentY_ = (y >= Height()) ? Height() - 1 : y;
 3126              		.loc 3 173 33 view .LVU667
 3127 03a4 DA68     		ldr	r2, [r3, #12]
 3128              	.LBE1224:
 3129              	.LBE1287:
 3130              	.LBB1288:
 3131              	.LBB1219:
 3132              	.LBB1204:
 3133              	.LBB1202:
  24:../../libdaisy/src/hid/disp/graphics_common.h **** 
 3134              		.loc 16 24 53 view .LVU668
 3135 03a6 0999     		ldr	r1, [sp, #36]
 3136 03a8 BA42     		cmp	r2, r7
 3137 03aa 0197     		str	r7, [sp, #4]
 3138 03ac 0E80     		strh	r6, [r1]	@ movhi
 3139 03ae 4E80     		strh	r6, [r1, #2]	@ movhi
 3140 03b0 8E80     		strh	r6, [r1, #4]	@ movhi
 3141 03b2 CE80     		strh	r6, [r1, #6]	@ movhi
 3142              	.LVL217:
  24:../../libdaisy/src/hid/disp/graphics_common.h **** 
 3143              		.loc 16 24 53 view .LVU669
 3144              	.LBE1202:
 3145              	.LBE1204:
 3146              	.LBE1219:
 3147              	.LBE1288:
  56:../../libdaisy/src/hid/disp/graphics_common.h ****     int16_t GetY() const { return y_; }
 3148              		.loc 16 56 28 is_stmt 1 view .LVU670
  57:../../libdaisy/src/hid/disp/graphics_common.h ****     int16_t GetWidth() const { return width_; }
 3149              		.loc 16 57 28 view .LVU671
 3150              	.LBB1289:
 171:../../libdaisy/src/hid/disp/display.h ****     {
 3151              		.loc 3 171 10 view .LVU672
 3152              	.LBB1225:
 173:../../libdaisy/src/hid/disp/display.h ****         currentY_ = (y >= Height()) ? Height() - 1 : y;
 3153              		.loc 3 173 9 view .LVU673
 3154 03b4 04D0     		beq	.L143
 173:../../libdaisy/src/hid/disp/display.h ****         currentY_ = (y >= Height()) ? Height() - 1 : y;
 3155              		.loc 3 173 33 is_stmt 0 view .LVU674
 3156 03b6 3746     		mov	r7, r6
 3157              	.LVL218:
 3158              	.L144:
ARM GAS  /tmp/ccoLrWzv.s 			page 94


 173:../../libdaisy/src/hid/disp/display.h ****         currentY_ = (y >= Height()) ? Height() - 1 : y;
 3159              		.loc 3 173 32 view .LVU675
 3160 03b8 2046     		mov	r0, r4
 3161 03ba 9047     		blx	r2
 3162              	.LVL219:
 3163 03bc 2368     		ldr	r3, [r4]
 3164 03be 6DE6     		b	.L145
 3165              	.LVL220:
 3166              	.L143:
 174:../../libdaisy/src/hid/disp/display.h ****     }
 3167              		.loc 3 174 34 view .LVU676
 3168 03c0 9B68     		ldr	r3, [r3, #8]
 3169 03c2 0B4A     		ldr	r2, .L211+4
 173:../../libdaisy/src/hid/disp/display.h ****         currentY_ = (y >= Height()) ? Height() - 1 : y;
 3170              		.loc 3 173 19 view .LVU677
 3171 03c4 A680     		strh	r6, [r4, #4]	@ movhi
 174:../../libdaisy/src/hid/disp/display.h ****     }
 3172              		.loc 3 174 9 is_stmt 1 view .LVU678
 3173 03c6 9342     		cmp	r3, r2
 3174 03c8 0392     		str	r2, [sp, #12]
 3175 03ca 3FF480AE 		beq	.L150
 3176              	.LVL221:
 3177              	.L176:
 174:../../libdaisy/src/hid/disp/display.h ****     }
 3178              		.loc 3 174 33 is_stmt 0 view .LVU679
 3179 03ce 2046     		mov	r0, r4
 3180 03d0 9847     		blx	r3
 3181              	.LVL222:
 3182 03d2 73E6     		b	.L148
 3183              	.L201:
 174:../../libdaisy/src/hid/disp/display.h ****     }
 3184              		.loc 3 174 45 view .LVU680
 3185 03d4 2046     		mov	r0, r4
 3186 03d6 9847     		blx	r3
 3187              	.LVL223:
 3188 03d8 0138     		subs	r0, r0, #1
 3189 03da 86B2     		uxth	r6, r0
 3190 03dc 77E6     		b	.L150
 3191              	.L200:
 173:../../libdaisy/src/hid/disp/display.h ****         currentY_ = (y >= Height()) ? Height() - 1 : y;
 3192              		.loc 3 173 43 view .LVU681
 3193 03de 2046     		mov	r0, r4
 3194 03e0 9047     		blx	r2
 3195              	.LVL224:
 3196 03e2 0138     		subs	r0, r0, #1
 3197 03e4 2368     		ldr	r3, [r4]
 3198 03e6 87B2     		uxth	r7, r0
 3199 03e8 60E6     		b	.L146
 3200              	.L212:
 3201 03ea 00BF     		.align	2
 3202              	.L211:
 3203 03ec 00000000 		.word	_ZNK5daisy11OledDisplayINS_13SSD130xDriverILj128ELj64ENS_24SSD130x4WireSpiTransportEEEE5Widt
 3204 03f0 00000000 		.word	_ZNK5daisy11OledDisplayINS_13SSD130xDriverILj128ELj64ENS_24SSD130x4WireSpiTransportEEEE6Heig
 3205              	.LBE1225:
 3206              	.LBE1289:
 3207              		.cfi_endproc
 3208              	.LFE4837:
ARM GAS  /tmp/ccoLrWzv.s 			page 95


 3210              		.section	.text._ZN5daisy11OledDisplayINS_13SSD130xDriverILj128ELj64ENS_24SSD130x4WireSpiTransportE
 3211              		.align	1
 3212              		.p2align 2,,3
 3213              		.weak	_ZN5daisy11OledDisplayINS_13SSD130xDriverILj128ELj64ENS_24SSD130x4WireSpiTransportEEEE9DrawP
 3214              		.syntax unified
 3215              		.thumb
 3216              		.thumb_func
 3217              		.fpu fpv5-d16
 3219              	_ZN5daisy11OledDisplayINS_13SSD130xDriverILj128ELj64ENS_24SSD130x4WireSpiTransportEEEE9DrawPixelEjj
 3220              	.LVL225:
 3221              	.LFB4726:
  41:../../libdaisy/src/hid/disp/oled_display.h ****     {
 3222              		.loc 2 41 10 is_stmt 1 view -0
 3223              		.cfi_startproc
 3224              		@ args = 0, pretend = 0, frame = 0
 3225              		@ frame_needed = 0, uses_anonymous_args = 0
 3226              		@ link register save eliminated.
 3227              	.LBB1294:
 3228              	.LBI1294:
 239:../../libdaisy/src/dev/oled_ssd130x.h ****     {
 3229              		.loc 14 239 10 view .LVU683
 3230              	.LBB1295:
 241:../../libdaisy/src/dev/oled_ssd130x.h ****             return;
 3231              		.loc 14 241 9 is_stmt 0 view .LVU684
 3232 0000 7F29     		cmp	r1, #127
 3233 0002 21D8     		bhi	.L217
 3234 0004 3F2A     		cmp	r2, #63
 3235 0006 1FD8     		bhi	.L217
 3236              	.LBE1295:
 3237              	.LBE1294:
  41:../../libdaisy/src/hid/disp/oled_display.h ****     {
 3238              		.loc 2 41 10 view .LVU685
 3239 0008 10B4     		push	{r4}
 3240              		.cfi_def_cfa_offset 4
 3241              		.cfi_offset 4, -4
 3242              	.LBB1300:
 3243              	.LBB1298:
 243:../../libdaisy/src/dev/oled_ssd130x.h ****             buffer_[x + (y / 8) * width] |= (1 << (y % 8));
 3244              		.loc 14 243 9 view .LVU686
 3245 000a 73B9     		cbnz	r3, .L220
 3246              	.LVL226:
 3247              	.LBB1296:
 3248              	.LBI1296:
 239:../../libdaisy/src/dev/oled_ssd130x.h ****     {
 3249              		.loc 14 239 10 is_stmt 1 view .LVU687
 3250              	.LBB1297:
 246:../../libdaisy/src/dev/oled_ssd130x.h ****     }
 3251              		.loc 14 246 28 is_stmt 0 view .LVU688
 3252 000c D308     		lsrs	r3, r2, #3
 3253              	.LVL227:
 246:../../libdaisy/src/dev/oled_ssd130x.h ****     }
 3254              		.loc 14 246 49 view .LVU689
 3255 000e 0124     		movs	r4, #1
 246:../../libdaisy/src/dev/oled_ssd130x.h ****     }
 3256              		.loc 14 246 55 view .LVU690
 3257 0010 02F00702 		and	r2, r2, #7
 3258              	.LVL228:
ARM GAS  /tmp/ccoLrWzv.s 			page 96


 246:../../libdaisy/src/dev/oled_ssd130x.h ****     }
 3259              		.loc 14 246 42 view .LVU691
 3260 0014 01EBC313 		add	r3, r1, r3, lsl #7
 246:../../libdaisy/src/dev/oled_ssd130x.h ****     }
 3261              		.loc 14 246 49 view .LVU692
 3262 0018 9440     		lsls	r4, r4, r2
 246:../../libdaisy/src/dev/oled_ssd130x.h ****     }
 3263              		.loc 14 246 13 view .LVU693
 3264 001a C118     		adds	r1, r0, r3
 3265              	.LVL229:
 246:../../libdaisy/src/dev/oled_ssd130x.h ****     }
 3266              		.loc 14 246 42 view .LVU694
 3267 001c 0A7D     		ldrb	r2, [r1, #20]	@ zero_extendqisi2
 3268 001e 22EA0402 		bic	r2, r2, r4
 246:../../libdaisy/src/dev/oled_ssd130x.h ****     }
 3269              		.loc 14 246 13 view .LVU695
 3270 0022 0A75     		strb	r2, [r1, #20]
 3271              	.LVL230:
 246:../../libdaisy/src/dev/oled_ssd130x.h ****     }
 3272              		.loc 14 246 13 view .LVU696
 3273              	.LBE1297:
 3274              	.LBE1296:
 3275              	.LBE1298:
 3276              	.LBE1300:
  44:../../libdaisy/src/hid/disp/oled_display.h **** 
 3277              		.loc 2 44 5 view .LVU697
 3278 0024 5DF8044B 		ldr	r4, [sp], #4
 3279              		.cfi_remember_state
 3280              		.cfi_restore 4
 3281              		.cfi_def_cfa_offset 0
 3282 0028 7047     		bx	lr
 3283              	.LVL231:
 3284              	.L220:
 3285              		.cfi_restore_state
 3286              	.LBB1301:
 3287              	.LBB1299:
 244:../../libdaisy/src/dev/oled_ssd130x.h ****         else
 3288              		.loc 14 244 28 view .LVU698
 3289 002a D408     		lsrs	r4, r2, #3
 244:../../libdaisy/src/dev/oled_ssd130x.h ****         else
 3290              		.loc 14 244 48 view .LVU699
 3291 002c 0123     		movs	r3, #1
 3292              	.LVL232:
 244:../../libdaisy/src/dev/oled_ssd130x.h ****         else
 3293              		.loc 14 244 54 view .LVU700
 3294 002e 02F00702 		and	r2, r2, #7
 3295              	.LVL233:
 244:../../libdaisy/src/dev/oled_ssd130x.h ****         else
 3296              		.loc 14 244 42 view .LVU701
 3297 0032 01EBC414 		add	r4, r1, r4, lsl #7
 244:../../libdaisy/src/dev/oled_ssd130x.h ****         else
 3298              		.loc 14 244 48 view .LVU702
 3299 0036 03FA02F2 		lsl	r2, r3, r2
 244:../../libdaisy/src/dev/oled_ssd130x.h ****         else
 3300              		.loc 14 244 13 view .LVU703
 3301 003a 0119     		adds	r1, r0, r4
 3302              	.LVL234:
ARM GAS  /tmp/ccoLrWzv.s 			page 97


 244:../../libdaisy/src/dev/oled_ssd130x.h ****         else
 3303              		.loc 14 244 42 view .LVU704
 3304 003c 0B7D     		ldrb	r3, [r1, #20]	@ zero_extendqisi2
 3305 003e 1A43     		orrs	r2, r2, r3
 244:../../libdaisy/src/dev/oled_ssd130x.h ****         else
 3306              		.loc 14 244 13 view .LVU705
 3307 0040 0A75     		strb	r2, [r1, #20]
 3308              	.LBE1299:
 3309              	.LBE1301:
  44:../../libdaisy/src/hid/disp/oled_display.h **** 
 3310              		.loc 2 44 5 view .LVU706
 3311 0042 5DF8044B 		ldr	r4, [sp], #4
 3312              		.cfi_restore 4
 3313              		.cfi_def_cfa_offset 0
 3314 0046 7047     		bx	lr
 3315              	.LVL235:
 3316              	.L217:
  44:../../libdaisy/src/hid/disp/oled_display.h **** 
 3317              		.loc 2 44 5 view .LVU707
 3318 0048 7047     		bx	lr
 3319              		.cfi_endproc
 3320              	.LFE4726:
 3322 004a 00BF     		.section	.text._ZN5daisy25OneBitGraphicsDisplayImplINS_11OledDisplayINS_13SSD130xDriverILj128ELj64
 3323              		.align	1
 3324              		.p2align 2,,3
 3325              		.weak	_ZN5daisy25OneBitGraphicsDisplayImplINS_11OledDisplayINS_13SSD130xDriverILj128ELj64ENS_24SSD
 3326              		.syntax unified
 3327              		.thumb
 3328              		.thumb_func
 3329              		.fpu fpv5-d16
 3331              	_ZN5daisy25OneBitGraphicsDisplayImplINS_11OledDisplayINS_13SSD130xDriverILj128ELj64ENS_24SSD130x4Wi
 3332              	.LVL236:
 3333              	.LFB4834:
 221:../../libdaisy/src/hid/disp/display.h ****                   uint_fast8_t y1,
 3334              		.loc 3 221 10 is_stmt 1 view -0
 3335              		.cfi_startproc
 3336              		@ args = 8, pretend = 0, frame = 8
 3337              		@ frame_needed = 0, uses_anonymous_args = 0
 221:../../libdaisy/src/hid/disp/display.h ****                   uint_fast8_t y1,
 3338              		.loc 3 221 10 is_stmt 0 view .LVU709
 3339 0000 2DE9F04F 		push	{r4, r5, r6, r7, r8, r9, r10, fp, lr}
 3340              		.cfi_def_cfa_offset 36
 3341              		.cfi_offset 4, -36
 3342              		.cfi_offset 5, -32
 3343              		.cfi_offset 6, -28
 3344              		.cfi_offset 7, -24
 3345              		.cfi_offset 8, -20
 3346              		.cfi_offset 9, -16
 3347              		.cfi_offset 10, -12
 3348              		.cfi_offset 11, -8
 3349              		.cfi_offset 14, -4
 3350 0004 83B0     		sub	sp, sp, #12
 3351              		.cfi_def_cfa_offset 48
 227:../../libdaisy/src/hid/disp/display.h ****         int_fast16_t deltaY = abs((int_fast16_t)y2 - (int_fast16_t)y1);
 3352              		.loc 3 227 52 view .LVU710
 3353 0006 5E1A     		subs	r6, r3, r1
 221:../../libdaisy/src/hid/disp/display.h ****                   uint_fast8_t y1,
ARM GAS  /tmp/ccoLrWzv.s 			page 98


 3354              		.loc 3 221 10 view .LVU711
 3355 0008 0C9F     		ldr	r7, [sp, #48]
 3356 000a 9DF83480 		ldrb	r8, [sp, #52]	@ zero_extendqisi2
 228:../../libdaisy/src/hid/disp/display.h ****         int_fast16_t signX  = ((x1 < x2) ? 1 : -1);
 3357              		.loc 3 228 52 view .LVU712
 3358 000e A7EB020E 		sub	lr, r7, r2
 228:../../libdaisy/src/hid/disp/display.h ****         int_fast16_t signX  = ((x1 < x2) ? 1 : -1);
 3359              		.loc 3 228 22 view .LVU713
 3360 0012 BEF1000F 		cmp	lr, #0
 3361 0016 B8BF     		it	lt
 3362 0018 CEF1000E 		rsblt	lr, lr, #0
 229:../../libdaisy/src/hid/disp/display.h ****         int_fast16_t signY  = ((y1 < y2) ? 1 : -1);
 3363              		.loc 3 229 22 view .LVU714
 3364 001c 8B42     		cmp	r3, r1
 3365 001e 8CBF     		ite	hi
 3366 0020 4FF00109 		movhi	r9, #1
 3367 0024 4FF0FF39 		movls	r9, #-1
 227:../../libdaisy/src/hid/disp/display.h ****         int_fast16_t deltaY = abs((int_fast16_t)y2 - (int_fast16_t)y1);
 3368              		.loc 3 227 22 view .LVU715
 3369 0028 002E     		cmp	r6, #0
 3370 002a B8BF     		it	lt
 3371 002c 7642     		rsblt	r6, r6, #0
 3372              	.LVL237:
 230:../../libdaisy/src/hid/disp/display.h ****         int_fast16_t error  = deltaX - deltaY;
 3373              		.loc 3 230 22 view .LVU716
 3374 002e 9742     		cmp	r7, r2
 231:../../libdaisy/src/hid/disp/display.h ****         int_fast16_t error2;
 3375              		.loc 3 231 22 view .LVU717
 3376 0030 A6EB0E04 		sub	r4, r6, lr
 230:../../libdaisy/src/hid/disp/display.h ****         int_fast16_t error  = deltaX - deltaY;
 3377              		.loc 3 230 22 view .LVU718
 3378 0034 4FD8     		bhi	.L223
 3379              	.LVL238:
 3380              	.LBB1318:
 3381              	.LBI1318:
  41:../../libdaisy/src/hid/disp/oled_display.h ****     {
 3382              		.loc 2 41 10 is_stmt 1 discriminator 4 view .LVU719
 3383              	.LBB1319:
 3384              	.LBI1319:
 239:../../libdaisy/src/dev/oled_ssd130x.h ****     {
 3385              		.loc 14 239 10 discriminator 4 view .LVU720
 3386              	.LBE1319:
 3387              	.LBE1318:
 230:../../libdaisy/src/hid/disp/display.h ****         int_fast16_t error  = deltaX - deltaY;
 3388              		.loc 3 230 22 is_stmt 0 discriminator 4 view .LVU721
 3389 0036 4FF0FF35 		mov	r5, #-1
 3390              	.LBB1335:
 3391              	.LBB1329:
 3392              	.LBB1320:
 241:../../libdaisy/src/dev/oled_ssd130x.h ****             return;
 3393              		.loc 14 241 9 discriminator 4 view .LVU722
 3394 003a 7F2B     		cmp	r3, #127
 3395              	.LBE1320:
 3396              	.LBE1329:
 3397              	.LBE1335:
 230:../../libdaisy/src/hid/disp/display.h ****         int_fast16_t error  = deltaX - deltaY;
 3398              		.loc 3 230 22 discriminator 4 view .LVU723
ARM GAS  /tmp/ccoLrWzv.s 			page 99


 3399 003c 0195     		str	r5, [sp, #4]
 3400              	.LBB1336:
 3401              	.LBB1330:
 3402              	.LBB1325:
 241:../../libdaisy/src/dev/oled_ssd130x.h ****             return;
 3403              		.loc 14 241 9 discriminator 4 view .LVU724
 3404 003e 14D8     		bhi	.L224
 3405 0040 3F2F     		cmp	r7, #63
 3406 0042 12D8     		bhi	.L224
 3407              	.LVL239:
 3408              	.L235:
 244:../../libdaisy/src/dev/oled_ssd130x.h ****         else
 3409              		.loc 14 244 28 view .LVU725
 3410 0044 FD08     		lsrs	r5, r7, #3
 244:../../libdaisy/src/dev/oled_ssd130x.h ****         else
 3411              		.loc 14 244 54 view .LVU726
 3412 0046 07F0070C 		and	ip, r7, #7
 244:../../libdaisy/src/dev/oled_ssd130x.h ****         else
 3413              		.loc 14 244 48 view .LVU727
 3414 004a 4FF0010A 		mov	r10, #1
 244:../../libdaisy/src/dev/oled_ssd130x.h ****         else
 3415              		.loc 14 244 42 view .LVU728
 3416 004e 03EBC515 		add	r5, r3, r5, lsl #7
 243:../../libdaisy/src/dev/oled_ssd130x.h ****             buffer_[x + (y / 8) * width] |= (1 << (y % 8));
 3417              		.loc 14 243 9 view .LVU729
 3418 0052 B8F1000F 		cmp	r8, #0
 3419 0056 45D0     		beq	.L225
 244:../../libdaisy/src/dev/oled_ssd130x.h ****         else
 3420              		.loc 14 244 13 view .LVU730
 3421 0058 0544     		add	r5, r5, r0
 244:../../libdaisy/src/dev/oled_ssd130x.h ****         else
 3422              		.loc 14 244 48 view .LVU731
 3423 005a 0AFA0CFC 		lsl	ip, r10, ip
 244:../../libdaisy/src/dev/oled_ssd130x.h ****         else
 3424              		.loc 14 244 42 view .LVU732
 3425 005e 95F814A0 		ldrb	r10, [r5, #20]	@ zero_extendqisi2
 3426 0062 4CEA0A0C 		orr	ip, ip, r10
 244:../../libdaisy/src/dev/oled_ssd130x.h ****         else
 3427              		.loc 14 244 13 view .LVU733
 3428 0066 85F814C0 		strb	ip, [r5, #20]
 3429              	.L224:
 3430              	.LVL240:
 244:../../libdaisy/src/dev/oled_ssd130x.h ****         else
 3431              		.loc 14 244 13 view .LVU734
 3432              	.LBE1325:
 3433              	.LBE1330:
 3434              	.LBE1336:
 239:../../libdaisy/src/hid/disp/display.h ****         {
 3435              		.loc 3 239 26 is_stmt 1 view .LVU735
 3436 006a 9742     		cmp	r7, r2
 3437 006c 01D1     		bne	.L228
 3438              	.L247:
 239:../../libdaisy/src/hid/disp/display.h ****         {
 3439              		.loc 3 239 26 is_stmt 0 view .LVU736
 3440 006e 8B42     		cmp	r3, r1
 3441 0070 29D0     		beq	.L221
 3442              	.L228:
ARM GAS  /tmp/ccoLrWzv.s 			page 100


 3443              	.LVL241:
 239:../../libdaisy/src/hid/disp/display.h ****         {
 3444              		.loc 3 239 26 view .LVU737
 3445 0072 CEF1000C 		rsb	ip, lr, #0
 3446              	.L230:
 3447              	.LVL242:
 3448              	.LBB1337:
 3449              	.LBI1337:
  41:../../libdaisy/src/hid/disp/oled_display.h ****     {
 3450              		.loc 2 41 10 is_stmt 1 view .LVU738
 3451              	.LBB1338:
 3452              	.LBI1338:
 239:../../libdaisy/src/dev/oled_ssd130x.h ****     {
 3453              		.loc 14 239 10 view .LVU739
 3454              	.LBB1339:
 241:../../libdaisy/src/dev/oled_ssd130x.h ****             return;
 3455              		.loc 14 241 9 is_stmt 0 view .LVU740
 3456 0076 7F29     		cmp	r1, #127
 3457 0078 14D8     		bhi	.L231
 3458 007a 3F2A     		cmp	r2, #63
 3459 007c 12D8     		bhi	.L231
 244:../../libdaisy/src/dev/oled_ssd130x.h ****         else
 3460              		.loc 14 244 28 view .LVU741
 3461 007e D508     		lsrs	r5, r2, #3
 244:../../libdaisy/src/dev/oled_ssd130x.h ****         else
 3462              		.loc 14 244 48 view .LVU742
 3463 0080 4FF0010B 		mov	fp, #1
 244:../../libdaisy/src/dev/oled_ssd130x.h ****         else
 3464              		.loc 14 244 54 view .LVU743
 3465 0084 02F0070A 		and	r10, r2, #7
 244:../../libdaisy/src/dev/oled_ssd130x.h ****         else
 3466              		.loc 14 244 42 view .LVU744
 3467 0088 01EBC515 		add	r5, r1, r5, lsl #7
 244:../../libdaisy/src/dev/oled_ssd130x.h ****         else
 3468              		.loc 14 244 48 view .LVU745
 3469 008c 0BFA0AFA 		lsl	r10, fp, r10
 244:../../libdaisy/src/dev/oled_ssd130x.h ****         else
 3470              		.loc 14 244 13 view .LVU746
 3471 0090 0544     		add	r5, r5, r0
 244:../../libdaisy/src/dev/oled_ssd130x.h ****         else
 3472              		.loc 14 244 42 view .LVU747
 3473 0092 95F814B0 		ldrb	fp, [r5, #20]	@ zero_extendqisi2
 243:../../libdaisy/src/dev/oled_ssd130x.h ****             buffer_[x + (y / 8) * width] |= (1 << (y % 8));
 3474              		.loc 14 243 9 view .LVU748
 3475 0096 B8F1000F 		cmp	r8, #0
 3476 009a 17D0     		beq	.L232
 244:../../libdaisy/src/dev/oled_ssd130x.h ****         else
 3477              		.loc 14 244 42 view .LVU749
 3478 009c 4AEA0B0A 		orr	r10, r10, fp
 244:../../libdaisy/src/dev/oled_ssd130x.h ****         else
 3479              		.loc 14 244 13 view .LVU750
 3480 00a0 85F814A0 		strb	r10, [r5, #20]
 3481              	.L231:
 3482              	.LVL243:
 244:../../libdaisy/src/dev/oled_ssd130x.h ****         else
 3483              		.loc 14 244 13 view .LVU751
 3484              	.LBE1339:
ARM GAS  /tmp/ccoLrWzv.s 			page 101


 3485              	.LBE1338:
 3486              	.LBE1337:
 243:../../libdaisy/src/hid/disp/display.h ****             {
 3487              		.loc 3 243 13 view .LVU752
 3488 00a4 BCEB440F 		cmp	ip, r4, lsl #1
 242:../../libdaisy/src/hid/disp/display.h ****             if(error2 > -deltaY)
 3489              		.loc 3 242 13 view .LVU753
 3490 00a8 4FEA4405 		lsl	r5, r4, #1
 3491              	.LVL244:
 243:../../libdaisy/src/hid/disp/display.h ****             {
 3492              		.loc 3 243 13 view .LVU754
 3493 00ac 02DA     		bge	.L233
 245:../../libdaisy/src/hid/disp/display.h ****                 x1 += signX;
 3494              		.loc 3 245 17 view .LVU755
 3495 00ae A4EB0E04 		sub	r4, r4, lr
 3496              	.LVL245:
 246:../../libdaisy/src/hid/disp/display.h ****             }
 3497              		.loc 3 246 17 view .LVU756
 3498 00b2 4944     		add	r1, r1, r9
 3499              	.LVL246:
 3500              	.L233:
 249:../../libdaisy/src/hid/disp/display.h ****             {
 3501              		.loc 3 249 13 view .LVU757
 3502 00b4 AE42     		cmp	r6, r5
 3503 00b6 02DD     		ble	.L234
 252:../../libdaisy/src/hid/disp/display.h ****             }
 3504              		.loc 3 252 17 view .LVU758
 3505 00b8 019D     		ldr	r5, [sp, #4]
 3506              	.LVL247:
 251:../../libdaisy/src/hid/disp/display.h ****                 y1 += signY;
 3507              		.loc 3 251 17 view .LVU759
 3508 00ba 3444     		add	r4, r4, r6
 3509              	.LVL248:
 252:../../libdaisy/src/hid/disp/display.h ****             }
 3510              		.loc 3 252 17 view .LVU760
 3511 00bc 2A44     		add	r2, r2, r5
 3512              	.LVL249:
 3513              	.L234:
 239:../../libdaisy/src/hid/disp/display.h ****         {
 3514              		.loc 3 239 26 is_stmt 1 view .LVU761
 3515 00be 9942     		cmp	r1, r3
 3516 00c0 D9D1     		bne	.L230
 239:../../libdaisy/src/hid/disp/display.h ****         {
 3517              		.loc 3 239 26 is_stmt 0 view .LVU762
 3518 00c2 9742     		cmp	r7, r2
 3519 00c4 D7D1     		bne	.L230
 3520              	.L221:
 255:../../libdaisy/src/hid/disp/display.h **** 
 3521              		.loc 3 255 5 view .LVU763
 3522 00c6 03B0     		add	sp, sp, #12
 3523              		.cfi_remember_state
 3524              		.cfi_def_cfa_offset 36
 3525              		@ sp needed
 3526 00c8 BDE8F08F 		pop	{r4, r5, r6, r7, r8, r9, r10, fp, pc}
 3527              	.LVL250:
 3528              	.L232:
 3529              		.cfi_restore_state
ARM GAS  /tmp/ccoLrWzv.s 			page 102


 3530              	.LBB1344:
 3531              	.LBB1343:
 3532              	.LBB1342:
 3533              	.LBB1340:
 3534              	.LBI1340:
 239:../../libdaisy/src/dev/oled_ssd130x.h ****     {
 3535              		.loc 14 239 10 is_stmt 1 view .LVU764
 3536              	.LBB1341:
 246:../../libdaisy/src/dev/oled_ssd130x.h ****     }
 3537              		.loc 14 246 42 is_stmt 0 view .LVU765
 3538 00cc 2BEA0A0A 		bic	r10, fp, r10
 246:../../libdaisy/src/dev/oled_ssd130x.h ****     }
 3539              		.loc 14 246 13 view .LVU766
 3540 00d0 85F814A0 		strb	r10, [r5, #20]
 3541 00d4 E6E7     		b	.L231
 3542              	.LVL251:
 3543              	.L223:
 246:../../libdaisy/src/dev/oled_ssd130x.h ****     }
 3544              		.loc 14 246 13 view .LVU767
 3545              	.LBE1341:
 3546              	.LBE1340:
 3547              	.LBE1342:
 3548              	.LBE1343:
 3549              	.LBE1344:
 3550              	.LBB1345:
  41:../../libdaisy/src/hid/disp/oled_display.h ****     {
 3551              		.loc 2 41 10 is_stmt 1 view .LVU768
 3552              	.LBB1331:
 239:../../libdaisy/src/dev/oled_ssd130x.h ****     {
 3553              		.loc 14 239 10 view .LVU769
 3554              	.LBE1331:
 3555              	.LBE1345:
 230:../../libdaisy/src/hid/disp/display.h ****         int_fast16_t error  = deltaX - deltaY;
 3556              		.loc 3 230 22 is_stmt 0 view .LVU770
 3557 00d6 0125     		movs	r5, #1
 3558              	.LBB1346:
 3559              	.LBB1332:
 3560              	.LBB1326:
 241:../../libdaisy/src/dev/oled_ssd130x.h ****             return;
 3561              		.loc 14 241 9 view .LVU771
 3562 00d8 7F2B     		cmp	r3, #127
 3563              	.LBE1326:
 3564              	.LBE1332:
 3565              	.LBE1346:
 230:../../libdaisy/src/hid/disp/display.h ****         int_fast16_t error  = deltaX - deltaY;
 3566              		.loc 3 230 22 view .LVU772
 3567 00da 0195     		str	r5, [sp, #4]
 3568              	.LBB1347:
 3569              	.LBB1333:
 3570              	.LBB1327:
 241:../../libdaisy/src/dev/oled_ssd130x.h ****             return;
 3571              		.loc 14 241 9 view .LVU773
 3572 00dc C9D8     		bhi	.L228
 3573 00de 3F2F     		cmp	r7, #63
 3574 00e0 B0D9     		bls	.L235
 3575 00e2 C6E7     		b	.L228
 3576              	.LVL252:
ARM GAS  /tmp/ccoLrWzv.s 			page 103


 3577              	.L225:
 3578              	.LBB1321:
 3579              	.LBI1321:
 239:../../libdaisy/src/dev/oled_ssd130x.h ****     {
 3580              		.loc 14 239 10 is_stmt 1 view .LVU774
 3581              	.LBB1322:
 246:../../libdaisy/src/dev/oled_ssd130x.h ****     }
 3582              		.loc 14 246 13 is_stmt 0 view .LVU775
 3583 00e4 0544     		add	r5, r5, r0
 246:../../libdaisy/src/dev/oled_ssd130x.h ****     }
 3584              		.loc 14 246 49 view .LVU776
 3585 00e6 0AFA0CFA 		lsl	r10, r10, ip
 3586              	.LBE1322:
 3587              	.LBE1321:
 3588              	.LBE1327:
 3589              	.LBE1333:
 3590              	.LBE1347:
 239:../../libdaisy/src/hid/disp/display.h ****         {
 3591              		.loc 3 239 26 view .LVU777
 3592 00ea 9742     		cmp	r7, r2
 3593              	.LBB1348:
 3594              	.LBB1334:
 3595              	.LBB1328:
 3596              	.LBB1324:
 3597              	.LBB1323:
 246:../../libdaisy/src/dev/oled_ssd130x.h ****     }
 3598              		.loc 14 246 42 view .LVU778
 3599 00ec 95F814C0 		ldrb	ip, [r5, #20]	@ zero_extendqisi2
 3600 00f0 2CEA0A0C 		bic	ip, ip, r10
 246:../../libdaisy/src/dev/oled_ssd130x.h ****     }
 3601              		.loc 14 246 13 view .LVU779
 3602 00f4 85F814C0 		strb	ip, [r5, #20]
 3603              	.LVL253:
 246:../../libdaisy/src/dev/oled_ssd130x.h ****     }
 3604              		.loc 14 246 13 view .LVU780
 3605              	.LBE1323:
 3606              	.LBE1324:
 3607              	.LBE1328:
 3608              	.LBE1334:
 3609              	.LBE1348:
 239:../../libdaisy/src/hid/disp/display.h ****         {
 3610              		.loc 3 239 26 is_stmt 1 view .LVU781
 3611 00f8 B9D0     		beq	.L247
 3612 00fa BAE7     		b	.L228
 3613              		.cfi_endproc
 3614              	.LFE4834:
 3616              		.section	.text._ZN5daisy25OneBitGraphicsDisplayImplINS_11OledDisplayINS_13SSD130xDriverILj128ELj64
 3617              		.align	1
 3618              		.p2align 2,,3
 3619              		.weak	_ZN5daisy25OneBitGraphicsDisplayImplINS_11OledDisplayINS_13SSD130xDriverILj128ELj64ENS_24SSD
 3620              		.syntax unified
 3621              		.thumb
 3622              		.thumb_func
 3623              		.fpu fpv5-d16
 3625              	_ZN5daisy25OneBitGraphicsDisplayImplINS_11OledDisplayINS_13SSD130xDriverILj128ELj64ENS_24SSD130x4Wi
 3626              	.LVL254:
 3627              	.LFB4836:
ARM GAS  /tmp/ccoLrWzv.s 			page 104


 283:../../libdaisy/src/hid/disp/display.h ****                  uint_fast8_t y,
 3628              		.loc 3 283 10 view -0
 3629              		.cfi_startproc
 3630              		@ args = 12, pretend = 0, frame = 16
 3631              		@ frame_needed = 0, uses_anonymous_args = 0
 283:../../libdaisy/src/hid/disp/display.h ****                  uint_fast8_t y,
 3632              		.loc 3 283 10 is_stmt 0 view .LVU783
 3633 0000 2DE9F04F 		push	{r4, r5, r6, r7, r8, r9, r10, fp, lr}
 3634              		.cfi_def_cfa_offset 36
 3635              		.cfi_offset 4, -36
 3636              		.cfi_offset 5, -32
 3637              		.cfi_offset 6, -28
 3638              		.cfi_offset 7, -24
 3639              		.cfi_offset 8, -20
 3640              		.cfi_offset 9, -16
 3641              		.cfi_offset 10, -12
 3642              		.cfi_offset 11, -8
 3643              		.cfi_offset 14, -4
 3644 0004 2DED068B 		vpush.64	{d8, d9, d10}
 3645              		.cfi_def_cfa_offset 60
 3646              		.cfi_offset 80, -60
 3647              		.cfi_offset 81, -56
 3648              		.cfi_offset 82, -52
 3649              		.cfi_offset 83, -48
 3650              		.cfi_offset 84, -44
 3651              		.cfi_offset 85, -40
 3652 0008 85B0     		sub	sp, sp, #20
 3653              		.cfi_def_cfa_offset 80
 283:../../libdaisy/src/hid/disp/display.h ****                  uint_fast8_t y,
 3654              		.loc 3 283 10 view .LVU784
 3655 000a 1C46     		mov	r4, r3
 3656 000c 0F46     		mov	r7, r1
 3657 000e 9046     		mov	r8, r2
 3658 0010 9DF85830 		ldrb	r3, [sp, #88]	@ zero_extendqisi2
 3659              	.LVL255:
 283:../../libdaisy/src/hid/disp/display.h ****                  uint_fast8_t y,
 3660              		.loc 3 283 10 view .LVU785
 3661 0014 0390     		str	r0, [sp, #12]
 3662 0016 0293     		str	r3, [sp, #8]
 306:../../libdaisy/src/hid/disp/display.h ****         {
 3663              		.loc 3 306 9 view .LVU786
 3664 0018 159B     		ldr	r3, [sp, #84]
 3665 001a 002B     		cmp	r3, #0
 3666 001c C0F2F281 		blt	.L249
 3667 0020 149A     		ldr	r2, [sp, #80]
 3668              	.LVL256:
 306:../../libdaisy/src/hid/disp/display.h ****         {
 3669              		.loc 3 306 9 view .LVU787
 3670 0022 1344     		add	r3, r3, r2
 3671 0024 06EE103A 		vmov	s12, r3	@ int
 3672              	.LVL257:
 3673              	.L250:
 312:../../libdaisy/src/hid/disp/display.h ****         end_angle_rad   = deg2rad(start_angle + sweep);
 3674              		.loc 3 312 27 view .LVU788
 3675 0028 DDED147A 		vldr.32	s15, [sp, #80]	@ int
 313:../../libdaisy/src/hid/disp/display.h **** 
 3676              		.loc 3 313 27 view .LVU789
ARM GAS  /tmp/ccoLrWzv.s 			page 105


 3677 002c B8EEC66B 		vcvt.f64.s32	d6, s12
 312:../../libdaisy/src/hid/disp/display.h ****         end_angle_rad   = deg2rad(start_angle + sweep);
 3678              		.loc 3 312 27 view .LVU790
 3679 0030 9FEDD54B 		vldr.64	d4, .L323
 3680 0034 B8EEE77B 		vcvt.f64.s32	d7, s15
 3681 0038 9FEDD55B 		vldr.64	d5, .L323+8
 3682 003c 27EE047B 		vmul.f64	d7, d7, d4
 313:../../libdaisy/src/hid/disp/display.h **** 
 3683              		.loc 3 313 27 view .LVU791
 3684 0040 26EE046B 		vmul.f64	d6, d6, d4
 312:../../libdaisy/src/hid/disp/display.h ****         end_angle_rad   = deg2rad(start_angle + sweep);
 3685              		.loc 3 312 27 view .LVU792
 3686 0044 87EE050B 		vdiv.f64	d0, d7, d5
 313:../../libdaisy/src/hid/disp/display.h **** 
 3687              		.loc 3 313 27 view .LVU793
 3688 0048 86EE05AB 		vdiv.f64	d10, d6, d5
 312:../../libdaisy/src/hid/disp/display.h ****         end_angle_rad   = deg2rad(start_angle + sweep);
 3689              		.loc 3 312 9 view .LVU794
 3690 004c F7EEC08B 		vcvt.f32.f64	s17, d0
 3691              	.LVL258:
 3692              	.LBB1381:
 3693              	.LBB1382:
 3694              		.file 17 "/usr/include/newlib/c++/9.2.1/cmath"
   1:/usr/include/newlib/c++/9.2.1/cmath **** // -*- C++ -*- C forwarding header.
   2:/usr/include/newlib/c++/9.2.1/cmath **** 
   3:/usr/include/newlib/c++/9.2.1/cmath **** // Copyright (C) 1997-2019 Free Software Foundation, Inc.
   4:/usr/include/newlib/c++/9.2.1/cmath **** //
   5:/usr/include/newlib/c++/9.2.1/cmath **** // This file is part of the GNU ISO C++ Library.  This library is free
   6:/usr/include/newlib/c++/9.2.1/cmath **** // software; you can redistribute it and/or modify it under the
   7:/usr/include/newlib/c++/9.2.1/cmath **** // terms of the GNU General Public License as published by the
   8:/usr/include/newlib/c++/9.2.1/cmath **** // Free Software Foundation; either version 3, or (at your option)
   9:/usr/include/newlib/c++/9.2.1/cmath **** // any later version.
  10:/usr/include/newlib/c++/9.2.1/cmath **** 
  11:/usr/include/newlib/c++/9.2.1/cmath **** // This library is distributed in the hope that it will be useful,
  12:/usr/include/newlib/c++/9.2.1/cmath **** // but WITHOUT ANY WARRANTY; without even the implied warranty of
  13:/usr/include/newlib/c++/9.2.1/cmath **** // MERCHANTABILITY or FITNESS FOR A PARTICULAR PURPOSE.  See the
  14:/usr/include/newlib/c++/9.2.1/cmath **** // GNU General Public License for more details.
  15:/usr/include/newlib/c++/9.2.1/cmath **** 
  16:/usr/include/newlib/c++/9.2.1/cmath **** // Under Section 7 of GPL version 3, you are granted additional
  17:/usr/include/newlib/c++/9.2.1/cmath **** // permissions described in the GCC Runtime Library Exception, version
  18:/usr/include/newlib/c++/9.2.1/cmath **** // 3.1, as published by the Free Software Foundation.
  19:/usr/include/newlib/c++/9.2.1/cmath **** 
  20:/usr/include/newlib/c++/9.2.1/cmath **** // You should have received a copy of the GNU General Public License and
  21:/usr/include/newlib/c++/9.2.1/cmath **** // a copy of the GCC Runtime Library Exception along with this program;
  22:/usr/include/newlib/c++/9.2.1/cmath **** // see the files COPYING3 and COPYING.RUNTIME respectively.  If not, see
  23:/usr/include/newlib/c++/9.2.1/cmath **** // <http://www.gnu.org/licenses/>.
  24:/usr/include/newlib/c++/9.2.1/cmath **** 
  25:/usr/include/newlib/c++/9.2.1/cmath **** /** @file include/cmath
  26:/usr/include/newlib/c++/9.2.1/cmath ****  *  This is a Standard C++ Library file.  You should @c \#include this file
  27:/usr/include/newlib/c++/9.2.1/cmath ****  *  in your programs, rather than any of the @a *.h implementation files.
  28:/usr/include/newlib/c++/9.2.1/cmath ****  *
  29:/usr/include/newlib/c++/9.2.1/cmath ****  *  This is the C++ version of the Standard C Library header @c math.h,
  30:/usr/include/newlib/c++/9.2.1/cmath ****  *  and its contents are (mostly) the same as that header, but are all
  31:/usr/include/newlib/c++/9.2.1/cmath ****  *  contained in the namespace @c std (except for names which are defined
  32:/usr/include/newlib/c++/9.2.1/cmath ****  *  as macros in C).
  33:/usr/include/newlib/c++/9.2.1/cmath ****  */
  34:/usr/include/newlib/c++/9.2.1/cmath **** 
ARM GAS  /tmp/ccoLrWzv.s 			page 106


  35:/usr/include/newlib/c++/9.2.1/cmath **** //
  36:/usr/include/newlib/c++/9.2.1/cmath **** // ISO C++ 14882: 26.5  C library
  37:/usr/include/newlib/c++/9.2.1/cmath **** //
  38:/usr/include/newlib/c++/9.2.1/cmath **** 
  39:/usr/include/newlib/c++/9.2.1/cmath **** #pragma GCC system_header
  40:/usr/include/newlib/c++/9.2.1/cmath **** 
  41:/usr/include/newlib/c++/9.2.1/cmath **** #include <bits/c++config.h>
  42:/usr/include/newlib/c++/9.2.1/cmath **** #include <bits/cpp_type_traits.h>
  43:/usr/include/newlib/c++/9.2.1/cmath **** #include <ext/type_traits.h>
  44:/usr/include/newlib/c++/9.2.1/cmath **** #define _GLIBCXX_INCLUDE_NEXT_C_HEADERS
  45:/usr/include/newlib/c++/9.2.1/cmath **** #include_next <math.h>
  46:/usr/include/newlib/c++/9.2.1/cmath **** #undef _GLIBCXX_INCLUDE_NEXT_C_HEADERS
  47:/usr/include/newlib/c++/9.2.1/cmath **** #include <bits/std_abs.h>
  48:/usr/include/newlib/c++/9.2.1/cmath **** 
  49:/usr/include/newlib/c++/9.2.1/cmath **** #ifndef _GLIBCXX_CMATH
  50:/usr/include/newlib/c++/9.2.1/cmath **** #define _GLIBCXX_CMATH 1
  51:/usr/include/newlib/c++/9.2.1/cmath **** 
  52:/usr/include/newlib/c++/9.2.1/cmath **** // Get rid of those macros defined in <math.h> in lieu of real functions.
  53:/usr/include/newlib/c++/9.2.1/cmath **** #undef div
  54:/usr/include/newlib/c++/9.2.1/cmath **** #undef acos
  55:/usr/include/newlib/c++/9.2.1/cmath **** #undef asin
  56:/usr/include/newlib/c++/9.2.1/cmath **** #undef atan
  57:/usr/include/newlib/c++/9.2.1/cmath **** #undef atan2
  58:/usr/include/newlib/c++/9.2.1/cmath **** #undef ceil
  59:/usr/include/newlib/c++/9.2.1/cmath **** #undef cos
  60:/usr/include/newlib/c++/9.2.1/cmath **** #undef cosh
  61:/usr/include/newlib/c++/9.2.1/cmath **** #undef exp
  62:/usr/include/newlib/c++/9.2.1/cmath **** #undef fabs
  63:/usr/include/newlib/c++/9.2.1/cmath **** #undef floor
  64:/usr/include/newlib/c++/9.2.1/cmath **** #undef fmod
  65:/usr/include/newlib/c++/9.2.1/cmath **** #undef frexp
  66:/usr/include/newlib/c++/9.2.1/cmath **** #undef ldexp
  67:/usr/include/newlib/c++/9.2.1/cmath **** #undef log
  68:/usr/include/newlib/c++/9.2.1/cmath **** #undef log10
  69:/usr/include/newlib/c++/9.2.1/cmath **** #undef modf
  70:/usr/include/newlib/c++/9.2.1/cmath **** #undef pow
  71:/usr/include/newlib/c++/9.2.1/cmath **** #undef sin
  72:/usr/include/newlib/c++/9.2.1/cmath **** #undef sinh
  73:/usr/include/newlib/c++/9.2.1/cmath **** #undef sqrt
  74:/usr/include/newlib/c++/9.2.1/cmath **** #undef tan
  75:/usr/include/newlib/c++/9.2.1/cmath **** #undef tanh
  76:/usr/include/newlib/c++/9.2.1/cmath **** 
  77:/usr/include/newlib/c++/9.2.1/cmath **** extern "C++"
  78:/usr/include/newlib/c++/9.2.1/cmath **** {
  79:/usr/include/newlib/c++/9.2.1/cmath **** namespace std _GLIBCXX_VISIBILITY(default)
  80:/usr/include/newlib/c++/9.2.1/cmath **** {
  81:/usr/include/newlib/c++/9.2.1/cmath **** _GLIBCXX_BEGIN_NAMESPACE_VERSION
  82:/usr/include/newlib/c++/9.2.1/cmath **** 
  83:/usr/include/newlib/c++/9.2.1/cmath ****   using ::acos;
  84:/usr/include/newlib/c++/9.2.1/cmath **** 
  85:/usr/include/newlib/c++/9.2.1/cmath **** #ifndef __CORRECT_ISO_CPP_MATH_H_PROTO
  86:/usr/include/newlib/c++/9.2.1/cmath ****   inline _GLIBCXX_CONSTEXPR float
  87:/usr/include/newlib/c++/9.2.1/cmath ****   acos(float __x)
  88:/usr/include/newlib/c++/9.2.1/cmath ****   { return __builtin_acosf(__x); }
  89:/usr/include/newlib/c++/9.2.1/cmath **** 
  90:/usr/include/newlib/c++/9.2.1/cmath ****   inline _GLIBCXX_CONSTEXPR long double
  91:/usr/include/newlib/c++/9.2.1/cmath ****   acos(long double __x)
ARM GAS  /tmp/ccoLrWzv.s 			page 107


  92:/usr/include/newlib/c++/9.2.1/cmath ****   { return __builtin_acosl(__x); }
  93:/usr/include/newlib/c++/9.2.1/cmath **** #endif
  94:/usr/include/newlib/c++/9.2.1/cmath **** 
  95:/usr/include/newlib/c++/9.2.1/cmath ****   template<typename _Tp>
  96:/usr/include/newlib/c++/9.2.1/cmath ****     inline _GLIBCXX_CONSTEXPR
  97:/usr/include/newlib/c++/9.2.1/cmath ****     typename __gnu_cxx::__enable_if<__is_integer<_Tp>::__value, 
  98:/usr/include/newlib/c++/9.2.1/cmath ****                                     double>::__type
  99:/usr/include/newlib/c++/9.2.1/cmath ****     acos(_Tp __x)
 100:/usr/include/newlib/c++/9.2.1/cmath ****     { return __builtin_acos(__x); }
 101:/usr/include/newlib/c++/9.2.1/cmath **** 
 102:/usr/include/newlib/c++/9.2.1/cmath ****   using ::asin;
 103:/usr/include/newlib/c++/9.2.1/cmath **** 
 104:/usr/include/newlib/c++/9.2.1/cmath **** #ifndef __CORRECT_ISO_CPP_MATH_H_PROTO
 105:/usr/include/newlib/c++/9.2.1/cmath ****   inline _GLIBCXX_CONSTEXPR float
 106:/usr/include/newlib/c++/9.2.1/cmath ****   asin(float __x)
 107:/usr/include/newlib/c++/9.2.1/cmath ****   { return __builtin_asinf(__x); }
 108:/usr/include/newlib/c++/9.2.1/cmath **** 
 109:/usr/include/newlib/c++/9.2.1/cmath ****   inline _GLIBCXX_CONSTEXPR long double
 110:/usr/include/newlib/c++/9.2.1/cmath ****   asin(long double __x)
 111:/usr/include/newlib/c++/9.2.1/cmath ****   { return __builtin_asinl(__x); }
 112:/usr/include/newlib/c++/9.2.1/cmath **** #endif
 113:/usr/include/newlib/c++/9.2.1/cmath **** 
 114:/usr/include/newlib/c++/9.2.1/cmath ****   template<typename _Tp>
 115:/usr/include/newlib/c++/9.2.1/cmath ****     inline _GLIBCXX_CONSTEXPR
 116:/usr/include/newlib/c++/9.2.1/cmath ****     typename __gnu_cxx::__enable_if<__is_integer<_Tp>::__value,
 117:/usr/include/newlib/c++/9.2.1/cmath ****                                     double>::__type
 118:/usr/include/newlib/c++/9.2.1/cmath ****     asin(_Tp __x)
 119:/usr/include/newlib/c++/9.2.1/cmath ****     { return __builtin_asin(__x); }
 120:/usr/include/newlib/c++/9.2.1/cmath **** 
 121:/usr/include/newlib/c++/9.2.1/cmath ****   using ::atan;
 122:/usr/include/newlib/c++/9.2.1/cmath **** 
 123:/usr/include/newlib/c++/9.2.1/cmath **** #ifndef __CORRECT_ISO_CPP_MATH_H_PROTO
 124:/usr/include/newlib/c++/9.2.1/cmath ****   inline _GLIBCXX_CONSTEXPR float
 125:/usr/include/newlib/c++/9.2.1/cmath ****   atan(float __x)
 126:/usr/include/newlib/c++/9.2.1/cmath ****   { return __builtin_atanf(__x); }
 127:/usr/include/newlib/c++/9.2.1/cmath **** 
 128:/usr/include/newlib/c++/9.2.1/cmath ****   inline _GLIBCXX_CONSTEXPR long double
 129:/usr/include/newlib/c++/9.2.1/cmath ****   atan(long double __x)
 130:/usr/include/newlib/c++/9.2.1/cmath ****   { return __builtin_atanl(__x); }
 131:/usr/include/newlib/c++/9.2.1/cmath **** #endif
 132:/usr/include/newlib/c++/9.2.1/cmath **** 
 133:/usr/include/newlib/c++/9.2.1/cmath ****   template<typename _Tp>
 134:/usr/include/newlib/c++/9.2.1/cmath ****     inline _GLIBCXX_CONSTEXPR
 135:/usr/include/newlib/c++/9.2.1/cmath ****     typename __gnu_cxx::__enable_if<__is_integer<_Tp>::__value,
 136:/usr/include/newlib/c++/9.2.1/cmath ****                                     double>::__type
 137:/usr/include/newlib/c++/9.2.1/cmath ****     atan(_Tp __x)
 138:/usr/include/newlib/c++/9.2.1/cmath ****     { return __builtin_atan(__x); }
 139:/usr/include/newlib/c++/9.2.1/cmath **** 
 140:/usr/include/newlib/c++/9.2.1/cmath ****   using ::atan2;
 141:/usr/include/newlib/c++/9.2.1/cmath **** 
 142:/usr/include/newlib/c++/9.2.1/cmath **** #ifndef __CORRECT_ISO_CPP_MATH_H_PROTO
 143:/usr/include/newlib/c++/9.2.1/cmath ****   inline _GLIBCXX_CONSTEXPR float
 144:/usr/include/newlib/c++/9.2.1/cmath ****   atan2(float __y, float __x)
 145:/usr/include/newlib/c++/9.2.1/cmath ****   { return __builtin_atan2f(__y, __x); }
 146:/usr/include/newlib/c++/9.2.1/cmath **** 
 147:/usr/include/newlib/c++/9.2.1/cmath ****   inline _GLIBCXX_CONSTEXPR long double
 148:/usr/include/newlib/c++/9.2.1/cmath ****   atan2(long double __y, long double __x)
ARM GAS  /tmp/ccoLrWzv.s 			page 108


 149:/usr/include/newlib/c++/9.2.1/cmath ****   { return __builtin_atan2l(__y, __x); }
 150:/usr/include/newlib/c++/9.2.1/cmath **** #endif
 151:/usr/include/newlib/c++/9.2.1/cmath **** 
 152:/usr/include/newlib/c++/9.2.1/cmath ****   template<typename _Tp, typename _Up>
 153:/usr/include/newlib/c++/9.2.1/cmath ****     inline _GLIBCXX_CONSTEXPR
 154:/usr/include/newlib/c++/9.2.1/cmath ****     typename __gnu_cxx::__promote_2<_Tp, _Up>::__type
 155:/usr/include/newlib/c++/9.2.1/cmath ****     atan2(_Tp __y, _Up __x)
 156:/usr/include/newlib/c++/9.2.1/cmath ****     {
 157:/usr/include/newlib/c++/9.2.1/cmath ****       typedef typename __gnu_cxx::__promote_2<_Tp, _Up>::__type __type;
 158:/usr/include/newlib/c++/9.2.1/cmath ****       return atan2(__type(__y), __type(__x));
 159:/usr/include/newlib/c++/9.2.1/cmath ****     }
 160:/usr/include/newlib/c++/9.2.1/cmath **** 
 161:/usr/include/newlib/c++/9.2.1/cmath ****   using ::ceil;
 162:/usr/include/newlib/c++/9.2.1/cmath **** 
 163:/usr/include/newlib/c++/9.2.1/cmath **** #ifndef __CORRECT_ISO_CPP_MATH_H_PROTO
 164:/usr/include/newlib/c++/9.2.1/cmath ****   inline _GLIBCXX_CONSTEXPR float
 165:/usr/include/newlib/c++/9.2.1/cmath ****   ceil(float __x)
 166:/usr/include/newlib/c++/9.2.1/cmath ****   { return __builtin_ceilf(__x); }
 167:/usr/include/newlib/c++/9.2.1/cmath **** 
 168:/usr/include/newlib/c++/9.2.1/cmath ****   inline _GLIBCXX_CONSTEXPR long double
 169:/usr/include/newlib/c++/9.2.1/cmath ****   ceil(long double __x)
 170:/usr/include/newlib/c++/9.2.1/cmath ****   { return __builtin_ceill(__x); }
 171:/usr/include/newlib/c++/9.2.1/cmath **** #endif
 172:/usr/include/newlib/c++/9.2.1/cmath **** 
 173:/usr/include/newlib/c++/9.2.1/cmath ****   template<typename _Tp>
 174:/usr/include/newlib/c++/9.2.1/cmath ****     inline _GLIBCXX_CONSTEXPR
 175:/usr/include/newlib/c++/9.2.1/cmath ****     typename __gnu_cxx::__enable_if<__is_integer<_Tp>::__value, 
 176:/usr/include/newlib/c++/9.2.1/cmath ****                                     double>::__type
 177:/usr/include/newlib/c++/9.2.1/cmath ****     ceil(_Tp __x)
 178:/usr/include/newlib/c++/9.2.1/cmath ****     { return __builtin_ceil(__x); }
 179:/usr/include/newlib/c++/9.2.1/cmath **** 
 180:/usr/include/newlib/c++/9.2.1/cmath ****   using ::cos;
 181:/usr/include/newlib/c++/9.2.1/cmath **** 
 182:/usr/include/newlib/c++/9.2.1/cmath **** #ifndef __CORRECT_ISO_CPP_MATH_H_PROTO
 183:/usr/include/newlib/c++/9.2.1/cmath ****   inline _GLIBCXX_CONSTEXPR float
 184:/usr/include/newlib/c++/9.2.1/cmath ****   cos(float __x)
 185:/usr/include/newlib/c++/9.2.1/cmath ****   { return __builtin_cosf(__x); }
 3695              		.loc 17 185 26 view .LVU795
 3696 0050 B0EE680A 		vmov.f32	s0, s17
 3697 0054 FFF7FEFF 		bl	cosf
 3698              	.LVL259:
 3699              		.loc 17 185 26 view .LVU796
 3700              	.LBE1382:
 3701              	.LBE1381:
 313:../../libdaisy/src/hid/disp/display.h **** 
 3702              		.loc 3 313 9 view .LVU797
 3703 0058 B7EECAAB 		vcvt.f32.f64	s20, d10
 3704              	.LVL260:
 3705              	.LBB1385:
 3706              	.LBI1381:
 184:/usr/include/newlib/c++/9.2.1/cmath ****   { return __builtin_cosf(__x); }
 3707              		.loc 17 184 3 is_stmt 1 view .LVU798
 3708              	.LBB1383:
 3709              		.loc 17 185 5 view .LVU799
 3710              		.loc 17 185 5 is_stmt 0 view .LVU800
 3711              	.LBE1383:
 3712              	.LBE1385:
ARM GAS  /tmp/ccoLrWzv.s 			page 109


 315:../../libdaisy/src/hid/disp/display.h ****         start_y = -sin(start_angle_rad) * radius;
 3713              		.loc 3 315 9 view .LVU801
 3714 005c 07EE904A 		vmov	s15, r4	@ int
 3715              	.LBB1386:
 3716              	.LBB1384:
 3717              		.loc 17 185 26 view .LVU802
 3718 0060 B0EE408A 		vmov.f32	s16, s0
 3719              	.LBE1384:
 3720              	.LBE1386:
 3721              	.LBB1387:
 3722              	.LBB1388:
 186:/usr/include/newlib/c++/9.2.1/cmath **** 
 187:/usr/include/newlib/c++/9.2.1/cmath ****   inline _GLIBCXX_CONSTEXPR long double
 188:/usr/include/newlib/c++/9.2.1/cmath ****   cos(long double __x)
 189:/usr/include/newlib/c++/9.2.1/cmath ****   { return __builtin_cosl(__x); }
 190:/usr/include/newlib/c++/9.2.1/cmath **** #endif
 191:/usr/include/newlib/c++/9.2.1/cmath **** 
 192:/usr/include/newlib/c++/9.2.1/cmath ****   template<typename _Tp>
 193:/usr/include/newlib/c++/9.2.1/cmath ****     inline _GLIBCXX_CONSTEXPR
 194:/usr/include/newlib/c++/9.2.1/cmath ****     typename __gnu_cxx::__enable_if<__is_integer<_Tp>::__value,
 195:/usr/include/newlib/c++/9.2.1/cmath ****                                     double>::__type
 196:/usr/include/newlib/c++/9.2.1/cmath ****     cos(_Tp __x)
 197:/usr/include/newlib/c++/9.2.1/cmath ****     { return __builtin_cos(__x); }
 198:/usr/include/newlib/c++/9.2.1/cmath **** 
 199:/usr/include/newlib/c++/9.2.1/cmath ****   using ::cosh;
 200:/usr/include/newlib/c++/9.2.1/cmath **** 
 201:/usr/include/newlib/c++/9.2.1/cmath **** #ifndef __CORRECT_ISO_CPP_MATH_H_PROTO
 202:/usr/include/newlib/c++/9.2.1/cmath ****   inline _GLIBCXX_CONSTEXPR float
 203:/usr/include/newlib/c++/9.2.1/cmath ****   cosh(float __x)
 204:/usr/include/newlib/c++/9.2.1/cmath ****   { return __builtin_coshf(__x); }
 205:/usr/include/newlib/c++/9.2.1/cmath **** 
 206:/usr/include/newlib/c++/9.2.1/cmath ****   inline _GLIBCXX_CONSTEXPR long double
 207:/usr/include/newlib/c++/9.2.1/cmath ****   cosh(long double __x)
 208:/usr/include/newlib/c++/9.2.1/cmath ****   { return __builtin_coshl(__x); }
 209:/usr/include/newlib/c++/9.2.1/cmath **** #endif
 210:/usr/include/newlib/c++/9.2.1/cmath **** 
 211:/usr/include/newlib/c++/9.2.1/cmath ****   template<typename _Tp>
 212:/usr/include/newlib/c++/9.2.1/cmath ****     inline _GLIBCXX_CONSTEXPR
 213:/usr/include/newlib/c++/9.2.1/cmath ****     typename __gnu_cxx::__enable_if<__is_integer<_Tp>::__value,
 214:/usr/include/newlib/c++/9.2.1/cmath ****                                     double>::__type
 215:/usr/include/newlib/c++/9.2.1/cmath ****     cosh(_Tp __x)
 216:/usr/include/newlib/c++/9.2.1/cmath ****     { return __builtin_cosh(__x); }
 217:/usr/include/newlib/c++/9.2.1/cmath **** 
 218:/usr/include/newlib/c++/9.2.1/cmath ****   using ::exp;
 219:/usr/include/newlib/c++/9.2.1/cmath **** 
 220:/usr/include/newlib/c++/9.2.1/cmath **** #ifndef __CORRECT_ISO_CPP_MATH_H_PROTO
 221:/usr/include/newlib/c++/9.2.1/cmath ****   inline _GLIBCXX_CONSTEXPR float
 222:/usr/include/newlib/c++/9.2.1/cmath ****   exp(float __x)
 223:/usr/include/newlib/c++/9.2.1/cmath ****   { return __builtin_expf(__x); }
 224:/usr/include/newlib/c++/9.2.1/cmath **** 
 225:/usr/include/newlib/c++/9.2.1/cmath ****   inline _GLIBCXX_CONSTEXPR long double
 226:/usr/include/newlib/c++/9.2.1/cmath ****   exp(long double __x)
 227:/usr/include/newlib/c++/9.2.1/cmath ****   { return __builtin_expl(__x); }
 228:/usr/include/newlib/c++/9.2.1/cmath **** #endif
 229:/usr/include/newlib/c++/9.2.1/cmath **** 
 230:/usr/include/newlib/c++/9.2.1/cmath ****   template<typename _Tp>
 231:/usr/include/newlib/c++/9.2.1/cmath ****     inline _GLIBCXX_CONSTEXPR
ARM GAS  /tmp/ccoLrWzv.s 			page 110


 232:/usr/include/newlib/c++/9.2.1/cmath ****     typename __gnu_cxx::__enable_if<__is_integer<_Tp>::__value,
 233:/usr/include/newlib/c++/9.2.1/cmath ****                                     double>::__type
 234:/usr/include/newlib/c++/9.2.1/cmath ****     exp(_Tp __x)
 235:/usr/include/newlib/c++/9.2.1/cmath ****     { return __builtin_exp(__x); }
 236:/usr/include/newlib/c++/9.2.1/cmath **** 
 237:/usr/include/newlib/c++/9.2.1/cmath ****   using ::fabs;
 238:/usr/include/newlib/c++/9.2.1/cmath **** 
 239:/usr/include/newlib/c++/9.2.1/cmath **** #ifndef __CORRECT_ISO_CPP_MATH_H_PROTO
 240:/usr/include/newlib/c++/9.2.1/cmath ****   inline _GLIBCXX_CONSTEXPR float
 241:/usr/include/newlib/c++/9.2.1/cmath ****   fabs(float __x)
 242:/usr/include/newlib/c++/9.2.1/cmath ****   { return __builtin_fabsf(__x); }
 243:/usr/include/newlib/c++/9.2.1/cmath **** 
 244:/usr/include/newlib/c++/9.2.1/cmath ****   inline _GLIBCXX_CONSTEXPR long double
 245:/usr/include/newlib/c++/9.2.1/cmath ****   fabs(long double __x)
 246:/usr/include/newlib/c++/9.2.1/cmath ****   { return __builtin_fabsl(__x); }
 247:/usr/include/newlib/c++/9.2.1/cmath **** #endif
 248:/usr/include/newlib/c++/9.2.1/cmath **** 
 249:/usr/include/newlib/c++/9.2.1/cmath ****   template<typename _Tp>
 250:/usr/include/newlib/c++/9.2.1/cmath ****     inline _GLIBCXX_CONSTEXPR
 251:/usr/include/newlib/c++/9.2.1/cmath ****     typename __gnu_cxx::__enable_if<__is_integer<_Tp>::__value,
 252:/usr/include/newlib/c++/9.2.1/cmath ****                                     double>::__type
 253:/usr/include/newlib/c++/9.2.1/cmath ****     fabs(_Tp __x)
 254:/usr/include/newlib/c++/9.2.1/cmath ****     { return __builtin_fabs(__x); }
 255:/usr/include/newlib/c++/9.2.1/cmath **** 
 256:/usr/include/newlib/c++/9.2.1/cmath ****   using ::floor;
 257:/usr/include/newlib/c++/9.2.1/cmath **** 
 258:/usr/include/newlib/c++/9.2.1/cmath **** #ifndef __CORRECT_ISO_CPP_MATH_H_PROTO
 259:/usr/include/newlib/c++/9.2.1/cmath ****   inline _GLIBCXX_CONSTEXPR float
 260:/usr/include/newlib/c++/9.2.1/cmath ****   floor(float __x)
 261:/usr/include/newlib/c++/9.2.1/cmath ****   { return __builtin_floorf(__x); }
 262:/usr/include/newlib/c++/9.2.1/cmath **** 
 263:/usr/include/newlib/c++/9.2.1/cmath ****   inline _GLIBCXX_CONSTEXPR long double
 264:/usr/include/newlib/c++/9.2.1/cmath ****   floor(long double __x)
 265:/usr/include/newlib/c++/9.2.1/cmath ****   { return __builtin_floorl(__x); }
 266:/usr/include/newlib/c++/9.2.1/cmath **** #endif
 267:/usr/include/newlib/c++/9.2.1/cmath **** 
 268:/usr/include/newlib/c++/9.2.1/cmath ****   template<typename _Tp>
 269:/usr/include/newlib/c++/9.2.1/cmath ****     inline _GLIBCXX_CONSTEXPR
 270:/usr/include/newlib/c++/9.2.1/cmath ****     typename __gnu_cxx::__enable_if<__is_integer<_Tp>::__value,
 271:/usr/include/newlib/c++/9.2.1/cmath ****                                     double>::__type
 272:/usr/include/newlib/c++/9.2.1/cmath ****     floor(_Tp __x)
 273:/usr/include/newlib/c++/9.2.1/cmath ****     { return __builtin_floor(__x); }
 274:/usr/include/newlib/c++/9.2.1/cmath **** 
 275:/usr/include/newlib/c++/9.2.1/cmath ****   using ::fmod;
 276:/usr/include/newlib/c++/9.2.1/cmath **** 
 277:/usr/include/newlib/c++/9.2.1/cmath **** #ifndef __CORRECT_ISO_CPP_MATH_H_PROTO
 278:/usr/include/newlib/c++/9.2.1/cmath ****   inline _GLIBCXX_CONSTEXPR float
 279:/usr/include/newlib/c++/9.2.1/cmath ****   fmod(float __x, float __y)
 280:/usr/include/newlib/c++/9.2.1/cmath ****   { return __builtin_fmodf(__x, __y); }
 281:/usr/include/newlib/c++/9.2.1/cmath **** 
 282:/usr/include/newlib/c++/9.2.1/cmath ****   inline _GLIBCXX_CONSTEXPR long double
 283:/usr/include/newlib/c++/9.2.1/cmath ****   fmod(long double __x, long double __y)
 284:/usr/include/newlib/c++/9.2.1/cmath ****   { return __builtin_fmodl(__x, __y); }
 285:/usr/include/newlib/c++/9.2.1/cmath **** #endif
 286:/usr/include/newlib/c++/9.2.1/cmath **** 
 287:/usr/include/newlib/c++/9.2.1/cmath ****   template<typename _Tp, typename _Up>
 288:/usr/include/newlib/c++/9.2.1/cmath ****     inline _GLIBCXX_CONSTEXPR
ARM GAS  /tmp/ccoLrWzv.s 			page 111


 289:/usr/include/newlib/c++/9.2.1/cmath ****     typename __gnu_cxx::__promote_2<_Tp, _Up>::__type
 290:/usr/include/newlib/c++/9.2.1/cmath ****     fmod(_Tp __x, _Up __y)
 291:/usr/include/newlib/c++/9.2.1/cmath ****     {
 292:/usr/include/newlib/c++/9.2.1/cmath ****       typedef typename __gnu_cxx::__promote_2<_Tp, _Up>::__type __type;
 293:/usr/include/newlib/c++/9.2.1/cmath ****       return fmod(__type(__x), __type(__y));
 294:/usr/include/newlib/c++/9.2.1/cmath ****     }
 295:/usr/include/newlib/c++/9.2.1/cmath **** 
 296:/usr/include/newlib/c++/9.2.1/cmath ****   using ::frexp;
 297:/usr/include/newlib/c++/9.2.1/cmath **** 
 298:/usr/include/newlib/c++/9.2.1/cmath **** #ifndef __CORRECT_ISO_CPP_MATH_H_PROTO
 299:/usr/include/newlib/c++/9.2.1/cmath ****   inline float
 300:/usr/include/newlib/c++/9.2.1/cmath ****   frexp(float __x, int* __exp)
 301:/usr/include/newlib/c++/9.2.1/cmath ****   { return __builtin_frexpf(__x, __exp); }
 302:/usr/include/newlib/c++/9.2.1/cmath **** 
 303:/usr/include/newlib/c++/9.2.1/cmath ****   inline long double
 304:/usr/include/newlib/c++/9.2.1/cmath ****   frexp(long double __x, int* __exp)
 305:/usr/include/newlib/c++/9.2.1/cmath ****   { return __builtin_frexpl(__x, __exp); }
 306:/usr/include/newlib/c++/9.2.1/cmath **** #endif
 307:/usr/include/newlib/c++/9.2.1/cmath **** 
 308:/usr/include/newlib/c++/9.2.1/cmath ****   template<typename _Tp>
 309:/usr/include/newlib/c++/9.2.1/cmath ****     inline _GLIBCXX_CONSTEXPR
 310:/usr/include/newlib/c++/9.2.1/cmath ****     typename __gnu_cxx::__enable_if<__is_integer<_Tp>::__value, 
 311:/usr/include/newlib/c++/9.2.1/cmath ****                                     double>::__type
 312:/usr/include/newlib/c++/9.2.1/cmath ****     frexp(_Tp __x, int* __exp)
 313:/usr/include/newlib/c++/9.2.1/cmath ****     { return __builtin_frexp(__x, __exp); }
 314:/usr/include/newlib/c++/9.2.1/cmath **** 
 315:/usr/include/newlib/c++/9.2.1/cmath ****   using ::ldexp;
 316:/usr/include/newlib/c++/9.2.1/cmath **** 
 317:/usr/include/newlib/c++/9.2.1/cmath **** #ifndef __CORRECT_ISO_CPP_MATH_H_PROTO
 318:/usr/include/newlib/c++/9.2.1/cmath ****   inline _GLIBCXX_CONSTEXPR float
 319:/usr/include/newlib/c++/9.2.1/cmath ****   ldexp(float __x, int __exp)
 320:/usr/include/newlib/c++/9.2.1/cmath ****   { return __builtin_ldexpf(__x, __exp); }
 321:/usr/include/newlib/c++/9.2.1/cmath **** 
 322:/usr/include/newlib/c++/9.2.1/cmath ****   inline _GLIBCXX_CONSTEXPR long double
 323:/usr/include/newlib/c++/9.2.1/cmath ****   ldexp(long double __x, int __exp)
 324:/usr/include/newlib/c++/9.2.1/cmath ****   { return __builtin_ldexpl(__x, __exp); }
 325:/usr/include/newlib/c++/9.2.1/cmath **** #endif
 326:/usr/include/newlib/c++/9.2.1/cmath **** 
 327:/usr/include/newlib/c++/9.2.1/cmath ****   template<typename _Tp>
 328:/usr/include/newlib/c++/9.2.1/cmath ****     inline _GLIBCXX_CONSTEXPR
 329:/usr/include/newlib/c++/9.2.1/cmath ****     typename __gnu_cxx::__enable_if<__is_integer<_Tp>::__value, 
 330:/usr/include/newlib/c++/9.2.1/cmath ****                                     double>::__type
 331:/usr/include/newlib/c++/9.2.1/cmath ****     ldexp(_Tp __x, int __exp)
 332:/usr/include/newlib/c++/9.2.1/cmath ****     { return __builtin_ldexp(__x, __exp); }
 333:/usr/include/newlib/c++/9.2.1/cmath **** 
 334:/usr/include/newlib/c++/9.2.1/cmath ****   using ::log;
 335:/usr/include/newlib/c++/9.2.1/cmath **** 
 336:/usr/include/newlib/c++/9.2.1/cmath **** #ifndef __CORRECT_ISO_CPP_MATH_H_PROTO
 337:/usr/include/newlib/c++/9.2.1/cmath ****   inline _GLIBCXX_CONSTEXPR float
 338:/usr/include/newlib/c++/9.2.1/cmath ****   log(float __x)
 339:/usr/include/newlib/c++/9.2.1/cmath ****   { return __builtin_logf(__x); }
 340:/usr/include/newlib/c++/9.2.1/cmath **** 
 341:/usr/include/newlib/c++/9.2.1/cmath ****   inline _GLIBCXX_CONSTEXPR long double
 342:/usr/include/newlib/c++/9.2.1/cmath ****   log(long double __x)
 343:/usr/include/newlib/c++/9.2.1/cmath ****   { return __builtin_logl(__x); }
 344:/usr/include/newlib/c++/9.2.1/cmath **** #endif
 345:/usr/include/newlib/c++/9.2.1/cmath **** 
ARM GAS  /tmp/ccoLrWzv.s 			page 112


 346:/usr/include/newlib/c++/9.2.1/cmath ****   template<typename _Tp>
 347:/usr/include/newlib/c++/9.2.1/cmath ****     inline _GLIBCXX_CONSTEXPR
 348:/usr/include/newlib/c++/9.2.1/cmath ****     typename __gnu_cxx::__enable_if<__is_integer<_Tp>::__value, 
 349:/usr/include/newlib/c++/9.2.1/cmath ****                                     double>::__type
 350:/usr/include/newlib/c++/9.2.1/cmath ****     log(_Tp __x)
 351:/usr/include/newlib/c++/9.2.1/cmath ****     { return __builtin_log(__x); }
 352:/usr/include/newlib/c++/9.2.1/cmath **** 
 353:/usr/include/newlib/c++/9.2.1/cmath ****   using ::log10;
 354:/usr/include/newlib/c++/9.2.1/cmath **** 
 355:/usr/include/newlib/c++/9.2.1/cmath **** #ifndef __CORRECT_ISO_CPP_MATH_H_PROTO
 356:/usr/include/newlib/c++/9.2.1/cmath ****   inline _GLIBCXX_CONSTEXPR float
 357:/usr/include/newlib/c++/9.2.1/cmath ****   log10(float __x)
 358:/usr/include/newlib/c++/9.2.1/cmath ****   { return __builtin_log10f(__x); }
 359:/usr/include/newlib/c++/9.2.1/cmath **** 
 360:/usr/include/newlib/c++/9.2.1/cmath ****   inline _GLIBCXX_CONSTEXPR long double
 361:/usr/include/newlib/c++/9.2.1/cmath ****   log10(long double __x)
 362:/usr/include/newlib/c++/9.2.1/cmath ****   { return __builtin_log10l(__x); }
 363:/usr/include/newlib/c++/9.2.1/cmath **** #endif
 364:/usr/include/newlib/c++/9.2.1/cmath **** 
 365:/usr/include/newlib/c++/9.2.1/cmath ****   template<typename _Tp>
 366:/usr/include/newlib/c++/9.2.1/cmath ****     inline _GLIBCXX_CONSTEXPR
 367:/usr/include/newlib/c++/9.2.1/cmath ****     typename __gnu_cxx::__enable_if<__is_integer<_Tp>::__value,
 368:/usr/include/newlib/c++/9.2.1/cmath ****                                     double>::__type
 369:/usr/include/newlib/c++/9.2.1/cmath ****     log10(_Tp __x)
 370:/usr/include/newlib/c++/9.2.1/cmath ****     { return __builtin_log10(__x); }
 371:/usr/include/newlib/c++/9.2.1/cmath **** 
 372:/usr/include/newlib/c++/9.2.1/cmath ****   using ::modf;
 373:/usr/include/newlib/c++/9.2.1/cmath **** 
 374:/usr/include/newlib/c++/9.2.1/cmath **** #ifndef __CORRECT_ISO_CPP_MATH_H_PROTO
 375:/usr/include/newlib/c++/9.2.1/cmath ****   inline float
 376:/usr/include/newlib/c++/9.2.1/cmath ****   modf(float __x, float* __iptr)
 377:/usr/include/newlib/c++/9.2.1/cmath ****   { return __builtin_modff(__x, __iptr); }
 378:/usr/include/newlib/c++/9.2.1/cmath **** 
 379:/usr/include/newlib/c++/9.2.1/cmath ****   inline long double
 380:/usr/include/newlib/c++/9.2.1/cmath ****   modf(long double __x, long double* __iptr)
 381:/usr/include/newlib/c++/9.2.1/cmath ****   { return __builtin_modfl(__x, __iptr); }
 382:/usr/include/newlib/c++/9.2.1/cmath **** #endif
 383:/usr/include/newlib/c++/9.2.1/cmath **** 
 384:/usr/include/newlib/c++/9.2.1/cmath ****   using ::pow;
 385:/usr/include/newlib/c++/9.2.1/cmath **** 
 386:/usr/include/newlib/c++/9.2.1/cmath **** #ifndef __CORRECT_ISO_CPP_MATH_H_PROTO
 387:/usr/include/newlib/c++/9.2.1/cmath ****   inline _GLIBCXX_CONSTEXPR float
 388:/usr/include/newlib/c++/9.2.1/cmath ****   pow(float __x, float __y)
 389:/usr/include/newlib/c++/9.2.1/cmath ****   { return __builtin_powf(__x, __y); }
 390:/usr/include/newlib/c++/9.2.1/cmath **** 
 391:/usr/include/newlib/c++/9.2.1/cmath ****   inline _GLIBCXX_CONSTEXPR long double
 392:/usr/include/newlib/c++/9.2.1/cmath ****   pow(long double __x, long double __y)
 393:/usr/include/newlib/c++/9.2.1/cmath ****   { return __builtin_powl(__x, __y); }
 394:/usr/include/newlib/c++/9.2.1/cmath **** 
 395:/usr/include/newlib/c++/9.2.1/cmath **** #if __cplusplus < 201103L
 396:/usr/include/newlib/c++/9.2.1/cmath ****   // _GLIBCXX_RESOLVE_LIB_DEFECTS
 397:/usr/include/newlib/c++/9.2.1/cmath ****   // DR 550. What should the return type of pow(float,int) be?
 398:/usr/include/newlib/c++/9.2.1/cmath ****   inline double
 399:/usr/include/newlib/c++/9.2.1/cmath ****   pow(double __x, int __i)
 400:/usr/include/newlib/c++/9.2.1/cmath ****   { return __builtin_powi(__x, __i); }
 401:/usr/include/newlib/c++/9.2.1/cmath **** 
 402:/usr/include/newlib/c++/9.2.1/cmath ****   inline float
ARM GAS  /tmp/ccoLrWzv.s 			page 113


 403:/usr/include/newlib/c++/9.2.1/cmath ****   pow(float __x, int __n)
 404:/usr/include/newlib/c++/9.2.1/cmath ****   { return __builtin_powif(__x, __n); }
 405:/usr/include/newlib/c++/9.2.1/cmath **** 
 406:/usr/include/newlib/c++/9.2.1/cmath ****   inline long double
 407:/usr/include/newlib/c++/9.2.1/cmath ****   pow(long double __x, int __n)
 408:/usr/include/newlib/c++/9.2.1/cmath ****   { return __builtin_powil(__x, __n); }
 409:/usr/include/newlib/c++/9.2.1/cmath **** #endif
 410:/usr/include/newlib/c++/9.2.1/cmath **** #endif
 411:/usr/include/newlib/c++/9.2.1/cmath **** 
 412:/usr/include/newlib/c++/9.2.1/cmath ****   template<typename _Tp, typename _Up>
 413:/usr/include/newlib/c++/9.2.1/cmath ****     inline _GLIBCXX_CONSTEXPR
 414:/usr/include/newlib/c++/9.2.1/cmath ****     typename __gnu_cxx::__promote_2<_Tp, _Up>::__type
 415:/usr/include/newlib/c++/9.2.1/cmath ****     pow(_Tp __x, _Up __y)
 416:/usr/include/newlib/c++/9.2.1/cmath ****     {
 417:/usr/include/newlib/c++/9.2.1/cmath ****       typedef typename __gnu_cxx::__promote_2<_Tp, _Up>::__type __type;
 418:/usr/include/newlib/c++/9.2.1/cmath ****       return pow(__type(__x), __type(__y));
 419:/usr/include/newlib/c++/9.2.1/cmath ****     }
 420:/usr/include/newlib/c++/9.2.1/cmath **** 
 421:/usr/include/newlib/c++/9.2.1/cmath ****   using ::sin;
 422:/usr/include/newlib/c++/9.2.1/cmath **** 
 423:/usr/include/newlib/c++/9.2.1/cmath **** #ifndef __CORRECT_ISO_CPP_MATH_H_PROTO
 424:/usr/include/newlib/c++/9.2.1/cmath ****   inline _GLIBCXX_CONSTEXPR float
 425:/usr/include/newlib/c++/9.2.1/cmath ****   sin(float __x)
 426:/usr/include/newlib/c++/9.2.1/cmath ****   { return __builtin_sinf(__x); }
 3723              		.loc 17 426 26 view .LVU803
 3724 0064 B0EE680A 		vmov.f32	s0, s17
 3725              	.LBE1388:
 3726              	.LBE1387:
 315:../../libdaisy/src/hid/disp/display.h ****         start_y = -sin(start_angle_rad) * radius;
 3727              		.loc 3 315 9 view .LVU804
 3728 0068 F8EE679A 		vcvt.f32.u32	s19, s15
 3729              	.LBB1391:
 3730              	.LBB1389:
 3731              		.loc 17 426 26 view .LVU805
 3732 006c FFF7FEFF 		bl	sinf
 3733              	.LVL261:
 3734 0070 F0EE408A 		vmov.f32	s17, s0
 3735              	.LVL262:
 3736              		.loc 17 426 26 view .LVU806
 3737              	.LBE1389:
 3738              	.LBE1391:
 3739              	.LBB1392:
 3740              	.LBB1393:
 185:/usr/include/newlib/c++/9.2.1/cmath **** 
 3741              		.loc 17 185 26 view .LVU807
 3742 0074 B0EE4A0A 		vmov.f32	s0, s20
 3743 0078 FFF7FEFF 		bl	cosf
 3744              	.LVL263:
 3745 007c B0EE409A 		vmov.f32	s18, s0
 3746              	.LBE1393:
 3747              	.LBE1392:
 3748              	.LBB1395:
 3749              	.LBB1396:
 3750              		.loc 17 426 26 view .LVU808
 3751 0080 B0EE4A0A 		vmov.f32	s0, s20
 3752 0084 FFF7FEFF 		bl	sinf
 3753              	.LVL264:
ARM GAS  /tmp/ccoLrWzv.s 			page 114


 3754              	.LBE1396:
 3755              	.LBE1395:
 316:../../libdaisy/src/hid/disp/display.h ****         end_x   = cos(end_angle_rad) * radius;
 3756              		.loc 3 316 9 view .LVU809
 3757 0088 68EEE98A 		vnmul.f32	s17, s17, s19
 318:../../libdaisy/src/hid/disp/display.h **** 
 3758              		.loc 3 318 9 view .LVU810
 3759 008c 20EE690A 		vnmul.f32	s0, s0, s19
 315:../../libdaisy/src/hid/disp/display.h ****         start_y = -sin(start_angle_rad) * radius;
 3760              		.loc 3 315 9 view .LVU811
 3761 0090 29EE888A 		vmul.f32	s16, s19, s16
 3762              	.LVL265:
 3763              	.LBB1398:
 3764              	.LBI1387:
 425:/usr/include/newlib/c++/9.2.1/cmath ****   { return __builtin_sinf(__x); }
 3765              		.loc 17 425 3 is_stmt 1 view .LVU812
 3766              	.LBB1390:
 3767              		.loc 17 426 5 view .LVU813
 3768              		.loc 17 426 5 is_stmt 0 view .LVU814
 3769              	.LBE1390:
 3770              	.LBE1398:
 3771              	.LBB1399:
 3772              	.LBI1392:
 184:/usr/include/newlib/c++/9.2.1/cmath ****   { return __builtin_cosf(__x); }
 3773              		.loc 17 184 3 is_stmt 1 view .LVU815
 3774              	.LBB1394:
 185:/usr/include/newlib/c++/9.2.1/cmath **** 
 3775              		.loc 17 185 5 view .LVU816
 185:/usr/include/newlib/c++/9.2.1/cmath **** 
 3776              		.loc 17 185 5 is_stmt 0 view .LVU817
 3777              	.LBE1394:
 3778              	.LBE1399:
 317:../../libdaisy/src/hid/disp/display.h ****         end_y   = -sin(end_angle_rad) * radius;
 3779              		.loc 3 317 9 view .LVU818
 3780 0094 29EE899A 		vmul.f32	s18, s19, s18
 3781              	.LVL266:
 3782              	.LBB1400:
 3783              	.LBI1395:
 425:/usr/include/newlib/c++/9.2.1/cmath ****   { return __builtin_sinf(__x); }
 3784              		.loc 17 425 3 is_stmt 1 view .LVU819
 3785              	.LBB1397:
 3786              		.loc 17 426 5 view .LVU820
 3787              		.loc 17 426 5 is_stmt 0 view .LVU821
 3788              	.LBE1397:
 3789              	.LBE1400:
 322:../../libdaisy/src/hid/disp/display.h ****            < 2.0f)
 3790              		.loc 3 322 25 view .LVU822
 3791 0098 70EE687A 		vsub.f32	s15, s0, s17
 321:../../libdaisy/src/hid/disp/display.h ****                + (end_y - start_y) * (end_y - start_y)
 3792              		.loc 3 321 9 view .LVU823
 3793 009c F0EE006A 		vmov.f32	s13, #2.0e+0
 321:../../libdaisy/src/hid/disp/display.h ****                + (end_y - start_y) * (end_y - start_y)
 3794              		.loc 3 321 19 view .LVU824
 3795 00a0 39EE487A 		vsub.f32	s14, s18, s16
 322:../../libdaisy/src/hid/disp/display.h ****            < 2.0f)
 3796              		.loc 3 322 36 view .LVU825
 3797 00a4 67EEA77A 		vmul.f32	s15, s15, s15
ARM GAS  /tmp/ccoLrWzv.s 			page 115


 322:../../libdaisy/src/hid/disp/display.h ****            < 2.0f)
 3798              		.loc 3 322 16 view .LVU826
 3799 00a8 E7EE077A 		vfma.f32	s15, s14, s14
 321:../../libdaisy/src/hid/disp/display.h ****                + (end_y - start_y) * (end_y - start_y)
 3800              		.loc 3 321 9 view .LVU827
 3801 00ac F4EEE67A 		vcmpe.f32	s15, s13
 3802 00b0 F1EE10FA 		vmrs	APSR_nzcv, FPSCR
 3803 00b4 06D5     		bpl	.L307
 325:../../libdaisy/src/hid/disp/display.h ****                 circle = true;
 3804              		.loc 3 325 13 view .LVU828
 3805 00b6 159B     		ldr	r3, [sp, #84]
 3806 00b8 B42B     		cmp	r3, #180
 3807 00ba 40F3EE80 		ble	.L248
 326:../../libdaisy/src/hid/disp/display.h ****             else
 3808              		.loc 3 326 17 view .LVU829
 3809 00be 4FF0010E 		mov	lr, #1
 3810 00c2 01E0     		b	.L251
 3811              	.L307:
 304:../../libdaisy/src/hid/disp/display.h **** 
 3812              		.loc 3 304 14 view .LVU830
 3813 00c4 4FF0000E 		mov	lr, #0
 3814              	.L251:
 3815              	.LVL267:
 302:../../libdaisy/src/hid/disp/display.h **** 
 3816              		.loc 3 302 9 view .LVU831
 3817 00c8 0126     		movs	r6, #1
 334:../../libdaisy/src/hid/disp/display.h **** 
 3818              		.loc 3 334 17 view .LVU832
 3819 00ca C4F10103 		rsb	r3, r4, #1
 302:../../libdaisy/src/hid/disp/display.h **** 
 3820              		.loc 3 302 9 view .LVU833
 3821 00ce 3A46     		mov	r2, r7
 332:../../libdaisy/src/hid/disp/display.h ****         t_y = 0;
 3822              		.loc 3 332 9 view .LVU834
 3823 00d0 6042     		rsbs	r0, r4, #0
 3824              	.LVL268:
 334:../../libdaisy/src/hid/disp/display.h **** 
 3825              		.loc 3 334 17 view .LVU835
 3826 00d2 B340     		lsls	r3, r3, r6
 3827              	.LVL269:
 333:../../libdaisy/src/hid/disp/display.h ****         err = 2 - 2 * radius;
 3828              		.loc 3 333 9 view .LVU836
 3829 00d4 0024     		movs	r4, #0
 3830              	.LVL270:
 302:../../libdaisy/src/hid/disp/display.h **** 
 3831              		.loc 3 302 9 view .LVU837
 3832 00d6 3146     		mov	r1, r6
 3833 00d8 3746     		mov	r7, r6
 3834              	.LVL271:
 302:../../libdaisy/src/hid/disp/display.h **** 
 3835              		.loc 3 302 9 view .LVU838
 3836 00da 9446     		mov	ip, r2
 3837 00dc 0196     		str	r6, [sp, #4]
 3838              	.LVL272:
 3839              	.L277:
 338:../../libdaisy/src/hid/disp/display.h ****             {
 3840              		.loc 3 338 13 view .LVU839
ARM GAS  /tmp/ccoLrWzv.s 			page 116


 3841 00de BEF1000F 		cmp	lr, #0
 3842 00e2 6AD1     		bne	.L253
 343:../../libdaisy/src/hid/disp/display.h ****                 t_exy  = end_x * t_y;
 3843              		.loc 3 343 34 view .LVU840
 3844 00e4 4242     		rsbs	r2, r0, #0
 340:../../libdaisy/src/hid/disp/display.h ****                 t_syx  = start_y * t_x;
 3845              		.loc 3 340 17 view .LVU841
 3846 00e6 06EE904A 		vmov	s13, r4	@ int
 342:../../libdaisy/src/hid/disp/display.h ****                 t_synx = start_y * -t_x;
 3847              		.loc 3 342 34 view .LVU842
 3848 00ea 6142     		rsbs	r1, r4, #0
 3849              	.LVL273:
 343:../../libdaisy/src/hid/disp/display.h ****                 t_exy  = end_x * t_y;
 3850              		.loc 3 343 34 view .LVU843
 3851 00ec 07EE102A 		vmov	s14, r2	@ int
 340:../../libdaisy/src/hid/disp/display.h ****                 t_syx  = start_y * t_x;
 3852              		.loc 3 340 17 view .LVU844
 3853 00f0 F8EEE66A 		vcvt.f32.s32	s13, s13
 342:../../libdaisy/src/hid/disp/display.h ****                 t_synx = start_y * -t_x;
 3854              		.loc 3 342 34 view .LVU845
 3855 00f4 07EE901A 		vmov	s15, r1	@ int
 349:../../libdaisy/src/hid/disp/display.h ****                 {
 3856              		.loc 3 349 17 view .LVU846
 3857 00f8 159A     		ldr	r2, [sp, #84]
 343:../../libdaisy/src/hid/disp/display.h ****                 t_exy  = end_x * t_y;
 3858              		.loc 3 343 34 view .LVU847
 3859 00fa B8EEC77A 		vcvt.f32.s32	s14, s14
 340:../../libdaisy/src/hid/disp/display.h ****                 t_syx  = start_y * t_x;
 3860              		.loc 3 340 17 view .LVU848
 3861 00fe 66EE884A 		vmul.f32	s9, s13, s16
 3862              	.LVL274:
 349:../../libdaisy/src/hid/disp/display.h ****                 {
 3863              		.loc 3 349 17 view .LVU849
 3864 0102 B42A     		cmp	r2, #180
 344:../../libdaisy/src/hid/disp/display.h ****                 t_eyx  = end_y * t_x;
 3865              		.loc 3 344 17 view .LVU850
 3866 0104 26EE896A 		vmul.f32	s12, s13, s18
 341:../../libdaisy/src/hid/disp/display.h ****                 t_sxny = start_x * -t_y;
 3867              		.loc 3 341 17 view .LVU851
 3868 0108 06EE900A 		vmov	s13, r0	@ int
 343:../../libdaisy/src/hid/disp/display.h ****                 t_exy  = end_x * t_y;
 3869              		.loc 3 343 17 view .LVU852
 3870 010c 27EE284A 		vmul.f32	s8, s14, s17
 342:../../libdaisy/src/hid/disp/display.h ****                 t_synx = start_y * -t_x;
 3871              		.loc 3 342 34 view .LVU853
 3872 0110 F8EEE77A 		vcvt.f32.s32	s15, s15
 341:../../libdaisy/src/hid/disp/display.h ****                 t_sxny = start_x * -t_y;
 3873              		.loc 3 341 17 view .LVU854
 3874 0114 F8EEE66A 		vcvt.f32.s32	s13, s13
 351:../../libdaisy/src/hid/disp/display.h ****                     d2 = (t_sxy - t_syx < 0 || t_exy - t_eyx > 0);
 3875              		.loc 3 351 33 view .LVU855
 3876 0118 74EEC43A 		vsub.f32	s7, s9, s8
 342:../../libdaisy/src/hid/disp/display.h ****                 t_synx = start_y * -t_x;
 3877              		.loc 3 342 17 view .LVU856
 3878 011c 67EE885A 		vmul.f32	s11, s15, s16
 341:../../libdaisy/src/hid/disp/display.h ****                 t_sxny = start_x * -t_y;
 3879              		.loc 3 341 17 view .LVU857
ARM GAS  /tmp/ccoLrWzv.s 			page 117


 3880 0120 26EEA85A 		vmul.f32	s10, s13, s17
 3881              	.LVL275:
 346:../../libdaisy/src/hid/disp/display.h ****                 t_eynx = end_y * -t_x;
 3882              		.loc 3 346 17 view .LVU858
 3883 0124 67EE897A 		vmul.f32	s15, s15, s18
 347:../../libdaisy/src/hid/disp/display.h **** 
 3884              		.loc 3 347 17 view .LVU859
 3885 0128 27EE007A 		vmul.f32	s14, s14, s0
 345:../../libdaisy/src/hid/disp/display.h ****                 t_exny = end_x * -t_y;
 3886              		.loc 3 345 17 view .LVU860
 3887 012c 66EE806A 		vmul.f32	s13, s13, s0
 3888              	.LVL276:
 351:../../libdaisy/src/hid/disp/display.h ****                     d2 = (t_sxy - t_syx < 0 || t_exy - t_eyx > 0);
 3889              		.loc 3 351 46 view .LVU861
 3890 0130 F5EEC03A 		vcmpe.f32	s7, #0
 349:../../libdaisy/src/hid/disp/display.h ****                 {
 3891              		.loc 3 349 17 view .LVU862
 3892 0134 40F3DC80 		ble	.L254
 351:../../libdaisy/src/hid/disp/display.h ****                     d2 = (t_sxy - t_syx < 0 || t_exy - t_eyx > 0);
 3893              		.loc 3 351 46 view .LVU863
 3894 0138 F1EE10FA 		vmrs	APSR_nzcv, FPSCR
 3895 013c 00F14D81 		bmi	.L280
 351:../../libdaisy/src/hid/disp/display.h ****                     d2 = (t_sxy - t_syx < 0 || t_exy - t_eyx > 0);
 3896              		.loc 3 351 55 discriminator 2 view .LVU864
 3897 0140 76EE473A 		vsub.f32	s7, s12, s14
 352:../../libdaisy/src/hid/disp/display.h ****                     d3 = (t_sxny - t_syx < 0 || t_exny - t_eyx > 0);
 3898              		.loc 3 352 33 discriminator 2 view .LVU865
 3899 0144 74EEC54A 		vsub.f32	s9, s9, s10
 3900              	.LVL277:
 351:../../libdaisy/src/hid/disp/display.h ****                     d2 = (t_sxy - t_syx < 0 || t_exy - t_eyx > 0);
 3901              		.loc 3 351 46 discriminator 2 view .LVU866
 3902 0148 F5EEC03A 		vcmpe.f32	s7, #0
 3903 014c F1EE10FA 		vmrs	APSR_nzcv, FPSCR
 352:../../libdaisy/src/hid/disp/display.h ****                     d3 = (t_sxny - t_syx < 0 || t_exny - t_eyx > 0);
 3904              		.loc 3 352 45 discriminator 2 view .LVU867
 3905 0150 F5EEC04A 		vcmpe.f32	s9, #0
 351:../../libdaisy/src/hid/disp/display.h ****                     d2 = (t_sxy - t_syx < 0 || t_exy - t_eyx > 0);
 3906              		.loc 3 351 46 discriminator 2 view .LVU868
 3907 0154 CCBF     		ite	gt
 3908 0156 0122     		movgt	r2, #1
 3909 0158 0022     		movle	r2, #0
 352:../../libdaisy/src/hid/disp/display.h ****                     d3 = (t_sxny - t_syx < 0 || t_exny - t_eyx > 0);
 3910              		.loc 3 352 45 discriminator 2 view .LVU869
 3911 015a F1EE10FA 		vmrs	APSR_nzcv, FPSCR
 351:../../libdaisy/src/hid/disp/display.h ****                     d2 = (t_sxy - t_syx < 0 || t_exy - t_eyx > 0);
 3912              		.loc 3 351 46 discriminator 2 view .LVU870
 3913 015e 0192     		str	r2, [sp, #4]
 3914              	.LVL278:
 352:../../libdaisy/src/hid/disp/display.h ****                     d3 = (t_sxny - t_syx < 0 || t_exny - t_eyx > 0);
 3915              		.loc 3 352 45 discriminator 2 view .LVU871
 3916 0160 00F14581 		bmi	.L281
 3917              	.L321:
 352:../../libdaisy/src/hid/disp/display.h ****                     d3 = (t_sxny - t_syx < 0 || t_exny - t_eyx > 0);
 3918              		.loc 3 352 54 discriminator 2 view .LVU872
 3919 0164 36EE666A 		vsub.f32	s12, s12, s13
 3920              	.LVL279:
 353:../../libdaisy/src/hid/disp/display.h ****                     d4 = (t_sxny - t_synx < 0 || t_exny - t_eynx > 0);
ARM GAS  /tmp/ccoLrWzv.s 			page 118


 3921              		.loc 3 353 34 discriminator 2 view .LVU873
 3922 0168 35EEC55A 		vsub.f32	s10, s11, s10
 3923              	.LVL280:
 352:../../libdaisy/src/hid/disp/display.h ****                     d3 = (t_sxny - t_syx < 0 || t_exny - t_eyx > 0);
 3924              		.loc 3 352 45 discriminator 2 view .LVU874
 3925 016c B5EEC06A 		vcmpe.f32	s12, #0
 3926 0170 F1EE10FA 		vmrs	APSR_nzcv, FPSCR
 353:../../libdaisy/src/hid/disp/display.h ****                     d4 = (t_sxny - t_synx < 0 || t_exny - t_eynx > 0);
 3927              		.loc 3 353 46 discriminator 2 view .LVU875
 3928 0174 B5EEC05A 		vcmpe.f32	s10, #0
 352:../../libdaisy/src/hid/disp/display.h ****                     d3 = (t_sxny - t_syx < 0 || t_exny - t_eyx > 0);
 3929              		.loc 3 352 45 discriminator 2 view .LVU876
 3930 0178 CCBF     		ite	gt
 3931 017a 0121     		movgt	r1, #1
 3932 017c 0021     		movle	r1, #0
 3933              	.LVL281:
 353:../../libdaisy/src/hid/disp/display.h ****                     d4 = (t_sxny - t_synx < 0 || t_exny - t_eynx > 0);
 3934              		.loc 3 353 46 discriminator 2 view .LVU877
 3935 017e F1EE10FA 		vmrs	APSR_nzcv, FPSCR
 3936 0182 00F13D81 		bmi	.L282
 3937              	.L322:
 353:../../libdaisy/src/hid/disp/display.h ****                     d4 = (t_sxny - t_synx < 0 || t_exny - t_eynx > 0);
 3938              		.loc 3 353 56 discriminator 2 view .LVU878
 3939 0186 77EEE66A 		vsub.f32	s13, s15, s13
 3940              	.LVL282:
 353:../../libdaisy/src/hid/disp/display.h ****                     d4 = (t_sxny - t_synx < 0 || t_exny - t_eynx > 0);
 3941              		.loc 3 353 46 discriminator 2 view .LVU879
 3942 018a F5EEC06A 		vcmpe.f32	s13, #0
 3943 018e F1EE10FA 		vmrs	APSR_nzcv, FPSCR
 3944 0192 CCBF     		ite	gt
 3945 0194 0126     		movgt	r6, #1
 3946              	.LVL283:
 353:../../libdaisy/src/hid/disp/display.h ****                     d4 = (t_sxny - t_synx < 0 || t_exny - t_eynx > 0);
 3947              		.loc 3 353 46 discriminator 2 view .LVU880
 3948 0196 0026     		movle	r6, #0
 3949              	.L257:
 3950              	.LVL284:
 354:../../libdaisy/src/hid/disp/display.h ****                 }
 3951              		.loc 3 354 34 discriminator 6 view .LVU881
 3952 0198 75EEC45A 		vsub.f32	s11, s11, s8
 3953              	.LVL285:
 354:../../libdaisy/src/hid/disp/display.h ****                 }
 3954              		.loc 3 354 47 discriminator 6 view .LVU882
 3955 019c F5EEC05A 		vcmpe.f32	s11, #0
 3956 01a0 F1EE10FA 		vmrs	APSR_nzcv, FPSCR
 3957 01a4 00F11781 		bmi	.L283
 3958              	.L313:
 361:../../libdaisy/src/hid/disp/display.h ****                 }
 3959              		.loc 3 361 57 discriminator 1 view .LVU883
 3960 01a8 77EEC77A 		vsub.f32	s15, s15, s14
 3961              	.LVL286:
 361:../../libdaisy/src/hid/disp/display.h ****                 }
 3962              		.loc 3 361 47 discriminator 1 view .LVU884
 3963 01ac F5EEC07A 		vcmpe.f32	s15, #0
 3964 01b0 F1EE10FA 		vmrs	APSR_nzcv, FPSCR
 3965 01b4 CCBF     		ite	gt
 3966 01b6 0127     		movgt	r7, #1
ARM GAS  /tmp/ccoLrWzv.s 			page 119


 3967              	.LVL287:
 361:../../libdaisy/src/hid/disp/display.h ****                 }
 3968              		.loc 3 361 47 discriminator 1 view .LVU885
 3969 01b8 0027     		movle	r7, #0
 3970              	.LVL288:
 3971              	.L253:
 365:../../libdaisy/src/hid/disp/display.h ****                 ((ChildType*)(this))
 3972              		.loc 3 365 13 view .LVU886
 3973 01ba 019A     		ldr	r2, [sp, #4]
 3974 01bc F2B1     		cbz	r2, .L265
 366:../../libdaisy/src/hid/disp/display.h ****                     ->ChildType::DrawPixel(x - t_x, y + t_y, on);
 3975              		.loc 3 366 17 view .LVU887
 3976 01be ACEB0009 		sub	r9, ip, r0
 3977 01c2 04EB0805 		add	r5, r4, r8
 3978              	.LVL289:
 3979              	.LBB1401:
 3980              	.LBI1401:
  41:../../libdaisy/src/hid/disp/oled_display.h ****     {
 3981              		.loc 2 41 10 is_stmt 1 view .LVU888
 3982              	.LBB1402:
 3983              	.LBI1402:
 239:../../libdaisy/src/dev/oled_ssd130x.h ****     {
 3984              		.loc 14 239 10 view .LVU889
 3985              	.LBB1403:
 241:../../libdaisy/src/dev/oled_ssd130x.h ****             return;
 3986              		.loc 14 241 9 is_stmt 0 view .LVU890
 3987 01c6 B9F17F0F 		cmp	r9, #127
 3988 01ca 17D8     		bhi	.L265
 3989 01cc 3F2D     		cmp	r5, #63
 3990 01ce 15D8     		bhi	.L265
 244:../../libdaisy/src/dev/oled_ssd130x.h ****         else
 3991              		.loc 14 244 28 view .LVU891
 3992 01d0 4FEAD50A 		lsr	r10, r5, #3
 244:../../libdaisy/src/dev/oled_ssd130x.h ****         else
 3993              		.loc 14 244 48 view .LVU892
 3994 01d4 4FF0010B 		mov	fp, #1
 244:../../libdaisy/src/dev/oled_ssd130x.h ****         else
 3995              		.loc 14 244 54 view .LVU893
 3996 01d8 05F00705 		and	r5, r5, #7
 3997              	.LVL290:
 243:../../libdaisy/src/dev/oled_ssd130x.h ****             buffer_[x + (y / 8) * width] |= (1 << (y % 8));
 3998              		.loc 14 243 9 view .LVU894
 3999 01dc 029A     		ldr	r2, [sp, #8]
 244:../../libdaisy/src/dev/oled_ssd130x.h ****         else
 4000              		.loc 14 244 42 view .LVU895
 4001 01de 09EBCA19 		add	r9, r9, r10, lsl #7
 4002              	.LVL291:
 244:../../libdaisy/src/dev/oled_ssd130x.h ****         else
 4003              		.loc 14 244 48 view .LVU896
 4004 01e2 0BFA05F5 		lsl	r5, fp, r5
 243:../../libdaisy/src/dev/oled_ssd130x.h ****             buffer_[x + (y / 8) * width] |= (1 << (y % 8));
 4005              		.loc 14 243 9 view .LVU897
 4006 01e6 002A     		cmp	r2, #0
 4007 01e8 00F0C280 		beq	.L266
 244:../../libdaisy/src/dev/oled_ssd130x.h ****         else
 4008              		.loc 14 244 13 view .LVU898
 4009 01ec 039A     		ldr	r2, [sp, #12]
ARM GAS  /tmp/ccoLrWzv.s 			page 120


 4010 01ee 9144     		add	r9, r9, r2
 244:../../libdaisy/src/dev/oled_ssd130x.h ****         else
 4011              		.loc 14 244 42 view .LVU899
 4012 01f0 99F814B0 		ldrb	fp, [r9, #20]	@ zero_extendqisi2
 4013 01f4 45EA0B05 		orr	r5, r5, fp
 244:../../libdaisy/src/dev/oled_ssd130x.h ****         else
 4014              		.loc 14 244 13 view .LVU900
 4015 01f8 89F81450 		strb	r5, [r9, #20]
 4016              	.LVL292:
 4017              	.L265:
 244:../../libdaisy/src/dev/oled_ssd130x.h ****         else
 4018              		.loc 14 244 13 view .LVU901
 4019              	.LBE1403:
 4020              	.LBE1402:
 4021              	.LBE1401:
 368:../../libdaisy/src/hid/disp/display.h ****                 ((ChildType*)(this))
 4022              		.loc 3 368 13 view .LVU902
 4023 01fc F1B1     		cbz	r1, .L267
 4024              	.L320:
 369:../../libdaisy/src/hid/disp/display.h ****                     ->ChildType::DrawPixel(x + t_x, y + t_y, on);
 4025              		.loc 3 369 17 view .LVU903
 4026 01fe 00EB0C09 		add	r9, r0, ip
 4027 0202 04EB0805 		add	r5, r4, r8
 4028              	.LVL293:
 4029              	.LBB1408:
 4030              	.LBI1408:
  41:../../libdaisy/src/hid/disp/oled_display.h ****     {
 4031              		.loc 2 41 10 is_stmt 1 view .LVU904
 4032              	.LBB1409:
 4033              	.LBI1409:
 239:../../libdaisy/src/dev/oled_ssd130x.h ****     {
 4034              		.loc 14 239 10 view .LVU905
 4035              	.LBB1410:
 241:../../libdaisy/src/dev/oled_ssd130x.h ****             return;
 4036              		.loc 14 241 9 is_stmt 0 view .LVU906
 4037 0206 B9F17F0F 		cmp	r9, #127
 4038 020a 17D8     		bhi	.L267
 4039 020c 3F2D     		cmp	r5, #63
 4040 020e 15D8     		bhi	.L267
 244:../../libdaisy/src/dev/oled_ssd130x.h ****         else
 4041              		.loc 14 244 28 view .LVU907
 4042 0210 4FEAD50A 		lsr	r10, r5, #3
 244:../../libdaisy/src/dev/oled_ssd130x.h ****         else
 4043              		.loc 14 244 48 view .LVU908
 4044 0214 4FF0010B 		mov	fp, #1
 244:../../libdaisy/src/dev/oled_ssd130x.h ****         else
 4045              		.loc 14 244 54 view .LVU909
 4046 0218 05F00705 		and	r5, r5, #7
 4047              	.LVL294:
 243:../../libdaisy/src/dev/oled_ssd130x.h ****             buffer_[x + (y / 8) * width] |= (1 << (y % 8));
 4048              		.loc 14 243 9 view .LVU910
 4049 021c 029A     		ldr	r2, [sp, #8]
 244:../../libdaisy/src/dev/oled_ssd130x.h ****         else
 4050              		.loc 14 244 42 view .LVU911
 4051 021e 09EBCA19 		add	r9, r9, r10, lsl #7
 4052              	.LVL295:
 244:../../libdaisy/src/dev/oled_ssd130x.h ****         else
ARM GAS  /tmp/ccoLrWzv.s 			page 121


 4053              		.loc 14 244 48 view .LVU912
 4054 0222 0BFA05F5 		lsl	r5, fp, r5
 243:../../libdaisy/src/dev/oled_ssd130x.h ****             buffer_[x + (y / 8) * width] |= (1 << (y % 8));
 4055              		.loc 14 243 9 view .LVU913
 4056 0226 002A     		cmp	r2, #0
 4057 0228 00F08E80 		beq	.L268
 244:../../libdaisy/src/dev/oled_ssd130x.h ****         else
 4058              		.loc 14 244 13 view .LVU914
 4059 022c 039A     		ldr	r2, [sp, #12]
 4060 022e 9144     		add	r9, r9, r2
 244:../../libdaisy/src/dev/oled_ssd130x.h ****         else
 4061              		.loc 14 244 42 view .LVU915
 4062 0230 99F814B0 		ldrb	fp, [r9, #20]	@ zero_extendqisi2
 4063 0234 45EA0B05 		orr	r5, r5, fp
 244:../../libdaisy/src/dev/oled_ssd130x.h ****         else
 4064              		.loc 14 244 13 view .LVU916
 4065 0238 89F81450 		strb	r5, [r9, #20]
 4066              	.LVL296:
 4067              	.L267:
 244:../../libdaisy/src/dev/oled_ssd130x.h ****         else
 4068              		.loc 14 244 13 view .LVU917
 4069              	.LBE1410:
 4070              	.LBE1409:
 4071              	.LBE1408:
 371:../../libdaisy/src/hid/disp/display.h ****                 ((ChildType*)(this))
 4072              		.loc 3 371 13 view .LVU918
 4073 023c EEB1     		cbz	r6, .L269
 4074              	.L319:
 372:../../libdaisy/src/hid/disp/display.h ****                     ->ChildType::DrawPixel(x + t_x, y - t_y, on);
 4075              		.loc 3 372 17 view .LVU919
 4076 023e 00EB0C09 		add	r9, r0, ip
 4077 0242 A8EB0405 		sub	r5, r8, r4
 4078              	.LVL297:
 4079              	.LBB1415:
 4080              	.LBI1415:
  41:../../libdaisy/src/hid/disp/oled_display.h ****     {
 4081              		.loc 2 41 10 is_stmt 1 view .LVU920
 4082              	.LBB1416:
 4083              	.LBI1416:
 239:../../libdaisy/src/dev/oled_ssd130x.h ****     {
 4084              		.loc 14 239 10 view .LVU921
 4085              	.LBB1417:
 241:../../libdaisy/src/dev/oled_ssd130x.h ****             return;
 4086              		.loc 14 241 9 is_stmt 0 view .LVU922
 4087 0246 B9F17F0F 		cmp	r9, #127
 4088 024a 16D8     		bhi	.L269
 4089 024c 3F2D     		cmp	r5, #63
 4090 024e 14D8     		bhi	.L269
 244:../../libdaisy/src/dev/oled_ssd130x.h ****         else
 4091              		.loc 14 244 28 view .LVU923
 4092 0250 4FEAD50A 		lsr	r10, r5, #3
 244:../../libdaisy/src/dev/oled_ssd130x.h ****         else
 4093              		.loc 14 244 48 view .LVU924
 4094 0254 4FF0010B 		mov	fp, #1
 244:../../libdaisy/src/dev/oled_ssd130x.h ****         else
 4095              		.loc 14 244 54 view .LVU925
 4096 0258 05F00705 		and	r5, r5, #7
ARM GAS  /tmp/ccoLrWzv.s 			page 122


 4097              	.LVL298:
 243:../../libdaisy/src/dev/oled_ssd130x.h ****             buffer_[x + (y / 8) * width] |= (1 << (y % 8));
 4098              		.loc 14 243 9 view .LVU926
 4099 025c 029A     		ldr	r2, [sp, #8]
 244:../../libdaisy/src/dev/oled_ssd130x.h ****         else
 4100              		.loc 14 244 42 view .LVU927
 4101 025e 09EBCA19 		add	r9, r9, r10, lsl #7
 4102              	.LVL299:
 244:../../libdaisy/src/dev/oled_ssd130x.h ****         else
 4103              		.loc 14 244 48 view .LVU928
 4104 0262 0BFA05F5 		lsl	r5, fp, r5
 243:../../libdaisy/src/dev/oled_ssd130x.h ****             buffer_[x + (y / 8) * width] |= (1 << (y % 8));
 4105              		.loc 14 243 9 view .LVU929
 4106 0266 002A     		cmp	r2, #0
 4107 0268 65D0     		beq	.L270
 244:../../libdaisy/src/dev/oled_ssd130x.h ****         else
 4108              		.loc 14 244 13 view .LVU930
 4109 026a 039A     		ldr	r2, [sp, #12]
 4110 026c 9144     		add	r9, r9, r2
 244:../../libdaisy/src/dev/oled_ssd130x.h ****         else
 4111              		.loc 14 244 42 view .LVU931
 4112 026e 99F814B0 		ldrb	fp, [r9, #20]	@ zero_extendqisi2
 4113 0272 45EA0B05 		orr	r5, r5, fp
 244:../../libdaisy/src/dev/oled_ssd130x.h ****         else
 4114              		.loc 14 244 13 view .LVU932
 4115 0276 89F81450 		strb	r5, [r9, #20]
 4116              	.LVL300:
 4117              	.L269:
 244:../../libdaisy/src/dev/oled_ssd130x.h ****         else
 4118              		.loc 14 244 13 view .LVU933
 4119              	.LBE1417:
 4120              	.LBE1416:
 4121              	.LBE1415:
 374:../../libdaisy/src/hid/disp/display.h ****                 ((ChildType*)(this))
 4122              		.loc 3 374 13 view .LVU934
 4123 027a D7B9     		cbnz	r7, .L314
 4124              	.L271:
 4125              	.LVL301:
 379:../../libdaisy/src/hid/disp/display.h ****             {
 4126              		.loc 3 379 13 view .LVU935
 4127 027c 9C42     		cmp	r4, r3
 4128 027e 16DB     		blt	.L288
 381:../../libdaisy/src/hid/disp/display.h ****                 err = err + (t_y * 2 + 1);
 4129              		.loc 3 381 17 view .LVU936
 4130 0280 0134     		adds	r4, r4, #1
 4131              	.LVL302:
 382:../../libdaisy/src/hid/disp/display.h ****                 if(-t_x == t_y && e2 <= t_x)
 4132              		.loc 3 382 38 view .LVU937
 4133 0282 03EB4405 		add	r5, r3, r4, lsl #1
 383:../../libdaisy/src/hid/disp/display.h ****                 {
 4134              		.loc 3 383 17 view .LVU938
 4135 0286 C442     		cmn	r4, r0
 382:../../libdaisy/src/hid/disp/display.h ****                 if(-t_x == t_y && e2 <= t_x)
 4136              		.loc 3 382 17 view .LVU939
 4137 0288 05F10105 		add	r5, r5, #1
 4138              	.LVL303:
 383:../../libdaisy/src/hid/disp/display.h ****                 {
ARM GAS  /tmp/ccoLrWzv.s 			page 123


 4139              		.loc 3 383 17 view .LVU940
 4140 028c 4FD0     		beq	.L315
 4141              	.LVL304:
 4142              	.L273:
 388:../../libdaisy/src/hid/disp/display.h ****             {
 4143              		.loc 3 388 13 view .LVU941
 4144 028e 9842     		cmp	r0, r3
 4145 0290 08DB     		blt	.L274
 388:../../libdaisy/src/hid/disp/display.h ****             {
 4146              		.loc 3 388 13 view .LVU942
 4147 0292 2B46     		mov	r3, r5
 4148              	.LVL305:
 4149              	.L275:
 393:../../libdaisy/src/hid/disp/display.h ****     }
 4150              		.loc 3 393 21 is_stmt 1 view .LVU943
 4151 0294 0028     		cmp	r0, #0
 4152 0296 7FF722AF 		ble	.L277
 4153              	.LVL306:
 4154              	.L248:
 394:../../libdaisy/src/hid/disp/display.h **** 
 4155              		.loc 3 394 5 is_stmt 0 view .LVU944
 4156 029a 05B0     		add	sp, sp, #20
 4157              		.cfi_remember_state
 4158              		.cfi_def_cfa_offset 60
 4159              		@ sp needed
 4160 029c BDEC068B 		vldm	sp!, {d8-d10}
 4161              		.cfi_restore 84
 4162              		.cfi_restore 85
 4163              		.cfi_restore 82
 4164              		.cfi_restore 83
 4165              		.cfi_restore 80
 4166              		.cfi_restore 81
 4167              		.cfi_def_cfa_offset 36
 4168              	.LVL307:
 394:../../libdaisy/src/hid/disp/display.h **** 
 4169              		.loc 3 394 5 view .LVU945
 4170 02a0 BDE8F08F 		pop	{r4, r5, r6, r7, r8, r9, r10, fp, pc}
 4171              	.LVL308:
 4172              	.L274:
 4173              		.cfi_restore_state
 390:../../libdaisy/src/hid/disp/display.h ****                 err = err + (t_x * 2 + 1);
 4174              		.loc 3 390 17 view .LVU946
 4175 02a4 0130     		adds	r0, r0, #1
 4176              	.LVL309:
 391:../../libdaisy/src/hid/disp/display.h ****             }
 4177              		.loc 3 391 38 view .LVU947
 4178 02a6 05EB4003 		add	r3, r5, r0, lsl #1
 391:../../libdaisy/src/hid/disp/display.h ****             }
 4179              		.loc 3 391 17 view .LVU948
 4180 02aa 0133     		adds	r3, r3, #1
 4181              	.LVL310:
 391:../../libdaisy/src/hid/disp/display.h ****             }
 4182              		.loc 3 391 17 view .LVU949
 4183 02ac F2E7     		b	.L275
 4184              	.LVL311:
 4185              	.L288:
 391:../../libdaisy/src/hid/disp/display.h ****             }
ARM GAS  /tmp/ccoLrWzv.s 			page 124


 4186              		.loc 3 391 17 view .LVU950
 4187 02ae 1D46     		mov	r5, r3
 4188 02b0 EDE7     		b	.L273
 4189              	.LVL312:
 4190              	.L314:
 375:../../libdaisy/src/hid/disp/display.h ****                     ->ChildType::DrawPixel(x - t_x, y - t_y, on);
 4191              		.loc 3 375 17 view .LVU951
 4192 02b2 ACEB0009 		sub	r9, ip, r0
 4193 02b6 A8EB0405 		sub	r5, r8, r4
 4194              	.LVL313:
 4195              	.LBB1422:
 4196              	.LBI1422:
  41:../../libdaisy/src/hid/disp/oled_display.h ****     {
 4197              		.loc 2 41 10 is_stmt 1 view .LVU952
 4198              	.LBB1423:
 4199              	.LBI1423:
 239:../../libdaisy/src/dev/oled_ssd130x.h ****     {
 4200              		.loc 14 239 10 view .LVU953
 4201              	.LBB1424:
 241:../../libdaisy/src/dev/oled_ssd130x.h ****             return;
 4202              		.loc 14 241 9 is_stmt 0 view .LVU954
 4203 02ba B9F17F0F 		cmp	r9, #127
 4204 02be DDD8     		bhi	.L271
 4205 02c0 3F2D     		cmp	r5, #63
 4206 02c2 DBD8     		bhi	.L271
 244:../../libdaisy/src/dev/oled_ssd130x.h ****         else
 4207              		.loc 14 244 28 view .LVU955
 4208 02c4 4FEAD50A 		lsr	r10, r5, #3
 244:../../libdaisy/src/dev/oled_ssd130x.h ****         else
 4209              		.loc 14 244 48 view .LVU956
 4210 02c8 4FF0010B 		mov	fp, #1
 244:../../libdaisy/src/dev/oled_ssd130x.h ****         else
 4211              		.loc 14 244 54 view .LVU957
 4212 02cc 05F00705 		and	r5, r5, #7
 4213              	.LVL314:
 243:../../libdaisy/src/dev/oled_ssd130x.h ****             buffer_[x + (y / 8) * width] |= (1 << (y % 8));
 4214              		.loc 14 243 9 view .LVU958
 4215 02d0 029A     		ldr	r2, [sp, #8]
 244:../../libdaisy/src/dev/oled_ssd130x.h ****         else
 4216              		.loc 14 244 42 view .LVU959
 4217 02d2 09EBCA19 		add	r9, r9, r10, lsl #7
 4218              	.LVL315:
 244:../../libdaisy/src/dev/oled_ssd130x.h ****         else
 4219              		.loc 14 244 48 view .LVU960
 4220 02d6 0BFA05F5 		lsl	r5, fp, r5
 243:../../libdaisy/src/dev/oled_ssd130x.h ****             buffer_[x + (y / 8) * width] |= (1 << (y % 8));
 4221              		.loc 14 243 9 view .LVU961
 4222 02da 002A     		cmp	r2, #0
 4223 02dc 3FD0     		beq	.L272
 244:../../libdaisy/src/dev/oled_ssd130x.h ****         else
 4224              		.loc 14 244 13 view .LVU962
 4225 02de 039A     		ldr	r2, [sp, #12]
 4226 02e0 9144     		add	r9, r9, r2
 244:../../libdaisy/src/dev/oled_ssd130x.h ****         else
 4227              		.loc 14 244 42 view .LVU963
 4228 02e2 99F814B0 		ldrb	fp, [r9, #20]	@ zero_extendqisi2
 4229 02e6 45EA0B05 		orr	r5, r5, fp
ARM GAS  /tmp/ccoLrWzv.s 			page 125


 244:../../libdaisy/src/dev/oled_ssd130x.h ****         else
 4230              		.loc 14 244 13 view .LVU964
 4231 02ea 89F81450 		strb	r5, [r9, #20]
 4232 02ee C5E7     		b	.L271
 4233              	.LVL316:
 4234              	.L254:
 244:../../libdaisy/src/dev/oled_ssd130x.h ****         else
 4235              		.loc 14 244 13 view .LVU965
 4236              	.LBE1424:
 4237              	.LBE1423:
 4238              	.LBE1422:
 358:../../libdaisy/src/hid/disp/display.h ****                     d2 = (t_sxy - t_syx < 0 && t_exy - t_eyx > 0);
 4239              		.loc 3 358 46 view .LVU966
 4240 02f0 F1EE10FA 		vmrs	APSR_nzcv, FPSCR
 4241 02f4 64D4     		bmi	.L316
 4242 02f6 CDF804E0 		str	lr, [sp, #4]
 4243              	.LVL317:
 4244              	.L258:
 359:../../libdaisy/src/hid/disp/display.h ****                     d3 = (t_sxny - t_syx < 0 && t_exny - t_eyx > 0);
 4245              		.loc 3 359 33 discriminator 6 view .LVU967
 4246 02fa 74EEC54A 		vsub.f32	s9, s9, s10
 4247              	.LVL318:
 359:../../libdaisy/src/hid/disp/display.h ****                     d3 = (t_sxny - t_syx < 0 && t_exny - t_eyx > 0);
 4248              		.loc 3 359 45 discriminator 6 view .LVU968
 4249 02fe F5EEC04A 		vcmpe.f32	s9, #0
 4250 0302 F1EE10FA 		vmrs	APSR_nzcv, FPSCR
 4251 0306 51D4     		bmi	.L317
 359:../../libdaisy/src/hid/disp/display.h ****                     d3 = (t_sxny - t_syx < 0 && t_exny - t_eyx > 0);
 4252              		.loc 3 359 45 view .LVU969
 4253 0308 0021     		movs	r1, #0
 4254              	.LVL319:
 4255              	.L260:
 360:../../libdaisy/src/hid/disp/display.h ****                     d4 = (t_sxny - t_synx < 0 && t_exny - t_eynx > 0);
 4256              		.loc 3 360 34 discriminator 6 view .LVU970
 4257 030a 35EEC55A 		vsub.f32	s10, s11, s10
 4258              	.LVL320:
 360:../../libdaisy/src/hid/disp/display.h ****                     d4 = (t_sxny - t_synx < 0 && t_exny - t_eynx > 0);
 4259              		.loc 3 360 46 discriminator 6 view .LVU971
 4260 030e B5EEC05A 		vcmpe.f32	s10, #0
 4261 0312 F1EE10FA 		vmrs	APSR_nzcv, FPSCR
 4262 0316 3FD4     		bmi	.L318
 360:../../libdaisy/src/hid/disp/display.h ****                     d4 = (t_sxny - t_synx < 0 && t_exny - t_eynx > 0);
 4263              		.loc 3 360 46 view .LVU972
 4264 0318 0026     		movs	r6, #0
 4265              	.LVL321:
 4266              	.L262:
 361:../../libdaisy/src/hid/disp/display.h ****                 }
 4267              		.loc 3 361 34 discriminator 6 view .LVU973
 4268 031a 75EEC45A 		vsub.f32	s11, s11, s8
 4269              	.LVL322:
 361:../../libdaisy/src/hid/disp/display.h ****                 }
 4270              		.loc 3 361 47 discriminator 6 view .LVU974
 4271 031e F5EEC05A 		vcmpe.f32	s11, #0
 4272 0322 F1EE10FA 		vmrs	APSR_nzcv, FPSCR
 4273 0326 3FF53FAF 		bmi	.L313
 361:../../libdaisy/src/hid/disp/display.h ****                 }
 4274              		.loc 3 361 47 view .LVU975
ARM GAS  /tmp/ccoLrWzv.s 			page 126


 4275 032a 0027     		movs	r7, #0
 4276              	.LVL323:
 361:../../libdaisy/src/hid/disp/display.h ****                 }
 4277              		.loc 3 361 47 view .LVU976
 4278 032c 45E7     		b	.L253
 4279              	.LVL324:
 4280              	.L315:
 383:../../libdaisy/src/hid/disp/display.h ****                 {
 4281              		.loc 3 383 32 discriminator 1 view .LVU977
 4282 032e 9842     		cmp	r0, r3
 4283 0330 B8DB     		blt	.L274
 385:../../libdaisy/src/hid/disp/display.h ****                 }
 4284              		.loc 3 385 21 view .LVU978
 4285 0332 0023     		movs	r3, #0
 4286              	.LVL325:
 385:../../libdaisy/src/hid/disp/display.h ****                 }
 4287              		.loc 3 385 21 view .LVU979
 4288 0334 ABE7     		b	.L273
 4289              	.LVL326:
 4290              	.L270:
 4291              	.LBB1429:
 4292              	.LBB1421:
 4293              	.LBB1420:
 4294              	.LBB1418:
 4295              	.LBI1418:
 239:../../libdaisy/src/dev/oled_ssd130x.h ****     {
 4296              		.loc 14 239 10 is_stmt 1 view .LVU980
 4297              	.LBB1419:
 246:../../libdaisy/src/dev/oled_ssd130x.h ****     }
 4298              		.loc 14 246 13 is_stmt 0 view .LVU981
 4299 0336 039A     		ldr	r2, [sp, #12]
 4300 0338 9144     		add	r9, r9, r2
 4301              	.LVL327:
 246:../../libdaisy/src/dev/oled_ssd130x.h ****     }
 4302              		.loc 14 246 42 view .LVU982
 4303 033a 99F814B0 		ldrb	fp, [r9, #20]	@ zero_extendqisi2
 4304 033e 2BEA0505 		bic	r5, fp, r5
 4305              	.LVL328:
 246:../../libdaisy/src/dev/oled_ssd130x.h ****     }
 4306              		.loc 14 246 13 view .LVU983
 4307 0342 89F81450 		strb	r5, [r9, #20]
 4308 0346 98E7     		b	.L269
 4309              	.LVL329:
 4310              	.L268:
 246:../../libdaisy/src/dev/oled_ssd130x.h ****     }
 4311              		.loc 14 246 13 view .LVU984
 4312              	.LBE1419:
 4313              	.LBE1418:
 4314              	.LBE1420:
 4315              	.LBE1421:
 4316              	.LBE1429:
 4317              	.LBB1430:
 4318              	.LBB1414:
 4319              	.LBB1413:
 4320              	.LBB1411:
 4321              	.LBI1411:
 239:../../libdaisy/src/dev/oled_ssd130x.h ****     {
ARM GAS  /tmp/ccoLrWzv.s 			page 127


 4322              		.loc 14 239 10 is_stmt 1 view .LVU985
 4323              	.LBB1412:
 246:../../libdaisy/src/dev/oled_ssd130x.h ****     }
 4324              		.loc 14 246 13 is_stmt 0 view .LVU986
 4325 0348 039A     		ldr	r2, [sp, #12]
 4326 034a 9144     		add	r9, r9, r2
 4327              	.LVL330:
 246:../../libdaisy/src/dev/oled_ssd130x.h ****     }
 4328              		.loc 14 246 42 view .LVU987
 4329 034c 99F814B0 		ldrb	fp, [r9, #20]	@ zero_extendqisi2
 4330 0350 2BEA0505 		bic	r5, fp, r5
 4331              	.LVL331:
 246:../../libdaisy/src/dev/oled_ssd130x.h ****     }
 4332              		.loc 14 246 13 view .LVU988
 4333 0354 89F81450 		strb	r5, [r9, #20]
 4334              	.LVL332:
 246:../../libdaisy/src/dev/oled_ssd130x.h ****     }
 4335              		.loc 14 246 13 view .LVU989
 4336              	.LBE1412:
 4337              	.LBE1411:
 4338              	.LBE1413:
 4339              	.LBE1414:
 4340              	.LBE1430:
 371:../../libdaisy/src/hid/disp/display.h ****                 ((ChildType*)(this))
 4341              		.loc 3 371 13 view .LVU990
 4342 0358 002E     		cmp	r6, #0
 4343 035a 8ED0     		beq	.L269
 4344 035c 6FE7     		b	.L319
 4345              	.LVL333:
 4346              	.L272:
 4347              	.LBB1431:
 4348              	.LBB1428:
 4349              	.LBB1427:
 4350              	.LBB1425:
 4351              	.LBI1425:
 239:../../libdaisy/src/dev/oled_ssd130x.h ****     {
 4352              		.loc 14 239 10 is_stmt 1 view .LVU991
 4353              	.LBB1426:
 246:../../libdaisy/src/dev/oled_ssd130x.h ****     }
 4354              		.loc 14 246 13 is_stmt 0 view .LVU992
 4355 035e 039A     		ldr	r2, [sp, #12]
 4356 0360 9144     		add	r9, r9, r2
 4357              	.LVL334:
 246:../../libdaisy/src/dev/oled_ssd130x.h ****     }
 4358              		.loc 14 246 42 view .LVU993
 4359 0362 99F814B0 		ldrb	fp, [r9, #20]	@ zero_extendqisi2
 4360 0366 2BEA0505 		bic	r5, fp, r5
 4361              	.LVL335:
 246:../../libdaisy/src/dev/oled_ssd130x.h ****     }
 4362              		.loc 14 246 13 view .LVU994
 4363 036a 89F81450 		strb	r5, [r9, #20]
 4364 036e 85E7     		b	.L271
 4365              	.LVL336:
 4366              	.L266:
 246:../../libdaisy/src/dev/oled_ssd130x.h ****     }
 4367              		.loc 14 246 13 view .LVU995
 4368              	.LBE1426:
ARM GAS  /tmp/ccoLrWzv.s 			page 128


 4369              	.LBE1425:
 4370              	.LBE1427:
 4371              	.LBE1428:
 4372              	.LBE1431:
 4373              	.LBB1432:
 4374              	.LBB1407:
 4375              	.LBB1406:
 4376              	.LBB1404:
 4377              	.LBI1404:
 239:../../libdaisy/src/dev/oled_ssd130x.h ****     {
 4378              		.loc 14 239 10 is_stmt 1 view .LVU996
 4379              	.LBB1405:
 246:../../libdaisy/src/dev/oled_ssd130x.h ****     }
 4380              		.loc 14 246 13 is_stmt 0 view .LVU997
 4381 0370 039A     		ldr	r2, [sp, #12]
 4382 0372 9144     		add	r9, r9, r2
 4383              	.LVL337:
 246:../../libdaisy/src/dev/oled_ssd130x.h ****     }
 4384              		.loc 14 246 42 view .LVU998
 4385 0374 99F814B0 		ldrb	fp, [r9, #20]	@ zero_extendqisi2
 4386 0378 2BEA0505 		bic	r5, fp, r5
 4387              	.LVL338:
 246:../../libdaisy/src/dev/oled_ssd130x.h ****     }
 4388              		.loc 14 246 13 view .LVU999
 4389 037c 89F81450 		strb	r5, [r9, #20]
 4390              	.LVL339:
 246:../../libdaisy/src/dev/oled_ssd130x.h ****     }
 4391              		.loc 14 246 13 view .LVU1000
 4392              	.LBE1405:
 4393              	.LBE1404:
 4394              	.LBE1406:
 4395              	.LBE1407:
 4396              	.LBE1432:
 368:../../libdaisy/src/hid/disp/display.h ****                 ((ChildType*)(this))
 4397              		.loc 3 368 13 view .LVU1001
 4398 0380 0029     		cmp	r1, #0
 4399 0382 3FF45BAF 		beq	.L267
 4400 0386 3AE7     		b	.L320
 4401              	.L324:
 4402              		.align	3
 4403              	.L323:
 4404 0388 7A008BFC 		.word	4236968058
 4405 038c FA210940 		.word	1074340346
 4406 0390 00000000 		.word	0
 4407 0394 00806640 		.word	1080459264
 4408              	.LVL340:
 4409              	.L318:
 360:../../libdaisy/src/hid/disp/display.h ****                     d4 = (t_sxny - t_synx < 0 && t_exny - t_eynx > 0);
 4410              		.loc 3 360 56 discriminator 1 view .LVU1002
 4411 0398 77EEE66A 		vsub.f32	s13, s15, s13
 4412              	.LVL341:
 360:../../libdaisy/src/hid/disp/display.h ****                     d4 = (t_sxny - t_synx < 0 && t_exny - t_eynx > 0);
 4413              		.loc 3 360 46 discriminator 1 view .LVU1003
 4414 039c F5EEC06A 		vcmpe.f32	s13, #0
 4415 03a0 F1EE10FA 		vmrs	APSR_nzcv, FPSCR
 4416 03a4 CCBF     		ite	gt
 4417 03a6 0126     		movgt	r6, #1
ARM GAS  /tmp/ccoLrWzv.s 			page 129


 4418              	.LVL342:
 360:../../libdaisy/src/hid/disp/display.h ****                     d4 = (t_sxny - t_synx < 0 && t_exny - t_eynx > 0);
 4419              		.loc 3 360 46 discriminator 1 view .LVU1004
 4420 03a8 0026     		movle	r6, #0
 4421 03aa B6E7     		b	.L262
 4422              	.LVL343:
 4423              	.L317:
 359:../../libdaisy/src/hid/disp/display.h ****                     d3 = (t_sxny - t_syx < 0 && t_exny - t_eyx > 0);
 4424              		.loc 3 359 54 discriminator 1 view .LVU1005
 4425 03ac 36EE666A 		vsub.f32	s12, s12, s13
 4426              	.LVL344:
 359:../../libdaisy/src/hid/disp/display.h ****                     d3 = (t_sxny - t_syx < 0 && t_exny - t_eyx > 0);
 4427              		.loc 3 359 45 discriminator 1 view .LVU1006
 4428 03b0 B5EEC06A 		vcmpe.f32	s12, #0
 4429 03b4 F1EE10FA 		vmrs	APSR_nzcv, FPSCR
 4430 03b8 CCBF     		ite	gt
 4431 03ba 0121     		movgt	r1, #1
 4432 03bc 0021     		movle	r1, #0
 4433 03be A4E7     		b	.L260
 4434              	.LVL345:
 4435              	.L316:
 358:../../libdaisy/src/hid/disp/display.h ****                     d2 = (t_sxy - t_syx < 0 && t_exy - t_eyx > 0);
 4436              		.loc 3 358 55 discriminator 1 view .LVU1007
 4437 03c0 76EE473A 		vsub.f32	s7, s12, s14
 358:../../libdaisy/src/hid/disp/display.h ****                     d2 = (t_sxy - t_syx < 0 && t_exy - t_eyx > 0);
 4438              		.loc 3 358 46 discriminator 1 view .LVU1008
 4439 03c4 F5EEC03A 		vcmpe.f32	s7, #0
 4440 03c8 F1EE10FA 		vmrs	APSR_nzcv, FPSCR
 4441 03cc CCBF     		ite	gt
 4442 03ce 0122     		movgt	r2, #1
 4443 03d0 0022     		movle	r2, #0
 4444 03d2 0192     		str	r2, [sp, #4]
 4445              	.LVL346:
 358:../../libdaisy/src/hid/disp/display.h ****                     d2 = (t_sxy - t_syx < 0 && t_exy - t_eyx > 0);
 4446              		.loc 3 358 46 discriminator 1 view .LVU1009
 4447 03d4 91E7     		b	.L258
 4448              	.LVL347:
 4449              	.L283:
 354:../../libdaisy/src/hid/disp/display.h ****                 }
 4450              		.loc 3 354 47 view .LVU1010
 4451 03d6 0127     		movs	r7, #1
 4452              	.LVL348:
 354:../../libdaisy/src/hid/disp/display.h ****                 }
 4453              		.loc 3 354 47 view .LVU1011
 4454 03d8 EFE6     		b	.L253
 4455              	.LVL349:
 4456              	.L280:
 352:../../libdaisy/src/hid/disp/display.h ****                     d3 = (t_sxny - t_syx < 0 || t_exny - t_eyx > 0);
 4457              		.loc 3 352 33 view .LVU1012
 4458 03da 74EEC54A 		vsub.f32	s9, s9, s10
 4459              	.LVL350:
 351:../../libdaisy/src/hid/disp/display.h ****                     d2 = (t_sxy - t_syx < 0 || t_exy - t_eyx > 0);
 4460              		.loc 3 351 46 view .LVU1013
 4461 03de 0122     		movs	r2, #1
 4462 03e0 0192     		str	r2, [sp, #4]
 4463              	.LVL351:
 352:../../libdaisy/src/hid/disp/display.h ****                     d3 = (t_sxny - t_syx < 0 || t_exny - t_eyx > 0);
ARM GAS  /tmp/ccoLrWzv.s 			page 130


 4464              		.loc 3 352 45 view .LVU1014
 4465 03e2 F5EEC04A 		vcmpe.f32	s9, #0
 4466 03e6 F1EE10FA 		vmrs	APSR_nzcv, FPSCR
 4467 03ea 7FF5BBAE 		bpl	.L321
 4468              	.L281:
 353:../../libdaisy/src/hid/disp/display.h ****                     d4 = (t_sxny - t_synx < 0 || t_exny - t_eynx > 0);
 4469              		.loc 3 353 34 view .LVU1015
 4470 03ee 35EEC55A 		vsub.f32	s10, s11, s10
 4471              	.LVL352:
 352:../../libdaisy/src/hid/disp/display.h ****                     d3 = (t_sxny - t_syx < 0 || t_exny - t_eyx > 0);
 4472              		.loc 3 352 45 view .LVU1016
 4473 03f2 0121     		movs	r1, #1
 4474              	.LVL353:
 353:../../libdaisy/src/hid/disp/display.h ****                     d4 = (t_sxny - t_synx < 0 || t_exny - t_eynx > 0);
 4475              		.loc 3 353 46 view .LVU1017
 4476 03f4 B5EEC05A 		vcmpe.f32	s10, #0
 4477 03f8 F1EE10FA 		vmrs	APSR_nzcv, FPSCR
 4478 03fc 7FF5C3AE 		bpl	.L322
 4479              	.LVL354:
 4480              	.L282:
 353:../../libdaisy/src/hid/disp/display.h ****                     d4 = (t_sxny - t_synx < 0 || t_exny - t_eynx > 0);
 4481              		.loc 3 353 46 view .LVU1018
 4482 0400 0126     		movs	r6, #1
 4483              	.LVL355:
 353:../../libdaisy/src/hid/disp/display.h ****                     d4 = (t_sxny - t_synx < 0 || t_exny - t_eynx > 0);
 4484              		.loc 3 353 46 view .LVU1019
 4485 0402 C9E6     		b	.L257
 4486              	.LVL356:
 4487              	.L249:
 308:../../libdaisy/src/hid/disp/display.h ****             sweep = -sweep;
 4488              		.loc 3 308 13 view .LVU1020
 4489 0404 DDE91423 		ldrd	r2, r3, [sp, #80]
 4490              	.LVL357:
 308:../../libdaisy/src/hid/disp/display.h ****             sweep = -sweep;
 4491              		.loc 3 308 13 view .LVU1021
 4492 0408 1344     		add	r3, r3, r2
 4493              	.LVL358:
 308:../../libdaisy/src/hid/disp/display.h ****             sweep = -sweep;
 4494              		.loc 3 308 13 view .LVU1022
 4495 040a 06EE102A 		vmov	s12, r2	@ int
 4496 040e 1493     		str	r3, [sp, #80]
 4497 0410 159B     		ldr	r3, [sp, #84]
 4498              	.LVL359:
 308:../../libdaisy/src/hid/disp/display.h ****             sweep = -sweep;
 4499              		.loc 3 308 13 view .LVU1023
 4500 0412 5B42     		rsbs	r3, r3, #0
 4501 0414 1593     		str	r3, [sp, #84]
 4502              	.LVL360:
 308:../../libdaisy/src/hid/disp/display.h ****             sweep = -sweep;
 4503              		.loc 3 308 13 view .LVU1024
 4504 0416 07E6     		b	.L250
 4505              		.cfi_endproc
 4506              	.LFE4836:
 4508              		.section	.text._ZN5daisy25OneBitGraphicsDisplayImplINS_11OledDisplayINS_13SSD130xDriverILj128ELj64
 4509              		.align	1
 4510              		.p2align 2,,3
 4511              		.weak	_ZN5daisy25OneBitGraphicsDisplayImplINS_11OledDisplayINS_13SSD130xDriverILj128ELj64ENS_24SSD
ARM GAS  /tmp/ccoLrWzv.s 			page 131


 4512              		.syntax unified
 4513              		.thumb
 4514              		.thumb_func
 4515              		.fpu fpv5-d16
 4517              	_ZN5daisy25OneBitGraphicsDisplayImplINS_11OledDisplayINS_13SSD130xDriverILj128ELj64ENS_24SSD130x4Wi
 4518              	.LVL361:
 4519              	.LFB4835:
 257:../../libdaisy/src/hid/disp/display.h ****                   uint_fast8_t y1,
 4520              		.loc 3 257 10 is_stmt 1 view -0
 4521              		.cfi_startproc
 4522              		@ args = 12, pretend = 0, frame = 24
 4523              		@ frame_needed = 0, uses_anonymous_args = 0
 257:../../libdaisy/src/hid/disp/display.h ****                   uint_fast8_t y1,
 4524              		.loc 3 257 10 is_stmt 0 view .LVU1026
 4525 0000 2DE9F04F 		push	{r4, r5, r6, r7, r8, r9, r10, fp, lr}
 4526              		.cfi_def_cfa_offset 36
 4527              		.cfi_offset 4, -36
 4528              		.cfi_offset 5, -32
 4529              		.cfi_offset 6, -28
 4530              		.cfi_offset 7, -24
 4531              		.cfi_offset 8, -20
 4532              		.cfi_offset 9, -16
 4533              		.cfi_offset 10, -12
 4534              		.cfi_offset 11, -8
 4535              		.cfi_offset 14, -4
 4536 0004 87B0     		sub	sp, sp, #28
 4537              		.cfi_def_cfa_offset 64
 257:../../libdaisy/src/hid/disp/display.h ****                   uint_fast8_t y1,
 4538              		.loc 3 257 10 view .LVU1027
 4539 0006 9DF84860 		ldrb	r6, [sp, #72]	@ zero_extendqisi2
 4540 000a 109C     		ldr	r4, [sp, #64]
 4541 000c 9DF84450 		ldrb	r5, [sp, #68]	@ zero_extendqisi2
 4542 0010 0196     		str	r6, [sp, #4]
 4543              	.LBB1505:
 264:../../libdaisy/src/hid/disp/display.h ****         {
 4544              		.loc 3 264 9 view .LVU1028
 4545 0012 9EB3     		cbz	r6, .L326
 4546              	.LVL362:
 4547              	.LBB1506:
 266:../../libdaisy/src/hid/disp/display.h ****             {
 4548              		.loc 3 266 40 is_stmt 1 view .LVU1029
 4549 0014 9942     		cmp	r1, r3
 4550 0016 2ED8     		bhi	.L325
 4551 0018 9A46     		mov	r10, r3
 4552              	.LVL363:
 4553              	.L329:
 4554              	.LBB1507:
 268:../../libdaisy/src/hid/disp/display.h ****                 {
 4555              		.loc 3 268 44 view .LVU1030
 4556 001a A242     		cmp	r2, r4
 4557 001c 28D8     		bhi	.L332
 268:../../libdaisy/src/hid/disp/display.h ****                 {
 4558              		.loc 3 268 44 is_stmt 0 view .LVU1031
 4559 001e 7F29     		cmp	r1, #127
 4560 0020 1646     		mov	r6, r2
 4561 0022 94BF     		ite	ls
 4562 0024 0023     		movls	r3, #0
ARM GAS  /tmp/ccoLrWzv.s 			page 132


 4563 0026 0123     		movhi	r3, #1
 4564 0028 08E0     		b	.L333
 4565              	.LVL364:
 4566              	.L415:
 4567              	.LBB1508:
 4568              	.LBB1509:
 4569              	.LBB1510:
 244:../../libdaisy/src/dev/oled_ssd130x.h ****         else
 4570              		.loc 14 244 42 view .LVU1032
 4571 002a 9CF81490 		ldrb	r9, [ip, #20]	@ zero_extendqisi2
 4572 002e 4EEA090E 		orr	lr, lr, r9
 244:../../libdaisy/src/dev/oled_ssd130x.h ****         else
 4573              		.loc 14 244 13 view .LVU1033
 4574 0032 8CF814E0 		strb	lr, [ip, #20]
 4575              	.LVL365:
 4576              	.L330:
 244:../../libdaisy/src/dev/oled_ssd130x.h ****         else
 4577              		.loc 14 244 13 view .LVU1034
 4578              	.LBE1510:
 4579              	.LBE1509:
 4580              	.LBE1508:
 268:../../libdaisy/src/hid/disp/display.h ****                 {
 4581              		.loc 3 268 17 is_stmt 1 view .LVU1035
 4582 0036 0136     		adds	r6, r6, #1
 4583              	.LVL366:
 268:../../libdaisy/src/hid/disp/display.h ****                 {
 4584              		.loc 3 268 44 view .LVU1036
 4585 0038 B442     		cmp	r4, r6
 4586 003a 19D3     		bcc	.L332
 4587              	.L333:
 4588              	.LVL367:
 4589              	.LBB1524:
 4590              	.LBI1508:
  41:../../libdaisy/src/hid/disp/oled_display.h ****     {
 4591              		.loc 2 41 10 view .LVU1037
 4592              	.LBB1521:
 4593              	.LBI1509:
 239:../../libdaisy/src/dev/oled_ssd130x.h ****     {
 4594              		.loc 14 239 10 view .LVU1038
 4595              	.LBB1518:
 241:../../libdaisy/src/dev/oled_ssd130x.h ****             return;
 4596              		.loc 14 241 9 is_stmt 0 view .LVU1039
 4597 003c 3F2E     		cmp	r6, #63
 4598 003e FAD8     		bhi	.L330
 241:../../libdaisy/src/dev/oled_ssd130x.h ****             return;
 4599              		.loc 14 241 9 view .LVU1040
 4600 0040 002B     		cmp	r3, #0
 4601 0042 F8D1     		bne	.L330
 4602              	.LVL368:
 4603              	.LBB1511:
 4604              	.LBI1511:
 239:../../libdaisy/src/dev/oled_ssd130x.h ****     {
 4605              		.loc 14 239 10 is_stmt 1 view .LVU1041
 239:../../libdaisy/src/dev/oled_ssd130x.h ****     {
 4606              		.loc 14 239 10 is_stmt 0 view .LVU1042
 4607              	.LBE1511:
 244:../../libdaisy/src/dev/oled_ssd130x.h ****         else
ARM GAS  /tmp/ccoLrWzv.s 			page 133


 4608              		.loc 14 244 28 view .LVU1043
 4609 0044 4FEAD60C 		lsr	ip, r6, #3
 244:../../libdaisy/src/dev/oled_ssd130x.h ****         else
 4610              		.loc 14 244 54 view .LVU1044
 4611 0048 06F0070E 		and	lr, r6, #7
 244:../../libdaisy/src/dev/oled_ssd130x.h ****         else
 4612              		.loc 14 244 48 view .LVU1045
 4613 004c 4FF00109 		mov	r9, #1
 244:../../libdaisy/src/dev/oled_ssd130x.h ****         else
 4614              		.loc 14 244 42 view .LVU1046
 4615 0050 01EBCC1C 		add	ip, r1, ip, lsl #7
 244:../../libdaisy/src/dev/oled_ssd130x.h ****         else
 4616              		.loc 14 244 48 view .LVU1047
 4617 0054 09FA0EFE 		lsl	lr, r9, lr
 244:../../libdaisy/src/dev/oled_ssd130x.h ****         else
 4618              		.loc 14 244 13 view .LVU1048
 4619 0058 8444     		add	ip, ip, r0
 243:../../libdaisy/src/dev/oled_ssd130x.h ****             buffer_[x + (y / 8) * width] |= (1 << (y % 8));
 4620              		.loc 14 243 9 view .LVU1049
 4621 005a 002D     		cmp	r5, #0
 4622 005c E5D1     		bne	.L415
 4623              	.LBB1515:
 4624              	.LBB1512:
 246:../../libdaisy/src/dev/oled_ssd130x.h ****     }
 4625              		.loc 14 246 42 view .LVU1050
 4626 005e 9CF814B0 		ldrb	fp, [ip, #20]	@ zero_extendqisi2
 4627              	.LBE1512:
 4628              	.LBE1515:
 4629              	.LBE1518:
 4630              	.LBE1521:
 4631              	.LBE1524:
 268:../../libdaisy/src/hid/disp/display.h ****                 {
 4632              		.loc 3 268 17 view .LVU1051
 4633 0062 0136     		adds	r6, r6, #1
 4634              	.LVL369:
 4635              	.LBB1525:
 4636              	.LBB1522:
 4637              	.LBB1519:
 4638              	.LBB1516:
 4639              	.LBB1513:
 246:../../libdaisy/src/dev/oled_ssd130x.h ****     }
 4640              		.loc 14 246 42 view .LVU1052
 4641 0064 2BEA0E08 		bic	r8, fp, lr
 4642              	.LBE1513:
 4643              	.LBE1516:
 4644              	.LBE1519:
 4645              	.LBE1522:
 4646              	.LBE1525:
 268:../../libdaisy/src/hid/disp/display.h ****                 {
 4647              		.loc 3 268 44 view .LVU1053
 4648 0068 B442     		cmp	r4, r6
 4649              	.LBB1526:
 4650              	.LBB1523:
 4651              	.LBB1520:
 4652              	.LBB1517:
 4653              	.LBB1514:
 246:../../libdaisy/src/dev/oled_ssd130x.h ****     }
ARM GAS  /tmp/ccoLrWzv.s 			page 134


 4654              		.loc 14 246 13 view .LVU1054
 4655 006a 8CF81480 		strb	r8, [ip, #20]
 4656              	.LVL370:
 246:../../libdaisy/src/dev/oled_ssd130x.h ****     }
 4657              		.loc 14 246 13 view .LVU1055
 4658              	.LBE1514:
 4659              	.LBE1517:
 4660              	.LBE1520:
 4661              	.LBE1523:
 4662              	.LBE1526:
 268:../../libdaisy/src/hid/disp/display.h ****                 {
 4663              		.loc 3 268 17 is_stmt 1 view .LVU1056
 268:../../libdaisy/src/hid/disp/display.h ****                 {
 4664              		.loc 3 268 44 view .LVU1057
 4665 006e E5D2     		bcs	.L333
 4666              	.LVL371:
 4667              	.L332:
 268:../../libdaisy/src/hid/disp/display.h ****                 {
 4668              		.loc 3 268 44 is_stmt 0 view .LVU1058
 4669              	.LBE1507:
 266:../../libdaisy/src/hid/disp/display.h ****             {
 4670              		.loc 3 266 13 is_stmt 1 view .LVU1059
 4671 0070 0131     		adds	r1, r1, #1
 4672              	.LVL372:
 266:../../libdaisy/src/hid/disp/display.h ****             {
 4673              		.loc 3 266 40 view .LVU1060
 4674 0072 8A45     		cmp	r10, r1
 4675 0074 D1D2     		bcs	.L329
 4676              	.LVL373:
 4677              	.L325:
 266:../../libdaisy/src/hid/disp/display.h ****             {
 4678              		.loc 3 266 40 is_stmt 0 view .LVU1061
 4679              	.LBE1506:
 4680              	.LBE1505:
 281:../../libdaisy/src/hid/disp/display.h **** 
 4681              		.loc 3 281 5 view .LVU1062
 4682 0076 07B0     		add	sp, sp, #28
 4683              		.cfi_remember_state
 4684              		.cfi_def_cfa_offset 36
 4685              		@ sp needed
 4686 0078 BDE8F08F 		pop	{r4, r5, r6, r7, r8, r9, r10, fp, pc}
 4687              	.LVL374:
 4688              	.L326:
 4689              		.cfi_restore_state
 4690              	.LBB1527:
 4691              	.LBI1527:
 257:../../libdaisy/src/hid/disp/display.h ****                   uint_fast8_t y1,
 4692              		.loc 3 257 10 is_stmt 1 view .LVU1063
 4693              	.LBB1528:
 4694              	.LBI1528:
 221:../../libdaisy/src/hid/disp/display.h ****                   uint_fast8_t y1,
 4695              		.loc 3 221 10 view .LVU1064
 4696              	.LBB1529:
 227:../../libdaisy/src/hid/disp/display.h ****         int_fast16_t deltaY = abs((int_fast16_t)y2 - (int_fast16_t)y1);
 4697              		.loc 3 227 52 is_stmt 0 view .LVU1065
 4698 007c A3EB0108 		sub	r8, r3, r1
 227:../../libdaisy/src/hid/disp/display.h ****         int_fast16_t deltaY = abs((int_fast16_t)y2 - (int_fast16_t)y1);
ARM GAS  /tmp/ccoLrWzv.s 			page 135


 4699              		.loc 3 227 22 view .LVU1066
 4700 0080 B8F1000F 		cmp	r8, #0
 4701 0084 B8BF     		it	lt
 4702 0086 C8F10008 		rsblt	r8, r8, #0
 4703              	.LVL375:
 229:../../libdaisy/src/hid/disp/display.h ****         int_fast16_t signY  = ((y1 < y2) ? 1 : -1);
 4704              		.loc 3 229 22 view .LVU1067
 4705 008a 9942     		cmp	r1, r3
 4706 008c 80F05481 		bcs	.L416
 4707              	.LVL376:
 4708              	.LBB1530:
 4709              	.LBI1530:
  41:../../libdaisy/src/hid/disp/oled_display.h ****     {
 4710              		.loc 2 41 10 is_stmt 1 view .LVU1068
 4711              	.LBB1531:
 4712              	.LBI1531:
 239:../../libdaisy/src/dev/oled_ssd130x.h ****     {
 4713              		.loc 14 239 10 view .LVU1069
 4714              	.LBB1532:
 241:../../libdaisy/src/dev/oled_ssd130x.h ****             return;
 4715              		.loc 14 241 28 is_stmt 0 view .LVU1070
 4716 0090 3F2A     		cmp	r2, #63
 4717              	.LBE1532:
 4718              	.LBE1531:
 4719              	.LBE1530:
 229:../../libdaisy/src/hid/disp/display.h ****         int_fast16_t signY  = ((y1 < y2) ? 1 : -1);
 4720              		.loc 3 229 22 view .LVU1071
 4721 0092 4FF00109 		mov	r9, #1
 4722              	.LBB1541:
 4723              	.LBB1538:
 4724              	.LBB1535:
 241:../../libdaisy/src/dev/oled_ssd130x.h ****             return;
 4725              		.loc 14 241 28 view .LVU1072
 4726 0096 94BF     		ite	ls
 4727 0098 0026     		movls	r6, #0
 4728 009a 0126     		movhi	r6, #1
 241:../../libdaisy/src/dev/oled_ssd130x.h ****             return;
 4729              		.loc 14 241 14 view .LVU1073
 4730 009c 7F2B     		cmp	r3, #127
 241:../../libdaisy/src/dev/oled_ssd130x.h ****             return;
 4731              		.loc 14 241 28 view .LVU1074
 4732 009e 0296     		str	r6, [sp, #8]
 241:../../libdaisy/src/dev/oled_ssd130x.h ****             return;
 4733              		.loc 14 241 14 view .LVU1075
 4734 00a0 94BF     		ite	ls
 4735 00a2 0027     		movls	r7, #0
 4736 00a4 0127     		movhi	r7, #1
 4737 00a6 0097     		str	r7, [sp]
 241:../../libdaisy/src/dev/oled_ssd130x.h ****             return;
 4738              		.loc 14 241 9 view .LVU1076
 4739 00a8 DEB9     		cbnz	r6, .L338
 4740 00aa D7B9     		cbnz	r7, .L338
 243:../../libdaisy/src/dev/oled_ssd130x.h ****             buffer_[x + (y / 8) * width] |= (1 << (y % 8));
 4741              		.loc 14 243 9 view .LVU1077
 4742 00ac 002D     		cmp	r5, #0
 4743 00ae 00F05881 		beq	.L336
 4744              	.LVL377:
ARM GAS  /tmp/ccoLrWzv.s 			page 136


 4745              	.L419:
 243:../../libdaisy/src/dev/oled_ssd130x.h ****             buffer_[x + (y / 8) * width] |= (1 << (y % 8));
 4746              		.loc 14 243 9 view .LVU1078
 4747 00b2 0026     		movs	r6, #0
 244:../../libdaisy/src/dev/oled_ssd130x.h ****         else
 4748              		.loc 14 244 28 view .LVU1079
 4749 00b4 4FEAD20E 		lsr	lr, r2, #3
 244:../../libdaisy/src/dev/oled_ssd130x.h ****         else
 4750              		.loc 14 244 48 view .LVU1080
 4751 00b8 4FF0010C 		mov	ip, #1
 244:../../libdaisy/src/dev/oled_ssd130x.h ****         else
 4752              		.loc 14 244 54 view .LVU1081
 4753 00bc 02F00707 		and	r7, r2, #7
 244:../../libdaisy/src/dev/oled_ssd130x.h ****         else
 4754              		.loc 14 244 42 view .LVU1082
 4755 00c0 03EBCE1E 		add	lr, r3, lr, lsl #7
 4756 00c4 0296     		str	r6, [sp, #8]
 4757 00c6 0026     		movs	r6, #0
 244:../../libdaisy/src/dev/oled_ssd130x.h ****         else
 4758              		.loc 14 244 48 view .LVU1083
 4759 00c8 0CFA07F7 		lsl	r7, ip, r7
 4760 00cc 0096     		str	r6, [sp]
 244:../../libdaisy/src/dev/oled_ssd130x.h ****         else
 4761              		.loc 14 244 13 view .LVU1084
 4762 00ce 0EEB0006 		add	r6, lr, r0
 244:../../libdaisy/src/dev/oled_ssd130x.h ****         else
 4763              		.loc 14 244 42 view .LVU1085
 4764 00d2 96F814C0 		ldrb	ip, [r6, #20]	@ zero_extendqisi2
 4765 00d6 47EA0C07 		orr	r7, r7, ip
 244:../../libdaisy/src/dev/oled_ssd130x.h ****         else
 4766              		.loc 14 244 13 view .LVU1086
 4767 00da 3775     		strb	r7, [r6, #20]
 4768              	.L335:
 4769              	.LVL378:
 244:../../libdaisy/src/dev/oled_ssd130x.h ****         else
 4770              		.loc 14 244 13 view .LVU1087
 4771              	.LBE1535:
 4772              	.LBE1538:
 4773              	.LBE1541:
 239:../../libdaisy/src/hid/disp/display.h ****         {
 4774              		.loc 3 239 26 is_stmt 1 view .LVU1088
 4775 00dc 9942     		cmp	r1, r3
 4776 00de 00F09781 		beq	.L417
 4777              	.L338:
 4778              	.LVL379:
 227:../../libdaisy/src/hid/disp/display.h ****         int_fast16_t deltaY = abs((int_fast16_t)y2 - (int_fast16_t)y1);
 4779              		.loc 3 227 22 is_stmt 0 view .LVU1089
 4780 00e2 C446     		mov	ip, r8
 4781 00e4 1646     		mov	r6, r2
 4782 00e6 0F46     		mov	r7, r1
 4783              	.L340:
 4784              	.LVL380:
 4785              	.LBB1542:
 4786              	.LBI1542:
  41:../../libdaisy/src/hid/disp/oled_display.h ****     {
 4787              		.loc 2 41 10 is_stmt 1 view .LVU1090
 4788              	.LBB1543:
ARM GAS  /tmp/ccoLrWzv.s 			page 137


 4789              	.LBI1543:
 239:../../libdaisy/src/dev/oled_ssd130x.h ****     {
 4790              		.loc 14 239 10 view .LVU1091
 4791              	.LBB1544:
 241:../../libdaisy/src/dev/oled_ssd130x.h ****             return;
 4792              		.loc 14 241 9 is_stmt 0 view .LVU1092
 4793 00e8 7F2F     		cmp	r7, #127
 4794 00ea 15D8     		bhi	.L341
 4795 00ec 3F2E     		cmp	r6, #63
 4796 00ee 13D8     		bhi	.L341
 244:../../libdaisy/src/dev/oled_ssd130x.h ****         else
 4797              		.loc 14 244 28 view .LVU1093
 4798 00f0 4FEAD60E 		lsr	lr, r6, #3
 244:../../libdaisy/src/dev/oled_ssd130x.h ****         else
 4799              		.loc 14 244 48 view .LVU1094
 4800 00f4 4FF0010B 		mov	fp, #1
 244:../../libdaisy/src/dev/oled_ssd130x.h ****         else
 4801              		.loc 14 244 54 view .LVU1095
 4802 00f8 06F0070A 		and	r10, r6, #7
 244:../../libdaisy/src/dev/oled_ssd130x.h ****         else
 4803              		.loc 14 244 42 view .LVU1096
 4804 00fc 07EBCE1E 		add	lr, r7, lr, lsl #7
 244:../../libdaisy/src/dev/oled_ssd130x.h ****         else
 4805              		.loc 14 244 48 view .LVU1097
 4806 0100 0BFA0AFA 		lsl	r10, fp, r10
 244:../../libdaisy/src/dev/oled_ssd130x.h ****         else
 4807              		.loc 14 244 13 view .LVU1098
 4808 0104 8644     		add	lr, lr, r0
 244:../../libdaisy/src/dev/oled_ssd130x.h ****         else
 4809              		.loc 14 244 42 view .LVU1099
 4810 0106 9EF814B0 		ldrb	fp, [lr, #20]	@ zero_extendqisi2
 243:../../libdaisy/src/dev/oled_ssd130x.h ****             buffer_[x + (y / 8) * width] |= (1 << (y % 8));
 4811              		.loc 14 243 9 view .LVU1100
 4812 010a 002D     		cmp	r5, #0
 4813 010c 00F04581 		beq	.L342
 244:../../libdaisy/src/dev/oled_ssd130x.h ****         else
 4814              		.loc 14 244 42 view .LVU1101
 4815 0110 4AEA0B0A 		orr	r10, r10, fp
 244:../../libdaisy/src/dev/oled_ssd130x.h ****         else
 4816              		.loc 14 244 13 view .LVU1102
 4817 0114 8EF814A0 		strb	r10, [lr, #20]
 4818              	.L341:
 4819              	.LVL381:
 244:../../libdaisy/src/dev/oled_ssd130x.h ****         else
 4820              		.loc 14 244 13 view .LVU1103
 4821              	.LBE1544:
 4822              	.LBE1543:
 4823              	.LBE1542:
 243:../../libdaisy/src/hid/disp/display.h ****             {
 4824              		.loc 3 243 13 view .LVU1104
 4825 0118 5FEA4C0E 		lsls	lr, ip, #1
 4826              	.LVL382:
 246:../../libdaisy/src/hid/disp/display.h ****             }
 4827              		.loc 3 246 17 view .LVU1105
 4828 011c 18BF     		it	ne
 4829 011e 4F44     		addne	r7, r7, r9
 4830              	.LVL383:
ARM GAS  /tmp/ccoLrWzv.s 			page 138


 249:../../libdaisy/src/hid/disp/display.h ****             {
 4831              		.loc 3 249 13 view .LVU1106
 4832 0120 F045     		cmp	r8, lr
 4833 0122 01DD     		ble	.L344
 251:../../libdaisy/src/hid/disp/display.h ****                 y1 += signY;
 4834              		.loc 3 251 17 view .LVU1107
 4835 0124 C444     		add	ip, ip, r8
 4836              	.LVL384:
 252:../../libdaisy/src/hid/disp/display.h ****             }
 4837              		.loc 3 252 17 view .LVU1108
 4838 0126 013E     		subs	r6, r6, #1
 4839              	.LVL385:
 4840              	.L344:
 239:../../libdaisy/src/hid/disp/display.h ****         {
 4841              		.loc 3 239 26 is_stmt 1 view .LVU1109
 4842 0128 BB42     		cmp	r3, r7
 4843 012a DDD1     		bne	.L340
 239:../../libdaisy/src/hid/disp/display.h ****         {
 4844              		.loc 3 239 26 is_stmt 0 view .LVU1110
 4845 012c B242     		cmp	r2, r6
 4846 012e DBD1     		bne	.L340
 4847 0130 0026     		movs	r6, #0
 4848              	.LVL386:
 239:../../libdaisy/src/hid/disp/display.h ****         {
 4849              		.loc 3 239 26 view .LVU1111
 4850 0132 0496     		str	r6, [sp, #16]
 4851              	.LVL387:
 4852              	.L337:
 239:../../libdaisy/src/hid/disp/display.h ****         {
 4853              		.loc 3 239 26 view .LVU1112
 4854              	.LBE1529:
 4855              	.LBE1528:
 4856              	.LBB1555:
 4857              	.LBI1555:
 221:../../libdaisy/src/hid/disp/display.h ****                   uint_fast8_t y1,
 4858              		.loc 3 221 10 is_stmt 1 view .LVU1113
 4859              	.LBB1556:
 228:../../libdaisy/src/hid/disp/display.h ****         int_fast16_t signX  = ((x1 < x2) ? 1 : -1);
 4860              		.loc 3 228 52 is_stmt 0 view .LVU1114
 4861 0134 A4EB0209 		sub	r9, r4, r2
 228:../../libdaisy/src/hid/disp/display.h ****         int_fast16_t signX  = ((x1 < x2) ? 1 : -1);
 4862              		.loc 3 228 22 view .LVU1115
 4863 0138 B9F1000F 		cmp	r9, #0
 4864 013c B8BF     		it	lt
 4865 013e C9F10009 		rsblt	r9, r9, #0
 4866              	.LVL388:
 4867              	.LBB1557:
 4868              	.LBB1558:
 4869              	.LBB1559:
 241:../../libdaisy/src/dev/oled_ssd130x.h ****             return;
 4870              		.loc 14 241 28 view .LVU1116
 4871 0142 3F2C     		cmp	r4, #63
 4872 0144 94BF     		ite	ls
 4873 0146 0026     		movls	r6, #0
 4874 0148 0126     		movhi	r6, #1
 4875              	.LBE1559:
 4876              	.LBE1558:
ARM GAS  /tmp/ccoLrWzv.s 			page 139


 4877              	.LBE1557:
 230:../../libdaisy/src/hid/disp/display.h ****         int_fast16_t error  = deltaX - deltaY;
 4878              		.loc 3 230 22 view .LVU1117
 4879 014a A242     		cmp	r2, r4
 231:../../libdaisy/src/hid/disp/display.h ****         int_fast16_t error2;
 4880              		.loc 3 231 22 view .LVU1118
 4881 014c C9F10008 		rsb	r8, r9, #0
 4882              	.LBB1572:
 4883              	.LBB1567:
 4884              	.LBB1562:
 241:../../libdaisy/src/dev/oled_ssd130x.h ****             return;
 4885              		.loc 14 241 28 view .LVU1119
 4886 0150 0396     		str	r6, [sp, #12]
 4887              	.LBE1562:
 4888              	.LBE1567:
 4889              	.LBE1572:
 230:../../libdaisy/src/hid/disp/display.h ****         int_fast16_t error  = deltaX - deltaY;
 4890              		.loc 3 230 22 view .LVU1120
 4891 0152 C0F03181 		bcc	.L345
 4892              	.LVL389:
 4893              	.LBB1573:
 4894              	.LBI1557:
  41:../../libdaisy/src/hid/disp/oled_display.h ****     {
 4895              		.loc 2 41 10 is_stmt 1 view .LVU1121
 4896              	.LBB1568:
 4897              	.LBI1558:
 239:../../libdaisy/src/dev/oled_ssd130x.h ****     {
 4898              		.loc 14 239 10 view .LVU1122
 4899              	.LBB1563:
 241:../../libdaisy/src/dev/oled_ssd130x.h ****             return;
 4900              		.loc 14 241 9 is_stmt 0 view .LVU1123
 4901 0156 002E     		cmp	r6, #0
 4902 0158 40F05381 		bne	.L380
 4903 015c 009E     		ldr	r6, [sp]
 4904 015e 002E     		cmp	r6, #0
 4905 0160 40F04F81 		bne	.L380
 4906              	.LBE1563:
 4907              	.LBE1568:
 4908              	.LBE1573:
 230:../../libdaisy/src/hid/disp/display.h ****         int_fast16_t error  = deltaX - deltaY;
 4909              		.loc 3 230 22 view .LVU1124
 4910 0164 4FF0FF36 		mov	r6, #-1
 4911 0168 0096     		str	r6, [sp]
 4912              	.LBB1574:
 4913              	.LBB1569:
 4914              	.LBB1564:
 243:../../libdaisy/src/dev/oled_ssd130x.h ****             buffer_[x + (y / 8) * width] |= (1 << (y % 8));
 4915              		.loc 14 243 9 view .LVU1125
 4916 016a 002D     		cmp	r5, #0
 4917 016c 00F02C81 		beq	.L347
 4918              	.LVL390:
 4919              	.L420:
 243:../../libdaisy/src/dev/oled_ssd130x.h ****             buffer_[x + (y / 8) * width] |= (1 << (y % 8));
 4920              		.loc 14 243 9 view .LVU1126
 4921 0170 0026     		movs	r6, #0
 244:../../libdaisy/src/dev/oled_ssd130x.h ****         else
 4922              		.loc 14 244 28 view .LVU1127
ARM GAS  /tmp/ccoLrWzv.s 			page 140


 4923 0172 4FEAD40E 		lsr	lr, r4, #3
 244:../../libdaisy/src/dev/oled_ssd130x.h ****         else
 4924              		.loc 14 244 48 view .LVU1128
 4925 0176 4FF0010C 		mov	ip, #1
 244:../../libdaisy/src/dev/oled_ssd130x.h ****         else
 4926              		.loc 14 244 54 view .LVU1129
 4927 017a 04F00707 		and	r7, r4, #7
 4928 017e 0396     		str	r6, [sp, #12]
 244:../../libdaisy/src/dev/oled_ssd130x.h ****         else
 4929              		.loc 14 244 42 view .LVU1130
 4930 0180 03EBCE16 		add	r6, r3, lr, lsl #7
 244:../../libdaisy/src/dev/oled_ssd130x.h ****         else
 4931              		.loc 14 244 48 view .LVU1131
 4932 0184 0CFA07F7 		lsl	r7, ip, r7
 244:../../libdaisy/src/dev/oled_ssd130x.h ****         else
 4933              		.loc 14 244 13 view .LVU1132
 4934 0188 0644     		add	r6, r6, r0
 244:../../libdaisy/src/dev/oled_ssd130x.h ****         else
 4935              		.loc 14 244 42 view .LVU1133
 4936 018a 96F814C0 		ldrb	ip, [r6, #20]	@ zero_extendqisi2
 4937 018e 47EA0C07 		orr	r7, r7, ip
 244:../../libdaisy/src/dev/oled_ssd130x.h ****         else
 4938              		.loc 14 244 13 view .LVU1134
 4939 0192 3775     		strb	r7, [r6, #20]
 4940              	.L346:
 4941              	.LVL391:
 244:../../libdaisy/src/dev/oled_ssd130x.h ****         else
 4942              		.loc 14 244 13 view .LVU1135
 4943              	.LBE1564:
 4944              	.LBE1569:
 4945              	.LBE1574:
 239:../../libdaisy/src/hid/disp/display.h ****         {
 4946              		.loc 3 239 26 is_stmt 1 view .LVU1136
 4947 0194 A242     		cmp	r2, r4
 4948 0196 00F03E81 		beq	.L418
 4949              	.L349:
 4950              	.LVL392:
 230:../../libdaisy/src/hid/disp/display.h ****         int_fast16_t error  = deltaX - deltaY;
 4951              		.loc 3 230 22 is_stmt 0 view .LVU1137
 4952 019a C446     		mov	ip, r8
 4953 019c 1646     		mov	r6, r2
 4954 019e 1F46     		mov	r7, r3
 4955 01a0 0592     		str	r2, [sp, #20]
 4956              	.LVL393:
 4957              	.L351:
 4958              	.LBB1575:
 4959              	.LBI1575:
  41:../../libdaisy/src/hid/disp/oled_display.h ****     {
 4960              		.loc 2 41 10 is_stmt 1 view .LVU1138
 4961              	.LBB1576:
 4962              	.LBI1576:
 239:../../libdaisy/src/dev/oled_ssd130x.h ****     {
 4963              		.loc 14 239 10 view .LVU1139
 4964              	.LBB1577:
 241:../../libdaisy/src/dev/oled_ssd130x.h ****             return;
 4965              		.loc 14 241 9 is_stmt 0 view .LVU1140
 4966 01a2 7F2F     		cmp	r7, #127
ARM GAS  /tmp/ccoLrWzv.s 			page 141


 4967 01a4 15D8     		bhi	.L352
 4968 01a6 3F2E     		cmp	r6, #63
 4969 01a8 13D8     		bhi	.L352
 244:../../libdaisy/src/dev/oled_ssd130x.h ****         else
 4970              		.loc 14 244 28 view .LVU1141
 4971 01aa 4FEAD60E 		lsr	lr, r6, #3
 244:../../libdaisy/src/dev/oled_ssd130x.h ****         else
 4972              		.loc 14 244 48 view .LVU1142
 4973 01ae 4FF0010B 		mov	fp, #1
 244:../../libdaisy/src/dev/oled_ssd130x.h ****         else
 4974              		.loc 14 244 54 view .LVU1143
 4975 01b2 06F0070A 		and	r10, r6, #7
 244:../../libdaisy/src/dev/oled_ssd130x.h ****         else
 4976              		.loc 14 244 42 view .LVU1144
 4977 01b6 07EBCE1E 		add	lr, r7, lr, lsl #7
 244:../../libdaisy/src/dev/oled_ssd130x.h ****         else
 4978              		.loc 14 244 48 view .LVU1145
 4979 01ba 0BFA0AFA 		lsl	r10, fp, r10
 244:../../libdaisy/src/dev/oled_ssd130x.h ****         else
 4980              		.loc 14 244 13 view .LVU1146
 4981 01be 8644     		add	lr, lr, r0
 244:../../libdaisy/src/dev/oled_ssd130x.h ****         else
 4982              		.loc 14 244 42 view .LVU1147
 4983 01c0 9EF814B0 		ldrb	fp, [lr, #20]	@ zero_extendqisi2
 243:../../libdaisy/src/dev/oled_ssd130x.h ****             buffer_[x + (y / 8) * width] |= (1 << (y % 8));
 4984              		.loc 14 243 9 view .LVU1148
 4985 01c4 002D     		cmp	r5, #0
 4986 01c6 00F0ED80 		beq	.L353
 244:../../libdaisy/src/dev/oled_ssd130x.h ****         else
 4987              		.loc 14 244 42 view .LVU1149
 4988 01ca 4AEA0B0A 		orr	r10, r10, fp
 244:../../libdaisy/src/dev/oled_ssd130x.h ****         else
 4989              		.loc 14 244 13 view .LVU1150
 4990 01ce 8EF814A0 		strb	r10, [lr, #20]
 4991              	.L352:
 4992              	.LVL394:
 244:../../libdaisy/src/dev/oled_ssd130x.h ****         else
 4993              		.loc 14 244 13 view .LVU1151
 4994              	.LBE1577:
 4995              	.LBE1576:
 4996              	.LBE1575:
 243:../../libdaisy/src/hid/disp/display.h ****             {
 4997              		.loc 3 243 13 view .LVU1152
 4998 01d2 B8EB4C0F 		cmp	r8, ip, lsl #1
 242:../../libdaisy/src/hid/disp/display.h ****             if(error2 > -deltaY)
 4999              		.loc 3 242 13 view .LVU1153
 5000 01d6 4FEA4C0E 		lsl	lr, ip, #1
 5001              	.LVL395:
 243:../../libdaisy/src/hid/disp/display.h ****             {
 5002              		.loc 3 243 13 view .LVU1154
 5003 01da 02DA     		bge	.L354
 245:../../libdaisy/src/hid/disp/display.h ****                 x1 += signX;
 5004              		.loc 3 245 17 view .LVU1155
 5005 01dc ACEB090C 		sub	ip, ip, r9
 5006              	.LVL396:
 246:../../libdaisy/src/hid/disp/display.h ****             }
 5007              		.loc 3 246 17 view .LVU1156
ARM GAS  /tmp/ccoLrWzv.s 			page 142


 5008 01e0 013F     		subs	r7, r7, #1
 5009              	.LVL397:
 5010              	.L354:
 249:../../libdaisy/src/hid/disp/display.h ****             {
 5011              		.loc 3 249 13 view .LVU1157
 5012 01e2 BEF1000F 		cmp	lr, #0
 5013 01e6 01D0     		beq	.L355
 252:../../libdaisy/src/hid/disp/display.h ****             }
 5014              		.loc 3 252 17 view .LVU1158
 5015 01e8 009A     		ldr	r2, [sp]
 5016 01ea 1644     		add	r6, r6, r2
 5017              	.LVL398:
 5018              	.L355:
 239:../../libdaisy/src/hid/disp/display.h ****         {
 5019              		.loc 3 239 26 is_stmt 1 view .LVU1159
 5020 01ec BB42     		cmp	r3, r7
 5021 01ee D8D1     		bne	.L351
 239:../../libdaisy/src/hid/disp/display.h ****         {
 5022              		.loc 3 239 26 is_stmt 0 view .LVU1160
 5023 01f0 B442     		cmp	r4, r6
 5024 01f2 D6D1     		bne	.L351
 5025 01f4 059A     		ldr	r2, [sp, #20]
 5026              	.LVL399:
 5027              	.L348:
 239:../../libdaisy/src/hid/disp/display.h ****         {
 5028              		.loc 3 239 26 view .LVU1161
 5029              	.LBE1556:
 5030              	.LBE1555:
 5031              	.LBB1589:
 5032              	.LBI1589:
 221:../../libdaisy/src/hid/disp/display.h ****                   uint_fast8_t y1,
 5033              		.loc 3 221 10 is_stmt 1 view .LVU1162
 5034              	.LBB1590:
 5035              	.LBB1591:
 5036              	.LBB1592:
 5037              	.LBB1593:
 241:../../libdaisy/src/dev/oled_ssd130x.h ****             return;
 5038              		.loc 14 241 14 is_stmt 0 view .LVU1163
 5039 01f6 7F29     		cmp	r1, #127
 5040              	.LBE1593:
 5041              	.LBE1592:
 5042              	.LBE1591:
 227:../../libdaisy/src/hid/disp/display.h ****         int_fast16_t deltaY = abs((int_fast16_t)y2 - (int_fast16_t)y1);
 5043              		.loc 3 227 52 view .LVU1164
 5044 01f8 A1EB030E 		sub	lr, r1, r3
 5045              	.LBB1602:
 5046              	.LBB1599:
 5047              	.LBB1596:
 241:../../libdaisy/src/dev/oled_ssd130x.h ****             return;
 5048              		.loc 14 241 14 view .LVU1165
 5049 01fc 94BF     		ite	ls
 5050 01fe 4FF00009 		movls	r9, #0
 5051 0202 4FF00109 		movhi	r9, #1
 5052              	.LBE1596:
 5053              	.LBE1599:
 5054              	.LBE1602:
 229:../../libdaisy/src/hid/disp/display.h ****         int_fast16_t signY  = ((y1 < y2) ? 1 : -1);
ARM GAS  /tmp/ccoLrWzv.s 			page 143


 5055              		.loc 3 229 22 view .LVU1166
 5056 0206 9942     		cmp	r1, r3
 5057 0208 8CBF     		ite	hi
 5058 020a 4FF00108 		movhi	r8, #1
 5059 020e 4FF0FF38 		movls	r8, #-1
 227:../../libdaisy/src/hid/disp/display.h ****         int_fast16_t deltaY = abs((int_fast16_t)y2 - (int_fast16_t)y1);
 5060              		.loc 3 227 22 view .LVU1167
 5061 0212 BEF1000F 		cmp	lr, #0
 5062 0216 B8BF     		it	lt
 5063 0218 CEF1000E 		rsblt	lr, lr, #0
 5064              	.LVL400:
 5065              	.LBB1603:
 5066              	.LBI1591:
  41:../../libdaisy/src/hid/disp/oled_display.h ****     {
 5067              		.loc 2 41 10 is_stmt 1 view .LVU1168
 5068              	.LBB1600:
 5069              	.LBI1592:
 239:../../libdaisy/src/dev/oled_ssd130x.h ****     {
 5070              		.loc 14 239 10 view .LVU1169
 5071              	.LBB1597:
 241:../../libdaisy/src/dev/oled_ssd130x.h ****             return;
 5072              		.loc 14 241 9 is_stmt 0 view .LVU1170
 5073 021c B9F1000F 		cmp	r9, #0
 5074 0220 13D1     		bne	.L357
 5075 0222 039E     		ldr	r6, [sp, #12]
 5076 0224 8EB9     		cbnz	r6, .L357
 244:../../libdaisy/src/dev/oled_ssd130x.h ****         else
 5077              		.loc 14 244 28 view .LVU1171
 5078 0226 E608     		lsrs	r6, r4, #3
 244:../../libdaisy/src/dev/oled_ssd130x.h ****         else
 5079              		.loc 14 244 48 view .LVU1172
 5080 0228 4FF0010C 		mov	ip, #1
 244:../../libdaisy/src/dev/oled_ssd130x.h ****         else
 5081              		.loc 14 244 54 view .LVU1173
 5082 022c 04F00707 		and	r7, r4, #7
 244:../../libdaisy/src/dev/oled_ssd130x.h ****         else
 5083              		.loc 14 244 42 view .LVU1174
 5084 0230 01EBC616 		add	r6, r1, r6, lsl #7
 244:../../libdaisy/src/dev/oled_ssd130x.h ****         else
 5085              		.loc 14 244 48 view .LVU1175
 5086 0234 0CFA07F7 		lsl	r7, ip, r7
 244:../../libdaisy/src/dev/oled_ssd130x.h ****         else
 5087              		.loc 14 244 13 view .LVU1176
 5088 0238 0644     		add	r6, r6, r0
 244:../../libdaisy/src/dev/oled_ssd130x.h ****         else
 5089              		.loc 14 244 42 view .LVU1177
 5090 023a 96F814C0 		ldrb	ip, [r6, #20]	@ zero_extendqisi2
 243:../../libdaisy/src/dev/oled_ssd130x.h ****             buffer_[x + (y / 8) * width] |= (1 << (y % 8));
 5091              		.loc 14 243 9 view .LVU1178
 5092 023e 002D     		cmp	r5, #0
 5093 0240 00F0DB80 		beq	.L358
 244:../../libdaisy/src/dev/oled_ssd130x.h ****         else
 5094              		.loc 14 244 42 view .LVU1179
 5095 0244 47EA0C07 		orr	r7, r7, ip
 244:../../libdaisy/src/dev/oled_ssd130x.h ****         else
 5096              		.loc 14 244 13 view .LVU1180
 5097 0248 3775     		strb	r7, [r6, #20]
ARM GAS  /tmp/ccoLrWzv.s 			page 144


 5098              	.L357:
 5099              	.LVL401:
 244:../../libdaisy/src/dev/oled_ssd130x.h ****         else
 5100              		.loc 14 244 13 view .LVU1181
 5101              	.LBE1597:
 5102              	.LBE1600:
 5103              	.LBE1603:
 239:../../libdaisy/src/hid/disp/display.h ****         {
 5104              		.loc 3 239 26 is_stmt 1 view .LVU1182
 5105 024a 049E     		ldr	r6, [sp, #16]
 5106 024c 2EBB     		cbnz	r6, .L359
 227:../../libdaisy/src/hid/disp/display.h ****         int_fast16_t deltaY = abs((int_fast16_t)y2 - (int_fast16_t)y1);
 5107              		.loc 3 227 22 is_stmt 0 view .LVU1183
 5108 024e 7746     		mov	r7, lr
 239:../../libdaisy/src/hid/disp/display.h ****         {
 5109              		.loc 3 239 26 view .LVU1184
 5110 0250 2646     		mov	r6, r4
 5111              	.LVL402:
 5112              	.L360:
 5113              	.LBB1604:
 5114              	.LBI1604:
  41:../../libdaisy/src/hid/disp/oled_display.h ****     {
 5115              		.loc 2 41 10 is_stmt 1 view .LVU1185
 5116              	.LBB1605:
 5117              	.LBI1605:
 239:../../libdaisy/src/dev/oled_ssd130x.h ****     {
 5118              		.loc 14 239 10 view .LVU1186
 5119              	.LBB1606:
 241:../../libdaisy/src/dev/oled_ssd130x.h ****             return;
 5120              		.loc 14 241 9 is_stmt 0 view .LVU1187
 5121 0252 7F2B     		cmp	r3, #127
 5122 0254 15D8     		bhi	.L362
 241:../../libdaisy/src/dev/oled_ssd130x.h ****             return;
 5123              		.loc 14 241 9 view .LVU1188
 5124 0256 3F2E     		cmp	r6, #63
 5125 0258 13D8     		bhi	.L362
 244:../../libdaisy/src/dev/oled_ssd130x.h ****         else
 5126              		.loc 14 244 28 view .LVU1189
 5127 025a 4FEAD60C 		lsr	ip, r6, #3
 244:../../libdaisy/src/dev/oled_ssd130x.h ****         else
 5128              		.loc 14 244 48 view .LVU1190
 5129 025e 4FF0010B 		mov	fp, #1
 244:../../libdaisy/src/dev/oled_ssd130x.h ****         else
 5130              		.loc 14 244 54 view .LVU1191
 5131 0262 06F0070A 		and	r10, r6, #7
 244:../../libdaisy/src/dev/oled_ssd130x.h ****         else
 5132              		.loc 14 244 42 view .LVU1192
 5133 0266 03EBCC1C 		add	ip, r3, ip, lsl #7
 244:../../libdaisy/src/dev/oled_ssd130x.h ****         else
 5134              		.loc 14 244 48 view .LVU1193
 5135 026a 0BFA0AFA 		lsl	r10, fp, r10
 244:../../libdaisy/src/dev/oled_ssd130x.h ****         else
 5136              		.loc 14 244 13 view .LVU1194
 5137 026e 8444     		add	ip, ip, r0
 244:../../libdaisy/src/dev/oled_ssd130x.h ****         else
 5138              		.loc 14 244 42 view .LVU1195
 5139 0270 9CF814B0 		ldrb	fp, [ip, #20]	@ zero_extendqisi2
ARM GAS  /tmp/ccoLrWzv.s 			page 145


 243:../../libdaisy/src/dev/oled_ssd130x.h ****             buffer_[x + (y / 8) * width] |= (1 << (y % 8));
 5140              		.loc 14 243 9 view .LVU1196
 5141 0274 002D     		cmp	r5, #0
 5142 0276 00F09A80 		beq	.L363
 244:../../libdaisy/src/dev/oled_ssd130x.h ****         else
 5143              		.loc 14 244 42 view .LVU1197
 5144 027a 4AEA0B0A 		orr	r10, r10, fp
 244:../../libdaisy/src/dev/oled_ssd130x.h ****         else
 5145              		.loc 14 244 13 view .LVU1198
 5146 027e 8CF814A0 		strb	r10, [ip, #20]
 5147              	.L362:
 5148              	.LVL403:
 244:../../libdaisy/src/dev/oled_ssd130x.h ****         else
 5149              		.loc 14 244 13 view .LVU1199
 5150              	.LBE1606:
 5151              	.LBE1605:
 5152              	.LBE1604:
 243:../../libdaisy/src/hid/disp/display.h ****             {
 5153              		.loc 3 243 13 view .LVU1200
 5154 0282 5FEA470C 		lsls	ip, r7, #1
 5155              	.LVL404:
 246:../../libdaisy/src/hid/disp/display.h ****             }
 5156              		.loc 3 246 17 view .LVU1201
 5157 0286 18BF     		it	ne
 5158 0288 4344     		addne	r3, r3, r8
 5159              	.LVL405:
 249:../../libdaisy/src/hid/disp/display.h ****             {
 5160              		.loc 3 249 13 view .LVU1202
 5161 028a E645     		cmp	lr, ip
 5162 028c 01DD     		ble	.L365
 251:../../libdaisy/src/hid/disp/display.h ****                 y1 += signY;
 5163              		.loc 3 251 17 view .LVU1203
 5164 028e 7744     		add	r7, r7, lr
 5165              	.LVL406:
 252:../../libdaisy/src/hid/disp/display.h ****             }
 5166              		.loc 3 252 17 view .LVU1204
 5167 0290 013E     		subs	r6, r6, #1
 5168              	.LVL407:
 5169              	.L365:
 239:../../libdaisy/src/hid/disp/display.h ****         {
 5170              		.loc 3 239 26 is_stmt 1 view .LVU1205
 5171 0292 9942     		cmp	r1, r3
 5172 0294 DDD1     		bne	.L360
 239:../../libdaisy/src/hid/disp/display.h ****         {
 5173              		.loc 3 239 26 is_stmt 0 view .LVU1206
 5174 0296 B442     		cmp	r4, r6
 5175 0298 DBD1     		bne	.L360
 5176              	.LVL408:
 5177              	.L359:
 239:../../libdaisy/src/hid/disp/display.h ****         {
 5178              		.loc 3 239 26 view .LVU1207
 5179              	.LBE1590:
 5180              	.LBE1589:
 5181              	.LBB1615:
 5182              	.LBI1615:
 221:../../libdaisy/src/hid/disp/display.h ****                   uint_fast8_t y1,
 5183              		.loc 3 221 10 is_stmt 1 view .LVU1208
ARM GAS  /tmp/ccoLrWzv.s 			page 146


 5184              	.LBB1616:
 228:../../libdaisy/src/hid/disp/display.h ****         int_fast16_t signX  = ((x1 < x2) ? 1 : -1);
 5185              		.loc 3 228 52 is_stmt 0 view .LVU1209
 5186 029a A2EB040E 		sub	lr, r2, r4
 230:../../libdaisy/src/hid/disp/display.h ****         int_fast16_t error  = deltaX - deltaY;
 5187              		.loc 3 230 22 view .LVU1210
 5188 029e A242     		cmp	r2, r4
 5189 02a0 8CBF     		ite	hi
 5190 02a2 4FF00108 		movhi	r8, #1
 5191 02a6 4FF0FF38 		movls	r8, #-1
 5192              	.LVL409:
 228:../../libdaisy/src/hid/disp/display.h ****         int_fast16_t signX  = ((x1 < x2) ? 1 : -1);
 5193              		.loc 3 228 22 view .LVU1211
 5194 02aa BEF1000F 		cmp	lr, #0
 5195 02ae B8BF     		it	lt
 5196 02b0 CEF1000E 		rsblt	lr, lr, #0
 5197              	.LVL410:
 231:../../libdaisy/src/hid/disp/display.h ****         int_fast16_t error2;
 5198              		.loc 3 231 22 view .LVU1212
 5199 02b4 CEF1000C 		rsb	ip, lr, #0
 5200              	.LVL411:
 5201              	.LBB1617:
 5202              	.LBI1617:
  41:../../libdaisy/src/hid/disp/oled_display.h ****     {
 5203              		.loc 2 41 10 is_stmt 1 view .LVU1213
 5204              	.LBB1618:
 5205              	.LBI1618:
 239:../../libdaisy/src/dev/oled_ssd130x.h ****     {
 5206              		.loc 14 239 10 view .LVU1214
 5207              	.LBB1619:
 241:../../libdaisy/src/dev/oled_ssd130x.h ****             return;
 5208              		.loc 14 241 9 is_stmt 0 view .LVU1215
 5209 02b8 B9F1000F 		cmp	r9, #0
 5210 02bc 0FD1     		bne	.L367
 5211 02be 029B     		ldr	r3, [sp, #8]
 5212 02c0 6BB9     		cbnz	r3, .L367
 244:../../libdaisy/src/dev/oled_ssd130x.h ****         else
 5213              		.loc 14 244 28 view .LVU1216
 5214 02c2 D308     		lsrs	r3, r2, #3
 244:../../libdaisy/src/dev/oled_ssd130x.h ****         else
 5215              		.loc 14 244 54 view .LVU1217
 5216 02c4 02F00707 		and	r7, r2, #7
 244:../../libdaisy/src/dev/oled_ssd130x.h ****         else
 5217              		.loc 14 244 48 view .LVU1218
 5218 02c8 0126     		movs	r6, #1
 244:../../libdaisy/src/dev/oled_ssd130x.h ****         else
 5219              		.loc 14 244 42 view .LVU1219
 5220 02ca 01EBC313 		add	r3, r1, r3, lsl #7
 243:../../libdaisy/src/dev/oled_ssd130x.h ****             buffer_[x + (y / 8) * width] |= (1 << (y % 8));
 5221              		.loc 14 243 9 view .LVU1220
 5222 02ce 002D     		cmp	r5, #0
 5223 02d0 00F08B80 		beq	.L368
 244:../../libdaisy/src/dev/oled_ssd130x.h ****         else
 5224              		.loc 14 244 13 view .LVU1221
 5225 02d4 0344     		add	r3, r3, r0
 244:../../libdaisy/src/dev/oled_ssd130x.h ****         else
 5226              		.loc 14 244 48 view .LVU1222
ARM GAS  /tmp/ccoLrWzv.s 			page 147


 5227 02d6 BE40     		lsls	r6, r6, r7
 244:../../libdaisy/src/dev/oled_ssd130x.h ****         else
 5228              		.loc 14 244 42 view .LVU1223
 5229 02d8 1F7D     		ldrb	r7, [r3, #20]	@ zero_extendqisi2
 5230 02da 3E43     		orrs	r6, r6, r7
 244:../../libdaisy/src/dev/oled_ssd130x.h ****         else
 5231              		.loc 14 244 13 view .LVU1224
 5232 02dc 1E75     		strb	r6, [r3, #20]
 5233              	.L367:
 5234              	.LVL412:
 244:../../libdaisy/src/dev/oled_ssd130x.h ****         else
 5235              		.loc 14 244 13 view .LVU1225
 5236              	.LBE1619:
 5237              	.LBE1618:
 5238              	.LBE1617:
 239:../../libdaisy/src/hid/disp/display.h ****         {
 5239              		.loc 3 239 26 is_stmt 1 view .LVU1226
 5240 02de 019B     		ldr	r3, [sp, #4]
 5241 02e0 002B     		cmp	r3, #0
 5242 02e2 7FF4C8AE 		bne	.L325
 5243 02e6 6646     		mov	r6, ip
 5244 02e8 0B46     		mov	r3, r1
 5245              	.LVL413:
 5246              	.L369:
 5247              	.LBB1624:
 5248              	.LBI1624:
  41:../../libdaisy/src/hid/disp/oled_display.h ****     {
 5249              		.loc 2 41 10 view .LVU1227
 5250              	.LBB1625:
 5251              	.LBI1625:
 239:../../libdaisy/src/dev/oled_ssd130x.h ****     {
 5252              		.loc 14 239 10 view .LVU1228
 5253              	.LBB1626:
 241:../../libdaisy/src/dev/oled_ssd130x.h ****             return;
 5254              		.loc 14 241 9 is_stmt 0 view .LVU1229
 5255 02ea 7F2B     		cmp	r3, #127
 5256 02ec 13D8     		bhi	.L371
 241:../../libdaisy/src/dev/oled_ssd130x.h ****             return;
 5257              		.loc 14 241 9 view .LVU1230
 5258 02ee 3F2C     		cmp	r4, #63
 5259 02f0 11D8     		bhi	.L371
 244:../../libdaisy/src/dev/oled_ssd130x.h ****         else
 5260              		.loc 14 244 28 view .LVU1231
 5261 02f2 E708     		lsrs	r7, r4, #3
 244:../../libdaisy/src/dev/oled_ssd130x.h ****         else
 5262              		.loc 14 244 54 view .LVU1232
 5263 02f4 04F0070A 		and	r10, r4, #7
 244:../../libdaisy/src/dev/oled_ssd130x.h ****         else
 5264              		.loc 14 244 48 view .LVU1233
 5265 02f8 4FF00109 		mov	r9, #1
 244:../../libdaisy/src/dev/oled_ssd130x.h ****         else
 5266              		.loc 14 244 42 view .LVU1234
 5267 02fc 03EBC717 		add	r7, r3, r7, lsl #7
 243:../../libdaisy/src/dev/oled_ssd130x.h ****             buffer_[x + (y / 8) * width] |= (1 << (y % 8));
 5268              		.loc 14 243 9 view .LVU1235
 5269 0300 002D     		cmp	r5, #0
 5270 0302 40D0     		beq	.L372
ARM GAS  /tmp/ccoLrWzv.s 			page 148


 244:../../libdaisy/src/dev/oled_ssd130x.h ****         else
 5271              		.loc 14 244 13 view .LVU1236
 5272 0304 0744     		add	r7, r7, r0
 244:../../libdaisy/src/dev/oled_ssd130x.h ****         else
 5273              		.loc 14 244 48 view .LVU1237
 5274 0306 09FA0AF9 		lsl	r9, r9, r10
 244:../../libdaisy/src/dev/oled_ssd130x.h ****         else
 5275              		.loc 14 244 42 view .LVU1238
 5276 030a 97F814A0 		ldrb	r10, [r7, #20]	@ zero_extendqisi2
 5277 030e 49EA0A09 		orr	r9, r9, r10
 244:../../libdaisy/src/dev/oled_ssd130x.h ****         else
 5278              		.loc 14 244 13 view .LVU1239
 5279 0312 87F81490 		strb	r9, [r7, #20]
 5280              	.L371:
 5281              	.LVL414:
 244:../../libdaisy/src/dev/oled_ssd130x.h ****         else
 5282              		.loc 14 244 13 view .LVU1240
 5283              	.LBE1626:
 5284              	.LBE1625:
 5285              	.LBE1624:
 243:../../libdaisy/src/hid/disp/display.h ****             {
 5286              		.loc 3 243 13 view .LVU1241
 5287 0316 BCEB460F 		cmp	ip, r6, lsl #1
 242:../../libdaisy/src/hid/disp/display.h ****             if(error2 > -deltaY)
 5288              		.loc 3 242 13 view .LVU1242
 5289 031a 4FEA4607 		lsl	r7, r6, #1
 5290              	.LVL415:
 243:../../libdaisy/src/hid/disp/display.h ****             {
 5291              		.loc 3 243 13 view .LVU1243
 5292 031e 02DA     		bge	.L373
 245:../../libdaisy/src/hid/disp/display.h ****                 x1 += signX;
 5293              		.loc 3 245 17 view .LVU1244
 5294 0320 A6EB0E06 		sub	r6, r6, lr
 5295              	.LVL416:
 246:../../libdaisy/src/hid/disp/display.h ****             }
 5296              		.loc 3 246 17 view .LVU1245
 5297 0324 013B     		subs	r3, r3, #1
 5298              	.LVL417:
 5299              	.L373:
 249:../../libdaisy/src/hid/disp/display.h ****             {
 5300              		.loc 3 249 13 view .LVU1246
 5301 0326 07B1     		cbz	r7, .L374
 252:../../libdaisy/src/hid/disp/display.h ****             }
 5302              		.loc 3 252 17 view .LVU1247
 5303 0328 4444     		add	r4, r4, r8
 5304              	.LVL418:
 5305              	.L374:
 239:../../libdaisy/src/hid/disp/display.h ****         {
 5306              		.loc 3 239 26 is_stmt 1 view .LVU1248
 5307 032a 9942     		cmp	r1, r3
 5308 032c DDD1     		bne	.L369
 239:../../libdaisy/src/hid/disp/display.h ****         {
 5309              		.loc 3 239 26 is_stmt 0 view .LVU1249
 5310 032e A242     		cmp	r2, r4
 5311 0330 DBD1     		bne	.L369
 5312              	.LBE1616:
 5313              	.LBE1615:
ARM GAS  /tmp/ccoLrWzv.s 			page 149


 5314              	.LBE1527:
 281:../../libdaisy/src/hid/disp/display.h **** 
 5315              		.loc 3 281 5 view .LVU1250
 5316 0332 07B0     		add	sp, sp, #28
 5317              		.cfi_remember_state
 5318              		.cfi_def_cfa_offset 36
 5319              		@ sp needed
 5320 0334 BDE8F08F 		pop	{r4, r5, r6, r7, r8, r9, r10, fp, pc}
 5321              	.LVL419:
 5322              	.L416:
 5323              		.cfi_restore_state
 5324              	.LBB1646:
 5325              	.LBB1635:
 5326              	.LBB1552:
 5327              	.LBB1549:
  41:../../libdaisy/src/hid/disp/oled_display.h ****     {
 5328              		.loc 2 41 10 is_stmt 1 view .LVU1251
 5329              	.LBB1539:
 239:../../libdaisy/src/dev/oled_ssd130x.h ****     {
 5330              		.loc 14 239 10 view .LVU1252
 5331              	.LBB1536:
 241:../../libdaisy/src/dev/oled_ssd130x.h ****             return;
 5332              		.loc 14 241 14 is_stmt 0 view .LVU1253
 5333 0338 7F2B     		cmp	r3, #127
 5334              	.LBE1536:
 5335              	.LBE1539:
 5336              	.LBE1549:
 229:../../libdaisy/src/hid/disp/display.h ****         int_fast16_t signY  = ((y1 < y2) ? 1 : -1);
 5337              		.loc 3 229 22 view .LVU1254
 5338 033a 4FF0FF39 		mov	r9, #-1
 5339              	.LBB1550:
 5340              	.LBB1540:
 5341              	.LBB1537:
 241:../../libdaisy/src/dev/oled_ssd130x.h ****             return;
 5342              		.loc 14 241 14 view .LVU1255
 5343 033e 94BF     		ite	ls
 5344 0340 0026     		movls	r6, #0
 5345 0342 0126     		movhi	r6, #1
 241:../../libdaisy/src/dev/oled_ssd130x.h ****             return;
 5346              		.loc 14 241 28 view .LVU1256
 5347 0344 3F2A     		cmp	r2, #63
 241:../../libdaisy/src/dev/oled_ssd130x.h ****             return;
 5348              		.loc 14 241 14 view .LVU1257
 5349 0346 0096     		str	r6, [sp]
 241:../../libdaisy/src/dev/oled_ssd130x.h ****             return;
 5350              		.loc 14 241 28 view .LVU1258
 5351 0348 94BF     		ite	ls
 5352 034a 0027     		movls	r7, #0
 5353 034c 0127     		movhi	r7, #1
 5354 034e 0297     		str	r7, [sp, #8]
 241:../../libdaisy/src/dev/oled_ssd130x.h ****             return;
 5355              		.loc 14 241 9 view .LVU1259
 5356 0350 002E     		cmp	r6, #0
 5357 0352 7FF4C3AE 		bne	.L335
 5358 0356 002F     		cmp	r7, #0
 5359 0358 7FF4C0AE 		bne	.L335
 243:../../libdaisy/src/dev/oled_ssd130x.h ****             buffer_[x + (y / 8) * width] |= (1 << (y % 8));
ARM GAS  /tmp/ccoLrWzv.s 			page 150


 5360              		.loc 14 243 9 view .LVU1260
 5361 035c 002D     		cmp	r5, #0
 5362 035e 7FF4A8AE 		bne	.L419
 5363              	.LVL420:
 5364              	.L336:
 5365              	.LBB1533:
 5366              	.LBI1533:
 239:../../libdaisy/src/dev/oled_ssd130x.h ****     {
 5367              		.loc 14 239 10 is_stmt 1 view .LVU1261
 5368              	.LBB1534:
 246:../../libdaisy/src/dev/oled_ssd130x.h ****     }
 5369              		.loc 14 246 28 is_stmt 0 view .LVU1262
 5370 0362 D608     		lsrs	r6, r2, #3
 246:../../libdaisy/src/dev/oled_ssd130x.h ****     }
 5371              		.loc 14 246 49 view .LVU1263
 5372 0364 4FF0010C 		mov	ip, #1
 246:../../libdaisy/src/dev/oled_ssd130x.h ****     }
 5373              		.loc 14 246 55 view .LVU1264
 5374 0368 02F00707 		and	r7, r2, #7
 246:../../libdaisy/src/dev/oled_ssd130x.h ****     }
 5375              		.loc 14 246 13 view .LVU1265
 5376 036c 0295     		str	r5, [sp, #8]
 246:../../libdaisy/src/dev/oled_ssd130x.h ****     }
 5377              		.loc 14 246 42 view .LVU1266
 5378 036e 03EBC616 		add	r6, r3, r6, lsl #7
 246:../../libdaisy/src/dev/oled_ssd130x.h ****     }
 5379              		.loc 14 246 13 view .LVU1267
 5380 0372 0095     		str	r5, [sp]
 246:../../libdaisy/src/dev/oled_ssd130x.h ****     }
 5381              		.loc 14 246 49 view .LVU1268
 5382 0374 0CFA07F7 		lsl	r7, ip, r7
 246:../../libdaisy/src/dev/oled_ssd130x.h ****     }
 5383              		.loc 14 246 13 view .LVU1269
 5384 0378 0644     		add	r6, r6, r0
 246:../../libdaisy/src/dev/oled_ssd130x.h ****     }
 5385              		.loc 14 246 42 view .LVU1270
 5386 037a 96F814C0 		ldrb	ip, [r6, #20]	@ zero_extendqisi2
 5387 037e 2CEA0707 		bic	r7, ip, r7
 246:../../libdaisy/src/dev/oled_ssd130x.h ****     }
 5388              		.loc 14 246 13 view .LVU1271
 5389 0382 3775     		strb	r7, [r6, #20]
 5390 0384 AAE6     		b	.L335
 5391              	.LVL421:
 5392              	.L372:
 246:../../libdaisy/src/dev/oled_ssd130x.h ****     }
 5393              		.loc 14 246 13 view .LVU1272
 5394              	.LBE1534:
 5395              	.LBE1533:
 5396              	.LBE1537:
 5397              	.LBE1540:
 5398              	.LBE1550:
 5399              	.LBE1552:
 5400              	.LBE1635:
 5401              	.LBB1636:
 5402              	.LBB1633:
 5403              	.LBB1631:
 5404              	.LBB1630:
ARM GAS  /tmp/ccoLrWzv.s 			page 151


 5405              	.LBB1629:
 5406              	.LBB1627:
 5407              	.LBI1627:
 239:../../libdaisy/src/dev/oled_ssd130x.h ****     {
 5408              		.loc 14 239 10 is_stmt 1 view .LVU1273
 5409              	.LBB1628:
 246:../../libdaisy/src/dev/oled_ssd130x.h ****     }
 5410              		.loc 14 246 13 is_stmt 0 view .LVU1274
 5411 0386 0744     		add	r7, r7, r0
 246:../../libdaisy/src/dev/oled_ssd130x.h ****     }
 5412              		.loc 14 246 49 view .LVU1275
 5413 0388 09FA0AFA 		lsl	r10, r9, r10
 246:../../libdaisy/src/dev/oled_ssd130x.h ****     }
 5414              		.loc 14 246 42 view .LVU1276
 5415 038c 97F81490 		ldrb	r9, [r7, #20]	@ zero_extendqisi2
 5416 0390 29EA0A09 		bic	r9, r9, r10
 246:../../libdaisy/src/dev/oled_ssd130x.h ****     }
 5417              		.loc 14 246 13 view .LVU1277
 5418 0394 87F81490 		strb	r9, [r7, #20]
 5419 0398 BDE7     		b	.L371
 5420              	.LVL422:
 5421              	.L342:
 246:../../libdaisy/src/dev/oled_ssd130x.h ****     }
 5422              		.loc 14 246 13 view .LVU1278
 5423              	.LBE1628:
 5424              	.LBE1627:
 5425              	.LBE1629:
 5426              	.LBE1630:
 5427              	.LBE1631:
 5428              	.LBE1633:
 5429              	.LBE1636:
 5430              	.LBB1637:
 5431              	.LBB1553:
 5432              	.LBB1551:
 5433              	.LBB1548:
 5434              	.LBB1547:
 5435              	.LBB1545:
 5436              	.LBI1545:
 239:../../libdaisy/src/dev/oled_ssd130x.h ****     {
 5437              		.loc 14 239 10 is_stmt 1 view .LVU1279
 5438              	.LBB1546:
 246:../../libdaisy/src/dev/oled_ssd130x.h ****     }
 5439              		.loc 14 246 42 is_stmt 0 view .LVU1280
 5440 039a 2BEA0A0A 		bic	r10, fp, r10
 246:../../libdaisy/src/dev/oled_ssd130x.h ****     }
 5441              		.loc 14 246 13 view .LVU1281
 5442 039e 8EF814A0 		strb	r10, [lr, #20]
 5443 03a2 B9E6     		b	.L341
 5444              	.LVL423:
 5445              	.L353:
 246:../../libdaisy/src/dev/oled_ssd130x.h ****     }
 5446              		.loc 14 246 13 view .LVU1282
 5447              	.LBE1546:
 5448              	.LBE1545:
 5449              	.LBE1547:
 5450              	.LBE1548:
 5451              	.LBE1551:
ARM GAS  /tmp/ccoLrWzv.s 			page 152


 5452              	.LBE1553:
 5453              	.LBE1637:
 5454              	.LBB1638:
 5455              	.LBB1585:
 5456              	.LBB1582:
 5457              	.LBB1581:
 5458              	.LBB1580:
 5459              	.LBB1578:
 5460              	.LBI1578:
 239:../../libdaisy/src/dev/oled_ssd130x.h ****     {
 5461              		.loc 14 239 10 is_stmt 1 view .LVU1283
 5462              	.LBB1579:
 246:../../libdaisy/src/dev/oled_ssd130x.h ****     }
 5463              		.loc 14 246 42 is_stmt 0 view .LVU1284
 5464 03a4 2BEA0A0A 		bic	r10, fp, r10
 246:../../libdaisy/src/dev/oled_ssd130x.h ****     }
 5465              		.loc 14 246 13 view .LVU1285
 5466 03a8 8EF814A0 		strb	r10, [lr, #20]
 5467 03ac 11E7     		b	.L352
 5468              	.LVL424:
 5469              	.L363:
 246:../../libdaisy/src/dev/oled_ssd130x.h ****     }
 5470              		.loc 14 246 13 view .LVU1286
 5471              	.LBE1579:
 5472              	.LBE1578:
 5473              	.LBE1580:
 5474              	.LBE1581:
 5475              	.LBE1582:
 5476              	.LBE1585:
 5477              	.LBE1638:
 5478              	.LBB1639:
 5479              	.LBB1613:
 5480              	.LBB1611:
 5481              	.LBB1610:
 5482              	.LBB1609:
 5483              	.LBB1607:
 5484              	.LBI1607:
 239:../../libdaisy/src/dev/oled_ssd130x.h ****     {
 5485              		.loc 14 239 10 is_stmt 1 view .LVU1287
 5486              	.LBB1608:
 246:../../libdaisy/src/dev/oled_ssd130x.h ****     }
 5487              		.loc 14 246 42 is_stmt 0 view .LVU1288
 5488 03ae 2BEA0A0A 		bic	r10, fp, r10
 246:../../libdaisy/src/dev/oled_ssd130x.h ****     }
 5489              		.loc 14 246 13 view .LVU1289
 5490 03b2 8CF814A0 		strb	r10, [ip, #20]
 5491 03b6 64E7     		b	.L362
 5492              	.LVL425:
 5493              	.L345:
 246:../../libdaisy/src/dev/oled_ssd130x.h ****     }
 5494              		.loc 14 246 13 view .LVU1290
 5495              	.LBE1608:
 5496              	.LBE1607:
 5497              	.LBE1609:
 5498              	.LBE1610:
 5499              	.LBE1611:
 5500              	.LBE1613:
ARM GAS  /tmp/ccoLrWzv.s 			page 153


 5501              	.LBE1639:
 5502              	.LBB1640:
 5503              	.LBB1586:
 5504              	.LBB1583:
  41:../../libdaisy/src/hid/disp/oled_display.h ****     {
 5505              		.loc 2 41 10 is_stmt 1 view .LVU1291
 5506              	.LBB1570:
 239:../../libdaisy/src/dev/oled_ssd130x.h ****     {
 5507              		.loc 14 239 10 view .LVU1292
 5508              	.LBB1565:
 241:../../libdaisy/src/dev/oled_ssd130x.h ****             return;
 5509              		.loc 14 241 9 is_stmt 0 view .LVU1293
 5510 03b8 3EBB     		cbnz	r6, .L384
 5511 03ba 009E     		ldr	r6, [sp]
 5512 03bc 2EBB     		cbnz	r6, .L384
 5513              	.LBE1565:
 5514              	.LBE1570:
 5515              	.LBE1583:
 230:../../libdaisy/src/hid/disp/display.h ****         int_fast16_t error  = deltaX - deltaY;
 5516              		.loc 3 230 22 view .LVU1294
 5517 03be 0126     		movs	r6, #1
 5518 03c0 0096     		str	r6, [sp]
 5519              	.LBB1584:
 5520              	.LBB1571:
 5521              	.LBB1566:
 243:../../libdaisy/src/dev/oled_ssd130x.h ****             buffer_[x + (y / 8) * width] |= (1 << (y % 8));
 5522              		.loc 14 243 9 view .LVU1295
 5523 03c2 002D     		cmp	r5, #0
 5524 03c4 7FF4D4AE 		bne	.L420
 5525              	.LVL426:
 5526              	.L347:
 5527              	.LBB1560:
 5528              	.LBI1560:
 239:../../libdaisy/src/dev/oled_ssd130x.h ****     {
 5529              		.loc 14 239 10 is_stmt 1 view .LVU1296
 5530              	.LBB1561:
 246:../../libdaisy/src/dev/oled_ssd130x.h ****     }
 5531              		.loc 14 246 28 is_stmt 0 view .LVU1297
 5532 03c8 E608     		lsrs	r6, r4, #3
 246:../../libdaisy/src/dev/oled_ssd130x.h ****     }
 5533              		.loc 14 246 49 view .LVU1298
 5534 03ca 4FF0010C 		mov	ip, #1
 246:../../libdaisy/src/dev/oled_ssd130x.h ****     }
 5535              		.loc 14 246 55 view .LVU1299
 5536 03ce 04F00707 		and	r7, r4, #7
 246:../../libdaisy/src/dev/oled_ssd130x.h ****     }
 5537              		.loc 14 246 13 view .LVU1300
 5538 03d2 0395     		str	r5, [sp, #12]
 246:../../libdaisy/src/dev/oled_ssd130x.h ****     }
 5539              		.loc 14 246 42 view .LVU1301
 5540 03d4 03EBC616 		add	r6, r3, r6, lsl #7
 246:../../libdaisy/src/dev/oled_ssd130x.h ****     }
 5541              		.loc 14 246 49 view .LVU1302
 5542 03d8 0CFA07F7 		lsl	r7, ip, r7
 246:../../libdaisy/src/dev/oled_ssd130x.h ****     }
 5543              		.loc 14 246 13 view .LVU1303
 5544 03dc 0644     		add	r6, r6, r0
ARM GAS  /tmp/ccoLrWzv.s 			page 154


 246:../../libdaisy/src/dev/oled_ssd130x.h ****     }
 5545              		.loc 14 246 42 view .LVU1304
 5546 03de 96F814C0 		ldrb	ip, [r6, #20]	@ zero_extendqisi2
 5547 03e2 2CEA0707 		bic	r7, ip, r7
 246:../../libdaisy/src/dev/oled_ssd130x.h ****     }
 5548              		.loc 14 246 13 view .LVU1305
 5549 03e6 3775     		strb	r7, [r6, #20]
 5550 03e8 D4E6     		b	.L346
 5551              	.LVL427:
 5552              	.L368:
 246:../../libdaisy/src/dev/oled_ssd130x.h ****     }
 5553              		.loc 14 246 13 view .LVU1306
 5554              	.LBE1561:
 5555              	.LBE1560:
 5556              	.LBE1566:
 5557              	.LBE1571:
 5558              	.LBE1584:
 5559              	.LBE1586:
 5560              	.LBE1640:
 5561              	.LBB1641:
 5562              	.LBB1634:
 5563              	.LBB1632:
 5564              	.LBB1623:
 5565              	.LBB1622:
 5566              	.LBB1620:
 5567              	.LBI1620:
 239:../../libdaisy/src/dev/oled_ssd130x.h ****     {
 5568              		.loc 14 239 10 is_stmt 1 view .LVU1307
 5569              	.LBB1621:
 246:../../libdaisy/src/dev/oled_ssd130x.h ****     }
 5570              		.loc 14 246 13 is_stmt 0 view .LVU1308
 5571 03ea 0344     		add	r3, r3, r0
 246:../../libdaisy/src/dev/oled_ssd130x.h ****     }
 5572              		.loc 14 246 49 view .LVU1309
 5573 03ec 06FA07F7 		lsl	r7, r6, r7
 246:../../libdaisy/src/dev/oled_ssd130x.h ****     }
 5574              		.loc 14 246 42 view .LVU1310
 5575 03f0 1E7D     		ldrb	r6, [r3, #20]	@ zero_extendqisi2
 5576 03f2 26EA0706 		bic	r6, r6, r7
 246:../../libdaisy/src/dev/oled_ssd130x.h ****     }
 5577              		.loc 14 246 13 view .LVU1311
 5578 03f6 1E75     		strb	r6, [r3, #20]
 5579 03f8 71E7     		b	.L367
 5580              	.LVL428:
 5581              	.L358:
 246:../../libdaisy/src/dev/oled_ssd130x.h ****     }
 5582              		.loc 14 246 13 view .LVU1312
 5583              	.LBE1621:
 5584              	.LBE1620:
 5585              	.LBE1622:
 5586              	.LBE1623:
 5587              	.LBE1632:
 5588              	.LBE1634:
 5589              	.LBE1641:
 5590              	.LBB1642:
 5591              	.LBB1614:
 5592              	.LBB1612:
ARM GAS  /tmp/ccoLrWzv.s 			page 155


 5593              	.LBB1601:
 5594              	.LBB1598:
 5595              	.LBB1594:
 5596              	.LBI1594:
 239:../../libdaisy/src/dev/oled_ssd130x.h ****     {
 5597              		.loc 14 239 10 is_stmt 1 view .LVU1313
 5598              	.LBB1595:
 246:../../libdaisy/src/dev/oled_ssd130x.h ****     }
 5599              		.loc 14 246 42 is_stmt 0 view .LVU1314
 5600 03fa 2CEA0707 		bic	r7, ip, r7
 246:../../libdaisy/src/dev/oled_ssd130x.h ****     }
 5601              		.loc 14 246 13 view .LVU1315
 5602 03fe 3775     		strb	r7, [r6, #20]
 5603 0400 23E7     		b	.L357
 5604              	.LVL429:
 5605              	.L380:
 246:../../libdaisy/src/dev/oled_ssd130x.h ****     }
 5606              		.loc 14 246 13 view .LVU1316
 5607              	.LBE1595:
 5608              	.LBE1594:
 5609              	.LBE1598:
 5610              	.LBE1601:
 5611              	.LBE1612:
 5612              	.LBE1614:
 5613              	.LBE1642:
 5614              	.LBB1643:
 5615              	.LBB1587:
 230:../../libdaisy/src/hid/disp/display.h ****         int_fast16_t error  = deltaX - deltaY;
 5616              		.loc 3 230 22 view .LVU1317
 5617 0402 4FF0FF36 		mov	r6, #-1
 5618 0406 0096     		str	r6, [sp]
 5619 0408 C4E6     		b	.L346
 5620              	.LVL430:
 5621              	.L384:
 230:../../libdaisy/src/hid/disp/display.h ****         int_fast16_t error  = deltaX - deltaY;
 5622              		.loc 3 230 22 view .LVU1318
 5623 040a 0126     		movs	r6, #1
 5624 040c 0096     		str	r6, [sp]
 5625 040e C4E6     		b	.L349
 5626              	.LVL431:
 5627              	.L417:
 230:../../libdaisy/src/hid/disp/display.h ****         int_fast16_t error  = deltaX - deltaY;
 5628              		.loc 3 230 22 view .LVU1319
 5629              	.LBE1587:
 5630              	.LBE1643:
 5631              	.LBB1644:
 5632              	.LBB1554:
 239:../../libdaisy/src/hid/disp/display.h ****         {
 5633              		.loc 3 239 19 view .LVU1320
 5634 0410 0126     		movs	r6, #1
 5635 0412 0496     		str	r6, [sp, #16]
 5636 0414 8EE6     		b	.L337
 5637              	.LVL432:
 5638              	.L418:
 239:../../libdaisy/src/hid/disp/display.h ****         {
 5639              		.loc 3 239 19 view .LVU1321
 5640              	.LBE1554:
ARM GAS  /tmp/ccoLrWzv.s 			page 156


 5641              	.LBE1644:
 5642              	.LBB1645:
 5643              	.LBB1588:
 239:../../libdaisy/src/hid/disp/display.h ****         {
 5644              		.loc 3 239 33 view .LVU1322
 5645 0416 0126     		movs	r6, #1
 5646 0418 0196     		str	r6, [sp, #4]
 5647 041a ECE6     		b	.L348
 5648              	.LBE1588:
 5649              	.LBE1645:
 5650              	.LBE1646:
 5651              		.cfi_endproc
 5652              	.LFE4835:
 5654              		.section	.text._Z17HandleMidiMessageN5daisy9MidiEventE,"ax",%progbits
 5655              		.align	1
 5656              		.p2align 2,,3
 5657              		.global	_Z17HandleMidiMessageN5daisy9MidiEventE
 5658              		.syntax unified
 5659              		.thumb
 5660              		.thumb_func
 5661              		.fpu fpv5-d16
 5663              	_Z17HandleMidiMessageN5daisy9MidiEventE:
 5664              	.LFB4234:
  27:Midi.cpp      **** 
  28:Midi.cpp      **** // Typical Switch case for Message Type.
  29:Midi.cpp      **** void HandleMidiMessage(MidiEvent m)
  30:Midi.cpp      **** {
 5665              		.loc 15 30 1 is_stmt 1 view -0
 5666              		.cfi_startproc
 5667              		@ args = 144, pretend = 16, frame = 0
 5668              		@ frame_needed = 0, uses_anonymous_args = 0
 5669 0000 84B0     		sub	sp, sp, #16
 5670              		.cfi_def_cfa_offset 16
 5671 0002 38B5     		push	{r3, r4, r5, lr}
 5672              		.cfi_def_cfa_offset 32
 5673              		.cfi_offset 3, -32
 5674              		.cfi_offset 4, -28
 5675              		.cfi_offset 5, -24
 5676              		.cfi_offset 14, -20
 5677              	.LVL433:
 5678              		.loc 15 30 1 is_stmt 0 view .LVU1324
 5679 0004 04AC     		add	r4, sp, #16
 5680 0006 84E80F00 		stm	r4, {r0, r1, r2, r3}
 5681              	.LVL434:
 5682              	.LBB1647:
  31:Midi.cpp      ****     switch(m.type)
 5683              		.loc 15 31 14 view .LVU1325
 5684 000a 9DF81030 		ldrb	r3, [sp, #16]	@ zero_extendqisi2
 5685 000e 9DF81820 		ldrb	r2, [sp, #24]	@ zero_extendqisi2
 5686              	.LVL435:
 5687              		.loc 15 31 5 view .LVU1326
 5688 0012 012B     		cmp	r3, #1
 5689 0014 9DF81940 		ldrb	r4, [sp, #25]	@ zero_extendqisi2
 5690              	.LVL436:
 5691              		.loc 15 31 5 view .LVU1327
 5692              	.LBE1647:
 5693              		.loc 15 31 5 is_stmt 1 view .LVU1328
ARM GAS  /tmp/ccoLrWzv.s 			page 157


 5694              	.LBB1686:
 5695 0018 09D0     		beq	.L422
 5696 001a 032B     		cmp	r3, #3
 5697 001c 03D1     		bne	.L421
 5698              	.LBE1686:
  32:Midi.cpp      ****     {
  33:Midi.cpp      ****         case NoteOn:
  34:Midi.cpp      ****         {
  35:Midi.cpp      ****             NoteOnEvent p = m.AsNoteOn();
  36:Midi.cpp      ****             // This is to avoid Max/MSP Note outs for now..
  37:Midi.cpp      ****             if(m.data[1] != 0)
  38:Midi.cpp      ****             {
  39:Midi.cpp      ****                 p = m.AsNoteOn();
  40:Midi.cpp      ****                 osc.SetFreq(mtof(p.note));
  41:Midi.cpp      ****                 osc.SetAmp((p.velocity / 127.0f));
  42:Midi.cpp      ****             }
  43:Midi.cpp      ****         }
  44:Midi.cpp      ****         break;
  45:Midi.cpp      ****         case ControlChange:
 5699              		.loc 15 45 9 view .LVU1329
  46:Midi.cpp      ****         {
 5700              		.loc 15 46 9 view .LVU1330
 5701              	.LBB1687:
 5702              	.LBB1648:
  47:Midi.cpp      ****             ControlChangeEvent p = m.AsControlChange();
 5703              		.loc 15 47 13 view .LVU1331
 5704              	.LVL437:
 5705              	.LBB1649:
 5706              	.LBI1649:
 5707              		.file 18 "../../libdaisy/src/hid/MidiEvent.h"
   1:../../libdaisy/src/hid/MidiEvent.h **** namespace daisy
   2:../../libdaisy/src/hid/MidiEvent.h **** {
   3:../../libdaisy/src/hid/MidiEvent.h **** /** Parsed from the Status Byte, these are the common Midi Messages that can be handled. \n
   4:../../libdaisy/src/hid/MidiEvent.h **** At this time only 3-byte messages are correctly parsed into MidiEvents.
   5:../../libdaisy/src/hid/MidiEvent.h **** */
   6:../../libdaisy/src/hid/MidiEvent.h **** enum MidiMessageType
   7:../../libdaisy/src/hid/MidiEvent.h **** {
   8:../../libdaisy/src/hid/MidiEvent.h ****     NoteOff,               /**< & */
   9:../../libdaisy/src/hid/MidiEvent.h ****     NoteOn,                /**< & */
  10:../../libdaisy/src/hid/MidiEvent.h ****     PolyphonicKeyPressure, /**< & */
  11:../../libdaisy/src/hid/MidiEvent.h ****     ControlChange,         /**< & */
  12:../../libdaisy/src/hid/MidiEvent.h ****     ProgramChange,         /**< & */
  13:../../libdaisy/src/hid/MidiEvent.h ****     ChannelPressure,       /**< & */
  14:../../libdaisy/src/hid/MidiEvent.h ****     PitchBend,             /**< & */
  15:../../libdaisy/src/hid/MidiEvent.h ****     SystemCommon,          /**< & */
  16:../../libdaisy/src/hid/MidiEvent.h ****     SystemRealTime,        /**< & */
  17:../../libdaisy/src/hid/MidiEvent.h ****     ChannelMode,           /**< & */
  18:../../libdaisy/src/hid/MidiEvent.h ****     MessageLast,           /**< & */
  19:../../libdaisy/src/hid/MidiEvent.h **** };
  20:../../libdaisy/src/hid/MidiEvent.h **** 
  21:../../libdaisy/src/hid/MidiEvent.h **** enum SystemCommonType
  22:../../libdaisy/src/hid/MidiEvent.h **** {
  23:../../libdaisy/src/hid/MidiEvent.h ****     SystemExclusive,     /**< & */
  24:../../libdaisy/src/hid/MidiEvent.h ****     MTCQuarterFrame,     /**< & */
  25:../../libdaisy/src/hid/MidiEvent.h ****     SongPositionPointer, /**< & */
  26:../../libdaisy/src/hid/MidiEvent.h ****     SongSelect,          /**< & */
  27:../../libdaisy/src/hid/MidiEvent.h ****     SCUndefined0,        /**< & */
ARM GAS  /tmp/ccoLrWzv.s 			page 158


  28:../../libdaisy/src/hid/MidiEvent.h ****     SCUndefined1,        /**< & */
  29:../../libdaisy/src/hid/MidiEvent.h ****     TuneRequest,         /**< & */
  30:../../libdaisy/src/hid/MidiEvent.h ****     SysExEnd,            /**< & */
  31:../../libdaisy/src/hid/MidiEvent.h ****     SystemCommonLast,    /**< & */
  32:../../libdaisy/src/hid/MidiEvent.h **** };
  33:../../libdaisy/src/hid/MidiEvent.h **** 
  34:../../libdaisy/src/hid/MidiEvent.h **** enum SystemRealTimeType
  35:../../libdaisy/src/hid/MidiEvent.h **** {
  36:../../libdaisy/src/hid/MidiEvent.h ****     TimingClock,        /**< & */
  37:../../libdaisy/src/hid/MidiEvent.h ****     SRTUndefined0,      /**< & */
  38:../../libdaisy/src/hid/MidiEvent.h ****     Start,              /**< & */
  39:../../libdaisy/src/hid/MidiEvent.h ****     Continue,           /**< & */
  40:../../libdaisy/src/hid/MidiEvent.h ****     Stop,               /**< & */
  41:../../libdaisy/src/hid/MidiEvent.h ****     SRTUndefined1,      /**< & */
  42:../../libdaisy/src/hid/MidiEvent.h ****     ActiveSensing,      /**< & */
  43:../../libdaisy/src/hid/MidiEvent.h ****     Reset,              /**< & */
  44:../../libdaisy/src/hid/MidiEvent.h ****     SystemRealTimeLast, /**< & */
  45:../../libdaisy/src/hid/MidiEvent.h **** };
  46:../../libdaisy/src/hid/MidiEvent.h **** 
  47:../../libdaisy/src/hid/MidiEvent.h **** enum ChannelModeType
  48:../../libdaisy/src/hid/MidiEvent.h **** {
  49:../../libdaisy/src/hid/MidiEvent.h ****     AllSoundOff,         /**< & */
  50:../../libdaisy/src/hid/MidiEvent.h ****     ResetAllControllers, /**< & */
  51:../../libdaisy/src/hid/MidiEvent.h ****     LocalControl,        /**< & */
  52:../../libdaisy/src/hid/MidiEvent.h ****     AllNotesOff,         /**< & */
  53:../../libdaisy/src/hid/MidiEvent.h ****     OmniModeOff,         /**< & */
  54:../../libdaisy/src/hid/MidiEvent.h ****     OmniModeOn,          /**< & */
  55:../../libdaisy/src/hid/MidiEvent.h ****     MonoModeOn,          /**< & */
  56:../../libdaisy/src/hid/MidiEvent.h ****     PolyModeOn,          /**< & */
  57:../../libdaisy/src/hid/MidiEvent.h ****     ChannelModeLast,     /**< & */
  58:../../libdaisy/src/hid/MidiEvent.h **** };
  59:../../libdaisy/src/hid/MidiEvent.h **** 
  60:../../libdaisy/src/hid/MidiEvent.h **** /** Struct containing note, and velocity data for a given channel.
  61:../../libdaisy/src/hid/MidiEvent.h **** Can be made from MidiEvent
  62:../../libdaisy/src/hid/MidiEvent.h **** */
  63:../../libdaisy/src/hid/MidiEvent.h **** struct NoteOffEvent
  64:../../libdaisy/src/hid/MidiEvent.h **** {
  65:../../libdaisy/src/hid/MidiEvent.h ****     int     channel;  /**< & */
  66:../../libdaisy/src/hid/MidiEvent.h ****     uint8_t note;     /**< & */
  67:../../libdaisy/src/hid/MidiEvent.h ****     uint8_t velocity; /**< & */
  68:../../libdaisy/src/hid/MidiEvent.h **** };
  69:../../libdaisy/src/hid/MidiEvent.h **** 
  70:../../libdaisy/src/hid/MidiEvent.h **** 
  71:../../libdaisy/src/hid/MidiEvent.h **** /** Struct containing note, and velocity data for a given channel.
  72:../../libdaisy/src/hid/MidiEvent.h **** Can be made from MidiEvent
  73:../../libdaisy/src/hid/MidiEvent.h **** */
  74:../../libdaisy/src/hid/MidiEvent.h **** struct NoteOnEvent
  75:../../libdaisy/src/hid/MidiEvent.h **** {
  76:../../libdaisy/src/hid/MidiEvent.h ****     int     channel;  /**< & */
  77:../../libdaisy/src/hid/MidiEvent.h ****     uint8_t note;     /**< & */
  78:../../libdaisy/src/hid/MidiEvent.h ****     uint8_t velocity; /**< & */
  79:../../libdaisy/src/hid/MidiEvent.h **** };
  80:../../libdaisy/src/hid/MidiEvent.h **** /** Struct containing note, and pressure data for a given channel.
  81:../../libdaisy/src/hid/MidiEvent.h **** Can be made from MidiEvent
  82:../../libdaisy/src/hid/MidiEvent.h **** */
  83:../../libdaisy/src/hid/MidiEvent.h **** struct PolyphonicKeyPressureEvent
  84:../../libdaisy/src/hid/MidiEvent.h **** {
ARM GAS  /tmp/ccoLrWzv.s 			page 159


  85:../../libdaisy/src/hid/MidiEvent.h ****     int     channel;
  86:../../libdaisy/src/hid/MidiEvent.h ****     uint8_t note;
  87:../../libdaisy/src/hid/MidiEvent.h ****     uint8_t pressure;
  88:../../libdaisy/src/hid/MidiEvent.h **** };
  89:../../libdaisy/src/hid/MidiEvent.h **** /** Struct containing control number, and value for a given channel.
  90:../../libdaisy/src/hid/MidiEvent.h **** Can be made from MidiEvent
  91:../../libdaisy/src/hid/MidiEvent.h **** */
  92:../../libdaisy/src/hid/MidiEvent.h **** struct ControlChangeEvent
  93:../../libdaisy/src/hid/MidiEvent.h **** {
  94:../../libdaisy/src/hid/MidiEvent.h ****     int     channel;        /**< & */
  95:../../libdaisy/src/hid/MidiEvent.h ****     uint8_t control_number; /**< & */
  96:../../libdaisy/src/hid/MidiEvent.h ****     uint8_t value;          /**< & */
  97:../../libdaisy/src/hid/MidiEvent.h **** };
  98:../../libdaisy/src/hid/MidiEvent.h **** /** Struct containing new program number, for a given channel.
  99:../../libdaisy/src/hid/MidiEvent.h **** Can be made from MidiEvent
 100:../../libdaisy/src/hid/MidiEvent.h **** */
 101:../../libdaisy/src/hid/MidiEvent.h **** struct ProgramChangeEvent
 102:../../libdaisy/src/hid/MidiEvent.h **** {
 103:../../libdaisy/src/hid/MidiEvent.h ****     int     channel; /**< & */
 104:../../libdaisy/src/hid/MidiEvent.h ****     uint8_t program; /**< & */
 105:../../libdaisy/src/hid/MidiEvent.h **** };
 106:../../libdaisy/src/hid/MidiEvent.h **** /** Struct containing pressure (aftertouch), for a given channel.
 107:../../libdaisy/src/hid/MidiEvent.h **** Can be made from MidiEvent
 108:../../libdaisy/src/hid/MidiEvent.h **** */
 109:../../libdaisy/src/hid/MidiEvent.h **** struct ChannelPressureEvent
 110:../../libdaisy/src/hid/MidiEvent.h **** {
 111:../../libdaisy/src/hid/MidiEvent.h ****     int     channel;  /**< & */
 112:../../libdaisy/src/hid/MidiEvent.h ****     uint8_t pressure; /**< & */
 113:../../libdaisy/src/hid/MidiEvent.h **** };
 114:../../libdaisy/src/hid/MidiEvent.h **** /** Struct containing pitch bend value for a given channel.
 115:../../libdaisy/src/hid/MidiEvent.h **** Can be made from MidiEvent
 116:../../libdaisy/src/hid/MidiEvent.h **** */
 117:../../libdaisy/src/hid/MidiEvent.h **** struct PitchBendEvent
 118:../../libdaisy/src/hid/MidiEvent.h **** {
 119:../../libdaisy/src/hid/MidiEvent.h ****     int     channel; /**< & */
 120:../../libdaisy/src/hid/MidiEvent.h ****     int16_t value;   /**< & */
 121:../../libdaisy/src/hid/MidiEvent.h **** };
 122:../../libdaisy/src/hid/MidiEvent.h **** /** Struct containing sysex data.
 123:../../libdaisy/src/hid/MidiEvent.h **** Can be made from MidiEvent
 124:../../libdaisy/src/hid/MidiEvent.h **** */
 125:../../libdaisy/src/hid/MidiEvent.h **** struct SystemExclusiveEvent
 126:../../libdaisy/src/hid/MidiEvent.h **** {
 127:../../libdaisy/src/hid/MidiEvent.h ****     int     length;
 128:../../libdaisy/src/hid/MidiEvent.h ****     uint8_t data[SYSEX_BUFFER_LEN]; /**< & */
 129:../../libdaisy/src/hid/MidiEvent.h **** };
 130:../../libdaisy/src/hid/MidiEvent.h **** /** Struct containing QuarterFrame data.
 131:../../libdaisy/src/hid/MidiEvent.h **** Can be made from MidiEvent
 132:../../libdaisy/src/hid/MidiEvent.h **** */
 133:../../libdaisy/src/hid/MidiEvent.h **** struct MTCQuarterFrameEvent
 134:../../libdaisy/src/hid/MidiEvent.h **** {
 135:../../libdaisy/src/hid/MidiEvent.h ****     uint8_t message_type; /**< & */
 136:../../libdaisy/src/hid/MidiEvent.h ****     uint8_t value;        /**< & */
 137:../../libdaisy/src/hid/MidiEvent.h **** };
 138:../../libdaisy/src/hid/MidiEvent.h **** /** Struct containing song position data.
 139:../../libdaisy/src/hid/MidiEvent.h **** Can be made from MidiEvent
 140:../../libdaisy/src/hid/MidiEvent.h **** */
 141:../../libdaisy/src/hid/MidiEvent.h **** struct SongPositionPointerEvent
ARM GAS  /tmp/ccoLrWzv.s 			page 160


 142:../../libdaisy/src/hid/MidiEvent.h **** {
 143:../../libdaisy/src/hid/MidiEvent.h ****     uint16_t position; /**< & */
 144:../../libdaisy/src/hid/MidiEvent.h **** };
 145:../../libdaisy/src/hid/MidiEvent.h **** /** Struct containing song select data.
 146:../../libdaisy/src/hid/MidiEvent.h **** Can be made from MidiEvent
 147:../../libdaisy/src/hid/MidiEvent.h **** */
 148:../../libdaisy/src/hid/MidiEvent.h **** struct SongSelectEvent
 149:../../libdaisy/src/hid/MidiEvent.h **** {
 150:../../libdaisy/src/hid/MidiEvent.h ****     uint8_t song; /**< & */
 151:../../libdaisy/src/hid/MidiEvent.h **** };
 152:../../libdaisy/src/hid/MidiEvent.h **** /** Struct containing sound off data.
 153:../../libdaisy/src/hid/MidiEvent.h **** Can be made from MidiEvent
 154:../../libdaisy/src/hid/MidiEvent.h **** */
 155:../../libdaisy/src/hid/MidiEvent.h **** struct AllSoundOffEvent
 156:../../libdaisy/src/hid/MidiEvent.h **** {
 157:../../libdaisy/src/hid/MidiEvent.h ****     int channel; /**< & */
 158:../../libdaisy/src/hid/MidiEvent.h **** };
 159:../../libdaisy/src/hid/MidiEvent.h **** /** Struct containing ResetAllControllersEvent data.
 160:../../libdaisy/src/hid/MidiEvent.h **** Can be made from MidiEvent
 161:../../libdaisy/src/hid/MidiEvent.h **** */
 162:../../libdaisy/src/hid/MidiEvent.h **** struct ResetAllControllersEvent
 163:../../libdaisy/src/hid/MidiEvent.h **** {
 164:../../libdaisy/src/hid/MidiEvent.h ****     int     channel; /**< & */
 165:../../libdaisy/src/hid/MidiEvent.h ****     uint8_t value;   /**< & */
 166:../../libdaisy/src/hid/MidiEvent.h **** };
 167:../../libdaisy/src/hid/MidiEvent.h **** /** Struct containing LocalControlEvent data.
 168:../../libdaisy/src/hid/MidiEvent.h **** Can be made from MidiEvent
 169:../../libdaisy/src/hid/MidiEvent.h **** */
 170:../../libdaisy/src/hid/MidiEvent.h **** struct LocalControlEvent
 171:../../libdaisy/src/hid/MidiEvent.h **** {
 172:../../libdaisy/src/hid/MidiEvent.h ****     int  channel;           /**< & */
 173:../../libdaisy/src/hid/MidiEvent.h ****     bool local_control_off; /**< & */
 174:../../libdaisy/src/hid/MidiEvent.h ****     bool local_control_on;  /**< & */
 175:../../libdaisy/src/hid/MidiEvent.h **** };
 176:../../libdaisy/src/hid/MidiEvent.h **** /** Struct containing AllNotesOffEvent data.
 177:../../libdaisy/src/hid/MidiEvent.h **** Can be made from MidiEvent
 178:../../libdaisy/src/hid/MidiEvent.h **** */
 179:../../libdaisy/src/hid/MidiEvent.h **** struct AllNotesOffEvent
 180:../../libdaisy/src/hid/MidiEvent.h **** {
 181:../../libdaisy/src/hid/MidiEvent.h ****     int channel; /**< & */
 182:../../libdaisy/src/hid/MidiEvent.h **** };
 183:../../libdaisy/src/hid/MidiEvent.h **** /** Struct containing OmniModeOffEvent data. 
 184:../../libdaisy/src/hid/MidiEvent.h ****  * Can be made from MidiEvent
 185:../../libdaisy/src/hid/MidiEvent.h **** */
 186:../../libdaisy/src/hid/MidiEvent.h **** struct OmniModeOffEvent
 187:../../libdaisy/src/hid/MidiEvent.h **** {
 188:../../libdaisy/src/hid/MidiEvent.h ****     int channel; /**< & */
 189:../../libdaisy/src/hid/MidiEvent.h **** };
 190:../../libdaisy/src/hid/MidiEvent.h **** /** Struct containing OmniModeOnEvent data.
 191:../../libdaisy/src/hid/MidiEvent.h **** Can be made from MidiEvent
 192:../../libdaisy/src/hid/MidiEvent.h **** */
 193:../../libdaisy/src/hid/MidiEvent.h **** struct OmniModeOnEvent
 194:../../libdaisy/src/hid/MidiEvent.h **** {
 195:../../libdaisy/src/hid/MidiEvent.h ****     int channel; /**< & */
 196:../../libdaisy/src/hid/MidiEvent.h **** };
 197:../../libdaisy/src/hid/MidiEvent.h **** /** Struct containing MonoModeOnEvent data.
 198:../../libdaisy/src/hid/MidiEvent.h **** Can be made from MidiEvent
ARM GAS  /tmp/ccoLrWzv.s 			page 161


 199:../../libdaisy/src/hid/MidiEvent.h **** */
 200:../../libdaisy/src/hid/MidiEvent.h **** struct MonoModeOnEvent
 201:../../libdaisy/src/hid/MidiEvent.h **** {
 202:../../libdaisy/src/hid/MidiEvent.h ****     int     channel;      /**< & */
 203:../../libdaisy/src/hid/MidiEvent.h ****     uint8_t num_channels; /**< & */
 204:../../libdaisy/src/hid/MidiEvent.h **** };
 205:../../libdaisy/src/hid/MidiEvent.h **** /** Struct containing PolyModeOnEvent data.
 206:../../libdaisy/src/hid/MidiEvent.h **** Can be made from MidiEvent
 207:../../libdaisy/src/hid/MidiEvent.h **** */
 208:../../libdaisy/src/hid/MidiEvent.h **** struct PolyModeOnEvent
 209:../../libdaisy/src/hid/MidiEvent.h **** {
 210:../../libdaisy/src/hid/MidiEvent.h ****     int channel; /**< & */
 211:../../libdaisy/src/hid/MidiEvent.h **** };
 212:../../libdaisy/src/hid/MidiEvent.h **** 
 213:../../libdaisy/src/hid/MidiEvent.h **** 
 214:../../libdaisy/src/hid/MidiEvent.h **** /** Simple MidiEvent with message type, channel, and data[2] members.
 215:../../libdaisy/src/hid/MidiEvent.h **** */
 216:../../libdaisy/src/hid/MidiEvent.h **** struct MidiEvent
 217:../../libdaisy/src/hid/MidiEvent.h **** {
 218:../../libdaisy/src/hid/MidiEvent.h ****     // Newer ish.
 219:../../libdaisy/src/hid/MidiEvent.h ****     MidiMessageType    type;                         /**< & */
 220:../../libdaisy/src/hid/MidiEvent.h ****     int                channel;                      /**< & */
 221:../../libdaisy/src/hid/MidiEvent.h ****     uint8_t            data[2];                      /**< & */
 222:../../libdaisy/src/hid/MidiEvent.h ****     uint8_t            sysex_data[SYSEX_BUFFER_LEN]; /**< & */
 223:../../libdaisy/src/hid/MidiEvent.h ****     uint8_t            sysex_message_len;
 224:../../libdaisy/src/hid/MidiEvent.h ****     SystemCommonType   sc_type;
 225:../../libdaisy/src/hid/MidiEvent.h ****     SystemRealTimeType srt_type;
 226:../../libdaisy/src/hid/MidiEvent.h ****     ChannelModeType    cm_type;
 227:../../libdaisy/src/hid/MidiEvent.h **** 
 228:../../libdaisy/src/hid/MidiEvent.h ****     /** Returns the data within the MidiEvent as a NoteOffEvent struct */
 229:../../libdaisy/src/hid/MidiEvent.h ****     NoteOffEvent AsNoteOff()
 230:../../libdaisy/src/hid/MidiEvent.h ****     {
 231:../../libdaisy/src/hid/MidiEvent.h ****         NoteOffEvent m;
 232:../../libdaisy/src/hid/MidiEvent.h ****         m.channel  = channel;
 233:../../libdaisy/src/hid/MidiEvent.h ****         m.note     = data[0];
 234:../../libdaisy/src/hid/MidiEvent.h ****         m.velocity = data[1];
 235:../../libdaisy/src/hid/MidiEvent.h ****         return m;
 236:../../libdaisy/src/hid/MidiEvent.h ****     }
 237:../../libdaisy/src/hid/MidiEvent.h **** 
 238:../../libdaisy/src/hid/MidiEvent.h ****     /** Returns the data within the MidiEvent as a NoteOnEvent struct */
 239:../../libdaisy/src/hid/MidiEvent.h ****     NoteOnEvent AsNoteOn()
 240:../../libdaisy/src/hid/MidiEvent.h ****     {
 241:../../libdaisy/src/hid/MidiEvent.h ****         NoteOnEvent m;
 242:../../libdaisy/src/hid/MidiEvent.h ****         m.channel  = channel;
 243:../../libdaisy/src/hid/MidiEvent.h ****         m.note     = data[0];
 244:../../libdaisy/src/hid/MidiEvent.h ****         m.velocity = data[1];
 245:../../libdaisy/src/hid/MidiEvent.h ****         return m;
 246:../../libdaisy/src/hid/MidiEvent.h ****     }
 247:../../libdaisy/src/hid/MidiEvent.h **** 
 248:../../libdaisy/src/hid/MidiEvent.h ****     /** Returns the data within the MidiEvent as a PolyphonicKeyPressureEvent struct */
 249:../../libdaisy/src/hid/MidiEvent.h ****     PolyphonicKeyPressureEvent AsPolyphonicKeyPressure()
 250:../../libdaisy/src/hid/MidiEvent.h ****     {
 251:../../libdaisy/src/hid/MidiEvent.h ****         PolyphonicKeyPressureEvent m;
 252:../../libdaisy/src/hid/MidiEvent.h ****         m.channel  = channel;
 253:../../libdaisy/src/hid/MidiEvent.h ****         m.note     = data[0];
 254:../../libdaisy/src/hid/MidiEvent.h ****         m.pressure = data[1];
 255:../../libdaisy/src/hid/MidiEvent.h ****         return m;
ARM GAS  /tmp/ccoLrWzv.s 			page 162


 256:../../libdaisy/src/hid/MidiEvent.h ****     }
 257:../../libdaisy/src/hid/MidiEvent.h **** 
 258:../../libdaisy/src/hid/MidiEvent.h ****     /** Returns the data within the MidiEvent as a ControlChangeEvent struct.*/
 259:../../libdaisy/src/hid/MidiEvent.h ****     ControlChangeEvent AsControlChange()
 5708              		.loc 18 259 24 view .LVU1332
 5709              	.LBB1650:
 260:../../libdaisy/src/hid/MidiEvent.h ****     {
 261:../../libdaisy/src/hid/MidiEvent.h ****         ControlChangeEvent m;
 5710              		.loc 18 261 9 view .LVU1333
 262:../../libdaisy/src/hid/MidiEvent.h ****         m.channel        = channel;
 5711              		.loc 18 262 9 view .LVU1334
 263:../../libdaisy/src/hid/MidiEvent.h ****         m.control_number = data[0];
 5712              		.loc 18 263 9 view .LVU1335
 264:../../libdaisy/src/hid/MidiEvent.h ****         m.value          = data[1];
 5713              		.loc 18 264 9 view .LVU1336
 265:../../libdaisy/src/hid/MidiEvent.h ****         return m;
 5714              		.loc 18 265 9 view .LVU1337
 5715              		.loc 18 265 9 is_stmt 0 view .LVU1338
 5716              	.LBE1650:
 5717              	.LBE1649:
  48:Midi.cpp      ****             switch(p.control_number)
 5718              		.loc 15 48 13 is_stmt 1 view .LVU1339
 5719 001e 012A     		cmp	r2, #1
 5720 0020 3FD0     		beq	.L425
 5721 0022 022A     		cmp	r2, #2
 5722 0024 2FD0     		beq	.L426
 5723              	.LVL438:
 5724              	.L421:
 5725              		.loc 15 48 13 is_stmt 0 view .LVU1340
 5726              	.LBE1648:
 5727              	.LBE1687:
  49:Midi.cpp      ****             {
  50:Midi.cpp      ****                 case 1:
  51:Midi.cpp      ****                     // CC 1 for cutoff.
  52:Midi.cpp      ****                     filt.SetFreq(mtof((float)p.value));
  53:Midi.cpp      ****                     break;
  54:Midi.cpp      ****                 case 2:
  55:Midi.cpp      ****                     // CC 2 for res.
  56:Midi.cpp      ****                     filt.SetRes(((float)p.value / 127.0f));
  57:Midi.cpp      ****                     break;
  58:Midi.cpp      ****                 default: break;
  59:Midi.cpp      ****             }
  60:Midi.cpp      ****             break;
  61:Midi.cpp      ****         }
  62:Midi.cpp      ****         default: break;
  63:Midi.cpp      ****     }
  64:Midi.cpp      **** }
 5728              		.loc 15 64 1 view .LVU1341
 5729 0026 BDE83840 		pop	{r3, r4, r5, lr}
 5730              		.cfi_remember_state
 5731              		.cfi_restore 14
 5732              		.cfi_restore 5
 5733              		.cfi_restore 4
 5734              		.cfi_restore 3
 5735              		.cfi_def_cfa_offset 16
 5736              	.LVL439:
 5737              		.loc 15 64 1 view .LVU1342
ARM GAS  /tmp/ccoLrWzv.s 			page 163


 5738 002a 04B0     		add	sp, sp, #16
 5739              		.cfi_def_cfa_offset 0
 5740 002c 7047     		bx	lr
 5741              	.LVL440:
 5742              	.L422:
 5743              		.cfi_restore_state
  33:Midi.cpp      ****         {
 5744              		.loc 15 33 9 is_stmt 1 view .LVU1343
  34:Midi.cpp      ****             NoteOnEvent p = m.AsNoteOn();
 5745              		.loc 15 34 9 view .LVU1344
 5746              	.LBB1688:
 5747              	.LBB1657:
  35:Midi.cpp      ****             // This is to avoid Max/MSP Note outs for now..
 5748              		.loc 15 35 13 view .LVU1345
 5749              	.LBB1658:
 5750              	.LBI1658:
 239:../../libdaisy/src/hid/MidiEvent.h ****     {
 5751              		.loc 18 239 17 view .LVU1346
 5752              	.LBB1659:
 241:../../libdaisy/src/hid/MidiEvent.h ****         m.channel  = channel;
 5753              		.loc 18 241 9 view .LVU1347
 242:../../libdaisy/src/hid/MidiEvent.h ****         m.note     = data[0];
 5754              		.loc 18 242 9 view .LVU1348
 243:../../libdaisy/src/hid/MidiEvent.h ****         m.velocity = data[1];
 5755              		.loc 18 243 9 view .LVU1349
 244:../../libdaisy/src/hid/MidiEvent.h ****         return m;
 5756              		.loc 18 244 9 view .LVU1350
 245:../../libdaisy/src/hid/MidiEvent.h ****     }
 5757              		.loc 18 245 9 view .LVU1351
 245:../../libdaisy/src/hid/MidiEvent.h ****     }
 5758              		.loc 18 245 9 is_stmt 0 view .LVU1352
 5759              	.LBE1659:
 5760              	.LBE1658:
  37:Midi.cpp      ****             {
 5761              		.loc 15 37 13 is_stmt 1 view .LVU1353
 5762 002e 002C     		cmp	r4, #0
 5763 0030 F9D0     		beq	.L421
  39:Midi.cpp      ****                 osc.SetFreq(mtof(p.note));
 5764              		.loc 15 39 17 view .LVU1354
 5765              	.LVL441:
 5766              	.LBB1660:
 5767              	.LBI1660:
 239:../../libdaisy/src/hid/MidiEvent.h ****     {
 5768              		.loc 18 239 17 view .LVU1355
 5769              	.LBB1661:
 241:../../libdaisy/src/hid/MidiEvent.h ****         m.channel  = channel;
 5770              		.loc 18 241 9 view .LVU1356
 242:../../libdaisy/src/hid/MidiEvent.h ****         m.note     = data[0];
 5771              		.loc 18 242 9 view .LVU1357
 243:../../libdaisy/src/hid/MidiEvent.h ****         m.velocity = data[1];
 5772              		.loc 18 243 9 view .LVU1358
 244:../../libdaisy/src/hid/MidiEvent.h ****         return m;
 5773              		.loc 18 244 9 view .LVU1359
 245:../../libdaisy/src/hid/MidiEvent.h ****     }
 5774              		.loc 18 245 9 view .LVU1360
 245:../../libdaisy/src/hid/MidiEvent.h ****     }
 5775              		.loc 18 245 9 is_stmt 0 view .LVU1361
ARM GAS  /tmp/ccoLrWzv.s 			page 164


 5776              	.LBE1661:
 5777              	.LBE1660:
  40:Midi.cpp      ****                 osc.SetAmp((p.velocity / 127.0f));
 5778              		.loc 15 40 17 is_stmt 1 view .LVU1362
 5779              	.LBB1662:
 5780              	.LBI1662:
 5781              		.file 19 "../../DaisySP/Source/Utility/dsp.h"
   1:../../DaisySP/Source/Utility/dsp.h **** /** Helpful defines, functions, and other utilities for use in/with daisysp modules.
   2:../../DaisySP/Source/Utility/dsp.h **** */
   3:../../DaisySP/Source/Utility/dsp.h **** #pragma once
   4:../../DaisySP/Source/Utility/dsp.h **** #ifndef DSY_CORE_DSP
   5:../../DaisySP/Source/Utility/dsp.h **** #define DSY_CORE_DSP
   6:../../DaisySP/Source/Utility/dsp.h **** #include <cassert>
   7:../../DaisySP/Source/Utility/dsp.h **** #include <cstdint>
   8:../../DaisySP/Source/Utility/dsp.h **** #include <random>
   9:../../DaisySP/Source/Utility/dsp.h **** #include <cmath>
  10:../../DaisySP/Source/Utility/dsp.h **** 
  11:../../DaisySP/Source/Utility/dsp.h **** /** PIs
  12:../../DaisySP/Source/Utility/dsp.h **** */
  13:../../DaisySP/Source/Utility/dsp.h **** #define PI_F 3.1415927410125732421875f
  14:../../DaisySP/Source/Utility/dsp.h **** #define TWOPI_F (2.0f * PI_F)
  15:../../DaisySP/Source/Utility/dsp.h **** #define HALFPI_F (PI_F * 0.5f)
  16:../../DaisySP/Source/Utility/dsp.h **** #define DSY_MIN(in, mn) (in < mn ? in : mn)
  17:../../DaisySP/Source/Utility/dsp.h **** #define DSY_MAX(in, mx) (in > mx ? in : mx)
  18:../../DaisySP/Source/Utility/dsp.h **** #define DSY_CLAMP(in, mn, mx) (DSY_MIN(DSY_MAX(in, mn), mx))
  19:../../DaisySP/Source/Utility/dsp.h **** #define DSY_COUNTOF(_arr) (sizeof(_arr) / sizeof(_arr[0]))
  20:../../DaisySP/Source/Utility/dsp.h **** 
  21:../../DaisySP/Source/Utility/dsp.h **** namespace daisysp
  22:../../DaisySP/Source/Utility/dsp.h **** {
  23:../../DaisySP/Source/Utility/dsp.h **** //Avoids division for random floats. e.g. rand() * kRandFrac
  24:../../DaisySP/Source/Utility/dsp.h **** static constexpr float kRandFrac = 1.f / (float)RAND_MAX;
  25:../../DaisySP/Source/Utility/dsp.h **** 
  26:../../DaisySP/Source/Utility/dsp.h **** //Convert from semitones to other units. e.g. 2 ^ (kOneTwelfth * x)
  27:../../DaisySP/Source/Utility/dsp.h **** static constexpr float kOneTwelfth = 1.f / 12.f;
  28:../../DaisySP/Source/Utility/dsp.h **** 
  29:../../DaisySP/Source/Utility/dsp.h **** /** efficient floating point min/max
  30:../../DaisySP/Source/Utility/dsp.h **** c/o stephen mccaul
  31:../../DaisySP/Source/Utility/dsp.h **** */
  32:../../DaisySP/Source/Utility/dsp.h **** inline float fmax(float a, float b)
  33:../../DaisySP/Source/Utility/dsp.h **** {
  34:../../DaisySP/Source/Utility/dsp.h ****     float r;
  35:../../DaisySP/Source/Utility/dsp.h **** #ifdef __arm__
  36:../../DaisySP/Source/Utility/dsp.h ****     asm("vmaxnm.f32 %[d], %[n], %[m]" : [d] "=t"(r) : [n] "t"(a), [m] "t"(b) :);
  37:../../DaisySP/Source/Utility/dsp.h **** #else
  38:../../DaisySP/Source/Utility/dsp.h ****     r = (a > b) ? a : b;
  39:../../DaisySP/Source/Utility/dsp.h **** #endif // __arm__
  40:../../DaisySP/Source/Utility/dsp.h ****     return r;
  41:../../DaisySP/Source/Utility/dsp.h **** }
  42:../../DaisySP/Source/Utility/dsp.h **** 
  43:../../DaisySP/Source/Utility/dsp.h **** inline float fmin(float a, float b)
  44:../../DaisySP/Source/Utility/dsp.h **** {
  45:../../DaisySP/Source/Utility/dsp.h ****     float r;
  46:../../DaisySP/Source/Utility/dsp.h **** #ifdef __arm__
  47:../../DaisySP/Source/Utility/dsp.h ****     asm("vminnm.f32 %[d], %[n], %[m]" : [d] "=t"(r) : [n] "t"(a), [m] "t"(b) :);
  48:../../DaisySP/Source/Utility/dsp.h **** #else
  49:../../DaisySP/Source/Utility/dsp.h ****     r = (a < b) ? a : b;
  50:../../DaisySP/Source/Utility/dsp.h **** #endif // __arm__
ARM GAS  /tmp/ccoLrWzv.s 			page 165


  51:../../DaisySP/Source/Utility/dsp.h ****     return r;
  52:../../DaisySP/Source/Utility/dsp.h **** }
  53:../../DaisySP/Source/Utility/dsp.h **** 
  54:../../DaisySP/Source/Utility/dsp.h **** /** quick fp clamp
  55:../../DaisySP/Source/Utility/dsp.h **** */
  56:../../DaisySP/Source/Utility/dsp.h **** inline float fclamp(float in, float min, float max)
  57:../../DaisySP/Source/Utility/dsp.h **** {
  58:../../DaisySP/Source/Utility/dsp.h ****     return fmin(fmax(in, min), max);
  59:../../DaisySP/Source/Utility/dsp.h **** }
  60:../../DaisySP/Source/Utility/dsp.h **** 
  61:../../DaisySP/Source/Utility/dsp.h **** /** From Musicdsp.org "Fast power and root estimates for 32bit floats)
  62:../../DaisySP/Source/Utility/dsp.h **** Original code by Stefan Stenzel
  63:../../DaisySP/Source/Utility/dsp.h **** These are approximations
  64:../../DaisySP/Source/Utility/dsp.h **** */
  65:../../DaisySP/Source/Utility/dsp.h **** inline float fastpower(float f, int n)
  66:../../DaisySP/Source/Utility/dsp.h **** {
  67:../../DaisySP/Source/Utility/dsp.h ****     long *lp, l;
  68:../../DaisySP/Source/Utility/dsp.h ****     lp = (long *)(&f);
  69:../../DaisySP/Source/Utility/dsp.h ****     l  = *lp;
  70:../../DaisySP/Source/Utility/dsp.h ****     l -= 0x3F800000;
  71:../../DaisySP/Source/Utility/dsp.h ****     l <<= (n - 1);
  72:../../DaisySP/Source/Utility/dsp.h ****     l += 0x3F800000;
  73:../../DaisySP/Source/Utility/dsp.h ****     *lp = l;
  74:../../DaisySP/Source/Utility/dsp.h ****     return f;
  75:../../DaisySP/Source/Utility/dsp.h **** }
  76:../../DaisySP/Source/Utility/dsp.h **** 
  77:../../DaisySP/Source/Utility/dsp.h **** inline float fastroot(float f, int n)
  78:../../DaisySP/Source/Utility/dsp.h **** {
  79:../../DaisySP/Source/Utility/dsp.h ****     long *lp, l;
  80:../../DaisySP/Source/Utility/dsp.h ****     lp = (long *)(&f);
  81:../../DaisySP/Source/Utility/dsp.h ****     l  = *lp;
  82:../../DaisySP/Source/Utility/dsp.h ****     l -= 0x3F800000;
  83:../../DaisySP/Source/Utility/dsp.h ****     l >>= (n = 1);
  84:../../DaisySP/Source/Utility/dsp.h ****     l += 0x3F800000;
  85:../../DaisySP/Source/Utility/dsp.h ****     *lp = l;
  86:../../DaisySP/Source/Utility/dsp.h ****     return f;
  87:../../DaisySP/Source/Utility/dsp.h **** }
  88:../../DaisySP/Source/Utility/dsp.h **** 
  89:../../DaisySP/Source/Utility/dsp.h **** /** From http://openaudio.blogspot.com/2017/02/faster-log10-and-pow.html
  90:../../DaisySP/Source/Utility/dsp.h **** No approximation, pow10f(x) gives a 90% speed increase over powf(10.f, x)
  91:../../DaisySP/Source/Utility/dsp.h **** */
  92:../../DaisySP/Source/Utility/dsp.h **** inline float pow10f(float f)
  93:../../DaisySP/Source/Utility/dsp.h **** {
  94:../../DaisySP/Source/Utility/dsp.h ****     return expf(2.302585092994046f * f);
  95:../../DaisySP/Source/Utility/dsp.h **** }
  96:../../DaisySP/Source/Utility/dsp.h **** 
  97:../../DaisySP/Source/Utility/dsp.h **** /* Original code for fastlog2f by Dr. Paul Beckmann from the ARM community forum, adapted from the 
  98:../../DaisySP/Source/Utility/dsp.h **** About 25% performance increase over std::log10f
  99:../../DaisySP/Source/Utility/dsp.h **** */
 100:../../DaisySP/Source/Utility/dsp.h **** inline float fastlog2f(float f)
 101:../../DaisySP/Source/Utility/dsp.h **** {
 102:../../DaisySP/Source/Utility/dsp.h ****     float frac;
 103:../../DaisySP/Source/Utility/dsp.h ****     int   exp;
 104:../../DaisySP/Source/Utility/dsp.h ****     frac = frexpf(fabsf(f), &exp);
 105:../../DaisySP/Source/Utility/dsp.h ****     f    = 1.23149591368684f;
 106:../../DaisySP/Source/Utility/dsp.h ****     f *= frac;
 107:../../DaisySP/Source/Utility/dsp.h ****     f += -4.11852516267426f;
ARM GAS  /tmp/ccoLrWzv.s 			page 166


 108:../../DaisySP/Source/Utility/dsp.h ****     f *= frac;
 109:../../DaisySP/Source/Utility/dsp.h ****     f += 6.02197014179219f;
 110:../../DaisySP/Source/Utility/dsp.h ****     f *= frac;
 111:../../DaisySP/Source/Utility/dsp.h ****     f += -3.13396450166353f;
 112:../../DaisySP/Source/Utility/dsp.h ****     f += exp;
 113:../../DaisySP/Source/Utility/dsp.h ****     return (f);
 114:../../DaisySP/Source/Utility/dsp.h **** }
 115:../../DaisySP/Source/Utility/dsp.h **** 
 116:../../DaisySP/Source/Utility/dsp.h **** inline float fastlog10f(float f)
 117:../../DaisySP/Source/Utility/dsp.h **** {
 118:../../DaisySP/Source/Utility/dsp.h ****     return fastlog2f(f) * 0.3010299956639812f;
 119:../../DaisySP/Source/Utility/dsp.h **** }
 120:../../DaisySP/Source/Utility/dsp.h **** 
 121:../../DaisySP/Source/Utility/dsp.h **** /** Midi to frequency helper
 122:../../DaisySP/Source/Utility/dsp.h **** */
 123:../../DaisySP/Source/Utility/dsp.h **** inline float mtof(float m)
 5782              		.loc 19 123 14 view .LVU1363
 5783              	.LBB1663:
 124:../../DaisySP/Source/Utility/dsp.h **** {
 125:../../DaisySP/Source/Utility/dsp.h ****     return powf(2, (m - 69.0f) / 12.0f) * 440.0f;
 5784              		.loc 19 125 5 view .LVU1364
 5785              	.LBE1663:
 5786              	.LBE1662:
  40:Midi.cpp      ****                 osc.SetAmp((p.velocity / 127.0f));
 5787              		.loc 15 40 28 is_stmt 0 view .LVU1365
 5788 0032 07EE902A 		vmov	s15, r2	@ int
 5789              	.LBB1667:
 5790              	.LBB1664:
 5791              		.loc 19 125 23 view .LVU1366
 5792 0036 9FED287A 		vldr.32	s14, .L431
 5793              		.loc 19 125 16 view .LVU1367
 5794 003a F2EE080A 		vmov.f32	s1, #1.2e+1
 5795              	.LBE1664:
 5796              	.LBE1667:
 5797              	.LBB1668:
 5798              	.LBB1669:
  17:../../DaisySP/Source/Synthesis/oscillator.h ****     /** Choices for output waveforms, POLYBLEP are appropriately labeled. Others are naive forms.
  18:../../DaisySP/Source/Synthesis/oscillator.h ****     */
  19:../../DaisySP/Source/Synthesis/oscillator.h ****     enum
  20:../../DaisySP/Source/Synthesis/oscillator.h ****     {
  21:../../DaisySP/Source/Synthesis/oscillator.h ****         WAVE_SIN,
  22:../../DaisySP/Source/Synthesis/oscillator.h ****         WAVE_TRI,
  23:../../DaisySP/Source/Synthesis/oscillator.h ****         WAVE_SAW,
  24:../../DaisySP/Source/Synthesis/oscillator.h ****         WAVE_RAMP,
  25:../../DaisySP/Source/Synthesis/oscillator.h ****         WAVE_SQUARE,
  26:../../DaisySP/Source/Synthesis/oscillator.h ****         WAVE_POLYBLEP_TRI,
  27:../../DaisySP/Source/Synthesis/oscillator.h ****         WAVE_POLYBLEP_SAW,
  28:../../DaisySP/Source/Synthesis/oscillator.h ****         WAVE_POLYBLEP_SQUARE,
  29:../../DaisySP/Source/Synthesis/oscillator.h ****         WAVE_LAST,
  30:../../DaisySP/Source/Synthesis/oscillator.h ****     };
  31:../../DaisySP/Source/Synthesis/oscillator.h **** 
  32:../../DaisySP/Source/Synthesis/oscillator.h **** 
  33:../../DaisySP/Source/Synthesis/oscillator.h ****     /** Initializes the Oscillator
  34:../../DaisySP/Source/Synthesis/oscillator.h **** 
  35:../../DaisySP/Source/Synthesis/oscillator.h ****         \param sample_rate - sample rate of the audio engine being run, and the frequency that the 
  36:../../DaisySP/Source/Synthesis/oscillator.h **** 
  37:../../DaisySP/Source/Synthesis/oscillator.h ****         Defaults:
ARM GAS  /tmp/ccoLrWzv.s 			page 167


  38:../../DaisySP/Source/Synthesis/oscillator.h ****         - freq_ = 100 Hz
  39:../../DaisySP/Source/Synthesis/oscillator.h ****         - amp_ = 0.5
  40:../../DaisySP/Source/Synthesis/oscillator.h ****         - waveform_ = sine wave.
  41:../../DaisySP/Source/Synthesis/oscillator.h ****     */
  42:../../DaisySP/Source/Synthesis/oscillator.h ****     void Init(float sample_rate)
  43:../../DaisySP/Source/Synthesis/oscillator.h ****     {
  44:../../DaisySP/Source/Synthesis/oscillator.h ****         sr_        = sample_rate;
  45:../../DaisySP/Source/Synthesis/oscillator.h ****         sr_recip_  = 1.0f / sample_rate;
  46:../../DaisySP/Source/Synthesis/oscillator.h ****         freq_      = 100.0f;
  47:../../DaisySP/Source/Synthesis/oscillator.h ****         amp_       = 0.5f;
  48:../../DaisySP/Source/Synthesis/oscillator.h ****         phase_     = 0.0f;
  49:../../DaisySP/Source/Synthesis/oscillator.h ****         phase_inc_ = CalcPhaseInc(freq_);
  50:../../DaisySP/Source/Synthesis/oscillator.h ****         waveform_  = WAVE_SIN;
  51:../../DaisySP/Source/Synthesis/oscillator.h ****         eoc_       = true;
  52:../../DaisySP/Source/Synthesis/oscillator.h ****         eor_       = true;
  53:../../DaisySP/Source/Synthesis/oscillator.h ****     }
  54:../../DaisySP/Source/Synthesis/oscillator.h **** 
  55:../../DaisySP/Source/Synthesis/oscillator.h **** 
  56:../../DaisySP/Source/Synthesis/oscillator.h ****     /** Changes the frequency of the Oscillator, and recalculates phase increment.
  57:../../DaisySP/Source/Synthesis/oscillator.h ****     */
  58:../../DaisySP/Source/Synthesis/oscillator.h ****     inline void SetFreq(const float f)
  59:../../DaisySP/Source/Synthesis/oscillator.h ****     {
  60:../../DaisySP/Source/Synthesis/oscillator.h ****         freq_      = f;
 5799              		.loc 12 60 20 view .LVU1368
 5800 003e 274D     		ldr	r5, .L431+4
 5801              	.LBE1669:
 5802              	.LBE1668:
  40:Midi.cpp      ****                 osc.SetAmp((p.velocity / 127.0f));
 5803              		.loc 15 40 28 view .LVU1369
 5804 0040 F8EE677A 		vcvt.f32.u32	s15, s15
 5805              	.LBB1673:
 5806              	.LBB1665:
 5807              		.loc 19 125 16 view .LVU1370
 5808 0044 B0EE000A 		vmov.f32	s0, #2.0e+0
 5809              		.loc 19 125 23 view .LVU1371
 5810 0048 77EEC77A 		vsub.f32	s15, s15, s14
 5811              		.loc 19 125 16 view .LVU1372
 5812 004c C7EEA00A 		vdiv.f32	s1, s15, s1
 5813 0050 FFF7FEFF 		bl	powf
 5814              	.LVL442:
 5815              		.loc 19 125 43 view .LVU1373
 5816 0054 DFED227A 		vldr.32	s15, .L431+8
 5817              	.LBE1665:
 5818              	.LBE1673:
 5819              	.LBB1674:
 5820              	.LBB1670:
  61:../../DaisySP/Source/Synthesis/oscillator.h ****         phase_inc_ = CalcPhaseInc(f);
 5821              		.loc 12 61 34 view .LVU1374
 5822 0058 2846     		mov	r0, r5
 5823              	.LBE1670:
 5824              	.LBE1674:
 5825              	.LBB1675:
 5826              	.LBB1666:
 5827              		.loc 19 125 43 view .LVU1375
 5828 005a 20EE270A 		vmul.f32	s0, s0, s15
 5829              	.LVL443:
 5830              		.loc 19 125 43 view .LVU1376
ARM GAS  /tmp/ccoLrWzv.s 			page 168


 5831              	.LBE1666:
 5832              	.LBE1675:
 5833              	.LBB1676:
 5834              	.LBI1668:
  58:../../DaisySP/Source/Synthesis/oscillator.h ****     {
 5835              		.loc 12 58 17 is_stmt 1 view .LVU1377
 5836              	.LBB1671:
  60:../../DaisySP/Source/Synthesis/oscillator.h ****         phase_inc_ = CalcPhaseInc(f);
 5837              		.loc 12 60 9 view .LVU1378
  60:../../DaisySP/Source/Synthesis/oscillator.h ****         phase_inc_ = CalcPhaseInc(f);
 5838              		.loc 12 60 20 is_stmt 0 view .LVU1379
 5839 005e 85ED020A 		vstr.32	s0, [r5, #8]
 5840              		.loc 12 61 9 is_stmt 1 view .LVU1380
 5841              		.loc 12 61 34 is_stmt 0 view .LVU1381
 5842 0062 FFF7FEFF 		bl	_ZN7daisysp10Oscillator12CalcPhaseIncEf
 5843              	.LVL444:
 5844              		.loc 12 61 34 view .LVU1382
 5845              	.LBE1671:
 5846              	.LBE1676:
  41:Midi.cpp      ****             }
 5847              		.loc 15 41 27 view .LVU1383
 5848 0066 07EE904A 		vmov	s15, r4	@ int
 5849 006a DFED1E6A 		vldr.32	s13, .L431+12
 5850              	.LBB1677:
 5851              	.LBB1672:
 5852              		.loc 12 61 20 view .LVU1384
 5853 006e 85ED060A 		vstr.32	s0, [r5, #24]
 5854              	.LVL445:
 5855              		.loc 12 61 20 view .LVU1385
 5856              	.LBE1672:
 5857              	.LBE1677:
  41:Midi.cpp      ****             }
 5858              		.loc 15 41 17 is_stmt 1 view .LVU1386
 5859              	.LBB1678:
 5860              	.LBI1678:
  62:../../DaisySP/Source/Synthesis/oscillator.h ****     }
  63:../../DaisySP/Source/Synthesis/oscillator.h **** 
  64:../../DaisySP/Source/Synthesis/oscillator.h **** 
  65:../../DaisySP/Source/Synthesis/oscillator.h ****     /** Sets the amplitude of the waveform.
  66:../../DaisySP/Source/Synthesis/oscillator.h ****     */
  67:../../DaisySP/Source/Synthesis/oscillator.h ****     inline void SetAmp(const float a) { amp_ = a; }
 5861              		.loc 12 67 17 view .LVU1387
 5862              	.LBB1679:
 5863              		.loc 12 67 41 view .LVU1388
 5864              	.LBE1679:
 5865              	.LBE1678:
  41:Midi.cpp      ****             }
 5866              		.loc 15 41 27 is_stmt 0 view .LVU1389
 5867 0072 F8EEE77A 		vcvt.f32.s32	s15, s15
 5868              	.LVL446:
  41:Midi.cpp      ****             }
 5869              		.loc 15 41 27 view .LVU1390
 5870 0076 87EEA67A 		vdiv.f32	s14, s15, s13
 5871              	.LBB1681:
 5872              	.LBB1680:
 5873              		.loc 12 67 46 view .LVU1391
 5874 007a 85ED017A 		vstr.32	s14, [r5, #4]
ARM GAS  /tmp/ccoLrWzv.s 			page 169


 5875              	.LBE1680:
 5876              	.LBE1681:
 5877              	.LBE1657:
 5878              	.LBE1688:
 5879              		.loc 15 64 1 view .LVU1392
 5880 007e BDE83840 		pop	{r3, r4, r5, lr}
 5881              		.cfi_remember_state
 5882              		.cfi_restore 14
 5883              		.cfi_restore 5
 5884              		.cfi_restore 4
 5885              		.cfi_restore 3
 5886              		.cfi_def_cfa_offset 16
 5887              	.LVL447:
 5888              		.loc 15 64 1 view .LVU1393
 5889 0082 04B0     		add	sp, sp, #16
 5890              		.cfi_def_cfa_offset 0
 5891 0084 7047     		bx	lr
 5892              	.LVL448:
 5893              	.L426:
 5894              		.cfi_restore_state
 5895              	.LBB1689:
 5896              	.LBB1682:
  54:Midi.cpp      ****                     // CC 2 for res.
 5897              		.loc 15 54 17 is_stmt 1 view .LVU1394
  56:Midi.cpp      ****                     break;
 5898              		.loc 15 56 21 view .LVU1395
  56:Midi.cpp      ****                     break;
 5899              		.loc 15 56 34 is_stmt 0 view .LVU1396
 5900 0086 07EE904A 		vmov	s15, r4	@ int
  56:Midi.cpp      ****                     break;
 5901              		.loc 15 56 32 view .LVU1397
 5902 008a 9FED160A 		vldr.32	s0, .L431+12
 5903 008e 1648     		ldr	r0, .L431+16
  56:Midi.cpp      ****                     break;
 5904              		.loc 15 56 34 view .LVU1398
 5905 0090 F8EE677A 		vcvt.f32.u32	s15, s15
 5906              	.LBE1682:
 5907              	.LBE1689:
 5908              		.loc 15 64 1 view .LVU1399
 5909 0094 BDE83840 		pop	{r3, r4, r5, lr}
 5910              		.cfi_remember_state
 5911              		.cfi_restore 14
 5912              		.cfi_restore 5
 5913              		.cfi_restore 4
 5914              		.cfi_restore 3
 5915              		.cfi_def_cfa_offset 16
 5916              	.LVL449:
 5917              	.LBB1690:
 5918              	.LBB1683:
  56:Midi.cpp      ****                     break;
 5919              		.loc 15 56 32 view .LVU1400
 5920 0098 87EE800A 		vdiv.f32	s0, s15, s0
 5921              	.LBE1683:
 5922              	.LBE1690:
 5923              		.loc 15 64 1 view .LVU1401
 5924 009c 04B0     		add	sp, sp, #16
 5925              		.cfi_def_cfa_offset 0
ARM GAS  /tmp/ccoLrWzv.s 			page 170


 5926              	.LBB1691:
 5927              	.LBB1684:
  56:Midi.cpp      ****                     break;
 5928              		.loc 15 56 32 view .LVU1402
 5929 009e FFF7FEBF 		b	_ZN7daisysp3Svf6SetResEf
 5930              	.LVL450:
 5931              	.L425:
 5932              		.cfi_restore_state
  50:Midi.cpp      ****                     // CC 1 for cutoff.
 5933              		.loc 15 50 17 is_stmt 1 view .LVU1403
  52:Midi.cpp      ****                     break;
 5934              		.loc 15 52 21 view .LVU1404
 5935              	.LBB1651:
 5936              	.LBI1651:
 123:../../DaisySP/Source/Utility/dsp.h **** {
 5937              		.loc 19 123 14 view .LVU1405
 5938              	.LBB1652:
 5939              		.loc 19 125 5 view .LVU1406
 5940              	.LBE1652:
 5941              	.LBE1651:
  52:Midi.cpp      ****                     break;
 5942              		.loc 15 52 33 is_stmt 0 view .LVU1407
 5943 00a2 07EE904A 		vmov	s15, r4	@ int
 5944              	.LBB1655:
 5945              	.LBB1653:
 5946              		.loc 19 125 23 view .LVU1408
 5947 00a6 9FED0C7A 		vldr.32	s14, .L431
 5948              		.loc 19 125 16 view .LVU1409
 5949 00aa F2EE080A 		vmov.f32	s1, #1.2e+1
 5950              	.LBE1653:
 5951              	.LBE1655:
  52:Midi.cpp      ****                     break;
 5952              		.loc 15 52 33 view .LVU1410
 5953 00ae F8EE677A 		vcvt.f32.u32	s15, s15
 5954              	.LBB1656:
 5955              	.LBB1654:
 5956              		.loc 19 125 16 view .LVU1411
 5957 00b2 B0EE000A 		vmov.f32	s0, #2.0e+0
 5958              		.loc 19 125 23 view .LVU1412
 5959 00b6 77EEC77A 		vsub.f32	s15, s15, s14
 5960              		.loc 19 125 16 view .LVU1413
 5961 00ba C7EEA00A 		vdiv.f32	s1, s15, s1
 5962 00be FFF7FEFF 		bl	powf
 5963              	.LVL451:
 5964              		.loc 19 125 43 view .LVU1414
 5965 00c2 DFED077A 		vldr.32	s15, .L431+8
 5966              	.LBE1654:
 5967              	.LBE1656:
  52:Midi.cpp      ****                     break;
 5968              		.loc 15 52 33 view .LVU1415
 5969 00c6 0848     		ldr	r0, .L431+16
 5970 00c8 20EE270A 		vmul.f32	s0, s0, s15
 5971              	.LBE1684:
 5972              	.LBE1691:
 5973              		.loc 15 64 1 view .LVU1416
 5974 00cc BDE83840 		pop	{r3, r4, r5, lr}
 5975              		.cfi_restore 14
ARM GAS  /tmp/ccoLrWzv.s 			page 171


 5976              		.cfi_restore 5
 5977              		.cfi_restore 4
 5978              		.cfi_restore 3
 5979              		.cfi_def_cfa_offset 16
 5980              	.LVL452:
 5981              		.loc 15 64 1 view .LVU1417
 5982 00d0 04B0     		add	sp, sp, #16
 5983              		.cfi_def_cfa_offset 0
 5984              	.LBB1692:
 5985              	.LBB1685:
  52:Midi.cpp      ****                     break;
 5986              		.loc 15 52 33 view .LVU1418
 5987 00d2 FFF7FEBF 		b	_ZN7daisysp3Svf7SetFreqEf
 5988              	.LVL453:
 5989              	.L432:
 5990 00d6 00BF     		.align	2
 5991              	.L431:
 5992 00d8 00008A42 		.word	1116340224
 5993 00dc 00000000 		.word	.LANCHOR0
 5994 00e0 0000DC43 		.word	1138491392
 5995 00e4 0000FE42 		.word	1123942400
 5996 00e8 00000000 		.word	.LANCHOR1
 5997              	.LBE1685:
 5998              	.LBE1692:
 5999              		.cfi_endproc
 6000              	.LFE4234:
 6002              		.section	.text._ZN5daisy13SSD130xDriverILj128ELj64ENS_24SSD130x4WireSpiTransportEE6UpdateEv,"axG",
 6003              		.align	1
 6004              		.p2align 2,,3
 6005              		.weak	_ZN5daisy13SSD130xDriverILj128ELj64ENS_24SSD130x4WireSpiTransportEE6UpdateEv
 6006              		.syntax unified
 6007              		.thumb
 6008              		.thumb_func
 6009              		.fpu fpv5-d16
 6011              	_ZN5daisy13SSD130xDriverILj128ELj64ENS_24SSD130x4WireSpiTransportEE6UpdateEv:
 6012              	.LVL454:
 6013              	.LFB4686:
 260:../../libdaisy/src/dev/oled_ssd130x.h ****     {
 6014              		.loc 14 260 10 is_stmt 1 view -0
 6015              		.cfi_startproc
 6016              		@ args = 0, pretend = 0, frame = 8
 6017              		@ frame_needed = 0, uses_anonymous_args = 0
 6018              		.loc 14 270 22 view .LVU1420
 260:../../libdaisy/src/dev/oled_ssd130x.h ****     {
 6019              		.loc 14 260 10 is_stmt 0 view .LVU1421
 6020 0000 2DE9F041 		push	{r4, r5, r6, r7, r8, lr}
 6021              		.cfi_def_cfa_offset 24
 6022              		.cfi_offset 4, -24
 6023              		.cfi_offset 5, -20
 6024              		.cfi_offset 6, -16
 6025              		.cfi_offset 7, -12
 6026              		.cfi_offset 8, -8
 6027              		.cfi_offset 14, -4
 6028 0004 B024     		movs	r4, #176
 6029 0006 82B0     		sub	sp, sp, #8
 6030              		.cfi_def_cfa_offset 32
 260:../../libdaisy/src/dev/oled_ssd130x.h ****     {
ARM GAS  /tmp/ccoLrWzv.s 			page 172


 6031              		.loc 14 260 10 view .LVU1422
 6032 0008 0546     		mov	r5, r0
 6033 000a 00F10806 		add	r6, r0, #8
 6034 000e 00F10C08 		add	r8, r0, #12
 6035              	.LVL455:
 6036              	.L434:
 6037              	.LBB1701:
 6038              	.LBB1702:
 111:../../libdaisy/src/dev/oled_ssd130x.h ****         spi_.BlockingTransmit(&cmd, 1);
 6039              		.loc 14 111 23 discriminator 2 view .LVU1423
 6040 0012 0021     		movs	r1, #0
 6041 0014 3046     		mov	r0, r6
 6042 0016 8DF80740 		strb	r4, [sp, #7]
 6043              	.LVL456:
 111:../../libdaisy/src/dev/oled_ssd130x.h ****         spi_.BlockingTransmit(&cmd, 1);
 6044              		.loc 14 111 23 discriminator 2 view .LVU1424
 6045              	.LBE1702:
 6046              	.LBI1701:
 109:../../libdaisy/src/dev/oled_ssd130x.h ****     {
 6047              		.loc 14 109 10 is_stmt 1 discriminator 2 view .LVU1425
 6048              	.LBB1703:
 111:../../libdaisy/src/dev/oled_ssd130x.h ****         spi_.BlockingTransmit(&cmd, 1);
 6049              		.loc 14 111 9 discriminator 2 view .LVU1426
 6050 001a 0134     		adds	r4, r4, #1
 6051              	.LVL457:
 111:../../libdaisy/src/dev/oled_ssd130x.h ****         spi_.BlockingTransmit(&cmd, 1);
 6052              		.loc 14 111 9 is_stmt 0 discriminator 2 view .LVU1427
 6053 001c 0F46     		mov	r7, r1
 111:../../libdaisy/src/dev/oled_ssd130x.h ****         spi_.BlockingTransmit(&cmd, 1);
 6054              		.loc 14 111 23 discriminator 2 view .LVU1428
 6055 001e FFF7FEFF 		bl	dsy_gpio_write
 6056              	.LVL458:
 112:../../libdaisy/src/dev/oled_ssd130x.h ****     };
 6057              		.loc 14 112 9 is_stmt 1 discriminator 2 view .LVU1429
 112:../../libdaisy/src/dev/oled_ssd130x.h ****     };
 6058              		.loc 14 112 30 is_stmt 0 discriminator 2 view .LVU1430
 6059 0022 6423     		movs	r3, #100
 6060 0024 0122     		movs	r2, #1
 6061 0026 0DF10701 		add	r1, sp, #7
 6062 002a 2846     		mov	r0, r5
 6063 002c FFF7FEFF 		bl	_ZN5daisy9SpiHandle16BlockingTransmitEPhjm
 6064              	.LVL459:
 112:../../libdaisy/src/dev/oled_ssd130x.h ****     };
 6065              		.loc 14 112 30 discriminator 2 view .LVU1431
 6066              	.LBE1703:
 6067              	.LBE1701:
 6068              	.LBB1704:
 6069              	.LBB1705:
 111:../../libdaisy/src/dev/oled_ssd130x.h ****         spi_.BlockingTransmit(&cmd, 1);
 6070              		.loc 14 111 23 discriminator 2 view .LVU1432
 6071 0030 3946     		mov	r1, r7
 6072 0032 3046     		mov	r0, r6
 6073 0034 8DF80770 		strb	r7, [sp, #7]
 6074              	.LVL460:
 111:../../libdaisy/src/dev/oled_ssd130x.h ****         spi_.BlockingTransmit(&cmd, 1);
 6075              		.loc 14 111 23 discriminator 2 view .LVU1433
 6076              	.LBE1705:
ARM GAS  /tmp/ccoLrWzv.s 			page 173


 6077              	.LBI1704:
 109:../../libdaisy/src/dev/oled_ssd130x.h ****     {
 6078              		.loc 14 109 10 is_stmt 1 discriminator 2 view .LVU1434
 6079              	.LBB1706:
 111:../../libdaisy/src/dev/oled_ssd130x.h ****         spi_.BlockingTransmit(&cmd, 1);
 6080              		.loc 14 111 9 discriminator 2 view .LVU1435
 111:../../libdaisy/src/dev/oled_ssd130x.h ****         spi_.BlockingTransmit(&cmd, 1);
 6081              		.loc 14 111 23 is_stmt 0 discriminator 2 view .LVU1436
 6082 0038 FFF7FEFF 		bl	dsy_gpio_write
 6083              	.LVL461:
 112:../../libdaisy/src/dev/oled_ssd130x.h ****     };
 6084              		.loc 14 112 9 is_stmt 1 discriminator 2 view .LVU1437
 112:../../libdaisy/src/dev/oled_ssd130x.h ****     };
 6085              		.loc 14 112 30 is_stmt 0 discriminator 2 view .LVU1438
 6086 003c 0122     		movs	r2, #1
 6087 003e 6423     		movs	r3, #100
 6088 0040 0DF10701 		add	r1, sp, #7
 6089 0044 2846     		mov	r0, r5
 6090 0046 E4B2     		uxtb	r4, r4
 6091 0048 FFF7FEFF 		bl	_ZN5daisy9SpiHandle16BlockingTransmitEPhjm
 6092              	.LVL462:
 112:../../libdaisy/src/dev/oled_ssd130x.h ****     };
 6093              		.loc 14 112 30 discriminator 2 view .LVU1439
 6094 004c 1023     		movs	r3, #16
 6095              	.LBE1706:
 6096              	.LBE1704:
 6097              	.LBB1707:
 6098              	.LBB1708:
 111:../../libdaisy/src/dev/oled_ssd130x.h ****         spi_.BlockingTransmit(&cmd, 1);
 6099              		.loc 14 111 23 discriminator 2 view .LVU1440
 6100 004e 3946     		mov	r1, r7
 6101 0050 3046     		mov	r0, r6
 6102 0052 8DF80730 		strb	r3, [sp, #7]
 6103              	.LVL463:
 111:../../libdaisy/src/dev/oled_ssd130x.h ****         spi_.BlockingTransmit(&cmd, 1);
 6104              		.loc 14 111 23 discriminator 2 view .LVU1441
 6105              	.LBE1708:
 6106              	.LBI1707:
 109:../../libdaisy/src/dev/oled_ssd130x.h ****     {
 6107              		.loc 14 109 10 is_stmt 1 discriminator 2 view .LVU1442
 6108              	.LBB1709:
 111:../../libdaisy/src/dev/oled_ssd130x.h ****         spi_.BlockingTransmit(&cmd, 1);
 6109              		.loc 14 111 9 discriminator 2 view .LVU1443
 111:../../libdaisy/src/dev/oled_ssd130x.h ****         spi_.BlockingTransmit(&cmd, 1);
 6110              		.loc 14 111 23 is_stmt 0 discriminator 2 view .LVU1444
 6111 0056 FFF7FEFF 		bl	dsy_gpio_write
 6112              	.LVL464:
 112:../../libdaisy/src/dev/oled_ssd130x.h ****     };
 6113              		.loc 14 112 9 is_stmt 1 discriminator 2 view .LVU1445
 112:../../libdaisy/src/dev/oled_ssd130x.h ****     };
 6114              		.loc 14 112 30 is_stmt 0 discriminator 2 view .LVU1446
 6115 005a 6423     		movs	r3, #100
 6116 005c 0122     		movs	r2, #1
 6117 005e 0DF10701 		add	r1, sp, #7
 6118 0062 2846     		mov	r0, r5
 6119 0064 FFF7FEFF 		bl	_ZN5daisy9SpiHandle16BlockingTransmitEPhjm
 6120              	.LVL465:
ARM GAS  /tmp/ccoLrWzv.s 			page 174


 112:../../libdaisy/src/dev/oled_ssd130x.h ****     };
 6121              		.loc 14 112 30 discriminator 2 view .LVU1447
 6122              	.LBE1709:
 6123              	.LBE1707:
 6124              	.LBB1710:
 6125              	.LBI1710:
 115:../../libdaisy/src/dev/oled_ssd130x.h ****     {
 6126              		.loc 14 115 10 is_stmt 1 discriminator 2 view .LVU1448
 6127              	.LBB1711:
 117:../../libdaisy/src/dev/oled_ssd130x.h ****         spi_.BlockingTransmit(buff, size);
 6128              		.loc 14 117 9 discriminator 2 view .LVU1449
 117:../../libdaisy/src/dev/oled_ssd130x.h ****         spi_.BlockingTransmit(buff, size);
 6129              		.loc 14 117 23 is_stmt 0 discriminator 2 view .LVU1450
 6130 0068 0121     		movs	r1, #1
 6131 006a 3046     		mov	r0, r6
 6132 006c FFF7FEFF 		bl	dsy_gpio_write
 6133              	.LVL466:
 118:../../libdaisy/src/dev/oled_ssd130x.h ****     };
 6134              		.loc 14 118 9 is_stmt 1 discriminator 2 view .LVU1451
 118:../../libdaisy/src/dev/oled_ssd130x.h ****     };
 6135              		.loc 14 118 30 is_stmt 0 discriminator 2 view .LVU1452
 6136 0070 8022     		movs	r2, #128
 6137 0072 4146     		mov	r1, r8
 6138 0074 6423     		movs	r3, #100
 6139 0076 2846     		mov	r0, r5
 6140 0078 9044     		add	r8, r8, r2
 6141              	.LVL467:
 118:../../libdaisy/src/dev/oled_ssd130x.h ****     };
 6142              		.loc 14 118 30 discriminator 2 view .LVU1453
 6143 007a FFF7FEFF 		bl	_ZN5daisy9SpiHandle16BlockingTransmitEPhjm
 6144              	.LVL468:
 118:../../libdaisy/src/dev/oled_ssd130x.h ****     };
 6145              		.loc 14 118 30 discriminator 2 view .LVU1454
 6146              	.LBE1711:
 6147              	.LBE1710:
 6148              		.loc 14 270 9 is_stmt 1 discriminator 2 view .LVU1455
 6149              		.loc 14 270 22 discriminator 2 view .LVU1456
 6150 007e B82C     		cmp	r4, #184
 6151 0080 C7D1     		bne	.L434
 271:../../libdaisy/src/dev/oled_ssd130x.h ****         {
 272:../../libdaisy/src/dev/oled_ssd130x.h ****             transport_.SendCommand(0xB0 + i);
 273:../../libdaisy/src/dev/oled_ssd130x.h ****             transport_.SendCommand(0x00);
 274:../../libdaisy/src/dev/oled_ssd130x.h ****             transport_.SendCommand(high_column_addr);
 275:../../libdaisy/src/dev/oled_ssd130x.h ****             transport_.SendData(&buffer_[width * i], width);
 276:../../libdaisy/src/dev/oled_ssd130x.h ****         }
 277:../../libdaisy/src/dev/oled_ssd130x.h ****     };
 6152              		.loc 14 277 5 is_stmt 0 view .LVU1457
 6153 0082 02B0     		add	sp, sp, #8
 6154              		.cfi_def_cfa_offset 24
 6155              		@ sp needed
 6156 0084 BDE8F081 		pop	{r4, r5, r6, r7, r8, pc}
 6157              		.loc 14 277 5 view .LVU1458
 6158              		.cfi_endproc
 6159              	.LFE4686:
 6161              		.section	.text.startup.main,"ax",%progbits
 6162              		.align	1
 6163              		.p2align 2,,3
ARM GAS  /tmp/ccoLrWzv.s 			page 175


 6164              		.global	main
 6165              		.syntax unified
 6166              		.thumb
 6167              		.thumb_func
 6168              		.fpu fpv5-d16
 6170              	main:
 6171              	.LFB4235:
  65:Midi.cpp      **** 
  66:Midi.cpp      **** 
  67:Midi.cpp      **** // Main -- Init, and Midi Handling
  68:Midi.cpp      **** int main(void)
  69:Midi.cpp      **** {
 6172              		.loc 15 69 1 is_stmt 1 view -0
 6173              		.cfi_startproc
 6174              		@ args = 0, pretend = 0, frame = 464
 6175              		@ frame_needed = 0, uses_anonymous_args = 0
  70:Midi.cpp      ****     // Init
  71:Midi.cpp      ****     float samplerate;
 6176              		.loc 15 71 5 view .LVU1460
  72:Midi.cpp      ****     hw.Init();
 6177              		.loc 15 72 5 view .LVU1461
  69:Midi.cpp      ****     // Init
 6178              		.loc 15 69 1 is_stmt 0 view .LVU1462
 6179 0000 2DE9F04F 		push	{r4, r5, r6, r7, r8, r9, r10, fp, lr}
 6180              		.cfi_def_cfa_offset 36
 6181              		.cfi_offset 4, -36
 6182              		.cfi_offset 5, -32
 6183              		.cfi_offset 6, -28
 6184              		.cfi_offset 7, -24
 6185              		.cfi_offset 8, -20
 6186              		.cfi_offset 9, -16
 6187              		.cfi_offset 10, -12
 6188              		.cfi_offset 11, -8
 6189              		.cfi_offset 14, -4
 6190              		.loc 15 72 12 view .LVU1463
 6191 0004 0021     		movs	r1, #0
 6192 0006 B848     		ldr	r0, .L503
 6193              	.LBB1827:
 6194              	.LBB1828:
  44:../../DaisySP/Source/Synthesis/oscillator.h ****         sr_recip_  = 1.0f / sample_rate;
 6195              		.loc 12 44 20 view .LVU1464
 6196 0008 B84F     		ldr	r7, .L503+4
 6197 000a DFF810A3 		ldr	r10, .L503+52
 6198 000e DFF8D882 		ldr	r8, .L503
 6199 0012 AAF10804 		sub	r4, r10, #8
 6200 0016 0AF1140B 		add	fp, r10, #20
 6201              	.LBE1828:
 6202              	.LBE1827:
  69:Midi.cpp      ****     // Init
 6203              		.loc 15 69 1 view .LVU1465
 6204 001a 2DED028B 		vpush.64	{d8}
 6205              		.cfi_def_cfa_offset 44
 6206              		.cfi_offset 80, -44
 6207              		.cfi_offset 81, -40
 6208 001e ADF5157D 		sub	sp, sp, #596
 6209              		.cfi_def_cfa_offset 640
 6210 0022 251D     		adds	r5, r4, #4
ARM GAS  /tmp/ccoLrWzv.s 			page 176


 6211              		.loc 15 72 12 view .LVU1466
 6212 0024 FFF7FEFF 		bl	_ZN5daisy10DaisyPatch4InitEb
 6213              	.LVL469:
  73:Midi.cpp      ****     samplerate = hw.AudioSampleRate();
 6214              		.loc 15 73 5 is_stmt 1 view .LVU1467
 6215              		.loc 15 73 36 is_stmt 0 view .LVU1468
 6216 0028 AF48     		ldr	r0, .L503
 6217 002a FFF7FEFF 		bl	_ZN5daisy10DaisyPatch15AudioSampleRateEv
 6218              	.LVL470:
 6219              	.LBB1833:
 6220              	.LBB1829:
  45:../../DaisySP/Source/Synthesis/oscillator.h ****         freq_      = 100.0f;
 6221              		.loc 12 45 27 view .LVU1469
 6222 002e B7EE007A 		vmov.f32	s14, #1.0e+0
 6223              	.LBE1829:
 6224              	.LBE1833:
 6225              		.loc 15 73 36 view .LVU1470
 6226 0032 B0EE408A 		vmov.f32	s16, s0
 6227              	.LVL471:
  74:Midi.cpp      **** 
  75:Midi.cpp      ****     // Synthesis
  76:Midi.cpp      ****     osc.Init(samplerate);
 6228              		.loc 15 76 5 is_stmt 1 view .LVU1471
 6229              	.LBB1834:
 6230              	.LBI1827:
  42:../../DaisySP/Source/Synthesis/oscillator.h ****     {
 6231              		.loc 12 42 10 view .LVU1472
 6232              	.LBB1830:
  44:../../DaisySP/Source/Synthesis/oscillator.h ****         sr_recip_  = 1.0f / sample_rate;
 6233              		.loc 12 44 9 view .LVU1473
  47:../../DaisySP/Source/Synthesis/oscillator.h ****         phase_     = 0.0f;
 6234              		.loc 12 47 20 is_stmt 0 view .LVU1474
 6235 0036 4FF07C52 		mov	r2, #1056964608
  48:../../DaisySP/Source/Synthesis/oscillator.h ****         phase_inc_ = CalcPhaseInc(freq_);
 6236              		.loc 12 48 20 view .LVU1475
 6237 003a 0023     		movs	r3, #0
  46:../../DaisySP/Source/Synthesis/oscillator.h ****         amp_       = 0.5f;
 6238              		.loc 12 46 20 view .LVU1476
 6239 003c 9FEDAC0A 		vldr.32	s0, .L503+8
 6240              	.LVL472:
  49:../../DaisySP/Source/Synthesis/oscillator.h ****         waveform_  = WAVE_SIN;
 6241              		.loc 12 49 34 view .LVU1477
 6242 0040 3846     		mov	r0, r7
  47:../../DaisySP/Source/Synthesis/oscillator.h ****         phase_     = 0.0f;
 6243              		.loc 12 47 20 view .LVU1478
 6244 0042 7A60     		str	r2, [r7, #4]	@ float
  45:../../DaisySP/Source/Synthesis/oscillator.h ****         freq_      = 100.0f;
 6245              		.loc 12 45 27 view .LVU1479
 6246 0044 C7EE087A 		vdiv.f32	s15, s14, s16
  48:../../DaisySP/Source/Synthesis/oscillator.h ****         phase_inc_ = CalcPhaseInc(freq_);
 6247              		.loc 12 48 20 view .LVU1480
 6248 0048 7B61     		str	r3, [r7, #20]	@ float
  44:../../DaisySP/Source/Synthesis/oscillator.h ****         sr_recip_  = 1.0f / sample_rate;
 6249              		.loc 12 44 20 view .LVU1481
 6250 004a 87ED038A 		vstr.32	s16, [r7, #12]
  45:../../DaisySP/Source/Synthesis/oscillator.h ****         freq_      = 100.0f;
 6251              		.loc 12 45 9 is_stmt 1 view .LVU1482
ARM GAS  /tmp/ccoLrWzv.s 			page 177


 6252 004e 28AE     		add	r6, sp, #160
  46:../../DaisySP/Source/Synthesis/oscillator.h ****         amp_       = 0.5f;
 6253              		.loc 12 46 20 is_stmt 0 view .LVU1483
 6254 0050 87ED020A 		vstr.32	s0, [r7, #8]
  45:../../DaisySP/Source/Synthesis/oscillator.h ****         freq_      = 100.0f;
 6255              		.loc 12 45 20 view .LVU1484
 6256 0054 C7ED047A 		vstr.32	s15, [r7, #16]
  46:../../DaisySP/Source/Synthesis/oscillator.h ****         amp_       = 0.5f;
 6257              		.loc 12 46 9 is_stmt 1 view .LVU1485
  47:../../DaisySP/Source/Synthesis/oscillator.h ****         phase_     = 0.0f;
 6258              		.loc 12 47 9 view .LVU1486
  48:../../DaisySP/Source/Synthesis/oscillator.h ****         phase_inc_ = CalcPhaseInc(freq_);
 6259              		.loc 12 48 9 view .LVU1487
  49:../../DaisySP/Source/Synthesis/oscillator.h ****         waveform_  = WAVE_SIN;
 6260              		.loc 12 49 9 view .LVU1488
  49:../../DaisySP/Source/Synthesis/oscillator.h ****         waveform_  = WAVE_SIN;
 6261              		.loc 12 49 34 is_stmt 0 view .LVU1489
 6262 0058 FFF7FEFF 		bl	_ZN7daisysp10Oscillator12CalcPhaseIncEf
 6263              	.LVL473:
  52:../../DaisySP/Source/Synthesis/oscillator.h ****     }
 6264              		.loc 12 52 20 view .LVU1490
 6265 005c 40F20112 		movw	r2, #257
  49:../../DaisySP/Source/Synthesis/oscillator.h ****         waveform_  = WAVE_SIN;
 6266              		.loc 12 49 34 view .LVU1491
 6267 0060 F0EE407A 		vmov.f32	s15, s0
 6268              	.LBE1830:
 6269              	.LBE1834:
 6270              	.LBB1835:
 6271              	.LBB1836:
  68:../../DaisySP/Source/Synthesis/oscillator.h ****     /** Sets the waveform to be synthesized by the Process() function.
  69:../../DaisySP/Source/Synthesis/oscillator.h ****     */
  70:../../DaisySP/Source/Synthesis/oscillator.h ****     inline void SetWaveform(const uint8_t wf)
  71:../../DaisySP/Source/Synthesis/oscillator.h ****     {
  72:../../DaisySP/Source/Synthesis/oscillator.h ****         waveform_ = wf < WAVE_LAST ? wf : WAVE_SIN;
 6272              		.loc 12 72 19 view .LVU1492
 6273 0064 0623     		movs	r3, #6
 6274              	.LBE1836:
 6275              	.LBE1835:
  77:Midi.cpp      ****     osc.SetWaveform(Oscillator::WAVE_POLYBLEP_SAW);
  78:Midi.cpp      ****     filt.Init(samplerate);
 6276              		.loc 15 78 14 view .LVU1493
 6277 0066 B0EE480A 		vmov.f32	s0, s16
 6278 006a A248     		ldr	r0, .L503+12
 6279              	.LBB1839:
 6280              	.LBB1831:
  52:../../DaisySP/Source/Synthesis/oscillator.h ****     }
 6281              		.loc 12 52 20 view .LVU1494
 6282 006c BA84     		strh	r2, [r7, #36]	@ movhi
 6283              	.LBE1831:
 6284              	.LBE1839:
 6285              	.LBB1840:
 6286              	.LBB1837:
 6287              		.loc 12 72 19 view .LVU1495
 6288 006e 3B70     		strb	r3, [r7]
 6289              	.LBE1837:
 6290              	.LBE1840:
 6291              	.LBB1841:
ARM GAS  /tmp/ccoLrWzv.s 			page 178


 6292              	.LBB1832:
  49:../../DaisySP/Source/Synthesis/oscillator.h ****         waveform_  = WAVE_SIN;
 6293              		.loc 12 49 20 view .LVU1496
 6294 0070 C7ED067A 		vstr.32	s15, [r7, #24]
  50:../../DaisySP/Source/Synthesis/oscillator.h ****         eoc_       = true;
 6295              		.loc 12 50 9 is_stmt 1 view .LVU1497
  51:../../DaisySP/Source/Synthesis/oscillator.h ****         eor_       = true;
 6296              		.loc 12 51 9 view .LVU1498
  52:../../DaisySP/Source/Synthesis/oscillator.h ****     }
 6297              		.loc 12 52 9 view .LVU1499
 6298              	.LVL474:
  52:../../DaisySP/Source/Synthesis/oscillator.h ****     }
 6299              		.loc 12 52 9 is_stmt 0 view .LVU1500
 6300              	.LBE1832:
 6301              	.LBE1841:
  77:Midi.cpp      ****     filt.Init(samplerate);
 6302              		.loc 15 77 5 is_stmt 1 view .LVU1501
 6303              	.LBB1842:
 6304              	.LBI1835:
  70:../../DaisySP/Source/Synthesis/oscillator.h ****     {
 6305              		.loc 12 70 17 view .LVU1502
 6306              	.LBB1838:
 6307              		.loc 12 72 9 view .LVU1503
 6308              		.loc 12 72 9 is_stmt 0 view .LVU1504
 6309              	.LBE1838:
 6310              	.LBE1842:
 6311              		.loc 15 78 5 is_stmt 1 view .LVU1505
 6312              		.loc 15 78 14 is_stmt 0 view .LVU1506
 6313 0074 FFF7FEFF 		bl	_ZN7daisysp3Svf4InitEf
 6314              	.LVL475:
  79:Midi.cpp      **** 
  80:Midi.cpp      ****     //display
  81:Midi.cpp      ****     std::string str  = "Midi";
 6315              		.loc 15 81 5 is_stmt 1 view .LVU1507
 6316              	.LBB1843:
 6317              	.LBI1843:
 6318              		.file 20 "/usr/include/newlib/c++/9.2.1/bits/allocator.h"
   1:/usr/include/newlib/c++/9.2.1/bits/allocator.h **** // Allocators -*- C++ -*-
   2:/usr/include/newlib/c++/9.2.1/bits/allocator.h **** 
   3:/usr/include/newlib/c++/9.2.1/bits/allocator.h **** // Copyright (C) 2001-2019 Free Software Foundation, Inc.
   4:/usr/include/newlib/c++/9.2.1/bits/allocator.h **** //
   5:/usr/include/newlib/c++/9.2.1/bits/allocator.h **** // This file is part of the GNU ISO C++ Library.  This library is free
   6:/usr/include/newlib/c++/9.2.1/bits/allocator.h **** // software; you can redistribute it and/or modify it under the
   7:/usr/include/newlib/c++/9.2.1/bits/allocator.h **** // terms of the GNU General Public License as published by the
   8:/usr/include/newlib/c++/9.2.1/bits/allocator.h **** // Free Software Foundation; either version 3, or (at your option)
   9:/usr/include/newlib/c++/9.2.1/bits/allocator.h **** // any later version.
  10:/usr/include/newlib/c++/9.2.1/bits/allocator.h **** 
  11:/usr/include/newlib/c++/9.2.1/bits/allocator.h **** // This library is distributed in the hope that it will be useful,
  12:/usr/include/newlib/c++/9.2.1/bits/allocator.h **** // but WITHOUT ANY WARRANTY; without even the implied warranty of
  13:/usr/include/newlib/c++/9.2.1/bits/allocator.h **** // MERCHANTABILITY or FITNESS FOR A PARTICULAR PURPOSE.  See the
  14:/usr/include/newlib/c++/9.2.1/bits/allocator.h **** // GNU General Public License for more details.
  15:/usr/include/newlib/c++/9.2.1/bits/allocator.h **** 
  16:/usr/include/newlib/c++/9.2.1/bits/allocator.h **** // Under Section 7 of GPL version 3, you are granted additional
  17:/usr/include/newlib/c++/9.2.1/bits/allocator.h **** // permissions described in the GCC Runtime Library Exception, version
  18:/usr/include/newlib/c++/9.2.1/bits/allocator.h **** // 3.1, as published by the Free Software Foundation.
  19:/usr/include/newlib/c++/9.2.1/bits/allocator.h **** 
  20:/usr/include/newlib/c++/9.2.1/bits/allocator.h **** // You should have received a copy of the GNU General Public License and
ARM GAS  /tmp/ccoLrWzv.s 			page 179


  21:/usr/include/newlib/c++/9.2.1/bits/allocator.h **** // a copy of the GCC Runtime Library Exception along with this program;
  22:/usr/include/newlib/c++/9.2.1/bits/allocator.h **** // see the files COPYING3 and COPYING.RUNTIME respectively.  If not, see
  23:/usr/include/newlib/c++/9.2.1/bits/allocator.h **** // <http://www.gnu.org/licenses/>.
  24:/usr/include/newlib/c++/9.2.1/bits/allocator.h **** 
  25:/usr/include/newlib/c++/9.2.1/bits/allocator.h **** /*
  26:/usr/include/newlib/c++/9.2.1/bits/allocator.h ****  * Copyright (c) 1996-1997
  27:/usr/include/newlib/c++/9.2.1/bits/allocator.h ****  * Silicon Graphics Computer Systems, Inc.
  28:/usr/include/newlib/c++/9.2.1/bits/allocator.h ****  *
  29:/usr/include/newlib/c++/9.2.1/bits/allocator.h ****  * Permission to use, copy, modify, distribute and sell this software
  30:/usr/include/newlib/c++/9.2.1/bits/allocator.h ****  * and its documentation for any purpose is hereby granted without fee,
  31:/usr/include/newlib/c++/9.2.1/bits/allocator.h ****  * provided that the above copyright notice appear in all copies and
  32:/usr/include/newlib/c++/9.2.1/bits/allocator.h ****  * that both that copyright notice and this permission notice appear
  33:/usr/include/newlib/c++/9.2.1/bits/allocator.h ****  * in supporting documentation.  Silicon Graphics makes no
  34:/usr/include/newlib/c++/9.2.1/bits/allocator.h ****  * representations about the suitability of this software for any
  35:/usr/include/newlib/c++/9.2.1/bits/allocator.h ****  * purpose.  It is provided "as is" without express or implied warranty.
  36:/usr/include/newlib/c++/9.2.1/bits/allocator.h ****  */
  37:/usr/include/newlib/c++/9.2.1/bits/allocator.h **** 
  38:/usr/include/newlib/c++/9.2.1/bits/allocator.h **** /** @file bits/allocator.h
  39:/usr/include/newlib/c++/9.2.1/bits/allocator.h ****  *  This is an internal header file, included by other library headers.
  40:/usr/include/newlib/c++/9.2.1/bits/allocator.h ****  *  Do not attempt to use it directly. @headername{memory}
  41:/usr/include/newlib/c++/9.2.1/bits/allocator.h ****  */
  42:/usr/include/newlib/c++/9.2.1/bits/allocator.h **** 
  43:/usr/include/newlib/c++/9.2.1/bits/allocator.h **** #ifndef _ALLOCATOR_H
  44:/usr/include/newlib/c++/9.2.1/bits/allocator.h **** #define _ALLOCATOR_H 1
  45:/usr/include/newlib/c++/9.2.1/bits/allocator.h **** 
  46:/usr/include/newlib/c++/9.2.1/bits/allocator.h **** #include <bits/c++allocator.h> // Define the base class to std::allocator.
  47:/usr/include/newlib/c++/9.2.1/bits/allocator.h **** #include <bits/memoryfwd.h>
  48:/usr/include/newlib/c++/9.2.1/bits/allocator.h **** #if __cplusplus >= 201103L
  49:/usr/include/newlib/c++/9.2.1/bits/allocator.h **** #include <type_traits>
  50:/usr/include/newlib/c++/9.2.1/bits/allocator.h **** #endif
  51:/usr/include/newlib/c++/9.2.1/bits/allocator.h **** 
  52:/usr/include/newlib/c++/9.2.1/bits/allocator.h **** #define __cpp_lib_incomplete_container_elements 201505
  53:/usr/include/newlib/c++/9.2.1/bits/allocator.h **** #if __cplusplus >= 201103L
  54:/usr/include/newlib/c++/9.2.1/bits/allocator.h **** # define __cpp_lib_allocator_is_always_equal 201411
  55:/usr/include/newlib/c++/9.2.1/bits/allocator.h **** #endif
  56:/usr/include/newlib/c++/9.2.1/bits/allocator.h **** 
  57:/usr/include/newlib/c++/9.2.1/bits/allocator.h **** namespace std _GLIBCXX_VISIBILITY(default)
  58:/usr/include/newlib/c++/9.2.1/bits/allocator.h **** {
  59:/usr/include/newlib/c++/9.2.1/bits/allocator.h **** _GLIBCXX_BEGIN_NAMESPACE_VERSION
  60:/usr/include/newlib/c++/9.2.1/bits/allocator.h **** 
  61:/usr/include/newlib/c++/9.2.1/bits/allocator.h ****   /**
  62:/usr/include/newlib/c++/9.2.1/bits/allocator.h ****    *  @addtogroup allocators
  63:/usr/include/newlib/c++/9.2.1/bits/allocator.h ****    *  @{
  64:/usr/include/newlib/c++/9.2.1/bits/allocator.h ****    */
  65:/usr/include/newlib/c++/9.2.1/bits/allocator.h **** 
  66:/usr/include/newlib/c++/9.2.1/bits/allocator.h ****   /// allocator<void> specialization.
  67:/usr/include/newlib/c++/9.2.1/bits/allocator.h ****   template<>
  68:/usr/include/newlib/c++/9.2.1/bits/allocator.h ****     class allocator<void>
  69:/usr/include/newlib/c++/9.2.1/bits/allocator.h ****     {
  70:/usr/include/newlib/c++/9.2.1/bits/allocator.h ****     public:
  71:/usr/include/newlib/c++/9.2.1/bits/allocator.h ****       typedef size_t      size_type;
  72:/usr/include/newlib/c++/9.2.1/bits/allocator.h ****       typedef ptrdiff_t   difference_type;
  73:/usr/include/newlib/c++/9.2.1/bits/allocator.h ****       typedef void*       pointer;
  74:/usr/include/newlib/c++/9.2.1/bits/allocator.h ****       typedef const void* const_pointer;
  75:/usr/include/newlib/c++/9.2.1/bits/allocator.h ****       typedef void        value_type;
  76:/usr/include/newlib/c++/9.2.1/bits/allocator.h **** 
  77:/usr/include/newlib/c++/9.2.1/bits/allocator.h ****       template<typename _Tp1>
ARM GAS  /tmp/ccoLrWzv.s 			page 180


  78:/usr/include/newlib/c++/9.2.1/bits/allocator.h **** 	struct rebind
  79:/usr/include/newlib/c++/9.2.1/bits/allocator.h **** 	{ typedef allocator<_Tp1> other; };
  80:/usr/include/newlib/c++/9.2.1/bits/allocator.h **** 
  81:/usr/include/newlib/c++/9.2.1/bits/allocator.h **** #if __cplusplus >= 201103L
  82:/usr/include/newlib/c++/9.2.1/bits/allocator.h ****       // _GLIBCXX_RESOLVE_LIB_DEFECTS
  83:/usr/include/newlib/c++/9.2.1/bits/allocator.h ****       // 2103. std::allocator propagate_on_container_move_assignment
  84:/usr/include/newlib/c++/9.2.1/bits/allocator.h ****       typedef true_type propagate_on_container_move_assignment;
  85:/usr/include/newlib/c++/9.2.1/bits/allocator.h **** 
  86:/usr/include/newlib/c++/9.2.1/bits/allocator.h ****       typedef true_type is_always_equal;
  87:/usr/include/newlib/c++/9.2.1/bits/allocator.h **** 
  88:/usr/include/newlib/c++/9.2.1/bits/allocator.h ****       template<typename _Up, typename... _Args>
  89:/usr/include/newlib/c++/9.2.1/bits/allocator.h **** 	void
  90:/usr/include/newlib/c++/9.2.1/bits/allocator.h **** 	construct(_Up* __p, _Args&&... __args)
  91:/usr/include/newlib/c++/9.2.1/bits/allocator.h **** 	noexcept(noexcept(::new((void *)__p)
  92:/usr/include/newlib/c++/9.2.1/bits/allocator.h **** 			    _Up(std::forward<_Args>(__args)...)))
  93:/usr/include/newlib/c++/9.2.1/bits/allocator.h **** 	{ ::new((void *)__p) _Up(std::forward<_Args>(__args)...); }
  94:/usr/include/newlib/c++/9.2.1/bits/allocator.h **** 
  95:/usr/include/newlib/c++/9.2.1/bits/allocator.h ****       template<typename _Up>
  96:/usr/include/newlib/c++/9.2.1/bits/allocator.h **** 	void
  97:/usr/include/newlib/c++/9.2.1/bits/allocator.h **** 	destroy(_Up* __p)
  98:/usr/include/newlib/c++/9.2.1/bits/allocator.h **** 	noexcept(noexcept(__p->~_Up()))
  99:/usr/include/newlib/c++/9.2.1/bits/allocator.h **** 	{ __p->~_Up(); }
 100:/usr/include/newlib/c++/9.2.1/bits/allocator.h **** #endif
 101:/usr/include/newlib/c++/9.2.1/bits/allocator.h ****     };
 102:/usr/include/newlib/c++/9.2.1/bits/allocator.h **** 
 103:/usr/include/newlib/c++/9.2.1/bits/allocator.h ****   /**
 104:/usr/include/newlib/c++/9.2.1/bits/allocator.h ****    * @brief  The @a standard allocator, as per [20.4].
 105:/usr/include/newlib/c++/9.2.1/bits/allocator.h ****    *
 106:/usr/include/newlib/c++/9.2.1/bits/allocator.h ****    *  See https://gcc.gnu.org/onlinedocs/libstdc++/manual/memory.html#std.util.memory.allocator
 107:/usr/include/newlib/c++/9.2.1/bits/allocator.h ****    *  for further details.
 108:/usr/include/newlib/c++/9.2.1/bits/allocator.h ****    *
 109:/usr/include/newlib/c++/9.2.1/bits/allocator.h ****    *  @tparam  _Tp  Type of allocated object.
 110:/usr/include/newlib/c++/9.2.1/bits/allocator.h ****    */
 111:/usr/include/newlib/c++/9.2.1/bits/allocator.h ****   template<typename _Tp>
 112:/usr/include/newlib/c++/9.2.1/bits/allocator.h ****     class allocator : public __allocator_base<_Tp>
 113:/usr/include/newlib/c++/9.2.1/bits/allocator.h ****     {
 114:/usr/include/newlib/c++/9.2.1/bits/allocator.h ****    public:
 115:/usr/include/newlib/c++/9.2.1/bits/allocator.h ****       typedef size_t     size_type;
 116:/usr/include/newlib/c++/9.2.1/bits/allocator.h ****       typedef ptrdiff_t  difference_type;
 117:/usr/include/newlib/c++/9.2.1/bits/allocator.h ****       typedef _Tp*       pointer;
 118:/usr/include/newlib/c++/9.2.1/bits/allocator.h ****       typedef const _Tp* const_pointer;
 119:/usr/include/newlib/c++/9.2.1/bits/allocator.h ****       typedef _Tp&       reference;
 120:/usr/include/newlib/c++/9.2.1/bits/allocator.h ****       typedef const _Tp& const_reference;
 121:/usr/include/newlib/c++/9.2.1/bits/allocator.h ****       typedef _Tp        value_type;
 122:/usr/include/newlib/c++/9.2.1/bits/allocator.h **** 
 123:/usr/include/newlib/c++/9.2.1/bits/allocator.h ****       template<typename _Tp1>
 124:/usr/include/newlib/c++/9.2.1/bits/allocator.h **** 	struct rebind
 125:/usr/include/newlib/c++/9.2.1/bits/allocator.h **** 	{ typedef allocator<_Tp1> other; };
 126:/usr/include/newlib/c++/9.2.1/bits/allocator.h **** 
 127:/usr/include/newlib/c++/9.2.1/bits/allocator.h **** #if __cplusplus >= 201103L
 128:/usr/include/newlib/c++/9.2.1/bits/allocator.h ****       // _GLIBCXX_RESOLVE_LIB_DEFECTS
 129:/usr/include/newlib/c++/9.2.1/bits/allocator.h ****       // 2103. std::allocator propagate_on_container_move_assignment
 130:/usr/include/newlib/c++/9.2.1/bits/allocator.h ****       typedef true_type propagate_on_container_move_assignment;
 131:/usr/include/newlib/c++/9.2.1/bits/allocator.h **** 
 132:/usr/include/newlib/c++/9.2.1/bits/allocator.h ****       typedef true_type is_always_equal;
 133:/usr/include/newlib/c++/9.2.1/bits/allocator.h **** #endif
 134:/usr/include/newlib/c++/9.2.1/bits/allocator.h **** 
ARM GAS  /tmp/ccoLrWzv.s 			page 181


 135:/usr/include/newlib/c++/9.2.1/bits/allocator.h ****       // _GLIBCXX_RESOLVE_LIB_DEFECTS
 136:/usr/include/newlib/c++/9.2.1/bits/allocator.h ****       // 3035. std::allocator's constructors should be constexpr
 137:/usr/include/newlib/c++/9.2.1/bits/allocator.h ****       _GLIBCXX20_CONSTEXPR
 138:/usr/include/newlib/c++/9.2.1/bits/allocator.h ****       allocator() _GLIBCXX_NOTHROW { }
 6319              		.loc 20 138 7 view .LVU1508
 6320              	.LBB1844:
 6321              	.LBI1844:
 6322              		.file 21 "/usr/include/newlib/c++/9.2.1/ext/new_allocator.h"
   1:/usr/include/newlib/c++/9.2.1/ext/new_allocator.h **** // Allocator that wraps operator new -*- C++ -*-
   2:/usr/include/newlib/c++/9.2.1/ext/new_allocator.h **** 
   3:/usr/include/newlib/c++/9.2.1/ext/new_allocator.h **** // Copyright (C) 2001-2019 Free Software Foundation, Inc.
   4:/usr/include/newlib/c++/9.2.1/ext/new_allocator.h **** //
   5:/usr/include/newlib/c++/9.2.1/ext/new_allocator.h **** // This file is part of the GNU ISO C++ Library.  This library is free
   6:/usr/include/newlib/c++/9.2.1/ext/new_allocator.h **** // software; you can redistribute it and/or modify it under the
   7:/usr/include/newlib/c++/9.2.1/ext/new_allocator.h **** // terms of the GNU General Public License as published by the
   8:/usr/include/newlib/c++/9.2.1/ext/new_allocator.h **** // Free Software Foundation; either version 3, or (at your option)
   9:/usr/include/newlib/c++/9.2.1/ext/new_allocator.h **** // any later version.
  10:/usr/include/newlib/c++/9.2.1/ext/new_allocator.h **** 
  11:/usr/include/newlib/c++/9.2.1/ext/new_allocator.h **** // This library is distributed in the hope that it will be useful,
  12:/usr/include/newlib/c++/9.2.1/ext/new_allocator.h **** // but WITHOUT ANY WARRANTY; without even the implied warranty of
  13:/usr/include/newlib/c++/9.2.1/ext/new_allocator.h **** // MERCHANTABILITY or FITNESS FOR A PARTICULAR PURPOSE.  See the
  14:/usr/include/newlib/c++/9.2.1/ext/new_allocator.h **** // GNU General Public License for more details.
  15:/usr/include/newlib/c++/9.2.1/ext/new_allocator.h **** 
  16:/usr/include/newlib/c++/9.2.1/ext/new_allocator.h **** // Under Section 7 of GPL version 3, you are granted additional
  17:/usr/include/newlib/c++/9.2.1/ext/new_allocator.h **** // permissions described in the GCC Runtime Library Exception, version
  18:/usr/include/newlib/c++/9.2.1/ext/new_allocator.h **** // 3.1, as published by the Free Software Foundation.
  19:/usr/include/newlib/c++/9.2.1/ext/new_allocator.h **** 
  20:/usr/include/newlib/c++/9.2.1/ext/new_allocator.h **** // You should have received a copy of the GNU General Public License and
  21:/usr/include/newlib/c++/9.2.1/ext/new_allocator.h **** // a copy of the GCC Runtime Library Exception along with this program;
  22:/usr/include/newlib/c++/9.2.1/ext/new_allocator.h **** // see the files COPYING3 and COPYING.RUNTIME respectively.  If not, see
  23:/usr/include/newlib/c++/9.2.1/ext/new_allocator.h **** // <http://www.gnu.org/licenses/>.
  24:/usr/include/newlib/c++/9.2.1/ext/new_allocator.h **** 
  25:/usr/include/newlib/c++/9.2.1/ext/new_allocator.h **** /** @file ext/new_allocator.h
  26:/usr/include/newlib/c++/9.2.1/ext/new_allocator.h ****  *  This file is a GNU extension to the Standard C++ Library.
  27:/usr/include/newlib/c++/9.2.1/ext/new_allocator.h ****  */
  28:/usr/include/newlib/c++/9.2.1/ext/new_allocator.h **** 
  29:/usr/include/newlib/c++/9.2.1/ext/new_allocator.h **** #ifndef _NEW_ALLOCATOR_H
  30:/usr/include/newlib/c++/9.2.1/ext/new_allocator.h **** #define _NEW_ALLOCATOR_H 1
  31:/usr/include/newlib/c++/9.2.1/ext/new_allocator.h **** 
  32:/usr/include/newlib/c++/9.2.1/ext/new_allocator.h **** #include <bits/c++config.h>
  33:/usr/include/newlib/c++/9.2.1/ext/new_allocator.h **** #include <new>
  34:/usr/include/newlib/c++/9.2.1/ext/new_allocator.h **** #include <bits/functexcept.h>
  35:/usr/include/newlib/c++/9.2.1/ext/new_allocator.h **** #include <bits/move.h>
  36:/usr/include/newlib/c++/9.2.1/ext/new_allocator.h **** #if __cplusplus >= 201103L
  37:/usr/include/newlib/c++/9.2.1/ext/new_allocator.h **** #include <type_traits>
  38:/usr/include/newlib/c++/9.2.1/ext/new_allocator.h **** #endif
  39:/usr/include/newlib/c++/9.2.1/ext/new_allocator.h **** 
  40:/usr/include/newlib/c++/9.2.1/ext/new_allocator.h **** namespace __gnu_cxx _GLIBCXX_VISIBILITY(default)
  41:/usr/include/newlib/c++/9.2.1/ext/new_allocator.h **** {
  42:/usr/include/newlib/c++/9.2.1/ext/new_allocator.h **** _GLIBCXX_BEGIN_NAMESPACE_VERSION
  43:/usr/include/newlib/c++/9.2.1/ext/new_allocator.h **** 
  44:/usr/include/newlib/c++/9.2.1/ext/new_allocator.h ****   using std::size_t;
  45:/usr/include/newlib/c++/9.2.1/ext/new_allocator.h ****   using std::ptrdiff_t;
  46:/usr/include/newlib/c++/9.2.1/ext/new_allocator.h **** 
  47:/usr/include/newlib/c++/9.2.1/ext/new_allocator.h ****   /**
  48:/usr/include/newlib/c++/9.2.1/ext/new_allocator.h ****    *  @brief  An allocator that uses global new, as per [20.4].
  49:/usr/include/newlib/c++/9.2.1/ext/new_allocator.h ****    *  @ingroup allocators
ARM GAS  /tmp/ccoLrWzv.s 			page 182


  50:/usr/include/newlib/c++/9.2.1/ext/new_allocator.h ****    *
  51:/usr/include/newlib/c++/9.2.1/ext/new_allocator.h ****    *  This is precisely the allocator defined in the C++ Standard.
  52:/usr/include/newlib/c++/9.2.1/ext/new_allocator.h ****    *    - all allocation calls operator new
  53:/usr/include/newlib/c++/9.2.1/ext/new_allocator.h ****    *    - all deallocation calls operator delete
  54:/usr/include/newlib/c++/9.2.1/ext/new_allocator.h ****    *
  55:/usr/include/newlib/c++/9.2.1/ext/new_allocator.h ****    *  @tparam  _Tp  Type of allocated object.
  56:/usr/include/newlib/c++/9.2.1/ext/new_allocator.h ****    */
  57:/usr/include/newlib/c++/9.2.1/ext/new_allocator.h ****   template<typename _Tp>
  58:/usr/include/newlib/c++/9.2.1/ext/new_allocator.h ****     class new_allocator
  59:/usr/include/newlib/c++/9.2.1/ext/new_allocator.h ****     {
  60:/usr/include/newlib/c++/9.2.1/ext/new_allocator.h ****     public:
  61:/usr/include/newlib/c++/9.2.1/ext/new_allocator.h ****       typedef size_t     size_type;
  62:/usr/include/newlib/c++/9.2.1/ext/new_allocator.h ****       typedef ptrdiff_t  difference_type;
  63:/usr/include/newlib/c++/9.2.1/ext/new_allocator.h ****       typedef _Tp*       pointer;
  64:/usr/include/newlib/c++/9.2.1/ext/new_allocator.h ****       typedef const _Tp* const_pointer;
  65:/usr/include/newlib/c++/9.2.1/ext/new_allocator.h ****       typedef _Tp&       reference;
  66:/usr/include/newlib/c++/9.2.1/ext/new_allocator.h ****       typedef const _Tp& const_reference;
  67:/usr/include/newlib/c++/9.2.1/ext/new_allocator.h ****       typedef _Tp        value_type;
  68:/usr/include/newlib/c++/9.2.1/ext/new_allocator.h **** 
  69:/usr/include/newlib/c++/9.2.1/ext/new_allocator.h ****       template<typename _Tp1>
  70:/usr/include/newlib/c++/9.2.1/ext/new_allocator.h **** 	struct rebind
  71:/usr/include/newlib/c++/9.2.1/ext/new_allocator.h **** 	{ typedef new_allocator<_Tp1> other; };
  72:/usr/include/newlib/c++/9.2.1/ext/new_allocator.h **** 
  73:/usr/include/newlib/c++/9.2.1/ext/new_allocator.h **** #if __cplusplus >= 201103L
  74:/usr/include/newlib/c++/9.2.1/ext/new_allocator.h ****       // _GLIBCXX_RESOLVE_LIB_DEFECTS
  75:/usr/include/newlib/c++/9.2.1/ext/new_allocator.h ****       // 2103. propagate_on_container_move_assignment
  76:/usr/include/newlib/c++/9.2.1/ext/new_allocator.h ****       typedef std::true_type propagate_on_container_move_assignment;
  77:/usr/include/newlib/c++/9.2.1/ext/new_allocator.h **** #endif
  78:/usr/include/newlib/c++/9.2.1/ext/new_allocator.h **** 
  79:/usr/include/newlib/c++/9.2.1/ext/new_allocator.h ****       _GLIBCXX20_CONSTEXPR
  80:/usr/include/newlib/c++/9.2.1/ext/new_allocator.h ****       new_allocator() _GLIBCXX_USE_NOEXCEPT { }
 6323              		.loc 21 80 7 view .LVU1509
 6324              		.loc 21 80 7 is_stmt 0 view .LVU1510
 6325              	.LBE1844:
 6326              	.LBE1843:
 6327              	.LBB1845:
 6328              	.LBI1845:
 6329              		.file 22 "/usr/include/newlib/c++/9.2.1/bits/basic_string.h"
   1:/usr/include/newlib/c++/9.2.1/bits/basic_string.h **** // Components for manipulating sequences of characters -*- C++ -*-
   2:/usr/include/newlib/c++/9.2.1/bits/basic_string.h **** 
   3:/usr/include/newlib/c++/9.2.1/bits/basic_string.h **** // Copyright (C) 1997-2019 Free Software Foundation, Inc.
   4:/usr/include/newlib/c++/9.2.1/bits/basic_string.h **** //
   5:/usr/include/newlib/c++/9.2.1/bits/basic_string.h **** // This file is part of the GNU ISO C++ Library.  This library is free
   6:/usr/include/newlib/c++/9.2.1/bits/basic_string.h **** // software; you can redistribute it and/or modify it under the
   7:/usr/include/newlib/c++/9.2.1/bits/basic_string.h **** // terms of the GNU General Public License as published by the
   8:/usr/include/newlib/c++/9.2.1/bits/basic_string.h **** // Free Software Foundation; either version 3, or (at your option)
   9:/usr/include/newlib/c++/9.2.1/bits/basic_string.h **** // any later version.
  10:/usr/include/newlib/c++/9.2.1/bits/basic_string.h **** 
  11:/usr/include/newlib/c++/9.2.1/bits/basic_string.h **** // This library is distributed in the hope that it will be useful,
  12:/usr/include/newlib/c++/9.2.1/bits/basic_string.h **** // but WITHOUT ANY WARRANTY; without even the implied warranty of
  13:/usr/include/newlib/c++/9.2.1/bits/basic_string.h **** // MERCHANTABILITY or FITNESS FOR A PARTICULAR PURPOSE.  See the
  14:/usr/include/newlib/c++/9.2.1/bits/basic_string.h **** // GNU General Public License for more details.
  15:/usr/include/newlib/c++/9.2.1/bits/basic_string.h **** 
  16:/usr/include/newlib/c++/9.2.1/bits/basic_string.h **** // Under Section 7 of GPL version 3, you are granted additional
  17:/usr/include/newlib/c++/9.2.1/bits/basic_string.h **** // permissions described in the GCC Runtime Library Exception, version
  18:/usr/include/newlib/c++/9.2.1/bits/basic_string.h **** // 3.1, as published by the Free Software Foundation.
  19:/usr/include/newlib/c++/9.2.1/bits/basic_string.h **** 
ARM GAS  /tmp/ccoLrWzv.s 			page 183


  20:/usr/include/newlib/c++/9.2.1/bits/basic_string.h **** // You should have received a copy of the GNU General Public License and
  21:/usr/include/newlib/c++/9.2.1/bits/basic_string.h **** // a copy of the GCC Runtime Library Exception along with this program;
  22:/usr/include/newlib/c++/9.2.1/bits/basic_string.h **** // see the files COPYING3 and COPYING.RUNTIME respectively.  If not, see
  23:/usr/include/newlib/c++/9.2.1/bits/basic_string.h **** // <http://www.gnu.org/licenses/>.
  24:/usr/include/newlib/c++/9.2.1/bits/basic_string.h **** 
  25:/usr/include/newlib/c++/9.2.1/bits/basic_string.h **** /** @file bits/basic_string.h
  26:/usr/include/newlib/c++/9.2.1/bits/basic_string.h ****  *  This is an internal header file, included by other library headers.
  27:/usr/include/newlib/c++/9.2.1/bits/basic_string.h ****  *  Do not attempt to use it directly. @headername{string}
  28:/usr/include/newlib/c++/9.2.1/bits/basic_string.h ****  */
  29:/usr/include/newlib/c++/9.2.1/bits/basic_string.h **** 
  30:/usr/include/newlib/c++/9.2.1/bits/basic_string.h **** //
  31:/usr/include/newlib/c++/9.2.1/bits/basic_string.h **** // ISO C++ 14882: 21 Strings library
  32:/usr/include/newlib/c++/9.2.1/bits/basic_string.h **** //
  33:/usr/include/newlib/c++/9.2.1/bits/basic_string.h **** 
  34:/usr/include/newlib/c++/9.2.1/bits/basic_string.h **** #ifndef _BASIC_STRING_H
  35:/usr/include/newlib/c++/9.2.1/bits/basic_string.h **** #define _BASIC_STRING_H 1
  36:/usr/include/newlib/c++/9.2.1/bits/basic_string.h **** 
  37:/usr/include/newlib/c++/9.2.1/bits/basic_string.h **** #pragma GCC system_header
  38:/usr/include/newlib/c++/9.2.1/bits/basic_string.h **** 
  39:/usr/include/newlib/c++/9.2.1/bits/basic_string.h **** #include <ext/atomicity.h>
  40:/usr/include/newlib/c++/9.2.1/bits/basic_string.h **** #include <ext/alloc_traits.h>
  41:/usr/include/newlib/c++/9.2.1/bits/basic_string.h **** #include <debug/debug.h>
  42:/usr/include/newlib/c++/9.2.1/bits/basic_string.h **** 
  43:/usr/include/newlib/c++/9.2.1/bits/basic_string.h **** #if __cplusplus >= 201103L
  44:/usr/include/newlib/c++/9.2.1/bits/basic_string.h **** #include <initializer_list>
  45:/usr/include/newlib/c++/9.2.1/bits/basic_string.h **** #endif
  46:/usr/include/newlib/c++/9.2.1/bits/basic_string.h **** 
  47:/usr/include/newlib/c++/9.2.1/bits/basic_string.h **** #if __cplusplus >= 201703L
  48:/usr/include/newlib/c++/9.2.1/bits/basic_string.h **** # include <string_view>
  49:/usr/include/newlib/c++/9.2.1/bits/basic_string.h **** #endif
  50:/usr/include/newlib/c++/9.2.1/bits/basic_string.h **** 
  51:/usr/include/newlib/c++/9.2.1/bits/basic_string.h **** 
  52:/usr/include/newlib/c++/9.2.1/bits/basic_string.h **** namespace std _GLIBCXX_VISIBILITY(default)
  53:/usr/include/newlib/c++/9.2.1/bits/basic_string.h **** {
  54:/usr/include/newlib/c++/9.2.1/bits/basic_string.h **** _GLIBCXX_BEGIN_NAMESPACE_VERSION
  55:/usr/include/newlib/c++/9.2.1/bits/basic_string.h **** 
  56:/usr/include/newlib/c++/9.2.1/bits/basic_string.h **** #if _GLIBCXX_USE_CXX11_ABI
  57:/usr/include/newlib/c++/9.2.1/bits/basic_string.h **** _GLIBCXX_BEGIN_NAMESPACE_CXX11
  58:/usr/include/newlib/c++/9.2.1/bits/basic_string.h ****   /**
  59:/usr/include/newlib/c++/9.2.1/bits/basic_string.h ****    *  @class basic_string basic_string.h <string>
  60:/usr/include/newlib/c++/9.2.1/bits/basic_string.h ****    *  @brief  Managing sequences of characters and character-like objects.
  61:/usr/include/newlib/c++/9.2.1/bits/basic_string.h ****    *
  62:/usr/include/newlib/c++/9.2.1/bits/basic_string.h ****    *  @ingroup strings
  63:/usr/include/newlib/c++/9.2.1/bits/basic_string.h ****    *  @ingroup sequences
  64:/usr/include/newlib/c++/9.2.1/bits/basic_string.h ****    *
  65:/usr/include/newlib/c++/9.2.1/bits/basic_string.h ****    *  @tparam _CharT  Type of character
  66:/usr/include/newlib/c++/9.2.1/bits/basic_string.h ****    *  @tparam _Traits  Traits for character type, defaults to
  67:/usr/include/newlib/c++/9.2.1/bits/basic_string.h ****    *                   char_traits<_CharT>.
  68:/usr/include/newlib/c++/9.2.1/bits/basic_string.h ****    *  @tparam _Alloc  Allocator type, defaults to allocator<_CharT>.
  69:/usr/include/newlib/c++/9.2.1/bits/basic_string.h ****    *
  70:/usr/include/newlib/c++/9.2.1/bits/basic_string.h ****    *  Meets the requirements of a <a href="tables.html#65">container</a>, a
  71:/usr/include/newlib/c++/9.2.1/bits/basic_string.h ****    *  <a href="tables.html#66">reversible container</a>, and a
  72:/usr/include/newlib/c++/9.2.1/bits/basic_string.h ****    *  <a href="tables.html#67">sequence</a>.  Of the
  73:/usr/include/newlib/c++/9.2.1/bits/basic_string.h ****    *  <a href="tables.html#68">optional sequence requirements</a>, only
  74:/usr/include/newlib/c++/9.2.1/bits/basic_string.h ****    *  @c push_back, @c at, and @c %array access are supported.
  75:/usr/include/newlib/c++/9.2.1/bits/basic_string.h ****    */
  76:/usr/include/newlib/c++/9.2.1/bits/basic_string.h ****   template<typename _CharT, typename _Traits, typename _Alloc>
ARM GAS  /tmp/ccoLrWzv.s 			page 184


  77:/usr/include/newlib/c++/9.2.1/bits/basic_string.h ****     class basic_string
  78:/usr/include/newlib/c++/9.2.1/bits/basic_string.h ****     {
  79:/usr/include/newlib/c++/9.2.1/bits/basic_string.h ****       typedef typename __gnu_cxx::__alloc_traits<_Alloc>::template
  80:/usr/include/newlib/c++/9.2.1/bits/basic_string.h **** 	rebind<_CharT>::other _Char_alloc_type;
  81:/usr/include/newlib/c++/9.2.1/bits/basic_string.h ****       typedef __gnu_cxx::__alloc_traits<_Char_alloc_type> _Alloc_traits;
  82:/usr/include/newlib/c++/9.2.1/bits/basic_string.h **** 
  83:/usr/include/newlib/c++/9.2.1/bits/basic_string.h ****       // Types:
  84:/usr/include/newlib/c++/9.2.1/bits/basic_string.h ****     public:
  85:/usr/include/newlib/c++/9.2.1/bits/basic_string.h ****       typedef _Traits					traits_type;
  86:/usr/include/newlib/c++/9.2.1/bits/basic_string.h ****       typedef typename _Traits::char_type		value_type;
  87:/usr/include/newlib/c++/9.2.1/bits/basic_string.h ****       typedef _Char_alloc_type				allocator_type;
  88:/usr/include/newlib/c++/9.2.1/bits/basic_string.h ****       typedef typename _Alloc_traits::size_type		size_type;
  89:/usr/include/newlib/c++/9.2.1/bits/basic_string.h ****       typedef typename _Alloc_traits::difference_type	difference_type;
  90:/usr/include/newlib/c++/9.2.1/bits/basic_string.h ****       typedef typename _Alloc_traits::reference		reference;
  91:/usr/include/newlib/c++/9.2.1/bits/basic_string.h ****       typedef typename _Alloc_traits::const_reference	const_reference;
  92:/usr/include/newlib/c++/9.2.1/bits/basic_string.h ****       typedef typename _Alloc_traits::pointer		pointer;
  93:/usr/include/newlib/c++/9.2.1/bits/basic_string.h ****       typedef typename _Alloc_traits::const_pointer	const_pointer;
  94:/usr/include/newlib/c++/9.2.1/bits/basic_string.h ****       typedef __gnu_cxx::__normal_iterator<pointer, basic_string>  iterator;
  95:/usr/include/newlib/c++/9.2.1/bits/basic_string.h ****       typedef __gnu_cxx::__normal_iterator<const_pointer, basic_string>
  96:/usr/include/newlib/c++/9.2.1/bits/basic_string.h **** 							const_iterator;
  97:/usr/include/newlib/c++/9.2.1/bits/basic_string.h ****       typedef std::reverse_iterator<const_iterator>	const_reverse_iterator;
  98:/usr/include/newlib/c++/9.2.1/bits/basic_string.h ****       typedef std::reverse_iterator<iterator>		reverse_iterator;
  99:/usr/include/newlib/c++/9.2.1/bits/basic_string.h **** 
 100:/usr/include/newlib/c++/9.2.1/bits/basic_string.h ****       ///  Value returned by various member functions when they fail.
 101:/usr/include/newlib/c++/9.2.1/bits/basic_string.h ****       static const size_type	npos = static_cast<size_type>(-1);
 102:/usr/include/newlib/c++/9.2.1/bits/basic_string.h **** 
 103:/usr/include/newlib/c++/9.2.1/bits/basic_string.h ****     protected:
 104:/usr/include/newlib/c++/9.2.1/bits/basic_string.h ****       // type used for positions in insert, erase etc.
 105:/usr/include/newlib/c++/9.2.1/bits/basic_string.h **** #if __cplusplus < 201103L
 106:/usr/include/newlib/c++/9.2.1/bits/basic_string.h ****       typedef iterator __const_iterator;
 107:/usr/include/newlib/c++/9.2.1/bits/basic_string.h **** #else
 108:/usr/include/newlib/c++/9.2.1/bits/basic_string.h ****       typedef const_iterator __const_iterator;
 109:/usr/include/newlib/c++/9.2.1/bits/basic_string.h **** #endif
 110:/usr/include/newlib/c++/9.2.1/bits/basic_string.h **** 
 111:/usr/include/newlib/c++/9.2.1/bits/basic_string.h ****     private:
 112:/usr/include/newlib/c++/9.2.1/bits/basic_string.h **** #if __cplusplus >= 201703L
 113:/usr/include/newlib/c++/9.2.1/bits/basic_string.h ****       // A helper type for avoiding boiler-plate.
 114:/usr/include/newlib/c++/9.2.1/bits/basic_string.h ****       typedef basic_string_view<_CharT, _Traits> __sv_type;
 115:/usr/include/newlib/c++/9.2.1/bits/basic_string.h **** 
 116:/usr/include/newlib/c++/9.2.1/bits/basic_string.h ****       template<typename _Tp, typename _Res>
 117:/usr/include/newlib/c++/9.2.1/bits/basic_string.h **** 	using _If_sv = enable_if_t<
 118:/usr/include/newlib/c++/9.2.1/bits/basic_string.h **** 	  __and_<is_convertible<const _Tp&, __sv_type>,
 119:/usr/include/newlib/c++/9.2.1/bits/basic_string.h **** 		 __not_<is_convertible<const _Tp*, const basic_string*>>,
 120:/usr/include/newlib/c++/9.2.1/bits/basic_string.h **** 		 __not_<is_convertible<const _Tp&, const _CharT*>>>::value,
 121:/usr/include/newlib/c++/9.2.1/bits/basic_string.h **** 	  _Res>;
 122:/usr/include/newlib/c++/9.2.1/bits/basic_string.h **** 
 123:/usr/include/newlib/c++/9.2.1/bits/basic_string.h ****       // Allows an implicit conversion to __sv_type.
 124:/usr/include/newlib/c++/9.2.1/bits/basic_string.h ****       static __sv_type
 125:/usr/include/newlib/c++/9.2.1/bits/basic_string.h ****       _S_to_string_view(__sv_type __svt) noexcept
 126:/usr/include/newlib/c++/9.2.1/bits/basic_string.h ****       { return __svt; }
 127:/usr/include/newlib/c++/9.2.1/bits/basic_string.h **** 
 128:/usr/include/newlib/c++/9.2.1/bits/basic_string.h ****       // Wraps a string_view by explicit conversion and thus
 129:/usr/include/newlib/c++/9.2.1/bits/basic_string.h ****       // allows to add an internal constructor that does not
 130:/usr/include/newlib/c++/9.2.1/bits/basic_string.h ****       // participate in overload resolution when a string_view
 131:/usr/include/newlib/c++/9.2.1/bits/basic_string.h ****       // is provided.
 132:/usr/include/newlib/c++/9.2.1/bits/basic_string.h ****       struct __sv_wrapper
 133:/usr/include/newlib/c++/9.2.1/bits/basic_string.h ****       {
ARM GAS  /tmp/ccoLrWzv.s 			page 185


 134:/usr/include/newlib/c++/9.2.1/bits/basic_string.h **** 	explicit __sv_wrapper(__sv_type __sv) noexcept : _M_sv(__sv) { }
 135:/usr/include/newlib/c++/9.2.1/bits/basic_string.h **** 	__sv_type _M_sv;
 136:/usr/include/newlib/c++/9.2.1/bits/basic_string.h ****       };
 137:/usr/include/newlib/c++/9.2.1/bits/basic_string.h **** 
 138:/usr/include/newlib/c++/9.2.1/bits/basic_string.h ****       /**
 139:/usr/include/newlib/c++/9.2.1/bits/basic_string.h ****        *  @brief  Only internally used: Construct string from a string view
 140:/usr/include/newlib/c++/9.2.1/bits/basic_string.h ****        *          wrapper.
 141:/usr/include/newlib/c++/9.2.1/bits/basic_string.h ****        *  @param  __svw  string view wrapper.
 142:/usr/include/newlib/c++/9.2.1/bits/basic_string.h ****        *  @param  __a  Allocator to use.
 143:/usr/include/newlib/c++/9.2.1/bits/basic_string.h ****        */
 144:/usr/include/newlib/c++/9.2.1/bits/basic_string.h ****       explicit
 145:/usr/include/newlib/c++/9.2.1/bits/basic_string.h ****       basic_string(__sv_wrapper __svw, const _Alloc& __a)
 146:/usr/include/newlib/c++/9.2.1/bits/basic_string.h ****       : basic_string(__svw._M_sv.data(), __svw._M_sv.size(), __a) { }
 147:/usr/include/newlib/c++/9.2.1/bits/basic_string.h **** #endif
 148:/usr/include/newlib/c++/9.2.1/bits/basic_string.h **** 
 149:/usr/include/newlib/c++/9.2.1/bits/basic_string.h ****       // Use empty-base optimization: http://www.cantrip.org/emptyopt.html
 150:/usr/include/newlib/c++/9.2.1/bits/basic_string.h ****       struct _Alloc_hider : allocator_type // TODO check __is_final
 151:/usr/include/newlib/c++/9.2.1/bits/basic_string.h ****       {
 152:/usr/include/newlib/c++/9.2.1/bits/basic_string.h **** #if __cplusplus < 201103L
 153:/usr/include/newlib/c++/9.2.1/bits/basic_string.h **** 	_Alloc_hider(pointer __dat, const _Alloc& __a = _Alloc())
 154:/usr/include/newlib/c++/9.2.1/bits/basic_string.h **** 	: allocator_type(__a), _M_p(__dat) { }
 155:/usr/include/newlib/c++/9.2.1/bits/basic_string.h **** #else
 156:/usr/include/newlib/c++/9.2.1/bits/basic_string.h **** 	_Alloc_hider(pointer __dat, const _Alloc& __a)
 157:/usr/include/newlib/c++/9.2.1/bits/basic_string.h **** 	: allocator_type(__a), _M_p(__dat) { }
 158:/usr/include/newlib/c++/9.2.1/bits/basic_string.h **** 
 159:/usr/include/newlib/c++/9.2.1/bits/basic_string.h **** 	_Alloc_hider(pointer __dat, _Alloc&& __a = _Alloc())
 160:/usr/include/newlib/c++/9.2.1/bits/basic_string.h **** 	: allocator_type(std::move(__a)), _M_p(__dat) { }
 161:/usr/include/newlib/c++/9.2.1/bits/basic_string.h **** #endif
 162:/usr/include/newlib/c++/9.2.1/bits/basic_string.h **** 
 163:/usr/include/newlib/c++/9.2.1/bits/basic_string.h **** 	pointer _M_p; // The actual data.
 164:/usr/include/newlib/c++/9.2.1/bits/basic_string.h ****       };
 165:/usr/include/newlib/c++/9.2.1/bits/basic_string.h **** 
 166:/usr/include/newlib/c++/9.2.1/bits/basic_string.h ****       _Alloc_hider	_M_dataplus;
 167:/usr/include/newlib/c++/9.2.1/bits/basic_string.h ****       size_type		_M_string_length;
 168:/usr/include/newlib/c++/9.2.1/bits/basic_string.h **** 
 169:/usr/include/newlib/c++/9.2.1/bits/basic_string.h ****       enum { _S_local_capacity = 15 / sizeof(_CharT) };
 170:/usr/include/newlib/c++/9.2.1/bits/basic_string.h **** 
 171:/usr/include/newlib/c++/9.2.1/bits/basic_string.h ****       union
 172:/usr/include/newlib/c++/9.2.1/bits/basic_string.h ****       {
 173:/usr/include/newlib/c++/9.2.1/bits/basic_string.h **** 	_CharT           _M_local_buf[_S_local_capacity + 1];
 174:/usr/include/newlib/c++/9.2.1/bits/basic_string.h **** 	size_type        _M_allocated_capacity;
 175:/usr/include/newlib/c++/9.2.1/bits/basic_string.h ****       };
 176:/usr/include/newlib/c++/9.2.1/bits/basic_string.h **** 
 177:/usr/include/newlib/c++/9.2.1/bits/basic_string.h ****       void
 178:/usr/include/newlib/c++/9.2.1/bits/basic_string.h ****       _M_data(pointer __p)
 179:/usr/include/newlib/c++/9.2.1/bits/basic_string.h ****       { _M_dataplus._M_p = __p; }
 180:/usr/include/newlib/c++/9.2.1/bits/basic_string.h **** 
 181:/usr/include/newlib/c++/9.2.1/bits/basic_string.h ****       void
 182:/usr/include/newlib/c++/9.2.1/bits/basic_string.h ****       _M_length(size_type __length)
 183:/usr/include/newlib/c++/9.2.1/bits/basic_string.h ****       { _M_string_length = __length; }
 184:/usr/include/newlib/c++/9.2.1/bits/basic_string.h **** 
 185:/usr/include/newlib/c++/9.2.1/bits/basic_string.h ****       pointer
 186:/usr/include/newlib/c++/9.2.1/bits/basic_string.h ****       _M_data() const
 187:/usr/include/newlib/c++/9.2.1/bits/basic_string.h ****       { return _M_dataplus._M_p; }
 188:/usr/include/newlib/c++/9.2.1/bits/basic_string.h **** 
 189:/usr/include/newlib/c++/9.2.1/bits/basic_string.h ****       pointer
 190:/usr/include/newlib/c++/9.2.1/bits/basic_string.h ****       _M_local_data()
ARM GAS  /tmp/ccoLrWzv.s 			page 186


 191:/usr/include/newlib/c++/9.2.1/bits/basic_string.h ****       {
 192:/usr/include/newlib/c++/9.2.1/bits/basic_string.h **** #if __cplusplus >= 201103L
 193:/usr/include/newlib/c++/9.2.1/bits/basic_string.h **** 	return std::pointer_traits<pointer>::pointer_to(*_M_local_buf);
 194:/usr/include/newlib/c++/9.2.1/bits/basic_string.h **** #else
 195:/usr/include/newlib/c++/9.2.1/bits/basic_string.h **** 	return pointer(_M_local_buf);
 196:/usr/include/newlib/c++/9.2.1/bits/basic_string.h **** #endif
 197:/usr/include/newlib/c++/9.2.1/bits/basic_string.h ****       }
 198:/usr/include/newlib/c++/9.2.1/bits/basic_string.h **** 
 199:/usr/include/newlib/c++/9.2.1/bits/basic_string.h ****       const_pointer
 200:/usr/include/newlib/c++/9.2.1/bits/basic_string.h ****       _M_local_data() const
 201:/usr/include/newlib/c++/9.2.1/bits/basic_string.h ****       {
 202:/usr/include/newlib/c++/9.2.1/bits/basic_string.h **** #if __cplusplus >= 201103L
 203:/usr/include/newlib/c++/9.2.1/bits/basic_string.h **** 	return std::pointer_traits<const_pointer>::pointer_to(*_M_local_buf);
 204:/usr/include/newlib/c++/9.2.1/bits/basic_string.h **** #else
 205:/usr/include/newlib/c++/9.2.1/bits/basic_string.h **** 	return const_pointer(_M_local_buf);
 206:/usr/include/newlib/c++/9.2.1/bits/basic_string.h **** #endif
 207:/usr/include/newlib/c++/9.2.1/bits/basic_string.h ****       }
 208:/usr/include/newlib/c++/9.2.1/bits/basic_string.h **** 
 209:/usr/include/newlib/c++/9.2.1/bits/basic_string.h ****       void
 210:/usr/include/newlib/c++/9.2.1/bits/basic_string.h ****       _M_capacity(size_type __capacity)
 211:/usr/include/newlib/c++/9.2.1/bits/basic_string.h ****       { _M_allocated_capacity = __capacity; }
 212:/usr/include/newlib/c++/9.2.1/bits/basic_string.h **** 
 213:/usr/include/newlib/c++/9.2.1/bits/basic_string.h ****       void
 214:/usr/include/newlib/c++/9.2.1/bits/basic_string.h ****       _M_set_length(size_type __n)
 215:/usr/include/newlib/c++/9.2.1/bits/basic_string.h ****       {
 216:/usr/include/newlib/c++/9.2.1/bits/basic_string.h **** 	_M_length(__n);
 217:/usr/include/newlib/c++/9.2.1/bits/basic_string.h **** 	traits_type::assign(_M_data()[__n], _CharT());
 218:/usr/include/newlib/c++/9.2.1/bits/basic_string.h ****       }
 219:/usr/include/newlib/c++/9.2.1/bits/basic_string.h **** 
 220:/usr/include/newlib/c++/9.2.1/bits/basic_string.h ****       bool
 221:/usr/include/newlib/c++/9.2.1/bits/basic_string.h ****       _M_is_local() const
 222:/usr/include/newlib/c++/9.2.1/bits/basic_string.h ****       { return _M_data() == _M_local_data(); }
 223:/usr/include/newlib/c++/9.2.1/bits/basic_string.h **** 
 224:/usr/include/newlib/c++/9.2.1/bits/basic_string.h ****       // Create & Destroy
 225:/usr/include/newlib/c++/9.2.1/bits/basic_string.h ****       pointer
 226:/usr/include/newlib/c++/9.2.1/bits/basic_string.h ****       _M_create(size_type&, size_type);
 227:/usr/include/newlib/c++/9.2.1/bits/basic_string.h **** 
 228:/usr/include/newlib/c++/9.2.1/bits/basic_string.h ****       void
 229:/usr/include/newlib/c++/9.2.1/bits/basic_string.h ****       _M_dispose()
 230:/usr/include/newlib/c++/9.2.1/bits/basic_string.h ****       {
 231:/usr/include/newlib/c++/9.2.1/bits/basic_string.h **** 	if (!_M_is_local())
 232:/usr/include/newlib/c++/9.2.1/bits/basic_string.h **** 	  _M_destroy(_M_allocated_capacity);
 233:/usr/include/newlib/c++/9.2.1/bits/basic_string.h ****       }
 234:/usr/include/newlib/c++/9.2.1/bits/basic_string.h **** 
 235:/usr/include/newlib/c++/9.2.1/bits/basic_string.h ****       void
 236:/usr/include/newlib/c++/9.2.1/bits/basic_string.h ****       _M_destroy(size_type __size) throw()
 237:/usr/include/newlib/c++/9.2.1/bits/basic_string.h ****       { _Alloc_traits::deallocate(_M_get_allocator(), _M_data(), __size + 1); }
 238:/usr/include/newlib/c++/9.2.1/bits/basic_string.h **** 
 239:/usr/include/newlib/c++/9.2.1/bits/basic_string.h ****       // _M_construct_aux is used to implement the 21.3.1 para 15 which
 240:/usr/include/newlib/c++/9.2.1/bits/basic_string.h ****       // requires special behaviour if _InIterator is an integral type
 241:/usr/include/newlib/c++/9.2.1/bits/basic_string.h ****       template<typename _InIterator>
 242:/usr/include/newlib/c++/9.2.1/bits/basic_string.h ****         void
 243:/usr/include/newlib/c++/9.2.1/bits/basic_string.h ****         _M_construct_aux(_InIterator __beg, _InIterator __end,
 244:/usr/include/newlib/c++/9.2.1/bits/basic_string.h **** 			 std::__false_type)
 245:/usr/include/newlib/c++/9.2.1/bits/basic_string.h **** 	{
 246:/usr/include/newlib/c++/9.2.1/bits/basic_string.h ****           typedef typename iterator_traits<_InIterator>::iterator_category _Tag;
 247:/usr/include/newlib/c++/9.2.1/bits/basic_string.h ****           _M_construct(__beg, __end, _Tag());
ARM GAS  /tmp/ccoLrWzv.s 			page 187


 248:/usr/include/newlib/c++/9.2.1/bits/basic_string.h **** 	}
 249:/usr/include/newlib/c++/9.2.1/bits/basic_string.h **** 
 250:/usr/include/newlib/c++/9.2.1/bits/basic_string.h ****       // _GLIBCXX_RESOLVE_LIB_DEFECTS
 251:/usr/include/newlib/c++/9.2.1/bits/basic_string.h ****       // 438. Ambiguity in the "do the right thing" clause
 252:/usr/include/newlib/c++/9.2.1/bits/basic_string.h ****       template<typename _Integer>
 253:/usr/include/newlib/c++/9.2.1/bits/basic_string.h ****         void
 254:/usr/include/newlib/c++/9.2.1/bits/basic_string.h ****         _M_construct_aux(_Integer __beg, _Integer __end, std::__true_type)
 255:/usr/include/newlib/c++/9.2.1/bits/basic_string.h **** 	{ _M_construct_aux_2(static_cast<size_type>(__beg), __end); }
 256:/usr/include/newlib/c++/9.2.1/bits/basic_string.h **** 
 257:/usr/include/newlib/c++/9.2.1/bits/basic_string.h ****       void
 258:/usr/include/newlib/c++/9.2.1/bits/basic_string.h ****       _M_construct_aux_2(size_type __req, _CharT __c)
 259:/usr/include/newlib/c++/9.2.1/bits/basic_string.h ****       { _M_construct(__req, __c); }
 260:/usr/include/newlib/c++/9.2.1/bits/basic_string.h **** 
 261:/usr/include/newlib/c++/9.2.1/bits/basic_string.h ****       template<typename _InIterator>
 262:/usr/include/newlib/c++/9.2.1/bits/basic_string.h ****         void
 263:/usr/include/newlib/c++/9.2.1/bits/basic_string.h ****         _M_construct(_InIterator __beg, _InIterator __end)
 264:/usr/include/newlib/c++/9.2.1/bits/basic_string.h **** 	{
 265:/usr/include/newlib/c++/9.2.1/bits/basic_string.h **** 	  typedef typename std::__is_integer<_InIterator>::__type _Integral;
 266:/usr/include/newlib/c++/9.2.1/bits/basic_string.h **** 	  _M_construct_aux(__beg, __end, _Integral());
 267:/usr/include/newlib/c++/9.2.1/bits/basic_string.h ****         }
 268:/usr/include/newlib/c++/9.2.1/bits/basic_string.h **** 
 269:/usr/include/newlib/c++/9.2.1/bits/basic_string.h ****       // For Input Iterators, used in istreambuf_iterators, etc.
 270:/usr/include/newlib/c++/9.2.1/bits/basic_string.h ****       template<typename _InIterator>
 271:/usr/include/newlib/c++/9.2.1/bits/basic_string.h ****         void
 272:/usr/include/newlib/c++/9.2.1/bits/basic_string.h ****         _M_construct(_InIterator __beg, _InIterator __end,
 273:/usr/include/newlib/c++/9.2.1/bits/basic_string.h **** 		     std::input_iterator_tag);
 274:/usr/include/newlib/c++/9.2.1/bits/basic_string.h **** 
 275:/usr/include/newlib/c++/9.2.1/bits/basic_string.h ****       // For forward_iterators up to random_access_iterators, used for
 276:/usr/include/newlib/c++/9.2.1/bits/basic_string.h ****       // string::iterator, _CharT*, etc.
 277:/usr/include/newlib/c++/9.2.1/bits/basic_string.h ****       template<typename _FwdIterator>
 278:/usr/include/newlib/c++/9.2.1/bits/basic_string.h ****         void
 279:/usr/include/newlib/c++/9.2.1/bits/basic_string.h ****         _M_construct(_FwdIterator __beg, _FwdIterator __end,
 280:/usr/include/newlib/c++/9.2.1/bits/basic_string.h **** 		     std::forward_iterator_tag);
 281:/usr/include/newlib/c++/9.2.1/bits/basic_string.h **** 
 282:/usr/include/newlib/c++/9.2.1/bits/basic_string.h ****       void
 283:/usr/include/newlib/c++/9.2.1/bits/basic_string.h ****       _M_construct(size_type __req, _CharT __c);
 284:/usr/include/newlib/c++/9.2.1/bits/basic_string.h **** 
 285:/usr/include/newlib/c++/9.2.1/bits/basic_string.h ****       allocator_type&
 286:/usr/include/newlib/c++/9.2.1/bits/basic_string.h ****       _M_get_allocator()
 287:/usr/include/newlib/c++/9.2.1/bits/basic_string.h ****       { return _M_dataplus; }
 288:/usr/include/newlib/c++/9.2.1/bits/basic_string.h **** 
 289:/usr/include/newlib/c++/9.2.1/bits/basic_string.h ****       const allocator_type&
 290:/usr/include/newlib/c++/9.2.1/bits/basic_string.h ****       _M_get_allocator() const
 291:/usr/include/newlib/c++/9.2.1/bits/basic_string.h ****       { return _M_dataplus; }
 292:/usr/include/newlib/c++/9.2.1/bits/basic_string.h **** 
 293:/usr/include/newlib/c++/9.2.1/bits/basic_string.h ****     private:
 294:/usr/include/newlib/c++/9.2.1/bits/basic_string.h **** 
 295:/usr/include/newlib/c++/9.2.1/bits/basic_string.h **** #ifdef _GLIBCXX_DISAMBIGUATE_REPLACE_INST
 296:/usr/include/newlib/c++/9.2.1/bits/basic_string.h ****       // The explicit instantiations in misc-inst.cc require this due to
 297:/usr/include/newlib/c++/9.2.1/bits/basic_string.h ****       // https://gcc.gnu.org/bugzilla/show_bug.cgi?id=64063
 298:/usr/include/newlib/c++/9.2.1/bits/basic_string.h ****       template<typename _Tp, bool _Requires =
 299:/usr/include/newlib/c++/9.2.1/bits/basic_string.h **** 	       !__are_same<_Tp, _CharT*>::__value
 300:/usr/include/newlib/c++/9.2.1/bits/basic_string.h **** 	       && !__are_same<_Tp, const _CharT*>::__value
 301:/usr/include/newlib/c++/9.2.1/bits/basic_string.h **** 	       && !__are_same<_Tp, iterator>::__value
 302:/usr/include/newlib/c++/9.2.1/bits/basic_string.h **** 	       && !__are_same<_Tp, const_iterator>::__value>
 303:/usr/include/newlib/c++/9.2.1/bits/basic_string.h **** 	struct __enable_if_not_native_iterator
 304:/usr/include/newlib/c++/9.2.1/bits/basic_string.h **** 	{ typedef basic_string& __type; };
ARM GAS  /tmp/ccoLrWzv.s 			page 188


 305:/usr/include/newlib/c++/9.2.1/bits/basic_string.h ****       template<typename _Tp>
 306:/usr/include/newlib/c++/9.2.1/bits/basic_string.h **** 	struct __enable_if_not_native_iterator<_Tp, false> { };
 307:/usr/include/newlib/c++/9.2.1/bits/basic_string.h **** #endif
 308:/usr/include/newlib/c++/9.2.1/bits/basic_string.h **** 
 309:/usr/include/newlib/c++/9.2.1/bits/basic_string.h ****       size_type
 310:/usr/include/newlib/c++/9.2.1/bits/basic_string.h ****       _M_check(size_type __pos, const char* __s) const
 311:/usr/include/newlib/c++/9.2.1/bits/basic_string.h ****       {
 312:/usr/include/newlib/c++/9.2.1/bits/basic_string.h **** 	if (__pos > this->size())
 313:/usr/include/newlib/c++/9.2.1/bits/basic_string.h **** 	  __throw_out_of_range_fmt(__N("%s: __pos (which is %zu) > "
 314:/usr/include/newlib/c++/9.2.1/bits/basic_string.h **** 				       "this->size() (which is %zu)"),
 315:/usr/include/newlib/c++/9.2.1/bits/basic_string.h **** 				   __s, __pos, this->size());
 316:/usr/include/newlib/c++/9.2.1/bits/basic_string.h **** 	return __pos;
 317:/usr/include/newlib/c++/9.2.1/bits/basic_string.h ****       }
 318:/usr/include/newlib/c++/9.2.1/bits/basic_string.h **** 
 319:/usr/include/newlib/c++/9.2.1/bits/basic_string.h ****       void
 320:/usr/include/newlib/c++/9.2.1/bits/basic_string.h ****       _M_check_length(size_type __n1, size_type __n2, const char* __s) const
 321:/usr/include/newlib/c++/9.2.1/bits/basic_string.h ****       {
 322:/usr/include/newlib/c++/9.2.1/bits/basic_string.h **** 	if (this->max_size() - (this->size() - __n1) < __n2)
 323:/usr/include/newlib/c++/9.2.1/bits/basic_string.h **** 	  __throw_length_error(__N(__s));
 324:/usr/include/newlib/c++/9.2.1/bits/basic_string.h ****       }
 325:/usr/include/newlib/c++/9.2.1/bits/basic_string.h **** 
 326:/usr/include/newlib/c++/9.2.1/bits/basic_string.h **** 
 327:/usr/include/newlib/c++/9.2.1/bits/basic_string.h ****       // NB: _M_limit doesn't check for a bad __pos value.
 328:/usr/include/newlib/c++/9.2.1/bits/basic_string.h ****       size_type
 329:/usr/include/newlib/c++/9.2.1/bits/basic_string.h ****       _M_limit(size_type __pos, size_type __off) const _GLIBCXX_NOEXCEPT
 330:/usr/include/newlib/c++/9.2.1/bits/basic_string.h ****       {
 331:/usr/include/newlib/c++/9.2.1/bits/basic_string.h **** 	const bool __testoff =  __off < this->size() - __pos;
 332:/usr/include/newlib/c++/9.2.1/bits/basic_string.h **** 	return __testoff ? __off : this->size() - __pos;
 333:/usr/include/newlib/c++/9.2.1/bits/basic_string.h ****       }
 334:/usr/include/newlib/c++/9.2.1/bits/basic_string.h **** 
 335:/usr/include/newlib/c++/9.2.1/bits/basic_string.h ****       // True if _Rep and source do not overlap.
 336:/usr/include/newlib/c++/9.2.1/bits/basic_string.h ****       bool
 337:/usr/include/newlib/c++/9.2.1/bits/basic_string.h ****       _M_disjunct(const _CharT* __s) const _GLIBCXX_NOEXCEPT
 338:/usr/include/newlib/c++/9.2.1/bits/basic_string.h ****       {
 339:/usr/include/newlib/c++/9.2.1/bits/basic_string.h **** 	return (less<const _CharT*>()(__s, _M_data())
 340:/usr/include/newlib/c++/9.2.1/bits/basic_string.h **** 		|| less<const _CharT*>()(_M_data() + this->size(), __s));
 341:/usr/include/newlib/c++/9.2.1/bits/basic_string.h ****       }
 342:/usr/include/newlib/c++/9.2.1/bits/basic_string.h **** 
 343:/usr/include/newlib/c++/9.2.1/bits/basic_string.h ****       // When __n = 1 way faster than the general multichar
 344:/usr/include/newlib/c++/9.2.1/bits/basic_string.h ****       // traits_type::copy/move/assign.
 345:/usr/include/newlib/c++/9.2.1/bits/basic_string.h ****       static void
 346:/usr/include/newlib/c++/9.2.1/bits/basic_string.h ****       _S_copy(_CharT* __d, const _CharT* __s, size_type __n)
 347:/usr/include/newlib/c++/9.2.1/bits/basic_string.h ****       {
 348:/usr/include/newlib/c++/9.2.1/bits/basic_string.h **** 	if (__n == 1)
 349:/usr/include/newlib/c++/9.2.1/bits/basic_string.h **** 	  traits_type::assign(*__d, *__s);
 350:/usr/include/newlib/c++/9.2.1/bits/basic_string.h **** 	else
 351:/usr/include/newlib/c++/9.2.1/bits/basic_string.h **** 	  traits_type::copy(__d, __s, __n);
 352:/usr/include/newlib/c++/9.2.1/bits/basic_string.h ****       }
 353:/usr/include/newlib/c++/9.2.1/bits/basic_string.h **** 
 354:/usr/include/newlib/c++/9.2.1/bits/basic_string.h ****       static void
 355:/usr/include/newlib/c++/9.2.1/bits/basic_string.h ****       _S_move(_CharT* __d, const _CharT* __s, size_type __n)
 356:/usr/include/newlib/c++/9.2.1/bits/basic_string.h ****       {
 357:/usr/include/newlib/c++/9.2.1/bits/basic_string.h **** 	if (__n == 1)
 358:/usr/include/newlib/c++/9.2.1/bits/basic_string.h **** 	  traits_type::assign(*__d, *__s);
 359:/usr/include/newlib/c++/9.2.1/bits/basic_string.h **** 	else
 360:/usr/include/newlib/c++/9.2.1/bits/basic_string.h **** 	  traits_type::move(__d, __s, __n);
 361:/usr/include/newlib/c++/9.2.1/bits/basic_string.h ****       }
ARM GAS  /tmp/ccoLrWzv.s 			page 189


 362:/usr/include/newlib/c++/9.2.1/bits/basic_string.h **** 
 363:/usr/include/newlib/c++/9.2.1/bits/basic_string.h ****       static void
 364:/usr/include/newlib/c++/9.2.1/bits/basic_string.h ****       _S_assign(_CharT* __d, size_type __n, _CharT __c)
 365:/usr/include/newlib/c++/9.2.1/bits/basic_string.h ****       {
 366:/usr/include/newlib/c++/9.2.1/bits/basic_string.h **** 	if (__n == 1)
 367:/usr/include/newlib/c++/9.2.1/bits/basic_string.h **** 	  traits_type::assign(*__d, __c);
 368:/usr/include/newlib/c++/9.2.1/bits/basic_string.h **** 	else
 369:/usr/include/newlib/c++/9.2.1/bits/basic_string.h **** 	  traits_type::assign(__d, __n, __c);
 370:/usr/include/newlib/c++/9.2.1/bits/basic_string.h ****       }
 371:/usr/include/newlib/c++/9.2.1/bits/basic_string.h **** 
 372:/usr/include/newlib/c++/9.2.1/bits/basic_string.h ****       // _S_copy_chars is a separate template to permit specialization
 373:/usr/include/newlib/c++/9.2.1/bits/basic_string.h ****       // to optimize for the common case of pointers as iterators.
 374:/usr/include/newlib/c++/9.2.1/bits/basic_string.h ****       template<class _Iterator>
 375:/usr/include/newlib/c++/9.2.1/bits/basic_string.h ****         static void
 376:/usr/include/newlib/c++/9.2.1/bits/basic_string.h ****         _S_copy_chars(_CharT* __p, _Iterator __k1, _Iterator __k2)
 377:/usr/include/newlib/c++/9.2.1/bits/basic_string.h ****         {
 378:/usr/include/newlib/c++/9.2.1/bits/basic_string.h **** 	  for (; __k1 != __k2; ++__k1, (void)++__p)
 379:/usr/include/newlib/c++/9.2.1/bits/basic_string.h **** 	    traits_type::assign(*__p, *__k1); // These types are off.
 380:/usr/include/newlib/c++/9.2.1/bits/basic_string.h **** 	}
 381:/usr/include/newlib/c++/9.2.1/bits/basic_string.h **** 
 382:/usr/include/newlib/c++/9.2.1/bits/basic_string.h ****       static void
 383:/usr/include/newlib/c++/9.2.1/bits/basic_string.h ****       _S_copy_chars(_CharT* __p, iterator __k1, iterator __k2) _GLIBCXX_NOEXCEPT
 384:/usr/include/newlib/c++/9.2.1/bits/basic_string.h ****       { _S_copy_chars(__p, __k1.base(), __k2.base()); }
 385:/usr/include/newlib/c++/9.2.1/bits/basic_string.h **** 
 386:/usr/include/newlib/c++/9.2.1/bits/basic_string.h ****       static void
 387:/usr/include/newlib/c++/9.2.1/bits/basic_string.h ****       _S_copy_chars(_CharT* __p, const_iterator __k1, const_iterator __k2)
 388:/usr/include/newlib/c++/9.2.1/bits/basic_string.h ****       _GLIBCXX_NOEXCEPT
 389:/usr/include/newlib/c++/9.2.1/bits/basic_string.h ****       { _S_copy_chars(__p, __k1.base(), __k2.base()); }
 390:/usr/include/newlib/c++/9.2.1/bits/basic_string.h **** 
 391:/usr/include/newlib/c++/9.2.1/bits/basic_string.h ****       static void
 392:/usr/include/newlib/c++/9.2.1/bits/basic_string.h ****       _S_copy_chars(_CharT* __p, _CharT* __k1, _CharT* __k2) _GLIBCXX_NOEXCEPT
 393:/usr/include/newlib/c++/9.2.1/bits/basic_string.h ****       { _S_copy(__p, __k1, __k2 - __k1); }
 394:/usr/include/newlib/c++/9.2.1/bits/basic_string.h **** 
 395:/usr/include/newlib/c++/9.2.1/bits/basic_string.h ****       static void
 396:/usr/include/newlib/c++/9.2.1/bits/basic_string.h ****       _S_copy_chars(_CharT* __p, const _CharT* __k1, const _CharT* __k2)
 397:/usr/include/newlib/c++/9.2.1/bits/basic_string.h ****       _GLIBCXX_NOEXCEPT
 398:/usr/include/newlib/c++/9.2.1/bits/basic_string.h ****       { _S_copy(__p, __k1, __k2 - __k1); }
 399:/usr/include/newlib/c++/9.2.1/bits/basic_string.h **** 
 400:/usr/include/newlib/c++/9.2.1/bits/basic_string.h ****       static int
 401:/usr/include/newlib/c++/9.2.1/bits/basic_string.h ****       _S_compare(size_type __n1, size_type __n2) _GLIBCXX_NOEXCEPT
 402:/usr/include/newlib/c++/9.2.1/bits/basic_string.h ****       {
 403:/usr/include/newlib/c++/9.2.1/bits/basic_string.h **** 	const difference_type __d = difference_type(__n1 - __n2);
 404:/usr/include/newlib/c++/9.2.1/bits/basic_string.h **** 
 405:/usr/include/newlib/c++/9.2.1/bits/basic_string.h **** 	if (__d > __gnu_cxx::__numeric_traits<int>::__max)
 406:/usr/include/newlib/c++/9.2.1/bits/basic_string.h **** 	  return __gnu_cxx::__numeric_traits<int>::__max;
 407:/usr/include/newlib/c++/9.2.1/bits/basic_string.h **** 	else if (__d < __gnu_cxx::__numeric_traits<int>::__min)
 408:/usr/include/newlib/c++/9.2.1/bits/basic_string.h **** 	  return __gnu_cxx::__numeric_traits<int>::__min;
 409:/usr/include/newlib/c++/9.2.1/bits/basic_string.h **** 	else
 410:/usr/include/newlib/c++/9.2.1/bits/basic_string.h **** 	  return int(__d);
 411:/usr/include/newlib/c++/9.2.1/bits/basic_string.h ****       }
 412:/usr/include/newlib/c++/9.2.1/bits/basic_string.h **** 
 413:/usr/include/newlib/c++/9.2.1/bits/basic_string.h ****       void
 414:/usr/include/newlib/c++/9.2.1/bits/basic_string.h ****       _M_assign(const basic_string&);
 415:/usr/include/newlib/c++/9.2.1/bits/basic_string.h **** 
 416:/usr/include/newlib/c++/9.2.1/bits/basic_string.h ****       void
 417:/usr/include/newlib/c++/9.2.1/bits/basic_string.h ****       _M_mutate(size_type __pos, size_type __len1, const _CharT* __s,
 418:/usr/include/newlib/c++/9.2.1/bits/basic_string.h **** 		size_type __len2);
ARM GAS  /tmp/ccoLrWzv.s 			page 190


 419:/usr/include/newlib/c++/9.2.1/bits/basic_string.h **** 
 420:/usr/include/newlib/c++/9.2.1/bits/basic_string.h ****       void
 421:/usr/include/newlib/c++/9.2.1/bits/basic_string.h ****       _M_erase(size_type __pos, size_type __n);
 422:/usr/include/newlib/c++/9.2.1/bits/basic_string.h **** 
 423:/usr/include/newlib/c++/9.2.1/bits/basic_string.h ****     public:
 424:/usr/include/newlib/c++/9.2.1/bits/basic_string.h ****       // Construct/copy/destroy:
 425:/usr/include/newlib/c++/9.2.1/bits/basic_string.h ****       // NB: We overload ctors in some cases instead of using default
 426:/usr/include/newlib/c++/9.2.1/bits/basic_string.h ****       // arguments, per 17.4.4.4 para. 2 item 2.
 427:/usr/include/newlib/c++/9.2.1/bits/basic_string.h **** 
 428:/usr/include/newlib/c++/9.2.1/bits/basic_string.h ****       /**
 429:/usr/include/newlib/c++/9.2.1/bits/basic_string.h ****        *  @brief  Default constructor creates an empty string.
 430:/usr/include/newlib/c++/9.2.1/bits/basic_string.h ****        */
 431:/usr/include/newlib/c++/9.2.1/bits/basic_string.h ****       basic_string()
 432:/usr/include/newlib/c++/9.2.1/bits/basic_string.h ****       _GLIBCXX_NOEXCEPT_IF(is_nothrow_default_constructible<_Alloc>::value)
 433:/usr/include/newlib/c++/9.2.1/bits/basic_string.h ****       : _M_dataplus(_M_local_data())
 434:/usr/include/newlib/c++/9.2.1/bits/basic_string.h ****       { _M_set_length(0); }
 435:/usr/include/newlib/c++/9.2.1/bits/basic_string.h **** 
 436:/usr/include/newlib/c++/9.2.1/bits/basic_string.h ****       /**
 437:/usr/include/newlib/c++/9.2.1/bits/basic_string.h ****        *  @brief  Construct an empty string using allocator @a a.
 438:/usr/include/newlib/c++/9.2.1/bits/basic_string.h ****        */
 439:/usr/include/newlib/c++/9.2.1/bits/basic_string.h ****       explicit
 440:/usr/include/newlib/c++/9.2.1/bits/basic_string.h ****       basic_string(const _Alloc& __a) _GLIBCXX_NOEXCEPT
 441:/usr/include/newlib/c++/9.2.1/bits/basic_string.h ****       : _M_dataplus(_M_local_data(), __a)
 442:/usr/include/newlib/c++/9.2.1/bits/basic_string.h ****       { _M_set_length(0); }
 443:/usr/include/newlib/c++/9.2.1/bits/basic_string.h **** 
 444:/usr/include/newlib/c++/9.2.1/bits/basic_string.h ****       /**
 445:/usr/include/newlib/c++/9.2.1/bits/basic_string.h ****        *  @brief  Construct string with copy of value of @a __str.
 446:/usr/include/newlib/c++/9.2.1/bits/basic_string.h ****        *  @param  __str  Source string.
 447:/usr/include/newlib/c++/9.2.1/bits/basic_string.h ****        */
 448:/usr/include/newlib/c++/9.2.1/bits/basic_string.h ****       basic_string(const basic_string& __str)
 449:/usr/include/newlib/c++/9.2.1/bits/basic_string.h ****       : _M_dataplus(_M_local_data(),
 450:/usr/include/newlib/c++/9.2.1/bits/basic_string.h **** 		    _Alloc_traits::_S_select_on_copy(__str._M_get_allocator()))
 451:/usr/include/newlib/c++/9.2.1/bits/basic_string.h ****       { _M_construct(__str._M_data(), __str._M_data() + __str.length()); }
 452:/usr/include/newlib/c++/9.2.1/bits/basic_string.h **** 
 453:/usr/include/newlib/c++/9.2.1/bits/basic_string.h ****       // _GLIBCXX_RESOLVE_LIB_DEFECTS
 454:/usr/include/newlib/c++/9.2.1/bits/basic_string.h ****       // 2583. no way to supply an allocator for basic_string(str, pos)
 455:/usr/include/newlib/c++/9.2.1/bits/basic_string.h ****       /**
 456:/usr/include/newlib/c++/9.2.1/bits/basic_string.h ****        *  @brief  Construct string as copy of a substring.
 457:/usr/include/newlib/c++/9.2.1/bits/basic_string.h ****        *  @param  __str  Source string.
 458:/usr/include/newlib/c++/9.2.1/bits/basic_string.h ****        *  @param  __pos  Index of first character to copy from.
 459:/usr/include/newlib/c++/9.2.1/bits/basic_string.h ****        *  @param  __a  Allocator to use.
 460:/usr/include/newlib/c++/9.2.1/bits/basic_string.h ****        */
 461:/usr/include/newlib/c++/9.2.1/bits/basic_string.h ****       basic_string(const basic_string& __str, size_type __pos,
 462:/usr/include/newlib/c++/9.2.1/bits/basic_string.h **** 		   const _Alloc& __a = _Alloc())
 463:/usr/include/newlib/c++/9.2.1/bits/basic_string.h ****       : _M_dataplus(_M_local_data(), __a)
 464:/usr/include/newlib/c++/9.2.1/bits/basic_string.h ****       {
 465:/usr/include/newlib/c++/9.2.1/bits/basic_string.h **** 	const _CharT* __start = __str._M_data()
 466:/usr/include/newlib/c++/9.2.1/bits/basic_string.h **** 	  + __str._M_check(__pos, "basic_string::basic_string");
 467:/usr/include/newlib/c++/9.2.1/bits/basic_string.h **** 	_M_construct(__start, __start + __str._M_limit(__pos, npos));
 468:/usr/include/newlib/c++/9.2.1/bits/basic_string.h ****       }
 469:/usr/include/newlib/c++/9.2.1/bits/basic_string.h **** 
 470:/usr/include/newlib/c++/9.2.1/bits/basic_string.h ****       /**
 471:/usr/include/newlib/c++/9.2.1/bits/basic_string.h ****        *  @brief  Construct string as copy of a substring.
 472:/usr/include/newlib/c++/9.2.1/bits/basic_string.h ****        *  @param  __str  Source string.
 473:/usr/include/newlib/c++/9.2.1/bits/basic_string.h ****        *  @param  __pos  Index of first character to copy from.
 474:/usr/include/newlib/c++/9.2.1/bits/basic_string.h ****        *  @param  __n  Number of characters to copy.
 475:/usr/include/newlib/c++/9.2.1/bits/basic_string.h ****        */
ARM GAS  /tmp/ccoLrWzv.s 			page 191


 476:/usr/include/newlib/c++/9.2.1/bits/basic_string.h ****       basic_string(const basic_string& __str, size_type __pos,
 477:/usr/include/newlib/c++/9.2.1/bits/basic_string.h **** 		   size_type __n)
 478:/usr/include/newlib/c++/9.2.1/bits/basic_string.h ****       : _M_dataplus(_M_local_data())
 479:/usr/include/newlib/c++/9.2.1/bits/basic_string.h ****       {
 480:/usr/include/newlib/c++/9.2.1/bits/basic_string.h **** 	const _CharT* __start = __str._M_data()
 481:/usr/include/newlib/c++/9.2.1/bits/basic_string.h **** 	  + __str._M_check(__pos, "basic_string::basic_string");
 482:/usr/include/newlib/c++/9.2.1/bits/basic_string.h **** 	_M_construct(__start, __start + __str._M_limit(__pos, __n));
 483:/usr/include/newlib/c++/9.2.1/bits/basic_string.h ****       }
 484:/usr/include/newlib/c++/9.2.1/bits/basic_string.h **** 
 485:/usr/include/newlib/c++/9.2.1/bits/basic_string.h ****       /**
 486:/usr/include/newlib/c++/9.2.1/bits/basic_string.h ****        *  @brief  Construct string as copy of a substring.
 487:/usr/include/newlib/c++/9.2.1/bits/basic_string.h ****        *  @param  __str  Source string.
 488:/usr/include/newlib/c++/9.2.1/bits/basic_string.h ****        *  @param  __pos  Index of first character to copy from.
 489:/usr/include/newlib/c++/9.2.1/bits/basic_string.h ****        *  @param  __n  Number of characters to copy.
 490:/usr/include/newlib/c++/9.2.1/bits/basic_string.h ****        *  @param  __a  Allocator to use.
 491:/usr/include/newlib/c++/9.2.1/bits/basic_string.h ****        */
 492:/usr/include/newlib/c++/9.2.1/bits/basic_string.h ****       basic_string(const basic_string& __str, size_type __pos,
 493:/usr/include/newlib/c++/9.2.1/bits/basic_string.h **** 		   size_type __n, const _Alloc& __a)
 494:/usr/include/newlib/c++/9.2.1/bits/basic_string.h ****       : _M_dataplus(_M_local_data(), __a)
 495:/usr/include/newlib/c++/9.2.1/bits/basic_string.h ****       {
 496:/usr/include/newlib/c++/9.2.1/bits/basic_string.h **** 	const _CharT* __start
 497:/usr/include/newlib/c++/9.2.1/bits/basic_string.h **** 	  = __str._M_data() + __str._M_check(__pos, "string::string");
 498:/usr/include/newlib/c++/9.2.1/bits/basic_string.h **** 	_M_construct(__start, __start + __str._M_limit(__pos, __n));
 499:/usr/include/newlib/c++/9.2.1/bits/basic_string.h ****       }
 500:/usr/include/newlib/c++/9.2.1/bits/basic_string.h **** 
 501:/usr/include/newlib/c++/9.2.1/bits/basic_string.h ****       /**
 502:/usr/include/newlib/c++/9.2.1/bits/basic_string.h ****        *  @brief  Construct string initialized by a character %array.
 503:/usr/include/newlib/c++/9.2.1/bits/basic_string.h ****        *  @param  __s  Source character %array.
 504:/usr/include/newlib/c++/9.2.1/bits/basic_string.h ****        *  @param  __n  Number of characters to copy.
 505:/usr/include/newlib/c++/9.2.1/bits/basic_string.h ****        *  @param  __a  Allocator to use (default is default allocator).
 506:/usr/include/newlib/c++/9.2.1/bits/basic_string.h ****        *
 507:/usr/include/newlib/c++/9.2.1/bits/basic_string.h ****        *  NB: @a __s must have at least @a __n characters, &apos;\\0&apos;
 508:/usr/include/newlib/c++/9.2.1/bits/basic_string.h ****        *  has no special meaning.
 509:/usr/include/newlib/c++/9.2.1/bits/basic_string.h ****        */
 510:/usr/include/newlib/c++/9.2.1/bits/basic_string.h ****       basic_string(const _CharT* __s, size_type __n,
 511:/usr/include/newlib/c++/9.2.1/bits/basic_string.h **** 		   const _Alloc& __a = _Alloc())
 512:/usr/include/newlib/c++/9.2.1/bits/basic_string.h ****       : _M_dataplus(_M_local_data(), __a)
 513:/usr/include/newlib/c++/9.2.1/bits/basic_string.h ****       { _M_construct(__s, __s + __n); }
 514:/usr/include/newlib/c++/9.2.1/bits/basic_string.h **** 
 515:/usr/include/newlib/c++/9.2.1/bits/basic_string.h ****       /**
 516:/usr/include/newlib/c++/9.2.1/bits/basic_string.h ****        *  @brief  Construct string as copy of a C string.
 517:/usr/include/newlib/c++/9.2.1/bits/basic_string.h ****        *  @param  __s  Source C string.
 518:/usr/include/newlib/c++/9.2.1/bits/basic_string.h ****        *  @param  __a  Allocator to use (default is default allocator).
 519:/usr/include/newlib/c++/9.2.1/bits/basic_string.h ****        */
 520:/usr/include/newlib/c++/9.2.1/bits/basic_string.h **** #if __cpp_deduction_guides && ! defined _GLIBCXX_DEFINING_STRING_INSTANTIATIONS
 521:/usr/include/newlib/c++/9.2.1/bits/basic_string.h ****       // _GLIBCXX_RESOLVE_LIB_DEFECTS
 522:/usr/include/newlib/c++/9.2.1/bits/basic_string.h ****       // 3076. basic_string CTAD ambiguity
 523:/usr/include/newlib/c++/9.2.1/bits/basic_string.h ****       template<typename = _RequireAllocator<_Alloc>>
 524:/usr/include/newlib/c++/9.2.1/bits/basic_string.h **** #endif
 525:/usr/include/newlib/c++/9.2.1/bits/basic_string.h ****       basic_string(const _CharT* __s, const _Alloc& __a = _Alloc())
 6330              		.loc 22 525 7 is_stmt 1 view .LVU1511
 6331              	.LBB1846:
 6332              	.LBB1847:
 6333              	.LBI1847:
 190:/usr/include/newlib/c++/9.2.1/bits/basic_string.h ****       {
 6334              		.loc 22 190 7 view .LVU1512
 190:/usr/include/newlib/c++/9.2.1/bits/basic_string.h ****       {
ARM GAS  /tmp/ccoLrWzv.s 			page 192


 6335              		.loc 22 190 7 is_stmt 0 view .LVU1513
 6336              	.LBE1847:
 6337              	.LBB1848:
 6338              	.LBI1848:
 156:/usr/include/newlib/c++/9.2.1/bits/basic_string.h **** 	: allocator_type(__a), _M_p(__dat) { }
 6339              		.loc 22 156 2 is_stmt 1 view .LVU1514
 6340              	.LBB1849:
 6341              	.LBB1850:
 6342              	.LBB1851:
 6343              	.LBI1851:
 139:/usr/include/newlib/c++/9.2.1/bits/allocator.h **** 
 140:/usr/include/newlib/c++/9.2.1/bits/allocator.h ****       _GLIBCXX20_CONSTEXPR
 141:/usr/include/newlib/c++/9.2.1/bits/allocator.h ****       allocator(const allocator& __a) _GLIBCXX_NOTHROW
 6344              		.loc 20 141 7 view .LVU1515
 6345              	.LBB1852:
 6346              	.LBI1852:
  81:/usr/include/newlib/c++/9.2.1/ext/new_allocator.h **** 
  82:/usr/include/newlib/c++/9.2.1/ext/new_allocator.h ****       _GLIBCXX20_CONSTEXPR
  83:/usr/include/newlib/c++/9.2.1/ext/new_allocator.h ****       new_allocator(const new_allocator&) _GLIBCXX_USE_NOEXCEPT { }
 6347              		.loc 21 83 7 view .LVU1516
 6348              		.loc 21 83 7 is_stmt 0 view .LVU1517
 6349              	.LBE1852:
 6350              	.LBE1851:
 157:/usr/include/newlib/c++/9.2.1/bits/basic_string.h **** 
 6351              		.loc 22 157 35 view .LVU1518
 6352 0078 24A9     		add	r1, sp, #144
 6353              	.LVL476:
 157:/usr/include/newlib/c++/9.2.1/bits/basic_string.h **** 
 6354              		.loc 22 157 35 view .LVU1519
 6355              	.LBE1850:
 6356              	.LBE1849:
 6357              	.LBE1848:
 6358              	.LBB1855:
 6359              	.LBB1856:
 6360              	.LBB1857:
 6361              	.LBB1858:
 6362              	.LBB1859:
 6363              	.LBB1860:
 6364              	.LBB1861:
 6365              	.LBB1862:
 6366              	.LBB1863:
 6367              	.LBB1864:
 6368              	.LBB1865:
 6369              		.file 23 "/usr/include/newlib/c++/9.2.1/bits/char_traits.h"
   1:/usr/include/newlib/c++/9.2.1/bits/char_traits.h **** // Character Traits for use by standard string and iostream -*- C++ -*-
   2:/usr/include/newlib/c++/9.2.1/bits/char_traits.h **** 
   3:/usr/include/newlib/c++/9.2.1/bits/char_traits.h **** // Copyright (C) 1997-2019 Free Software Foundation, Inc.
   4:/usr/include/newlib/c++/9.2.1/bits/char_traits.h **** //
   5:/usr/include/newlib/c++/9.2.1/bits/char_traits.h **** // This file is part of the GNU ISO C++ Library.  This library is free
   6:/usr/include/newlib/c++/9.2.1/bits/char_traits.h **** // software; you can redistribute it and/or modify it under the
   7:/usr/include/newlib/c++/9.2.1/bits/char_traits.h **** // terms of the GNU General Public License as published by the
   8:/usr/include/newlib/c++/9.2.1/bits/char_traits.h **** // Free Software Foundation; either version 3, or (at your option)
   9:/usr/include/newlib/c++/9.2.1/bits/char_traits.h **** // any later version.
  10:/usr/include/newlib/c++/9.2.1/bits/char_traits.h **** 
  11:/usr/include/newlib/c++/9.2.1/bits/char_traits.h **** // This library is distributed in the hope that it will be useful,
  12:/usr/include/newlib/c++/9.2.1/bits/char_traits.h **** // but WITHOUT ANY WARRANTY; without even the implied warranty of
  13:/usr/include/newlib/c++/9.2.1/bits/char_traits.h **** // MERCHANTABILITY or FITNESS FOR A PARTICULAR PURPOSE.  See the
ARM GAS  /tmp/ccoLrWzv.s 			page 193


  14:/usr/include/newlib/c++/9.2.1/bits/char_traits.h **** // GNU General Public License for more details.
  15:/usr/include/newlib/c++/9.2.1/bits/char_traits.h **** 
  16:/usr/include/newlib/c++/9.2.1/bits/char_traits.h **** // Under Section 7 of GPL version 3, you are granted additional
  17:/usr/include/newlib/c++/9.2.1/bits/char_traits.h **** // permissions described in the GCC Runtime Library Exception, version
  18:/usr/include/newlib/c++/9.2.1/bits/char_traits.h **** // 3.1, as published by the Free Software Foundation.
  19:/usr/include/newlib/c++/9.2.1/bits/char_traits.h **** 
  20:/usr/include/newlib/c++/9.2.1/bits/char_traits.h **** // You should have received a copy of the GNU General Public License and
  21:/usr/include/newlib/c++/9.2.1/bits/char_traits.h **** // a copy of the GCC Runtime Library Exception along with this program;
  22:/usr/include/newlib/c++/9.2.1/bits/char_traits.h **** // see the files COPYING3 and COPYING.RUNTIME respectively.  If not, see
  23:/usr/include/newlib/c++/9.2.1/bits/char_traits.h **** // <http://www.gnu.org/licenses/>.
  24:/usr/include/newlib/c++/9.2.1/bits/char_traits.h **** 
  25:/usr/include/newlib/c++/9.2.1/bits/char_traits.h **** /** @file bits/char_traits.h
  26:/usr/include/newlib/c++/9.2.1/bits/char_traits.h ****  *  This is an internal header file, included by other library headers.
  27:/usr/include/newlib/c++/9.2.1/bits/char_traits.h ****  *  Do not attempt to use it directly. @headername{string}
  28:/usr/include/newlib/c++/9.2.1/bits/char_traits.h ****  */
  29:/usr/include/newlib/c++/9.2.1/bits/char_traits.h **** 
  30:/usr/include/newlib/c++/9.2.1/bits/char_traits.h **** //
  31:/usr/include/newlib/c++/9.2.1/bits/char_traits.h **** // ISO C++ 14882: 21  Strings library
  32:/usr/include/newlib/c++/9.2.1/bits/char_traits.h **** //
  33:/usr/include/newlib/c++/9.2.1/bits/char_traits.h **** 
  34:/usr/include/newlib/c++/9.2.1/bits/char_traits.h **** #ifndef _CHAR_TRAITS_H
  35:/usr/include/newlib/c++/9.2.1/bits/char_traits.h **** #define _CHAR_TRAITS_H 1
  36:/usr/include/newlib/c++/9.2.1/bits/char_traits.h **** 
  37:/usr/include/newlib/c++/9.2.1/bits/char_traits.h **** #pragma GCC system_header
  38:/usr/include/newlib/c++/9.2.1/bits/char_traits.h **** 
  39:/usr/include/newlib/c++/9.2.1/bits/char_traits.h **** #include <bits/stl_algobase.h>  // std::copy, std::fill_n
  40:/usr/include/newlib/c++/9.2.1/bits/char_traits.h **** #include <bits/postypes.h>      // For streampos
  41:/usr/include/newlib/c++/9.2.1/bits/char_traits.h **** #include <cwchar>               // For WEOF, wmemmove, wmemset, etc.
  42:/usr/include/newlib/c++/9.2.1/bits/char_traits.h **** 
  43:/usr/include/newlib/c++/9.2.1/bits/char_traits.h **** #ifndef _GLIBCXX_ALWAYS_INLINE
  44:/usr/include/newlib/c++/9.2.1/bits/char_traits.h **** # define _GLIBCXX_ALWAYS_INLINE inline __attribute__((__always_inline__))
  45:/usr/include/newlib/c++/9.2.1/bits/char_traits.h **** #endif
  46:/usr/include/newlib/c++/9.2.1/bits/char_traits.h **** 
  47:/usr/include/newlib/c++/9.2.1/bits/char_traits.h **** namespace __gnu_cxx _GLIBCXX_VISIBILITY(default)
  48:/usr/include/newlib/c++/9.2.1/bits/char_traits.h **** {
  49:/usr/include/newlib/c++/9.2.1/bits/char_traits.h **** _GLIBCXX_BEGIN_NAMESPACE_VERSION
  50:/usr/include/newlib/c++/9.2.1/bits/char_traits.h **** 
  51:/usr/include/newlib/c++/9.2.1/bits/char_traits.h ****   /**
  52:/usr/include/newlib/c++/9.2.1/bits/char_traits.h ****    *  @brief  Mapping from character type to associated types.
  53:/usr/include/newlib/c++/9.2.1/bits/char_traits.h ****    *
  54:/usr/include/newlib/c++/9.2.1/bits/char_traits.h ****    *  @note This is an implementation class for the generic version
  55:/usr/include/newlib/c++/9.2.1/bits/char_traits.h ****    *  of char_traits.  It defines int_type, off_type, pos_type, and
  56:/usr/include/newlib/c++/9.2.1/bits/char_traits.h ****    *  state_type.  By default these are unsigned long, streamoff,
  57:/usr/include/newlib/c++/9.2.1/bits/char_traits.h ****    *  streampos, and mbstate_t.  Users who need a different set of
  58:/usr/include/newlib/c++/9.2.1/bits/char_traits.h ****    *  types, but who don't need to change the definitions of any function
  59:/usr/include/newlib/c++/9.2.1/bits/char_traits.h ****    *  defined in char_traits, can specialize __gnu_cxx::_Char_types
  60:/usr/include/newlib/c++/9.2.1/bits/char_traits.h ****    *  while leaving __gnu_cxx::char_traits alone. */
  61:/usr/include/newlib/c++/9.2.1/bits/char_traits.h ****   template<typename _CharT>
  62:/usr/include/newlib/c++/9.2.1/bits/char_traits.h ****     struct _Char_types
  63:/usr/include/newlib/c++/9.2.1/bits/char_traits.h ****     {
  64:/usr/include/newlib/c++/9.2.1/bits/char_traits.h ****       typedef unsigned long   int_type;
  65:/usr/include/newlib/c++/9.2.1/bits/char_traits.h ****       typedef std::streampos  pos_type;
  66:/usr/include/newlib/c++/9.2.1/bits/char_traits.h ****       typedef std::streamoff  off_type;
  67:/usr/include/newlib/c++/9.2.1/bits/char_traits.h ****       typedef std::mbstate_t  state_type;
  68:/usr/include/newlib/c++/9.2.1/bits/char_traits.h ****     };
  69:/usr/include/newlib/c++/9.2.1/bits/char_traits.h **** 
  70:/usr/include/newlib/c++/9.2.1/bits/char_traits.h **** 
ARM GAS  /tmp/ccoLrWzv.s 			page 194


  71:/usr/include/newlib/c++/9.2.1/bits/char_traits.h ****   /**
  72:/usr/include/newlib/c++/9.2.1/bits/char_traits.h ****    *  @brief  Base class used to implement std::char_traits.
  73:/usr/include/newlib/c++/9.2.1/bits/char_traits.h ****    *
  74:/usr/include/newlib/c++/9.2.1/bits/char_traits.h ****    *  @note For any given actual character type, this definition is
  75:/usr/include/newlib/c++/9.2.1/bits/char_traits.h ****    *  probably wrong.  (Most of the member functions are likely to be
  76:/usr/include/newlib/c++/9.2.1/bits/char_traits.h ****    *  right, but the int_type and state_type typedefs, and the eof()
  77:/usr/include/newlib/c++/9.2.1/bits/char_traits.h ****    *  member function, are likely to be wrong.)  The reason this class
  78:/usr/include/newlib/c++/9.2.1/bits/char_traits.h ****    *  exists is so users can specialize it.  Classes in namespace std
  79:/usr/include/newlib/c++/9.2.1/bits/char_traits.h ****    *  may not be specialized for fundamental types, but classes in
  80:/usr/include/newlib/c++/9.2.1/bits/char_traits.h ****    *  namespace __gnu_cxx may be.
  81:/usr/include/newlib/c++/9.2.1/bits/char_traits.h ****    *
  82:/usr/include/newlib/c++/9.2.1/bits/char_traits.h ****    *  See https://gcc.gnu.org/onlinedocs/libstdc++/manual/strings.html#strings.string.character_typ
  83:/usr/include/newlib/c++/9.2.1/bits/char_traits.h ****    *  for advice on how to make use of this class for @a unusual character
  84:/usr/include/newlib/c++/9.2.1/bits/char_traits.h ****    *  types. Also, check out include/ext/pod_char_traits.h.  
  85:/usr/include/newlib/c++/9.2.1/bits/char_traits.h ****    */
  86:/usr/include/newlib/c++/9.2.1/bits/char_traits.h ****   template<typename _CharT>
  87:/usr/include/newlib/c++/9.2.1/bits/char_traits.h ****     struct char_traits
  88:/usr/include/newlib/c++/9.2.1/bits/char_traits.h ****     {
  89:/usr/include/newlib/c++/9.2.1/bits/char_traits.h ****       typedef _CharT                                    char_type;
  90:/usr/include/newlib/c++/9.2.1/bits/char_traits.h ****       typedef typename _Char_types<_CharT>::int_type    int_type;
  91:/usr/include/newlib/c++/9.2.1/bits/char_traits.h ****       typedef typename _Char_types<_CharT>::pos_type    pos_type;
  92:/usr/include/newlib/c++/9.2.1/bits/char_traits.h ****       typedef typename _Char_types<_CharT>::off_type    off_type;
  93:/usr/include/newlib/c++/9.2.1/bits/char_traits.h ****       typedef typename _Char_types<_CharT>::state_type  state_type;
  94:/usr/include/newlib/c++/9.2.1/bits/char_traits.h **** 
  95:/usr/include/newlib/c++/9.2.1/bits/char_traits.h ****       static _GLIBCXX14_CONSTEXPR void
  96:/usr/include/newlib/c++/9.2.1/bits/char_traits.h ****       assign(char_type& __c1, const char_type& __c2)
  97:/usr/include/newlib/c++/9.2.1/bits/char_traits.h ****       { __c1 = __c2; }
  98:/usr/include/newlib/c++/9.2.1/bits/char_traits.h **** 
  99:/usr/include/newlib/c++/9.2.1/bits/char_traits.h ****       static _GLIBCXX_CONSTEXPR bool
 100:/usr/include/newlib/c++/9.2.1/bits/char_traits.h ****       eq(const char_type& __c1, const char_type& __c2)
 101:/usr/include/newlib/c++/9.2.1/bits/char_traits.h ****       { return __c1 == __c2; }
 102:/usr/include/newlib/c++/9.2.1/bits/char_traits.h **** 
 103:/usr/include/newlib/c++/9.2.1/bits/char_traits.h ****       static _GLIBCXX_CONSTEXPR bool
 104:/usr/include/newlib/c++/9.2.1/bits/char_traits.h ****       lt(const char_type& __c1, const char_type& __c2)
 105:/usr/include/newlib/c++/9.2.1/bits/char_traits.h ****       { return __c1 < __c2; }
 106:/usr/include/newlib/c++/9.2.1/bits/char_traits.h **** 
 107:/usr/include/newlib/c++/9.2.1/bits/char_traits.h ****       static _GLIBCXX14_CONSTEXPR int
 108:/usr/include/newlib/c++/9.2.1/bits/char_traits.h ****       compare(const char_type* __s1, const char_type* __s2, std::size_t __n);
 109:/usr/include/newlib/c++/9.2.1/bits/char_traits.h **** 
 110:/usr/include/newlib/c++/9.2.1/bits/char_traits.h ****       static _GLIBCXX14_CONSTEXPR std::size_t
 111:/usr/include/newlib/c++/9.2.1/bits/char_traits.h ****       length(const char_type* __s);
 112:/usr/include/newlib/c++/9.2.1/bits/char_traits.h **** 
 113:/usr/include/newlib/c++/9.2.1/bits/char_traits.h ****       static _GLIBCXX14_CONSTEXPR const char_type*
 114:/usr/include/newlib/c++/9.2.1/bits/char_traits.h ****       find(const char_type* __s, std::size_t __n, const char_type& __a);
 115:/usr/include/newlib/c++/9.2.1/bits/char_traits.h **** 
 116:/usr/include/newlib/c++/9.2.1/bits/char_traits.h ****       static char_type*
 117:/usr/include/newlib/c++/9.2.1/bits/char_traits.h ****       move(char_type* __s1, const char_type* __s2, std::size_t __n);
 118:/usr/include/newlib/c++/9.2.1/bits/char_traits.h **** 
 119:/usr/include/newlib/c++/9.2.1/bits/char_traits.h ****       static char_type*
 120:/usr/include/newlib/c++/9.2.1/bits/char_traits.h ****       copy(char_type* __s1, const char_type* __s2, std::size_t __n);
 121:/usr/include/newlib/c++/9.2.1/bits/char_traits.h **** 
 122:/usr/include/newlib/c++/9.2.1/bits/char_traits.h ****       static char_type*
 123:/usr/include/newlib/c++/9.2.1/bits/char_traits.h ****       assign(char_type* __s, std::size_t __n, char_type __a);
 124:/usr/include/newlib/c++/9.2.1/bits/char_traits.h **** 
 125:/usr/include/newlib/c++/9.2.1/bits/char_traits.h ****       static _GLIBCXX_CONSTEXPR char_type
 126:/usr/include/newlib/c++/9.2.1/bits/char_traits.h ****       to_char_type(const int_type& __c)
 127:/usr/include/newlib/c++/9.2.1/bits/char_traits.h ****       { return static_cast<char_type>(__c); }
ARM GAS  /tmp/ccoLrWzv.s 			page 195


 128:/usr/include/newlib/c++/9.2.1/bits/char_traits.h **** 
 129:/usr/include/newlib/c++/9.2.1/bits/char_traits.h ****       static _GLIBCXX_CONSTEXPR int_type
 130:/usr/include/newlib/c++/9.2.1/bits/char_traits.h ****       to_int_type(const char_type& __c)
 131:/usr/include/newlib/c++/9.2.1/bits/char_traits.h ****       { return static_cast<int_type>(__c); }
 132:/usr/include/newlib/c++/9.2.1/bits/char_traits.h **** 
 133:/usr/include/newlib/c++/9.2.1/bits/char_traits.h ****       static _GLIBCXX_CONSTEXPR bool
 134:/usr/include/newlib/c++/9.2.1/bits/char_traits.h ****       eq_int_type(const int_type& __c1, const int_type& __c2)
 135:/usr/include/newlib/c++/9.2.1/bits/char_traits.h ****       { return __c1 == __c2; }
 136:/usr/include/newlib/c++/9.2.1/bits/char_traits.h **** 
 137:/usr/include/newlib/c++/9.2.1/bits/char_traits.h ****       static _GLIBCXX_CONSTEXPR int_type
 138:/usr/include/newlib/c++/9.2.1/bits/char_traits.h ****       eof()
 139:/usr/include/newlib/c++/9.2.1/bits/char_traits.h ****       { return static_cast<int_type>(_GLIBCXX_STDIO_EOF); }
 140:/usr/include/newlib/c++/9.2.1/bits/char_traits.h **** 
 141:/usr/include/newlib/c++/9.2.1/bits/char_traits.h ****       static _GLIBCXX_CONSTEXPR int_type
 142:/usr/include/newlib/c++/9.2.1/bits/char_traits.h ****       not_eof(const int_type& __c)
 143:/usr/include/newlib/c++/9.2.1/bits/char_traits.h ****       { return !eq_int_type(__c, eof()) ? __c : to_int_type(char_type()); }
 144:/usr/include/newlib/c++/9.2.1/bits/char_traits.h ****     };
 145:/usr/include/newlib/c++/9.2.1/bits/char_traits.h **** 
 146:/usr/include/newlib/c++/9.2.1/bits/char_traits.h ****   template<typename _CharT>
 147:/usr/include/newlib/c++/9.2.1/bits/char_traits.h ****     _GLIBCXX14_CONSTEXPR int
 148:/usr/include/newlib/c++/9.2.1/bits/char_traits.h ****     char_traits<_CharT>::
 149:/usr/include/newlib/c++/9.2.1/bits/char_traits.h ****     compare(const char_type* __s1, const char_type* __s2, std::size_t __n)
 150:/usr/include/newlib/c++/9.2.1/bits/char_traits.h ****     {
 151:/usr/include/newlib/c++/9.2.1/bits/char_traits.h ****       for (std::size_t __i = 0; __i < __n; ++__i)
 152:/usr/include/newlib/c++/9.2.1/bits/char_traits.h **** 	if (lt(__s1[__i], __s2[__i]))
 153:/usr/include/newlib/c++/9.2.1/bits/char_traits.h **** 	  return -1;
 154:/usr/include/newlib/c++/9.2.1/bits/char_traits.h **** 	else if (lt(__s2[__i], __s1[__i]))
 155:/usr/include/newlib/c++/9.2.1/bits/char_traits.h **** 	  return 1;
 156:/usr/include/newlib/c++/9.2.1/bits/char_traits.h ****       return 0;
 157:/usr/include/newlib/c++/9.2.1/bits/char_traits.h ****     }
 158:/usr/include/newlib/c++/9.2.1/bits/char_traits.h **** 
 159:/usr/include/newlib/c++/9.2.1/bits/char_traits.h ****   template<typename _CharT>
 160:/usr/include/newlib/c++/9.2.1/bits/char_traits.h ****     _GLIBCXX14_CONSTEXPR std::size_t
 161:/usr/include/newlib/c++/9.2.1/bits/char_traits.h ****     char_traits<_CharT>::
 162:/usr/include/newlib/c++/9.2.1/bits/char_traits.h ****     length(const char_type* __p)
 163:/usr/include/newlib/c++/9.2.1/bits/char_traits.h ****     {
 164:/usr/include/newlib/c++/9.2.1/bits/char_traits.h ****       std::size_t __i = 0;
 165:/usr/include/newlib/c++/9.2.1/bits/char_traits.h ****       while (!eq(__p[__i], char_type()))
 166:/usr/include/newlib/c++/9.2.1/bits/char_traits.h ****         ++__i;
 167:/usr/include/newlib/c++/9.2.1/bits/char_traits.h ****       return __i;
 168:/usr/include/newlib/c++/9.2.1/bits/char_traits.h ****     }
 169:/usr/include/newlib/c++/9.2.1/bits/char_traits.h **** 
 170:/usr/include/newlib/c++/9.2.1/bits/char_traits.h ****   template<typename _CharT>
 171:/usr/include/newlib/c++/9.2.1/bits/char_traits.h ****     _GLIBCXX14_CONSTEXPR const typename char_traits<_CharT>::char_type*
 172:/usr/include/newlib/c++/9.2.1/bits/char_traits.h ****     char_traits<_CharT>::
 173:/usr/include/newlib/c++/9.2.1/bits/char_traits.h ****     find(const char_type* __s, std::size_t __n, const char_type& __a)
 174:/usr/include/newlib/c++/9.2.1/bits/char_traits.h ****     {
 175:/usr/include/newlib/c++/9.2.1/bits/char_traits.h ****       for (std::size_t __i = 0; __i < __n; ++__i)
 176:/usr/include/newlib/c++/9.2.1/bits/char_traits.h ****         if (eq(__s[__i], __a))
 177:/usr/include/newlib/c++/9.2.1/bits/char_traits.h ****           return __s + __i;
 178:/usr/include/newlib/c++/9.2.1/bits/char_traits.h ****       return 0;
 179:/usr/include/newlib/c++/9.2.1/bits/char_traits.h ****     }
 180:/usr/include/newlib/c++/9.2.1/bits/char_traits.h **** 
 181:/usr/include/newlib/c++/9.2.1/bits/char_traits.h ****   template<typename _CharT>
 182:/usr/include/newlib/c++/9.2.1/bits/char_traits.h ****     typename char_traits<_CharT>::char_type*
 183:/usr/include/newlib/c++/9.2.1/bits/char_traits.h ****     char_traits<_CharT>::
 184:/usr/include/newlib/c++/9.2.1/bits/char_traits.h ****     move(char_type* __s1, const char_type* __s2, std::size_t __n)
ARM GAS  /tmp/ccoLrWzv.s 			page 196


 185:/usr/include/newlib/c++/9.2.1/bits/char_traits.h ****     {
 186:/usr/include/newlib/c++/9.2.1/bits/char_traits.h ****       if (__n == 0)
 187:/usr/include/newlib/c++/9.2.1/bits/char_traits.h **** 	return __s1;
 188:/usr/include/newlib/c++/9.2.1/bits/char_traits.h ****       return static_cast<_CharT*>(__builtin_memmove(__s1, __s2,
 189:/usr/include/newlib/c++/9.2.1/bits/char_traits.h **** 						    __n * sizeof(char_type)));
 190:/usr/include/newlib/c++/9.2.1/bits/char_traits.h ****     }
 191:/usr/include/newlib/c++/9.2.1/bits/char_traits.h **** 
 192:/usr/include/newlib/c++/9.2.1/bits/char_traits.h ****   template<typename _CharT>
 193:/usr/include/newlib/c++/9.2.1/bits/char_traits.h ****     typename char_traits<_CharT>::char_type*
 194:/usr/include/newlib/c++/9.2.1/bits/char_traits.h ****     char_traits<_CharT>::
 195:/usr/include/newlib/c++/9.2.1/bits/char_traits.h ****     copy(char_type* __s1, const char_type* __s2, std::size_t __n)
 196:/usr/include/newlib/c++/9.2.1/bits/char_traits.h ****     {
 197:/usr/include/newlib/c++/9.2.1/bits/char_traits.h ****       // NB: Inline std::copy so no recursive dependencies.
 198:/usr/include/newlib/c++/9.2.1/bits/char_traits.h ****       std::copy(__s2, __s2 + __n, __s1);
 199:/usr/include/newlib/c++/9.2.1/bits/char_traits.h ****       return __s1;
 200:/usr/include/newlib/c++/9.2.1/bits/char_traits.h ****     }
 201:/usr/include/newlib/c++/9.2.1/bits/char_traits.h **** 
 202:/usr/include/newlib/c++/9.2.1/bits/char_traits.h ****   template<typename _CharT>
 203:/usr/include/newlib/c++/9.2.1/bits/char_traits.h ****     typename char_traits<_CharT>::char_type*
 204:/usr/include/newlib/c++/9.2.1/bits/char_traits.h ****     char_traits<_CharT>::
 205:/usr/include/newlib/c++/9.2.1/bits/char_traits.h ****     assign(char_type* __s, std::size_t __n, char_type __a)
 206:/usr/include/newlib/c++/9.2.1/bits/char_traits.h ****     {
 207:/usr/include/newlib/c++/9.2.1/bits/char_traits.h ****       // NB: Inline std::fill_n so no recursive dependencies.
 208:/usr/include/newlib/c++/9.2.1/bits/char_traits.h ****       std::fill_n(__s, __n, __a);
 209:/usr/include/newlib/c++/9.2.1/bits/char_traits.h ****       return __s;
 210:/usr/include/newlib/c++/9.2.1/bits/char_traits.h ****     }
 211:/usr/include/newlib/c++/9.2.1/bits/char_traits.h **** 
 212:/usr/include/newlib/c++/9.2.1/bits/char_traits.h **** _GLIBCXX_END_NAMESPACE_VERSION
 213:/usr/include/newlib/c++/9.2.1/bits/char_traits.h **** } // namespace
 214:/usr/include/newlib/c++/9.2.1/bits/char_traits.h **** 
 215:/usr/include/newlib/c++/9.2.1/bits/char_traits.h **** namespace std _GLIBCXX_VISIBILITY(default)
 216:/usr/include/newlib/c++/9.2.1/bits/char_traits.h **** {
 217:/usr/include/newlib/c++/9.2.1/bits/char_traits.h **** _GLIBCXX_BEGIN_NAMESPACE_VERSION
 218:/usr/include/newlib/c++/9.2.1/bits/char_traits.h **** 
 219:/usr/include/newlib/c++/9.2.1/bits/char_traits.h **** #if __cplusplus >= 201703L
 220:/usr/include/newlib/c++/9.2.1/bits/char_traits.h **** #define __cpp_lib_constexpr_char_traits 201611
 221:/usr/include/newlib/c++/9.2.1/bits/char_traits.h **** 
 222:/usr/include/newlib/c++/9.2.1/bits/char_traits.h ****   /**
 223:/usr/include/newlib/c++/9.2.1/bits/char_traits.h ****    *  @brief Determine whether the characters of a NULL-terminated
 224:/usr/include/newlib/c++/9.2.1/bits/char_traits.h ****    *  string are known at compile time.
 225:/usr/include/newlib/c++/9.2.1/bits/char_traits.h ****    *  @param  __s  The string.
 226:/usr/include/newlib/c++/9.2.1/bits/char_traits.h ****    *
 227:/usr/include/newlib/c++/9.2.1/bits/char_traits.h ****    *  Assumes that _CharT is a built-in character type.
 228:/usr/include/newlib/c++/9.2.1/bits/char_traits.h ****    */
 229:/usr/include/newlib/c++/9.2.1/bits/char_traits.h ****   template<typename _CharT>
 230:/usr/include/newlib/c++/9.2.1/bits/char_traits.h ****     static _GLIBCXX_ALWAYS_INLINE constexpr bool
 231:/usr/include/newlib/c++/9.2.1/bits/char_traits.h ****     __constant_string_p(const _CharT* __s)
 232:/usr/include/newlib/c++/9.2.1/bits/char_traits.h ****     {
 233:/usr/include/newlib/c++/9.2.1/bits/char_traits.h **** #ifdef _GLIBCXX_HAVE_BUILTIN_IS_CONSTANT_EVALUATED
 234:/usr/include/newlib/c++/9.2.1/bits/char_traits.h ****       (void) __s;
 235:/usr/include/newlib/c++/9.2.1/bits/char_traits.h ****       // In constexpr contexts all strings should be constant.
 236:/usr/include/newlib/c++/9.2.1/bits/char_traits.h ****       return __builtin_is_constant_evaluated();
 237:/usr/include/newlib/c++/9.2.1/bits/char_traits.h **** #else
 238:/usr/include/newlib/c++/9.2.1/bits/char_traits.h ****       while (__builtin_constant_p(*__s) && *__s)
 239:/usr/include/newlib/c++/9.2.1/bits/char_traits.h **** 	__s++;
 240:/usr/include/newlib/c++/9.2.1/bits/char_traits.h ****       return __builtin_constant_p(*__s);
 241:/usr/include/newlib/c++/9.2.1/bits/char_traits.h **** #endif
ARM GAS  /tmp/ccoLrWzv.s 			page 197


 242:/usr/include/newlib/c++/9.2.1/bits/char_traits.h ****     }
 243:/usr/include/newlib/c++/9.2.1/bits/char_traits.h **** 
 244:/usr/include/newlib/c++/9.2.1/bits/char_traits.h ****   /**
 245:/usr/include/newlib/c++/9.2.1/bits/char_traits.h ****    *  @brief Determine whether the characters of a character array are
 246:/usr/include/newlib/c++/9.2.1/bits/char_traits.h ****    *  known at compile time.
 247:/usr/include/newlib/c++/9.2.1/bits/char_traits.h ****    *  @param  __a  The character array.
 248:/usr/include/newlib/c++/9.2.1/bits/char_traits.h ****    *  @param  __n  Number of characters.
 249:/usr/include/newlib/c++/9.2.1/bits/char_traits.h ****    *
 250:/usr/include/newlib/c++/9.2.1/bits/char_traits.h ****    *  Assumes that _CharT is a built-in character type.
 251:/usr/include/newlib/c++/9.2.1/bits/char_traits.h ****    */
 252:/usr/include/newlib/c++/9.2.1/bits/char_traits.h ****   template<typename _CharT>
 253:/usr/include/newlib/c++/9.2.1/bits/char_traits.h ****     static _GLIBCXX_ALWAYS_INLINE constexpr bool
 254:/usr/include/newlib/c++/9.2.1/bits/char_traits.h ****     __constant_char_array_p(const _CharT* __a, size_t __n)
 255:/usr/include/newlib/c++/9.2.1/bits/char_traits.h ****     {
 256:/usr/include/newlib/c++/9.2.1/bits/char_traits.h **** #ifdef _GLIBCXX_HAVE_BUILTIN_IS_CONSTANT_EVALUATED
 257:/usr/include/newlib/c++/9.2.1/bits/char_traits.h ****       (void) __a;
 258:/usr/include/newlib/c++/9.2.1/bits/char_traits.h ****       (void) __n;
 259:/usr/include/newlib/c++/9.2.1/bits/char_traits.h ****       // In constexpr contexts all character arrays should be constant.
 260:/usr/include/newlib/c++/9.2.1/bits/char_traits.h ****       return __builtin_is_constant_evaluated();
 261:/usr/include/newlib/c++/9.2.1/bits/char_traits.h **** #else
 262:/usr/include/newlib/c++/9.2.1/bits/char_traits.h ****       size_t __i = 0;
 263:/usr/include/newlib/c++/9.2.1/bits/char_traits.h ****       while (__i < __n && __builtin_constant_p(__a[__i]))
 264:/usr/include/newlib/c++/9.2.1/bits/char_traits.h **** 	__i++;
 265:/usr/include/newlib/c++/9.2.1/bits/char_traits.h ****       return __i == __n;
 266:/usr/include/newlib/c++/9.2.1/bits/char_traits.h **** #endif
 267:/usr/include/newlib/c++/9.2.1/bits/char_traits.h ****     }
 268:/usr/include/newlib/c++/9.2.1/bits/char_traits.h **** #endif
 269:/usr/include/newlib/c++/9.2.1/bits/char_traits.h **** 
 270:/usr/include/newlib/c++/9.2.1/bits/char_traits.h ****   // 21.1
 271:/usr/include/newlib/c++/9.2.1/bits/char_traits.h ****   /**
 272:/usr/include/newlib/c++/9.2.1/bits/char_traits.h ****    *  @brief  Basis for explicit traits specializations.
 273:/usr/include/newlib/c++/9.2.1/bits/char_traits.h ****    *
 274:/usr/include/newlib/c++/9.2.1/bits/char_traits.h ****    *  @note  For any given actual character type, this definition is
 275:/usr/include/newlib/c++/9.2.1/bits/char_traits.h ****    *  probably wrong.  Since this is just a thin wrapper around
 276:/usr/include/newlib/c++/9.2.1/bits/char_traits.h ****    *  __gnu_cxx::char_traits, it is possible to achieve a more
 277:/usr/include/newlib/c++/9.2.1/bits/char_traits.h ****    *  appropriate definition by specializing __gnu_cxx::char_traits.
 278:/usr/include/newlib/c++/9.2.1/bits/char_traits.h ****    *
 279:/usr/include/newlib/c++/9.2.1/bits/char_traits.h ****    *  See https://gcc.gnu.org/onlinedocs/libstdc++/manual/strings.html#strings.string.character_typ
 280:/usr/include/newlib/c++/9.2.1/bits/char_traits.h ****    *  for advice on how to make use of this class for @a unusual character
 281:/usr/include/newlib/c++/9.2.1/bits/char_traits.h ****    *  types. Also, check out include/ext/pod_char_traits.h.
 282:/usr/include/newlib/c++/9.2.1/bits/char_traits.h ****   */
 283:/usr/include/newlib/c++/9.2.1/bits/char_traits.h ****   template<class _CharT>
 284:/usr/include/newlib/c++/9.2.1/bits/char_traits.h ****     struct char_traits : public __gnu_cxx::char_traits<_CharT>
 285:/usr/include/newlib/c++/9.2.1/bits/char_traits.h ****     { };
 286:/usr/include/newlib/c++/9.2.1/bits/char_traits.h **** 
 287:/usr/include/newlib/c++/9.2.1/bits/char_traits.h **** 
 288:/usr/include/newlib/c++/9.2.1/bits/char_traits.h ****   /// 21.1.3.1  char_traits specializations
 289:/usr/include/newlib/c++/9.2.1/bits/char_traits.h ****   template<>
 290:/usr/include/newlib/c++/9.2.1/bits/char_traits.h ****     struct char_traits<char>
 291:/usr/include/newlib/c++/9.2.1/bits/char_traits.h ****     {
 292:/usr/include/newlib/c++/9.2.1/bits/char_traits.h ****       typedef char              char_type;
 293:/usr/include/newlib/c++/9.2.1/bits/char_traits.h ****       typedef int               int_type;
 294:/usr/include/newlib/c++/9.2.1/bits/char_traits.h ****       typedef streampos         pos_type;
 295:/usr/include/newlib/c++/9.2.1/bits/char_traits.h ****       typedef streamoff         off_type;
 296:/usr/include/newlib/c++/9.2.1/bits/char_traits.h ****       typedef mbstate_t         state_type;
 297:/usr/include/newlib/c++/9.2.1/bits/char_traits.h **** 
 298:/usr/include/newlib/c++/9.2.1/bits/char_traits.h ****       static _GLIBCXX17_CONSTEXPR void
ARM GAS  /tmp/ccoLrWzv.s 			page 198


 299:/usr/include/newlib/c++/9.2.1/bits/char_traits.h ****       assign(char_type& __c1, const char_type& __c2) _GLIBCXX_NOEXCEPT
 300:/usr/include/newlib/c++/9.2.1/bits/char_traits.h ****       { __c1 = __c2; }
 301:/usr/include/newlib/c++/9.2.1/bits/char_traits.h **** 
 302:/usr/include/newlib/c++/9.2.1/bits/char_traits.h ****       static _GLIBCXX_CONSTEXPR bool
 303:/usr/include/newlib/c++/9.2.1/bits/char_traits.h ****       eq(const char_type& __c1, const char_type& __c2) _GLIBCXX_NOEXCEPT
 304:/usr/include/newlib/c++/9.2.1/bits/char_traits.h ****       { return __c1 == __c2; }
 305:/usr/include/newlib/c++/9.2.1/bits/char_traits.h **** 
 306:/usr/include/newlib/c++/9.2.1/bits/char_traits.h ****       static _GLIBCXX_CONSTEXPR bool
 307:/usr/include/newlib/c++/9.2.1/bits/char_traits.h ****       lt(const char_type& __c1, const char_type& __c2) _GLIBCXX_NOEXCEPT
 308:/usr/include/newlib/c++/9.2.1/bits/char_traits.h ****       {
 309:/usr/include/newlib/c++/9.2.1/bits/char_traits.h **** 	// LWG 467.
 310:/usr/include/newlib/c++/9.2.1/bits/char_traits.h **** 	return (static_cast<unsigned char>(__c1)
 311:/usr/include/newlib/c++/9.2.1/bits/char_traits.h **** 		< static_cast<unsigned char>(__c2));
 312:/usr/include/newlib/c++/9.2.1/bits/char_traits.h ****       }
 313:/usr/include/newlib/c++/9.2.1/bits/char_traits.h **** 
 314:/usr/include/newlib/c++/9.2.1/bits/char_traits.h ****       static _GLIBCXX17_CONSTEXPR int
 315:/usr/include/newlib/c++/9.2.1/bits/char_traits.h ****       compare(const char_type* __s1, const char_type* __s2, size_t __n)
 316:/usr/include/newlib/c++/9.2.1/bits/char_traits.h ****       {
 317:/usr/include/newlib/c++/9.2.1/bits/char_traits.h **** 	if (__n == 0)
 318:/usr/include/newlib/c++/9.2.1/bits/char_traits.h **** 	  return 0;
 319:/usr/include/newlib/c++/9.2.1/bits/char_traits.h **** #if __cplusplus >= 201703L
 320:/usr/include/newlib/c++/9.2.1/bits/char_traits.h **** 	if (__builtin_constant_p(__n)
 321:/usr/include/newlib/c++/9.2.1/bits/char_traits.h **** 	    && __constant_char_array_p(__s1, __n)
 322:/usr/include/newlib/c++/9.2.1/bits/char_traits.h **** 	    && __constant_char_array_p(__s2, __n))
 323:/usr/include/newlib/c++/9.2.1/bits/char_traits.h **** 	  return __gnu_cxx::char_traits<char_type>::compare(__s1, __s2, __n);
 324:/usr/include/newlib/c++/9.2.1/bits/char_traits.h **** #endif
 325:/usr/include/newlib/c++/9.2.1/bits/char_traits.h **** 	return __builtin_memcmp(__s1, __s2, __n);
 326:/usr/include/newlib/c++/9.2.1/bits/char_traits.h ****       }
 327:/usr/include/newlib/c++/9.2.1/bits/char_traits.h **** 
 328:/usr/include/newlib/c++/9.2.1/bits/char_traits.h ****       static _GLIBCXX17_CONSTEXPR size_t
 329:/usr/include/newlib/c++/9.2.1/bits/char_traits.h ****       length(const char_type* __s)
 330:/usr/include/newlib/c++/9.2.1/bits/char_traits.h ****       {
 331:/usr/include/newlib/c++/9.2.1/bits/char_traits.h **** #if __cplusplus >= 201703L
 332:/usr/include/newlib/c++/9.2.1/bits/char_traits.h **** 	if (__constant_string_p(__s))
 333:/usr/include/newlib/c++/9.2.1/bits/char_traits.h **** 	  return __gnu_cxx::char_traits<char_type>::length(__s);
 334:/usr/include/newlib/c++/9.2.1/bits/char_traits.h **** #endif
 335:/usr/include/newlib/c++/9.2.1/bits/char_traits.h **** 	return __builtin_strlen(__s);
 336:/usr/include/newlib/c++/9.2.1/bits/char_traits.h ****       }
 337:/usr/include/newlib/c++/9.2.1/bits/char_traits.h **** 
 338:/usr/include/newlib/c++/9.2.1/bits/char_traits.h ****       static _GLIBCXX17_CONSTEXPR const char_type*
 339:/usr/include/newlib/c++/9.2.1/bits/char_traits.h ****       find(const char_type* __s, size_t __n, const char_type& __a)
 340:/usr/include/newlib/c++/9.2.1/bits/char_traits.h ****       {
 341:/usr/include/newlib/c++/9.2.1/bits/char_traits.h **** 	if (__n == 0)
 342:/usr/include/newlib/c++/9.2.1/bits/char_traits.h **** 	  return 0;
 343:/usr/include/newlib/c++/9.2.1/bits/char_traits.h **** #if __cplusplus >= 201703L
 344:/usr/include/newlib/c++/9.2.1/bits/char_traits.h **** 	if (__builtin_constant_p(__n)
 345:/usr/include/newlib/c++/9.2.1/bits/char_traits.h **** 	    && __builtin_constant_p(__a)
 346:/usr/include/newlib/c++/9.2.1/bits/char_traits.h **** 	    && __constant_char_array_p(__s, __n))
 347:/usr/include/newlib/c++/9.2.1/bits/char_traits.h **** 	  return __gnu_cxx::char_traits<char_type>::find(__s, __n, __a);
 348:/usr/include/newlib/c++/9.2.1/bits/char_traits.h **** #endif
 349:/usr/include/newlib/c++/9.2.1/bits/char_traits.h **** 	return static_cast<const char_type*>(__builtin_memchr(__s, __a, __n));
 350:/usr/include/newlib/c++/9.2.1/bits/char_traits.h ****       }
 351:/usr/include/newlib/c++/9.2.1/bits/char_traits.h **** 
 352:/usr/include/newlib/c++/9.2.1/bits/char_traits.h ****       static char_type*
 353:/usr/include/newlib/c++/9.2.1/bits/char_traits.h ****       move(char_type* __s1, const char_type* __s2, size_t __n)
 354:/usr/include/newlib/c++/9.2.1/bits/char_traits.h ****       {
 355:/usr/include/newlib/c++/9.2.1/bits/char_traits.h **** 	if (__n == 0)
ARM GAS  /tmp/ccoLrWzv.s 			page 199


 356:/usr/include/newlib/c++/9.2.1/bits/char_traits.h **** 	  return __s1;
 357:/usr/include/newlib/c++/9.2.1/bits/char_traits.h **** 	return static_cast<char_type*>(__builtin_memmove(__s1, __s2, __n));
 358:/usr/include/newlib/c++/9.2.1/bits/char_traits.h ****       }
 359:/usr/include/newlib/c++/9.2.1/bits/char_traits.h **** 
 360:/usr/include/newlib/c++/9.2.1/bits/char_traits.h ****       static char_type*
 361:/usr/include/newlib/c++/9.2.1/bits/char_traits.h ****       copy(char_type* __s1, const char_type* __s2, size_t __n)
 362:/usr/include/newlib/c++/9.2.1/bits/char_traits.h ****       {
 363:/usr/include/newlib/c++/9.2.1/bits/char_traits.h **** 	if (__n == 0)
 364:/usr/include/newlib/c++/9.2.1/bits/char_traits.h **** 	  return __s1;
 365:/usr/include/newlib/c++/9.2.1/bits/char_traits.h **** 	return static_cast<char_type*>(__builtin_memcpy(__s1, __s2, __n));
 6370              		.loc 23 365 49 view .LVU1520
 6371 007a 9F48     		ldr	r0, .L503+16
 6372              	.LBE1865:
 6373              	.LBE1864:
 6374              	.LBE1863:
 6375              	.LBE1862:
 6376              	.LBE1861:
 6377              	.LBE1860:
 6378              	.LBE1859:
 6379              	.LBE1858:
 6380              	.LBE1857:
 6381              	.LBE1856:
 6382              	.LBE1855:
 6383              	.LBE1846:
 6384              	.LBE1845:
  82:Midi.cpp      ****     char*       cstr = &str[0];
  83:Midi.cpp      ****     hw.display.WriteString(cstr, Font_7x10, true);
 6385              		.loc 15 83 27 view .LVU1521
 6386 007c 0122     		movs	r2, #1
 6387 007e 9F4B     		ldr	r3, .L503+20
 6388              	.LBB1907:
 6389              	.LBB1904:
 6390              	.LBB1899:
 6391              	.LBB1896:
 6392              	.LBB1893:
 6393              	.LBB1890:
 6394              	.LBB1887:
 6395              	.LBB1884:
 6396              	.LBB1874:
 6397              	.LBB1872:
 6398              	.LBB1870:
 6399              	.LBB1868:
 6400              	.LBB1866:
 6401              		.loc 23 365 49 view .LVU1522
 6402 0080 0860     		str	r0, [r1]
 6403              	.LBE1866:
 6404              	.LBE1868:
 6405              	.LBE1870:
 6406              	.LBE1872:
 6407              	.LBE1874:
 6408              	.LBE1884:
 6409              	.LBE1887:
 6410              	.LBE1890:
 6411              	.LBE1893:
 6412              	.LBE1896:
 6413              	.LBE1899:
 6414              	.LBE1904:
ARM GAS  /tmp/ccoLrWzv.s 			page 200


 6415              	.LBE1907:
 6416              		.loc 15 83 27 view .LVU1523
 6417 0082 04F12400 		add	r0, r4, #36
 6418 0086 0092     		str	r2, [sp]
 6419              	.LBB1908:
 6420              	.LBB1905:
 6421              	.LBB1900:
 6422              	.LBB1897:
 6423              	.LBB1894:
 6424              	.LBB1891:
 6425              	.LBB1888:
 6426              	.LBB1885:
 6427              	.LBB1875:
 6428              	.LBB1876:
 6429              	.LBB1877:
 183:/usr/include/newlib/c++/9.2.1/bits/basic_string.h **** 
 6430              		.loc 22 183 9 view .LVU1524
 6431 0088 0422     		movs	r2, #4
 6432              	.LBE1877:
 6433              	.LBE1876:
 6434              	.LBE1875:
 6435              	.LBE1885:
 6436              	.LBE1888:
 6437              	.LBE1891:
 6438              	.LBE1894:
 6439              	.LBE1897:
 6440              	.LBE1900:
 6441              	.LBB1901:
 6442              	.LBB1854:
 6443              	.LBB1853:
 157:/usr/include/newlib/c++/9.2.1/bits/basic_string.h **** 
 6444              		.loc 22 157 35 view .LVU1525
 6445 008a 2291     		str	r1, [sp, #136]
 6446              	.LVL477:
 157:/usr/include/newlib/c++/9.2.1/bits/basic_string.h **** 
 6447              		.loc 22 157 35 view .LVU1526
 6448              	.LBE1853:
 6449              	.LBE1854:
 6450              	.LBE1901:
 6451              	.LBB1902:
 6452              	.LBI1902:
 329:/usr/include/newlib/c++/9.2.1/bits/char_traits.h ****       {
 6453              		.loc 23 329 7 is_stmt 1 view .LVU1527
 6454              	.LBE1902:
 6455              	.LBE1905:
 6456              	.LBE1908:
 335:/usr/include/newlib/c++/9.2.1/bits/char_traits.h ****       }
 6457              		.loc 23 335 2 view .LVU1528
 6458              	.LBB1909:
 6459              	.LBB1906:
 6460              	.LBB1903:
 6461              	.LBI1855:
 263:/usr/include/newlib/c++/9.2.1/bits/basic_string.h **** 	{
 6462              		.loc 22 263 9 view .LVU1529
 6463              	.LBB1898:
 6464              	.LBB1895:
 6465              	.LBI1857:
ARM GAS  /tmp/ccoLrWzv.s 			page 201


 243:/usr/include/newlib/c++/9.2.1/bits/basic_string.h **** 			 std::__false_type)
 6466              		.loc 22 243 9 view .LVU1530
 6467              	.LBB1892:
 6468              	.LBB1889:
 6469              	.LBI1859:
 6470              		.file 24 "/usr/include/newlib/c++/9.2.1/bits/basic_string.tcc"
   1:/usr/include/newlib/c++/9.2.1/bits/basic_string.tcc **** // Components for manipulating sequences of characters -*- C++ -*-
   2:/usr/include/newlib/c++/9.2.1/bits/basic_string.tcc **** 
   3:/usr/include/newlib/c++/9.2.1/bits/basic_string.tcc **** // Copyright (C) 1997-2019 Free Software Foundation, Inc.
   4:/usr/include/newlib/c++/9.2.1/bits/basic_string.tcc **** //
   5:/usr/include/newlib/c++/9.2.1/bits/basic_string.tcc **** // This file is part of the GNU ISO C++ Library.  This library is free
   6:/usr/include/newlib/c++/9.2.1/bits/basic_string.tcc **** // software; you can redistribute it and/or modify it under the
   7:/usr/include/newlib/c++/9.2.1/bits/basic_string.tcc **** // terms of the GNU General Public License as published by the
   8:/usr/include/newlib/c++/9.2.1/bits/basic_string.tcc **** // Free Software Foundation; either version 3, or (at your option)
   9:/usr/include/newlib/c++/9.2.1/bits/basic_string.tcc **** // any later version.
  10:/usr/include/newlib/c++/9.2.1/bits/basic_string.tcc **** 
  11:/usr/include/newlib/c++/9.2.1/bits/basic_string.tcc **** // This library is distributed in the hope that it will be useful,
  12:/usr/include/newlib/c++/9.2.1/bits/basic_string.tcc **** // but WITHOUT ANY WARRANTY; without even the implied warranty of
  13:/usr/include/newlib/c++/9.2.1/bits/basic_string.tcc **** // MERCHANTABILITY or FITNESS FOR A PARTICULAR PURPOSE.  See the
  14:/usr/include/newlib/c++/9.2.1/bits/basic_string.tcc **** // GNU General Public License for more details.
  15:/usr/include/newlib/c++/9.2.1/bits/basic_string.tcc **** 
  16:/usr/include/newlib/c++/9.2.1/bits/basic_string.tcc **** // Under Section 7 of GPL version 3, you are granted additional
  17:/usr/include/newlib/c++/9.2.1/bits/basic_string.tcc **** // permissions described in the GCC Runtime Library Exception, version
  18:/usr/include/newlib/c++/9.2.1/bits/basic_string.tcc **** // 3.1, as published by the Free Software Foundation.
  19:/usr/include/newlib/c++/9.2.1/bits/basic_string.tcc **** 
  20:/usr/include/newlib/c++/9.2.1/bits/basic_string.tcc **** // You should have received a copy of the GNU General Public License and
  21:/usr/include/newlib/c++/9.2.1/bits/basic_string.tcc **** // a copy of the GCC Runtime Library Exception along with this program;
  22:/usr/include/newlib/c++/9.2.1/bits/basic_string.tcc **** // see the files COPYING3 and COPYING.RUNTIME respectively.  If not, see
  23:/usr/include/newlib/c++/9.2.1/bits/basic_string.tcc **** // <http://www.gnu.org/licenses/>.
  24:/usr/include/newlib/c++/9.2.1/bits/basic_string.tcc **** 
  25:/usr/include/newlib/c++/9.2.1/bits/basic_string.tcc **** /** @file bits/basic_string.tcc
  26:/usr/include/newlib/c++/9.2.1/bits/basic_string.tcc ****  *  This is an internal header file, included by other library headers.
  27:/usr/include/newlib/c++/9.2.1/bits/basic_string.tcc ****  *  Do not attempt to use it directly. @headername{string}
  28:/usr/include/newlib/c++/9.2.1/bits/basic_string.tcc ****  */
  29:/usr/include/newlib/c++/9.2.1/bits/basic_string.tcc **** 
  30:/usr/include/newlib/c++/9.2.1/bits/basic_string.tcc **** //
  31:/usr/include/newlib/c++/9.2.1/bits/basic_string.tcc **** // ISO C++ 14882: 21  Strings library
  32:/usr/include/newlib/c++/9.2.1/bits/basic_string.tcc **** //
  33:/usr/include/newlib/c++/9.2.1/bits/basic_string.tcc **** 
  34:/usr/include/newlib/c++/9.2.1/bits/basic_string.tcc **** // Written by Jason Merrill based upon the specification by Takanori Adachi
  35:/usr/include/newlib/c++/9.2.1/bits/basic_string.tcc **** // in ANSI X3J16/94-0013R2.  Rewritten by Nathan Myers to ISO-14882.
  36:/usr/include/newlib/c++/9.2.1/bits/basic_string.tcc **** // Non-reference-counted implementation written by Paolo Carlini and
  37:/usr/include/newlib/c++/9.2.1/bits/basic_string.tcc **** // updated by Jonathan Wakely for ISO-14882-2011.
  38:/usr/include/newlib/c++/9.2.1/bits/basic_string.tcc **** 
  39:/usr/include/newlib/c++/9.2.1/bits/basic_string.tcc **** #ifndef _BASIC_STRING_TCC
  40:/usr/include/newlib/c++/9.2.1/bits/basic_string.tcc **** #define _BASIC_STRING_TCC 1
  41:/usr/include/newlib/c++/9.2.1/bits/basic_string.tcc **** 
  42:/usr/include/newlib/c++/9.2.1/bits/basic_string.tcc **** #pragma GCC system_header
  43:/usr/include/newlib/c++/9.2.1/bits/basic_string.tcc **** 
  44:/usr/include/newlib/c++/9.2.1/bits/basic_string.tcc **** #include <bits/cxxabi_forced.h>
  45:/usr/include/newlib/c++/9.2.1/bits/basic_string.tcc **** 
  46:/usr/include/newlib/c++/9.2.1/bits/basic_string.tcc **** namespace std _GLIBCXX_VISIBILITY(default)
  47:/usr/include/newlib/c++/9.2.1/bits/basic_string.tcc **** {
  48:/usr/include/newlib/c++/9.2.1/bits/basic_string.tcc **** _GLIBCXX_BEGIN_NAMESPACE_VERSION
  49:/usr/include/newlib/c++/9.2.1/bits/basic_string.tcc **** 
  50:/usr/include/newlib/c++/9.2.1/bits/basic_string.tcc **** #if _GLIBCXX_USE_CXX11_ABI
  51:/usr/include/newlib/c++/9.2.1/bits/basic_string.tcc **** 
ARM GAS  /tmp/ccoLrWzv.s 			page 202


  52:/usr/include/newlib/c++/9.2.1/bits/basic_string.tcc ****   template<typename _CharT, typename _Traits, typename _Alloc>
  53:/usr/include/newlib/c++/9.2.1/bits/basic_string.tcc ****     const typename basic_string<_CharT, _Traits, _Alloc>::size_type
  54:/usr/include/newlib/c++/9.2.1/bits/basic_string.tcc ****     basic_string<_CharT, _Traits, _Alloc>::npos;
  55:/usr/include/newlib/c++/9.2.1/bits/basic_string.tcc **** 
  56:/usr/include/newlib/c++/9.2.1/bits/basic_string.tcc ****   template<typename _CharT, typename _Traits, typename _Alloc>
  57:/usr/include/newlib/c++/9.2.1/bits/basic_string.tcc ****     void
  58:/usr/include/newlib/c++/9.2.1/bits/basic_string.tcc ****     basic_string<_CharT, _Traits, _Alloc>::
  59:/usr/include/newlib/c++/9.2.1/bits/basic_string.tcc ****     swap(basic_string& __s) _GLIBCXX_NOEXCEPT
  60:/usr/include/newlib/c++/9.2.1/bits/basic_string.tcc ****     {
  61:/usr/include/newlib/c++/9.2.1/bits/basic_string.tcc ****       if (this == &__s)
  62:/usr/include/newlib/c++/9.2.1/bits/basic_string.tcc **** 	return;
  63:/usr/include/newlib/c++/9.2.1/bits/basic_string.tcc **** 
  64:/usr/include/newlib/c++/9.2.1/bits/basic_string.tcc ****       _Alloc_traits::_S_on_swap(_M_get_allocator(), __s._M_get_allocator());
  65:/usr/include/newlib/c++/9.2.1/bits/basic_string.tcc **** 
  66:/usr/include/newlib/c++/9.2.1/bits/basic_string.tcc ****       if (_M_is_local())
  67:/usr/include/newlib/c++/9.2.1/bits/basic_string.tcc **** 	if (__s._M_is_local())
  68:/usr/include/newlib/c++/9.2.1/bits/basic_string.tcc **** 	  {
  69:/usr/include/newlib/c++/9.2.1/bits/basic_string.tcc **** 	    if (length() && __s.length())
  70:/usr/include/newlib/c++/9.2.1/bits/basic_string.tcc **** 	      {
  71:/usr/include/newlib/c++/9.2.1/bits/basic_string.tcc **** 		_CharT __tmp_data[_S_local_capacity + 1];
  72:/usr/include/newlib/c++/9.2.1/bits/basic_string.tcc **** 		traits_type::copy(__tmp_data, __s._M_local_buf,
  73:/usr/include/newlib/c++/9.2.1/bits/basic_string.tcc **** 				  _S_local_capacity + 1);
  74:/usr/include/newlib/c++/9.2.1/bits/basic_string.tcc **** 		traits_type::copy(__s._M_local_buf, _M_local_buf,
  75:/usr/include/newlib/c++/9.2.1/bits/basic_string.tcc **** 				  _S_local_capacity + 1);
  76:/usr/include/newlib/c++/9.2.1/bits/basic_string.tcc **** 		traits_type::copy(_M_local_buf, __tmp_data,
  77:/usr/include/newlib/c++/9.2.1/bits/basic_string.tcc **** 				  _S_local_capacity + 1);
  78:/usr/include/newlib/c++/9.2.1/bits/basic_string.tcc **** 	      }
  79:/usr/include/newlib/c++/9.2.1/bits/basic_string.tcc **** 	    else if (__s.length())
  80:/usr/include/newlib/c++/9.2.1/bits/basic_string.tcc **** 	      {
  81:/usr/include/newlib/c++/9.2.1/bits/basic_string.tcc **** 		traits_type::copy(_M_local_buf, __s._M_local_buf,
  82:/usr/include/newlib/c++/9.2.1/bits/basic_string.tcc **** 				  _S_local_capacity + 1);
  83:/usr/include/newlib/c++/9.2.1/bits/basic_string.tcc **** 		_M_length(__s.length());
  84:/usr/include/newlib/c++/9.2.1/bits/basic_string.tcc **** 		__s._M_set_length(0);
  85:/usr/include/newlib/c++/9.2.1/bits/basic_string.tcc **** 		return;
  86:/usr/include/newlib/c++/9.2.1/bits/basic_string.tcc **** 	      }
  87:/usr/include/newlib/c++/9.2.1/bits/basic_string.tcc **** 	    else if (length())
  88:/usr/include/newlib/c++/9.2.1/bits/basic_string.tcc **** 	      {
  89:/usr/include/newlib/c++/9.2.1/bits/basic_string.tcc **** 		traits_type::copy(__s._M_local_buf, _M_local_buf,
  90:/usr/include/newlib/c++/9.2.1/bits/basic_string.tcc **** 				  _S_local_capacity + 1);
  91:/usr/include/newlib/c++/9.2.1/bits/basic_string.tcc **** 		__s._M_length(length());
  92:/usr/include/newlib/c++/9.2.1/bits/basic_string.tcc **** 		_M_set_length(0);
  93:/usr/include/newlib/c++/9.2.1/bits/basic_string.tcc **** 		return;
  94:/usr/include/newlib/c++/9.2.1/bits/basic_string.tcc **** 	      }
  95:/usr/include/newlib/c++/9.2.1/bits/basic_string.tcc **** 	  }
  96:/usr/include/newlib/c++/9.2.1/bits/basic_string.tcc **** 	else
  97:/usr/include/newlib/c++/9.2.1/bits/basic_string.tcc **** 	  {
  98:/usr/include/newlib/c++/9.2.1/bits/basic_string.tcc **** 	    const size_type __tmp_capacity = __s._M_allocated_capacity;
  99:/usr/include/newlib/c++/9.2.1/bits/basic_string.tcc **** 	    traits_type::copy(__s._M_local_buf, _M_local_buf,
 100:/usr/include/newlib/c++/9.2.1/bits/basic_string.tcc **** 			      _S_local_capacity + 1);
 101:/usr/include/newlib/c++/9.2.1/bits/basic_string.tcc **** 	    _M_data(__s._M_data());
 102:/usr/include/newlib/c++/9.2.1/bits/basic_string.tcc **** 	    __s._M_data(__s._M_local_buf);
 103:/usr/include/newlib/c++/9.2.1/bits/basic_string.tcc **** 	    _M_capacity(__tmp_capacity);
 104:/usr/include/newlib/c++/9.2.1/bits/basic_string.tcc **** 	  }
 105:/usr/include/newlib/c++/9.2.1/bits/basic_string.tcc ****       else
 106:/usr/include/newlib/c++/9.2.1/bits/basic_string.tcc **** 	{
 107:/usr/include/newlib/c++/9.2.1/bits/basic_string.tcc **** 	  const size_type __tmp_capacity = _M_allocated_capacity;
 108:/usr/include/newlib/c++/9.2.1/bits/basic_string.tcc **** 	  if (__s._M_is_local())
ARM GAS  /tmp/ccoLrWzv.s 			page 203


 109:/usr/include/newlib/c++/9.2.1/bits/basic_string.tcc **** 	    {
 110:/usr/include/newlib/c++/9.2.1/bits/basic_string.tcc **** 	      traits_type::copy(_M_local_buf, __s._M_local_buf,
 111:/usr/include/newlib/c++/9.2.1/bits/basic_string.tcc **** 				_S_local_capacity + 1);
 112:/usr/include/newlib/c++/9.2.1/bits/basic_string.tcc **** 	      __s._M_data(_M_data());
 113:/usr/include/newlib/c++/9.2.1/bits/basic_string.tcc **** 	      _M_data(_M_local_buf);
 114:/usr/include/newlib/c++/9.2.1/bits/basic_string.tcc **** 	    }
 115:/usr/include/newlib/c++/9.2.1/bits/basic_string.tcc **** 	  else
 116:/usr/include/newlib/c++/9.2.1/bits/basic_string.tcc **** 	    {
 117:/usr/include/newlib/c++/9.2.1/bits/basic_string.tcc **** 	      pointer __tmp_ptr = _M_data();
 118:/usr/include/newlib/c++/9.2.1/bits/basic_string.tcc **** 	      _M_data(__s._M_data());
 119:/usr/include/newlib/c++/9.2.1/bits/basic_string.tcc **** 	      __s._M_data(__tmp_ptr);
 120:/usr/include/newlib/c++/9.2.1/bits/basic_string.tcc **** 	      _M_capacity(__s._M_allocated_capacity);
 121:/usr/include/newlib/c++/9.2.1/bits/basic_string.tcc **** 	    }
 122:/usr/include/newlib/c++/9.2.1/bits/basic_string.tcc **** 	  __s._M_capacity(__tmp_capacity);
 123:/usr/include/newlib/c++/9.2.1/bits/basic_string.tcc **** 	}
 124:/usr/include/newlib/c++/9.2.1/bits/basic_string.tcc **** 
 125:/usr/include/newlib/c++/9.2.1/bits/basic_string.tcc ****       const size_type __tmp_length = length();
 126:/usr/include/newlib/c++/9.2.1/bits/basic_string.tcc ****       _M_length(__s.length());
 127:/usr/include/newlib/c++/9.2.1/bits/basic_string.tcc ****       __s._M_length(__tmp_length);
 128:/usr/include/newlib/c++/9.2.1/bits/basic_string.tcc ****     }
 129:/usr/include/newlib/c++/9.2.1/bits/basic_string.tcc **** 
 130:/usr/include/newlib/c++/9.2.1/bits/basic_string.tcc ****   template<typename _CharT, typename _Traits, typename _Alloc>
 131:/usr/include/newlib/c++/9.2.1/bits/basic_string.tcc ****     typename basic_string<_CharT, _Traits, _Alloc>::pointer
 132:/usr/include/newlib/c++/9.2.1/bits/basic_string.tcc ****     basic_string<_CharT, _Traits, _Alloc>::
 133:/usr/include/newlib/c++/9.2.1/bits/basic_string.tcc ****     _M_create(size_type& __capacity, size_type __old_capacity)
 134:/usr/include/newlib/c++/9.2.1/bits/basic_string.tcc ****     {
 135:/usr/include/newlib/c++/9.2.1/bits/basic_string.tcc ****       // _GLIBCXX_RESOLVE_LIB_DEFECTS
 136:/usr/include/newlib/c++/9.2.1/bits/basic_string.tcc ****       // 83.  String::npos vs. string::max_size()
 137:/usr/include/newlib/c++/9.2.1/bits/basic_string.tcc ****       if (__capacity > max_size())
 138:/usr/include/newlib/c++/9.2.1/bits/basic_string.tcc **** 	std::__throw_length_error(__N("basic_string::_M_create"));
 139:/usr/include/newlib/c++/9.2.1/bits/basic_string.tcc **** 
 140:/usr/include/newlib/c++/9.2.1/bits/basic_string.tcc ****       // The below implements an exponential growth policy, necessary to
 141:/usr/include/newlib/c++/9.2.1/bits/basic_string.tcc ****       // meet amortized linear time requirements of the library: see
 142:/usr/include/newlib/c++/9.2.1/bits/basic_string.tcc ****       // http://gcc.gnu.org/ml/libstdc++/2001-07/msg00085.html.
 143:/usr/include/newlib/c++/9.2.1/bits/basic_string.tcc ****       if (__capacity > __old_capacity && __capacity < 2 * __old_capacity)
 144:/usr/include/newlib/c++/9.2.1/bits/basic_string.tcc **** 	{
 145:/usr/include/newlib/c++/9.2.1/bits/basic_string.tcc **** 	  __capacity = 2 * __old_capacity;
 146:/usr/include/newlib/c++/9.2.1/bits/basic_string.tcc **** 	  // Never allocate a string bigger than max_size.
 147:/usr/include/newlib/c++/9.2.1/bits/basic_string.tcc **** 	  if (__capacity > max_size())
 148:/usr/include/newlib/c++/9.2.1/bits/basic_string.tcc **** 	    __capacity = max_size();
 149:/usr/include/newlib/c++/9.2.1/bits/basic_string.tcc **** 	}
 150:/usr/include/newlib/c++/9.2.1/bits/basic_string.tcc **** 
 151:/usr/include/newlib/c++/9.2.1/bits/basic_string.tcc ****       // NB: Need an array of char_type[__capacity], plus a terminating
 152:/usr/include/newlib/c++/9.2.1/bits/basic_string.tcc ****       // null char_type() element.
 153:/usr/include/newlib/c++/9.2.1/bits/basic_string.tcc ****       return _Alloc_traits::allocate(_M_get_allocator(), __capacity + 1);
 154:/usr/include/newlib/c++/9.2.1/bits/basic_string.tcc ****     }
 155:/usr/include/newlib/c++/9.2.1/bits/basic_string.tcc **** 
 156:/usr/include/newlib/c++/9.2.1/bits/basic_string.tcc ****   // NB: This is the special case for Input Iterators, used in
 157:/usr/include/newlib/c++/9.2.1/bits/basic_string.tcc ****   // istreambuf_iterators, etc.
 158:/usr/include/newlib/c++/9.2.1/bits/basic_string.tcc ****   // Input Iterators have a cost structure very different from
 159:/usr/include/newlib/c++/9.2.1/bits/basic_string.tcc ****   // pointers, calling for a different coding style.
 160:/usr/include/newlib/c++/9.2.1/bits/basic_string.tcc ****   template<typename _CharT, typename _Traits, typename _Alloc>
 161:/usr/include/newlib/c++/9.2.1/bits/basic_string.tcc ****     template<typename _InIterator>
 162:/usr/include/newlib/c++/9.2.1/bits/basic_string.tcc ****       void
 163:/usr/include/newlib/c++/9.2.1/bits/basic_string.tcc ****       basic_string<_CharT, _Traits, _Alloc>::
 164:/usr/include/newlib/c++/9.2.1/bits/basic_string.tcc ****       _M_construct(_InIterator __beg, _InIterator __end,
 165:/usr/include/newlib/c++/9.2.1/bits/basic_string.tcc **** 		   std::input_iterator_tag)
ARM GAS  /tmp/ccoLrWzv.s 			page 204


 166:/usr/include/newlib/c++/9.2.1/bits/basic_string.tcc ****       {
 167:/usr/include/newlib/c++/9.2.1/bits/basic_string.tcc **** 	size_type __len = 0;
 168:/usr/include/newlib/c++/9.2.1/bits/basic_string.tcc **** 	size_type __capacity = size_type(_S_local_capacity);
 169:/usr/include/newlib/c++/9.2.1/bits/basic_string.tcc **** 
 170:/usr/include/newlib/c++/9.2.1/bits/basic_string.tcc **** 	while (__beg != __end && __len < __capacity)
 171:/usr/include/newlib/c++/9.2.1/bits/basic_string.tcc **** 	  {
 172:/usr/include/newlib/c++/9.2.1/bits/basic_string.tcc **** 	    _M_data()[__len++] = *__beg;
 173:/usr/include/newlib/c++/9.2.1/bits/basic_string.tcc **** 	    ++__beg;
 174:/usr/include/newlib/c++/9.2.1/bits/basic_string.tcc **** 	  }
 175:/usr/include/newlib/c++/9.2.1/bits/basic_string.tcc **** 
 176:/usr/include/newlib/c++/9.2.1/bits/basic_string.tcc **** 	__try
 177:/usr/include/newlib/c++/9.2.1/bits/basic_string.tcc **** 	  {
 178:/usr/include/newlib/c++/9.2.1/bits/basic_string.tcc **** 	    while (__beg != __end)
 179:/usr/include/newlib/c++/9.2.1/bits/basic_string.tcc **** 	      {
 180:/usr/include/newlib/c++/9.2.1/bits/basic_string.tcc **** 		if (__len == __capacity)
 181:/usr/include/newlib/c++/9.2.1/bits/basic_string.tcc **** 		  {
 182:/usr/include/newlib/c++/9.2.1/bits/basic_string.tcc **** 		    // Allocate more space.
 183:/usr/include/newlib/c++/9.2.1/bits/basic_string.tcc **** 		    __capacity = __len + 1;
 184:/usr/include/newlib/c++/9.2.1/bits/basic_string.tcc **** 		    pointer __another = _M_create(__capacity, __len);
 185:/usr/include/newlib/c++/9.2.1/bits/basic_string.tcc **** 		    this->_S_copy(__another, _M_data(), __len);
 186:/usr/include/newlib/c++/9.2.1/bits/basic_string.tcc **** 		    _M_dispose();
 187:/usr/include/newlib/c++/9.2.1/bits/basic_string.tcc **** 		    _M_data(__another);
 188:/usr/include/newlib/c++/9.2.1/bits/basic_string.tcc **** 		    _M_capacity(__capacity);
 189:/usr/include/newlib/c++/9.2.1/bits/basic_string.tcc **** 		  }
 190:/usr/include/newlib/c++/9.2.1/bits/basic_string.tcc **** 		_M_data()[__len++] = *__beg;
 191:/usr/include/newlib/c++/9.2.1/bits/basic_string.tcc **** 		++__beg;
 192:/usr/include/newlib/c++/9.2.1/bits/basic_string.tcc **** 	      }
 193:/usr/include/newlib/c++/9.2.1/bits/basic_string.tcc **** 	  }
 194:/usr/include/newlib/c++/9.2.1/bits/basic_string.tcc **** 	__catch(...)
 195:/usr/include/newlib/c++/9.2.1/bits/basic_string.tcc **** 	  {
 196:/usr/include/newlib/c++/9.2.1/bits/basic_string.tcc **** 	    _M_dispose();
 197:/usr/include/newlib/c++/9.2.1/bits/basic_string.tcc **** 	    __throw_exception_again;
 198:/usr/include/newlib/c++/9.2.1/bits/basic_string.tcc **** 	  }
 199:/usr/include/newlib/c++/9.2.1/bits/basic_string.tcc **** 
 200:/usr/include/newlib/c++/9.2.1/bits/basic_string.tcc **** 	_M_set_length(__len);
 201:/usr/include/newlib/c++/9.2.1/bits/basic_string.tcc ****       }
 202:/usr/include/newlib/c++/9.2.1/bits/basic_string.tcc **** 
 203:/usr/include/newlib/c++/9.2.1/bits/basic_string.tcc ****   template<typename _CharT, typename _Traits, typename _Alloc>
 204:/usr/include/newlib/c++/9.2.1/bits/basic_string.tcc ****     template<typename _InIterator>
 205:/usr/include/newlib/c++/9.2.1/bits/basic_string.tcc ****       void
 206:/usr/include/newlib/c++/9.2.1/bits/basic_string.tcc ****       basic_string<_CharT, _Traits, _Alloc>::
 6471              		.loc 24 206 7 view .LVU1531
 6472              	.LBB1886:
 6473              	.LBB1882:
 6474              	.LBI1861:
 396:/usr/include/newlib/c++/9.2.1/bits/basic_string.h ****       _GLIBCXX_NOEXCEPT
 6475              		.loc 22 396 7 view .LVU1532
 6476              	.LBB1873:
 6477              	.LBI1862:
 346:/usr/include/newlib/c++/9.2.1/bits/basic_string.h ****       {
 6478              		.loc 22 346 7 view .LVU1533
 6479              	.LBB1871:
 6480              	.LBI1863:
 346:/usr/include/newlib/c++/9.2.1/bits/basic_string.h ****       {
 6481              		.loc 22 346 7 view .LVU1534
 6482              	.LBB1869:
 6483              	.LBI1864:
ARM GAS  /tmp/ccoLrWzv.s 			page 205


 361:/usr/include/newlib/c++/9.2.1/bits/char_traits.h ****       {
 6484              		.loc 23 361 7 view .LVU1535
 6485              	.LBB1867:
 363:/usr/include/newlib/c++/9.2.1/bits/char_traits.h **** 	  return __s1;
 6486              		.loc 23 363 2 view .LVU1536
 6487              		.loc 23 365 2 view .LVU1537
 6488              		.loc 23 365 2 is_stmt 0 view .LVU1538
 6489              	.LBE1867:
 6490              	.LBE1869:
 6491              	.LBE1871:
 6492              	.LBE1873:
 6493              	.LBE1882:
 6494              	.LBB1883:
 6495              	.LBI1875:
 214:/usr/include/newlib/c++/9.2.1/bits/basic_string.h ****       {
 6496              		.loc 22 214 7 is_stmt 1 view .LVU1539
 6497              	.LBB1879:
 6498              	.LBI1876:
 182:/usr/include/newlib/c++/9.2.1/bits/basic_string.h ****       { _M_string_length = __length; }
 6499              		.loc 22 182 7 view .LVU1540
 6500              	.LBB1878:
 183:/usr/include/newlib/c++/9.2.1/bits/basic_string.h **** 
 6501              		.loc 22 183 9 is_stmt 0 view .LVU1541
 6502 008c 2392     		str	r2, [sp, #140]
 6503              	.LVL478:
 183:/usr/include/newlib/c++/9.2.1/bits/basic_string.h **** 
 6504              		.loc 22 183 9 view .LVU1542
 6505              	.LBE1878:
 6506              	.LBE1879:
 6507              	.LBB1880:
 6508              	.LBI1880:
 299:/usr/include/newlib/c++/9.2.1/bits/char_traits.h ****       { __c1 = __c2; }
 6509              		.loc 23 299 7 is_stmt 1 view .LVU1543
 6510              	.LBB1881:
 300:/usr/include/newlib/c++/9.2.1/bits/char_traits.h **** 
 6511              		.loc 23 300 9 view .LVU1544
 300:/usr/include/newlib/c++/9.2.1/bits/char_traits.h **** 
 6512              		.loc 23 300 14 is_stmt 0 view .LVU1545
 6513 008e 0022     		movs	r2, #0
 6514 0090 8DF89420 		strb	r2, [sp, #148]
 6515              	.LVL479:
 300:/usr/include/newlib/c++/9.2.1/bits/char_traits.h **** 
 6516              		.loc 23 300 14 view .LVU1546
 6517              	.LBE1881:
 6518              	.LBE1880:
 6519              	.LBE1883:
 6520              	.LBE1886:
 6521              	.LBE1889:
 6522              	.LBE1892:
 6523              	.LBE1895:
 6524              	.LBE1898:
 6525              	.LBE1903:
 6526              	.LBE1906:
 6527              	.LBE1909:
 6528              	.LBB1910:
 6529              	.LBI1910:
 142:/usr/include/newlib/c++/9.2.1/bits/allocator.h ****       : __allocator_base<_Tp>(__a) { }
ARM GAS  /tmp/ccoLrWzv.s 			page 206


 143:/usr/include/newlib/c++/9.2.1/bits/allocator.h **** 
 144:/usr/include/newlib/c++/9.2.1/bits/allocator.h **** #if __cplusplus >= 201103L
 145:/usr/include/newlib/c++/9.2.1/bits/allocator.h ****       // Avoid implicit deprecation.
 146:/usr/include/newlib/c++/9.2.1/bits/allocator.h ****       allocator& operator=(const allocator&) = default;
 147:/usr/include/newlib/c++/9.2.1/bits/allocator.h **** #endif
 148:/usr/include/newlib/c++/9.2.1/bits/allocator.h **** 
 149:/usr/include/newlib/c++/9.2.1/bits/allocator.h ****       template<typename _Tp1>
 150:/usr/include/newlib/c++/9.2.1/bits/allocator.h **** 	_GLIBCXX20_CONSTEXPR
 151:/usr/include/newlib/c++/9.2.1/bits/allocator.h **** 	allocator(const allocator<_Tp1>&) _GLIBCXX_NOTHROW { }
 152:/usr/include/newlib/c++/9.2.1/bits/allocator.h **** 
 153:/usr/include/newlib/c++/9.2.1/bits/allocator.h ****       ~allocator() _GLIBCXX_NOTHROW { }
 6530              		.loc 20 153 7 is_stmt 1 view .LVU1547
 6531              	.LBB1911:
 6532              	.LBI1911:
  84:/usr/include/newlib/c++/9.2.1/ext/new_allocator.h **** 
  85:/usr/include/newlib/c++/9.2.1/ext/new_allocator.h ****       template<typename _Tp1>
  86:/usr/include/newlib/c++/9.2.1/ext/new_allocator.h **** 	_GLIBCXX20_CONSTEXPR
  87:/usr/include/newlib/c++/9.2.1/ext/new_allocator.h **** 	new_allocator(const new_allocator<_Tp1>&) _GLIBCXX_USE_NOEXCEPT { }
  88:/usr/include/newlib/c++/9.2.1/ext/new_allocator.h **** 
  89:/usr/include/newlib/c++/9.2.1/ext/new_allocator.h ****       ~new_allocator() _GLIBCXX_USE_NOEXCEPT { }
 6533              		.loc 21 89 7 view .LVU1548
 6534              		.loc 21 89 7 is_stmt 0 view .LVU1549
 6535              	.LBE1911:
 6536              	.LBE1910:
  82:Midi.cpp      ****     hw.display.WriteString(cstr, Font_7x10, true);
 6537              		.loc 15 82 5 is_stmt 1 view .LVU1550
 6538              		.loc 15 83 5 view .LVU1551
 6539              		.loc 15 83 27 is_stmt 0 view .LVU1552
 6540 0094 0CCB     		ldm	r3, {r2, r3}
 6541 0096 FFF7FEFF 		bl	_ZN5daisy25OneBitGraphicsDisplayImplINS_11OledDisplayINS_13SSD130xDriverILj128ELj64ENS_24SSD130
 6542              	.LVL480:
  84:Midi.cpp      ****     hw.display.Update();
 6543              		.loc 15 84 5 is_stmt 1 view .LVU1553
 6544              	.LBB1912:
 6545              	.LBI1912:
 6546              		.loc 2 50 10 view .LVU1554
 6547              	.LBB1913:
 6548              		.loc 2 50 30 is_stmt 0 view .LVU1555
 6549 009a 04F12C00 		add	r0, r4, #44
 6550 009e FFF7FEFF 		bl	_ZN5daisy13SSD130xDriverILj128ELj64ENS_24SSD130x4WireSpiTransportEE6UpdateEv
 6551              	.LVL481:
 6552              		.loc 2 50 30 view .LVU1556
 6553              	.LBE1913:
 6554              	.LBE1912:
  85:Midi.cpp      **** 
  86:Midi.cpp      ****     // Start stuff.
  87:Midi.cpp      ****     hw.midi.StartReceive();
 6555              		.loc 15 87 5 is_stmt 1 view .LVU1557
 6556              	.LBB1914:
 6557              	.LBI1914:
  84:../../libdaisy/src/hid/midi.h **** 
  85:../../libdaisy/src/hid/midi.h ****     struct Config
  86:../../libdaisy/src/hid/midi.h ****     {
  87:../../libdaisy/src/hid/midi.h ****         typename Transport::Config transport_config;
  88:../../libdaisy/src/hid/midi.h ****     };
  89:../../libdaisy/src/hid/midi.h **** 
  90:../../libdaisy/src/hid/midi.h ****     /** Initializes the MidiHandler 
ARM GAS  /tmp/ccoLrWzv.s 			page 207


  91:../../libdaisy/src/hid/midi.h ****     \param in_mode Input mode
  92:../../libdaisy/src/hid/midi.h ****     \param out_mode Output mode
  93:../../libdaisy/src/hid/midi.h ****      */
  94:../../libdaisy/src/hid/midi.h ****     void Init(Config config)
  95:../../libdaisy/src/hid/midi.h ****     {
  96:../../libdaisy/src/hid/midi.h ****         config_ = config;
  97:../../libdaisy/src/hid/midi.h **** 
  98:../../libdaisy/src/hid/midi.h ****         transport_.Init(config_.transport_config);
  99:../../libdaisy/src/hid/midi.h **** 
 100:../../libdaisy/src/hid/midi.h ****         event_q_.Init();
 101:../../libdaisy/src/hid/midi.h ****         incoming_message_.type = MessageLast;
 102:../../libdaisy/src/hid/midi.h ****         pstate_                = ParserEmpty;
 103:../../libdaisy/src/hid/midi.h ****     }
 104:../../libdaisy/src/hid/midi.h **** 
 105:../../libdaisy/src/hid/midi.h ****     /** Starts listening on the selected input mode(s). MidiEvent Queue will begin to fill, and can
 106:../../libdaisy/src/hid/midi.h ****     void StartReceive() { transport_.StartRx(); }
 6558              		.loc 4 106 10 view .LVU1558
 6559              	.LBB1915:
 6560              	.LBI1915:
  60:../../libdaisy/src/hid/midi.h ****     inline size_t  Readable() { return uart_.Readable(); }
 6561              		.loc 4 60 20 view .LVU1559
 6562              	.LBB1916:
  60:../../libdaisy/src/hid/midi.h ****     inline size_t  Readable() { return uart_.Readable(); }
 6563              		.loc 4 60 32 view .LVU1560
  60:../../libdaisy/src/hid/midi.h ****     inline size_t  Readable() { return uart_.Readable(); }
 6564              		.loc 4 60 45 is_stmt 0 view .LVU1561
 6565 00a2 04F11800 		add	r0, r4, #24
 6566 00a6 FFF7FEFF 		bl	_ZN5daisy11UartHandler7StartRxEv
 6567              	.LVL482:
  60:../../libdaisy/src/hid/midi.h ****     inline size_t  Readable() { return uart_.Readable(); }
 6568              		.loc 4 60 45 view .LVU1562
 6569              	.LBE1916:
 6570              	.LBE1915:
 6571              	.LBE1914:
  88:Midi.cpp      ****     hw.StartAdc();
 6572              		.loc 15 88 5 is_stmt 1 view .LVU1563
 6573              		.loc 15 88 16 is_stmt 0 view .LVU1564
 6574 00aa 4046     		mov	r0, r8
 6575 00ac FFF7FEFF 		bl	_ZN5daisy10DaisyPatch8StartAdcEv
 6576              	.LVL483:
  89:Midi.cpp      ****     hw.StartAudio(AudioCallback);
 6577              		.loc 15 89 5 is_stmt 1 view .LVU1565
 6578              		.loc 15 89 18 is_stmt 0 view .LVU1566
 6579 00b0 9349     		ldr	r1, .L503+24
 6580 00b2 4046     		mov	r0, r8
 6581 00b4 FFF7FEFF 		bl	_ZN5daisy10DaisyPatch10StartAudioEPFvPKPKfPPfjE
 6582              	.LVL484:
 6583              	.L464:
  90:Midi.cpp      ****     for(;;)
 6584              		.loc 15 90 5 is_stmt 1 view .LVU1567
  91:Midi.cpp      ****     {
  92:Midi.cpp      ****         hw.midi.Listen();
 6585              		.loc 15 92 9 view .LVU1568
 6586              	.LBB1917:
 6587              	.LBI1917:
 107:../../libdaisy/src/hid/midi.h **** 
 108:../../libdaisy/src/hid/midi.h ****     /** Start listening */
ARM GAS  /tmp/ccoLrWzv.s 			page 208


 109:../../libdaisy/src/hid/midi.h ****     void Listen()
 6588              		.loc 4 109 10 view .LVU1569
 6589              	.LBB1918:
 110:../../libdaisy/src/hid/midi.h ****     {
 111:../../libdaisy/src/hid/midi.h ****         uint32_t now;
 112:../../libdaisy/src/hid/midi.h ****         now = System::GetNow();
 6590              		.loc 4 112 29 is_stmt 0 view .LVU1570
 6591 00b8 FFF7FEFF 		bl	_ZN5daisy6System6GetNowEv
 6592              	.LVL485:
 6593 00bc 8146     		mov	r9, r0
 6594              	.LVL486:
 6595              	.L438:
 113:../../libdaisy/src/hid/midi.h ****         while(transport_.Readable())
 6596              		.loc 4 113 9 is_stmt 1 view .LVU1571
 6597              	.LBB1919:
 6598              	.LBI1919:
  61:../../libdaisy/src/hid/midi.h ****     inline uint8_t Rx() { return uart_.PopRx(); }
 6599              		.loc 4 61 20 view .LVU1572
 6600              	.LBB1920:
  61:../../libdaisy/src/hid/midi.h ****     inline uint8_t Rx() { return uart_.PopRx(); }
 6601              		.loc 4 61 33 view .LVU1573
  61:../../libdaisy/src/hid/midi.h ****     inline uint8_t Rx() { return uart_.PopRx(); }
 6602              		.loc 4 61 54 is_stmt 0 view .LVU1574
 6603 00be 9148     		ldr	r0, .L503+28
 6604              	.LVL487:
  61:../../libdaisy/src/hid/midi.h ****     inline uint8_t Rx() { return uart_.PopRx(); }
 6605              		.loc 4 61 54 view .LVU1575
 6606 00c0 FFF7FEFF 		bl	_ZN5daisy11UartHandler8ReadableEv
 6607              	.LVL488:
  61:../../libdaisy/src/hid/midi.h ****     inline uint8_t Rx() { return uart_.PopRx(); }
 6608              		.loc 4 61 54 view .LVU1576
 6609              	.LBE1920:
 6610              	.LBE1919:
 6611              		.loc 4 113 9 view .LVU1577
 6612 00c4 08B3     		cbz	r0, .L440
 6613              	.L499:
 6614              	.LBB1923:
 6615              	.LBB1924:
  62:../../libdaisy/src/hid/midi.h ****     inline bool    RxActive() { return uart_.RxActive(); }
 6616              		.loc 4 62 45 view .LVU1578
 6617 00c6 8F48     		ldr	r0, .L503+28
 6618              	.LBE1924:
 6619              	.LBE1923:
 114:../../libdaisy/src/hid/midi.h ****         {
 115:../../libdaisy/src/hid/midi.h ****             last_read_ = now;
 6620              		.loc 4 115 13 view .LVU1579
 6621 00c8 CAF80090 		str	r9, [r10]
 6622              	.LVL489:
 6623              	.LBB1926:
 6624              	.LBI1923:
  62:../../libdaisy/src/hid/midi.h ****     inline bool    RxActive() { return uart_.RxActive(); }
 6625              		.loc 4 62 20 is_stmt 1 view .LVU1580
 6626              	.LBB1925:
  62:../../libdaisy/src/hid/midi.h ****     inline bool    RxActive() { return uart_.RxActive(); }
 6627              		.loc 4 62 27 view .LVU1581
  62:../../libdaisy/src/hid/midi.h ****     inline bool    RxActive() { return uart_.RxActive(); }
 6628              		.loc 4 62 45 is_stmt 0 view .LVU1582
ARM GAS  /tmp/ccoLrWzv.s 			page 209


 6629 00cc FFF7FEFF 		bl	_ZN5daisy11UartHandler5PopRxEv
 6630              	.LVL490:
  62:../../libdaisy/src/hid/midi.h ****     inline bool    RxActive() { return uart_.RxActive(); }
 6631              		.loc 4 62 45 view .LVU1583
 6632 00d0 98F8EC30 		ldrb	r3, [r8, #236]	@ zero_extendqisi2
 6633              	.LVL491:
  62:../../libdaisy/src/hid/midi.h ****     inline bool    RxActive() { return uart_.RxActive(); }
 6634              		.loc 4 62 45 view .LVU1584
 6635              	.LBE1925:
 6636              	.LBE1926:
 6637              	.LBB1927:
 6638              	.LBI1927:
 116:../../libdaisy/src/hid/midi.h ****             Parse(transport_.Rx());
 117:../../libdaisy/src/hid/midi.h ****         }
 118:../../libdaisy/src/hid/midi.h **** 
 119:../../libdaisy/src/hid/midi.h ****         // In case of UART Error, (particularly
 120:../../libdaisy/src/hid/midi.h ****         //  overrun error), UART disables itself.
 121:../../libdaisy/src/hid/midi.h ****         // Flush the buff, and restart.
 122:../../libdaisy/src/hid/midi.h ****         if(!transport_.RxActive())
 123:../../libdaisy/src/hid/midi.h ****         {
 124:../../libdaisy/src/hid/midi.h ****             pstate_ = ParserEmpty;
 125:../../libdaisy/src/hid/midi.h ****             transport_.FlushRx();
 126:../../libdaisy/src/hid/midi.h ****             StartReceive();
 127:../../libdaisy/src/hid/midi.h ****         }
 128:../../libdaisy/src/hid/midi.h ****     }
 129:../../libdaisy/src/hid/midi.h **** 
 130:../../libdaisy/src/hid/midi.h ****     /** Checks if there are unhandled messages in the queue 
 131:../../libdaisy/src/hid/midi.h ****     \return True if there are events to be handled, else false.
 132:../../libdaisy/src/hid/midi.h ****      */
 133:../../libdaisy/src/hid/midi.h ****     bool HasEvents() const { return event_q_.readable(); }
 134:../../libdaisy/src/hid/midi.h **** 
 135:../../libdaisy/src/hid/midi.h **** 
 136:../../libdaisy/src/hid/midi.h ****     /** Pops the oldest unhandled MidiEvent from the internal queue
 137:../../libdaisy/src/hid/midi.h ****     \return The event to be handled
 138:../../libdaisy/src/hid/midi.h ****      */
 139:../../libdaisy/src/hid/midi.h ****     MidiEvent PopEvent() { return event_q_.Read(); }
 140:../../libdaisy/src/hid/midi.h **** 
 141:../../libdaisy/src/hid/midi.h ****     /** SendMessage
 142:../../libdaisy/src/hid/midi.h ****     Send raw bytes as message
 143:../../libdaisy/src/hid/midi.h ****     */
 144:../../libdaisy/src/hid/midi.h ****     void SendMessage(uint8_t* bytes, size_t size)
 145:../../libdaisy/src/hid/midi.h ****     {
 146:../../libdaisy/src/hid/midi.h ****         transport_.Tx(bytes, size);
 147:../../libdaisy/src/hid/midi.h ****     }
 148:../../libdaisy/src/hid/midi.h **** 
 149:../../libdaisy/src/hid/midi.h ****     /** Feed in bytes to state machine from a queue.
 150:../../libdaisy/src/hid/midi.h ****     Populates internal FIFO queue with MIDI Messages
 151:../../libdaisy/src/hid/midi.h ****     For example with uart:
 152:../../libdaisy/src/hid/midi.h ****     midi.Parse(uart.PopRx());
 153:../../libdaisy/src/hid/midi.h ****     \param byte &
 154:../../libdaisy/src/hid/midi.h ****     */
 155:../../libdaisy/src/hid/midi.h ****     void Parse(uint8_t byte)
 6639              		.loc 4 155 10 is_stmt 1 view .LVU1585
 6640 00d4 032B     		cmp	r3, #3
 6641 00d6 F2D8     		bhi	.L438
 6642 00d8 DFE803F0 		tbb	[pc, r3]
 6643              	.L442:
ARM GAS  /tmp/ccoLrWzv.s 			page 210


 6644 00dc 75       		.byte	(.L445-.L442)/2
 6645 00dd A5       		.byte	(.L444-.L442)/2
 6646 00de 42       		.byte	(.L443-.L442)/2
 6647 00df 02       		.byte	(.L441-.L442)/2
 6648              		.p2align 1
 6649              	.L441:
 6650              	.LBB1928:
 156:../../libdaisy/src/hid/midi.h ****     {
 157:../../libdaisy/src/hid/midi.h ****         switch(pstate_)
 158:../../libdaisy/src/hid/midi.h ****         {
 159:../../libdaisy/src/hid/midi.h ****             case ParserEmpty:
 160:../../libdaisy/src/hid/midi.h ****                 // check byte for valid Status Byte
 161:../../libdaisy/src/hid/midi.h ****                 if(byte & kStatusByteMask)
 162:../../libdaisy/src/hid/midi.h ****                 {
 163:../../libdaisy/src/hid/midi.h ****                     // Get MessageType, and Channel
 164:../../libdaisy/src/hid/midi.h ****                     incoming_message_.channel = byte & kChannelMask;
 165:../../libdaisy/src/hid/midi.h ****                     incoming_message_.type    = static_cast<MidiMessageType>(
 166:../../libdaisy/src/hid/midi.h ****                         (byte & kMessageMask) >> 4);
 167:../../libdaisy/src/hid/midi.h **** 
 168:../../libdaisy/src/hid/midi.h ****                     // Validate, and move on.
 169:../../libdaisy/src/hid/midi.h ****                     if(incoming_message_.type < MessageLast)
 170:../../libdaisy/src/hid/midi.h ****                     {
 171:../../libdaisy/src/hid/midi.h ****                         pstate_ = ParserHasStatus;
 172:../../libdaisy/src/hid/midi.h ****                         // Mark this status byte as running_status
 173:../../libdaisy/src/hid/midi.h ****                         running_status_ = incoming_message_.type;
 174:../../libdaisy/src/hid/midi.h **** 
 175:../../libdaisy/src/hid/midi.h ****                         if(running_status_ == SystemCommon)
 176:../../libdaisy/src/hid/midi.h ****                         {
 177:../../libdaisy/src/hid/midi.h ****                             incoming_message_.channel = 0;
 178:../../libdaisy/src/hid/midi.h ****                             //system real time = 1111 1xxx
 179:../../libdaisy/src/hid/midi.h ****                             if(byte & 0x08)
 180:../../libdaisy/src/hid/midi.h ****                             {
 181:../../libdaisy/src/hid/midi.h ****                                 incoming_message_.type = SystemRealTime;
 182:../../libdaisy/src/hid/midi.h ****                                 running_status_        = SystemRealTime;
 183:../../libdaisy/src/hid/midi.h ****                                 incoming_message_.srt_type
 184:../../libdaisy/src/hid/midi.h ****                                     = static_cast<SystemRealTimeType>(
 185:../../libdaisy/src/hid/midi.h ****                                         byte & kSystemRealTimeMask);
 186:../../libdaisy/src/hid/midi.h **** 
 187:../../libdaisy/src/hid/midi.h ****                                 //short circuit to start
 188:../../libdaisy/src/hid/midi.h ****                                 pstate_ = ParserEmpty;
 189:../../libdaisy/src/hid/midi.h ****                                 event_q_.Write(incoming_message_);
 190:../../libdaisy/src/hid/midi.h ****                             }
 191:../../libdaisy/src/hid/midi.h ****                             //system common
 192:../../libdaisy/src/hid/midi.h ****                             else
 193:../../libdaisy/src/hid/midi.h ****                             {
 194:../../libdaisy/src/hid/midi.h ****                                 incoming_message_.sc_type
 195:../../libdaisy/src/hid/midi.h ****                                     = static_cast<SystemCommonType>(byte
 196:../../libdaisy/src/hid/midi.h ****                                                                     & 0x07);
 197:../../libdaisy/src/hid/midi.h ****                                 //sysex
 198:../../libdaisy/src/hid/midi.h ****                                 if(incoming_message_.sc_type == SystemExclusive)
 199:../../libdaisy/src/hid/midi.h ****                                 {
 200:../../libdaisy/src/hid/midi.h ****                                     pstate_ = ParserSysEx;
 201:../../libdaisy/src/hid/midi.h ****                                     incoming_message_.sysex_message_len = 0;
 202:../../libdaisy/src/hid/midi.h ****                                 }
 203:../../libdaisy/src/hid/midi.h ****                                 //short circuit
 204:../../libdaisy/src/hid/midi.h ****                                 else if(incoming_message_.sc_type > SongSelect)
 205:../../libdaisy/src/hid/midi.h ****                                 {
ARM GAS  /tmp/ccoLrWzv.s 			page 211


 206:../../libdaisy/src/hid/midi.h ****                                     pstate_ = ParserEmpty;
 207:../../libdaisy/src/hid/midi.h ****                                     event_q_.Write(incoming_message_);
 208:../../libdaisy/src/hid/midi.h ****                                 }
 209:../../libdaisy/src/hid/midi.h ****                             }
 210:../../libdaisy/src/hid/midi.h ****                         }
 211:../../libdaisy/src/hid/midi.h ****                     }
 212:../../libdaisy/src/hid/midi.h ****                     // Else we'll keep waiting for a valid incoming status byte
 213:../../libdaisy/src/hid/midi.h ****                 }
 214:../../libdaisy/src/hid/midi.h ****                 else
 215:../../libdaisy/src/hid/midi.h ****                 {
 216:../../libdaisy/src/hid/midi.h ****                     // Handle as running status
 217:../../libdaisy/src/hid/midi.h ****                     incoming_message_.type    = running_status_;
 218:../../libdaisy/src/hid/midi.h ****                     incoming_message_.data[0] = byte & kDataByteMask;
 219:../../libdaisy/src/hid/midi.h ****                     pstate_                   = ParserHasData0;
 220:../../libdaisy/src/hid/midi.h ****                 }
 221:../../libdaisy/src/hid/midi.h ****                 break;
 222:../../libdaisy/src/hid/midi.h ****             case ParserHasStatus:
 223:../../libdaisy/src/hid/midi.h ****                 if((byte & kStatusByteMask) == 0)
 224:../../libdaisy/src/hid/midi.h ****                 {
 225:../../libdaisy/src/hid/midi.h ****                     incoming_message_.data[0] = byte & kDataByteMask;
 226:../../libdaisy/src/hid/midi.h ****                     if(running_status_ == ChannelPressure
 227:../../libdaisy/src/hid/midi.h ****                        || running_status_ == ProgramChange
 228:../../libdaisy/src/hid/midi.h ****                        || incoming_message_.sc_type == MTCQuarterFrame
 229:../../libdaisy/src/hid/midi.h ****                        || incoming_message_.sc_type == SongSelect)
 230:../../libdaisy/src/hid/midi.h ****                     {
 231:../../libdaisy/src/hid/midi.h ****                         //these are just one data byte, so we short circuit back to start
 232:../../libdaisy/src/hid/midi.h ****                         pstate_ = ParserEmpty;
 233:../../libdaisy/src/hid/midi.h ****                         event_q_.Write(incoming_message_);
 234:../../libdaisy/src/hid/midi.h ****                     }
 235:../../libdaisy/src/hid/midi.h ****                     else
 236:../../libdaisy/src/hid/midi.h ****                     {
 237:../../libdaisy/src/hid/midi.h ****                         pstate_ = ParserHasData0;
 238:../../libdaisy/src/hid/midi.h ****                     }
 239:../../libdaisy/src/hid/midi.h **** 
 240:../../libdaisy/src/hid/midi.h ****                     //ChannelModeMessages (reserved Control Changes)
 241:../../libdaisy/src/hid/midi.h ****                     if(running_status_ == ControlChange
 242:../../libdaisy/src/hid/midi.h ****                        && incoming_message_.data[0] > 119)
 243:../../libdaisy/src/hid/midi.h ****                     {
 244:../../libdaisy/src/hid/midi.h ****                         incoming_message_.type = ChannelMode;
 245:../../libdaisy/src/hid/midi.h ****                         running_status_        = ChannelMode;
 246:../../libdaisy/src/hid/midi.h ****                         incoming_message_.cm_type
 247:../../libdaisy/src/hid/midi.h ****                             = static_cast<ChannelModeType>(
 248:../../libdaisy/src/hid/midi.h ****                                 incoming_message_.data[0] - 120);
 249:../../libdaisy/src/hid/midi.h ****                     }
 250:../../libdaisy/src/hid/midi.h ****                 }
 251:../../libdaisy/src/hid/midi.h ****                 else
 252:../../libdaisy/src/hid/midi.h ****                 {
 253:../../libdaisy/src/hid/midi.h ****                     // invalid message go back to start ;p
 254:../../libdaisy/src/hid/midi.h ****                     pstate_ = ParserEmpty;
 255:../../libdaisy/src/hid/midi.h ****                 }
 256:../../libdaisy/src/hid/midi.h ****                 break;
 257:../../libdaisy/src/hid/midi.h ****             case ParserHasData0:
 258:../../libdaisy/src/hid/midi.h ****                 if((byte & kStatusByteMask) == 0)
 259:../../libdaisy/src/hid/midi.h ****                 {
 260:../../libdaisy/src/hid/midi.h ****                     incoming_message_.data[1] = byte & kDataByteMask;
 261:../../libdaisy/src/hid/midi.h **** 
 262:../../libdaisy/src/hid/midi.h ****                     //velocity 0 NoteOns are NoteOffs
ARM GAS  /tmp/ccoLrWzv.s 			page 212


 263:../../libdaisy/src/hid/midi.h ****                     if(running_status_ == NoteOn
 264:../../libdaisy/src/hid/midi.h ****                        && incoming_message_.data[1] == 0)
 265:../../libdaisy/src/hid/midi.h ****                     {
 266:../../libdaisy/src/hid/midi.h ****                         incoming_message_.type = running_status_ = NoteOff;
 267:../../libdaisy/src/hid/midi.h ****                     }
 268:../../libdaisy/src/hid/midi.h **** 
 269:../../libdaisy/src/hid/midi.h ****                     // At this point the message is valid, and we can add this MidiEvent to the que
 270:../../libdaisy/src/hid/midi.h ****                     event_q_.Write(incoming_message_);
 271:../../libdaisy/src/hid/midi.h ****                 }
 272:../../libdaisy/src/hid/midi.h ****                 // Regardless, of whether the data was valid or not we go back to empty
 273:../../libdaisy/src/hid/midi.h ****                 // because either the message is queued for handling or its not.
 274:../../libdaisy/src/hid/midi.h ****                 pstate_ = ParserEmpty;
 275:../../libdaisy/src/hid/midi.h ****                 break;
 276:../../libdaisy/src/hid/midi.h ****             case ParserSysEx:
 277:../../libdaisy/src/hid/midi.h ****                 // end of sysex
 278:../../libdaisy/src/hid/midi.h ****                 if(byte == 0xf7)
 6651              		.loc 4 278 17 is_stmt 0 view .LVU1586
 6652 00e0 F728     		cmp	r0, #247
 6653 00e2 00F01D81 		beq	.L498
 279:../../libdaisy/src/hid/midi.h ****                 {
 280:../../libdaisy/src/hid/midi.h ****                     pstate_ = ParserEmpty;
 281:../../libdaisy/src/hid/midi.h ****                     event_q_.Write(incoming_message_);
 282:../../libdaisy/src/hid/midi.h ****                 }
 283:../../libdaisy/src/hid/midi.h ****                 else if(incoming_message_.sysex_message_len < SYSEX_BUFFER_LEN)
 6654              		.loc 4 283 22 view .LVU1587
 6655 00e6 98F97A21 		ldrsb	r2, [r8, #378]
 6656              		.loc 4 283 43 view .LVU1588
 6657 00ea 98F87A31 		ldrb	r3, [r8, #378]	@ zero_extendqisi2
 6658              		.loc 4 283 22 view .LVU1589
 6659 00ee 002A     		cmp	r2, #0
 6660 00f0 E5DB     		blt	.L438
 284:../../libdaisy/src/hid/midi.h ****                 {
 285:../../libdaisy/src/hid/midi.h ****                     incoming_message_
 6661              		.loc 4 285 21 view .LVU1590
 6662 00f2 08EB0302 		add	r2, r8, r3
 286:../../libdaisy/src/hid/midi.h ****                         .sysex_data[incoming_message_.sysex_message_len]
 287:../../libdaisy/src/hid/midi.h ****                         = byte;
 288:../../libdaisy/src/hid/midi.h ****                     incoming_message_.sysex_message_len++;
 6663              		.loc 4 288 21 view .LVU1591
 6664 00f6 0133     		adds	r3, r3, #1
 285:../../libdaisy/src/hid/midi.h ****                         .sysex_data[incoming_message_.sysex_message_len]
 6665              		.loc 4 285 21 view .LVU1592
 6666 00f8 82F8FA00 		strb	r0, [r2, #250]
 6667              	.LBE1928:
 6668              	.LBE1927:
 6669              	.LBB1960:
 6670              	.LBB1921:
  61:../../libdaisy/src/hid/midi.h ****     inline uint8_t Rx() { return uart_.PopRx(); }
 6671              		.loc 4 61 54 view .LVU1593
 6672 00fc 8148     		ldr	r0, .L503+28
 6673              	.LVL492:
  61:../../libdaisy/src/hid/midi.h ****     inline uint8_t Rx() { return uart_.PopRx(); }
 6674              		.loc 4 61 54 view .LVU1594
 6675              	.LBE1921:
 6676              	.LBE1960:
 6677              	.LBB1961:
 6678              	.LBB1957:
ARM GAS  /tmp/ccoLrWzv.s 			page 213


 6679              		.loc 4 288 21 view .LVU1595
 6680 00fe 88F87A31 		strb	r3, [r8, #378]
 6681              	.LVL493:
 6682              		.loc 4 288 21 view .LVU1596
 6683              	.LBE1957:
 6684              	.LBE1961:
 113:../../libdaisy/src/hid/midi.h ****         {
 6685              		.loc 4 113 9 is_stmt 1 view .LVU1597
 6686              	.LBB1962:
  61:../../libdaisy/src/hid/midi.h ****     inline uint8_t Rx() { return uart_.PopRx(); }
 6687              		.loc 4 61 20 view .LVU1598
 6688              	.LBB1922:
  61:../../libdaisy/src/hid/midi.h ****     inline uint8_t Rx() { return uart_.PopRx(); }
 6689              		.loc 4 61 33 view .LVU1599
  61:../../libdaisy/src/hid/midi.h ****     inline uint8_t Rx() { return uart_.PopRx(); }
 6690              		.loc 4 61 54 is_stmt 0 view .LVU1600
 6691 0102 FFF7FEFF 		bl	_ZN5daisy11UartHandler8ReadableEv
 6692              	.LVL494:
  61:../../libdaisy/src/hid/midi.h ****     inline uint8_t Rx() { return uart_.PopRx(); }
 6693              		.loc 4 61 54 view .LVU1601
 6694              	.LBE1922:
 6695              	.LBE1962:
 113:../../libdaisy/src/hid/midi.h ****         {
 6696              		.loc 4 113 9 view .LVU1602
 6697 0106 0028     		cmp	r0, #0
 6698 0108 DDD1     		bne	.L499
 6699              	.L440:
 6700              	.LVL495:
 6701              	.LBB1963:
 6702              	.LBI1963:
  63:../../libdaisy/src/hid/midi.h ****     inline void    FlushRx() { uart_.FlushRx(); }
 6703              		.loc 4 63 20 is_stmt 1 view .LVU1603
 6704              	.LBB1964:
  63:../../libdaisy/src/hid/midi.h ****     inline void    FlushRx() { uart_.FlushRx(); }
 6705              		.loc 4 63 33 view .LVU1604
  63:../../libdaisy/src/hid/midi.h ****     inline void    FlushRx() { uart_.FlushRx(); }
 6706              		.loc 4 63 54 is_stmt 0 view .LVU1605
 6707 010a 7E48     		ldr	r0, .L503+28
 6708              	.LVL496:
  63:../../libdaisy/src/hid/midi.h ****     inline void    FlushRx() { uart_.FlushRx(); }
 6709              		.loc 4 63 54 view .LVU1606
 6710 010c FFF7FEFF 		bl	_ZN5daisy11UartHandler8RxActiveEv
 6711              	.LVL497:
  63:../../libdaisy/src/hid/midi.h ****     inline void    FlushRx() { uart_.FlushRx(); }
 6712              		.loc 4 63 54 view .LVU1607
 6713              	.LBE1964:
 6714              	.LBE1963:
 122:../../libdaisy/src/hid/midi.h ****         {
 6715              		.loc 4 122 9 view .LVU1608
 6716 0110 0346     		mov	r3, r0
 6717 0112 0028     		cmp	r0, #0
 6718 0114 00F0DE80 		beq	.L500
 6719              	.LVL498:
 6720              	.L462:
 122:../../libdaisy/src/hid/midi.h ****         {
 6721              		.loc 4 122 9 view .LVU1609
 6722              	.LBE1918:
ARM GAS  /tmp/ccoLrWzv.s 			page 214


 6723              	.LBE1917:
  93:Midi.cpp      ****         // Handle MIDI Events
  94:Midi.cpp      ****         while(hw.midi.HasEvents())
 6724              		.loc 15 94 9 is_stmt 1 view .LVU1610
 6725              		.loc 15 94 32 view .LVU1611
 6726              	.LBB1976:
 6727              	.LBI1976:
 133:../../libdaisy/src/hid/midi.h **** 
 6728              		.loc 4 133 10 view .LVU1612
 6729              	.LBB1977:
 6730              	.LBI1977:
 6731              		.file 25 "../../libdaisy/src/util/ringbuffer.h"
   1:../../libdaisy/src/util/ringbuffer.h **** #pragma once
   2:../../libdaisy/src/util/ringbuffer.h **** #ifndef DSY_RINGBUFFER_H
   3:../../libdaisy/src/util/ringbuffer.h **** #define DSY_RINGBUFFER_H
   4:../../libdaisy/src/util/ringbuffer.h **** 
   5:../../libdaisy/src/util/ringbuffer.h **** #include <algorithm>
   6:../../libdaisy/src/util/ringbuffer.h **** 
   7:../../libdaisy/src/util/ringbuffer.h **** namespace daisy
   8:../../libdaisy/src/util/ringbuffer.h **** {
   9:../../libdaisy/src/util/ringbuffer.h **** /** @addtogroup utility
  10:../../libdaisy/src/util/ringbuffer.h ****     @{
  11:../../libdaisy/src/util/ringbuffer.h **** */
  12:../../libdaisy/src/util/ringbuffer.h **** 
  13:../../libdaisy/src/util/ringbuffer.h **** /**
  14:../../libdaisy/src/util/ringbuffer.h **** Utility Ring Buffer \n 
  15:../../libdaisy/src/util/ringbuffer.h **** imported from pichenettes/stmlib
  16:../../libdaisy/src/util/ringbuffer.h **** */
  17:../../libdaisy/src/util/ringbuffer.h **** template <typename T, size_t size>
  18:../../libdaisy/src/util/ringbuffer.h **** class RingBuffer
  19:../../libdaisy/src/util/ringbuffer.h **** {
  20:../../libdaisy/src/util/ringbuffer.h ****   public:
  21:../../libdaisy/src/util/ringbuffer.h ****     RingBuffer() {}
  22:../../libdaisy/src/util/ringbuffer.h **** 
  23:../../libdaisy/src/util/ringbuffer.h ****     /** Initializes the Ring Buffer */
  24:../../libdaisy/src/util/ringbuffer.h ****     inline void Init() { read_ptr_ = write_ptr_ = 0; }
  25:../../libdaisy/src/util/ringbuffer.h **** 
  26:../../libdaisy/src/util/ringbuffer.h ****     /** \return The total size of the ring buffer */
  27:../../libdaisy/src/util/ringbuffer.h ****     inline size_t capacity() const { return size; }
  28:../../libdaisy/src/util/ringbuffer.h **** 
  29:../../libdaisy/src/util/ringbuffer.h ****     /** \return the number of samples that can be written to ring buffer without overwriting unread
  30:../../libdaisy/src/util/ringbuffer.h ****     inline size_t writable() const
  31:../../libdaisy/src/util/ringbuffer.h ****     {
  32:../../libdaisy/src/util/ringbuffer.h ****         return (read_ptr_ - write_ptr_ - 1) % size;
  33:../../libdaisy/src/util/ringbuffer.h ****     }
  34:../../libdaisy/src/util/ringbuffer.h **** 
  35:../../libdaisy/src/util/ringbuffer.h ****     /** \return number of unread elements in ring buffer */
  36:../../libdaisy/src/util/ringbuffer.h ****     inline size_t readable() const { return (write_ptr_ - read_ptr_) % size; }
 6732              		.loc 25 36 19 view .LVU1613
 6733              	.LBB1978:
 6734              		.loc 25 36 46 is_stmt 0 view .LVU1614
 6735 0118 2B68     		ldr	r3, [r5]
 6736              		.loc 25 36 59 view .LVU1615
 6737 011a 2268     		ldr	r2, [r4]
 6738              	.LVL499:
 6739              		.loc 25 36 57 view .LVU1616
 6740 011c 9B1A     		subs	r3, r3, r2
ARM GAS  /tmp/ccoLrWzv.s 			page 215


 6741              	.LBE1978:
 6742              	.LBE1977:
 6743              	.LBE1976:
 6744              		.loc 15 94 32 view .LVU1617
 6745 011e 13F0FF0F 		tst	r3, #255
 6746 0122 C9D0     		beq	.L464
 6747              	.L465:
 6748              	.LBB1980:
 6749              	.LBB1981:
 6750              	.LBB1982:
  37:../../libdaisy/src/util/ringbuffer.h **** 
  38:../../libdaisy/src/util/ringbuffer.h ****     /** \returns True, if the buffer is empty. */
  39:../../libdaisy/src/util/ringbuffer.h ****     inline bool isEmpty() const { return write_ptr_ == read_ptr_; }
  40:../../libdaisy/src/util/ringbuffer.h **** 
  41:../../libdaisy/src/util/ringbuffer.h ****     /** Writes the value to the next available position in the ring buffer
  42:../../libdaisy/src/util/ringbuffer.h ****     \param v Value to write
  43:../../libdaisy/src/util/ringbuffer.h ****     */
  44:../../libdaisy/src/util/ringbuffer.h ****     inline void Write(T v)
  45:../../libdaisy/src/util/ringbuffer.h ****     {
  46:../../libdaisy/src/util/ringbuffer.h ****         while(!writable())
  47:../../libdaisy/src/util/ringbuffer.h ****             ;
  48:../../libdaisy/src/util/ringbuffer.h ****         Overwrite(v);
  49:../../libdaisy/src/util/ringbuffer.h ****     }
  50:../../libdaisy/src/util/ringbuffer.h **** 
  51:../../libdaisy/src/util/ringbuffer.h ****     /** Writes the new element to the ring buffer, overwriting unread data if necessary. 
  52:../../libdaisy/src/util/ringbuffer.h ****     \param v Value to overwrite
  53:../../libdaisy/src/util/ringbuffer.h ****      */
  54:../../libdaisy/src/util/ringbuffer.h ****     inline void Overwrite(T v)
  55:../../libdaisy/src/util/ringbuffer.h ****     {
  56:../../libdaisy/src/util/ringbuffer.h ****         size_t w   = write_ptr_;
  57:../../libdaisy/src/util/ringbuffer.h ****         buffer_[w] = v;
  58:../../libdaisy/src/util/ringbuffer.h ****         write_ptr_ = (w + 1) % size;
  59:../../libdaisy/src/util/ringbuffer.h ****     }
  60:../../libdaisy/src/util/ringbuffer.h **** 
  61:../../libdaisy/src/util/ringbuffer.h ****     /** Reads the first available element from the ring buffer
  62:../../libdaisy/src/util/ringbuffer.h ****     \return read value
  63:../../libdaisy/src/util/ringbuffer.h ****      */
  64:../../libdaisy/src/util/ringbuffer.h ****     inline T Read()
  65:../../libdaisy/src/util/ringbuffer.h ****     {
  66:../../libdaisy/src/util/ringbuffer.h ****         while(!readable())
 6751              		.loc 25 66 15 is_stmt 1 view .LVU1618
 6752              	.LVL500:
 6753              	.LBB1983:
 6754              	.LBI1983:
  36:../../libdaisy/src/util/ringbuffer.h **** 
 6755              		.loc 25 36 19 view .LVU1619
 6756              	.LBB1984:
  36:../../libdaisy/src/util/ringbuffer.h **** 
 6757              		.loc 25 36 46 is_stmt 0 view .LVU1620
 6758 0124 2B68     		ldr	r3, [r5]
  36:../../libdaisy/src/util/ringbuffer.h **** 
 6759              		.loc 25 36 59 view .LVU1621
 6760 0126 2268     		ldr	r2, [r4]
  36:../../libdaisy/src/util/ringbuffer.h **** 
 6761              		.loc 25 36 57 view .LVU1622
 6762 0128 9B1A     		subs	r3, r3, r2
 6763              	.LBE1984:
ARM GAS  /tmp/ccoLrWzv.s 			page 216


 6764              	.LBE1983:
 6765              		.loc 25 66 15 view .LVU1623
 6766 012a 13F0FF0F 		tst	r3, #255
 6767 012e F9D0     		beq	.L465
 6768              	.LVL501:
 6769              	.LBB1985:
 6770              	.LBI1985:
  67:../../libdaisy/src/util/ringbuffer.h ****             ;
  68:../../libdaisy/src/util/ringbuffer.h ****         return ImmediateRead();
  69:../../libdaisy/src/util/ringbuffer.h ****     }
  70:../../libdaisy/src/util/ringbuffer.h **** 
  71:../../libdaisy/src/util/ringbuffer.h ****     /** Reads next element from ring buffer immediately
  72:../../libdaisy/src/util/ringbuffer.h ****     \return read value
  73:../../libdaisy/src/util/ringbuffer.h ****      */
  74:../../libdaisy/src/util/ringbuffer.h ****     inline T ImmediateRead()
 6771              		.loc 25 74 14 is_stmt 1 view .LVU1624
 6772              	.LBB1986:
  75:../../libdaisy/src/util/ringbuffer.h ****     {
  76:../../libdaisy/src/util/ringbuffer.h ****         size_t r      = read_ptr_;
 6773              		.loc 25 76 16 is_stmt 0 view .LVU1625
 6774 0130 2768     		ldr	r7, [r4]
 6775              	.LVL502:
  77:../../libdaisy/src/util/ringbuffer.h ****         T      result = buffer_[r];
 6776              		.loc 25 77 16 view .LVU1626
 6777 0132 9022     		movs	r2, #144
 6778              	.LVL503:
 6779              		.loc 25 77 16 view .LVU1627
 6780 0134 3046     		mov	r0, r6
 6781 0136 07EBC701 		add	r1, r7, r7, lsl #3
  78:../../libdaisy/src/util/ringbuffer.h ****         read_ptr_     = (r + 1) % size;
 6782              		.loc 25 78 28 view .LVU1628
 6783 013a 0137     		adds	r7, r7, #1
 6784              	.LVL504:
  77:../../libdaisy/src/util/ringbuffer.h ****         T      result = buffer_[r];
 6785              		.loc 25 77 16 view .LVU1629
 6786 013c 08EB0111 		add	r1, r8, r1, lsl #4
 6787              		.loc 25 78 33 view .LVU1630
 6788 0140 FFB2     		uxtb	r7, r7
  77:../../libdaisy/src/util/ringbuffer.h ****         T      result = buffer_[r];
 6789              		.loc 25 77 16 view .LVU1631
 6790 0142 01F5C071 		add	r1, r1, #384
 6791 0146 FFF7FEFF 		bl	memcpy
 6792              	.LVL505:
  77:../../libdaisy/src/util/ringbuffer.h ****         T      result = buffer_[r];
 6793              		.loc 25 77 16 view .LVU1632
 6794              	.LBE1986:
 6795              	.LBE1985:
 6796              	.LBE1982:
 6797              	.LBE1981:
 6798              	.LBE1980:
  95:Midi.cpp      ****         {
  96:Midi.cpp      ****             HandleMidiMessage(hw.midi.PopEvent());
 6799              		.loc 15 96 30 view .LVU1633
 6800 014a 2CA9     		add	r1, sp, #176
 6801 014c 8022     		movs	r2, #128
 6802 014e 6846     		mov	r0, sp
 6803              	.LBB1991:
ARM GAS  /tmp/ccoLrWzv.s 			page 217


 6804              	.LBB1990:
 6805              	.LBB1989:
 6806              	.LBB1988:
 6807              	.LBB1987:
 6808              		.loc 25 78 9 view .LVU1634
 6809 0150 2760     		str	r7, [r4]
 6810              		.loc 25 78 9 view .LVU1635
 6811              	.LBE1987:
 6812              	.LBE1988:
 6813              	.LBE1989:
 6814              	.LBE1990:
 6815              	.LBE1991:
 6816              		.loc 15 96 30 view .LVU1636
 6817 0152 FFF7FEFF 		bl	memcpy
 6818              	.LVL506:
 6819 0156 96E80F00 		ldm	r6, {r0, r1, r2, r3}
 6820 015a FFF7FEFF 		bl	_Z17HandleMidiMessageN5daisy9MidiEventE
 6821              	.LVL507:
  94:Midi.cpp      ****         {
 6822              		.loc 15 94 9 is_stmt 1 view .LVU1637
  94:Midi.cpp      ****         {
 6823              		.loc 15 94 32 view .LVU1638
 6824              	.LBB1992:
 133:../../libdaisy/src/hid/midi.h **** 
 6825              		.loc 4 133 10 view .LVU1639
 6826              	.LBB1979:
  36:../../libdaisy/src/util/ringbuffer.h **** 
 6827              		.loc 25 36 19 view .LVU1640
 6828 015e DBE7     		b	.L462
 6829              	.LVL508:
 6830              	.L443:
  36:../../libdaisy/src/util/ringbuffer.h **** 
 6831              		.loc 25 36 19 is_stmt 0 view .LVU1641
 6832              	.LBE1979:
 6833              	.LBE1992:
 6834              	.LBB1993:
 6835              	.LBB1975:
 6836              	.LBB1965:
 6837              	.LBB1958:
 258:../../libdaisy/src/hid/midi.h ****                 {
 6838              		.loc 4 258 26 view .LVU1642
 6839 0160 9BF80030 		ldrb	r3, [fp]	@ zero_extendqisi2
 258:../../libdaisy/src/hid/midi.h ****                 {
 6840              		.loc 4 258 17 view .LVU1643
 6841 0164 0340     		ands	r3, r0, r3
 6842 0166 2AD1     		bne	.L453
 260:../../libdaisy/src/hid/midi.h **** 
 6843              		.loc 4 260 54 view .LVU1644
 6844 0168 674A     		ldr	r2, .L503+32
 263:../../libdaisy/src/hid/midi.h ****                        && incoming_message_.data[1] == 0)
 6845              		.loc 4 263 21 view .LVU1645
 6846 016a 6849     		ldr	r1, .L503+36
 260:../../libdaisy/src/hid/midi.h **** 
 6847              		.loc 4 260 54 view .LVU1646
 6848 016c 1278     		ldrb	r2, [r2]	@ zero_extendqisi2
 263:../../libdaisy/src/hid/midi.h ****                        && incoming_message_.data[1] == 0)
 6849              		.loc 4 263 21 view .LVU1647
ARM GAS  /tmp/ccoLrWzv.s 			page 218


 6850 016e 0978     		ldrb	r1, [r1]	@ zero_extendqisi2
 260:../../libdaisy/src/hid/midi.h **** 
 6851              		.loc 4 260 54 view .LVU1648
 6852 0170 1040     		ands	r0, r0, r2
 6853              	.LVL509:
 264:../../libdaisy/src/hid/midi.h ****                     {
 6854              		.loc 4 264 24 view .LVU1649
 6855 0172 0129     		cmp	r1, #1
 260:../../libdaisy/src/hid/midi.h **** 
 6856              		.loc 4 260 21 view .LVU1650
 6857 0174 88F8F900 		strb	r0, [r8, #249]
 264:../../libdaisy/src/hid/midi.h ****                     {
 6858              		.loc 4 264 24 view .LVU1651
 6859 0178 02D1     		bne	.L458
 6860 017a 0028     		cmp	r0, #0
 6861 017c 00F0F780 		beq	.L501
 6862              	.L458:
 6863              	.LVL510:
 264:../../libdaisy/src/hid/midi.h ****                     {
 6864              		.loc 4 264 24 view .LVU1652
 6865 0180 9022     		movs	r2, #144
 6866 0182 6349     		ldr	r1, .L503+40
 6867 0184 4CA8     		add	r0, sp, #304
 6868 0186 FFF7FEFF 		bl	memcpy
 6869              	.LVL511:
 6870              	.LBB1929:
 6871              	.LBI1929:
  44:../../libdaisy/src/util/ringbuffer.h ****     {
 6872              		.loc 25 44 17 is_stmt 1 view .LVU1653
 6873              	.L459:
 6874              	.LBB1930:
  46:../../libdaisy/src/util/ringbuffer.h ****             ;
 6875              		.loc 25 46 15 view .LVU1654
 6876              	.LBB1931:
 6877              	.LBI1931:
  30:../../libdaisy/src/util/ringbuffer.h ****     {
 6878              		.loc 25 30 19 view .LVU1655
 6879              	.LBB1932:
  32:../../libdaisy/src/util/ringbuffer.h ****     }
 6880              		.loc 25 32 17 is_stmt 0 view .LVU1656
 6881 018a 2368     		ldr	r3, [r4]
  32:../../libdaisy/src/util/ringbuffer.h ****     }
 6882              		.loc 25 32 29 view .LVU1657
 6883 018c 2A68     		ldr	r2, [r5]
 6884              	.LVL512:
  32:../../libdaisy/src/util/ringbuffer.h ****     }
 6885              		.loc 25 32 40 view .LVU1658
 6886 018e 013B     		subs	r3, r3, #1
 6887 0190 9B1A     		subs	r3, r3, r2
 6888              	.LBE1932:
 6889              	.LBE1931:
  46:../../libdaisy/src/util/ringbuffer.h ****             ;
 6890              		.loc 25 46 15 view .LVU1659
 6891 0192 13F0FF0F 		tst	r3, #255
 6892 0196 F8D0     		beq	.L459
 6893              	.LVL513:
  46:../../libdaisy/src/util/ringbuffer.h ****             ;
ARM GAS  /tmp/ccoLrWzv.s 			page 219


 6894              		.loc 25 46 15 view .LVU1660
 6895 0198 9022     		movs	r2, #144
 6896 019a 4CA9     		add	r1, sp, #304
 6897 019c 70A8     		add	r0, sp, #448
 6898 019e FFF7FEFF 		bl	memcpy
 6899              	.LVL514:
 6900              	.LBB1933:
 6901              	.LBI1933:
  54:../../libdaisy/src/util/ringbuffer.h ****     {
 6902              		.loc 25 54 17 is_stmt 1 view .LVU1661
 6903              	.LBB1934:
  56:../../libdaisy/src/util/ringbuffer.h ****         buffer_[w] = v;
 6904              		.loc 25 56 16 is_stmt 0 view .LVU1662
 6905 01a2 2F68     		ldr	r7, [r5]
 6906              	.LVL515:
  57:../../libdaisy/src/util/ringbuffer.h ****         write_ptr_ = (w + 1) % size;
 6907              		.loc 25 57 9 view .LVU1663
 6908 01a4 9022     		movs	r2, #144
 6909 01a6 70A9     		add	r1, sp, #448
 6910 01a8 07EBC700 		add	r0, r7, r7, lsl #3
 6911 01ac 08EB0010 		add	r0, r8, r0, lsl #4
 6912 01b0 00F5C070 		add	r0, r0, #384
 6913 01b4 FFF7FEFF 		bl	memcpy
 6914              	.LVL516:
  58:../../libdaisy/src/util/ringbuffer.h ****     }
 6915              		.loc 25 58 25 view .LVU1664
 6916 01b8 7B1C     		adds	r3, r7, #1
  58:../../libdaisy/src/util/ringbuffer.h ****     }
 6917              		.loc 25 58 30 view .LVU1665
 6918 01ba DBB2     		uxtb	r3, r3
  58:../../libdaisy/src/util/ringbuffer.h ****     }
 6919              		.loc 25 58 9 view .LVU1666
 6920 01bc 2B60     		str	r3, [r5]
 6921              	.LVL517:
 6922              	.L453:
  58:../../libdaisy/src/util/ringbuffer.h ****     }
 6923              		.loc 25 58 9 view .LVU1667
 6924              	.LBE1934:
 6925              	.LBE1933:
 6926              	.LBE1930:
 6927              	.LBE1929:
 254:../../libdaisy/src/hid/midi.h ****                 }
 6928              		.loc 4 254 21 view .LVU1668
 6929 01be 0023     		movs	r3, #0
 6930 01c0 88F8EC30 		strb	r3, [r8, #236]
 6931 01c4 7BE7     		b	.L438
 6932              	.LVL518:
 6933              	.L445:
 161:../../libdaisy/src/hid/midi.h ****                 {
 6934              		.loc 4 161 25 view .LVU1669
 6935 01c6 9BF80030 		ldrb	r3, [fp]	@ zero_extendqisi2
 161:../../libdaisy/src/hid/midi.h ****                 {
 6936              		.loc 4 161 17 view .LVU1670
 6937 01ca 1842     		tst	r0, r3
 6938 01cc 75D0     		beq	.L446
 166:../../libdaisy/src/hid/midi.h **** 
 6939              		.loc 4 166 31 view .LVU1671
ARM GAS  /tmp/ccoLrWzv.s 			page 220


 6940 01ce 514B     		ldr	r3, .L503+44
 164:../../libdaisy/src/hid/midi.h ****                     incoming_message_.type    = static_cast<MidiMessageType>(
 6941              		.loc 4 164 54 view .LVU1672
 6942 01d0 514A     		ldr	r2, .L503+48
 166:../../libdaisy/src/hid/midi.h **** 
 6943              		.loc 4 166 31 view .LVU1673
 6944 01d2 1B78     		ldrb	r3, [r3]	@ zero_extendqisi2
 164:../../libdaisy/src/hid/midi.h ****                     incoming_message_.type    = static_cast<MidiMessageType>(
 6945              		.loc 4 164 54 view .LVU1674
 6946 01d4 1278     		ldrb	r2, [r2]	@ zero_extendqisi2
 166:../../libdaisy/src/hid/midi.h **** 
 6947              		.loc 4 166 31 view .LVU1675
 6948 01d6 0340     		ands	r3, r3, r0
 164:../../libdaisy/src/hid/midi.h ****                     incoming_message_.type    = static_cast<MidiMessageType>(
 6949              		.loc 4 164 54 view .LVU1676
 6950 01d8 0240     		ands	r2, r2, r0
 166:../../libdaisy/src/hid/midi.h **** 
 6951              		.loc 4 166 47 view .LVU1677
 6952 01da 1909     		lsrs	r1, r3, #4
 169:../../libdaisy/src/hid/midi.h ****                     {
 6953              		.loc 4 169 21 view .LVU1678
 6954 01dc 9F2B     		cmp	r3, #159
 166:../../libdaisy/src/hid/midi.h **** 
 6955              		.loc 4 166 47 view .LVU1679
 6956 01de 4FEA2317 		asr	r7, r3, #4
 164:../../libdaisy/src/hid/midi.h ****                     incoming_message_.type    = static_cast<MidiMessageType>(
 6957              		.loc 4 164 54 view .LVU1680
 6958 01e2 C8F8F420 		str	r2, [r8, #244]
 165:../../libdaisy/src/hid/midi.h ****                         (byte & kMessageMask) >> 4);
 6959              		.loc 4 165 21 view .LVU1681
 6960 01e6 88F8F010 		strb	r1, [r8, #240]
 169:../../libdaisy/src/hid/midi.h ****                     {
 6961              		.loc 4 169 21 view .LVU1682
 6962 01ea 3FF668AF 		bhi	.L438
 171:../../libdaisy/src/hid/midi.h ****                         // Mark this status byte as running_status
 6963              		.loc 4 171 25 view .LVU1683
 6964 01ee 0123     		movs	r3, #1
 173:../../libdaisy/src/hid/midi.h **** 
 6965              		.loc 4 173 25 view .LVU1684
 6966 01f0 464A     		ldr	r2, .L503+36
 175:../../libdaisy/src/hid/midi.h ****                         {
 6967              		.loc 4 175 25 view .LVU1685
 6968 01f2 072F     		cmp	r7, #7
 173:../../libdaisy/src/hid/midi.h **** 
 6969              		.loc 4 173 25 view .LVU1686
 6970 01f4 1170     		strb	r1, [r2]
 171:../../libdaisy/src/hid/midi.h ****                         // Mark this status byte as running_status
 6971              		.loc 4 171 25 view .LVU1687
 6972 01f6 88F8EC30 		strb	r3, [r8, #236]
 175:../../libdaisy/src/hid/midi.h ****                         {
 6973              		.loc 4 175 25 view .LVU1688
 6974 01fa 7FF460AF 		bne	.L438
 177:../../libdaisy/src/hid/midi.h ****                             //system real time = 1111 1xxx
 6975              		.loc 4 177 29 view .LVU1689
 6976 01fe 0022     		movs	r2, #0
 179:../../libdaisy/src/hid/midi.h ****                             {
 6977              		.loc 4 179 29 view .LVU1690
ARM GAS  /tmp/ccoLrWzv.s 			page 221


 6978 0200 10F00807 		ands	r7, r0, #8
 177:../../libdaisy/src/hid/midi.h ****                             //system real time = 1111 1xxx
 6979              		.loc 4 177 29 view .LVU1691
 6980 0204 C8F8F420 		str	r2, [r8, #244]
 179:../../libdaisy/src/hid/midi.h ****                             {
 6981              		.loc 4 179 29 view .LVU1692
 6982 0208 40F0C880 		bne	.L502
 196:../../libdaisy/src/hid/midi.h ****                                 //sysex
 6983              		.loc 4 196 69 view .LVU1693
 6984 020c 00F00703 		and	r3, r0, #7
 194:../../libdaisy/src/hid/midi.h ****                                     = static_cast<SystemCommonType>(byte
 6985              		.loc 4 194 33 view .LVU1694
 6986 0210 88F87B31 		strb	r3, [r8, #379]
 198:../../libdaisy/src/hid/midi.h ****                                 {
 6987              		.loc 4 198 33 view .LVU1695
 6988 0214 002B     		cmp	r3, #0
 6989 0216 40F0AF80 		bne	.L451
 200:../../libdaisy/src/hid/midi.h ****                                     incoming_message_.sysex_message_len = 0;
 6990              		.loc 4 200 37 view .LVU1696
 6991 021a 0322     		movs	r2, #3
 201:../../libdaisy/src/hid/midi.h ****                                 }
 6992              		.loc 4 201 37 view .LVU1697
 6993 021c 88F87A31 		strb	r3, [r8, #378]
 200:../../libdaisy/src/hid/midi.h ****                                     incoming_message_.sysex_message_len = 0;
 6994              		.loc 4 200 37 view .LVU1698
 6995 0220 88F8EC20 		strb	r2, [r8, #236]
 6996 0224 4BE7     		b	.L438
 6997              	.L444:
 223:../../libdaisy/src/hid/midi.h ****                 {
 6998              		.loc 4 223 26 view .LVU1699
 6999 0226 9BF80030 		ldrb	r3, [fp]	@ zero_extendqisi2
 223:../../libdaisy/src/hid/midi.h ****                 {
 7000              		.loc 4 223 17 view .LVU1700
 7001 022a 1842     		tst	r0, r3
 7002 022c C7D1     		bne	.L453
 225:../../libdaisy/src/hid/midi.h ****                     if(running_status_ == ChannelPressure
 7003              		.loc 4 225 54 view .LVU1701
 7004 022e 364B     		ldr	r3, .L503+32
 7005 0230 1F78     		ldrb	r7, [r3]	@ zero_extendqisi2
 226:../../libdaisy/src/hid/midi.h ****                        || running_status_ == ProgramChange
 7006              		.loc 4 226 24 view .LVU1702
 7007 0232 123B     		subs	r3, r3, #18
 7008 0234 1B78     		ldrb	r3, [r3]	@ zero_extendqisi2
 225:../../libdaisy/src/hid/midi.h ****                     if(running_status_ == ChannelPressure
 7009              		.loc 4 225 54 view .LVU1703
 7010 0236 0740     		ands	r7, r7, r0
 226:../../libdaisy/src/hid/midi.h ****                        || running_status_ == ProgramChange
 7011              		.loc 4 226 24 view .LVU1704
 7012 0238 2093     		str	r3, [sp, #128]
 226:../../libdaisy/src/hid/midi.h ****                        || running_status_ == ProgramChange
 7013              		.loc 4 226 21 view .LVU1705
 7014 023a 043B     		subs	r3, r3, #4
 225:../../libdaisy/src/hid/midi.h ****                     if(running_status_ == ChannelPressure
 7015              		.loc 4 225 21 view .LVU1706
 7016 023c 88F8F870 		strb	r7, [r8, #248]
 226:../../libdaisy/src/hid/midi.h ****                        || running_status_ == ProgramChange
 7017              		.loc 4 226 21 view .LVU1707
ARM GAS  /tmp/ccoLrWzv.s 			page 222


 7018 0240 012B     		cmp	r3, #1
 7019 0242 06D9     		bls	.L454
 228:../../libdaisy/src/hid/midi.h ****                        || incoming_message_.sc_type == SongSelect)
 7020              		.loc 4 228 24 view .LVU1708
 7021 0244 98F87B31 		ldrb	r3, [r8, #379]	@ zero_extendqisi2
 229:../../libdaisy/src/hid/midi.h ****                     {
 7022              		.loc 4 229 24 view .LVU1709
 7023 0248 03F0FD03 		and	r3, r3, #253
 7024 024c 012B     		cmp	r3, #1
 7025 024e 40F08A80 		bne	.L455
 7026              	.L454:
 232:../../libdaisy/src/hid/midi.h ****                         event_q_.Write(incoming_message_);
 7027              		.loc 4 232 25 view .LVU1710
 7028 0252 0023     		movs	r3, #0
 7029 0254 9022     		movs	r2, #144
 7030 0256 2E49     		ldr	r1, .L503+40
 7031 0258 4CA8     		add	r0, sp, #304
 7032              	.LVL519:
 232:../../libdaisy/src/hid/midi.h ****                         event_q_.Write(incoming_message_);
 7033              		.loc 4 232 25 view .LVU1711
 7034 025a 88F8EC30 		strb	r3, [r8, #236]
 7035              	.LVL520:
 232:../../libdaisy/src/hid/midi.h ****                         event_q_.Write(incoming_message_);
 7036              		.loc 4 232 25 view .LVU1712
 7037 025e FFF7FEFF 		bl	memcpy
 7038              	.LVL521:
 7039              	.LBB1935:
 7040              	.LBI1935:
  44:../../libdaisy/src/util/ringbuffer.h ****     {
 7041              		.loc 25 44 17 is_stmt 1 view .LVU1713
 7042              	.L456:
 7043              	.LBB1936:
  46:../../libdaisy/src/util/ringbuffer.h ****             ;
 7044              		.loc 25 46 15 view .LVU1714
 7045              	.LBB1937:
 7046              	.LBI1937:
  30:../../libdaisy/src/util/ringbuffer.h ****     {
 7047              		.loc 25 30 19 view .LVU1715
 7048              	.LBB1938:
  32:../../libdaisy/src/util/ringbuffer.h ****     }
 7049              		.loc 25 32 17 is_stmt 0 view .LVU1716
 7050 0262 2368     		ldr	r3, [r4]
  32:../../libdaisy/src/util/ringbuffer.h ****     }
 7051              		.loc 25 32 29 view .LVU1717
 7052 0264 2A68     		ldr	r2, [r5]
 7053              	.LVL522:
  32:../../libdaisy/src/util/ringbuffer.h ****     }
 7054              		.loc 25 32 40 view .LVU1718
 7055 0266 013B     		subs	r3, r3, #1
 7056 0268 9B1A     		subs	r3, r3, r2
 7057              	.LBE1938:
 7058              	.LBE1937:
  46:../../libdaisy/src/util/ringbuffer.h ****             ;
 7059              		.loc 25 46 15 view .LVU1719
 7060 026a 13F0FF0F 		tst	r3, #255
 7061 026e F8D0     		beq	.L456
 7062              	.LVL523:
ARM GAS  /tmp/ccoLrWzv.s 			page 223


  46:../../libdaisy/src/util/ringbuffer.h ****             ;
 7063              		.loc 25 46 15 view .LVU1720
 7064 0270 9022     		movs	r2, #144
 7065 0272 4CA9     		add	r1, sp, #304
 7066 0274 70A8     		add	r0, sp, #448
 7067 0276 FFF7FEFF 		bl	memcpy
 7068              	.LVL524:
 7069              	.LBB1939:
 7070              	.LBI1939:
  54:../../libdaisy/src/util/ringbuffer.h ****     {
 7071              		.loc 25 54 17 is_stmt 1 view .LVU1721
 7072              	.LBB1940:
  56:../../libdaisy/src/util/ringbuffer.h ****         buffer_[w] = v;
 7073              		.loc 25 56 16 is_stmt 0 view .LVU1722
 7074 027a 2B68     		ldr	r3, [r5]
 7075              	.LVL525:
  57:../../libdaisy/src/util/ringbuffer.h ****         write_ptr_ = (w + 1) % size;
 7076              		.loc 25 57 9 view .LVU1723
 7077 027c 9022     		movs	r2, #144
 7078 027e 70A9     		add	r1, sp, #448
 7079 0280 03EBC300 		add	r0, r3, r3, lsl #3
 7080 0284 2193     		str	r3, [sp, #132]
 7081 0286 08EB0010 		add	r0, r8, r0, lsl #4
 7082 028a 00F5C070 		add	r0, r0, #384
 7083 028e FFF7FEFF 		bl	memcpy
 7084              	.LVL526:
  58:../../libdaisy/src/util/ringbuffer.h ****     }
 7085              		.loc 25 58 25 view .LVU1724
 7086 0292 219B     		ldr	r3, [sp, #132]
 7087 0294 0133     		adds	r3, r3, #1
  58:../../libdaisy/src/util/ringbuffer.h ****     }
 7088              		.loc 25 58 30 view .LVU1725
 7089 0296 DBB2     		uxtb	r3, r3
  58:../../libdaisy/src/util/ringbuffer.h ****     }
 7090              		.loc 25 58 9 view .LVU1726
 7091 0298 2B60     		str	r3, [r5]
 7092              	.LVL527:
 7093              	.L457:
  58:../../libdaisy/src/util/ringbuffer.h ****     }
 7094              		.loc 25 58 9 view .LVU1727
 7095              	.LBE1940:
 7096              	.LBE1939:
 7097              	.LBE1936:
 7098              	.LBE1935:
 242:../../libdaisy/src/hid/midi.h ****                     {
 7099              		.loc 4 242 24 view .LVU1728
 7100 029a 772F     		cmp	r7, #119
 7101 029c 7FF60FAF 		bls	.L438
 7102 02a0 209B     		ldr	r3, [sp, #128]
 7103 02a2 032B     		cmp	r3, #3
 7104 02a4 7FF40BAF 		bne	.L438
 244:../../libdaisy/src/hid/midi.h ****                         running_status_        = ChannelMode;
 7105              		.loc 4 244 25 view .LVU1729
 7106 02a8 0923     		movs	r3, #9
 248:../../libdaisy/src/hid/midi.h ****                     }
 7107              		.loc 4 248 59 view .LVU1730
 7108 02aa 783F     		subs	r7, r7, #120
ARM GAS  /tmp/ccoLrWzv.s 			page 224


 245:../../libdaisy/src/hid/midi.h ****                         incoming_message_.cm_type
 7109              		.loc 4 245 25 view .LVU1731
 7110 02ac 174A     		ldr	r2, .L503+36
 246:../../libdaisy/src/hid/midi.h ****                             = static_cast<ChannelModeType>(
 7111              		.loc 4 246 25 view .LVU1732
 7112 02ae 88F87D71 		strb	r7, [r8, #381]
 244:../../libdaisy/src/hid/midi.h ****                         running_status_        = ChannelMode;
 7113              		.loc 4 244 25 view .LVU1733
 7114 02b2 88F8F030 		strb	r3, [r8, #240]
 245:../../libdaisy/src/hid/midi.h ****                         incoming_message_.cm_type
 7115              		.loc 4 245 25 view .LVU1734
 7116 02b6 1370     		strb	r3, [r2]
 7117 02b8 01E7     		b	.L438
 7118              	.LVL528:
 7119              	.L446:
 218:../../libdaisy/src/hid/midi.h ****                     pstate_                   = ParserHasData0;
 7120              		.loc 4 218 54 view .LVU1735
 7121 02ba 134B     		ldr	r3, .L503+32
 219:../../libdaisy/src/hid/midi.h ****                 }
 7122              		.loc 4 219 21 view .LVU1736
 7123 02bc 0222     		movs	r2, #2
 218:../../libdaisy/src/hid/midi.h ****                     pstate_                   = ParserHasData0;
 7124              		.loc 4 218 54 view .LVU1737
 7125 02be 1B78     		ldrb	r3, [r3]	@ zero_extendqisi2
 219:../../libdaisy/src/hid/midi.h ****                 }
 7126              		.loc 4 219 21 view .LVU1738
 7127 02c0 88F8EC20 		strb	r2, [r8, #236]
 218:../../libdaisy/src/hid/midi.h ****                     pstate_                   = ParserHasData0;
 7128              		.loc 4 218 54 view .LVU1739
 7129 02c4 1840     		ands	r0, r0, r3
 7130              	.LVL529:
 217:../../libdaisy/src/hid/midi.h ****                     incoming_message_.data[0] = byte & kDataByteMask;
 7131              		.loc 4 217 21 view .LVU1740
 7132 02c6 114B     		ldr	r3, .L503+36
 7133 02c8 1B78     		ldrb	r3, [r3]	@ zero_extendqisi2
 218:../../libdaisy/src/hid/midi.h ****                     pstate_                   = ParserHasData0;
 7134              		.loc 4 218 21 view .LVU1741
 7135 02ca 88F8F800 		strb	r0, [r8, #248]
 217:../../libdaisy/src/hid/midi.h ****                     incoming_message_.data[0] = byte & kDataByteMask;
 7136              		.loc 4 217 21 view .LVU1742
 7137 02ce 88F8F030 		strb	r3, [r8, #240]
 7138 02d2 F4E6     		b	.L438
 7139              	.LVL530:
 7140              	.L500:
 217:../../libdaisy/src/hid/midi.h ****                     incoming_message_.data[0] = byte & kDataByteMask;
 7141              		.loc 4 217 21 view .LVU1743
 7142              	.LBE1958:
 7143              	.LBE1965:
 7144              	.LBB1966:
 7145              	.LBB1967:
  64:../../libdaisy/src/hid/midi.h ****     inline void    Tx(uint8_t* buff, size_t size) { uart_.PollTx(buff, size); }
 7146              		.loc 4 64 45 view .LVU1744
 7147 02d4 0B48     		ldr	r0, .L503+28
 7148              	.LBE1967:
 7149              	.LBE1966:
 124:../../libdaisy/src/hid/midi.h ****             transport_.FlushRx();
 7150              		.loc 4 124 13 view .LVU1745
ARM GAS  /tmp/ccoLrWzv.s 			page 225


 7151 02d6 88F8EC30 		strb	r3, [r8, #236]
 7152              	.LVL531:
 7153              	.LBB1969:
 7154              	.LBI1966:
  64:../../libdaisy/src/hid/midi.h ****     inline void    Tx(uint8_t* buff, size_t size) { uart_.PollTx(buff, size); }
 7155              		.loc 4 64 20 is_stmt 1 view .LVU1746
 7156              	.LBB1968:
  64:../../libdaisy/src/hid/midi.h ****     inline void    Tx(uint8_t* buff, size_t size) { uart_.PollTx(buff, size); }
 7157              		.loc 4 64 32 view .LVU1747
  64:../../libdaisy/src/hid/midi.h ****     inline void    Tx(uint8_t* buff, size_t size) { uart_.PollTx(buff, size); }
 7158              		.loc 4 64 45 is_stmt 0 view .LVU1748
 7159 02da FFF7FEFF 		bl	_ZN5daisy11UartHandler7FlushRxEv
 7160              	.LVL532:
  64:../../libdaisy/src/hid/midi.h ****     inline void    Tx(uint8_t* buff, size_t size) { uart_.PollTx(buff, size); }
 7161              		.loc 4 64 45 view .LVU1749
 7162              	.LBE1968:
 7163              	.LBE1969:
 7164              	.LBB1970:
 7165              	.LBI1970:
 106:../../libdaisy/src/hid/midi.h **** 
 7166              		.loc 4 106 10 is_stmt 1 view .LVU1750
 7167              	.LBB1971:
 7168              	.LBB1972:
 7169              	.LBI1972:
  60:../../libdaisy/src/hid/midi.h ****     inline size_t  Readable() { return uart_.Readable(); }
 7170              		.loc 4 60 20 view .LVU1751
 7171              	.LBB1973:
  60:../../libdaisy/src/hid/midi.h ****     inline size_t  Readable() { return uart_.Readable(); }
 7172              		.loc 4 60 32 view .LVU1752
  60:../../libdaisy/src/hid/midi.h ****     inline size_t  Readable() { return uart_.Readable(); }
 7173              		.loc 4 60 45 is_stmt 0 view .LVU1753
 7174 02de 0948     		ldr	r0, .L503+28
 7175              	.LVL533:
  60:../../libdaisy/src/hid/midi.h ****     inline size_t  Readable() { return uart_.Readable(); }
 7176              		.loc 4 60 45 view .LVU1754
 7177 02e0 FFF7FEFF 		bl	_ZN5daisy11UartHandler7StartRxEv
 7178              	.LVL534:
  60:../../libdaisy/src/hid/midi.h ****     inline size_t  Readable() { return uart_.Readable(); }
 7179              		.loc 4 60 45 view .LVU1755
 7180              	.LBE1973:
 7181              	.LBE1972:
 106:../../libdaisy/src/hid/midi.h **** 
 7182              		.loc 4 106 49 view .LVU1756
 7183 02e4 18E7     		b	.L462
 7184              	.L504:
 7185 02e6 00BF     		.align	2
 7186              	.L503:
 7187 02e8 00000000 		.word	hw
 7188 02ec 00000000 		.word	.LANCHOR0
 7189 02f0 0000C842 		.word	1120403456
 7190 02f4 00000000 		.word	.LANCHOR1
 7191 02f8 4D696469 		.word	1768188237
 7192 02fc 00000000 		.word	Font_7x10
 7193 0300 00000000 		.word	_Z13AudioCallbackPKPKfPPfj
 7194 0304 98910000 		.word	hw+37272
 7195 0308 9E910000 		.word	hw+37278
 7196 030c 8C910000 		.word	hw+37260
ARM GAS  /tmp/ccoLrWzv.s 			page 226


 7197 0310 F0000000 		.word	hw+240
 7198 0314 9D910000 		.word	hw+37277
 7199 0318 A0910000 		.word	hw+37280
 7200 031c 88910000 		.word	hw+37256
 7201              	.LVL535:
 7202              	.L498:
 106:../../libdaisy/src/hid/midi.h **** 
 7203              		.loc 4 106 49 view .LVU1757
 7204              	.LBE1971:
 7205              	.LBE1970:
 7206              	.LBB1974:
 7207              	.LBB1959:
 280:../../libdaisy/src/hid/midi.h ****                     event_q_.Write(incoming_message_);
 7208              		.loc 4 280 21 view .LVU1758
 7209 0320 0023     		movs	r3, #0
 7210 0322 9022     		movs	r2, #144
 7211 0324 2A49     		ldr	r1, .L505
 7212 0326 4CA8     		add	r0, sp, #304
 7213              	.LVL536:
 280:../../libdaisy/src/hid/midi.h ****                     event_q_.Write(incoming_message_);
 7214              		.loc 4 280 21 view .LVU1759
 7215 0328 88F8EC30 		strb	r3, [r8, #236]
 7216              	.LVL537:
 280:../../libdaisy/src/hid/midi.h ****                     event_q_.Write(incoming_message_);
 7217              		.loc 4 280 21 view .LVU1760
 7218 032c FFF7FEFF 		bl	memcpy
 7219              	.LVL538:
 7220              	.LBB1941:
 7221              	.LBI1941:
  44:../../libdaisy/src/util/ringbuffer.h ****     {
 7222              		.loc 25 44 17 is_stmt 1 view .LVU1761
 7223              	.L461:
 7224              	.LBB1942:
  46:../../libdaisy/src/util/ringbuffer.h ****             ;
 7225              		.loc 25 46 15 view .LVU1762
 7226              	.LBB1943:
 7227              	.LBI1943:
  30:../../libdaisy/src/util/ringbuffer.h ****     {
 7228              		.loc 25 30 19 view .LVU1763
 7229              	.LBB1944:
  32:../../libdaisy/src/util/ringbuffer.h ****     }
 7230              		.loc 25 32 17 is_stmt 0 view .LVU1764
 7231 0330 2368     		ldr	r3, [r4]
  32:../../libdaisy/src/util/ringbuffer.h ****     }
 7232              		.loc 25 32 29 view .LVU1765
 7233 0332 2A68     		ldr	r2, [r5]
 7234              	.LVL539:
  32:../../libdaisy/src/util/ringbuffer.h ****     }
 7235              		.loc 25 32 40 view .LVU1766
 7236 0334 013B     		subs	r3, r3, #1
 7237 0336 9B1A     		subs	r3, r3, r2
 7238              	.LBE1944:
 7239              	.LBE1943:
  46:../../libdaisy/src/util/ringbuffer.h ****             ;
 7240              		.loc 25 46 15 view .LVU1767
 7241 0338 13F0FF0F 		tst	r3, #255
 7242 033c F8D0     		beq	.L461
ARM GAS  /tmp/ccoLrWzv.s 			page 227


 7243              	.LVL540:
 7244              	.L497:
  46:../../libdaisy/src/util/ringbuffer.h ****             ;
 7245              		.loc 25 46 15 view .LVU1768
 7246 033e 9022     		movs	r2, #144
 7247 0340 4CA9     		add	r1, sp, #304
 7248 0342 70A8     		add	r0, sp, #448
 7249 0344 FFF7FEFF 		bl	memcpy
 7250              	.LVL541:
 7251              	.LBB1945:
 7252              	.LBI1945:
  54:../../libdaisy/src/util/ringbuffer.h ****     {
 7253              		.loc 25 54 17 is_stmt 1 view .LVU1769
 7254              	.LBB1946:
  56:../../libdaisy/src/util/ringbuffer.h ****         buffer_[w] = v;
 7255              		.loc 25 56 16 is_stmt 0 view .LVU1770
 7256 0348 2F68     		ldr	r7, [r5]
 7257              	.LVL542:
  57:../../libdaisy/src/util/ringbuffer.h ****         write_ptr_ = (w + 1) % size;
 7258              		.loc 25 57 9 view .LVU1771
 7259 034a 9022     		movs	r2, #144
 7260 034c 70A9     		add	r1, sp, #448
 7261 034e 07EBC700 		add	r0, r7, r7, lsl #3
 7262 0352 08EB0010 		add	r0, r8, r0, lsl #4
 7263 0356 00F5C070 		add	r0, r0, #384
 7264 035a FFF7FEFF 		bl	memcpy
 7265              	.LVL543:
  58:../../libdaisy/src/util/ringbuffer.h ****     }
 7266              		.loc 25 58 25 view .LVU1772
 7267 035e 7B1C     		adds	r3, r7, #1
  58:../../libdaisy/src/util/ringbuffer.h ****     }
 7268              		.loc 25 58 30 view .LVU1773
 7269 0360 DBB2     		uxtb	r3, r3
  58:../../libdaisy/src/util/ringbuffer.h ****     }
 7270              		.loc 25 58 9 view .LVU1774
 7271 0362 2B60     		str	r3, [r5]
 7272              	.LVL544:
  58:../../libdaisy/src/util/ringbuffer.h ****     }
 7273              		.loc 25 58 9 view .LVU1775
 7274              	.LBE1946:
 7275              	.LBE1945:
 7276              	.LBE1942:
 7277              	.LBE1941:
 7278 0364 ABE6     		b	.L438
 7279              	.LVL545:
 7280              	.L455:
 237:../../libdaisy/src/hid/midi.h ****                     }
 7281              		.loc 4 237 25 view .LVU1776
 7282 0366 0223     		movs	r3, #2
 7283 0368 88F8EC30 		strb	r3, [r8, #236]
 7284 036c 95E7     		b	.L457
 7285              	.LVL546:
 7286              	.L501:
 266:../../libdaisy/src/hid/midi.h ****                     }
 7287              		.loc 4 266 25 view .LVU1777
 7288 036e 194A     		ldr	r2, .L505+4
 7289 0370 88F8F030 		strb	r3, [r8, #240]
ARM GAS  /tmp/ccoLrWzv.s 			page 228


 7290 0374 1370     		strb	r3, [r2]
 7291 0376 03E7     		b	.L458
 7292              	.LVL547:
 7293              	.L451:
 204:../../libdaisy/src/hid/midi.h ****                                 {
 7294              		.loc 4 204 38 view .LVU1778
 7295 0378 4307     		lsls	r3, r0, #29
 7296 037a 7FF5A0AE 		bpl	.L438
 7297 037e 9022     		movs	r2, #144
 7298 0380 1349     		ldr	r1, .L505
 7299 0382 4CA8     		add	r0, sp, #304
 7300              	.LVL548:
 206:../../libdaisy/src/hid/midi.h ****                                     event_q_.Write(incoming_message_);
 7301              		.loc 4 206 37 view .LVU1779
 7302 0384 88F8EC70 		strb	r7, [r8, #236]
 7303              	.LVL549:
 206:../../libdaisy/src/hid/midi.h ****                                     event_q_.Write(incoming_message_);
 7304              		.loc 4 206 37 view .LVU1780
 7305 0388 FFF7FEFF 		bl	memcpy
 7306              	.LVL550:
 7307              	.LBB1947:
 7308              	.LBI1947:
  44:../../libdaisy/src/util/ringbuffer.h ****     {
 7309              		.loc 25 44 17 is_stmt 1 view .LVU1781
 7310              	.L452:
 7311              	.LBB1948:
  46:../../libdaisy/src/util/ringbuffer.h ****             ;
 7312              		.loc 25 46 15 view .LVU1782
 7313              	.LBB1949:
 7314              	.LBI1949:
  30:../../libdaisy/src/util/ringbuffer.h ****     {
 7315              		.loc 25 30 19 view .LVU1783
 7316              	.LBB1950:
  32:../../libdaisy/src/util/ringbuffer.h ****     }
 7317              		.loc 25 32 17 is_stmt 0 view .LVU1784
 7318 038c 2368     		ldr	r3, [r4]
  32:../../libdaisy/src/util/ringbuffer.h ****     }
 7319              		.loc 25 32 29 view .LVU1785
 7320 038e 2A68     		ldr	r2, [r5]
 7321              	.LVL551:
  32:../../libdaisy/src/util/ringbuffer.h ****     }
 7322              		.loc 25 32 40 view .LVU1786
 7323 0390 013B     		subs	r3, r3, #1
 7324 0392 9B1A     		subs	r3, r3, r2
 7325              	.LBE1950:
 7326              	.LBE1949:
  46:../../libdaisy/src/util/ringbuffer.h ****             ;
 7327              		.loc 25 46 15 view .LVU1787
 7328 0394 13F0FF0F 		tst	r3, #255
 7329 0398 F8D0     		beq	.L452
 7330 039a D0E7     		b	.L497
 7331              	.LVL552:
 7332              	.L502:
  46:../../libdaisy/src/util/ringbuffer.h ****             ;
 7333              		.loc 25 46 15 view .LVU1788
 7334              	.LBE1948:
 7335              	.LBE1947:
ARM GAS  /tmp/ccoLrWzv.s 			page 229


 7336              	.LBB1951:
 7337              	.LBI1951:
 155:../../libdaisy/src/hid/midi.h ****     {
 7338              		.loc 4 155 10 is_stmt 1 view .LVU1789
 7339              	.LBB1952:
 185:../../libdaisy/src/hid/midi.h **** 
 7340              		.loc 4 185 46 is_stmt 0 view .LVU1790
 7341 039c 0E4B     		ldr	r3, .L505+8
 188:../../libdaisy/src/hid/midi.h ****                                 event_q_.Write(incoming_message_);
 7342              		.loc 4 188 33 view .LVU1791
 7343 039e 88F8EC20 		strb	r2, [r8, #236]
 7344              	.LVL553:
 188:../../libdaisy/src/hid/midi.h ****                                 event_q_.Write(incoming_message_);
 7345              		.loc 4 188 33 view .LVU1792
 7346 03a2 9022     		movs	r2, #144
 185:../../libdaisy/src/hid/midi.h **** 
 7347              		.loc 4 185 46 view .LVU1793
 7348 03a4 1F78     		ldrb	r7, [r3]	@ zero_extendqisi2
 181:../../libdaisy/src/hid/midi.h ****                                 running_status_        = SystemRealTime;
 7349              		.loc 4 181 33 view .LVU1794
 7350 03a6 0823     		movs	r3, #8
 7351 03a8 0949     		ldr	r1, .L505
 185:../../libdaisy/src/hid/midi.h **** 
 7352              		.loc 4 185 46 view .LVU1795
 7353 03aa 0740     		ands	r7, r7, r0
 7354 03ac 4CA8     		add	r0, sp, #304
 7355              	.LVL554:
 181:../../libdaisy/src/hid/midi.h ****                                 running_status_        = SystemRealTime;
 7356              		.loc 4 181 33 view .LVU1796
 7357 03ae 88F8F030 		strb	r3, [r8, #240]
 183:../../libdaisy/src/hid/midi.h ****                                     = static_cast<SystemRealTimeType>(
 7358              		.loc 4 183 33 view .LVU1797
 7359 03b2 88F87C71 		strb	r7, [r8, #380]
 182:../../libdaisy/src/hid/midi.h ****                                 incoming_message_.srt_type
 7360              		.loc 4 182 33 view .LVU1798
 7361 03b6 074F     		ldr	r7, .L505+4
 7362 03b8 3B70     		strb	r3, [r7]
 7363 03ba FFF7FEFF 		bl	memcpy
 7364              	.LVL555:
 7365              	.LBB1953:
 7366              	.LBI1953:
  44:../../libdaisy/src/util/ringbuffer.h ****     {
 7367              		.loc 25 44 17 is_stmt 1 view .LVU1799
 7368              	.L450:
 7369              	.LBB1954:
  46:../../libdaisy/src/util/ringbuffer.h ****             ;
 7370              		.loc 25 46 15 view .LVU1800
 7371              	.LBB1955:
 7372              	.LBI1955:
  30:../../libdaisy/src/util/ringbuffer.h ****     {
 7373              		.loc 25 30 19 view .LVU1801
 7374              	.LBB1956:
  32:../../libdaisy/src/util/ringbuffer.h ****     }
 7375              		.loc 25 32 17 is_stmt 0 view .LVU1802
 7376 03be 2368     		ldr	r3, [r4]
  32:../../libdaisy/src/util/ringbuffer.h ****     }
 7377              		.loc 25 32 29 view .LVU1803
ARM GAS  /tmp/ccoLrWzv.s 			page 230


 7378 03c0 2A68     		ldr	r2, [r5]
 7379              	.LVL556:
  32:../../libdaisy/src/util/ringbuffer.h ****     }
 7380              		.loc 25 32 40 view .LVU1804
 7381 03c2 013B     		subs	r3, r3, #1
 7382 03c4 9B1A     		subs	r3, r3, r2
 7383              	.LBE1956:
 7384              	.LBE1955:
  46:../../libdaisy/src/util/ringbuffer.h ****             ;
 7385              		.loc 25 46 15 view .LVU1805
 7386 03c6 13F0FF0F 		tst	r3, #255
 7387 03ca F8D0     		beq	.L450
 7388 03cc B7E7     		b	.L497
 7389              	.L506:
 7390 03ce 00BF     		.align	2
 7391              	.L505:
 7392 03d0 F0000000 		.word	hw+240
 7393 03d4 8C910000 		.word	hw+37260
 7394 03d8 A2910000 		.word	hw+37282
 7395              	.LBE1954:
 7396              	.LBE1953:
 7397              	.LBE1952:
 7398              	.LBE1951:
 7399              	.LBE1959:
 7400              	.LBE1974:
 7401              	.LBE1975:
 7402              	.LBE1993:
 7403              		.cfi_endproc
 7404              	.LFE4235:
 7406              		.section	.text.startup._GLOBAL__sub_I_hw,"ax",%progbits
 7407              		.align	1
 7408              		.p2align 2,,3
 7409              		.syntax unified
 7410              		.thumb
 7411              		.thumb_func
 7412              		.fpu fpv5-d16
 7414              	_GLOBAL__sub_I_hw:
 7415              	.LFB4843:
  97:Midi.cpp      ****         }
  98:Midi.cpp      ****     }
  99:Midi.cpp      **** }
 7416              		.loc 15 99 1 is_stmt 1 view -0
 7417              		.cfi_startproc
 7418              		@ args = 0, pretend = 0, frame = 0
 7419              		@ frame_needed = 0, uses_anonymous_args = 0
 7420              	.LBB2048:
 7421              	.LBI2048:
 7422              		.loc 15 99 1 view .LVU1807
 7423              	.LVL557:
 7424              	.LBB2049:
 7425              	.LBB2050:
 7426              	.LBI2050:
  39:../../libdaisy/src/daisy_patch.h ****     /** Destructor */
 7427              		.loc 1 39 5 view .LVU1808
 7428              	.LBB2051:
 7429              	.LBB2052:
 7430              	.LBI2052:
ARM GAS  /tmp/ccoLrWzv.s 			page 231


  21:../../libdaisy/src/daisy_seed.h ****     ~DaisySeed() {}
 7431              		.loc 7 21 5 view .LVU1809
 7432              	.LBB2053:
 7433              	.LBB2054:
 7434              	.LBI2054:
  62:../../libdaisy/src/hid/audio.h ****     ~AudioHandle() {}
 7435              		.loc 11 62 5 view .LVU1810
 7436              	.LBE2054:
 7437              	.LBE2053:
 7438              	.LBE2052:
 7439              	.LBB2075:
 7440              	.LBB2076:
 7441              	.LBB2077:
 7442              	.LBB2078:
 7443              	.LBB2079:
 7444              	.LBB2080:
 7445              	.LBB2081:
  36:../../libdaisy/src/hid/midi.h ****             tx     = {DSY_GPIOB, 6};
 7446              		.loc 4 36 20 is_stmt 0 view .LVU1811
 7447 0000 1C49     		ldr	r1, .L509
 7448              	.LBE2081:
 7449              	.LBE2080:
 7450              	.LBE2079:
 7451              	.LBE2078:
 7452              	.LBE2077:
 7453              	.LBE2076:
 7454              	.LBE2075:
 7455              	.LBB2122:
 7456              	.LBB2071:
 7457              	.LBB2061:
 7458              	.LBB2055:
 7459              	.LBB2056:
  62:../../libdaisy/src/hid/audio.h ****     ~AudioHandle() {}
 7460              		.loc 11 62 35 view .LVU1812
 7461 0002 1D48     		ldr	r0, .L509+4
 7462              	.LBE2056:
 7463              	.LBE2055:
 7464              	.LBE2061:
 7465              	.LBE2071:
 7466              	.LBE2122:
 7467              	.LBE2051:
 7468              	.LBE2050:
   8:Midi.cpp      **** Oscillator osc;
 7469              		.loc 15 8 12 view .LVU1813
 7470 0004 1D4A     		ldr	r2, .L509+8
 7471              	.LBE2049:
 7472              	.LBE2048:
 7473              		.loc 15 99 1 view .LVU1814
 7474 0006 F8B5     		push	{r3, r4, r5, r6, r7, lr}
 7475              		.cfi_def_cfa_offset 24
 7476              		.cfi_offset 3, -24
 7477              		.cfi_offset 4, -20
 7478              		.cfi_offset 5, -16
 7479              		.cfi_offset 6, -12
 7480              		.cfi_offset 7, -8
 7481              		.cfi_offset 14, -4
 7482              	.LBB2172:
ARM GAS  /tmp/ccoLrWzv.s 			page 232


 7483              	.LBB2169:
 7484              	.LBB2164:
 7485              	.LBB2161:
 7486              	.LBB2123:
 7487              	.LBB2117:
 7488              	.LBB2112:
 7489              	.LBB2094:
 7490              	.LBB2090:
 7491              	.LBB2086:
 7492              	.LBB2082:
  36:../../libdaisy/src/hid/midi.h ****             tx     = {DSY_GPIOB, 6};
 7493              		.loc 4 36 20 view .LVU1815
 7494 0008 0E88     		ldrh	r6, [r1]
 7495 000a 49F29415 		movw	r5, #37268
  37:../../libdaisy/src/hid/midi.h ****         }
 7496              		.loc 4 37 20 view .LVU1816
 7497 000e 8988     		ldrh	r1, [r1, #4]
 7498 0010 49F29614 		movw	r4, #37270
 7499              	.LBE2082:
 7500              	.LBE2086:
 7501              	.LBE2090:
 7502              	.LBE2094:
 7503              	.LBE2112:
 7504              	.LBE2117:
 7505              	.LBE2123:
 7506              	.LBB2124:
 7507              	.LBB2072:
 7508              	.LBB2062:
 7509              	.LBB2059:
 7510              	.LBB2057:
  62:../../libdaisy/src/hid/audio.h ****     ~AudioHandle() {}
 7511              		.loc 11 62 35 view .LVU1817
 7512 0014 0023     		movs	r3, #0
 7513              	.LBE2057:
 7514              	.LBE2059:
 7515              	.LBE2062:
 7516              	.LBE2072:
 7517              	.LBE2124:
 7518              	.LBB2125:
 7519              	.LBB2118:
 7520              	.LBB2113:
 7521              	.LBB2095:
 7522              	.LBB2091:
 7523              	.LBB2087:
 7524              	.LBB2083:
  36:../../libdaisy/src/hid/midi.h ****             tx     = {DSY_GPIOB, 6};
 7525              		.loc 4 36 20 view .LVU1818
 7526 0016 4653     		strh	r6, [r0, r5]	@ movhi
  37:../../libdaisy/src/hid/midi.h ****         }
 7527              		.loc 4 37 20 view .LVU1819
 7528 0018 0153     		strh	r1, [r0, r4]	@ movhi
 7529              	.LBE2083:
 7530              	.LBE2087:
 7531              	.LBE2091:
 7532              	.LBE2095:
 7533              	.LBB2096:
 7534              	.LBB2097:
ARM GAS  /tmp/ccoLrWzv.s 			page 233


 7535              	.LBB2098:
 7536              	.LBB2099:
 7537              		.file 26 "../../libdaisy/src/per/uart.h"
   1:../../libdaisy/src/per/uart.h **** /* 
   2:../../libdaisy/src/per/uart.h **** TODO
   3:../../libdaisy/src/per/uart.h **** - UART1 defaults to DMA, add flexible config for DMA on all periphs
   4:../../libdaisy/src/per/uart.h **** - Transmit function improvements.
   5:../../libdaisy/src/per/uart.h **** - Overflow handling, etc. for Rx Queue.
   6:../../libdaisy/src/per/uart.h **** */
   7:../../libdaisy/src/per/uart.h **** 
   8:../../libdaisy/src/per/uart.h **** #pragma once
   9:../../libdaisy/src/per/uart.h **** #ifndef DSY_UART_H
  10:../../libdaisy/src/per/uart.h **** #define DSY_UART_H /**< macro */
  11:../../libdaisy/src/per/uart.h **** #include "daisy_core.h"
  12:../../libdaisy/src/per/uart.h **** 
  13:../../libdaisy/src/per/uart.h **** 
  14:../../libdaisy/src/per/uart.h **** namespace daisy
  15:../../libdaisy/src/per/uart.h **** {
  16:../../libdaisy/src/per/uart.h **** /** @addtogroup serial
  17:../../libdaisy/src/per/uart.h ****     @{
  18:../../libdaisy/src/per/uart.h ****     */
  19:../../libdaisy/src/per/uart.h **** 
  20:../../libdaisy/src/per/uart.h **** /** 
  21:../../libdaisy/src/per/uart.h ****     Uart Peripheral
  22:../../libdaisy/src/per/uart.h ****     @author shensley
  23:../../libdaisy/src/per/uart.h ****     @date March 2020
  24:../../libdaisy/src/per/uart.h ****     */
  25:../../libdaisy/src/per/uart.h **** class UartHandler
  26:../../libdaisy/src/per/uart.h **** {
  27:../../libdaisy/src/per/uart.h ****   public:
  28:../../libdaisy/src/per/uart.h ****     struct Config
  29:../../libdaisy/src/per/uart.h ****     {
  30:../../libdaisy/src/per/uart.h ****         enum class Peripheral
  31:../../libdaisy/src/per/uart.h ****         {
  32:../../libdaisy/src/per/uart.h ****             USART_1,
  33:../../libdaisy/src/per/uart.h ****             USART_2,
  34:../../libdaisy/src/per/uart.h ****             USART_3,
  35:../../libdaisy/src/per/uart.h ****             UART_4,
  36:../../libdaisy/src/per/uart.h ****             UART_5,
  37:../../libdaisy/src/per/uart.h ****             USART_6,
  38:../../libdaisy/src/per/uart.h ****             UART_7,
  39:../../libdaisy/src/per/uart.h ****             UART_8,
  40:../../libdaisy/src/per/uart.h ****             LPUART_1,
  41:../../libdaisy/src/per/uart.h ****         };
  42:../../libdaisy/src/per/uart.h **** 
  43:../../libdaisy/src/per/uart.h ****         enum class StopBits
  44:../../libdaisy/src/per/uart.h ****         {
  45:../../libdaisy/src/per/uart.h ****             BITS_0_5,
  46:../../libdaisy/src/per/uart.h ****             BITS_1,
  47:../../libdaisy/src/per/uart.h ****             BITS_1_5,
  48:../../libdaisy/src/per/uart.h ****             BITS_2,
  49:../../libdaisy/src/per/uart.h ****         };
  50:../../libdaisy/src/per/uart.h **** 
  51:../../libdaisy/src/per/uart.h ****         enum class Parity
  52:../../libdaisy/src/per/uart.h ****         {
  53:../../libdaisy/src/per/uart.h ****             NONE,
  54:../../libdaisy/src/per/uart.h ****             EVEN,
ARM GAS  /tmp/ccoLrWzv.s 			page 234


  55:../../libdaisy/src/per/uart.h ****             ODD,
  56:../../libdaisy/src/per/uart.h ****         };
  57:../../libdaisy/src/per/uart.h **** 
  58:../../libdaisy/src/per/uart.h ****         enum class Mode
  59:../../libdaisy/src/per/uart.h ****         {
  60:../../libdaisy/src/per/uart.h ****             RX,
  61:../../libdaisy/src/per/uart.h ****             TX,
  62:../../libdaisy/src/per/uart.h ****             TX_RX,
  63:../../libdaisy/src/per/uart.h ****         };
  64:../../libdaisy/src/per/uart.h **** 
  65:../../libdaisy/src/per/uart.h ****         enum class WordLength
  66:../../libdaisy/src/per/uart.h ****         {
  67:../../libdaisy/src/per/uart.h ****             BITS_7,
  68:../../libdaisy/src/per/uart.h ****             BITS_8,
  69:../../libdaisy/src/per/uart.h ****             BITS_9,
  70:../../libdaisy/src/per/uart.h ****         };
  71:../../libdaisy/src/per/uart.h **** 
  72:../../libdaisy/src/per/uart.h ****         struct
  73:../../libdaisy/src/per/uart.h ****         {
  74:../../libdaisy/src/per/uart.h ****             dsy_gpio_pin tx; /**< & */
  75:../../libdaisy/src/per/uart.h ****             dsy_gpio_pin rx; /**< & */
  76:../../libdaisy/src/per/uart.h ****         } pin_config;        /**< & */
  77:../../libdaisy/src/per/uart.h **** 
  78:../../libdaisy/src/per/uart.h ****         Peripheral periph;
  79:../../libdaisy/src/per/uart.h ****         StopBits   stopbits;
  80:../../libdaisy/src/per/uart.h ****         Parity     parity;
  81:../../libdaisy/src/per/uart.h ****         Mode       mode;
  82:../../libdaisy/src/per/uart.h ****         WordLength wordlength;
  83:../../libdaisy/src/per/uart.h ****         uint32_t   baudrate;
  84:../../libdaisy/src/per/uart.h ****     };
  85:../../libdaisy/src/per/uart.h **** 
  86:../../libdaisy/src/per/uart.h **** 
  87:../../libdaisy/src/per/uart.h ****     UartHandler() : pimpl_(nullptr) {}
 7538              		.loc 26 87 35 view .LVU1820
 7539 001a 49F29815 		movw	r5, #37272
 7540              	.LBE2099:
 7541              	.LBE2098:
 7542              	.LBE2097:
 7543              	.LBE2096:
  82:../../libdaisy/src/hid/midi.h ****     ~MidiHandler() {}
 7544              		.loc 4 82 19 view .LVU1821
 7545 001e 49F2A011 		movw	r1, #37280
 7546 0022 4FF60F06 		movw	r6, #63503
 7547              	.LBB2104:
 7548              	.LBB2102:
 7549              	.LBB2101:
 7550              	.LBB2100:
 7551              		.loc 26 87 35 view .LVU1822
 7552 0026 4351     		str	r3, [r0, r5]
 7553              	.LBE2100:
 7554              	.LBE2101:
 7555              	.LBE2102:
 7556              	.LBE2104:
  82:../../libdaisy/src/hid/midi.h ****     ~MidiHandler() {}
 7557              		.loc 4 82 19 view .LVU1823
 7558 0028 49F29C14 		movw	r4, #37276
 7559 002c 4652     		strh	r6, [r0, r1]	@ movhi
ARM GAS  /tmp/ccoLrWzv.s 			page 235


 7560 002e 49F2A211 		movw	r1, #37282
 7561 0032 134D     		ldr	r5, .L509+12
 7562 0034 0726     		movs	r6, #7
 7563              	.LBB2105:
 7564              	.LBB2092:
 7565              	.LBB2088:
 7566              	.LBB2084:
  35:../../libdaisy/src/hid/midi.h ****             rx     = {DSY_GPIOB, 7};
 7567              		.loc 4 35 20 view .LVU1824
 7568 0036 49F29017 		movw	r7, #37264
 7569              	.LBE2084:
 7570              	.LBE2088:
 7571              	.LBE2092:
 7572              	.LBE2105:
 7573              	.LBE2113:
 7574              	.LBE2118:
 7575              	.LBE2125:
 7576              	.LBB2126:
 7577              	.LBB2073:
 7578              	.LBB2063:
 7579              	.LBB2060:
 7580              	.LBB2058:
  62:../../libdaisy/src/hid/audio.h ****     ~AudioHandle() {}
 7581              		.loc 11 62 35 view .LVU1825
 7582 003a 4361     		str	r3, [r0, #20]
 7583              	.LVL558:
  62:../../libdaisy/src/hid/audio.h ****     ~AudioHandle() {}
 7584              		.loc 11 62 35 view .LVU1826
 7585              	.LBE2058:
 7586              	.LBE2060:
 7587              	.LBE2063:
 7588              	.LBB2064:
 7589              	.LBI2064:
  84:../../libdaisy/src/per/adc.h ****     ~AdcHandle() {}
 7590              		.loc 10 84 5 is_stmt 1 view .LVU1827
  84:../../libdaisy/src/per/adc.h ****     ~AdcHandle() {}
 7591              		.loc 10 84 5 is_stmt 0 view .LVU1828
 7592              	.LBE2064:
 7593              	.LBB2065:
 7594              	.LBI2065:
 7595              		.file 27 "../../libdaisy/src/per/dac.h"
   1:../../libdaisy/src/per/dac.h **** #pragma once
   2:../../libdaisy/src/per/dac.h **** #ifndef DSY_DAC_H
   3:../../libdaisy/src/per/dac.h **** #define DSY_DAC_H
   4:../../libdaisy/src/per/dac.h **** 
   5:../../libdaisy/src/per/dac.h **** #include "daisy_core.h"
   6:../../libdaisy/src/per/dac.h **** 
   7:../../libdaisy/src/per/dac.h **** namespace daisy
   8:../../libdaisy/src/per/dac.h **** {
   9:../../libdaisy/src/per/dac.h **** /** DAC handle for Built-in DAC Peripheral 
  10:../../libdaisy/src/per/dac.h ****  ** 
  11:../../libdaisy/src/per/dac.h ****  ** For now only Normal Mode is supported,
  12:../../libdaisy/src/per/dac.h ****  ** Sample and hold mode provides reduced power consumption, but requires a bit more setup.
  13:../../libdaisy/src/per/dac.h ****  **
  14:../../libdaisy/src/per/dac.h ****  ** For now connecting the DAC through other internal periphearls is also not supported.
  15:../../libdaisy/src/per/dac.h ****  **
  16:../../libdaisy/src/per/dac.h ****  ** Since the DAC channels have dedicated pins we don't need to pass in a pin config like with
ARM GAS  /tmp/ccoLrWzv.s 			page 236


  17:../../libdaisy/src/per/dac.h ****  ** other modules. However, it is still important to not try to use the DAC pins for anything else.
  18:../../libdaisy/src/per/dac.h ****  ** DAC Channel 1 is on PA4, and DAC Channel 2 is on PA5
  19:../../libdaisy/src/per/dac.h ****  ***/
  20:../../libdaisy/src/per/dac.h **** class DacHandle
  21:../../libdaisy/src/per/dac.h **** {
  22:../../libdaisy/src/per/dac.h ****   public:
  23:../../libdaisy/src/per/dac.h ****     /** Return Values for the DacHandle class */
  24:../../libdaisy/src/per/dac.h ****     enum class Result
  25:../../libdaisy/src/per/dac.h ****     {
  26:../../libdaisy/src/per/dac.h ****         OK,
  27:../../libdaisy/src/per/dac.h ****         ERR,
  28:../../libdaisy/src/per/dac.h ****     };
  29:../../libdaisy/src/per/dac.h **** 
  30:../../libdaisy/src/per/dac.h ****     /** Selects which channel(s) will be configured for use. */
  31:../../libdaisy/src/per/dac.h ****     enum class Channel
  32:../../libdaisy/src/per/dac.h ****     {
  33:../../libdaisy/src/per/dac.h ****         ONE,
  34:../../libdaisy/src/per/dac.h ****         TWO,
  35:../../libdaisy/src/per/dac.h ****         BOTH,
  36:../../libdaisy/src/per/dac.h ****     };
  37:../../libdaisy/src/per/dac.h **** 
  38:../../libdaisy/src/per/dac.h ****     /** Sets the Mode for the DAC channels.
  39:../../libdaisy/src/per/dac.h ****      **
  40:../../libdaisy/src/per/dac.h ****      ** Polling mode uses the blocking mode to transmit a single value at a time.
  41:../../libdaisy/src/per/dac.h ****      **
  42:../../libdaisy/src/per/dac.h ****      ** DMA mode uses a buffer, and periodically transmits it triggering a 
  43:../../libdaisy/src/per/dac.h ****      ** callback to fill the buffer when it is ready for more samples.
  44:../../libdaisy/src/per/dac.h ****      ***/
  45:../../libdaisy/src/per/dac.h ****     enum class Mode
  46:../../libdaisy/src/per/dac.h ****     {
  47:../../libdaisy/src/per/dac.h ****         POLLING,
  48:../../libdaisy/src/per/dac.h ****         DMA,
  49:../../libdaisy/src/per/dac.h ****     };
  50:../../libdaisy/src/per/dac.h **** 
  51:../../libdaisy/src/per/dac.h ****     /** Sets the number of bits per sample transmitted out of the DAC.
  52:../../libdaisy/src/per/dac.h ****      ** The output range will be: 0V - VDDA
  53:../../libdaisy/src/per/dac.h ****      ** The resolution will be roughly: bitdepth / (VDDA - 0V) 
  54:../../libdaisy/src/per/dac.h ****      ***/
  55:../../libdaisy/src/per/dac.h ****     enum class BitDepth
  56:../../libdaisy/src/per/dac.h ****     {
  57:../../libdaisy/src/per/dac.h ****         BITS_8,
  58:../../libdaisy/src/per/dac.h ****         BITS_12
  59:../../libdaisy/src/per/dac.h ****     };
  60:../../libdaisy/src/per/dac.h **** 
  61:../../libdaisy/src/per/dac.h ****     /** Sets whether the DAC output is buffered for higher drive ability. */
  62:../../libdaisy/src/per/dac.h ****     enum class BufferState
  63:../../libdaisy/src/per/dac.h ****     {
  64:../../libdaisy/src/per/dac.h ****         ENABLED,
  65:../../libdaisy/src/per/dac.h ****         DISABLED,
  66:../../libdaisy/src/per/dac.h ****     };
  67:../../libdaisy/src/per/dac.h **** 
  68:../../libdaisy/src/per/dac.h ****     /** Configuration structure for initializing the DAC structure. */
  69:../../libdaisy/src/per/dac.h ****     struct Config
  70:../../libdaisy/src/per/dac.h ****     {
  71:../../libdaisy/src/per/dac.h ****         /** Target Samplerate in Hz used to configure the internal 
  72:../../libdaisy/src/per/dac.h ****          ** timebase for DMA mode. Does nothing in POLLING mode.
  73:../../libdaisy/src/per/dac.h ****          ** If the value is 0 at Init time this will default to 48000Hz 
ARM GAS  /tmp/ccoLrWzv.s 			page 237


  74:../../libdaisy/src/per/dac.h ****          ** otherwise the driver will attempt meet the target.*/
  75:../../libdaisy/src/per/dac.h ****         uint32_t target_samplerate;
  76:../../libdaisy/src/per/dac.h **** 
  77:../../libdaisy/src/per/dac.h ****         Channel     chn;
  78:../../libdaisy/src/per/dac.h ****         Mode        mode;
  79:../../libdaisy/src/per/dac.h ****         BitDepth    bitdepth;
  80:../../libdaisy/src/per/dac.h ****         BufferState buff_state;
  81:../../libdaisy/src/per/dac.h ****     };
  82:../../libdaisy/src/per/dac.h **** 
  83:../../libdaisy/src/per/dac.h ****     DacHandle() : pimpl_(nullptr) {}
 7596              		.loc 27 83 5 is_stmt 1 view .LVU1829
 7597              	.LBE2065:
 7598              	.LBE2073:
 7599              	.LBE2126:
 7600              	.LBB2127:
 7601              	.LBB2119:
 7602              	.LBB2114:
  82:../../libdaisy/src/hid/midi.h ****     ~MidiHandler() {}
 7603              		.loc 4 82 19 is_stmt 0 view .LVU1830
 7604 003c 0551     		str	r5, [r0, r4]
 7605              	.LBE2114:
 7606              	.LBE2119:
 7607              	.LBE2127:
 7608              	.LBB2128:
 7609              	.LBB2129:
 7610              	.LBB2130:
  16:../../libdaisy/src/hid/disp/oled_display.h ****     virtual ~OledDisplay() {}
 7611              		.loc 2 16 19 view .LVU1831
 7612 003e 49F2A414 		movw	r4, #37284
 7613              	.LBE2130:
 7614              	.LBE2129:
 7615              	.LBE2128:
 7616              	.LBB2152:
 7617              	.LBB2120:
 7618              	.LBB2115:
  82:../../libdaisy/src/hid/midi.h ****     ~MidiHandler() {}
 7619              		.loc 4 82 19 view .LVU1832
 7620 0042 4654     		strb	r6, [r0, r1]
 7621              	.LBE2115:
 7622              	.LBE2120:
 7623              	.LBE2152:
 7624              	.LBB2153:
 7625              	.LBB2149:
 7626              	.LBB2146:
 7627              	.LBB2131:
 7628              	.LBB2132:
 7629              	.LBB2133:
 7630              	.LBB2134:
 7631              	.LBB2135:
 7632              		.file 28 "../../libdaisy/src/per/spi.h"
   1:../../libdaisy/src/per/spi.h **** #pragma once
   2:../../libdaisy/src/per/spi.h **** #ifndef DSY_SPI_H
   3:../../libdaisy/src/per/spi.h **** #define DSY_SPI_H
   4:../../libdaisy/src/per/spi.h **** 
   5:../../libdaisy/src/per/spi.h **** #include "daisy_core.h"
   6:../../libdaisy/src/per/spi.h **** 
   7:../../libdaisy/src/per/spi.h **** /* TODO:
ARM GAS  /tmp/ccoLrWzv.s 			page 238


   8:../../libdaisy/src/per/spi.h **** - Add documentation
   9:../../libdaisy/src/per/spi.h **** - Add reception
  10:../../libdaisy/src/per/spi.h **** - Add IT
  11:../../libdaisy/src/per/spi.h **** - Add DMA
  12:../../libdaisy/src/per/spi.h **** */
  13:../../libdaisy/src/per/spi.h **** 
  14:../../libdaisy/src/per/spi.h **** namespace daisy
  15:../../libdaisy/src/per/spi.h **** {
  16:../../libdaisy/src/per/spi.h **** /** @addtogroup serial
  17:../../libdaisy/src/per/spi.h **** @{
  18:../../libdaisy/src/per/spi.h **** */
  19:../../libdaisy/src/per/spi.h **** 
  20:../../libdaisy/src/per/spi.h **** /**  Handler for serial peripheral interface */
  21:../../libdaisy/src/per/spi.h **** class SpiHandle
  22:../../libdaisy/src/per/spi.h **** {
  23:../../libdaisy/src/per/spi.h ****   public:
  24:../../libdaisy/src/per/spi.h ****     struct Config
  25:../../libdaisy/src/per/spi.h ****     {
  26:../../libdaisy/src/per/spi.h ****         enum class Peripheral
  27:../../libdaisy/src/per/spi.h ****         {
  28:../../libdaisy/src/per/spi.h ****             SPI_1,
  29:../../libdaisy/src/per/spi.h ****             SPI_2,
  30:../../libdaisy/src/per/spi.h ****             SPI_3,
  31:../../libdaisy/src/per/spi.h ****             SPI_4,
  32:../../libdaisy/src/per/spi.h ****             SPI_5,
  33:../../libdaisy/src/per/spi.h ****             SPI_6,
  34:../../libdaisy/src/per/spi.h ****         };
  35:../../libdaisy/src/per/spi.h **** 
  36:../../libdaisy/src/per/spi.h ****         enum class Mode
  37:../../libdaisy/src/per/spi.h ****         {
  38:../../libdaisy/src/per/spi.h ****             MASTER,
  39:../../libdaisy/src/per/spi.h ****             SLAVE,
  40:../../libdaisy/src/per/spi.h ****         };
  41:../../libdaisy/src/per/spi.h **** 
  42:../../libdaisy/src/per/spi.h ****         enum class Direction
  43:../../libdaisy/src/per/spi.h ****         {
  44:../../libdaisy/src/per/spi.h ****             TWO_LINES,
  45:../../libdaisy/src/per/spi.h ****             TWO_LINES_TX_ONLY,
  46:../../libdaisy/src/per/spi.h ****             TWO_LINES_RX_ONLY,
  47:../../libdaisy/src/per/spi.h ****             ONE_LINE,
  48:../../libdaisy/src/per/spi.h ****         };
  49:../../libdaisy/src/per/spi.h **** 
  50:../../libdaisy/src/per/spi.h ****         enum class ClockPolarity
  51:../../libdaisy/src/per/spi.h ****         {
  52:../../libdaisy/src/per/spi.h ****             LOW,
  53:../../libdaisy/src/per/spi.h ****             HIGH,
  54:../../libdaisy/src/per/spi.h ****         };
  55:../../libdaisy/src/per/spi.h **** 
  56:../../libdaisy/src/per/spi.h ****         enum class ClockPhase
  57:../../libdaisy/src/per/spi.h ****         {
  58:../../libdaisy/src/per/spi.h ****             ONE_EDGE,
  59:../../libdaisy/src/per/spi.h ****             TWO_EDGE,
  60:../../libdaisy/src/per/spi.h ****         };
  61:../../libdaisy/src/per/spi.h **** 
  62:../../libdaisy/src/per/spi.h ****         enum class NSS
  63:../../libdaisy/src/per/spi.h ****         {
  64:../../libdaisy/src/per/spi.h ****             SOFT,
ARM GAS  /tmp/ccoLrWzv.s 			page 239


  65:../../libdaisy/src/per/spi.h ****             HARD_INPUT,
  66:../../libdaisy/src/per/spi.h ****             HARD_OUTPUT,
  67:../../libdaisy/src/per/spi.h ****         };
  68:../../libdaisy/src/per/spi.h **** 
  69:../../libdaisy/src/per/spi.h ****         enum class BaudPrescaler
  70:../../libdaisy/src/per/spi.h ****         {
  71:../../libdaisy/src/per/spi.h ****             PS_2,
  72:../../libdaisy/src/per/spi.h ****             PS_4,
  73:../../libdaisy/src/per/spi.h ****             PS_8,
  74:../../libdaisy/src/per/spi.h ****             PS_16,
  75:../../libdaisy/src/per/spi.h ****             PS_32,
  76:../../libdaisy/src/per/spi.h ****             PS_64,
  77:../../libdaisy/src/per/spi.h ****             PS_128,
  78:../../libdaisy/src/per/spi.h ****             PS_256,
  79:../../libdaisy/src/per/spi.h ****         };
  80:../../libdaisy/src/per/spi.h **** 
  81:../../libdaisy/src/per/spi.h ****         struct
  82:../../libdaisy/src/per/spi.h ****         {
  83:../../libdaisy/src/per/spi.h ****             dsy_gpio_pin sclk; /**< & */
  84:../../libdaisy/src/per/spi.h ****             dsy_gpio_pin miso; /**< & */
  85:../../libdaisy/src/per/spi.h ****             dsy_gpio_pin mosi; /**< & */
  86:../../libdaisy/src/per/spi.h ****             dsy_gpio_pin nss;  /**< & */
  87:../../libdaisy/src/per/spi.h ****         } pin_config;
  88:../../libdaisy/src/per/spi.h **** 
  89:../../libdaisy/src/per/spi.h ****         Peripheral    periph;
  90:../../libdaisy/src/per/spi.h ****         Mode          mode;
  91:../../libdaisy/src/per/spi.h ****         Direction     direction;
  92:../../libdaisy/src/per/spi.h ****         unsigned long datasize;
  93:../../libdaisy/src/per/spi.h ****         ClockPolarity clock_polarity;
  94:../../libdaisy/src/per/spi.h ****         ClockPhase    clock_phase;
  95:../../libdaisy/src/per/spi.h ****         NSS           nss;
  96:../../libdaisy/src/per/spi.h ****         BaudPrescaler baud_prescaler;
  97:../../libdaisy/src/per/spi.h ****     };
  98:../../libdaisy/src/per/spi.h **** 
  99:../../libdaisy/src/per/spi.h ****     SpiHandle() : pimpl_(nullptr) {}
 7633              		.loc 28 99 33 view .LVU1833
 7634 0044 49F2AC11 		movw	r1, #37292
 7635              	.LBE2135:
 7636              	.LBE2134:
 7637              	.LBE2133:
 7638              	.LBE2132:
 7639              	.LBE2131:
  16:../../libdaisy/src/hid/disp/oled_display.h ****     virtual ~OledDisplay() {}
 7640              		.loc 2 16 19 view .LVU1834
 7641 0048 0E4D     		ldr	r5, .L509+16
 7642              	.LBB2142:
 7643              	.LBB2140:
 7644              	.LBB2138:
 7645              	.LBB2137:
 7646              	.LBB2136:
 7647              		.loc 28 99 33 view .LVU1835
 7648 004a 4350     		str	r3, [r0, r1]
 7649              	.LBE2136:
 7650              	.LBE2137:
 7651              	.LBE2138:
 7652              	.LBE2140:
 7653              	.LBE2142:
ARM GAS  /tmp/ccoLrWzv.s 			page 240


 7654              	.LBE2146:
 7655              	.LBE2149:
 7656              	.LBE2153:
 7657              	.LBB2154:
 7658              	.LBB2074:
 7659              	.LBB2068:
 7660              	.LBB2066:
 7661              	.LBB2067:
 7662              		.loc 27 83 33 view .LVU1836
 7663 004c 0362     		str	r3, [r0, #32]
 7664              	.LVL559:
 7665              		.loc 27 83 33 view .LVU1837
 7666              	.LBE2067:
 7667              	.LBE2066:
 7668              	.LBE2068:
 7669              	.LBB2069:
 7670              	.LBI2069:
  40:../../libdaisy/src/hid/usb.h **** 
 7671              		.loc 9 40 5 is_stmt 1 view .LVU1838
  40:../../libdaisy/src/hid/usb.h **** 
 7672              		.loc 9 40 5 is_stmt 0 view .LVU1839
 7673              	.LBE2069:
 7674              	.LBB2070:
 7675              	.LBI2070:
  58:../../libdaisy/src/sys/system.h ****     ~System() {}
 7676              		.loc 8 58 5 is_stmt 1 view .LVU1840
  58:../../libdaisy/src/sys/system.h ****     ~System() {}
 7677              		.loc 8 58 5 is_stmt 0 view .LVU1841
 7678              	.LBE2070:
 7679              	.LBE2074:
 7680              	.LBE2154:
 7681              	.LBB2155:
 7682              	.LBI2155:
  20:../../libdaisy/src/hid/encoder.h ****     ~Encoder() {}
 7683              		.loc 5 20 5 is_stmt 1 view .LVU1842
 7684              	.LBB2156:
 7685              	.LBB2157:
 7686              	.LBI2157:
  40:../../libdaisy/src/hid/switch.h ****     ~Switch() {}
 7687              		.loc 6 40 5 view .LVU1843
  40:../../libdaisy/src/hid/switch.h ****     ~Switch() {}
 7688              		.loc 6 40 5 is_stmt 0 view .LVU1844
 7689              	.LBE2157:
 7690              	.LBE2156:
 7691              	.LBE2155:
 7692              	.LBE2161:
 7693              	.LBE2164:
 7694              	.LBE2169:
 7695              	.LBE2172:
  39:../../libdaisy/src/daisy_patch.h ****     /** Destructor */
 7696              		.loc 1 39 18 is_stmt 1 view .LVU1845
  39:../../libdaisy/src/daisy_patch.h ****     /** Destructor */
 7697              		.loc 1 39 18 view .LVU1846
 7698              	.LBB2173:
 7699              	.LBB2170:
 7700              	.LBB2165:
 7701              	.LBB2162:
ARM GAS  /tmp/ccoLrWzv.s 			page 241


 7702              	.LBB2158:
 7703              	.LBI2075:
  82:../../libdaisy/src/hid/midi.h ****     ~MidiHandler() {}
 7704              		.loc 4 82 5 view .LVU1847
 7705              	.LBB2121:
 7706              	.LBB2116:
 7707              	.LBB2106:
 7708              	.LBI2106:
 7709              		.loc 26 87 5 view .LVU1848
 7710              	.LBB2107:
 7711              	.LBB2108:
 7712              		.loc 26 87 35 is_stmt 0 view .LVU1849
 7713 004e C0F8E830 		str	r3, [r0, #232]
 7714              	.LVL560:
 7715              		.loc 26 87 35 view .LVU1850
 7716              	.LBE2108:
 7717              	.LBE2107:
 7718              	.LBE2106:
 7719              	.LBB2109:
 7720              	.LBI2109:
  21:../../libdaisy/src/util/ringbuffer.h **** 
 7721              		.loc 25 21 5 is_stmt 1 view .LVU1851
  21:../../libdaisy/src/util/ringbuffer.h **** 
 7722              		.loc 25 21 5 is_stmt 0 view .LVU1852
 7723              	.LBE2109:
 7724              	.LBB2110:
 7725              	.LBI2078:
  85:../../libdaisy/src/hid/midi.h ****     {
 7726              		.loc 4 85 12 is_stmt 1 view .LVU1853
 7727              	.LBB2093:
 7728              	.LBI2079:
  33:../../libdaisy/src/hid/midi.h ****         {
 7729              		.loc 4 33 9 view .LVU1854
 7730              	.LBB2089:
 7731              	.LBB2085:
  35:../../libdaisy/src/hid/midi.h ****             rx     = {DSY_GPIOB, 7};
 7732              		.loc 4 35 13 view .LVU1855
  35:../../libdaisy/src/hid/midi.h ****             rx     = {DSY_GPIOB, 7};
 7733              		.loc 4 35 20 is_stmt 0 view .LVU1856
 7734 0052 C351     		str	r3, [r0, r7]
  36:../../libdaisy/src/hid/midi.h ****             tx     = {DSY_GPIOB, 6};
 7735              		.loc 4 36 13 is_stmt 1 view .LVU1857
  37:../../libdaisy/src/hid/midi.h ****         }
 7736              		.loc 4 37 13 view .LVU1858
 7737              	.LVL561:
  37:../../libdaisy/src/hid/midi.h ****         }
 7738              		.loc 4 37 13 is_stmt 0 view .LVU1859
 7739              	.LBE2085:
 7740              	.LBE2089:
 7741              	.LBE2093:
 7742              	.LBE2110:
 7743              	.LBB2111:
 7744              	.LBI2096:
  24:../../libdaisy/src/hid/midi.h ****     ~MidiUartTransport() {}
 7745              		.loc 4 24 5 is_stmt 1 view .LVU1860
 7746              	.LBB2103:
 7747              	.LBI2097:
ARM GAS  /tmp/ccoLrWzv.s 			page 242


 7748              		.loc 26 87 5 view .LVU1861
 7749              		.loc 26 87 5 is_stmt 0 view .LVU1862
 7750              	.LBE2103:
 7751              	.LBE2111:
 7752              	.LBE2116:
 7753              	.LBE2121:
 7754              	.LBE2158:
 7755              	.LBB2159:
 7756              	.LBI2128:
  16:../../libdaisy/src/hid/disp/oled_display.h ****     virtual ~OledDisplay() {}
 7757              		.loc 2 16 5 is_stmt 1 view .LVU1863
 7758              	.LBB2150:
 7759              	.LBB2147:
 7760              	.LBB2143:
 7761              	.LBI2143:
 218:../../libdaisy/src/hid/disp/display.h ****     virtual ~OneBitGraphicsDisplayImpl() {}
 7762              		.loc 3 218 5 view .LVU1864
 7763              	.LBB2144:
 7764              	.LBI2144:
  22:../../libdaisy/src/hid/disp/display.h ****     virtual ~OneBitGraphicsDisplay() {}
 7765              		.loc 3 22 5 view .LVU1865
  22:../../libdaisy/src/hid/disp/display.h ****     virtual ~OneBitGraphicsDisplay() {}
 7766              		.loc 3 22 5 is_stmt 0 view .LVU1866
 7767              	.LBE2144:
 7768              	.LBE2143:
 7769              	.LBE2147:
 7770              	.LBE2150:
 7771              	.LBE2159:
 7772              	.LBE2162:
 7773              	.LBE2165:
   8:Midi.cpp      **** Oscillator osc;
 7774              		.loc 15 8 12 view .LVU1867
 7775 0054 0C49     		ldr	r1, .L509+20
 7776              	.LBB2166:
 7777              	.LBB2163:
 7778              	.LBB2160:
 7779              	.LBB2151:
 7780              	.LBB2148:
  16:../../libdaisy/src/hid/disp/oled_display.h ****     virtual ~OledDisplay() {}
 7781              		.loc 2 16 19 view .LVU1868
 7782 0056 0551     		str	r5, [r0, r4]
 7783              	.LVL562:
 7784              	.LBB2145:
 7785              	.LBI2131:
 132:../../libdaisy/src/dev/oled_ssd130x.h **** {
 7786              		.loc 14 132 7 is_stmt 1 view .LVU1869
 7787              	.LBB2141:
 7788              	.LBI2132:
  60:../../libdaisy/src/dev/oled_ssd130x.h **** {
 7789              		.loc 14 60 7 view .LVU1870
 7790              	.LBB2139:
 7791              	.LBI2133:
 7792              		.loc 28 99 5 view .LVU1871
 7793              		.loc 28 99 5 is_stmt 0 view .LVU1872
 7794              	.LBE2139:
 7795              	.LBE2141:
 7796              	.LBE2145:
ARM GAS  /tmp/ccoLrWzv.s 			page 243


 7797              	.LBE2148:
 7798              	.LBE2151:
 7799              	.LBE2160:
 7800              	.LBE2163:
 7801              	.LBE2166:
   8:Midi.cpp      **** Oscillator osc;
 7802              		.loc 15 8 12 view .LVU1873
 7803 0058 FFF7FEFF 		bl	__aeabi_atexit
 7804              	.LVL563:
 7805              	.LBB2167:
 7806              	.LBI2167:
  15:../../DaisySP/Source/Synthesis/oscillator.h ****     ~Oscillator() {}
 7807              		.loc 12 15 5 is_stmt 1 view .LVU1874
  15:../../DaisySP/Source/Synthesis/oscillator.h ****     ~Oscillator() {}
 7808              		.loc 12 15 5 is_stmt 0 view .LVU1875
 7809              	.LBE2167:
   9:Midi.cpp      **** Svf        filt;
 7810              		.loc 15 9 12 view .LVU1876
 7811 005c 074A     		ldr	r2, .L509+8
 7812 005e 0B49     		ldr	r1, .L509+24
 7813 0060 0B48     		ldr	r0, .L509+28
 7814 0062 FFF7FEFF 		bl	__aeabi_atexit
 7815              	.LVL564:
 7816              	.LBB2168:
 7817              	.LBI2168:
  21:../../DaisySP/Source/Filters/svf.h ****     ~Svf() {}
 7818              		.loc 13 21 5 is_stmt 1 view .LVU1877
  21:../../DaisySP/Source/Filters/svf.h ****     ~Svf() {}
 7819              		.loc 13 21 5 is_stmt 0 view .LVU1878
 7820              	.LBE2168:
  10:Midi.cpp      **** 
 7821              		.loc 15 10 12 view .LVU1879
 7822 0066 054A     		ldr	r2, .L509+8
 7823 0068 0A49     		ldr	r1, .L509+32
 7824 006a 0B48     		ldr	r0, .L509+36
 7825              	.LBE2170:
 7826              	.LBE2173:
 7827              		.loc 15 99 1 view .LVU1880
 7828 006c BDE8F840 		pop	{r3, r4, r5, r6, r7, lr}
 7829              		.cfi_restore 14
 7830              		.cfi_restore 7
 7831              		.cfi_restore 6
 7832              		.cfi_restore 5
 7833              		.cfi_restore 4
 7834              		.cfi_restore 3
 7835              		.cfi_def_cfa_offset 0
 7836              	.LBB2174:
 7837              	.LBB2171:
  10:Midi.cpp      **** 
 7838              		.loc 15 10 12 view .LVU1881
 7839 0070 FFF7FEBF 		b	__aeabi_atexit
 7840              	.LVL565:
 7841              	.L510:
 7842              		.align	2
 7843              	.L509:
 7844 0074 00000000 		.word	.LANCHOR2
 7845 0078 00000000 		.word	hw
ARM GAS  /tmp/ccoLrWzv.s 			page 244


 7846 007c 00000000 		.word	__dso_handle
 7847 0080 80707FF0 		.word	-260083584
 7848 0084 08000000 		.word	_ZTVN5daisy11OledDisplayINS_13SSD130xDriverILj128ELj64ENS_24SSD130x4WireSpiTransportEEEEE+8
 7849 0088 00000000 		.word	_ZN5daisy10DaisyPatchD1Ev
 7850 008c 00000000 		.word	_ZN7daisysp10OscillatorD1Ev
 7851 0090 00000000 		.word	.LANCHOR0
 7852 0094 00000000 		.word	_ZN7daisysp3SvfD1Ev
 7853 0098 00000000 		.word	.LANCHOR1
 7854              	.LBE2171:
 7855              	.LBE2174:
 7856              		.cfi_endproc
 7857              	.LFE4843:
 7859              		.section	.init_array,"aw",%init_array
 7860              		.align	2
 7861 0000 00000000 		.word	_GLOBAL__sub_I_hw(target1)
 7862              		.weak	_ZTSN5daisy21OneBitGraphicsDisplayE
 7863              		.section	.rodata._ZTSN5daisy21OneBitGraphicsDisplayE,"aG",%progbits,_ZTSN5daisy21OneBitGraphicsDis
 7864              		.align	2
 7867              	_ZTSN5daisy21OneBitGraphicsDisplayE:
 7868 0000 4E356461 		.ascii	"N5daisy21OneBitGraphicsDisplayE\000"
 7868      69737932 
 7868      314F6E65 
 7868      42697447 
 7868      72617068 
 7869              		.weak	_ZTIN5daisy21OneBitGraphicsDisplayE
 7870              		.section	.rodata._ZTIN5daisy21OneBitGraphicsDisplayE,"aG",%progbits,_ZTIN5daisy21OneBitGraphicsDis
 7871              		.align	2
 7874              	_ZTIN5daisy21OneBitGraphicsDisplayE:
 7875 0000 08000000 		.word	_ZTVN10__cxxabiv117__class_type_infoE+8
 7876 0004 00000000 		.word	_ZTSN5daisy21OneBitGraphicsDisplayE
 7877              		.weak	_ZTSN5daisy25OneBitGraphicsDisplayImplINS_11OledDisplayINS_13SSD130xDriverILj128ELj64ENS_24S
 7878              		.section	.rodata._ZTSN5daisy25OneBitGraphicsDisplayImplINS_11OledDisplayINS_13SSD130xDriverILj128E
 7879              		.align	2
 7882              	_ZTSN5daisy25OneBitGraphicsDisplayImplINS_11OledDisplayINS_13SSD130xDriverILj128ELj64ENS_24SSD130x4
 7883 0000 4E356461 		.ascii	"N5daisy25OneBitGraphicsDisplayImplINS_11OledDisplay"
 7883      69737932 
 7883      354F6E65 
 7883      42697447 
 7883      72617068 
 7884 0033 494E535F 		.ascii	"INS_13SSD130xDriverILj128ELj64ENS_24SSD130x4WireSpi"
 7884      31335353 
 7884      44313330 
 7884      78447269 
 7884      76657249 
 7885 0066 5472616E 		.ascii	"TransportEEEEEEE\000"
 7885      73706F72 
 7885      74454545 
 7885      45454545 
 7885      00
 7886              		.weak	_ZTIN5daisy25OneBitGraphicsDisplayImplINS_11OledDisplayINS_13SSD130xDriverILj128ELj64ENS_24S
 7887              		.section	.rodata._ZTIN5daisy25OneBitGraphicsDisplayImplINS_11OledDisplayINS_13SSD130xDriverILj128E
 7888              		.align	2
 7891              	_ZTIN5daisy25OneBitGraphicsDisplayImplINS_11OledDisplayINS_13SSD130xDriverILj128ELj64ENS_24SSD130x4
 7892 0000 08000000 		.word	_ZTVN10__cxxabiv120__si_class_type_infoE+8
 7893 0004 00000000 		.word	_ZTSN5daisy25OneBitGraphicsDisplayImplINS_11OledDisplayINS_13SSD130xDriverILj128ELj64ENS_24S
 7894 0008 00000000 		.word	_ZTIN5daisy21OneBitGraphicsDisplayE
 7895              		.weak	_ZTSN5daisy11OledDisplayINS_13SSD130xDriverILj128ELj64ENS_24SSD130x4WireSpiTransportEEEEE
ARM GAS  /tmp/ccoLrWzv.s 			page 245


 7896              		.section	.rodata._ZTSN5daisy11OledDisplayINS_13SSD130xDriverILj128ELj64ENS_24SSD130x4WireSpiTransp
 7897              		.align	2
 7900              	_ZTSN5daisy11OledDisplayINS_13SSD130xDriverILj128ELj64ENS_24SSD130x4WireSpiTransportEEEEE:
 7901 0000 4E356461 		.ascii	"N5daisy11OledDisplayINS_13SSD130xDriverILj128ELj64E"
 7901      69737931 
 7901      314F6C65 
 7901      64446973 
 7901      706C6179 
 7902 0033 4E535F32 		.ascii	"NS_24SSD130x4WireSpiTransportEEEEE\000"
 7902      34535344 
 7902      31333078 
 7902      34576972 
 7902      65537069 
 7903              		.weak	_ZTIN5daisy11OledDisplayINS_13SSD130xDriverILj128ELj64ENS_24SSD130x4WireSpiTransportEEEEE
 7904              		.section	.rodata._ZTIN5daisy11OledDisplayINS_13SSD130xDriverILj128ELj64ENS_24SSD130x4WireSpiTransp
 7905              		.align	2
 7908              	_ZTIN5daisy11OledDisplayINS_13SSD130xDriverILj128ELj64ENS_24SSD130x4WireSpiTransportEEEEE:
 7909 0000 08000000 		.word	_ZTVN10__cxxabiv120__si_class_type_infoE+8
 7910 0004 00000000 		.word	_ZTSN5daisy11OledDisplayINS_13SSD130xDriverILj128ELj64ENS_24SSD130x4WireSpiTransportEEEEE
 7911 0008 00000000 		.word	_ZTIN5daisy25OneBitGraphicsDisplayImplINS_11OledDisplayINS_13SSD130xDriverILj128ELj64ENS_24S
 7912              		.weak	_ZTVN5daisy11OledDisplayINS_13SSD130xDriverILj128ELj64ENS_24SSD130x4WireSpiTransportEEEEE
 7913              		.section	.rodata._ZTVN5daisy11OledDisplayINS_13SSD130xDriverILj128ELj64ENS_24SSD130x4WireSpiTransp
 7914              		.align	2
 7917              	_ZTVN5daisy11OledDisplayINS_13SSD130xDriverILj128ELj64ENS_24SSD130x4WireSpiTransportEEEEE:
 7918 0000 00000000 		.word	0
 7919 0004 00000000 		.word	_ZTIN5daisy11OledDisplayINS_13SSD130xDriverILj128ELj64ENS_24SSD130x4WireSpiTransportEEEEE
 7920 0008 00000000 		.word	_ZN5daisy11OledDisplayINS_13SSD130xDriverILj128ELj64ENS_24SSD130x4WireSpiTransportEEEED1Ev
 7921 000c 00000000 		.word	_ZN5daisy11OledDisplayINS_13SSD130xDriverILj128ELj64ENS_24SSD130x4WireSpiTransportEEEED0Ev
 7922 0010 00000000 		.word	_ZNK5daisy11OledDisplayINS_13SSD130xDriverILj128ELj64ENS_24SSD130x4WireSpiTransportEEEE6Heig
 7923 0014 00000000 		.word	_ZNK5daisy11OledDisplayINS_13SSD130xDriverILj128ELj64ENS_24SSD130x4WireSpiTransportEEEE5Widt
 7924 0018 00000000 		.word	_ZN5daisy11OledDisplayINS_13SSD130xDriverILj128ELj64ENS_24SSD130x4WireSpiTransportEEEE4FillE
 7925 001c 00000000 		.word	_ZN5daisy11OledDisplayINS_13SSD130xDriverILj128ELj64ENS_24SSD130x4WireSpiTransportEEEE9DrawP
 7926 0020 00000000 		.word	_ZN5daisy25OneBitGraphicsDisplayImplINS_11OledDisplayINS_13SSD130xDriverILj128ELj64ENS_24SSD
 7927 0024 00000000 		.word	_ZN5daisy25OneBitGraphicsDisplayImplINS_11OledDisplayINS_13SSD130xDriverILj128ELj64ENS_24SSD
 7928 0028 00000000 		.word	_ZN5daisy25OneBitGraphicsDisplayImplINS_11OledDisplayINS_13SSD130xDriverILj128ELj64ENS_24SSD
 7929 002c 00000000 		.word	_ZN5daisy25OneBitGraphicsDisplayImplINS_11OledDisplayINS_13SSD130xDriverILj128ELj64ENS_24SSD
 7930 0030 00000000 		.word	_ZN5daisy25OneBitGraphicsDisplayImplINS_11OledDisplayINS_13SSD130xDriverILj128ELj64ENS_24SSD
 7931 0034 00000000 		.word	_ZN5daisy25OneBitGraphicsDisplayImplINS_11OledDisplayINS_13SSD130xDriverILj128ELj64ENS_24SSD
 7932 0038 00000000 		.word	_ZN5daisy11OledDisplayINS_13SSD130xDriverILj128ELj64ENS_24SSD130x4WireSpiTransportEEEE6Updat
 7933              		.global	filt
 7934              		.global	osc
 7935              		.global	hw
 7936              		.section	.rodata
 7937              		.align	2
 7938              		.set	.LANCHOR2,. + 0
 7939              	.LC0:
 7940 0000 01       		.byte	1
 7941 0001 07       		.byte	7
 7942 0002 0000     		.space	2
 7943              	.LC1:
 7944 0004 01       		.byte	1
 7945 0005 06       		.byte	6
 7946              		.section	.bss.filt,"aw",%nobits
 7947              		.align	2
 7948              		.set	.LANCHOR1,. + 0
 7951              	filt:
 7952 0000 00000000 		.space	76
ARM GAS  /tmp/ccoLrWzv.s 			page 246


 7952      00000000 
 7952      00000000 
 7952      00000000 
 7952      00000000 
 7953              		.section	.bss.hw,"aw",%nobits
 7954              		.align	2
 7957              	hw:
 7958 0000 00000000 		.space	38340
 7958      00000000 
 7958      00000000 
 7958      00000000 
 7958      00000000 
 7959              		.section	.bss.osc,"aw",%nobits
 7960              		.align	2
 7961              		.set	.LANCHOR0,. + 0
 7964              	osc:
 7965 0000 00000000 		.space	40
 7965      00000000 
 7965      00000000 
 7965      00000000 
 7965      00000000 
 7966              		.text
 7967              	.Letext0:
 7968              		.file 29 "/usr/lib/gcc/arm-none-eabi/9.2.1/include/stdint.h"
 7969              		.file 30 "../../libdaisy/Drivers/CMSIS/Include/core_cm7.h"
 7970              		.file 31 "../../libdaisy/Drivers/CMSIS/Device/ST/STM32H7xx/Include/system_stm32h7xx.h"
 7971              		.file 32 "/usr/lib/gcc/arm-none-eabi/9.2.1/include/stddef.h"
 7972              		.file 33 "/usr/include/newlib/c++/9.2.1/bits/std_abs.h"
 7973              		.file 34 "/usr/include/newlib/c++/9.2.1/cstdlib"
 7974              		.file 35 "/usr/include/newlib/c++/9.2.1/cstdint"
 7975              		.file 36 "/usr/include/newlib/c++/9.2.1/type_traits"
 7976              		.file 37 "/usr/include/newlib/c++/9.2.1/arm-none-eabi/thumb/v7e-m+dp/hard/bits/c++config.h"
 7977              		.file 38 "/usr/include/newlib/c++/9.2.1/bits/stl_pair.h"
 7978              		.file 39 "/usr/include/newlib/c++/9.2.1/bits/cpp_type_traits.h"
 7979              		.file 40 "/usr/include/newlib/c++/9.2.1/bits/stl_iterator_base_types.h"
 7980              		.file 41 "/usr/include/newlib/c++/9.2.1/debug/debug.h"
 7981              		.file 42 "/usr/include/newlib/c++/9.2.1/bits/algorithmfwd.h"
 7982              		.file 43 "/usr/include/newlib/c++/9.2.1/bits/exception_ptr.h"
 7983              		.file 44 "/usr/include/newlib/c++/9.2.1/new"
 7984              		.file 45 "/usr/include/newlib/c++/9.2.1/cstdarg"
 7985              		.file 46 "/usr/include/newlib/c++/9.2.1/cstdio"
 7986              		.file 47 "/usr/include/newlib/c++/9.2.1/cwchar"
 7987              		.file 48 "/usr/include/newlib/c++/9.2.1/clocale"
 7988              		.file 49 "/usr/include/newlib/c++/9.2.1/bits/alloc_traits.h"
 7989              		.file 50 "/usr/include/newlib/c++/9.2.1/initializer_list"
 7990              		.file 51 "/usr/include/newlib/c++/9.2.1/bits/stringfwd.h"
 7991              		.file 52 "/usr/include/newlib/c++/9.2.1/bits/uniform_int_dist.h"
 7992              		.file 53 "/usr/include/newlib/c++/9.2.1/bits/random.h"
 7993              		.file 54 "/usr/include/newlib/c++/9.2.1/cstring"
 7994              		.file 55 "/usr/include/newlib/c++/9.2.1/bits/ptr_traits.h"
 7995              		.file 56 "/usr/include/newlib/c++/9.2.1/bits/stl_iterator_base_funcs.h"
 7996              		.file 57 "/usr/include/newlib/c++/9.2.1/bits/move.h"
 7997              		.file 58 "/usr/include/newlib/c++/9.2.1/bits/predefined_ops.h"
 7998              		.file 59 "/usr/include/newlib/c++/9.2.1/ext/numeric_traits.h"
 7999              		.file 60 "/usr/include/newlib/c++/9.2.1/ext/alloc_traits.h"
 8000              		.file 61 "/usr/include/newlib/c++/9.2.1/bits/stl_iterator.h"
 8001              		.file 62 "/usr/include/newlib/c++/9.2.1/ext/type_traits.h"
ARM GAS  /tmp/ccoLrWzv.s 			page 247


 8002              		.file 63 "/usr/include/newlib/sys/_types.h"
 8003              		.file 64 "/usr/include/newlib/sys/reent.h"
 8004              		.file 65 "/usr/include/newlib/sys/lock.h"
 8005              		.file 66 "/usr/include/newlib/math.h"
 8006              		.file 67 "/usr/include/newlib/stdlib.h"
 8007              		.file 68 "/usr/include/newlib/c++/9.2.1/math.h"
 8008              		.file 69 "../../libdaisy/Drivers/STM32H7xx_HAL_Driver/Inc/stm32h7xx_hal_def.h"
 8009              		.file 70 "../../libdaisy/Drivers/STM32H7xx_HAL_Driver/Inc/stm32h7xx_hal_flash.h"
 8010              		.file 71 "/usr/include/newlib/c++/9.2.1/stdlib.h"
 8011              		.file 72 "../../libdaisy/src/daisy_core.h"
 8012              		.file 73 "../../libdaisy/src/per/tim.h"
 8013              		.file 74 "../../libdaisy/src/per/sai.h"
 8014              		.file 75 "../../libdaisy/src/hid/ctrl.h"
 8015              		.file 76 "../../libdaisy/src/hid/gatein.h"
 8016              		.file 77 "../../libdaisy/src/hid/logger_impl.h"
 8017              		.file 78 "../../libdaisy/src/util/wav_format.h"
 8018              		.file 79 "../../libdaisy/src/per/qspi.h"
 8019              		.file 80 "../../libdaisy/src/per/gpio.h"
 8020              		.file 81 "../../libdaisy/src/dev/sdram.h"
 8021              		.file 82 "/usr/lib/gcc/arm-none-eabi/9.2.1/include/stdarg.h"
 8022              		.file 83 "/usr/include/newlib/stdio.h"
 8023              		.file 84 "/usr/include/newlib/sys/unistd.h"
 8024              		.file 85 "../../libdaisy/src/util/oled_fonts.h"
 8025              		.file 86 "../../libdaisy/Middlewares/Third_Party/FatFs/src/integer.h"
 8026              		.file 87 "../../libdaisy/Middlewares/Third_Party/FatFs/src/ff.h"
 8027              		.file 88 "../../libdaisy/Middlewares/Third_Party/FatFs/src/diskio.h"
 8028              		.file 89 "../../libdaisy/Middlewares/Third_Party/FatFs/src/ff_gen_drv.h"
 8029              		.file 90 "../../libdaisy/src/util/sd_diskio.h"
 8030              		.file 91 "../../libdaisy/src/sys/fatfs.h"
 8031              		.file 92 "../../DaisySP/Source/Control/adenv.h"
 8032              		.file 93 "/usr/include/newlib/wchar.h"
 8033              		.file 94 "/usr/include/newlib/locale.h"
 8034              		.file 95 "/usr/include/newlib/ctype.h"
 8035              		.file 96 "/usr/include/newlib/sys/errno.h"
 8036              		.file 97 "/usr/include/newlib/string.h"
 8037              		.file 98 "<built-in>"
 8038              		.file 99 "../../libdaisy/src/dev/sr_595.h"
ARM GAS  /tmp/ccoLrWzv.s 			page 248


DEFINED SYMBOLS
                            *ABS*:0000000000000000 Midi.cpp
     /tmp/ccoLrWzv.s:17     .text._ZN5daisy10DaisyPatchD2Ev:0000000000000000 $t
     /tmp/ccoLrWzv.s:26     .text._ZN5daisy10DaisyPatchD2Ev:0000000000000000 _ZN5daisy10DaisyPatchD2Ev
     /tmp/ccoLrWzv.s:26     .text._ZN5daisy10DaisyPatchD2Ev:0000000000000000 _ZN5daisy10DaisyPatchD1Ev
     /tmp/ccoLrWzv.s:108    .text._ZN7daisysp10OscillatorD2Ev:0000000000000000 $t
     /tmp/ccoLrWzv.s:116    .text._ZN7daisysp10OscillatorD2Ev:0000000000000000 _ZN7daisysp10OscillatorD2Ev
     /tmp/ccoLrWzv.s:116    .text._ZN7daisysp10OscillatorD2Ev:0000000000000000 _ZN7daisysp10OscillatorD1Ev
     /tmp/ccoLrWzv.s:133    .text._ZN7daisysp3SvfD2Ev:0000000000000000 $t
     /tmp/ccoLrWzv.s:141    .text._ZN7daisysp3SvfD2Ev:0000000000000000 _ZN7daisysp3SvfD2Ev
     /tmp/ccoLrWzv.s:141    .text._ZN7daisysp3SvfD2Ev:0000000000000000 _ZN7daisysp3SvfD1Ev
     /tmp/ccoLrWzv.s:158    .text._ZN5daisy11OledDisplayINS_13SSD130xDriverILj128ELj64ENS_24SSD130x4WireSpiTransportEEEED2Ev:0000000000000000 $t
     /tmp/ccoLrWzv.s:166    .text._ZN5daisy11OledDisplayINS_13SSD130xDriverILj128ELj64ENS_24SSD130x4WireSpiTransportEEEED2Ev:0000000000000000 _ZN5daisy11OledDisplayINS_13SSD130xDriverILj128ELj64ENS_24SSD130x4WireSpiTransportEEEED2Ev
     /tmp/ccoLrWzv.s:166    .text._ZN5daisy11OledDisplayINS_13SSD130xDriverILj128ELj64ENS_24SSD130x4WireSpiTransportEEEED2Ev:0000000000000000 _ZN5daisy11OledDisplayINS_13SSD130xDriverILj128ELj64ENS_24SSD130x4WireSpiTransportEEEED1Ev
     /tmp/ccoLrWzv.s:191    .text._ZNK5daisy11OledDisplayINS_13SSD130xDriverILj128ELj64ENS_24SSD130x4WireSpiTransportEEEE6HeightEv:0000000000000000 $t
     /tmp/ccoLrWzv.s:199    .text._ZNK5daisy11OledDisplayINS_13SSD130xDriverILj128ELj64ENS_24SSD130x4WireSpiTransportEEEE6HeightEv:0000000000000000 _ZNK5daisy11OledDisplayINS_13SSD130xDriverILj128ELj64ENS_24SSD130x4WireSpiTransportEEEE6HeightEv
     /tmp/ccoLrWzv.s:216    .text._ZNK5daisy11OledDisplayINS_13SSD130xDriverILj128ELj64ENS_24SSD130x4WireSpiTransportEEEE5WidthEv:0000000000000000 $t
     /tmp/ccoLrWzv.s:224    .text._ZNK5daisy11OledDisplayINS_13SSD130xDriverILj128ELj64ENS_24SSD130x4WireSpiTransportEEEE5WidthEv:0000000000000000 _ZNK5daisy11OledDisplayINS_13SSD130xDriverILj128ELj64ENS_24SSD130x4WireSpiTransportEEEE5WidthEv
     /tmp/ccoLrWzv.s:241    .text._ZN5daisy11OledDisplayINS_13SSD130xDriverILj128ELj64ENS_24SSD130x4WireSpiTransportEEEE4FillEb:0000000000000000 $t
     /tmp/ccoLrWzv.s:249    .text._ZN5daisy11OledDisplayINS_13SSD130xDriverILj128ELj64ENS_24SSD130x4WireSpiTransportEEEE4FillEb:0000000000000000 _ZN5daisy11OledDisplayINS_13SSD130xDriverILj128ELj64ENS_24SSD130x4WireSpiTransportEEEE4FillEb
     /tmp/ccoLrWzv.s:286    .text._Z13AudioCallbackPKPKfPPfj:0000000000000000 $t
     /tmp/ccoLrWzv.s:294    .text._Z13AudioCallbackPKPKfPPfj:0000000000000000 _Z13AudioCallbackPKPKfPPfj
     /tmp/ccoLrWzv.s:396    .text._Z13AudioCallbackPKPKfPPfj:0000000000000048 $d
     /tmp/ccoLrWzv.s:402    .text._ZN5daisy11OledDisplayINS_13SSD130xDriverILj128ELj64ENS_24SSD130x4WireSpiTransportEEEED0Ev:0000000000000000 $t
     /tmp/ccoLrWzv.s:410    .text._ZN5daisy11OledDisplayINS_13SSD130xDriverILj128ELj64ENS_24SSD130x4WireSpiTransportEEEED0Ev:0000000000000000 _ZN5daisy11OledDisplayINS_13SSD130xDriverILj128ELj64ENS_24SSD130x4WireSpiTransportEEEED0Ev
     /tmp/ccoLrWzv.s:450    .text._ZN5daisy11OledDisplayINS_13SSD130xDriverILj128ELj64ENS_24SSD130x4WireSpiTransportEEEE6UpdateEv:0000000000000000 $t
     /tmp/ccoLrWzv.s:458    .text._ZN5daisy11OledDisplayINS_13SSD130xDriverILj128ELj64ENS_24SSD130x4WireSpiTransportEEEE6UpdateEv:0000000000000000 _ZN5daisy11OledDisplayINS_13SSD130xDriverILj128ELj64ENS_24SSD130x4WireSpiTransportEEEE6UpdateEv
     /tmp/ccoLrWzv.s:618    .text._ZN5daisy25OneBitGraphicsDisplayImplINS_11OledDisplayINS_13SSD130xDriverILj128ELj64ENS_24SSD130x4WireSpiTransportEEEEEE11WriteStringEPKc7FontDefb:0000000000000000 $t
     /tmp/ccoLrWzv.s:626    .text._ZN5daisy25OneBitGraphicsDisplayImplINS_11OledDisplayINS_13SSD130xDriverILj128ELj64ENS_24SSD130x4WireSpiTransportEEEEEE11WriteStringEPKc7FontDefb:0000000000000000 _ZN5daisy25OneBitGraphicsDisplayImplINS_11OledDisplayINS_13SSD130xDriverILj128ELj64ENS_24SSD130x4WireSpiTransportEEEEEE11WriteStringEPKc7FontDefb
     /tmp/ccoLrWzv.s:1085   .text._ZN5daisy25OneBitGraphicsDisplayImplINS_11OledDisplayINS_13SSD130xDriverILj128ELj64ENS_24SSD130x4WireSpiTransportEEEEEE11WriteStringEPKc7FontDefb:00000000000001d8 $d
     /tmp/ccoLrWzv.s:1095   .text._ZN5daisy25OneBitGraphicsDisplayImplINS_11OledDisplayINS_13SSD130xDriverILj128ELj64ENS_24SSD130x4WireSpiTransportEEEEEE9WriteCharEc7FontDefb:0000000000000000 $t
     /tmp/ccoLrWzv.s:1103   .text._ZN5daisy25OneBitGraphicsDisplayImplINS_11OledDisplayINS_13SSD130xDriverILj128ELj64ENS_24SSD130x4WireSpiTransportEEEEEE9WriteCharEc7FontDefb:0000000000000000 _ZN5daisy25OneBitGraphicsDisplayImplINS_11OledDisplayINS_13SSD130xDriverILj128ELj64ENS_24SSD130x4WireSpiTransportEEEEEE9WriteCharEc7FontDefb
     /tmp/ccoLrWzv.s:1537   .text._ZN5daisy25OneBitGraphicsDisplayImplINS_11OledDisplayINS_13SSD130xDriverILj128ELj64ENS_24SSD130x4WireSpiTransportEEEEEE9WriteCharEc7FontDefb:000000000000019c $d
     /tmp/ccoLrWzv.s:1545   .text._ZN5daisy25OneBitGraphicsDisplayImplINS_11OledDisplayINS_13SSD130xDriverILj128ELj64ENS_24SSD130x4WireSpiTransportEEEEEE18WriteStringAlignedEPKcRK7FontDefNS_9RectangleENS_9AlignmentEb:0000000000000000 $t
     /tmp/ccoLrWzv.s:1553   .text._ZN5daisy25OneBitGraphicsDisplayImplINS_11OledDisplayINS_13SSD130xDriverILj128ELj64ENS_24SSD130x4WireSpiTransportEEEEEE18WriteStringAlignedEPKcRK7FontDefNS_9RectangleENS_9AlignmentEb:0000000000000000 _ZN5daisy25OneBitGraphicsDisplayImplINS_11OledDisplayINS_13SSD130xDriverILj128ELj64ENS_24SSD130x4WireSpiTransportEEEEEE18WriteStringAlignedEPKcRK7FontDefNS_9RectangleENS_9AlignmentEb
     /tmp/ccoLrWzv.s:1693   .text._ZN5daisy25OneBitGraphicsDisplayImplINS_11OledDisplayINS_13SSD130xDriverILj128ELj64ENS_24SSD130x4WireSpiTransportEEEEEE18WriteStringAlignedEPKcRK7FontDefNS_9RectangleENS_9AlignmentEb:0000000000000048 $d
     /tmp/ccoLrWzv.s:1702   .text._ZN5daisy25OneBitGraphicsDisplayImplINS_11OledDisplayINS_13SSD130xDriverILj128ELj64ENS_24SSD130x4WireSpiTransportEEEEEE18WriteStringAlignedEPKcRK7FontDefNS_9RectangleENS_9AlignmentEb:000000000000005a $t
     /tmp/ccoLrWzv.s:3030   .text._ZN5daisy25OneBitGraphicsDisplayImplINS_11OledDisplayINS_13SSD130xDriverILj128ELj64ENS_24SSD130x4WireSpiTransportEEEEEE18WriteStringAlignedEPKcRK7FontDefNS_9RectangleENS_9AlignmentEb:0000000000000364 $d
     /tmp/ccoLrWzv.s:3034   .text._ZN5daisy25OneBitGraphicsDisplayImplINS_11OledDisplayINS_13SSD130xDriverILj128ELj64ENS_24SSD130x4WireSpiTransportEEEEEE18WriteStringAlignedEPKcRK7FontDefNS_9RectangleENS_9AlignmentEb:000000000000036c $t
     /tmp/ccoLrWzv.s:3203   .text._ZN5daisy25OneBitGraphicsDisplayImplINS_11OledDisplayINS_13SSD130xDriverILj128ELj64ENS_24SSD130x4WireSpiTransportEEEEEE18WriteStringAlignedEPKcRK7FontDefNS_9RectangleENS_9AlignmentEb:00000000000003ec $d
     /tmp/ccoLrWzv.s:3211   .text._ZN5daisy11OledDisplayINS_13SSD130xDriverILj128ELj64ENS_24SSD130x4WireSpiTransportEEEE9DrawPixelEjjb:0000000000000000 $t
     /tmp/ccoLrWzv.s:3219   .text._ZN5daisy11OledDisplayINS_13SSD130xDriverILj128ELj64ENS_24SSD130x4WireSpiTransportEEEE9DrawPixelEjjb:0000000000000000 _ZN5daisy11OledDisplayINS_13SSD130xDriverILj128ELj64ENS_24SSD130x4WireSpiTransportEEEE9DrawPixelEjjb
     /tmp/ccoLrWzv.s:3323   .text._ZN5daisy25OneBitGraphicsDisplayImplINS_11OledDisplayINS_13SSD130xDriverILj128ELj64ENS_24SSD130x4WireSpiTransportEEEEEE8DrawLineEjjjjb:0000000000000000 $t
     /tmp/ccoLrWzv.s:3331   .text._ZN5daisy25OneBitGraphicsDisplayImplINS_11OledDisplayINS_13SSD130xDriverILj128ELj64ENS_24SSD130x4WireSpiTransportEEEEEE8DrawLineEjjjjb:0000000000000000 _ZN5daisy25OneBitGraphicsDisplayImplINS_11OledDisplayINS_13SSD130xDriverILj128ELj64ENS_24SSD130x4WireSpiTransportEEEEEE8DrawLineEjjjjb
     /tmp/ccoLrWzv.s:3617   .text._ZN5daisy25OneBitGraphicsDisplayImplINS_11OledDisplayINS_13SSD130xDriverILj128ELj64ENS_24SSD130x4WireSpiTransportEEEEEE7DrawArcEjjjiib:0000000000000000 $t
     /tmp/ccoLrWzv.s:3625   .text._ZN5daisy25OneBitGraphicsDisplayImplINS_11OledDisplayINS_13SSD130xDriverILj128ELj64ENS_24SSD130x4WireSpiTransportEEEEEE7DrawArcEjjjiib:0000000000000000 _ZN5daisy25OneBitGraphicsDisplayImplINS_11OledDisplayINS_13SSD130xDriverILj128ELj64ENS_24SSD130x4WireSpiTransportEEEEEE7DrawArcEjjjiib
     /tmp/ccoLrWzv.s:4404   .text._ZN5daisy25OneBitGraphicsDisplayImplINS_11OledDisplayINS_13SSD130xDriverILj128ELj64ENS_24SSD130x4WireSpiTransportEEEEEE7DrawArcEjjjiib:0000000000000388 $d
     /tmp/ccoLrWzv.s:4411   .text._ZN5daisy25OneBitGraphicsDisplayImplINS_11OledDisplayINS_13SSD130xDriverILj128ELj64ENS_24SSD130x4WireSpiTransportEEEEEE7DrawArcEjjjiib:0000000000000398 $t
     /tmp/ccoLrWzv.s:4509   .text._ZN5daisy25OneBitGraphicsDisplayImplINS_11OledDisplayINS_13SSD130xDriverILj128ELj64ENS_24SSD130x4WireSpiTransportEEEEEE8DrawRectEjjjjbb:0000000000000000 $t
     /tmp/ccoLrWzv.s:4517   .text._ZN5daisy25OneBitGraphicsDisplayImplINS_11OledDisplayINS_13SSD130xDriverILj128ELj64ENS_24SSD130x4WireSpiTransportEEEEEE8DrawRectEjjjjbb:0000000000000000 _ZN5daisy25OneBitGraphicsDisplayImplINS_11OledDisplayINS_13SSD130xDriverILj128ELj64ENS_24SSD130x4WireSpiTransportEEEEEE8DrawRectEjjjjbb
     /tmp/ccoLrWzv.s:5655   .text._Z17HandleMidiMessageN5daisy9MidiEventE:0000000000000000 $t
     /tmp/ccoLrWzv.s:5663   .text._Z17HandleMidiMessageN5daisy9MidiEventE:0000000000000000 _Z17HandleMidiMessageN5daisy9MidiEventE
     /tmp/ccoLrWzv.s:5992   .text._Z17HandleMidiMessageN5daisy9MidiEventE:00000000000000d8 $d
     /tmp/ccoLrWzv.s:6003   .text._ZN5daisy13SSD130xDriverILj128ELj64ENS_24SSD130x4WireSpiTransportEE6UpdateEv:0000000000000000 $t
     /tmp/ccoLrWzv.s:6011   .text._ZN5daisy13SSD130xDriverILj128ELj64ENS_24SSD130x4WireSpiTransportEE6UpdateEv:0000000000000000 _ZN5daisy13SSD130xDriverILj128ELj64ENS_24SSD130x4WireSpiTransportEE6UpdateEv
     /tmp/ccoLrWzv.s:6162   .text.startup.main:0000000000000000 $t
     /tmp/ccoLrWzv.s:6170   .text.startup.main:0000000000000000 main
ARM GAS  /tmp/ccoLrWzv.s 			page 249


     /tmp/ccoLrWzv.s:6644   .text.startup.main:00000000000000dc $d
     /tmp/ccoLrWzv.s:6648   .text.startup.main:00000000000000e0 $t
     /tmp/ccoLrWzv.s:7187   .text.startup.main:00000000000002e8 $d
     /tmp/ccoLrWzv.s:7957   .bss.hw:0000000000000000 hw
     /tmp/ccoLrWzv.s:7209   .text.startup.main:0000000000000320 $t
     /tmp/ccoLrWzv.s:7392   .text.startup.main:00000000000003d0 $d
     /tmp/ccoLrWzv.s:7407   .text.startup._GLOBAL__sub_I_hw:0000000000000000 $t
     /tmp/ccoLrWzv.s:7414   .text.startup._GLOBAL__sub_I_hw:0000000000000000 _GLOBAL__sub_I_hw
     /tmp/ccoLrWzv.s:7844   .text.startup._GLOBAL__sub_I_hw:0000000000000074 $d
     /tmp/ccoLrWzv.s:7917   .rodata._ZTVN5daisy11OledDisplayINS_13SSD130xDriverILj128ELj64ENS_24SSD130x4WireSpiTransportEEEEE:0000000000000000 _ZTVN5daisy11OledDisplayINS_13SSD130xDriverILj128ELj64ENS_24SSD130x4WireSpiTransportEEEEE
     /tmp/ccoLrWzv.s:7860   .init_array:0000000000000000 $d
     /tmp/ccoLrWzv.s:7867   .rodata._ZTSN5daisy21OneBitGraphicsDisplayE:0000000000000000 _ZTSN5daisy21OneBitGraphicsDisplayE
     /tmp/ccoLrWzv.s:7864   .rodata._ZTSN5daisy21OneBitGraphicsDisplayE:0000000000000000 $d
     /tmp/ccoLrWzv.s:7874   .rodata._ZTIN5daisy21OneBitGraphicsDisplayE:0000000000000000 _ZTIN5daisy21OneBitGraphicsDisplayE
     /tmp/ccoLrWzv.s:7871   .rodata._ZTIN5daisy21OneBitGraphicsDisplayE:0000000000000000 $d
     /tmp/ccoLrWzv.s:7882   .rodata._ZTSN5daisy25OneBitGraphicsDisplayImplINS_11OledDisplayINS_13SSD130xDriverILj128ELj64ENS_24SSD130x4WireSpiTransportEEEEEEE:0000000000000000 _ZTSN5daisy25OneBitGraphicsDisplayImplINS_11OledDisplayINS_13SSD130xDriverILj128ELj64ENS_24SSD130x4WireSpiTransportEEEEEEE
     /tmp/ccoLrWzv.s:7879   .rodata._ZTSN5daisy25OneBitGraphicsDisplayImplINS_11OledDisplayINS_13SSD130xDriverILj128ELj64ENS_24SSD130x4WireSpiTransportEEEEEEE:0000000000000000 $d
     /tmp/ccoLrWzv.s:7891   .rodata._ZTIN5daisy25OneBitGraphicsDisplayImplINS_11OledDisplayINS_13SSD130xDriverILj128ELj64ENS_24SSD130x4WireSpiTransportEEEEEEE:0000000000000000 _ZTIN5daisy25OneBitGraphicsDisplayImplINS_11OledDisplayINS_13SSD130xDriverILj128ELj64ENS_24SSD130x4WireSpiTransportEEEEEEE
     /tmp/ccoLrWzv.s:7888   .rodata._ZTIN5daisy25OneBitGraphicsDisplayImplINS_11OledDisplayINS_13SSD130xDriverILj128ELj64ENS_24SSD130x4WireSpiTransportEEEEEEE:0000000000000000 $d
     /tmp/ccoLrWzv.s:7900   .rodata._ZTSN5daisy11OledDisplayINS_13SSD130xDriverILj128ELj64ENS_24SSD130x4WireSpiTransportEEEEE:0000000000000000 _ZTSN5daisy11OledDisplayINS_13SSD130xDriverILj128ELj64ENS_24SSD130x4WireSpiTransportEEEEE
     /tmp/ccoLrWzv.s:7897   .rodata._ZTSN5daisy11OledDisplayINS_13SSD130xDriverILj128ELj64ENS_24SSD130x4WireSpiTransportEEEEE:0000000000000000 $d
     /tmp/ccoLrWzv.s:7908   .rodata._ZTIN5daisy11OledDisplayINS_13SSD130xDriverILj128ELj64ENS_24SSD130x4WireSpiTransportEEEEE:0000000000000000 _ZTIN5daisy11OledDisplayINS_13SSD130xDriverILj128ELj64ENS_24SSD130x4WireSpiTransportEEEEE
     /tmp/ccoLrWzv.s:7905   .rodata._ZTIN5daisy11OledDisplayINS_13SSD130xDriverILj128ELj64ENS_24SSD130x4WireSpiTransportEEEEE:0000000000000000 $d
     /tmp/ccoLrWzv.s:7914   .rodata._ZTVN5daisy11OledDisplayINS_13SSD130xDriverILj128ELj64ENS_24SSD130x4WireSpiTransportEEEEE:0000000000000000 $d
     /tmp/ccoLrWzv.s:7951   .bss.filt:0000000000000000 filt
     /tmp/ccoLrWzv.s:7964   .bss.osc:0000000000000000 osc
     /tmp/ccoLrWzv.s:7937   .rodata:0000000000000000 $d
     /tmp/ccoLrWzv.s:7947   .bss.filt:0000000000000000 $d
     /tmp/ccoLrWzv.s:7954   .bss.hw:0000000000000000 $d
     /tmp/ccoLrWzv.s:7960   .bss.osc:0000000000000000 $d
                           .group:0000000000000000 _ZN5daisy10DaisyPatchD5Ev
                           .group:0000000000000000 _ZN7daisysp10OscillatorD5Ev
                           .group:0000000000000000 _ZN7daisysp3SvfD5Ev
                           .group:0000000000000000 _ZN5daisy11OledDisplayINS_13SSD130xDriverILj128ELj64ENS_24SSD130x4WireSpiTransportEEEED5Ev

UNDEFINED SYMBOLS
_ZN7daisysp10Oscillator7ProcessEv
_ZN7daisysp3Svf7ProcessEf
_ZdlPvj
dsy_gpio_write
_ZN5daisy9SpiHandle16BlockingTransmitEPhjm
cosf
sinf
powf
_ZN7daisysp10Oscillator12CalcPhaseIncEf
_ZN7daisysp3Svf6SetResEf
_ZN7daisysp3Svf7SetFreqEf
_ZN5daisy10DaisyPatch4InitEb
_ZN5daisy10DaisyPatch15AudioSampleRateEv
_ZN7daisysp3Svf4InitEf
_ZN5daisy11UartHandler7StartRxEv
_ZN5daisy10DaisyPatch8StartAdcEv
_ZN5daisy10DaisyPatch10StartAudioEPFvPKPKfPPfjE
_ZN5daisy6System6GetNowEv
_ZN5daisy11UartHandler8ReadableEv
_ZN5daisy11UartHandler5PopRxEv
_ZN5daisy11UartHandler8RxActiveEv
ARM GAS  /tmp/ccoLrWzv.s 			page 250


memcpy
_ZN5daisy11UartHandler7FlushRxEv
Font_7x10
__aeabi_atexit
__dso_handle
_ZTVN10__cxxabiv117__class_type_infoE
_ZTVN10__cxxabiv120__si_class_type_infoE
