ARM GAS  /tmp/ccZbTdcl.s 			page 1


   1              		.cpu cortex-m7
   2              		.eabi_attribute 28, 1
   3              		.eabi_attribute 20, 1
   4              		.eabi_attribute 21, 1
   5              		.eabi_attribute 23, 3
   6              		.eabi_attribute 24, 1
   7              		.eabi_attribute 25, 1
   8              		.eabi_attribute 26, 1
   9              		.eabi_attribute 30, 2
  10              		.eabi_attribute 34, 1
  11              		.eabi_attribute 18, 4
  12              		.file	"adsr.cpp"
  13              		.text
  14              	.Ltext0:
  15              		.cfi_sections	.debug_frame
  16              		.section	.text._ZN7daisysp4AdsrD2Ev,"axG",%progbits,_ZN7daisysp4AdsrD5Ev,comdat
  17              		.align	1
  18              		.p2align 2,,3
  19              		.weak	_ZN7daisysp4AdsrD2Ev
  20              		.arch armv7e-m
  21              		.syntax unified
  22              		.thumb
  23              		.thumb_func
  24              		.fpu fpv5-d16
  26              	_ZN7daisysp4AdsrD2Ev:
  27              	.LVL0:
  28              	.LFB562:
  29              		.file 1 "../../DaisySP/Source/Control/adsr.h"
   1:../../DaisySP/Source/Control/adsr.h **** #pragma once
   2:../../DaisySP/Source/Control/adsr.h **** #ifndef DSY_ADSR_H
   3:../../DaisySP/Source/Control/adsr.h **** #define DSY_ADSR_H
   4:../../DaisySP/Source/Control/adsr.h **** 
   5:../../DaisySP/Source/Control/adsr.h **** #include <stdint.h>
   6:../../DaisySP/Source/Control/adsr.h **** #ifdef __cplusplus
   7:../../DaisySP/Source/Control/adsr.h **** 
   8:../../DaisySP/Source/Control/adsr.h **** namespace daisysp
   9:../../DaisySP/Source/Control/adsr.h **** {
  10:../../DaisySP/Source/Control/adsr.h **** /** Distinct stages that the phase of the envelope can be located in.
  11:../../DaisySP/Source/Control/adsr.h **** - IDLE   = located at phase location 0, and not currently running
  12:../../DaisySP/Source/Control/adsr.h **** - ATTACK  = First segment of envelope where phase moves from 0 to 1
  13:../../DaisySP/Source/Control/adsr.h **** - DECAY   = Second segment of envelope where phase moves from 1 to SUSTAIN value
  14:../../DaisySP/Source/Control/adsr.h **** - SUSTAIN = Third segment of envelope, stays at SUSTAIN level until GATE is released
  15:../../DaisySP/Source/Control/adsr.h **** - RELEASE =     Fourth segment of envelop where phase moves from SUSTAIN to 0
  16:../../DaisySP/Source/Control/adsr.h **** - LAST    =  Last segment, aka release
  17:../../DaisySP/Source/Control/adsr.h **** */
  18:../../DaisySP/Source/Control/adsr.h **** enum
  19:../../DaisySP/Source/Control/adsr.h **** {
  20:../../DaisySP/Source/Control/adsr.h ****     ADSR_SEG_IDLE,
  21:../../DaisySP/Source/Control/adsr.h ****     ADSR_SEG_ATTACK,
  22:../../DaisySP/Source/Control/adsr.h ****     ADSR_SEG_DECAY,
  23:../../DaisySP/Source/Control/adsr.h ****     ADSR_SEG_SUSTAIN,
  24:../../DaisySP/Source/Control/adsr.h ****     ADSR_SEG_RELEASE,
  25:../../DaisySP/Source/Control/adsr.h ****     ADSR_SEG_LAST,
  26:../../DaisySP/Source/Control/adsr.h **** };
  27:../../DaisySP/Source/Control/adsr.h **** 
  28:../../DaisySP/Source/Control/adsr.h **** 
  29:../../DaisySP/Source/Control/adsr.h **** /** adsr envelope module
ARM GAS  /tmp/ccZbTdcl.s 			page 2


  30:../../DaisySP/Source/Control/adsr.h **** 
  31:../../DaisySP/Source/Control/adsr.h **** Original author(s) : Paul Batchelor
  32:../../DaisySP/Source/Control/adsr.h **** 
  33:../../DaisySP/Source/Control/adsr.h **** Ported from Soundpipe by Ben Sergentanis, May 2020
  34:../../DaisySP/Source/Control/adsr.h **** */
  35:../../DaisySP/Source/Control/adsr.h **** class Adsr
  36:../../DaisySP/Source/Control/adsr.h **** {
  37:../../DaisySP/Source/Control/adsr.h ****   public:
  38:../../DaisySP/Source/Control/adsr.h ****     Adsr() {}
  39:../../DaisySP/Source/Control/adsr.h ****     ~Adsr() {}
  30              		.loc 1 39 5 view -0
  31              		.cfi_startproc
  32              		@ args = 0, pretend = 0, frame = 0
  33              		@ frame_needed = 0, uses_anonymous_args = 0
  34              		@ link register save eliminated.
  35              		.loc 1 39 14 is_stmt 0 view .LVU1
  36 0000 7047     		bx	lr
  37              		.cfi_endproc
  38              	.LFE562:
  40              		.weak	_ZN7daisysp4AdsrD1Ev
  41              		.thumb_set _ZN7daisysp4AdsrD1Ev,_ZN7daisysp4AdsrD2Ev
  42 0002 00BF     		.section	.text._ZN7daisysp10OscillatorD2Ev,"axG",%progbits,_ZN7daisysp10OscillatorD5Ev,comdat
  43              		.align	1
  44              		.p2align 2,,3
  45              		.weak	_ZN7daisysp10OscillatorD2Ev
  46              		.syntax unified
  47              		.thumb
  48              		.thumb_func
  49              		.fpu fpv5-d16
  51              	_ZN7daisysp10OscillatorD2Ev:
  52              	.LVL1:
  53              	.LFB2797:
  54              		.file 2 "../../DaisySP/Source/Synthesis/oscillator.h"
   1:../../DaisySP/Source/Synthesis/oscillator.h **** #pragma once
   2:../../DaisySP/Source/Synthesis/oscillator.h **** #ifndef DSY_OSCILLATOR_H
   3:../../DaisySP/Source/Synthesis/oscillator.h **** #define DSY_OSCILLATOR_H
   4:../../DaisySP/Source/Synthesis/oscillator.h **** #include <stdint.h>
   5:../../DaisySP/Source/Synthesis/oscillator.h **** #include "Utility/dsp.h"
   6:../../DaisySP/Source/Synthesis/oscillator.h **** #ifdef __cplusplus
   7:../../DaisySP/Source/Synthesis/oscillator.h **** 
   8:../../DaisySP/Source/Synthesis/oscillator.h **** namespace daisysp
   9:../../DaisySP/Source/Synthesis/oscillator.h **** {
  10:../../DaisySP/Source/Synthesis/oscillator.h **** /** Synthesis of several waveforms, including polyBLEP bandlimited waveforms.
  11:../../DaisySP/Source/Synthesis/oscillator.h **** */
  12:../../DaisySP/Source/Synthesis/oscillator.h **** class Oscillator
  13:../../DaisySP/Source/Synthesis/oscillator.h **** {
  14:../../DaisySP/Source/Synthesis/oscillator.h ****   public:
  15:../../DaisySP/Source/Synthesis/oscillator.h ****     Oscillator() {}
  16:../../DaisySP/Source/Synthesis/oscillator.h ****     ~Oscillator() {}
  55              		.loc 2 16 5 is_stmt 1 view -0
  56              		.cfi_startproc
  57              		@ args = 0, pretend = 0, frame = 0
  58              		@ frame_needed = 0, uses_anonymous_args = 0
  59              		@ link register save eliminated.
  60              		.loc 2 16 20 is_stmt 0 view .LVU3
  61 0000 7047     		bx	lr
  62              		.cfi_endproc
ARM GAS  /tmp/ccZbTdcl.s 			page 3


  63              	.LFE2797:
  65              		.weak	_ZN7daisysp10OscillatorD1Ev
  66              		.thumb_set _ZN7daisysp10OscillatorD1Ev,_ZN7daisysp10OscillatorD2Ev
  67 0002 00BF     		.section	.text._ZN7daisysp5MetroD2Ev,"axG",%progbits,_ZN7daisysp5MetroD5Ev,comdat
  68              		.align	1
  69              		.p2align 2,,3
  70              		.weak	_ZN7daisysp5MetroD2Ev
  71              		.syntax unified
  72              		.thumb
  73              		.thumb_func
  74              		.fpu fpv5-d16
  76              	_ZN7daisysp5MetroD2Ev:
  77              	.LVL2:
  78              	.LFB3332:
  79              		.file 3 "../../DaisySP/Source/Utility/metro.h"
   1:../../DaisySP/Source/Utility/metro.h **** #pragma once
   2:../../DaisySP/Source/Utility/metro.h **** #ifndef DSY_METRO_H
   3:../../DaisySP/Source/Utility/metro.h **** #define DSY_METRO_H
   4:../../DaisySP/Source/Utility/metro.h **** #include <stdint.h>
   5:../../DaisySP/Source/Utility/metro.h **** #ifdef __cplusplus
   6:../../DaisySP/Source/Utility/metro.h **** 
   7:../../DaisySP/Source/Utility/metro.h **** namespace daisysp
   8:../../DaisySP/Source/Utility/metro.h **** {
   9:../../DaisySP/Source/Utility/metro.h **** /** Creates a clock signal at a specific frequency.
  10:../../DaisySP/Source/Utility/metro.h **** */
  11:../../DaisySP/Source/Utility/metro.h **** class Metro
  12:../../DaisySP/Source/Utility/metro.h **** {
  13:../../DaisySP/Source/Utility/metro.h ****   public:
  14:../../DaisySP/Source/Utility/metro.h ****     Metro() {}
  15:../../DaisySP/Source/Utility/metro.h ****     ~Metro() {}
  80              		.loc 3 15 5 is_stmt 1 view -0
  81              		.cfi_startproc
  82              		@ args = 0, pretend = 0, frame = 0
  83              		@ frame_needed = 0, uses_anonymous_args = 0
  84              		@ link register save eliminated.
  85              		.loc 3 15 15 is_stmt 0 view .LVU5
  86 0000 7047     		bx	lr
  87              		.cfi_endproc
  88              	.LFE3332:
  90              		.weak	_ZN7daisysp5MetroD1Ev
  91              		.thumb_set _ZN7daisysp5MetroD1Ev,_ZN7daisysp5MetroD2Ev
  92 0002 00BF     		.section	.text._ZN5daisy9DaisySeedD2Ev,"axG",%progbits,_ZN5daisy9DaisySeedD5Ev,comdat
  93              		.align	1
  94              		.p2align 2,,3
  95              		.weak	_ZN5daisy9DaisySeedD2Ev
  96              		.syntax unified
  97              		.thumb
  98              		.thumb_func
  99              		.fpu fpv5-d16
 101              	_ZN5daisy9DaisySeedD2Ev:
 102              	.LVL3:
 103              	.LFB4207:
 104              		.file 4 "../../libdaisy/src/daisy_seed.h"
   1:../../libdaisy/src/daisy_seed.h **** #pragma once
   2:../../libdaisy/src/daisy_seed.h **** #ifndef DSY_SEED_H
   3:../../libdaisy/src/daisy_seed.h **** #define DSY_SEED_H
   4:../../libdaisy/src/daisy_seed.h **** 
ARM GAS  /tmp/ccZbTdcl.s 			page 4


   5:../../libdaisy/src/daisy_seed.h **** #include "daisy.h"
   6:../../libdaisy/src/daisy_seed.h **** 
   7:../../libdaisy/src/daisy_seed.h **** //Uncomment this out if you're still using the rev2 hardware
   8:../../libdaisy/src/daisy_seed.h **** //#define SEED_REV2
   9:../../libdaisy/src/daisy_seed.h **** 
  10:../../libdaisy/src/daisy_seed.h **** namespace daisy
  11:../../libdaisy/src/daisy_seed.h **** {
  12:../../libdaisy/src/daisy_seed.h **** /**
  13:../../libdaisy/src/daisy_seed.h ****    @brief This is the higher-level interface for the Daisy board. \n 
  14:../../libdaisy/src/daisy_seed.h ****     All basic peripheral configuration/initialization is setup here. \n
  15:../../libdaisy/src/daisy_seed.h **** 
  16:../../libdaisy/src/daisy_seed.h ****    @ingroup boards
  17:../../libdaisy/src/daisy_seed.h **** */
  18:../../libdaisy/src/daisy_seed.h **** class DaisySeed
  19:../../libdaisy/src/daisy_seed.h **** {
  20:../../libdaisy/src/daisy_seed.h ****   public:
  21:../../libdaisy/src/daisy_seed.h ****     DaisySeed() {}
  22:../../libdaisy/src/daisy_seed.h ****     ~DaisySeed() {}
 105              		.loc 4 22 5 is_stmt 1 view -0
 106              		.cfi_startproc
 107              		@ args = 0, pretend = 0, frame = 0
 108              		@ frame_needed = 0, uses_anonymous_args = 0
 109              		@ link register save eliminated.
 110              	.LBB84:
 111              	.LBI84:
 112              		.file 5 "../../libdaisy/src/sys/system.h"
   1:../../libdaisy/src/sys/system.h **** #ifndef DSY_SYSTEM_H
   2:../../libdaisy/src/sys/system.h **** #define DSY_SYSTEM_H
   3:../../libdaisy/src/sys/system.h **** 
   4:../../libdaisy/src/sys/system.h **** #ifndef UNIT_TEST // for unit tests, a dummy implementation is provided below
   5:../../libdaisy/src/sys/system.h **** 
   6:../../libdaisy/src/sys/system.h **** #include <cstdint>
   7:../../libdaisy/src/sys/system.h **** #include "per/tim.h"
   8:../../libdaisy/src/sys/system.h **** 
   9:../../libdaisy/src/sys/system.h **** namespace daisy
  10:../../libdaisy/src/sys/system.h **** {
  11:../../libdaisy/src/sys/system.h **** /** A handle for interacting with the Core System. 
  12:../../libdaisy/src/sys/system.h ****  ** This includes the Clock tree, MPU, global DMA initialization,
  13:../../libdaisy/src/sys/system.h ****  ** cache handling, and any other necessary global initiailzation
  14:../../libdaisy/src/sys/system.h ****  **
  15:../../libdaisy/src/sys/system.h ****  ** @author shensley
  16:../../libdaisy/src/sys/system.h ****  ** @addtogroup system
  17:../../libdaisy/src/sys/system.h ****  */
  18:../../libdaisy/src/sys/system.h **** class System
  19:../../libdaisy/src/sys/system.h **** {
  20:../../libdaisy/src/sys/system.h ****   public:
  21:../../libdaisy/src/sys/system.h ****     /** Contains settings for initializing the System */
  22:../../libdaisy/src/sys/system.h ****     struct Config
  23:../../libdaisy/src/sys/system.h ****     {
  24:../../libdaisy/src/sys/system.h ****         /** Specifies the system clock frequency that feeds APB/AHB clocks, etc. */
  25:../../libdaisy/src/sys/system.h ****         enum class SysClkFreq
  26:../../libdaisy/src/sys/system.h ****         {
  27:../../libdaisy/src/sys/system.h ****             FREQ_400MHZ,
  28:../../libdaisy/src/sys/system.h ****             FREQ_480MHZ,
  29:../../libdaisy/src/sys/system.h ****         };
  30:../../libdaisy/src/sys/system.h **** 
  31:../../libdaisy/src/sys/system.h ****         /** Method to call on the struct to set to defaults
ARM GAS  /tmp/ccZbTdcl.s 			page 5


  32:../../libdaisy/src/sys/system.h ****          ** CPU Freq set to 400MHz
  33:../../libdaisy/src/sys/system.h ****          ** Cache Enabled 
  34:../../libdaisy/src/sys/system.h ****          ** */
  35:../../libdaisy/src/sys/system.h ****         void Defaults()
  36:../../libdaisy/src/sys/system.h ****         {
  37:../../libdaisy/src/sys/system.h ****             cpu_freq   = SysClkFreq::FREQ_400MHZ;
  38:../../libdaisy/src/sys/system.h ****             use_dcache = true;
  39:../../libdaisy/src/sys/system.h ****             use_icache = true;
  40:../../libdaisy/src/sys/system.h ****         }
  41:../../libdaisy/src/sys/system.h **** 
  42:../../libdaisy/src/sys/system.h ****         /** Method to call on the struct to set to boost mode:
  43:../../libdaisy/src/sys/system.h ****          ** CPU Freq set to 480MHz
  44:../../libdaisy/src/sys/system.h ****          ** Cache Enabled 
  45:../../libdaisy/src/sys/system.h ****          ** */
  46:../../libdaisy/src/sys/system.h ****         void Boost()
  47:../../libdaisy/src/sys/system.h ****         {
  48:../../libdaisy/src/sys/system.h ****             cpu_freq   = SysClkFreq::FREQ_480MHZ;
  49:../../libdaisy/src/sys/system.h ****             use_dcache = true;
  50:../../libdaisy/src/sys/system.h ****             use_icache = true;
  51:../../libdaisy/src/sys/system.h ****         }
  52:../../libdaisy/src/sys/system.h **** 
  53:../../libdaisy/src/sys/system.h ****         SysClkFreq cpu_freq;
  54:../../libdaisy/src/sys/system.h ****         bool       use_dcache;
  55:../../libdaisy/src/sys/system.h ****         bool       use_icache;
  56:../../libdaisy/src/sys/system.h ****     };
  57:../../libdaisy/src/sys/system.h **** 
  58:../../libdaisy/src/sys/system.h ****     System() {}
  59:../../libdaisy/src/sys/system.h ****     ~System() {}
 113              		.loc 5 59 5 view .LVU7
 114              		.loc 5 59 5 is_stmt 0 view .LVU8
 115              	.LBE84:
 116              	.LBB85:
 117              	.LBI85:
 118              		.file 6 "../../libdaisy/src/hid/usb.h"
   1:../../libdaisy/src/hid/usb.h **** #pragma once
   2:../../libdaisy/src/hid/usb.h **** #ifndef DSY_HID_USB_H
   3:../../libdaisy/src/hid/usb.h **** #define DSY_HID_USB_H
   4:../../libdaisy/src/hid/usb.h **** #include <stdint.h>
   5:../../libdaisy/src/hid/usb.h **** #include <stdlib.h>
   6:../../libdaisy/src/hid/usb.h **** 
   7:../../libdaisy/src/hid/usb.h **** namespace daisy
   8:../../libdaisy/src/hid/usb.h **** /** @addtogroup externals
   9:../../libdaisy/src/hid/usb.h ****     @{
  10:../../libdaisy/src/hid/usb.h **** */
  11:../../libdaisy/src/hid/usb.h **** 
  12:../../libdaisy/src/hid/usb.h **** {
  13:../../libdaisy/src/hid/usb.h **** /** 
  14:../../libdaisy/src/hid/usb.h ****     @brief Interface for initializing and using the USB Peripherals on the daisy
  15:../../libdaisy/src/hid/usb.h ****     @author Stephen Hensley
  16:../../libdaisy/src/hid/usb.h ****     @date December 2019
  17:../../libdaisy/src/hid/usb.h **** */
  18:../../libdaisy/src/hid/usb.h **** class UsbHandle
  19:../../libdaisy/src/hid/usb.h **** {
  20:../../libdaisy/src/hid/usb.h ****   public:
  21:../../libdaisy/src/hid/usb.h ****     /** Return values for USBHandle Functions */
  22:../../libdaisy/src/hid/usb.h ****     enum class Result
  23:../../libdaisy/src/hid/usb.h ****     {
ARM GAS  /tmp/ccZbTdcl.s 			page 6


  24:../../libdaisy/src/hid/usb.h ****         OK,
  25:../../libdaisy/src/hid/usb.h ****         ERR,
  26:../../libdaisy/src/hid/usb.h ****     };
  27:../../libdaisy/src/hid/usb.h **** 
  28:../../libdaisy/src/hid/usb.h ****     /** Specified which of the two USB Peripherals to initialize. */
  29:../../libdaisy/src/hid/usb.h ****     enum UsbPeriph
  30:../../libdaisy/src/hid/usb.h ****     {
  31:../../libdaisy/src/hid/usb.h ****         FS_INTERNAL, /**< Internal pin */
  32:../../libdaisy/src/hid/usb.h ****         FS_EXTERNAL, /**< FS External D+ pin is Pin 38 (GPIO32). FS External D- pin is Pin 37 (GPIO
  33:../../libdaisy/src/hid/usb.h ****         FS_BOTH,     /**< Both */
  34:../../libdaisy/src/hid/usb.h ****     };
  35:../../libdaisy/src/hid/usb.h **** 
  36:../../libdaisy/src/hid/usb.h **** 
  37:../../libdaisy/src/hid/usb.h ****     /** Function called upon reception of a buffer */
  38:../../libdaisy/src/hid/usb.h ****     typedef void (*ReceiveCallback)(uint8_t* buff, uint32_t* len);
  39:../../libdaisy/src/hid/usb.h **** 
  40:../../libdaisy/src/hid/usb.h ****     UsbHandle() {}
  41:../../libdaisy/src/hid/usb.h **** 
  42:../../libdaisy/src/hid/usb.h ****     ~UsbHandle() {}
 119              		.loc 6 42 5 is_stmt 1 view .LVU9
 120              		.loc 6 42 5 is_stmt 0 view .LVU10
 121              	.LBE85:
 122              	.LBB86:
 123              	.LBI86:
 124              		.file 7 "../../libdaisy/src/per/adc.h"
   1:../../libdaisy/src/per/adc.h **** #pragma once
   2:../../libdaisy/src/per/adc.h **** #ifndef DSY_ADC_H
   3:../../libdaisy/src/per/adc.h **** #define DSY_ADC_H /**< Macro */
   4:../../libdaisy/src/per/adc.h **** #include <stdint.h>
   5:../../libdaisy/src/per/adc.h **** #include <stdlib.h>
   6:../../libdaisy/src/per/adc.h **** #include "daisy_core.h"
   7:../../libdaisy/src/per/adc.h **** #include "per/gpio.h"
   8:../../libdaisy/src/per/adc.h **** 
   9:../../libdaisy/src/per/adc.h **** #define DSY_ADC_MAX_CHANNELS 14 /**< Maximum number of ADC channels */
  10:../../libdaisy/src/per/adc.h **** 
  11:../../libdaisy/src/per/adc.h **** namespace daisy
  12:../../libdaisy/src/per/adc.h **** {
  13:../../libdaisy/src/per/adc.h **** /** @addtogroup analog_digital_conversion
  14:../../libdaisy/src/per/adc.h ****     @{
  15:../../libdaisy/src/per/adc.h **** */
  16:../../libdaisy/src/per/adc.h **** 
  17:../../libdaisy/src/per/adc.h **** /* While there may not be many configuration options here,
  18:../../libdaisy/src/per/adc.h **** using a struct like this allows us to add more configuration
  19:../../libdaisy/src/per/adc.h **** later without breaking existing functionality.
  20:../../libdaisy/src/per/adc.h **** */
  21:../../libdaisy/src/per/adc.h **** 
  22:../../libdaisy/src/per/adc.h **** /** Configuration Structure for a given channel */
  23:../../libdaisy/src/per/adc.h **** struct AdcChannelConfig
  24:../../libdaisy/src/per/adc.h **** {
  25:../../libdaisy/src/per/adc.h ****     /** Which pin to use for multiplexing */
  26:../../libdaisy/src/per/adc.h ****     enum MuxPin
  27:../../libdaisy/src/per/adc.h ****     {
  28:../../libdaisy/src/per/adc.h ****         MUX_SEL_0,    /**< & */
  29:../../libdaisy/src/per/adc.h ****         MUX_SEL_1,    /**< & */
  30:../../libdaisy/src/per/adc.h ****         MUX_SEL_2,    /**< & */
  31:../../libdaisy/src/per/adc.h ****         MUX_SEL_LAST, /**< & */
  32:../../libdaisy/src/per/adc.h ****     };
ARM GAS  /tmp/ccZbTdcl.s 			page 7


  33:../../libdaisy/src/per/adc.h **** 
  34:../../libdaisy/src/per/adc.h ****     /** Initializes a single ADC pin as an ADC. 
  35:../../libdaisy/src/per/adc.h ****     \param pin Pin to init.
  36:../../libdaisy/src/per/adc.h ****      */
  37:../../libdaisy/src/per/adc.h ****     void InitSingle(dsy_gpio_pin pin);
  38:../../libdaisy/src/per/adc.h **** 
  39:../../libdaisy/src/per/adc.h ****     /** 
  40:../../libdaisy/src/per/adc.h ****     Initializes a single ADC pin as a Multiplexed ADC.
  41:../../libdaisy/src/per/adc.h ****     Requires a CD405X Multiplexer connected to the pin.
  42:../../libdaisy/src/per/adc.h ****     You only need to supply the mux pins that are required,
  43:../../libdaisy/src/per/adc.h ****     e.g. a 4052 mux would only require mux_0 and mux_1.
  44:../../libdaisy/src/per/adc.h ****     Internal Callbacks handle the pin addressing.
  45:../../libdaisy/src/per/adc.h ****     \param mux_channels must be 1-8
  46:../../libdaisy/src/per/adc.h ****     \param mux_0 First mux pin
  47:../../libdaisy/src/per/adc.h ****     \param mux_1 Second mux pin
  48:../../libdaisy/src/per/adc.h ****     \param mux_2 Third mux pin
  49:../../libdaisy/src/per/adc.h ****     \param adc_pin &
  50:../../libdaisy/src/per/adc.h ****     */
  51:../../libdaisy/src/per/adc.h ****     void InitMux(dsy_gpio_pin adc_pin,
  52:../../libdaisy/src/per/adc.h ****                  size_t       mux_channels,
  53:../../libdaisy/src/per/adc.h ****                  dsy_gpio_pin mux_0,
  54:../../libdaisy/src/per/adc.h ****                  dsy_gpio_pin mux_1 = {DSY_GPIOX, 0},
  55:../../libdaisy/src/per/adc.h ****                  dsy_gpio_pin mux_2 = {DSY_GPIOX, 0});
  56:../../libdaisy/src/per/adc.h **** 
  57:../../libdaisy/src/per/adc.h ****     dsy_gpio pin_;                   /**< & */
  58:../../libdaisy/src/per/adc.h ****     dsy_gpio mux_pin_[MUX_SEL_LAST]; /**< & */
  59:../../libdaisy/src/per/adc.h ****     uint8_t  mux_channels_;          /**< & */
  60:../../libdaisy/src/per/adc.h **** };
  61:../../libdaisy/src/per/adc.h **** 
  62:../../libdaisy/src/per/adc.h **** /**
  63:../../libdaisy/src/per/adc.h ****    Handler for analog to digital conversion
  64:../../libdaisy/src/per/adc.h **** */
  65:../../libdaisy/src/per/adc.h **** class AdcHandle
  66:../../libdaisy/src/per/adc.h **** {
  67:../../libdaisy/src/per/adc.h ****   public:
  68:../../libdaisy/src/per/adc.h ****     /** Supported oversampling amounts */
  69:../../libdaisy/src/per/adc.h ****     enum OverSampling
  70:../../libdaisy/src/per/adc.h ****     {
  71:../../libdaisy/src/per/adc.h ****         OVS_NONE, /**< & */
  72:../../libdaisy/src/per/adc.h ****         OVS_4,    /**< & */
  73:../../libdaisy/src/per/adc.h ****         OVS_8,    /**< & */
  74:../../libdaisy/src/per/adc.h ****         OVS_16,   /**< & */
  75:../../libdaisy/src/per/adc.h ****         OVS_32,   /**< & */
  76:../../libdaisy/src/per/adc.h ****         OVS_64,   /**< & */
  77:../../libdaisy/src/per/adc.h ****         OVS_128,  /**< & */
  78:../../libdaisy/src/per/adc.h ****         OVS_256,  /**< & */
  79:../../libdaisy/src/per/adc.h ****         OVS_512,  /**< & */
  80:../../libdaisy/src/per/adc.h ****         OVS_1024, /**< & */
  81:../../libdaisy/src/per/adc.h ****         OVS_LAST, /**< & */
  82:../../libdaisy/src/per/adc.h ****     };
  83:../../libdaisy/src/per/adc.h **** 
  84:../../libdaisy/src/per/adc.h ****     AdcHandle() {}
  85:../../libdaisy/src/per/adc.h ****     ~AdcHandle() {}
 125              		.loc 7 85 5 is_stmt 1 view .LVU11
 126              		.loc 7 85 5 is_stmt 0 view .LVU12
 127              	.LBE86:
 128              	.LBB87:
ARM GAS  /tmp/ccZbTdcl.s 			page 8


 129              	.LBI87:
 130              		.file 8 "../../libdaisy/src/hid/audio.h"
   1:../../libdaisy/src/hid/audio.h **** #ifndef DSY_AUDIO_H
   2:../../libdaisy/src/hid/audio.h **** #define DSY_AUDIO_H /**< & */
   3:../../libdaisy/src/hid/audio.h **** 
   4:../../libdaisy/src/hid/audio.h **** #include "per/sai.h"
   5:../../libdaisy/src/hid/audio.h **** 
   6:../../libdaisy/src/hid/audio.h **** namespace daisy
   7:../../libdaisy/src/hid/audio.h **** {
   8:../../libdaisy/src/hid/audio.h **** class AudioHandle
   9:../../libdaisy/src/hid/audio.h **** {
  10:../../libdaisy/src/hid/audio.h ****   public:
  11:../../libdaisy/src/hid/audio.h ****     /** Manually configurable details about the Audio Engine */
  12:../../libdaisy/src/hid/audio.h ****     /** TODO: Figure out how to get samplerate in here. */
  13:../../libdaisy/src/hid/audio.h ****     struct Config
  14:../../libdaisy/src/hid/audio.h ****     {
  15:../../libdaisy/src/hid/audio.h ****         size_t                        blocksize;
  16:../../libdaisy/src/hid/audio.h ****         SaiHandle::Config::SampleRate samplerate;
  17:../../libdaisy/src/hid/audio.h ****         float                         postgain;
  18:../../libdaisy/src/hid/audio.h ****     };
  19:../../libdaisy/src/hid/audio.h **** 
  20:../../libdaisy/src/hid/audio.h ****     enum class Result
  21:../../libdaisy/src/hid/audio.h ****     {
  22:../../libdaisy/src/hid/audio.h ****         OK,
  23:../../libdaisy/src/hid/audio.h ****         ERR,
  24:../../libdaisy/src/hid/audio.h ****     };
  25:../../libdaisy/src/hid/audio.h **** 
  26:../../libdaisy/src/hid/audio.h ****     /** Non-Interleaving input buffer
  27:../../libdaisy/src/hid/audio.h ****      * Buffer arranged by float[chn][sample] 
  28:../../libdaisy/src/hid/audio.h ****      * const so that the user can't modify the input
  29:../../libdaisy/src/hid/audio.h ****     */
  30:../../libdaisy/src/hid/audio.h ****     typedef const float* const* InputBuffer;
  31:../../libdaisy/src/hid/audio.h **** 
  32:../../libdaisy/src/hid/audio.h ****     /** Non-Interleaving output buffer
  33:../../libdaisy/src/hid/audio.h ****      * Arranged by float[chn][sample] 
  34:../../libdaisy/src/hid/audio.h ****     */
  35:../../libdaisy/src/hid/audio.h ****     typedef float** OutputBuffer;
  36:../../libdaisy/src/hid/audio.h **** 
  37:../../libdaisy/src/hid/audio.h ****     /** Type for a Non-Interleaving audio callback 
  38:../../libdaisy/src/hid/audio.h ****    * Non-Interleaving audio callbacks in daisy will be of this type
  39:../../libdaisy/src/hid/audio.h ****   */
  40:../../libdaisy/src/hid/audio.h ****     typedef void (*AudioCallback)(InputBuffer  in,
  41:../../libdaisy/src/hid/audio.h ****                                   OutputBuffer out,
  42:../../libdaisy/src/hid/audio.h ****                                   size_t       size);
  43:../../libdaisy/src/hid/audio.h **** 
  44:../../libdaisy/src/hid/audio.h ****     /** Interleaving Input buffer
  45:../../libdaisy/src/hid/audio.h ****      ** audio is prepared as { L0, R0, L1, R1, . . . LN, RN }]
  46:../../libdaisy/src/hid/audio.h ****      ** this is const, as the user shouldn't modify it
  47:../../libdaisy/src/hid/audio.h ****     */
  48:../../libdaisy/src/hid/audio.h ****     typedef const float* InterleavingInputBuffer;
  49:../../libdaisy/src/hid/audio.h **** 
  50:../../libdaisy/src/hid/audio.h ****     /** Interleaving Output buffer 
  51:../../libdaisy/src/hid/audio.h ****      ** audio is prepared as { L0, R0, L1, R1, . . . LN, RN }
  52:../../libdaisy/src/hid/audio.h ****     */
  53:../../libdaisy/src/hid/audio.h ****     typedef float* InterleavingOutputBuffer;
  54:../../libdaisy/src/hid/audio.h **** 
  55:../../libdaisy/src/hid/audio.h ****     /** Interleaving Audio Callback 
ARM GAS  /tmp/ccZbTdcl.s 			page 9


  56:../../libdaisy/src/hid/audio.h ****    * Interleaving audio callbacks in daisy must be of this type
  57:../../libdaisy/src/hid/audio.h ****   */
  58:../../libdaisy/src/hid/audio.h ****     typedef void (*InterleavingAudioCallback)(InterleavingInputBuffer  in,
  59:../../libdaisy/src/hid/audio.h ****                                               InterleavingOutputBuffer out,
  60:../../libdaisy/src/hid/audio.h ****                                               size_t                   size);
  61:../../libdaisy/src/hid/audio.h **** 
  62:../../libdaisy/src/hid/audio.h ****     AudioHandle() : pimpl_(nullptr) {}
  63:../../libdaisy/src/hid/audio.h ****     ~AudioHandle() {}
 131              		.loc 8 63 5 is_stmt 1 view .LVU13
 132              		.loc 8 63 5 is_stmt 0 view .LVU14
 133              	.LBE87:
 134              		.loc 4 22 19 view .LVU15
 135 0000 7047     		bx	lr
 136              		.cfi_endproc
 137              	.LFE4207:
 139              		.weak	_ZN5daisy9DaisySeedD1Ev
 140              		.thumb_set _ZN5daisy9DaisySeedD1Ev,_ZN5daisy9DaisySeedD2Ev
 141 0002 00BF     		.section	.text._ZL13AudioCallbackPKfPfj,"ax",%progbits
 142              		.align	1
 143              		.p2align 2,,3
 144              		.syntax unified
 145              		.thumb
 146              		.thumb_func
 147              		.fpu fpv5-d16
 149              	_ZL13AudioCallbackPKfPfj:
 150              	.LVL4:
 151              	.LFB4212:
 152              		.file 9 "adsr.cpp"
   1:adsr.cpp      **** // adsr envelope example
   2:adsr.cpp      **** 
   3:adsr.cpp      **** #include "daisysp.h"
   4:adsr.cpp      **** #include "daisy_seed.h"
   5:adsr.cpp      **** 
   6:adsr.cpp      **** // Shortening long macro for sample rate
   7:adsr.cpp      **** #ifndef sample_rate
   8:adsr.cpp      **** 
   9:adsr.cpp      **** #endif
  10:adsr.cpp      **** 
  11:adsr.cpp      **** // Interleaved audio definitions
  12:adsr.cpp      **** #define LEFT (i)
  13:adsr.cpp      **** #define RIGHT (i + 1)
  14:adsr.cpp      **** 
  15:adsr.cpp      **** using namespace daisysp;
  16:adsr.cpp      **** using namespace daisy;
  17:adsr.cpp      **** 
  18:adsr.cpp      **** static DaisySeed  seed;
  19:adsr.cpp      **** static Adsr       env;
  20:adsr.cpp      **** static Oscillator osc;
  21:adsr.cpp      **** static Metro      tick;
  22:adsr.cpp      **** bool              gate;
  23:adsr.cpp      **** 
  24:adsr.cpp      **** static void AudioCallback(AudioHandle::InterleavingInputBuffer  in,
  25:adsr.cpp      ****                           AudioHandle::InterleavingOutputBuffer out,
  26:adsr.cpp      ****                           size_t                                size)
  27:adsr.cpp      **** {
 153              		.loc 9 27 1 is_stmt 1 view -0
 154              		.cfi_startproc
ARM GAS  /tmp/ccZbTdcl.s 			page 10


 155              		@ args = 0, pretend = 0, frame = 0
 156              		@ frame_needed = 0, uses_anonymous_args = 0
  28:adsr.cpp      ****     float osc_out, env_out;
 157              		.loc 9 28 5 view .LVU17
  29:adsr.cpp      ****     for(size_t i = 0; i < size; i += 2)
 158              		.loc 9 29 5 view .LVU18
 159              	.LBB88:
 160              		.loc 9 29 25 view .LVU19
 161 0000 22B3     		cbz	r2, .L13
 162 0002 013A     		subs	r2, r2, #1
 163              	.LVL5:
 164              		.loc 9 29 25 is_stmt 0 view .LVU20
 165              	.LBE88:
  27:adsr.cpp      ****     float osc_out, env_out;
 166              		.loc 9 27 1 view .LVU21
 167 0004 2DE9F041 		push	{r4, r5, r6, r7, r8, lr}
 168              		.cfi_def_cfa_offset 24
 169              		.cfi_offset 4, -24
 170              		.cfi_offset 5, -20
 171              		.cfi_offset 6, -16
 172              		.cfi_offset 7, -12
 173              		.cfi_offset 8, -8
 174              		.cfi_offset 14, -4
 175 0008 0C46     		mov	r4, r1
 176              	.LBB93:
 177              		.loc 9 29 16 view .LVU22
 178 000a 0025     		movs	r5, #0
 179 000c 104F     		ldr	r7, .L16
 180 000e 22F00106 		bic	r6, r2, #1
 181 0012 DFF84880 		ldr	r8, .L16+12
 182              	.LVL6:
 183              	.L11:
  30:adsr.cpp      ****     {
  31:adsr.cpp      ****         // When the metro ticks, trigger the envelope to start.
  32:adsr.cpp      ****         if(tick.Process())
 184              		.loc 9 32 9 is_stmt 1 view .LVU23
 185              		.loc 9 32 24 is_stmt 0 view .LVU24
 186 0016 0F48     		ldr	r0, .L16+4
 187 0018 FFF7FEFF 		bl	_ZN7daisysp5Metro7ProcessEv
 188              	.LVL7:
  33:adsr.cpp      ****         {
  34:adsr.cpp      ****             gate = !gate;
 189              		.loc 9 34 13 is_stmt 1 view .LVU25
 190              		.loc 9 34 20 is_stmt 0 view .LVU26
 191 001c 3978     		ldrb	r1, [r7]	@ zero_extendqisi2
  32:adsr.cpp      ****         {
 192              		.loc 9 32 9 view .LVU27
 193 001e 10B1     		cbz	r0, .L9
 194              		.loc 9 34 20 view .LVU28
 195 0020 81F00101 		eor	r1, r1, #1
 196              		.loc 9 34 18 view .LVU29
 197 0024 3970     		strb	r1, [r7]
 198              	.L9:
  35:adsr.cpp      ****         }
  36:adsr.cpp      **** 
  37:adsr.cpp      ****         // Use envelope to control the amplitude of the oscillator.
  38:adsr.cpp      ****         env_out = env.Process(gate);
ARM GAS  /tmp/ccZbTdcl.s 			page 11


 199              		.loc 9 38 9 is_stmt 1 discriminator 2 view .LVU30
 200              		.loc 9 38 30 is_stmt 0 discriminator 2 view .LVU31
 201 0026 0C48     		ldr	r0, .L16+8
 202 0028 0834     		adds	r4, r4, #8
 203 002a FFF7FEFF 		bl	_ZN7daisysp4Adsr7ProcessEb
 204              	.LVL8:
  39:adsr.cpp      ****         osc.SetAmp(env_out);
 205              		.loc 9 39 9 is_stmt 1 discriminator 2 view .LVU32
 206              	.LBB89:
 207              	.LBI89:
  17:../../DaisySP/Source/Synthesis/oscillator.h ****     /** Choices for output waveforms, POLYBLEP are appropriately labeled. Others are naive forms.
  18:../../DaisySP/Source/Synthesis/oscillator.h ****     */
  19:../../DaisySP/Source/Synthesis/oscillator.h ****     enum
  20:../../DaisySP/Source/Synthesis/oscillator.h ****     {
  21:../../DaisySP/Source/Synthesis/oscillator.h ****         WAVE_SIN,
  22:../../DaisySP/Source/Synthesis/oscillator.h ****         WAVE_TRI,
  23:../../DaisySP/Source/Synthesis/oscillator.h ****         WAVE_SAW,
  24:../../DaisySP/Source/Synthesis/oscillator.h ****         WAVE_RAMP,
  25:../../DaisySP/Source/Synthesis/oscillator.h ****         WAVE_SQUARE,
  26:../../DaisySP/Source/Synthesis/oscillator.h ****         WAVE_POLYBLEP_TRI,
  27:../../DaisySP/Source/Synthesis/oscillator.h ****         WAVE_POLYBLEP_SAW,
  28:../../DaisySP/Source/Synthesis/oscillator.h ****         WAVE_POLYBLEP_SQUARE,
  29:../../DaisySP/Source/Synthesis/oscillator.h ****         WAVE_LAST,
  30:../../DaisySP/Source/Synthesis/oscillator.h ****     };
  31:../../DaisySP/Source/Synthesis/oscillator.h **** 
  32:../../DaisySP/Source/Synthesis/oscillator.h **** 
  33:../../DaisySP/Source/Synthesis/oscillator.h ****     /** Initializes the Oscillator
  34:../../DaisySP/Source/Synthesis/oscillator.h **** 
  35:../../DaisySP/Source/Synthesis/oscillator.h ****         \param sample_rate - sample rate of the audio engine being run, and the frequency that the 
  36:../../DaisySP/Source/Synthesis/oscillator.h **** 
  37:../../DaisySP/Source/Synthesis/oscillator.h ****         Defaults:
  38:../../DaisySP/Source/Synthesis/oscillator.h ****         - freq_ = 100 Hz
  39:../../DaisySP/Source/Synthesis/oscillator.h ****         - amp_ = 0.5
  40:../../DaisySP/Source/Synthesis/oscillator.h ****         - waveform_ = sine wave.
  41:../../DaisySP/Source/Synthesis/oscillator.h ****     */
  42:../../DaisySP/Source/Synthesis/oscillator.h ****     void Init(float sample_rate)
  43:../../DaisySP/Source/Synthesis/oscillator.h ****     {
  44:../../DaisySP/Source/Synthesis/oscillator.h ****         sr_        = sample_rate;
  45:../../DaisySP/Source/Synthesis/oscillator.h ****         sr_recip_  = 1.0f / sample_rate;
  46:../../DaisySP/Source/Synthesis/oscillator.h ****         freq_      = 100.0f;
  47:../../DaisySP/Source/Synthesis/oscillator.h ****         amp_       = 0.5f;
  48:../../DaisySP/Source/Synthesis/oscillator.h ****         phase_     = 0.0f;
  49:../../DaisySP/Source/Synthesis/oscillator.h ****         phase_inc_ = CalcPhaseInc(freq_);
  50:../../DaisySP/Source/Synthesis/oscillator.h ****         waveform_  = WAVE_SIN;
  51:../../DaisySP/Source/Synthesis/oscillator.h ****         eoc_       = true;
  52:../../DaisySP/Source/Synthesis/oscillator.h ****         eor_       = true;
  53:../../DaisySP/Source/Synthesis/oscillator.h ****     }
  54:../../DaisySP/Source/Synthesis/oscillator.h **** 
  55:../../DaisySP/Source/Synthesis/oscillator.h **** 
  56:../../DaisySP/Source/Synthesis/oscillator.h ****     /** Changes the frequency of the Oscillator, and recalculates phase increment.
  57:../../DaisySP/Source/Synthesis/oscillator.h ****     */
  58:../../DaisySP/Source/Synthesis/oscillator.h ****     inline void SetFreq(const float f)
  59:../../DaisySP/Source/Synthesis/oscillator.h ****     {
  60:../../DaisySP/Source/Synthesis/oscillator.h ****         freq_      = f;
  61:../../DaisySP/Source/Synthesis/oscillator.h ****         phase_inc_ = CalcPhaseInc(f);
  62:../../DaisySP/Source/Synthesis/oscillator.h ****     }
  63:../../DaisySP/Source/Synthesis/oscillator.h **** 
ARM GAS  /tmp/ccZbTdcl.s 			page 12


  64:../../DaisySP/Source/Synthesis/oscillator.h **** 
  65:../../DaisySP/Source/Synthesis/oscillator.h ****     /** Sets the amplitude of the waveform.
  66:../../DaisySP/Source/Synthesis/oscillator.h ****     */
  67:../../DaisySP/Source/Synthesis/oscillator.h ****     inline void SetAmp(const float a) { amp_ = a; }
 208              		.loc 2 67 17 discriminator 2 view .LVU33
 209              	.LBB90:
 210              		.loc 2 67 41 discriminator 2 view .LVU34
 211              	.LBE90:
 212              	.LBE89:
  40:adsr.cpp      ****         osc_out = osc.Process();
 213              		.loc 9 40 30 is_stmt 0 discriminator 2 view .LVU35
 214 002e 0B48     		ldr	r0, .L16+12
 215              	.LBB92:
 216              	.LBB91:
 217              		.loc 2 67 46 discriminator 2 view .LVU36
 218 0030 88ED010A 		vstr.32	s0, [r8, #4]
 219              	.LVL9:
 220              		.loc 2 67 46 discriminator 2 view .LVU37
 221              	.LBE91:
 222              	.LBE92:
 223              		.loc 9 40 9 is_stmt 1 discriminator 2 view .LVU38
 224              		.loc 9 40 30 is_stmt 0 discriminator 2 view .LVU39
 225 0034 FFF7FEFF 		bl	_ZN7daisysp10Oscillator7ProcessEv
 226              	.LVL10:
  29:adsr.cpp      ****     {
 227              		.loc 9 29 35 discriminator 2 view .LVU40
 228 0038 AB1C     		adds	r3, r5, #2
 229              	.LVL11:
  41:adsr.cpp      **** 
  42:adsr.cpp      ****         out[LEFT]  = osc_out;
 230              		.loc 9 42 9 is_stmt 1 discriminator 2 view .LVU41
  29:adsr.cpp      ****     {
 231              		.loc 9 29 25 is_stmt 0 discriminator 2 view .LVU42
 232 003a B542     		cmp	r5, r6
 233              		.loc 9 42 20 discriminator 2 view .LVU43
 234 003c 04ED020A 		vstr.32	s0, [r4, #-8]
  43:adsr.cpp      ****         out[RIGHT] = osc_out;
 235              		.loc 9 43 9 is_stmt 1 discriminator 2 view .LVU44
 236              		.loc 9 43 20 is_stmt 0 discriminator 2 view .LVU45
 237 0040 04ED010A 		vstr.32	s0, [r4, #-4]
  29:adsr.cpp      ****     {
 238              		.loc 9 29 5 is_stmt 1 discriminator 2 view .LVU46
 239              	.LVL12:
  29:adsr.cpp      ****     {
 240              		.loc 9 29 25 discriminator 2 view .LVU47
 241 0044 1D46     		mov	r5, r3
 242 0046 E6D1     		bne	.L11
 243              	.LBE93:
  44:adsr.cpp      ****     }
  45:adsr.cpp      **** }
 244              		.loc 9 45 1 is_stmt 0 view .LVU48
 245 0048 BDE8F081 		pop	{r4, r5, r6, r7, r8, pc}
 246              	.LVL13:
 247              	.L13:
 248              		.cfi_def_cfa_offset 0
 249              		.cfi_restore 4
 250              		.cfi_restore 5
ARM GAS  /tmp/ccZbTdcl.s 			page 13


 251              		.cfi_restore 6
 252              		.cfi_restore 7
 253              		.cfi_restore 8
 254              		.cfi_restore 14
 255              		.loc 9 45 1 view .LVU49
 256 004c 7047     		bx	lr
 257              	.L17:
 258 004e 00BF     		.align	2
 259              	.L16:
 260 0050 00000000 		.word	.LANCHOR1
 261 0054 00000000 		.word	.LANCHOR0
 262 0058 00000000 		.word	.LANCHOR2
 263 005c 00000000 		.word	.LANCHOR3
 264              		.cfi_endproc
 265              	.LFE4212:
 267              		.section	.text.startup.main,"ax",%progbits
 268              		.align	1
 269              		.p2align 2,,3
 270              		.global	main
 271              		.syntax unified
 272              		.thumb
 273              		.thumb_func
 274              		.fpu fpv5-d16
 276              	main:
 277              	.LFB4213:
  46:adsr.cpp      **** 
  47:adsr.cpp      **** int main(void)
  48:adsr.cpp      **** {
 278              		.loc 9 48 1 is_stmt 1 view -0
 279              		.cfi_startproc
 280              		@ args = 0, pretend = 0, frame = 0
 281              		@ frame_needed = 0, uses_anonymous_args = 0
  49:adsr.cpp      ****     // initialize seed hardware and daisysp modules
  50:adsr.cpp      ****     float sample_rate;
 282              		.loc 9 50 5 view .LVU51
  51:adsr.cpp      ****     seed.Configure();
 283              		.loc 9 51 5 view .LVU52
  48:adsr.cpp      ****     // initialize seed hardware and daisysp modules
 284              		.loc 9 48 1 is_stmt 0 view .LVU53
 285 0000 70B5     		push	{r4, r5, r6, lr}
 286              		.cfi_def_cfa_offset 16
 287              		.cfi_offset 4, -16
 288              		.cfi_offset 5, -12
 289              		.cfi_offset 6, -8
 290              		.cfi_offset 14, -4
 291              		.loc 9 51 19 view .LVU54
 292 0002 2848     		ldr	r0, .L21
 293              	.LBB94:
 294              	.LBB95:
  40:../../DaisySP/Source/Control/adsr.h ****     /** Initializes the Adsr module.
  41:../../DaisySP/Source/Control/adsr.h ****         \param sample_rate - The sample rate of the audio engine being run. 
  42:../../DaisySP/Source/Control/adsr.h ****     */
  43:../../DaisySP/Source/Control/adsr.h ****     void Init(float sample_rate);
  44:../../DaisySP/Source/Control/adsr.h **** 
  45:../../DaisySP/Source/Control/adsr.h **** 
  46:../../DaisySP/Source/Control/adsr.h ****     /** Processes one sample through the filter and returns one sample.
  47:../../DaisySP/Source/Control/adsr.h ****         \param gate - trigger the envelope, hold it to sustain 
ARM GAS  /tmp/ccZbTdcl.s 			page 14


  48:../../DaisySP/Source/Control/adsr.h ****     */
  49:../../DaisySP/Source/Control/adsr.h ****     float Process(bool gate);
  50:../../DaisySP/Source/Control/adsr.h **** 
  51:../../DaisySP/Source/Control/adsr.h ****     /** Sets time
  52:../../DaisySP/Source/Control/adsr.h ****         Set time per segment in seconds
  53:../../DaisySP/Source/Control/adsr.h ****     */
  54:../../DaisySP/Source/Control/adsr.h ****     inline void SetTime(int seg, float time) { seg_time_[seg] = time; }
  55:../../DaisySP/Source/Control/adsr.h ****     /** Sustain level
  56:../../DaisySP/Source/Control/adsr.h ****         \param sus_level - sets sustain level
  57:../../DaisySP/Source/Control/adsr.h ****     */
  58:../../DaisySP/Source/Control/adsr.h ****     inline void SetSustainLevel(float sus_level) { sus_ = sus_level; }
 295              		.loc 1 58 57 view .LVU55
 296 0004 4FF07A56 		mov	r6, #1048576000
 297              	.LBE95:
 298              	.LBE94:
  52:adsr.cpp      ****     seed.Init();
  53:adsr.cpp      ****     sample_rate = seed.AudioSampleRate();
  54:adsr.cpp      ****     env.Init(sample_rate);
 299              		.loc 9 54 13 view .LVU56
 300 0008 274D     		ldr	r5, .L21+4
 301              	.LBB97:
 302              	.LBB98:
  44:../../DaisySP/Source/Synthesis/oscillator.h ****         sr_recip_  = 1.0f / sample_rate;
 303              		.loc 2 44 20 view .LVU57
 304 000a 284C     		ldr	r4, .L21+8
 305              	.LBE98:
 306              	.LBE97:
  48:adsr.cpp      ****     // initialize seed hardware and daisysp modules
 307              		.loc 9 48 1 view .LVU58
 308 000c 2DED028B 		vpush.64	{d8}
 309              		.cfi_def_cfa_offset 24
 310              		.cfi_offset 80, -24
 311              		.cfi_offset 81, -20
  51:adsr.cpp      ****     seed.Init();
 312              		.loc 9 51 19 view .LVU59
 313 0010 FFF7FEFF 		bl	_ZN5daisy9DaisySeed9ConfigureEv
 314              	.LVL14:
  52:adsr.cpp      ****     sample_rate = seed.AudioSampleRate();
 315              		.loc 9 52 5 is_stmt 1 view .LVU60
  52:adsr.cpp      ****     sample_rate = seed.AudioSampleRate();
 316              		.loc 9 52 14 is_stmt 0 view .LVU61
 317 0014 0021     		movs	r1, #0
 318 0016 2348     		ldr	r0, .L21
 319              	.LBB102:
 320              	.LBB99:
  45:../../DaisySP/Source/Synthesis/oscillator.h ****         freq_      = 100.0f;
 321              		.loc 2 45 27 view .LVU62
 322 0018 F7EE008A 		vmov.f32	s17, #1.0e+0
 323              	.LBE99:
 324              	.LBE102:
  52:adsr.cpp      ****     sample_rate = seed.AudioSampleRate();
 325              		.loc 9 52 14 view .LVU63
 326 001c FFF7FEFF 		bl	_ZN5daisy9DaisySeed4InitEb
 327              	.LVL15:
  53:adsr.cpp      ****     env.Init(sample_rate);
 328              		.loc 9 53 5 is_stmt 1 view .LVU64
  53:adsr.cpp      ****     env.Init(sample_rate);
ARM GAS  /tmp/ccZbTdcl.s 			page 15


 329              		.loc 9 53 39 is_stmt 0 view .LVU65
 330 0020 2048     		ldr	r0, .L21
 331 0022 FFF7FEFF 		bl	_ZN5daisy9DaisySeed15AudioSampleRateEv
 332              	.LVL16:
 333 0026 B0EE408A 		vmov.f32	s16, s0
 334              	.LVL17:
 335              		.loc 9 54 5 is_stmt 1 view .LVU66
 336              		.loc 9 54 13 is_stmt 0 view .LVU67
 337 002a 2846     		mov	r0, r5
 338 002c FFF7FEFF 		bl	_ZN7daisysp4Adsr4InitEf
 339              	.LVL18:
  55:adsr.cpp      ****     osc.Init(sample_rate);
 340              		.loc 9 55 5 is_stmt 1 view .LVU68
 341              	.LBB103:
 342              	.LBI97:
  42:../../DaisySP/Source/Synthesis/oscillator.h ****     {
 343              		.loc 2 42 10 view .LVU69
 344              	.LBB100:
  44:../../DaisySP/Source/Synthesis/oscillator.h ****         sr_recip_  = 1.0f / sample_rate;
 345              		.loc 2 44 9 view .LVU70
  48:../../DaisySP/Source/Synthesis/oscillator.h ****         phase_inc_ = CalcPhaseInc(freq_);
 346              		.loc 2 48 20 is_stmt 0 view .LVU71
 347 0030 0022     		movs	r2, #0
  45:../../DaisySP/Source/Synthesis/oscillator.h ****         freq_      = 100.0f;
 348              		.loc 2 45 27 view .LVU72
 349 0032 C8EE887A 		vdiv.f32	s15, s17, s16
  47:../../DaisySP/Source/Synthesis/oscillator.h ****         phase_     = 0.0f;
 350              		.loc 2 47 20 view .LVU73
 351 0036 4FF07C53 		mov	r3, #1056964608
  46:../../DaisySP/Source/Synthesis/oscillator.h ****         amp_       = 0.5f;
 352              		.loc 2 46 20 view .LVU74
 353 003a 9FED1D0A 		vldr.32	s0, .L21+12
  49:../../DaisySP/Source/Synthesis/oscillator.h ****         waveform_  = WAVE_SIN;
 354              		.loc 2 49 34 view .LVU75
 355 003e 2046     		mov	r0, r4
  48:../../DaisySP/Source/Synthesis/oscillator.h ****         phase_inc_ = CalcPhaseInc(freq_);
 356              		.loc 2 48 20 view .LVU76
 357 0040 6261     		str	r2, [r4, #20]	@ float
  47:../../DaisySP/Source/Synthesis/oscillator.h ****         phase_     = 0.0f;
 358              		.loc 2 47 20 view .LVU77
 359 0042 6360     		str	r3, [r4, #4]	@ float
  44:../../DaisySP/Source/Synthesis/oscillator.h ****         sr_recip_  = 1.0f / sample_rate;
 360              		.loc 2 44 20 view .LVU78
 361 0044 84ED038A 		vstr.32	s16, [r4, #12]
  45:../../DaisySP/Source/Synthesis/oscillator.h ****         freq_      = 100.0f;
 362              		.loc 2 45 9 is_stmt 1 view .LVU79
  46:../../DaisySP/Source/Synthesis/oscillator.h ****         amp_       = 0.5f;
 363              		.loc 2 46 20 is_stmt 0 view .LVU80
 364 0048 84ED020A 		vstr.32	s0, [r4, #8]
  45:../../DaisySP/Source/Synthesis/oscillator.h ****         freq_      = 100.0f;
 365              		.loc 2 45 20 view .LVU81
 366 004c C4ED047A 		vstr.32	s15, [r4, #16]
  46:../../DaisySP/Source/Synthesis/oscillator.h ****         amp_       = 0.5f;
 367              		.loc 2 46 9 is_stmt 1 view .LVU82
  47:../../DaisySP/Source/Synthesis/oscillator.h ****         phase_     = 0.0f;
 368              		.loc 2 47 9 view .LVU83
  48:../../DaisySP/Source/Synthesis/oscillator.h ****         phase_inc_ = CalcPhaseInc(freq_);
ARM GAS  /tmp/ccZbTdcl.s 			page 16


 369              		.loc 2 48 9 view .LVU84
  49:../../DaisySP/Source/Synthesis/oscillator.h ****         waveform_  = WAVE_SIN;
 370              		.loc 2 49 9 view .LVU85
  49:../../DaisySP/Source/Synthesis/oscillator.h ****         waveform_  = WAVE_SIN;
 371              		.loc 2 49 34 is_stmt 0 view .LVU86
 372 0050 FFF7FEFF 		bl	_ZN7daisysp10Oscillator12CalcPhaseIncEf
 373              	.LVL19:
 374 0054 F0EE407A 		vmov.f32	s15, s0
  50:../../DaisySP/Source/Synthesis/oscillator.h ****         eoc_       = true;
 375              		.loc 2 50 20 view .LVU87
 376 0058 0022     		movs	r2, #0
  52:../../DaisySP/Source/Synthesis/oscillator.h ****     }
 377              		.loc 2 52 20 view .LVU88
 378 005a 40F20113 		movw	r3, #257
 379              	.LBE100:
 380              	.LBE103:
  56:adsr.cpp      **** 
  57:adsr.cpp      ****     // Set up metro to pulse every second
  58:adsr.cpp      ****     tick.Init(1.0f, sample_rate);
 381              		.loc 9 58 14 view .LVU89
 382 005e F0EE480A 		vmov.f32	s1, s16
 383 0062 B0EE680A 		vmov.f32	s0, s17
 384 0066 1348     		ldr	r0, .L21+16
 385              	.LBB104:
 386              	.LBB101:
  49:../../DaisySP/Source/Synthesis/oscillator.h ****         waveform_  = WAVE_SIN;
 387              		.loc 2 49 20 view .LVU90
 388 0068 C4ED067A 		vstr.32	s15, [r4, #24]
  50:../../DaisySP/Source/Synthesis/oscillator.h ****         eoc_       = true;
 389              		.loc 2 50 9 is_stmt 1 view .LVU91
  50:../../DaisySP/Source/Synthesis/oscillator.h ****         eoc_       = true;
 390              		.loc 2 50 20 is_stmt 0 view .LVU92
 391 006c 2270     		strb	r2, [r4]
  51:../../DaisySP/Source/Synthesis/oscillator.h ****         eor_       = true;
 392              		.loc 2 51 9 is_stmt 1 view .LVU93
  52:../../DaisySP/Source/Synthesis/oscillator.h ****     }
 393              		.loc 2 52 9 view .LVU94
  52:../../DaisySP/Source/Synthesis/oscillator.h ****     }
 394              		.loc 2 52 20 is_stmt 0 view .LVU95
 395 006e A384     		strh	r3, [r4, #36]	@ movhi
 396              	.LVL20:
  52:../../DaisySP/Source/Synthesis/oscillator.h ****     }
 397              		.loc 2 52 20 view .LVU96
 398              	.LBE101:
 399              	.LBE104:
 400              		.loc 9 58 5 is_stmt 1 view .LVU97
 401              		.loc 9 58 14 is_stmt 0 view .LVU98
 402 0070 FFF7FEFF 		bl	_ZN7daisysp5Metro4InitEff
 403              	.LVL21:
  59:adsr.cpp      **** 
  60:adsr.cpp      ****     //Set envelope parameters
  61:adsr.cpp      ****     env.SetTime(ADSR_SEG_ATTACK, .1);
 404              		.loc 9 61 5 is_stmt 1 view .LVU99
 405              	.LBB105:
 406              	.LBI105:
  54:../../DaisySP/Source/Control/adsr.h ****     /** Sustain level
 407              		.loc 1 54 17 view .LVU100
ARM GAS  /tmp/ccZbTdcl.s 			page 17


 408              	.LBB106:
  54:../../DaisySP/Source/Control/adsr.h ****     /** Sustain level
 409              		.loc 1 54 48 view .LVU101
 410              	.LBE106:
 411              	.LBE105:
 412              	.LBB109:
 413              	.LBB110:
  68:../../DaisySP/Source/Synthesis/oscillator.h ****     /** Sets the waveform to be synthesized by the Process() function.
  69:../../DaisySP/Source/Synthesis/oscillator.h ****     */
  70:../../DaisySP/Source/Synthesis/oscillator.h ****     inline void SetWaveform(const uint8_t wf)
  71:../../DaisySP/Source/Synthesis/oscillator.h ****     {
  72:../../DaisySP/Source/Synthesis/oscillator.h ****         waveform_ = wf < WAVE_LAST ? wf : WAVE_SIN;
 414              		.loc 2 72 19 is_stmt 0 view .LVU102
 415 0074 0123     		movs	r3, #1
 416              	.LBE110:
 417              	.LBE109:
 418              	.LBB113:
 419              	.LBB114:
  60:../../DaisySP/Source/Synthesis/oscillator.h ****         phase_inc_ = CalcPhaseInc(f);
 420              		.loc 2 60 20 view .LVU103
 421 0076 9FED100A 		vldr.32	s0, .L21+20
 422              	.LBE114:
 423              	.LBE113:
 424              	.LBB118:
 425              	.LBB119:
  54:../../DaisySP/Source/Control/adsr.h ****     /** Sustain level
 426              		.loc 1 54 63 view .LVU104
 427 007a 104A     		ldr	r2, .L21+24
 428              	.LBE119:
 429              	.LBE118:
 430              	.LBB122:
 431              	.LBB115:
  61:../../DaisySP/Source/Synthesis/oscillator.h ****     }
 432              		.loc 2 61 34 view .LVU105
 433 007c 2046     		mov	r0, r4
 434              	.LBE115:
 435              	.LBE122:
 436              	.LBB123:
 437              	.LBB111:
 438              		.loc 2 72 19 view .LVU106
 439 007e 2370     		strb	r3, [r4]
 440              	.LBE111:
 441              	.LBE123:
 442              	.LBB124:
 443              	.LBB107:
  54:../../DaisySP/Source/Control/adsr.h ****     /** Sustain level
 444              		.loc 1 54 63 view .LVU107
 445 0080 0F4B     		ldr	r3, .L21+28
 446              	.LBE107:
 447              	.LBE124:
 448              	.LBB125:
 449              	.LBB120:
 450 0082 6A61     		str	r2, [r5, #20]	@ float
 451              	.LBE120:
 452              	.LBE125:
 453              	.LBB126:
 454              	.LBB108:
ARM GAS  /tmp/ccZbTdcl.s 			page 18


 455 0084 AB60     		str	r3, [r5, #8]	@ float
 456              	.LVL22:
  54:../../DaisySP/Source/Control/adsr.h ****     /** Sustain level
 457              		.loc 1 54 63 view .LVU108
 458              	.LBE108:
 459              	.LBE126:
  62:adsr.cpp      ****     env.SetTime(ADSR_SEG_DECAY, .1);
 460              		.loc 9 62 5 is_stmt 1 view .LVU109
 461              	.LBB127:
 462              	.LBI127:
  54:../../DaisySP/Source/Control/adsr.h ****     /** Sustain level
 463              		.loc 1 54 17 view .LVU110
 464              	.LBB128:
  54:../../DaisySP/Source/Control/adsr.h ****     /** Sustain level
 465              		.loc 1 54 48 view .LVU111
  54:../../DaisySP/Source/Control/adsr.h ****     /** Sustain level
 466              		.loc 1 54 63 is_stmt 0 view .LVU112
 467 0086 EB60     		str	r3, [r5, #12]	@ float
 468              	.LVL23:
  54:../../DaisySP/Source/Control/adsr.h ****     /** Sustain level
 469              		.loc 1 54 63 view .LVU113
 470              	.LBE128:
 471              	.LBE127:
  63:adsr.cpp      ****     env.SetTime(ADSR_SEG_RELEASE, .01);
 472              		.loc 9 63 5 is_stmt 1 view .LVU114
 473              	.LBB129:
 474              	.LBI118:
  54:../../DaisySP/Source/Control/adsr.h ****     /** Sustain level
 475              		.loc 1 54 17 view .LVU115
 476              	.LBB121:
  54:../../DaisySP/Source/Control/adsr.h ****     /** Sustain level
 477              		.loc 1 54 48 view .LVU116
  54:../../DaisySP/Source/Control/adsr.h ****     /** Sustain level
 478              		.loc 1 54 48 is_stmt 0 view .LVU117
 479              	.LBE121:
 480              	.LBE129:
  64:adsr.cpp      **** 
  65:adsr.cpp      ****     env.SetSustainLevel(.25);
 481              		.loc 9 65 5 is_stmt 1 view .LVU118
 482              	.LBB130:
 483              	.LBI94:
 484              		.loc 1 58 17 view .LVU119
 485              	.LBB96:
 486              		.loc 1 58 52 view .LVU120
 487              		.loc 1 58 57 is_stmt 0 view .LVU121
 488 0088 2E60     		str	r6, [r5]	@ float
 489              	.LVL24:
 490              		.loc 1 58 57 view .LVU122
 491              	.LBE96:
 492              	.LBE130:
  66:adsr.cpp      **** 
  67:adsr.cpp      ****     // Set parameters for oscillator
  68:adsr.cpp      ****     osc.SetWaveform(osc.WAVE_TRI);
 493              		.loc 9 68 5 is_stmt 1 view .LVU123
 494              	.LBB131:
 495              	.LBI109:
  70:../../DaisySP/Source/Synthesis/oscillator.h ****     {
ARM GAS  /tmp/ccZbTdcl.s 			page 19


 496              		.loc 2 70 17 view .LVU124
 497              	.LBB112:
 498              		.loc 2 72 9 view .LVU125
 499              		.loc 2 72 9 is_stmt 0 view .LVU126
 500              	.LBE112:
 501              	.LBE131:
  69:adsr.cpp      ****     osc.SetFreq(220);
 502              		.loc 9 69 5 is_stmt 1 view .LVU127
 503              	.LBB132:
 504              	.LBI113:
  58:../../DaisySP/Source/Synthesis/oscillator.h ****     {
 505              		.loc 2 58 17 view .LVU128
 506              	.LBB116:
  60:../../DaisySP/Source/Synthesis/oscillator.h ****         phase_inc_ = CalcPhaseInc(f);
 507              		.loc 2 60 9 view .LVU129
  60:../../DaisySP/Source/Synthesis/oscillator.h ****         phase_inc_ = CalcPhaseInc(f);
 508              		.loc 2 60 20 is_stmt 0 view .LVU130
 509 008a 84ED020A 		vstr.32	s0, [r4, #8]
  61:../../DaisySP/Source/Synthesis/oscillator.h ****     }
 510              		.loc 2 61 9 is_stmt 1 view .LVU131
  61:../../DaisySP/Source/Synthesis/oscillator.h ****     }
 511              		.loc 2 61 34 is_stmt 0 view .LVU132
 512 008e FFF7FEFF 		bl	_ZN7daisysp10Oscillator12CalcPhaseIncEf
 513              	.LVL25:
 514              	.LBE116:
 515              	.LBE132:
  70:adsr.cpp      ****     osc.SetAmp(0.25);
  71:adsr.cpp      **** 
  72:adsr.cpp      ****     // start callback
  73:adsr.cpp      ****     seed.StartAudio(AudioCallback);
 516              		.loc 9 73 20 view .LVU133
 517 0092 0C49     		ldr	r1, .L21+32
 518 0094 0348     		ldr	r0, .L21
 519              	.LBB133:
 520              	.LBB134:
  67:../../DaisySP/Source/Synthesis/oscillator.h ****     /** Sets the waveform to be synthesized by the Process() function.
 521              		.loc 2 67 46 view .LVU134
 522 0096 6660     		str	r6, [r4, #4]	@ float
 523              	.LBE134:
 524              	.LBE133:
 525              	.LBB136:
 526              	.LBB117:
  61:../../DaisySP/Source/Synthesis/oscillator.h ****     }
 527              		.loc 2 61 20 view .LVU135
 528 0098 84ED060A 		vstr.32	s0, [r4, #24]
 529              	.LVL26:
  61:../../DaisySP/Source/Synthesis/oscillator.h ****     }
 530              		.loc 2 61 20 view .LVU136
 531              	.LBE117:
 532              	.LBE136:
  70:adsr.cpp      ****     osc.SetAmp(0.25);
 533              		.loc 9 70 5 is_stmt 1 view .LVU137
 534              	.LBB137:
 535              	.LBI133:
  67:../../DaisySP/Source/Synthesis/oscillator.h ****     /** Sets the waveform to be synthesized by the Process() function.
 536              		.loc 2 67 17 view .LVU138
 537              	.LBB135:
ARM GAS  /tmp/ccZbTdcl.s 			page 20


  67:../../DaisySP/Source/Synthesis/oscillator.h ****     /** Sets the waveform to be synthesized by the Process() function.
 538              		.loc 2 67 41 view .LVU139
  67:../../DaisySP/Source/Synthesis/oscillator.h ****     /** Sets the waveform to be synthesized by the Process() function.
 539              		.loc 2 67 41 is_stmt 0 view .LVU140
 540              	.LBE135:
 541              	.LBE137:
 542              		.loc 9 73 5 is_stmt 1 view .LVU141
 543              		.loc 9 73 20 is_stmt 0 view .LVU142
 544 009c FFF7FEFF 		bl	_ZN5daisy9DaisySeed10StartAudioEPFvPKfPfjE
 545              	.LVL27:
 546              	.L19:
  74:adsr.cpp      **** 
  75:adsr.cpp      ****     while(1) {}
 547              		.loc 9 75 5 is_stmt 1 discriminator 1 view .LVU143
 548              		.loc 9 75 5 discriminator 1 view .LVU144
 549              		.loc 9 75 5 discriminator 1 view .LVU145
 550              		.loc 9 75 5 discriminator 1 view .LVU146
 551 00a0 FEE7     		b	.L19
 552              	.L22:
 553 00a2 00BF     		.align	2
 554              	.L21:
 555 00a4 00000000 		.word	.LANCHOR4
 556 00a8 00000000 		.word	.LANCHOR2
 557 00ac 00000000 		.word	.LANCHOR3
 558 00b0 0000C842 		.word	1120403456
 559 00b4 00000000 		.word	.LANCHOR0
 560 00b8 00005C43 		.word	1130102784
 561 00bc 0AD7233C 		.word	1008981770
 562 00c0 CDCCCC3D 		.word	1036831949
 563 00c4 00000000 		.word	_ZL13AudioCallbackPKfPfj
 564              		.cfi_endproc
 565              	.LFE4213:
 567              		.section	.text.startup._GLOBAL__sub_I_gate,"ax",%progbits
 568              		.align	1
 569              		.p2align 2,,3
 570              		.syntax unified
 571              		.thumb
 572              		.thumb_func
 573              		.fpu fpv5-d16
 575              	_GLOBAL__sub_I_gate:
 576              	.LFB4759:
  76:adsr.cpp      **** }
 577              		.loc 9 76 1 view -0
 578              		.cfi_startproc
 579              		@ args = 0, pretend = 0, frame = 0
 580              		@ frame_needed = 0, uses_anonymous_args = 0
 581              	.LBB159:
 582              	.LBI159:
 583              		.loc 9 76 1 view .LVU148
 584              	.LVL28:
 585              	.LBB160:
 586              	.LBB161:
 587              	.LBI161:
  21:../../libdaisy/src/daisy_seed.h ****     ~DaisySeed() {}
 588              		.loc 4 21 5 view .LVU149
 589              	.LBB162:
 590              	.LBB163:
ARM GAS  /tmp/ccZbTdcl.s 			page 21


 591              	.LBI163:
  62:../../libdaisy/src/hid/audio.h ****     ~AudioHandle() {}
 592              		.loc 8 62 5 view .LVU150
 593              	.LBE163:
 594              	.LBE162:
 595              	.LBE161:
 596              	.LBE160:
 597              	.LBE159:
 598              		.loc 9 76 1 is_stmt 0 view .LVU151
 599 0000 08B5     		push	{r3, lr}
 600              		.cfi_def_cfa_offset 8
 601              		.cfi_offset 3, -8
 602              		.cfi_offset 14, -4
 603              	.LBB185:
 604              	.LBB183:
 605              	.LBB178:
 606              	.LBB176:
 607              	.LBB168:
 608              	.LBB164:
 609              	.LBB165:
  62:../../libdaisy/src/hid/audio.h ****     ~AudioHandle() {}
 610              		.loc 8 62 35 view .LVU152
 611 0002 0C48     		ldr	r0, .L25
 612 0004 0023     		movs	r3, #0
 613              	.LBE165:
 614              	.LBE164:
 615              	.LBE168:
 616              	.LBE176:
 617              	.LBE178:
  18:adsr.cpp      **** static Adsr       env;
 618              		.loc 9 18 19 view .LVU153
 619 0006 0C4A     		ldr	r2, .L25+4
 620              	.LBB179:
 621              	.LBB177:
 622              	.LBB169:
 623              	.LBB167:
 624              	.LBB166:
  62:../../libdaisy/src/hid/audio.h ****     ~AudioHandle() {}
 625              		.loc 8 62 35 view .LVU154
 626 0008 4361     		str	r3, [r0, #20]
 627              	.LVL29:
  62:../../libdaisy/src/hid/audio.h ****     ~AudioHandle() {}
 628              		.loc 8 62 35 view .LVU155
 629              	.LBE166:
 630              	.LBE167:
 631              	.LBE169:
 632              	.LBB170:
 633              	.LBI170:
  84:../../libdaisy/src/per/adc.h ****     ~AdcHandle() {}
 634              		.loc 7 84 5 is_stmt 1 view .LVU156
  84:../../libdaisy/src/per/adc.h ****     ~AdcHandle() {}
 635              		.loc 7 84 5 is_stmt 0 view .LVU157
 636              	.LBE170:
 637              	.LBB171:
 638              	.LBI171:
 639              		.file 10 "../../libdaisy/src/per/dac.h"
   1:../../libdaisy/src/per/dac.h **** #pragma once
ARM GAS  /tmp/ccZbTdcl.s 			page 22


   2:../../libdaisy/src/per/dac.h **** #ifndef DSY_DAC_H
   3:../../libdaisy/src/per/dac.h **** #define DSY_DAC_H
   4:../../libdaisy/src/per/dac.h **** 
   5:../../libdaisy/src/per/dac.h **** #include "daisy_core.h"
   6:../../libdaisy/src/per/dac.h **** 
   7:../../libdaisy/src/per/dac.h **** namespace daisy
   8:../../libdaisy/src/per/dac.h **** {
   9:../../libdaisy/src/per/dac.h **** /** DAC handle for Built-in DAC Peripheral 
  10:../../libdaisy/src/per/dac.h ****  ** 
  11:../../libdaisy/src/per/dac.h ****  ** For now only Normal Mode is supported,
  12:../../libdaisy/src/per/dac.h ****  ** Sample and hold mode provides reduced power consumption, but requires a bit more setup.
  13:../../libdaisy/src/per/dac.h ****  **
  14:../../libdaisy/src/per/dac.h ****  ** For now connecting the DAC through other internal periphearls is also not supported.
  15:../../libdaisy/src/per/dac.h ****  **
  16:../../libdaisy/src/per/dac.h ****  ** Since the DAC channels have dedicated pins we don't need to pass in a pin config like with
  17:../../libdaisy/src/per/dac.h ****  ** other modules. However, it is still important to not try to use the DAC pins for anything else.
  18:../../libdaisy/src/per/dac.h ****  ** DAC Channel 1 is on PA4, and DAC Channel 2 is on PA5
  19:../../libdaisy/src/per/dac.h ****  ***/
  20:../../libdaisy/src/per/dac.h **** class DacHandle
  21:../../libdaisy/src/per/dac.h **** {
  22:../../libdaisy/src/per/dac.h ****   public:
  23:../../libdaisy/src/per/dac.h ****     /** Return Values for the DacHandle class */
  24:../../libdaisy/src/per/dac.h ****     enum class Result
  25:../../libdaisy/src/per/dac.h ****     {
  26:../../libdaisy/src/per/dac.h ****         OK,
  27:../../libdaisy/src/per/dac.h ****         ERR,
  28:../../libdaisy/src/per/dac.h ****     };
  29:../../libdaisy/src/per/dac.h **** 
  30:../../libdaisy/src/per/dac.h ****     /** Selects which channel(s) will be configured for use. */
  31:../../libdaisy/src/per/dac.h ****     enum class Channel
  32:../../libdaisy/src/per/dac.h ****     {
  33:../../libdaisy/src/per/dac.h ****         ONE,
  34:../../libdaisy/src/per/dac.h ****         TWO,
  35:../../libdaisy/src/per/dac.h ****         BOTH,
  36:../../libdaisy/src/per/dac.h ****     };
  37:../../libdaisy/src/per/dac.h **** 
  38:../../libdaisy/src/per/dac.h ****     /** Sets the Mode for the DAC channels.
  39:../../libdaisy/src/per/dac.h ****      **
  40:../../libdaisy/src/per/dac.h ****      ** Polling mode uses the blocking mode to transmit a single value at a time.
  41:../../libdaisy/src/per/dac.h ****      **
  42:../../libdaisy/src/per/dac.h ****      ** DMA mode uses a buffer, and periodically transmits it triggering a 
  43:../../libdaisy/src/per/dac.h ****      ** callback to fill the buffer when it is ready for more samples.
  44:../../libdaisy/src/per/dac.h ****      ***/
  45:../../libdaisy/src/per/dac.h ****     enum class Mode
  46:../../libdaisy/src/per/dac.h ****     {
  47:../../libdaisy/src/per/dac.h ****         POLLING,
  48:../../libdaisy/src/per/dac.h ****         DMA,
  49:../../libdaisy/src/per/dac.h ****     };
  50:../../libdaisy/src/per/dac.h **** 
  51:../../libdaisy/src/per/dac.h ****     /** Sets the number of bits per sample transmitted out of the DAC.
  52:../../libdaisy/src/per/dac.h ****      ** The output range will be: 0V - VDDA
  53:../../libdaisy/src/per/dac.h ****      ** The resolution will be roughly: bitdepth / (VDDA - 0V) 
  54:../../libdaisy/src/per/dac.h ****      ***/
  55:../../libdaisy/src/per/dac.h ****     enum class BitDepth
  56:../../libdaisy/src/per/dac.h ****     {
  57:../../libdaisy/src/per/dac.h ****         BITS_8,
  58:../../libdaisy/src/per/dac.h ****         BITS_12
ARM GAS  /tmp/ccZbTdcl.s 			page 23


  59:../../libdaisy/src/per/dac.h ****     };
  60:../../libdaisy/src/per/dac.h **** 
  61:../../libdaisy/src/per/dac.h ****     /** Sets whether the DAC output is buffered for higher drive ability. */
  62:../../libdaisy/src/per/dac.h ****     enum class BufferState
  63:../../libdaisy/src/per/dac.h ****     {
  64:../../libdaisy/src/per/dac.h ****         ENABLED,
  65:../../libdaisy/src/per/dac.h ****         DISABLED,
  66:../../libdaisy/src/per/dac.h ****     };
  67:../../libdaisy/src/per/dac.h **** 
  68:../../libdaisy/src/per/dac.h ****     /** Configuration structure for initializing the DAC structure. */
  69:../../libdaisy/src/per/dac.h ****     struct Config
  70:../../libdaisy/src/per/dac.h ****     {
  71:../../libdaisy/src/per/dac.h ****         /** Target Samplerate in Hz used to configure the internal 
  72:../../libdaisy/src/per/dac.h ****          ** timebase for DMA mode. Does nothing in POLLING mode.
  73:../../libdaisy/src/per/dac.h ****          ** If the value is 0 at Init time this will default to 48000Hz 
  74:../../libdaisy/src/per/dac.h ****          ** otherwise the driver will attempt meet the target.*/
  75:../../libdaisy/src/per/dac.h ****         uint32_t target_samplerate;
  76:../../libdaisy/src/per/dac.h **** 
  77:../../libdaisy/src/per/dac.h ****         Channel     chn;
  78:../../libdaisy/src/per/dac.h ****         Mode        mode;
  79:../../libdaisy/src/per/dac.h ****         BitDepth    bitdepth;
  80:../../libdaisy/src/per/dac.h ****         BufferState buff_state;
  81:../../libdaisy/src/per/dac.h ****     };
  82:../../libdaisy/src/per/dac.h **** 
  83:../../libdaisy/src/per/dac.h ****     DacHandle() : pimpl_(nullptr) {}
 640              		.loc 10 83 5 is_stmt 1 view .LVU158
 641              	.LBB172:
 642              	.LBB173:
 643              		.loc 10 83 33 is_stmt 0 view .LVU159
 644 000a 0362     		str	r3, [r0, #32]
 645              	.LVL30:
 646              		.loc 10 83 33 view .LVU160
 647              	.LBE173:
 648              	.LBE172:
 649              	.LBE171:
 650              	.LBB174:
 651              	.LBI174:
  40:../../libdaisy/src/hid/usb.h **** 
 652              		.loc 6 40 5 is_stmt 1 view .LVU161
  40:../../libdaisy/src/hid/usb.h **** 
 653              		.loc 6 40 5 is_stmt 0 view .LVU162
 654              	.LBE174:
 655              	.LBB175:
 656              	.LBI175:
  58:../../libdaisy/src/sys/system.h ****     ~System() {}
 657              		.loc 5 58 5 is_stmt 1 view .LVU163
  58:../../libdaisy/src/sys/system.h ****     ~System() {}
 658              		.loc 5 58 5 is_stmt 0 view .LVU164
 659              	.LBE175:
 660              	.LBE177:
 661              	.LBE179:
  18:adsr.cpp      **** static Adsr       env;
 662              		.loc 9 18 19 view .LVU165
 663 000c 0B49     		ldr	r1, .L25+8
 664 000e FFF7FEFF 		bl	__aeabi_atexit
 665              	.LVL31:
 666              	.LBB180:
ARM GAS  /tmp/ccZbTdcl.s 			page 24


 667              	.LBI180:
  38:../../DaisySP/Source/Control/adsr.h ****     ~Adsr() {}
 668              		.loc 1 38 5 is_stmt 1 view .LVU166
  38:../../DaisySP/Source/Control/adsr.h ****     ~Adsr() {}
 669              		.loc 1 38 5 is_stmt 0 view .LVU167
 670              	.LBE180:
  19:adsr.cpp      **** static Oscillator osc;
 671              		.loc 9 19 19 view .LVU168
 672 0012 094A     		ldr	r2, .L25+4
 673 0014 0A49     		ldr	r1, .L25+12
 674 0016 0B48     		ldr	r0, .L25+16
 675 0018 FFF7FEFF 		bl	__aeabi_atexit
 676              	.LVL32:
 677              	.LBB181:
 678              	.LBI181:
  15:../../DaisySP/Source/Synthesis/oscillator.h ****     ~Oscillator() {}
 679              		.loc 2 15 5 is_stmt 1 view .LVU169
  15:../../DaisySP/Source/Synthesis/oscillator.h ****     ~Oscillator() {}
 680              		.loc 2 15 5 is_stmt 0 view .LVU170
 681              	.LBE181:
  20:adsr.cpp      **** static Metro      tick;
 682              		.loc 9 20 19 view .LVU171
 683 001c 064A     		ldr	r2, .L25+4
 684 001e 0A49     		ldr	r1, .L25+20
 685 0020 0A48     		ldr	r0, .L25+24
 686 0022 FFF7FEFF 		bl	__aeabi_atexit
 687              	.LVL33:
 688              	.LBB182:
 689              	.LBI182:
  14:../../DaisySP/Source/Utility/metro.h ****     ~Metro() {}
 690              		.loc 3 14 5 is_stmt 1 view .LVU172
  14:../../DaisySP/Source/Utility/metro.h ****     ~Metro() {}
 691              		.loc 3 14 5 is_stmt 0 view .LVU173
 692              	.LBE182:
  21:adsr.cpp      **** bool              gate;
 693              		.loc 9 21 19 view .LVU174
 694 0026 044A     		ldr	r2, .L25+4
 695 0028 0949     		ldr	r1, .L25+28
 696 002a 0A48     		ldr	r0, .L25+32
 697              	.LBE183:
 698              	.LBE185:
 699              		.loc 9 76 1 view .LVU175
 700 002c BDE80840 		pop	{r3, lr}
 701              		.cfi_restore 14
 702              		.cfi_restore 3
 703              		.cfi_def_cfa_offset 0
 704              	.LBB186:
 705              	.LBB184:
  21:adsr.cpp      **** bool              gate;
 706              		.loc 9 21 19 view .LVU176
 707 0030 FFF7FEBF 		b	__aeabi_atexit
 708              	.LVL34:
 709              	.L26:
 710              		.align	2
 711              	.L25:
 712 0034 00000000 		.word	.LANCHOR4
 713 0038 00000000 		.word	__dso_handle
ARM GAS  /tmp/ccZbTdcl.s 			page 25


 714 003c 00000000 		.word	_ZN5daisy9DaisySeedD1Ev
 715 0040 00000000 		.word	_ZN7daisysp4AdsrD1Ev
 716 0044 00000000 		.word	.LANCHOR2
 717 0048 00000000 		.word	_ZN7daisysp10OscillatorD1Ev
 718 004c 00000000 		.word	.LANCHOR3
 719 0050 00000000 		.word	_ZN7daisysp5MetroD1Ev
 720 0054 00000000 		.word	.LANCHOR0
 721              	.LBE184:
 722              	.LBE186:
 723              		.cfi_endproc
 724              	.LFE4759:
 726              		.section	.init_array,"aw",%init_array
 727              		.align	2
 728 0000 00000000 		.word	_GLOBAL__sub_I_gate(target1)
 729              		.global	gate
 730              		.section	.bss._ZL3env,"aw",%nobits
 731              		.align	2
 732              		.set	.LANCHOR2,. + 0
 735              	_ZL3env:
 736 0000 00000000 		.space	56
 736      00000000 
 736      00000000 
 736      00000000 
 736      00000000 
 737              		.section	.bss._ZL3osc,"aw",%nobits
 738              		.align	2
 739              		.set	.LANCHOR3,. + 0
 742              	_ZL3osc:
 743 0000 00000000 		.space	40
 743      00000000 
 743      00000000 
 743      00000000 
 743      00000000 
 744              		.section	.bss._ZL4seed,"aw",%nobits
 745              		.align	2
 746              		.set	.LANCHOR4,. + 0
 749              	_ZL4seed:
 750 0000 00000000 		.space	60
 750      00000000 
 750      00000000 
 750      00000000 
 750      00000000 
 751              		.section	.bss._ZL4tick,"aw",%nobits
 752              		.align	2
 753              		.set	.LANCHOR0,. + 0
 756              	_ZL4tick:
 757 0000 00000000 		.space	16
 757      00000000 
 757      00000000 
 757      00000000 
 758              		.section	.bss.gate,"aw",%nobits
 759              		.set	.LANCHOR1,. + 0
 762              	gate:
 763 0000 00       		.space	1
 764              		.text
 765              	.Letext0:
 766              		.file 11 "/usr/lib/gcc/arm-none-eabi/9.2.1/include/stdint.h"
ARM GAS  /tmp/ccZbTdcl.s 			page 26


 767              		.file 12 "../../libdaisy/Drivers/CMSIS/Include/core_cm7.h"
 768              		.file 13 "../../libdaisy/Drivers/CMSIS/Device/ST/STM32H7xx/Include/system_stm32h7xx.h"
 769              		.file 14 "/usr/lib/gcc/arm-none-eabi/9.2.1/include/stddef.h"
 770              		.file 15 "/usr/include/newlib/c++/9.2.1/cmath"
 771              		.file 16 "/usr/include/newlib/c++/9.2.1/bits/std_abs.h"
 772              		.file 17 "/usr/include/newlib/c++/9.2.1/cstdint"
 773              		.file 18 "/usr/include/newlib/c++/9.2.1/cstdlib"
 774              		.file 19 "/usr/include/newlib/c++/9.2.1/type_traits"
 775              		.file 20 "/usr/include/newlib/c++/9.2.1/arm-none-eabi/thumb/v7e-m+dp/hard/bits/c++config.h"
 776              		.file 21 "/usr/include/newlib/c++/9.2.1/bits/stl_pair.h"
 777              		.file 22 "/usr/include/newlib/c++/9.2.1/debug/debug.h"
 778              		.file 23 "/usr/include/newlib/c++/9.2.1/cwchar"
 779              		.file 24 "/usr/include/newlib/c++/9.2.1/bits/exception_ptr.h"
 780              		.file 25 "/usr/include/newlib/c++/9.2.1/new"
 781              		.file 26 "/usr/include/newlib/c++/9.2.1/clocale"
 782              		.file 27 "/usr/include/newlib/c++/9.2.1/cstdio"
 783              		.file 28 "/usr/include/newlib/c++/9.2.1/bits/basic_string.h"
 784              		.file 29 "/usr/include/newlib/c++/9.2.1/bits/uniform_int_dist.h"
 785              		.file 30 "/usr/include/newlib/c++/9.2.1/bits/random.h"
 786              		.file 31 "/usr/include/newlib/c++/9.2.1/cstring"
 787              		.file 32 "/usr/include/newlib/c++/9.2.1/bits/algorithmfwd.h"
 788              		.file 33 "/usr/include/newlib/c++/9.2.1/cstdarg"
 789              		.file 34 "/usr/include/newlib/c++/9.2.1/bits/predefined_ops.h"
 790              		.file 35 "/usr/include/newlib/c++/9.2.1/ext/new_allocator.h"
 791              		.file 36 "/usr/include/newlib/c++/9.2.1/ext/numeric_traits.h"
 792              		.file 37 "/usr/include/newlib/sys/_types.h"
 793              		.file 38 "<built-in>"
 794              		.file 39 "/usr/include/newlib/sys/reent.h"
 795              		.file 40 "/usr/include/newlib/sys/lock.h"
 796              		.file 41 "/usr/include/newlib/math.h"
 797              		.file 42 "/usr/include/newlib/stdlib.h"
 798              		.file 43 "/usr/include/newlib/c++/9.2.1/math.h"
 799              		.file 44 "../../libdaisy/Drivers/STM32H7xx_HAL_Driver/Inc/stm32h7xx_hal_def.h"
 800              		.file 45 "../../libdaisy/Drivers/STM32H7xx_HAL_Driver/Inc/stm32h7xx_hal_flash.h"
 801              		.file 46 "../../DaisySP/Source/Control/adenv.h"
 802              		.file 47 "../../DaisySP/Source/Utility/dsp.h"
 803              		.file 48 "/usr/lib/gcc/arm-none-eabi/9.2.1/include/stdarg.h"
 804              		.file 49 "/usr/include/newlib/wchar.h"
 805              		.file 50 "/usr/include/newlib/locale.h"
 806              		.file 51 "/usr/include/newlib/ctype.h"
 807              		.file 52 "/usr/include/newlib/stdio.h"
 808              		.file 53 "/usr/include/newlib/sys/errno.h"
 809              		.file 54 "/usr/include/newlib/c++/9.2.1/stdlib.h"
 810              		.file 55 "/usr/include/newlib/string.h"
 811              		.file 56 "../../libdaisy/src/daisy_core.h"
 812              		.file 57 "../../libdaisy/src/per/tim.h"
 813              		.file 58 "../../libdaisy/src/per/sai.h"
 814              		.file 59 "../../libdaisy/src/util/wav_format.h"
 815              		.file 60 "../../libdaisy/src/per/qspi.h"
 816              		.file 61 "../../libdaisy/src/per/gpio.h"
 817              		.file 62 "../../libdaisy/src/dev/sdram.h"
 818              		.file 63 "/usr/include/newlib/sys/unistd.h"
 819              		.file 64 "../../libdaisy/src/util/oled_fonts.h"
 820              		.file 65 "../../libdaisy/Middlewares/Third_Party/FatFs/src/integer.h"
 821              		.file 66 "../../libdaisy/Middlewares/Third_Party/FatFs/src/ff.h"
 822              		.file 67 "../../libdaisy/Middlewares/Third_Party/FatFs/src/diskio.h"
 823              		.file 68 "../../libdaisy/Middlewares/Third_Party/FatFs/src/ff_gen_drv.h"
ARM GAS  /tmp/ccZbTdcl.s 			page 27


 824              		.file 69 "../../libdaisy/src/util/sd_diskio.h"
 825              		.file 70 "../../libdaisy/src/sys/fatfs.h"
 826              		.file 71 "../../libdaisy/src/dev/sr_595.h"
ARM GAS  /tmp/ccZbTdcl.s 			page 28

