ARM GAS  /tmp/cc4PE9Vh.s 			page 1


   1              		.cpu cortex-m7
   2              		.eabi_attribute 28, 1
   3              		.eabi_attribute 20, 1
   4              		.eabi_attribute 21, 1
   5              		.eabi_attribute 23, 3
   6              		.eabi_attribute 24, 1
   7              		.eabi_attribute 25, 1
   8              		.eabi_attribute 26, 1
   9              		.eabi_attribute 30, 2
  10              		.eabi_attribute 34, 1
  11              		.eabi_attribute 18, 4
  12              		.file	"lcd_hd44780.cpp"
  13              		.text
  14              	.Ltext0:
  15              		.cfi_sections	.debug_frame
  16              		.section	.text._ZN5daisy9DaisySeedD2Ev,"axG",%progbits,_ZN5daisy9DaisySeedD5Ev,comdat
  17              		.align	1
  18              		.p2align 2,,3
  19              		.weak	_ZN5daisy9DaisySeedD2Ev
  20              		.arch armv7e-m
  21              		.syntax unified
  22              		.thumb
  23              		.thumb_func
  24              		.fpu fpv5-d16
  26              	_ZN5daisy9DaisySeedD2Ev:
  27              	.LVL0:
  28              	.LFB2037:
  29              		.file 1 "../../libdaisy/src/daisy_seed.h"
   1:../../libdaisy/src/daisy_seed.h **** #pragma once
   2:../../libdaisy/src/daisy_seed.h **** #ifndef DSY_SEED_H
   3:../../libdaisy/src/daisy_seed.h **** #define DSY_SEED_H
   4:../../libdaisy/src/daisy_seed.h **** 
   5:../../libdaisy/src/daisy_seed.h **** #include "daisy.h"
   6:../../libdaisy/src/daisy_seed.h **** 
   7:../../libdaisy/src/daisy_seed.h **** //Uncomment this out if you're still using the rev2 hardware
   8:../../libdaisy/src/daisy_seed.h **** //#define SEED_REV2
   9:../../libdaisy/src/daisy_seed.h **** 
  10:../../libdaisy/src/daisy_seed.h **** namespace daisy
  11:../../libdaisy/src/daisy_seed.h **** {
  12:../../libdaisy/src/daisy_seed.h **** /**
  13:../../libdaisy/src/daisy_seed.h ****    @brief This is the higher-level interface for the Daisy board. \n 
  14:../../libdaisy/src/daisy_seed.h ****     All basic peripheral configuration/initialization is setup here. \n
  15:../../libdaisy/src/daisy_seed.h **** 
  16:../../libdaisy/src/daisy_seed.h ****    @ingroup boards
  17:../../libdaisy/src/daisy_seed.h **** */
  18:../../libdaisy/src/daisy_seed.h **** class DaisySeed
  19:../../libdaisy/src/daisy_seed.h **** {
  20:../../libdaisy/src/daisy_seed.h ****   public:
  21:../../libdaisy/src/daisy_seed.h ****     DaisySeed() {}
  22:../../libdaisy/src/daisy_seed.h ****     ~DaisySeed() {}
  30              		.loc 1 22 5 view -0
  31              		.cfi_startproc
  32              		@ args = 0, pretend = 0, frame = 0
  33              		@ frame_needed = 0, uses_anonymous_args = 0
  34              		@ link register save eliminated.
  35              	.LBB57:
  36              	.LBI57:
ARM GAS  /tmp/cc4PE9Vh.s 			page 2


  37              		.file 2 "../../libdaisy/src/sys/system.h"
   1:../../libdaisy/src/sys/system.h **** #ifndef DSY_SYSTEM_H
   2:../../libdaisy/src/sys/system.h **** #define DSY_SYSTEM_H
   3:../../libdaisy/src/sys/system.h **** 
   4:../../libdaisy/src/sys/system.h **** #ifndef UNIT_TEST // for unit tests, a dummy implementation is provided below
   5:../../libdaisy/src/sys/system.h **** 
   6:../../libdaisy/src/sys/system.h **** #include <cstdint>
   7:../../libdaisy/src/sys/system.h **** #include "per/tim.h"
   8:../../libdaisy/src/sys/system.h **** 
   9:../../libdaisy/src/sys/system.h **** namespace daisy
  10:../../libdaisy/src/sys/system.h **** {
  11:../../libdaisy/src/sys/system.h **** /** A handle for interacting with the Core System. 
  12:../../libdaisy/src/sys/system.h ****  ** This includes the Clock tree, MPU, global DMA initialization,
  13:../../libdaisy/src/sys/system.h ****  ** cache handling, and any other necessary global initiailzation
  14:../../libdaisy/src/sys/system.h ****  **
  15:../../libdaisy/src/sys/system.h ****  ** @author shensley
  16:../../libdaisy/src/sys/system.h ****  ** @addtogroup system
  17:../../libdaisy/src/sys/system.h ****  */
  18:../../libdaisy/src/sys/system.h **** class System
  19:../../libdaisy/src/sys/system.h **** {
  20:../../libdaisy/src/sys/system.h ****   public:
  21:../../libdaisy/src/sys/system.h ****     /** Contains settings for initializing the System */
  22:../../libdaisy/src/sys/system.h ****     struct Config
  23:../../libdaisy/src/sys/system.h ****     {
  24:../../libdaisy/src/sys/system.h ****         /** Specifies the system clock frequency that feeds APB/AHB clocks, etc. */
  25:../../libdaisy/src/sys/system.h ****         enum class SysClkFreq
  26:../../libdaisy/src/sys/system.h ****         {
  27:../../libdaisy/src/sys/system.h ****             FREQ_400MHZ,
  28:../../libdaisy/src/sys/system.h ****             FREQ_480MHZ,
  29:../../libdaisy/src/sys/system.h ****         };
  30:../../libdaisy/src/sys/system.h **** 
  31:../../libdaisy/src/sys/system.h ****         /** Method to call on the struct to set to defaults
  32:../../libdaisy/src/sys/system.h ****          ** CPU Freq set to 400MHz
  33:../../libdaisy/src/sys/system.h ****          ** Cache Enabled 
  34:../../libdaisy/src/sys/system.h ****          ** */
  35:../../libdaisy/src/sys/system.h ****         void Defaults()
  36:../../libdaisy/src/sys/system.h ****         {
  37:../../libdaisy/src/sys/system.h ****             cpu_freq   = SysClkFreq::FREQ_400MHZ;
  38:../../libdaisy/src/sys/system.h ****             use_dcache = true;
  39:../../libdaisy/src/sys/system.h ****             use_icache = true;
  40:../../libdaisy/src/sys/system.h ****         }
  41:../../libdaisy/src/sys/system.h **** 
  42:../../libdaisy/src/sys/system.h ****         /** Method to call on the struct to set to boost mode:
  43:../../libdaisy/src/sys/system.h ****          ** CPU Freq set to 480MHz
  44:../../libdaisy/src/sys/system.h ****          ** Cache Enabled 
  45:../../libdaisy/src/sys/system.h ****          ** */
  46:../../libdaisy/src/sys/system.h ****         void Boost()
  47:../../libdaisy/src/sys/system.h ****         {
  48:../../libdaisy/src/sys/system.h ****             cpu_freq   = SysClkFreq::FREQ_480MHZ;
  49:../../libdaisy/src/sys/system.h ****             use_dcache = true;
  50:../../libdaisy/src/sys/system.h ****             use_icache = true;
  51:../../libdaisy/src/sys/system.h ****         }
  52:../../libdaisy/src/sys/system.h **** 
  53:../../libdaisy/src/sys/system.h ****         SysClkFreq cpu_freq;
  54:../../libdaisy/src/sys/system.h ****         bool       use_dcache;
  55:../../libdaisy/src/sys/system.h ****         bool       use_icache;
  56:../../libdaisy/src/sys/system.h ****     };
ARM GAS  /tmp/cc4PE9Vh.s 			page 3


  57:../../libdaisy/src/sys/system.h **** 
  58:../../libdaisy/src/sys/system.h ****     System() {}
  59:../../libdaisy/src/sys/system.h ****     ~System() {}
  38              		.loc 2 59 5 view .LVU1
  39              		.loc 2 59 5 is_stmt 0 view .LVU2
  40              	.LBE57:
  41              	.LBB58:
  42              	.LBI58:
  43              		.file 3 "../../libdaisy/src/hid/usb.h"
   1:../../libdaisy/src/hid/usb.h **** #pragma once
   2:../../libdaisy/src/hid/usb.h **** #ifndef DSY_HID_USB_H
   3:../../libdaisy/src/hid/usb.h **** #define DSY_HID_USB_H
   4:../../libdaisy/src/hid/usb.h **** #include <stdint.h>
   5:../../libdaisy/src/hid/usb.h **** #include <stdlib.h>
   6:../../libdaisy/src/hid/usb.h **** 
   7:../../libdaisy/src/hid/usb.h **** namespace daisy
   8:../../libdaisy/src/hid/usb.h **** /** @addtogroup externals
   9:../../libdaisy/src/hid/usb.h ****     @{
  10:../../libdaisy/src/hid/usb.h **** */
  11:../../libdaisy/src/hid/usb.h **** 
  12:../../libdaisy/src/hid/usb.h **** {
  13:../../libdaisy/src/hid/usb.h **** /** 
  14:../../libdaisy/src/hid/usb.h ****     @brief Interface for initializing and using the USB Peripherals on the daisy
  15:../../libdaisy/src/hid/usb.h ****     @author Stephen Hensley
  16:../../libdaisy/src/hid/usb.h ****     @date December 2019
  17:../../libdaisy/src/hid/usb.h **** */
  18:../../libdaisy/src/hid/usb.h **** class UsbHandle
  19:../../libdaisy/src/hid/usb.h **** {
  20:../../libdaisy/src/hid/usb.h ****   public:
  21:../../libdaisy/src/hid/usb.h ****     /** Return values for USBHandle Functions */
  22:../../libdaisy/src/hid/usb.h ****     enum class Result
  23:../../libdaisy/src/hid/usb.h ****     {
  24:../../libdaisy/src/hid/usb.h ****         OK,
  25:../../libdaisy/src/hid/usb.h ****         ERR,
  26:../../libdaisy/src/hid/usb.h ****     };
  27:../../libdaisy/src/hid/usb.h **** 
  28:../../libdaisy/src/hid/usb.h ****     /** Specified which of the two USB Peripherals to initialize. */
  29:../../libdaisy/src/hid/usb.h ****     enum UsbPeriph
  30:../../libdaisy/src/hid/usb.h ****     {
  31:../../libdaisy/src/hid/usb.h ****         FS_INTERNAL, /**< Internal pin */
  32:../../libdaisy/src/hid/usb.h ****         FS_EXTERNAL, /**< FS External D+ pin is Pin 38 (GPIO32). FS External D- pin is Pin 37 (GPIO
  33:../../libdaisy/src/hid/usb.h ****         FS_BOTH,     /**< Both */
  34:../../libdaisy/src/hid/usb.h ****     };
  35:../../libdaisy/src/hid/usb.h **** 
  36:../../libdaisy/src/hid/usb.h **** 
  37:../../libdaisy/src/hid/usb.h ****     /** Function called upon reception of a buffer */
  38:../../libdaisy/src/hid/usb.h ****     typedef void (*ReceiveCallback)(uint8_t* buff, uint32_t* len);
  39:../../libdaisy/src/hid/usb.h **** 
  40:../../libdaisy/src/hid/usb.h ****     UsbHandle() {}
  41:../../libdaisy/src/hid/usb.h **** 
  42:../../libdaisy/src/hid/usb.h ****     ~UsbHandle() {}
  44              		.loc 3 42 5 is_stmt 1 view .LVU3
  45              		.loc 3 42 5 is_stmt 0 view .LVU4
  46              	.LBE58:
  47              	.LBB59:
  48              	.LBI59:
  49              		.file 4 "../../libdaisy/src/per/adc.h"
ARM GAS  /tmp/cc4PE9Vh.s 			page 4


   1:../../libdaisy/src/per/adc.h **** #pragma once
   2:../../libdaisy/src/per/adc.h **** #ifndef DSY_ADC_H
   3:../../libdaisy/src/per/adc.h **** #define DSY_ADC_H /**< Macro */
   4:../../libdaisy/src/per/adc.h **** #include <stdint.h>
   5:../../libdaisy/src/per/adc.h **** #include <stdlib.h>
   6:../../libdaisy/src/per/adc.h **** #include "daisy_core.h"
   7:../../libdaisy/src/per/adc.h **** #include "per/gpio.h"
   8:../../libdaisy/src/per/adc.h **** 
   9:../../libdaisy/src/per/adc.h **** #define DSY_ADC_MAX_CHANNELS 14 /**< Maximum number of ADC channels */
  10:../../libdaisy/src/per/adc.h **** 
  11:../../libdaisy/src/per/adc.h **** namespace daisy
  12:../../libdaisy/src/per/adc.h **** {
  13:../../libdaisy/src/per/adc.h **** /** @addtogroup analog_digital_conversion
  14:../../libdaisy/src/per/adc.h ****     @{
  15:../../libdaisy/src/per/adc.h **** */
  16:../../libdaisy/src/per/adc.h **** 
  17:../../libdaisy/src/per/adc.h **** /* While there may not be many configuration options here,
  18:../../libdaisy/src/per/adc.h **** using a struct like this allows us to add more configuration
  19:../../libdaisy/src/per/adc.h **** later without breaking existing functionality.
  20:../../libdaisy/src/per/adc.h **** */
  21:../../libdaisy/src/per/adc.h **** 
  22:../../libdaisy/src/per/adc.h **** /** Configuration Structure for a given channel */
  23:../../libdaisy/src/per/adc.h **** struct AdcChannelConfig
  24:../../libdaisy/src/per/adc.h **** {
  25:../../libdaisy/src/per/adc.h ****     /** Which pin to use for multiplexing */
  26:../../libdaisy/src/per/adc.h ****     enum MuxPin
  27:../../libdaisy/src/per/adc.h ****     {
  28:../../libdaisy/src/per/adc.h ****         MUX_SEL_0,    /**< & */
  29:../../libdaisy/src/per/adc.h ****         MUX_SEL_1,    /**< & */
  30:../../libdaisy/src/per/adc.h ****         MUX_SEL_2,    /**< & */
  31:../../libdaisy/src/per/adc.h ****         MUX_SEL_LAST, /**< & */
  32:../../libdaisy/src/per/adc.h ****     };
  33:../../libdaisy/src/per/adc.h **** 
  34:../../libdaisy/src/per/adc.h ****     /** Initializes a single ADC pin as an ADC. 
  35:../../libdaisy/src/per/adc.h ****     \param pin Pin to init.
  36:../../libdaisy/src/per/adc.h ****      */
  37:../../libdaisy/src/per/adc.h ****     void InitSingle(dsy_gpio_pin pin);
  38:../../libdaisy/src/per/adc.h **** 
  39:../../libdaisy/src/per/adc.h ****     /** 
  40:../../libdaisy/src/per/adc.h ****     Initializes a single ADC pin as a Multiplexed ADC.
  41:../../libdaisy/src/per/adc.h ****     Requires a CD405X Multiplexer connected to the pin.
  42:../../libdaisy/src/per/adc.h ****     You only need to supply the mux pins that are required,
  43:../../libdaisy/src/per/adc.h ****     e.g. a 4052 mux would only require mux_0 and mux_1.
  44:../../libdaisy/src/per/adc.h ****     Internal Callbacks handle the pin addressing.
  45:../../libdaisy/src/per/adc.h ****     \param mux_channels must be 1-8
  46:../../libdaisy/src/per/adc.h ****     \param mux_0 First mux pin
  47:../../libdaisy/src/per/adc.h ****     \param mux_1 Second mux pin
  48:../../libdaisy/src/per/adc.h ****     \param mux_2 Third mux pin
  49:../../libdaisy/src/per/adc.h ****     \param adc_pin &
  50:../../libdaisy/src/per/adc.h ****     */
  51:../../libdaisy/src/per/adc.h ****     void InitMux(dsy_gpio_pin adc_pin,
  52:../../libdaisy/src/per/adc.h ****                  size_t       mux_channels,
  53:../../libdaisy/src/per/adc.h ****                  dsy_gpio_pin mux_0,
  54:../../libdaisy/src/per/adc.h ****                  dsy_gpio_pin mux_1 = {DSY_GPIOX, 0},
  55:../../libdaisy/src/per/adc.h ****                  dsy_gpio_pin mux_2 = {DSY_GPIOX, 0});
  56:../../libdaisy/src/per/adc.h **** 
  57:../../libdaisy/src/per/adc.h ****     dsy_gpio pin_;                   /**< & */
ARM GAS  /tmp/cc4PE9Vh.s 			page 5


  58:../../libdaisy/src/per/adc.h ****     dsy_gpio mux_pin_[MUX_SEL_LAST]; /**< & */
  59:../../libdaisy/src/per/adc.h ****     uint8_t  mux_channels_;          /**< & */
  60:../../libdaisy/src/per/adc.h **** };
  61:../../libdaisy/src/per/adc.h **** 
  62:../../libdaisy/src/per/adc.h **** /**
  63:../../libdaisy/src/per/adc.h ****    Handler for analog to digital conversion
  64:../../libdaisy/src/per/adc.h **** */
  65:../../libdaisy/src/per/adc.h **** class AdcHandle
  66:../../libdaisy/src/per/adc.h **** {
  67:../../libdaisy/src/per/adc.h ****   public:
  68:../../libdaisy/src/per/adc.h ****     /** Supported oversampling amounts */
  69:../../libdaisy/src/per/adc.h ****     enum OverSampling
  70:../../libdaisy/src/per/adc.h ****     {
  71:../../libdaisy/src/per/adc.h ****         OVS_NONE, /**< & */
  72:../../libdaisy/src/per/adc.h ****         OVS_4,    /**< & */
  73:../../libdaisy/src/per/adc.h ****         OVS_8,    /**< & */
  74:../../libdaisy/src/per/adc.h ****         OVS_16,   /**< & */
  75:../../libdaisy/src/per/adc.h ****         OVS_32,   /**< & */
  76:../../libdaisy/src/per/adc.h ****         OVS_64,   /**< & */
  77:../../libdaisy/src/per/adc.h ****         OVS_128,  /**< & */
  78:../../libdaisy/src/per/adc.h ****         OVS_256,  /**< & */
  79:../../libdaisy/src/per/adc.h ****         OVS_512,  /**< & */
  80:../../libdaisy/src/per/adc.h ****         OVS_1024, /**< & */
  81:../../libdaisy/src/per/adc.h ****         OVS_LAST, /**< & */
  82:../../libdaisy/src/per/adc.h ****     };
  83:../../libdaisy/src/per/adc.h **** 
  84:../../libdaisy/src/per/adc.h ****     AdcHandle() {}
  85:../../libdaisy/src/per/adc.h ****     ~AdcHandle() {}
  50              		.loc 4 85 5 is_stmt 1 view .LVU5
  51              		.loc 4 85 5 is_stmt 0 view .LVU6
  52              	.LBE59:
  53              	.LBB60:
  54              	.LBI60:
  55              		.file 5 "../../libdaisy/src/hid/audio.h"
   1:../../libdaisy/src/hid/audio.h **** #ifndef DSY_AUDIO_H
   2:../../libdaisy/src/hid/audio.h **** #define DSY_AUDIO_H /**< & */
   3:../../libdaisy/src/hid/audio.h **** 
   4:../../libdaisy/src/hid/audio.h **** #include "per/sai.h"
   5:../../libdaisy/src/hid/audio.h **** 
   6:../../libdaisy/src/hid/audio.h **** namespace daisy
   7:../../libdaisy/src/hid/audio.h **** {
   8:../../libdaisy/src/hid/audio.h **** class AudioHandle
   9:../../libdaisy/src/hid/audio.h **** {
  10:../../libdaisy/src/hid/audio.h ****   public:
  11:../../libdaisy/src/hid/audio.h ****     /** Manually configurable details about the Audio Engine */
  12:../../libdaisy/src/hid/audio.h ****     /** TODO: Figure out how to get samplerate in here. */
  13:../../libdaisy/src/hid/audio.h ****     struct Config
  14:../../libdaisy/src/hid/audio.h ****     {
  15:../../libdaisy/src/hid/audio.h ****         size_t                        blocksize;
  16:../../libdaisy/src/hid/audio.h ****         SaiHandle::Config::SampleRate samplerate;
  17:../../libdaisy/src/hid/audio.h ****         float                         postgain;
  18:../../libdaisy/src/hid/audio.h ****     };
  19:../../libdaisy/src/hid/audio.h **** 
  20:../../libdaisy/src/hid/audio.h ****     enum class Result
  21:../../libdaisy/src/hid/audio.h ****     {
  22:../../libdaisy/src/hid/audio.h ****         OK,
  23:../../libdaisy/src/hid/audio.h ****         ERR,
ARM GAS  /tmp/cc4PE9Vh.s 			page 6


  24:../../libdaisy/src/hid/audio.h ****     };
  25:../../libdaisy/src/hid/audio.h **** 
  26:../../libdaisy/src/hid/audio.h ****     /** Non-Interleaving input buffer
  27:../../libdaisy/src/hid/audio.h ****      * Buffer arranged by float[chn][sample] 
  28:../../libdaisy/src/hid/audio.h ****      * const so that the user can't modify the input
  29:../../libdaisy/src/hid/audio.h ****     */
  30:../../libdaisy/src/hid/audio.h ****     typedef const float* const* InputBuffer;
  31:../../libdaisy/src/hid/audio.h **** 
  32:../../libdaisy/src/hid/audio.h ****     /** Non-Interleaving output buffer
  33:../../libdaisy/src/hid/audio.h ****      * Arranged by float[chn][sample] 
  34:../../libdaisy/src/hid/audio.h ****     */
  35:../../libdaisy/src/hid/audio.h ****     typedef float** OutputBuffer;
  36:../../libdaisy/src/hid/audio.h **** 
  37:../../libdaisy/src/hid/audio.h ****     /** Type for a Non-Interleaving audio callback 
  38:../../libdaisy/src/hid/audio.h ****    * Non-Interleaving audio callbacks in daisy will be of this type
  39:../../libdaisy/src/hid/audio.h ****   */
  40:../../libdaisy/src/hid/audio.h ****     typedef void (*AudioCallback)(InputBuffer  in,
  41:../../libdaisy/src/hid/audio.h ****                                   OutputBuffer out,
  42:../../libdaisy/src/hid/audio.h ****                                   size_t       size);
  43:../../libdaisy/src/hid/audio.h **** 
  44:../../libdaisy/src/hid/audio.h ****     /** Interleaving Input buffer
  45:../../libdaisy/src/hid/audio.h ****      ** audio is prepared as { L0, R0, L1, R1, . . . LN, RN }]
  46:../../libdaisy/src/hid/audio.h ****      ** this is const, as the user shouldn't modify it
  47:../../libdaisy/src/hid/audio.h ****     */
  48:../../libdaisy/src/hid/audio.h ****     typedef const float* InterleavingInputBuffer;
  49:../../libdaisy/src/hid/audio.h **** 
  50:../../libdaisy/src/hid/audio.h ****     /** Interleaving Output buffer 
  51:../../libdaisy/src/hid/audio.h ****      ** audio is prepared as { L0, R0, L1, R1, . . . LN, RN }
  52:../../libdaisy/src/hid/audio.h ****     */
  53:../../libdaisy/src/hid/audio.h ****     typedef float* InterleavingOutputBuffer;
  54:../../libdaisy/src/hid/audio.h **** 
  55:../../libdaisy/src/hid/audio.h ****     /** Interleaving Audio Callback 
  56:../../libdaisy/src/hid/audio.h ****    * Interleaving audio callbacks in daisy must be of this type
  57:../../libdaisy/src/hid/audio.h ****   */
  58:../../libdaisy/src/hid/audio.h ****     typedef void (*InterleavingAudioCallback)(InterleavingInputBuffer  in,
  59:../../libdaisy/src/hid/audio.h ****                                               InterleavingOutputBuffer out,
  60:../../libdaisy/src/hid/audio.h ****                                               size_t                   size);
  61:../../libdaisy/src/hid/audio.h **** 
  62:../../libdaisy/src/hid/audio.h ****     AudioHandle() : pimpl_(nullptr) {}
  63:../../libdaisy/src/hid/audio.h ****     ~AudioHandle() {}
  56              		.loc 5 63 5 is_stmt 1 view .LVU7
  57              		.loc 5 63 5 is_stmt 0 view .LVU8
  58              	.LBE60:
  59              		.loc 1 22 19 view .LVU9
  60 0000 7047     		bx	lr
  61              		.cfi_endproc
  62              	.LFE2037:
  64              		.weak	_ZN5daisy9DaisySeedD1Ev
  65              		.thumb_set _ZN5daisy9DaisySeedD1Ev,_ZN5daisy9DaisySeedD2Ev
  66 0002 00BF     		.section	.rodata.main.str1.4,"aMS",%progbits,1
  67              		.align	2
  68              	.LC0:
  69 0000 54657374 		.ascii	"Test 1\000"
  69      203100
  70 0007 00       		.align	2
  71              	.LC1:
  72 0008 54657374 		.ascii	"Test 2\000"
ARM GAS  /tmp/cc4PE9Vh.s 			page 7


  72      203200
  73              		.section	.text.startup.main,"ax",%progbits
  74              		.align	1
  75              		.p2align 2,,3
  76              		.global	main
  77              		.syntax unified
  78              		.thumb
  79              		.thumb_func
  80              		.fpu fpv5-d16
  82              	main:
  83              	.LFB2042:
  84              		.file 6 "lcd_hd44780.cpp"
   1:lcd_hd44780.cpp **** #include "daisy_seed.h"
   2:lcd_hd44780.cpp **** 
   3:lcd_hd44780.cpp **** using namespace daisy;
   4:lcd_hd44780.cpp **** 
   5:lcd_hd44780.cpp **** 
   6:lcd_hd44780.cpp **** #define PIN_LCD_RS 15 // LCD: pin 8
   7:lcd_hd44780.cpp **** #define PIN_LCD_EN 16 // LCD: pin 9
   8:lcd_hd44780.cpp **** #define PIN_LCD_D4 20 // LCD: D4
   9:lcd_hd44780.cpp **** #define PIN_LCD_D5 19 // LCD: D5
  10:lcd_hd44780.cpp **** #define PIN_LCD_D6 18 // LCD: D6
  11:lcd_hd44780.cpp **** #define PIN_LCD_D7 17 // LCD: D7
  12:lcd_hd44780.cpp **** 
  13:lcd_hd44780.cpp **** 
  14:lcd_hd44780.cpp **** DaisySeed hardware;
  15:lcd_hd44780.cpp **** 
  16:lcd_hd44780.cpp **** 
  17:lcd_hd44780.cpp **** int main(void)
  18:lcd_hd44780.cpp **** {
  85              		.loc 6 18 1 is_stmt 1 view -0
  86              		.cfi_startproc
  87              		@ args = 0, pretend = 0, frame = 48
  88              		@ frame_needed = 0, uses_anonymous_args = 0
  19:lcd_hd44780.cpp ****     int i = 0;
  89              		.loc 6 19 5 view .LVU11
  90              	.LVL1:
  20:lcd_hd44780.cpp **** 
  21:lcd_hd44780.cpp ****     hardware.Configure();
  91              		.loc 6 21 5 view .LVU12
  18:lcd_hd44780.cpp ****     int i = 0;
  92              		.loc 6 18 1 is_stmt 0 view .LVU13
  93 0000 10B5     		push	{r4, lr}
  94              		.cfi_def_cfa_offset 8
  95              		.cfi_offset 4, -8
  96              		.cfi_offset 14, -4
  97              		.loc 6 21 23 view .LVU14
  98 0002 2F48     		ldr	r0, .L9
  18:lcd_hd44780.cpp ****     int i = 0;
  99              		.loc 6 18 1 view .LVU15
 100 0004 8CB0     		sub	sp, sp, #48
 101              		.cfi_def_cfa_offset 56
 102              		.loc 6 21 23 view .LVU16
 103 0006 FFF7FEFF 		bl	_ZN5daisy9DaisySeed9ConfigureEv
 104              	.LVL2:
  22:lcd_hd44780.cpp ****     hardware.Init();
 105              		.loc 6 22 5 is_stmt 1 view .LVU17
ARM GAS  /tmp/cc4PE9Vh.s 			page 8


 106              		.loc 6 22 18 is_stmt 0 view .LVU18
 107 000a 0021     		movs	r1, #0
 108 000c 2C48     		ldr	r0, .L9
  19:lcd_hd44780.cpp **** 
 109              		.loc 6 19 9 view .LVU19
 110 000e 0C46     		mov	r4, r1
 111              		.loc 6 22 18 view .LVU20
 112 0010 FFF7FEFF 		bl	_ZN5daisy9DaisySeed4InitEb
 113              	.LVL3:
  23:lcd_hd44780.cpp **** 
  24:lcd_hd44780.cpp ****     LcdHD44780 lcd;
 114              		.loc 6 24 5 is_stmt 1 view .LVU21
 115              	.LBB61:
 116              	.LBI61:
 117              		.file 7 "../../libdaisy/src/dev/lcd_hd44780.h"
   1:../../libdaisy/src/dev/lcd_hd44780.h **** #pragma once
   2:../../libdaisy/src/dev/lcd_hd44780.h **** #ifndef DSY_LCD_HD44780_H
   3:../../libdaisy/src/dev/lcd_hd44780.h **** #define DSY_LCD_HD44780_H
   4:../../libdaisy/src/dev/lcd_hd44780.h **** 
   5:../../libdaisy/src/dev/lcd_hd44780.h **** #include "daisy_core.h"
   6:../../libdaisy/src/dev/lcd_hd44780.h **** #include "per/gpio.h"
   7:../../libdaisy/src/dev/lcd_hd44780.h **** 
   8:../../libdaisy/src/dev/lcd_hd44780.h **** /** @addtogroup lcd
   9:../../libdaisy/src/dev/lcd_hd44780.h ****     @{
  10:../../libdaisy/src/dev/lcd_hd44780.h ****     */
  11:../../libdaisy/src/dev/lcd_hd44780.h **** 
  12:../../libdaisy/src/dev/lcd_hd44780.h **** /**
  13:../../libdaisy/src/dev/lcd_hd44780.h ****    @brief Device Driver for 16x2 LCD panel. \n 
  14:../../libdaisy/src/dev/lcd_hd44780.h ****    HD44780 with 4 data lines. \n
  15:../../libdaisy/src/dev/lcd_hd44780.h ****    Example product: https://www.adafruit.com/product/181
  16:../../libdaisy/src/dev/lcd_hd44780.h ****    @author StaffanMelin
  17:../../libdaisy/src/dev/lcd_hd44780.h ****    @date March 2021
  18:../../libdaisy/src/dev/lcd_hd44780.h **** */
  19:../../libdaisy/src/dev/lcd_hd44780.h **** 
  20:../../libdaisy/src/dev/lcd_hd44780.h **** namespace daisy
  21:../../libdaisy/src/dev/lcd_hd44780.h **** {
  22:../../libdaisy/src/dev/lcd_hd44780.h **** class LcdHD44780
  23:../../libdaisy/src/dev/lcd_hd44780.h **** {
  24:../../libdaisy/src/dev/lcd_hd44780.h ****   public:
  25:../../libdaisy/src/dev/lcd_hd44780.h ****     LcdHD44780() {}
 118              		.loc 7 25 5 view .LVU22
 119              		.loc 7 25 5 is_stmt 0 view .LVU23
 120              	.LBE61:
  25:lcd_hd44780.cpp **** 
  26:lcd_hd44780.cpp ****     LcdHD44780::Config lcd_config;
 121              		.loc 6 26 5 is_stmt 1 view .LVU24
  27:lcd_hd44780.cpp **** 
  28:lcd_hd44780.cpp ****     lcd_config.cursor_on    = true;
 122              		.loc 6 28 5 view .LVU25
  29:lcd_hd44780.cpp ****     lcd_config.cursor_blink = false;
 123              		.loc 6 29 5 view .LVU26
  28:lcd_hd44780.cpp ****     lcd_config.cursor_blink = false;
 124              		.loc 6 28 29 is_stmt 0 view .LVU27
 125 0014 0123     		movs	r3, #1
  30:lcd_hd44780.cpp ****     lcd_config.rs           = hardware.GetPin(PIN_LCD_RS);
 126              		.loc 6 30 57 view .LVU28
 127 0016 0F20     		movs	r0, #15
ARM GAS  /tmp/cc4PE9Vh.s 			page 9


  28:lcd_hd44780.cpp ****     lcd_config.cursor_blink = false;
 128              		.loc 6 28 29 view .LVU29
 129 0018 ADF80430 		strh	r3, [sp, #4]	@ movhi
 130              		.loc 6 30 5 is_stmt 1 view .LVU30
 131              		.loc 6 30 57 is_stmt 0 view .LVU31
 132 001c FFF7FEFF 		bl	_ZN5daisy9DaisySeed6GetPinEh
 133              	.LVL4:
 134 0020 0346     		mov	r3, r0	@ movhi
  31:lcd_hd44780.cpp ****     lcd_config.en           = hardware.GetPin(PIN_LCD_EN);
 135              		.loc 6 31 57 view .LVU32
 136 0022 1020     		movs	r0, #16
  30:lcd_hd44780.cpp ****     lcd_config.rs           = hardware.GetPin(PIN_LCD_RS);
 137              		.loc 6 30 57 view .LVU33
 138 0024 ADF80630 		strh	r3, [sp, #6]	@ movhi
 139              		.loc 6 31 5 is_stmt 1 view .LVU34
 140              		.loc 6 31 57 is_stmt 0 view .LVU35
 141 0028 FFF7FEFF 		bl	_ZN5daisy9DaisySeed6GetPinEh
 142              	.LVL5:
 143 002c 0346     		mov	r3, r0	@ movhi
  32:lcd_hd44780.cpp ****     lcd_config.d4           = hardware.GetPin(PIN_LCD_D4);
 144              		.loc 6 32 57 view .LVU36
 145 002e 1420     		movs	r0, #20
  31:lcd_hd44780.cpp ****     lcd_config.en           = hardware.GetPin(PIN_LCD_EN);
 146              		.loc 6 31 57 view .LVU37
 147 0030 ADF80830 		strh	r3, [sp, #8]	@ movhi
 148              		.loc 6 32 5 is_stmt 1 view .LVU38
 149              		.loc 6 32 57 is_stmt 0 view .LVU39
 150 0034 FFF7FEFF 		bl	_ZN5daisy9DaisySeed6GetPinEh
 151              	.LVL6:
 152 0038 0346     		mov	r3, r0	@ movhi
  33:lcd_hd44780.cpp ****     lcd_config.d5           = hardware.GetPin(PIN_LCD_D5);
 153              		.loc 6 33 57 view .LVU40
 154 003a 1320     		movs	r0, #19
  32:lcd_hd44780.cpp ****     lcd_config.d4           = hardware.GetPin(PIN_LCD_D4);
 155              		.loc 6 32 57 view .LVU41
 156 003c ADF80A30 		strh	r3, [sp, #10]	@ movhi
 157              		.loc 6 33 5 is_stmt 1 view .LVU42
 158              		.loc 6 33 57 is_stmt 0 view .LVU43
 159 0040 FFF7FEFF 		bl	_ZN5daisy9DaisySeed6GetPinEh
 160              	.LVL7:
 161 0044 0346     		mov	r3, r0	@ movhi
  34:lcd_hd44780.cpp ****     lcd_config.d6           = hardware.GetPin(PIN_LCD_D6);
 162              		.loc 6 34 57 view .LVU44
 163 0046 1220     		movs	r0, #18
  33:lcd_hd44780.cpp ****     lcd_config.d5           = hardware.GetPin(PIN_LCD_D5);
 164              		.loc 6 33 57 view .LVU45
 165 0048 ADF80C30 		strh	r3, [sp, #12]	@ movhi
 166              		.loc 6 34 5 is_stmt 1 view .LVU46
 167              		.loc 6 34 57 is_stmt 0 view .LVU47
 168 004c FFF7FEFF 		bl	_ZN5daisy9DaisySeed6GetPinEh
 169              	.LVL8:
 170 0050 0346     		mov	r3, r0	@ movhi
  35:lcd_hd44780.cpp ****     lcd_config.d7           = hardware.GetPin(PIN_LCD_D7);
 171              		.loc 6 35 57 view .LVU48
 172 0052 1120     		movs	r0, #17
  34:lcd_hd44780.cpp ****     lcd_config.d6           = hardware.GetPin(PIN_LCD_D6);
 173              		.loc 6 34 57 view .LVU49
ARM GAS  /tmp/cc4PE9Vh.s 			page 10


 174 0054 ADF80E30 		strh	r3, [sp, #14]	@ movhi
 175              		.loc 6 35 5 is_stmt 1 view .LVU50
 176              		.loc 6 35 57 is_stmt 0 view .LVU51
 177 0058 FFF7FEFF 		bl	_ZN5daisy9DaisySeed6GetPinEh
 178              	.LVL9:
 179 005c 0346     		mov	r3, r0	@ movhi
  36:lcd_hd44780.cpp **** 
  37:lcd_hd44780.cpp ****     lcd.Init(lcd_config);
 180              		.loc 6 37 13 view .LVU52
 181 005e 01A9     		add	r1, sp, #4
 182 0060 05A8     		add	r0, sp, #20
  35:lcd_hd44780.cpp ****     lcd_config.d7           = hardware.GetPin(PIN_LCD_D7);
 183              		.loc 6 35 57 view .LVU53
 184 0062 ADF81030 		strh	r3, [sp, #16]	@ movhi
 185              		.loc 6 37 5 is_stmt 1 view .LVU54
 186              		.loc 6 37 13 is_stmt 0 view .LVU55
 187 0066 FFF7FEFF 		bl	_ZN5daisy10LcdHD447804InitERKNS0_6ConfigE
 188              	.LVL10:
 189 006a 11E0     		b	.L6
 190              	.LVL11:
 191              	.L8:
  38:lcd_hd44780.cpp **** 
  39:lcd_hd44780.cpp ****     while(1)
  40:lcd_hd44780.cpp ****     {
  41:lcd_hd44780.cpp ****         hardware.DelayMs(2000);
  42:lcd_hd44780.cpp **** 
  43:lcd_hd44780.cpp ****         lcd.Clear();
  44:lcd_hd44780.cpp **** 
  45:lcd_hd44780.cpp ****         switch(i % 2)
  46:lcd_hd44780.cpp ****         {
  47:lcd_hd44780.cpp ****             case 0:
  48:lcd_hd44780.cpp ****                 lcd.SetCursor(0, 0);
 192              		.loc 6 48 30 view .LVU56
 193 006c 1946     		mov	r1, r3
 194 006e 1A46     		mov	r2, r3
 195 0070 FFF7FEFF 		bl	_ZN5daisy10LcdHD447809SetCursorEhh
 196              	.LVL12:
  49:lcd_hd44780.cpp ****                 lcd.Print("Test 1");
 197              		.loc 6 49 17 is_stmt 1 view .LVU57
 198              		.loc 6 49 26 is_stmt 0 view .LVU58
 199 0074 1349     		ldr	r1, .L9+4
 200 0076 05A8     		add	r0, sp, #20
 201 0078 FFF7FEFF 		bl	_ZN5daisy10LcdHD447805PrintEPKc
 202              	.LVL13:
  50:lcd_hd44780.cpp ****                 break;
 203              		.loc 6 50 17 is_stmt 1 view .LVU59
 204              	.L5:
  51:lcd_hd44780.cpp ****             case 1:
  52:lcd_hd44780.cpp ****                 lcd.SetCursor(0, 10);
  53:lcd_hd44780.cpp ****                 lcd.Print("Test 2");
  54:lcd_hd44780.cpp ****                 break;
  55:lcd_hd44780.cpp ****             default: break;
  56:lcd_hd44780.cpp ****         }
  57:lcd_hd44780.cpp **** 
  58:lcd_hd44780.cpp ****         lcd.SetCursor(1, 0);
 205              		.loc 6 58 9 view .LVU60
 206              		.loc 6 58 22 is_stmt 0 view .LVU61
ARM GAS  /tmp/cc4PE9Vh.s 			page 11


 207 007c 0121     		movs	r1, #1
 208 007e 05A8     		add	r0, sp, #20
 209 0080 0022     		movs	r2, #0
 210 0082 FFF7FEFF 		bl	_ZN5daisy10LcdHD447809SetCursorEhh
 211              	.LVL14:
  59:lcd_hd44780.cpp ****         lcd.PrintInt(i);
 212              		.loc 6 59 9 is_stmt 1 view .LVU62
 213              		.loc 6 59 21 is_stmt 0 view .LVU63
 214 0086 2146     		mov	r1, r4
 215 0088 05A8     		add	r0, sp, #20
  60:lcd_hd44780.cpp **** 
  61:lcd_hd44780.cpp ****         i++;
 216              		.loc 6 61 10 view .LVU64
 217 008a 0134     		adds	r4, r4, #1
 218              	.LVL15:
  59:lcd_hd44780.cpp ****         lcd.PrintInt(i);
 219              		.loc 6 59 21 view .LVU65
 220 008c FFF7FEFF 		bl	_ZN5daisy10LcdHD447808PrintIntEi
 221              	.LVL16:
 222              		.loc 6 61 9 is_stmt 1 view .LVU66
  39:lcd_hd44780.cpp ****     {
 223              		.loc 6 39 5 view .LVU67
 224              	.L6:
  39:lcd_hd44780.cpp ****     {
 225              		.loc 6 39 5 view .LVU68
  41:lcd_hd44780.cpp **** 
 226              		.loc 6 41 9 view .LVU69
  41:lcd_hd44780.cpp **** 
 227              		.loc 6 41 25 is_stmt 0 view .LVU70
 228 0090 4FF4FA61 		mov	r1, #2000
 229 0094 0A48     		ldr	r0, .L9
 230 0096 FFF7FEFF 		bl	_ZN5daisy9DaisySeed7DelayMsEj
 231              	.LVL17:
  43:lcd_hd44780.cpp **** 
 232              		.loc 6 43 9 is_stmt 1 view .LVU71
  43:lcd_hd44780.cpp **** 
 233              		.loc 6 43 18 is_stmt 0 view .LVU72
 234 009a 05A8     		add	r0, sp, #20
 235 009c FFF7FEFF 		bl	_ZN5daisy10LcdHD447805ClearEv
 236              	.LVL18:
  45:lcd_hd44780.cpp ****         {
 237              		.loc 6 45 9 is_stmt 1 view .LVU73
  47:lcd_hd44780.cpp ****                 lcd.SetCursor(0, 0);
 238              		.loc 6 47 13 view .LVU74
  48:lcd_hd44780.cpp ****                 lcd.Print("Test 1");
 239              		.loc 6 48 17 view .LVU75
  51:lcd_hd44780.cpp ****                 lcd.SetCursor(0, 10);
 240              		.loc 6 51 13 view .LVU76
  52:lcd_hd44780.cpp ****                 lcd.Print("Test 2");
 241              		.loc 6 52 17 view .LVU77
  45:lcd_hd44780.cpp ****         {
 242              		.loc 6 45 9 is_stmt 0 view .LVU78
 243 00a0 14F00103 		ands	r3, r4, #1
  52:lcd_hd44780.cpp ****                 lcd.Print("Test 2");
 244              		.loc 6 52 30 view .LVU79
 245 00a4 05A8     		add	r0, sp, #20
 246 00a6 4FF00A02 		mov	r2, #10
ARM GAS  /tmp/cc4PE9Vh.s 			page 12


 247 00aa 4FF00001 		mov	r1, #0
  45:lcd_hd44780.cpp ****         {
 248              		.loc 6 45 9 view .LVU80
 249 00ae DDD0     		beq	.L8
  52:lcd_hd44780.cpp ****                 lcd.Print("Test 2");
 250              		.loc 6 52 30 view .LVU81
 251 00b0 FFF7FEFF 		bl	_ZN5daisy10LcdHD447809SetCursorEhh
 252              	.LVL19:
  53:lcd_hd44780.cpp ****                 break;
 253              		.loc 6 53 17 is_stmt 1 view .LVU82
  53:lcd_hd44780.cpp ****                 break;
 254              		.loc 6 53 26 is_stmt 0 view .LVU83
 255 00b4 0449     		ldr	r1, .L9+8
 256 00b6 05A8     		add	r0, sp, #20
 257 00b8 FFF7FEFF 		bl	_ZN5daisy10LcdHD447805PrintEPKc
 258              	.LVL20:
  54:lcd_hd44780.cpp ****             default: break;
 259              		.loc 6 54 17 is_stmt 1 view .LVU84
 260 00bc DEE7     		b	.L5
 261              	.L10:
 262 00be 00BF     		.align	2
 263              	.L9:
 264 00c0 00000000 		.word	.LANCHOR0
 265 00c4 00000000 		.word	.LC0
 266 00c8 08000000 		.word	.LC1
 267              		.cfi_endproc
 268              	.LFE2042:
 270              		.section	.text.startup._GLOBAL__sub_I_hardware,"ax",%progbits
 271              		.align	1
 272              		.p2align 2,,3
 273              		.syntax unified
 274              		.thumb
 275              		.thumb_func
 276              		.fpu fpv5-d16
 278              	_GLOBAL__sub_I_hardware:
 279              	.LFB2058:
  62:lcd_hd44780.cpp ****     }
  63:lcd_hd44780.cpp **** }
 280              		.loc 6 63 1 view -0
 281              		.cfi_startproc
 282              		@ args = 0, pretend = 0, frame = 0
 283              		@ frame_needed = 0, uses_anonymous_args = 0
 284              		@ link register save eliminated.
 285              	.LVL21:
 286              	.LBB62:
 287              	.LBI62:
 288              		.loc 6 63 1 view .LVU86
 289              	.LBB63:
 290              	.LBB64:
 291              	.LBI64:
  21:../../libdaisy/src/daisy_seed.h ****     ~DaisySeed() {}
 292              		.loc 1 21 5 view .LVU87
 293              	.LBB65:
 294              	.LBB66:
 295              	.LBI66:
  62:../../libdaisy/src/hid/audio.h ****     ~AudioHandle() {}
 296              		.loc 5 62 5 view .LVU88
ARM GAS  /tmp/cc4PE9Vh.s 			page 13


 297              	.LBB67:
 298              	.LBB68:
  62:../../libdaisy/src/hid/audio.h ****     ~AudioHandle() {}
 299              		.loc 5 62 35 is_stmt 0 view .LVU89
 300 0000 0348     		ldr	r0, .L12
 301 0002 0023     		movs	r3, #0
 302              	.LBE68:
 303              	.LBE67:
 304              	.LBE66:
 305              	.LBE65:
 306              	.LBE64:
  14:lcd_hd44780.cpp **** 
 307              		.loc 6 14 11 view .LVU90
 308 0004 034A     		ldr	r2, .L12+4
 309 0006 0449     		ldr	r1, .L12+8
 310              	.LBB79:
 311              	.LBB78:
 312              	.LBB71:
 313              	.LBB70:
 314              	.LBB69:
  62:../../libdaisy/src/hid/audio.h ****     ~AudioHandle() {}
 315              		.loc 5 62 35 view .LVU91
 316 0008 4361     		str	r3, [r0, #20]
 317              	.LVL22:
  62:../../libdaisy/src/hid/audio.h ****     ~AudioHandle() {}
 318              		.loc 5 62 35 view .LVU92
 319              	.LBE69:
 320              	.LBE70:
 321              	.LBE71:
 322              	.LBB72:
 323              	.LBI72:
  84:../../libdaisy/src/per/adc.h ****     ~AdcHandle() {}
 324              		.loc 4 84 5 is_stmt 1 view .LVU93
  84:../../libdaisy/src/per/adc.h ****     ~AdcHandle() {}
 325              		.loc 4 84 5 is_stmt 0 view .LVU94
 326              	.LBE72:
 327              	.LBB73:
 328              	.LBI73:
 329              		.file 8 "../../libdaisy/src/per/dac.h"
   1:../../libdaisy/src/per/dac.h **** #pragma once
   2:../../libdaisy/src/per/dac.h **** #ifndef DSY_DAC_H
   3:../../libdaisy/src/per/dac.h **** #define DSY_DAC_H
   4:../../libdaisy/src/per/dac.h **** 
   5:../../libdaisy/src/per/dac.h **** #include "daisy_core.h"
   6:../../libdaisy/src/per/dac.h **** 
   7:../../libdaisy/src/per/dac.h **** namespace daisy
   8:../../libdaisy/src/per/dac.h **** {
   9:../../libdaisy/src/per/dac.h **** /** DAC handle for Built-in DAC Peripheral 
  10:../../libdaisy/src/per/dac.h ****  ** 
  11:../../libdaisy/src/per/dac.h ****  ** For now only Normal Mode is supported,
  12:../../libdaisy/src/per/dac.h ****  ** Sample and hold mode provides reduced power consumption, but requires a bit more setup.
  13:../../libdaisy/src/per/dac.h ****  **
  14:../../libdaisy/src/per/dac.h ****  ** For now connecting the DAC through other internal periphearls is also not supported.
  15:../../libdaisy/src/per/dac.h ****  **
  16:../../libdaisy/src/per/dac.h ****  ** Since the DAC channels have dedicated pins we don't need to pass in a pin config like with
  17:../../libdaisy/src/per/dac.h ****  ** other modules. However, it is still important to not try to use the DAC pins for anything else.
  18:../../libdaisy/src/per/dac.h ****  ** DAC Channel 1 is on PA4, and DAC Channel 2 is on PA5
ARM GAS  /tmp/cc4PE9Vh.s 			page 14


  19:../../libdaisy/src/per/dac.h ****  ***/
  20:../../libdaisy/src/per/dac.h **** class DacHandle
  21:../../libdaisy/src/per/dac.h **** {
  22:../../libdaisy/src/per/dac.h ****   public:
  23:../../libdaisy/src/per/dac.h ****     /** Return Values for the DacHandle class */
  24:../../libdaisy/src/per/dac.h ****     enum class Result
  25:../../libdaisy/src/per/dac.h ****     {
  26:../../libdaisy/src/per/dac.h ****         OK,
  27:../../libdaisy/src/per/dac.h ****         ERR,
  28:../../libdaisy/src/per/dac.h ****     };
  29:../../libdaisy/src/per/dac.h **** 
  30:../../libdaisy/src/per/dac.h ****     /** Selects which channel(s) will be configured for use. */
  31:../../libdaisy/src/per/dac.h ****     enum class Channel
  32:../../libdaisy/src/per/dac.h ****     {
  33:../../libdaisy/src/per/dac.h ****         ONE,
  34:../../libdaisy/src/per/dac.h ****         TWO,
  35:../../libdaisy/src/per/dac.h ****         BOTH,
  36:../../libdaisy/src/per/dac.h ****     };
  37:../../libdaisy/src/per/dac.h **** 
  38:../../libdaisy/src/per/dac.h ****     /** Sets the Mode for the DAC channels.
  39:../../libdaisy/src/per/dac.h ****      **
  40:../../libdaisy/src/per/dac.h ****      ** Polling mode uses the blocking mode to transmit a single value at a time.
  41:../../libdaisy/src/per/dac.h ****      **
  42:../../libdaisy/src/per/dac.h ****      ** DMA mode uses a buffer, and periodically transmits it triggering a 
  43:../../libdaisy/src/per/dac.h ****      ** callback to fill the buffer when it is ready for more samples.
  44:../../libdaisy/src/per/dac.h ****      ***/
  45:../../libdaisy/src/per/dac.h ****     enum class Mode
  46:../../libdaisy/src/per/dac.h ****     {
  47:../../libdaisy/src/per/dac.h ****         POLLING,
  48:../../libdaisy/src/per/dac.h ****         DMA,
  49:../../libdaisy/src/per/dac.h ****     };
  50:../../libdaisy/src/per/dac.h **** 
  51:../../libdaisy/src/per/dac.h ****     /** Sets the number of bits per sample transmitted out of the DAC.
  52:../../libdaisy/src/per/dac.h ****      ** The output range will be: 0V - VDDA
  53:../../libdaisy/src/per/dac.h ****      ** The resolution will be roughly: bitdepth / (VDDA - 0V) 
  54:../../libdaisy/src/per/dac.h ****      ***/
  55:../../libdaisy/src/per/dac.h ****     enum class BitDepth
  56:../../libdaisy/src/per/dac.h ****     {
  57:../../libdaisy/src/per/dac.h ****         BITS_8,
  58:../../libdaisy/src/per/dac.h ****         BITS_12
  59:../../libdaisy/src/per/dac.h ****     };
  60:../../libdaisy/src/per/dac.h **** 
  61:../../libdaisy/src/per/dac.h ****     /** Sets whether the DAC output is buffered for higher drive ability. */
  62:../../libdaisy/src/per/dac.h ****     enum class BufferState
  63:../../libdaisy/src/per/dac.h ****     {
  64:../../libdaisy/src/per/dac.h ****         ENABLED,
  65:../../libdaisy/src/per/dac.h ****         DISABLED,
  66:../../libdaisy/src/per/dac.h ****     };
  67:../../libdaisy/src/per/dac.h **** 
  68:../../libdaisy/src/per/dac.h ****     /** Configuration structure for initializing the DAC structure. */
  69:../../libdaisy/src/per/dac.h ****     struct Config
  70:../../libdaisy/src/per/dac.h ****     {
  71:../../libdaisy/src/per/dac.h ****         /** Target Samplerate in Hz used to configure the internal 
  72:../../libdaisy/src/per/dac.h ****          ** timebase for DMA mode. Does nothing in POLLING mode.
  73:../../libdaisy/src/per/dac.h ****          ** If the value is 0 at Init time this will default to 48000Hz 
  74:../../libdaisy/src/per/dac.h ****          ** otherwise the driver will attempt meet the target.*/
  75:../../libdaisy/src/per/dac.h ****         uint32_t target_samplerate;
ARM GAS  /tmp/cc4PE9Vh.s 			page 15


  76:../../libdaisy/src/per/dac.h **** 
  77:../../libdaisy/src/per/dac.h ****         Channel     chn;
  78:../../libdaisy/src/per/dac.h ****         Mode        mode;
  79:../../libdaisy/src/per/dac.h ****         BitDepth    bitdepth;
  80:../../libdaisy/src/per/dac.h ****         BufferState buff_state;
  81:../../libdaisy/src/per/dac.h ****     };
  82:../../libdaisy/src/per/dac.h **** 
  83:../../libdaisy/src/per/dac.h ****     DacHandle() : pimpl_(nullptr) {}
 330              		.loc 8 83 5 is_stmt 1 view .LVU95
 331              	.LBB74:
 332              	.LBB75:
 333              		.loc 8 83 33 is_stmt 0 view .LVU96
 334 000a 0362     		str	r3, [r0, #32]
 335              	.LVL23:
 336              		.loc 8 83 33 view .LVU97
 337              	.LBE75:
 338              	.LBE74:
 339              	.LBE73:
 340              	.LBB76:
 341              	.LBI76:
  40:../../libdaisy/src/hid/usb.h **** 
 342              		.loc 3 40 5 is_stmt 1 view .LVU98
  40:../../libdaisy/src/hid/usb.h **** 
 343              		.loc 3 40 5 is_stmt 0 view .LVU99
 344              	.LBE76:
 345              	.LBB77:
 346              	.LBI77:
  58:../../libdaisy/src/sys/system.h ****     ~System() {}
 347              		.loc 2 58 5 is_stmt 1 view .LVU100
  58:../../libdaisy/src/sys/system.h ****     ~System() {}
 348              		.loc 2 58 5 is_stmt 0 view .LVU101
 349              	.LBE77:
 350              	.LBE78:
 351              	.LBE79:
  14:lcd_hd44780.cpp **** 
 352              		.loc 6 14 11 view .LVU102
 353 000c FFF7FEBF 		b	__aeabi_atexit
 354              	.LVL24:
 355              	.L13:
 356              		.align	2
 357              	.L12:
 358 0010 00000000 		.word	.LANCHOR0
 359 0014 00000000 		.word	__dso_handle
 360 0018 00000000 		.word	_ZN5daisy9DaisySeedD1Ev
 361              	.LBE63:
 362              	.LBE62:
 363              		.cfi_endproc
 364              	.LFE2058:
 366              		.section	.init_array,"aw",%init_array
 367              		.align	2
 368 0000 00000000 		.word	_GLOBAL__sub_I_hardware(target1)
 369              		.global	hardware
 370              		.section	.bss.hardware,"aw",%nobits
 371              		.align	2
 372              		.set	.LANCHOR0,. + 0
 375              	hardware:
 376 0000 00000000 		.space	60
ARM GAS  /tmp/cc4PE9Vh.s 			page 16


 376      00000000 
 376      00000000 
 376      00000000 
 376      00000000 
 377              		.text
 378              	.Letext0:
 379              		.file 9 "/usr/lib/gcc/arm-none-eabi/9.2.1/include/stdint.h"
 380              		.file 10 "../../libdaisy/Drivers/CMSIS/Include/core_cm7.h"
 381              		.file 11 "../../libdaisy/Drivers/CMSIS/Device/ST/STM32H7xx/Include/system_stm32h7xx.h"
 382              		.file 12 "/usr/lib/gcc/arm-none-eabi/9.2.1/include/stddef.h"
 383              		.file 13 "/usr/include/newlib/c++/9.2.1/cmath"
 384              		.file 14 "/usr/include/newlib/c++/9.2.1/bits/std_abs.h"
 385              		.file 15 "/usr/include/newlib/c++/9.2.1/cstdlib"
 386              		.file 16 "/usr/include/newlib/c++/9.2.1/cstdint"
 387              		.file 17 "/usr/include/newlib/c++/9.2.1/type_traits"
 388              		.file 18 "/usr/include/newlib/c++/9.2.1/bits/stl_pair.h"
 389              		.file 19 "/usr/include/newlib/c++/9.2.1/debug/debug.h"
 390              		.file 20 "/usr/include/newlib/c++/9.2.1/arm-none-eabi/thumb/v7e-m+dp/hard/bits/c++config.h"
 391              		.file 21 "/usr/include/newlib/c++/9.2.1/bits/algorithmfwd.h"
 392              		.file 22 "/usr/include/newlib/c++/9.2.1/bits/exception_ptr.h"
 393              		.file 23 "/usr/include/newlib/c++/9.2.1/new"
 394              		.file 24 "/usr/include/newlib/c++/9.2.1/cstdarg"
 395              		.file 25 "/usr/include/newlib/c++/9.2.1/cstdio"
 396              		.file 26 "/usr/include/newlib/c++/9.2.1/bits/predefined_ops.h"
 397              		.file 27 "/usr/include/newlib/c++/9.2.1/ext/numeric_traits.h"
 398              		.file 28 "/usr/include/newlib/sys/_types.h"
 399              		.file 29 "<built-in>"
 400              		.file 30 "/usr/include/newlib/sys/reent.h"
 401              		.file 31 "/usr/include/newlib/sys/lock.h"
 402              		.file 32 "/usr/include/newlib/math.h"
 403              		.file 33 "/usr/include/newlib/stdlib.h"
 404              		.file 34 "/usr/include/newlib/c++/9.2.1/math.h"
 405              		.file 35 "../../libdaisy/Drivers/STM32H7xx_HAL_Driver/Inc/stm32h7xx_hal_def.h"
 406              		.file 36 "../../libdaisy/Drivers/STM32H7xx_HAL_Driver/Inc/stm32h7xx_hal_flash.h"
 407              		.file 37 "/usr/include/newlib/c++/9.2.1/stdlib.h"
 408              		.file 38 "../../libdaisy/src/daisy_core.h"
 409              		.file 39 "../../libdaisy/src/per/tim.h"
 410              		.file 40 "../../libdaisy/src/per/sai.h"
 411              		.file 41 "../../libdaisy/src/util/wav_format.h"
 412              		.file 42 "../../libdaisy/src/per/qspi.h"
 413              		.file 43 "../../libdaisy/src/per/gpio.h"
 414              		.file 44 "../../libdaisy/src/dev/sdram.h"
 415              		.file 45 "/usr/lib/gcc/arm-none-eabi/9.2.1/include/stdarg.h"
 416              		.file 46 "/usr/include/newlib/stdio.h"
 417              		.file 47 "/usr/include/newlib/sys/unistd.h"
 418              		.file 48 "../../libdaisy/src/util/oled_fonts.h"
 419              		.file 49 "../../libdaisy/Middlewares/Third_Party/FatFs/src/integer.h"
 420              		.file 50 "../../libdaisy/Middlewares/Third_Party/FatFs/src/ff.h"
 421              		.file 51 "../../libdaisy/Middlewares/Third_Party/FatFs/src/diskio.h"
 422              		.file 52 "../../libdaisy/Middlewares/Third_Party/FatFs/src/ff_gen_drv.h"
 423              		.file 53 "../../libdaisy/src/util/sd_diskio.h"
 424              		.file 54 "../../libdaisy/src/sys/fatfs.h"
 425              		.file 55 "../../libdaisy/src/dev/sr_595.h"
ARM GAS  /tmp/cc4PE9Vh.s 			page 17

