ARM GAS  /tmp/ccF7J5sE.s 			page 1


   1              		.cpu cortex-m7
   2              		.eabi_attribute 28, 1
   3              		.eabi_attribute 20, 1
   4              		.eabi_attribute 21, 1
   5              		.eabi_attribute 23, 3
   6              		.eabi_attribute 24, 1
   7              		.eabi_attribute 25, 1
   8              		.eabi_attribute 26, 1
   9              		.eabi_attribute 30, 2
  10              		.eabi_attribute 34, 1
  11              		.eabi_attribute 18, 4
  12              		.file	"Compressor.cpp"
  13              		.text
  14              	.Ltext0:
  15              		.cfi_sections	.debug_frame
  16              		.section	.text._ZN7daisysp10CompressorD2Ev,"axG",%progbits,_ZN7daisysp10CompressorD5Ev,comdat
  17              		.align	1
  18              		.p2align 2,,3
  19              		.weak	_ZN7daisysp10CompressorD2Ev
  20              		.arch armv7e-m
  21              		.syntax unified
  22              		.thumb
  23              		.thumb_func
  24              		.fpu fpv5-d16
  26              	_ZN7daisysp10CompressorD2Ev:
  27              	.LVL0:
  28              	.LFB2893:
  29              		.file 1 "../../DaisySP/Source/Dynamics/compressor.h"
   1:../../DaisySP/Source/Dynamics/compressor.h **** #pragma once
   2:../../DaisySP/Source/Dynamics/compressor.h **** #ifndef DSY_COMPRESSOR_H
   3:../../DaisySP/Source/Dynamics/compressor.h **** #define DSY_COMPRESSOR_H
   4:../../DaisySP/Source/Dynamics/compressor.h **** 
   5:../../DaisySP/Source/Dynamics/compressor.h **** #include "Utility/dsp.h"
   6:../../DaisySP/Source/Dynamics/compressor.h **** 
   7:../../DaisySP/Source/Dynamics/compressor.h **** namespace daisysp
   8:../../DaisySP/Source/Dynamics/compressor.h **** {
   9:../../DaisySP/Source/Dynamics/compressor.h **** /** dynamics compressor
  10:../../DaisySP/Source/Dynamics/compressor.h **** 
  11:../../DaisySP/Source/Dynamics/compressor.h **** influenced by compressor in soundpipe (from faust).
  12:../../DaisySP/Source/Dynamics/compressor.h **** 
  13:../../DaisySP/Source/Dynamics/compressor.h **** Modifications made to do:
  14:../../DaisySP/Source/Dynamics/compressor.h **** - Less calculations during each process loop (coefficients recalculated on parameter change).
  15:../../DaisySP/Source/Dynamics/compressor.h **** - C++-ified
  16:../../DaisySP/Source/Dynamics/compressor.h **** - added sidechain support
  17:../../DaisySP/Source/Dynamics/compressor.h **** - pulled gain apart for monitoring and multichannel support
  18:../../DaisySP/Source/Dynamics/compressor.h **** - improved readability
  19:../../DaisySP/Source/Dynamics/compressor.h **** - improved makeup-gain calculations
  20:../../DaisySP/Source/Dynamics/compressor.h **** - changing controls now costs a lot less
  21:../../DaisySP/Source/Dynamics/compressor.h **** - a lot less expensive
  22:../../DaisySP/Source/Dynamics/compressor.h **** 
  23:../../DaisySP/Source/Dynamics/compressor.h **** by: shensley, improved upon by AvAars
  24:../../DaisySP/Source/Dynamics/compressor.h **** \todo Add soft/hard knee settings
  25:../../DaisySP/Source/Dynamics/compressor.h **** */
  26:../../DaisySP/Source/Dynamics/compressor.h **** class Compressor
  27:../../DaisySP/Source/Dynamics/compressor.h **** {
  28:../../DaisySP/Source/Dynamics/compressor.h ****   public:
  29:../../DaisySP/Source/Dynamics/compressor.h ****     Compressor() {}
ARM GAS  /tmp/ccF7J5sE.s 			page 2


  30:../../DaisySP/Source/Dynamics/compressor.h ****     ~Compressor() {}
  30              		.loc 1 30 5 view -0
  31              		.cfi_startproc
  32              		@ args = 0, pretend = 0, frame = 0
  33              		@ frame_needed = 0, uses_anonymous_args = 0
  34              		@ link register save eliminated.
  35              		.loc 1 30 20 is_stmt 0 view .LVU1
  36 0000 7047     		bx	lr
  37              		.cfi_endproc
  38              	.LFE2893:
  40              		.weak	_ZN7daisysp10CompressorD1Ev
  41              		.thumb_set _ZN7daisysp10CompressorD1Ev,_ZN7daisysp10CompressorD2Ev
  42 0002 00BF     		.section	.text._ZN5daisy9ParameterD2Ev,"axG",%progbits,_ZN5daisy9ParameterD5Ev,comdat
  43              		.align	1
  44              		.p2align 2,,3
  45              		.weak	_ZN5daisy9ParameterD2Ev
  46              		.syntax unified
  47              		.thumb
  48              		.thumb_func
  49              		.fpu fpv5-d16
  51              	_ZN5daisy9ParameterD2Ev:
  52              	.LVL1:
  53              	.LFB3778:
  54              		.file 2 "../../libdaisy/src/hid/parameter.h"
   1:../../libdaisy/src/hid/parameter.h **** #pragma once
   2:../../libdaisy/src/hid/parameter.h **** #include <stdint.h>
   3:../../libdaisy/src/hid/parameter.h **** #include "hid/ctrl.h"
   4:../../libdaisy/src/hid/parameter.h **** 
   5:../../libdaisy/src/hid/parameter.h **** namespace daisy
   6:../../libdaisy/src/hid/parameter.h **** {
   7:../../libdaisy/src/hid/parameter.h **** /** @addtogroup controls
   8:../../libdaisy/src/hid/parameter.h ****     @{
   9:../../libdaisy/src/hid/parameter.h **** */
  10:../../libdaisy/src/hid/parameter.h **** 
  11:../../libdaisy/src/hid/parameter.h **** /**      Simple parameter mapping tool that takes a 0-1 input from an hid_ctrl. */
  12:../../libdaisy/src/hid/parameter.h **** class Parameter
  13:../../libdaisy/src/hid/parameter.h **** {
  14:../../libdaisy/src/hid/parameter.h ****   public:
  15:../../libdaisy/src/hid/parameter.h ****     /** Curves are applied to the output signal */
  16:../../libdaisy/src/hid/parameter.h ****     enum Curve
  17:../../libdaisy/src/hid/parameter.h ****     {
  18:../../libdaisy/src/hid/parameter.h ****         LINEAR,      /**< Linear curve */
  19:../../libdaisy/src/hid/parameter.h ****         EXPONENTIAL, /**< Exponential curve */
  20:../../libdaisy/src/hid/parameter.h ****         LOGARITHMIC, /**<  Logarithmic curve */
  21:../../libdaisy/src/hid/parameter.h ****         CUBE,        /**< Cubic curve */
  22:../../libdaisy/src/hid/parameter.h ****         LAST,        /**< Final enum element. */
  23:../../libdaisy/src/hid/parameter.h ****     };
  24:../../libdaisy/src/hid/parameter.h ****     /** Constructor */
  25:../../libdaisy/src/hid/parameter.h ****     Parameter() {}
  26:../../libdaisy/src/hid/parameter.h ****     /** Destructor */
  27:../../libdaisy/src/hid/parameter.h ****     ~Parameter() {}
  55              		.loc 2 27 5 is_stmt 1 view -0
  56              		.cfi_startproc
  57              		@ args = 0, pretend = 0, frame = 0
  58              		@ frame_needed = 0, uses_anonymous_args = 0
  59              		@ link register save eliminated.
  60              	.LBB838:
ARM GAS  /tmp/ccF7J5sE.s 			page 3


  61              	.LBI838:
  62              		.file 3 "../../libdaisy/src/hid/ctrl.h"
   1:../../libdaisy/src/hid/ctrl.h **** #pragma once
   2:../../libdaisy/src/hid/ctrl.h **** #ifndef DSY_KNOB_H
   3:../../libdaisy/src/hid/ctrl.h **** #define DSY_KNOB_H /**< & */
   4:../../libdaisy/src/hid/ctrl.h **** #include <stdint.h>
   5:../../libdaisy/src/hid/ctrl.h **** 
   6:../../libdaisy/src/hid/ctrl.h **** #ifdef __cplusplus
   7:../../libdaisy/src/hid/ctrl.h **** namespace daisy
   8:../../libdaisy/src/hid/ctrl.h **** {
   9:../../libdaisy/src/hid/ctrl.h **** /**
  10:../../libdaisy/src/hid/ctrl.h ****     @brief Hardware Interface for control inputs \n 
  11:../../libdaisy/src/hid/ctrl.h ****     Primarily designed for ADC input controls such as \n 
  12:../../libdaisy/src/hid/ctrl.h ****     potentiometers, and control voltage. \n 
  13:../../libdaisy/src/hid/ctrl.h ****     @author Stephen Hensley
  14:../../libdaisy/src/hid/ctrl.h ****     @date November 2019
  15:../../libdaisy/src/hid/ctrl.h ****     @ingroup controls
  16:../../libdaisy/src/hid/ctrl.h **** */
  17:../../libdaisy/src/hid/ctrl.h **** class AnalogControl
  18:../../libdaisy/src/hid/ctrl.h **** {
  19:../../libdaisy/src/hid/ctrl.h ****   public:
  20:../../libdaisy/src/hid/ctrl.h ****     /** Constructor */
  21:../../libdaisy/src/hid/ctrl.h ****     AnalogControl() {}
  22:../../libdaisy/src/hid/ctrl.h ****     /** destructor */
  23:../../libdaisy/src/hid/ctrl.h ****     ~AnalogControl() {}
  63              		.loc 3 23 5 view .LVU3
  64              		.loc 3 23 5 is_stmt 0 view .LVU4
  65              	.LBE838:
  66              		.loc 2 27 19 view .LVU5
  67 0000 7047     		bx	lr
  68              		.cfi_endproc
  69              	.LFE3778:
  71              		.weak	_ZN5daisy9ParameterD1Ev
  72              		.thumb_set _ZN5daisy9ParameterD1Ev,_ZN5daisy9ParameterD2Ev
  73 0002 00BF     		.section	.text._ZN5daisy10DaisyPatchD2Ev,"axG",%progbits,_ZN5daisy10DaisyPatchD5Ev,comdat
  74              		.align	1
  75              		.p2align 2,,3
  76              		.weak	_ZN5daisy10DaisyPatchD2Ev
  77              		.syntax unified
  78              		.thumb
  79              		.thumb_func
  80              		.fpu fpv5-d16
  82              	_ZN5daisy10DaisyPatchD2Ev:
  83              	.LVL2:
  84              	.LFB4230:
  85              		.file 4 "../../libdaisy/src/daisy_patch.h"
   1:../../libdaisy/src/daisy_patch.h **** #pragma once
   2:../../libdaisy/src/daisy_patch.h **** #ifndef DSY_PATCH_BSP_H
   3:../../libdaisy/src/daisy_patch.h **** #define DSY_PATCH_BSP_H
   4:../../libdaisy/src/daisy_patch.h **** #include "daisy_seed.h"
   5:../../libdaisy/src/daisy_patch.h **** #include "dev/oled_ssd130x.h"
   6:../../libdaisy/src/daisy_patch.h **** 
   7:../../libdaisy/src/daisy_patch.h **** namespace daisy
   8:../../libdaisy/src/daisy_patch.h **** {
   9:../../libdaisy/src/daisy_patch.h **** /**
  10:../../libdaisy/src/daisy_patch.h ****     @brief Class that handles initializing all of the hardware specific to the Daisy Patch Board. \
  11:../../libdaisy/src/daisy_patch.h ****     Helper funtions are also in place to provide easy access to built-in controls and peripherals.
ARM GAS  /tmp/ccF7J5sE.s 			page 4


  12:../../libdaisy/src/daisy_patch.h ****     @author Stephen Hensley
  13:../../libdaisy/src/daisy_patch.h ****     @date November 2019
  14:../../libdaisy/src/daisy_patch.h ****     @ingroup boards
  15:../../libdaisy/src/daisy_patch.h **** */
  16:../../libdaisy/src/daisy_patch.h **** class DaisyPatch
  17:../../libdaisy/src/daisy_patch.h **** {
  18:../../libdaisy/src/daisy_patch.h ****   public:
  19:../../libdaisy/src/daisy_patch.h ****     /** Enum of Ctrls to represent the four CV/Knob combos on the Patch
  20:../../libdaisy/src/daisy_patch.h ****      */
  21:../../libdaisy/src/daisy_patch.h ****     enum Ctrl
  22:../../libdaisy/src/daisy_patch.h ****     {
  23:../../libdaisy/src/daisy_patch.h ****         CTRL_1,    /**< */
  24:../../libdaisy/src/daisy_patch.h ****         CTRL_2,    /**< */
  25:../../libdaisy/src/daisy_patch.h ****         CTRL_3,    /**< */
  26:../../libdaisy/src/daisy_patch.h ****         CTRL_4,    /**< */
  27:../../libdaisy/src/daisy_patch.h ****         CTRL_LAST, /**< */
  28:../../libdaisy/src/daisy_patch.h ****     };
  29:../../libdaisy/src/daisy_patch.h **** 
  30:../../libdaisy/src/daisy_patch.h ****     /** Daisy patch gate inputs */
  31:../../libdaisy/src/daisy_patch.h ****     enum GateInput
  32:../../libdaisy/src/daisy_patch.h ****     {
  33:../../libdaisy/src/daisy_patch.h ****         GATE_IN_1,    /**< */
  34:../../libdaisy/src/daisy_patch.h ****         GATE_IN_2,    /** <*/
  35:../../libdaisy/src/daisy_patch.h ****         GATE_IN_LAST, /**< */
  36:../../libdaisy/src/daisy_patch.h ****     };
  37:../../libdaisy/src/daisy_patch.h **** 
  38:../../libdaisy/src/daisy_patch.h ****     /** Constructor */
  39:../../libdaisy/src/daisy_patch.h ****     DaisyPatch() {}
  40:../../libdaisy/src/daisy_patch.h ****     /** Destructor */
  41:../../libdaisy/src/daisy_patch.h ****     ~DaisyPatch() {}
  86              		.loc 4 41 5 is_stmt 1 view -0
  87              		.cfi_startproc
  88              		@ args = 0, pretend = 0, frame = 0
  89              		@ frame_needed = 0, uses_anonymous_args = 0
  90              		@ link register save eliminated.
  91              	.LBB839:
  92              	.LBI839:
  93              		.file 5 "../../libdaisy/src/hid/disp/oled_display.h"
   1:../../libdaisy/src/hid/disp/oled_display.h **** #pragma once
   2:../../libdaisy/src/hid/disp/oled_display.h **** #ifndef DSY_OLED_DISPLAY_H
   3:../../libdaisy/src/hid/disp/oled_display.h **** #define DSY_OLED_DISPLAY_H /**< Macro */
   4:../../libdaisy/src/hid/disp/oled_display.h **** 
   5:../../libdaisy/src/hid/disp/oled_display.h **** #include "display.h"
   6:../../libdaisy/src/hid/disp/oled_display.h **** 
   7:../../libdaisy/src/hid/disp/oled_display.h **** namespace daisy
   8:../../libdaisy/src/hid/disp/oled_display.h **** {
   9:../../libdaisy/src/hid/disp/oled_display.h **** /** 
  10:../../libdaisy/src/hid/disp/oled_display.h ****  * This class is for drawing to a monochrome OLED display. 
  11:../../libdaisy/src/hid/disp/oled_display.h **** */
  12:../../libdaisy/src/hid/disp/oled_display.h **** template <typename DisplayDriver>
  13:../../libdaisy/src/hid/disp/oled_display.h **** class OledDisplay : public OneBitGraphicsDisplayImpl<OledDisplay<DisplayDriver>>
  14:../../libdaisy/src/hid/disp/oled_display.h **** {
  15:../../libdaisy/src/hid/disp/oled_display.h ****   public:
  16:../../libdaisy/src/hid/disp/oled_display.h ****     OledDisplay() {}
  17:../../libdaisy/src/hid/disp/oled_display.h ****     virtual ~OledDisplay() {}
  94              		.loc 5 17 13 view .LVU7
  95              	.LBB840:
ARM GAS  /tmp/ccF7J5sE.s 			page 5


  96              	.LBI840:
  97              		.file 6 "../../libdaisy/src/hid/disp/display.h"
   1:../../libdaisy/src/hid/disp/display.h **** #pragma once
   2:../../libdaisy/src/hid/disp/display.h **** #ifndef DSY_DISPLAY_H
   3:../../libdaisy/src/hid/disp/display.h **** #define DSY_DISPLAY_H /**< Macro */
   4:../../libdaisy/src/hid/disp/display.h **** #include <cmath>
   5:../../libdaisy/src/hid/disp/display.h **** #include "util/oled_fonts.h"
   6:../../libdaisy/src/hid/disp/display.h **** #include "daisy_core.h"
   7:../../libdaisy/src/hid/disp/display.h **** #include "graphics_common.h"
   8:../../libdaisy/src/hid/disp/display.h **** 
   9:../../libdaisy/src/hid/disp/display.h **** #ifndef deg2rad
  10:../../libdaisy/src/hid/disp/display.h **** #define deg2rad(deg) ((deg)*3.141592 / 180.0)
  11:../../libdaisy/src/hid/disp/display.h **** #endif
  12:../../libdaisy/src/hid/disp/display.h **** 
  13:../../libdaisy/src/hid/disp/display.h **** namespace daisy
  14:../../libdaisy/src/hid/disp/display.h **** {
  15:../../libdaisy/src/hid/disp/display.h **** /** 
  16:../../libdaisy/src/hid/disp/display.h ****  * This interface is used as a base class for all types of 1bit-per-pixel
  17:../../libdaisy/src/hid/disp/display.h ****  * graphics displays.
  18:../../libdaisy/src/hid/disp/display.h **** */
  19:../../libdaisy/src/hid/disp/display.h **** class OneBitGraphicsDisplay
  20:../../libdaisy/src/hid/disp/display.h **** {
  21:../../libdaisy/src/hid/disp/display.h ****   public:
  22:../../libdaisy/src/hid/disp/display.h ****     OneBitGraphicsDisplay() {}
  23:../../libdaisy/src/hid/disp/display.h ****     virtual ~OneBitGraphicsDisplay() {}
  24:../../libdaisy/src/hid/disp/display.h **** 
  25:../../libdaisy/src/hid/disp/display.h ****     virtual uint16_t Height() const = 0;
  26:../../libdaisy/src/hid/disp/display.h ****     virtual uint16_t Width() const  = 0;
  27:../../libdaisy/src/hid/disp/display.h **** 
  28:../../libdaisy/src/hid/disp/display.h ****     Rectangle GetBounds() const
  29:../../libdaisy/src/hid/disp/display.h ****     {
  30:../../libdaisy/src/hid/disp/display.h ****         return Rectangle(int16_t(Width()), int16_t(Height()));
  31:../../libdaisy/src/hid/disp/display.h ****     }
  32:../../libdaisy/src/hid/disp/display.h **** 
  33:../../libdaisy/src/hid/disp/display.h **** 
  34:../../libdaisy/src/hid/disp/display.h ****     size_t CurrentX() { return currentX_; };
  35:../../libdaisy/src/hid/disp/display.h ****     size_t CurrentY() { return currentY_; };
  36:../../libdaisy/src/hid/disp/display.h **** 
  37:../../libdaisy/src/hid/disp/display.h ****     /** 
  38:../../libdaisy/src/hid/disp/display.h ****     Fills the entire display with either on/off.
  39:../../libdaisy/src/hid/disp/display.h ****     \param on Sets on or off.
  40:../../libdaisy/src/hid/disp/display.h ****     */
  41:../../libdaisy/src/hid/disp/display.h ****     virtual void Fill(bool on) = 0;
  42:../../libdaisy/src/hid/disp/display.h **** 
  43:../../libdaisy/src/hid/disp/display.h ****     /**
  44:../../libdaisy/src/hid/disp/display.h ****     Sets the pixel at the specified coordinate to be on/off.
  45:../../libdaisy/src/hid/disp/display.h ****     \param x   x Coordinate
  46:../../libdaisy/src/hid/disp/display.h ****     \param y   y coordinate
  47:../../libdaisy/src/hid/disp/display.h ****     \param on  on or off
  48:../../libdaisy/src/hid/disp/display.h ****     */
  49:../../libdaisy/src/hid/disp/display.h ****     virtual void DrawPixel(uint_fast8_t x, uint_fast8_t y, bool on) = 0;
  50:../../libdaisy/src/hid/disp/display.h **** 
  51:../../libdaisy/src/hid/disp/display.h ****     /**
  52:../../libdaisy/src/hid/disp/display.h ****     Draws a line from (x1, y1) to (y1, y2)
  53:../../libdaisy/src/hid/disp/display.h ****     \param x1  x Coordinate of the starting point
  54:../../libdaisy/src/hid/disp/display.h ****     \param y1  y Coordinate of the starting point
  55:../../libdaisy/src/hid/disp/display.h ****     \param x2  x Coordinate of the ending point
ARM GAS  /tmp/ccF7J5sE.s 			page 6


  56:../../libdaisy/src/hid/disp/display.h ****     \param y2  y Coordinate of the ending point
  57:../../libdaisy/src/hid/disp/display.h ****     \param on  on or off
  58:../../libdaisy/src/hid/disp/display.h ****     */
  59:../../libdaisy/src/hid/disp/display.h ****     virtual void DrawLine(uint_fast8_t x1,
  60:../../libdaisy/src/hid/disp/display.h ****                           uint_fast8_t y1,
  61:../../libdaisy/src/hid/disp/display.h ****                           uint_fast8_t x2,
  62:../../libdaisy/src/hid/disp/display.h ****                           uint_fast8_t y2,
  63:../../libdaisy/src/hid/disp/display.h ****                           bool         on)
  64:../../libdaisy/src/hid/disp/display.h ****         = 0;
  65:../../libdaisy/src/hid/disp/display.h **** 
  66:../../libdaisy/src/hid/disp/display.h ****     /**
  67:../../libdaisy/src/hid/disp/display.h ****     Draws a rectangle based on two coordinates.
  68:../../libdaisy/src/hid/disp/display.h ****     \param x1 x Coordinate of the first point
  69:../../libdaisy/src/hid/disp/display.h ****     \param y1 y Coordinate of the first point
  70:../../libdaisy/src/hid/disp/display.h ****     \param x2 x Coordinate of the second point
  71:../../libdaisy/src/hid/disp/display.h ****     \param y2 y Coordinate of the second point
  72:../../libdaisy/src/hid/disp/display.h ****     \param on on or off
  73:../../libdaisy/src/hid/disp/display.h ****     \param fill fill the rectangle or draw only the outline
  74:../../libdaisy/src/hid/disp/display.h ****     */
  75:../../libdaisy/src/hid/disp/display.h ****     virtual void DrawRect(uint_fast8_t x1,
  76:../../libdaisy/src/hid/disp/display.h ****                           uint_fast8_t y1,
  77:../../libdaisy/src/hid/disp/display.h ****                           uint_fast8_t x2,
  78:../../libdaisy/src/hid/disp/display.h ****                           uint_fast8_t y2,
  79:../../libdaisy/src/hid/disp/display.h ****                           bool         on,
  80:../../libdaisy/src/hid/disp/display.h ****                           bool         fill = false)
  81:../../libdaisy/src/hid/disp/display.h ****         = 0;
  82:../../libdaisy/src/hid/disp/display.h **** 
  83:../../libdaisy/src/hid/disp/display.h ****     /**
  84:../../libdaisy/src/hid/disp/display.h ****     Draws a rectangle.
  85:../../libdaisy/src/hid/disp/display.h ****     \param rect the rectangle
  86:../../libdaisy/src/hid/disp/display.h ****     \param on   on or off
  87:../../libdaisy/src/hid/disp/display.h ****     \param fill fill the rectangle or draw only the outline
  88:../../libdaisy/src/hid/disp/display.h ****     */
  89:../../libdaisy/src/hid/disp/display.h ****     void DrawRect(const Rectangle& rect, bool on, bool fill = false)
  90:../../libdaisy/src/hid/disp/display.h ****     {
  91:../../libdaisy/src/hid/disp/display.h ****         DrawRect(rect.GetX(),
  92:../../libdaisy/src/hid/disp/display.h ****                  rect.GetY(),
  93:../../libdaisy/src/hid/disp/display.h ****                  rect.GetRight(),
  94:../../libdaisy/src/hid/disp/display.h ****                  rect.GetBottom(),
  95:../../libdaisy/src/hid/disp/display.h ****                  on,
  96:../../libdaisy/src/hid/disp/display.h ****                  fill);
  97:../../libdaisy/src/hid/disp/display.h ****     }
  98:../../libdaisy/src/hid/disp/display.h **** 
  99:../../libdaisy/src/hid/disp/display.h ****     /**
 100:../../libdaisy/src/hid/disp/display.h ****     Draws an arc around the specified coordinate
 101:../../libdaisy/src/hid/disp/display.h ****     \param x           x Coordinate of the center of the arc
 102:../../libdaisy/src/hid/disp/display.h ****     \param y           y Coordinate of the center of the arc
 103:../../libdaisy/src/hid/disp/display.h ****     \param radius      radius of the arc
 104:../../libdaisy/src/hid/disp/display.h ****     \param start_angle angle where to start the arc
 105:../../libdaisy/src/hid/disp/display.h ****     \param sweep       total angle of the arc
 106:../../libdaisy/src/hid/disp/display.h ****     \param on  on or off
 107:../../libdaisy/src/hid/disp/display.h ****     */
 108:../../libdaisy/src/hid/disp/display.h ****     virtual void DrawArc(uint_fast8_t x,
 109:../../libdaisy/src/hid/disp/display.h ****                          uint_fast8_t y,
 110:../../libdaisy/src/hid/disp/display.h ****                          uint_fast8_t radius,
 111:../../libdaisy/src/hid/disp/display.h ****                          int_fast16_t start_angle,
 112:../../libdaisy/src/hid/disp/display.h ****                          int_fast16_t sweep,
ARM GAS  /tmp/ccF7J5sE.s 			page 7


 113:../../libdaisy/src/hid/disp/display.h ****                          bool         on)
 114:../../libdaisy/src/hid/disp/display.h ****         = 0;
 115:../../libdaisy/src/hid/disp/display.h **** 
 116:../../libdaisy/src/hid/disp/display.h ****     /**
 117:../../libdaisy/src/hid/disp/display.h ****     Draws a circle around the specified coordinate
 118:../../libdaisy/src/hid/disp/display.h ****     \param x           x Coordinate of the center of the circle
 119:../../libdaisy/src/hid/disp/display.h ****     \param y           y Coordinate of the center of the circle
 120:../../libdaisy/src/hid/disp/display.h ****     \param radius      radius of the circle
 121:../../libdaisy/src/hid/disp/display.h ****     \param on  on or off
 122:../../libdaisy/src/hid/disp/display.h ****     */
 123:../../libdaisy/src/hid/disp/display.h ****     void
 124:../../libdaisy/src/hid/disp/display.h ****     DrawCircle(uint_fast8_t x, uint_fast8_t y, uint_fast8_t radius, bool on)
 125:../../libdaisy/src/hid/disp/display.h ****     {
 126:../../libdaisy/src/hid/disp/display.h ****         DrawArc(x, y, radius, 0, 360, on);
 127:../../libdaisy/src/hid/disp/display.h ****     };
 128:../../libdaisy/src/hid/disp/display.h **** 
 129:../../libdaisy/src/hid/disp/display.h ****     /** 
 130:../../libdaisy/src/hid/disp/display.h ****     Writes the character with the specific FontDef
 131:../../libdaisy/src/hid/disp/display.h ****     to the display buffer at the current Cursor position.
 132:../../libdaisy/src/hid/disp/display.h ****     \param ch character to be written
 133:../../libdaisy/src/hid/disp/display.h ****     \param font font to be written in
 134:../../libdaisy/src/hid/disp/display.h ****     \param on    on or off
 135:../../libdaisy/src/hid/disp/display.h ****     \return &
 136:../../libdaisy/src/hid/disp/display.h ****     */
 137:../../libdaisy/src/hid/disp/display.h ****     virtual char WriteChar(char ch, FontDef font, bool on) = 0;
 138:../../libdaisy/src/hid/disp/display.h **** 
 139:../../libdaisy/src/hid/disp/display.h ****     /** 
 140:../../libdaisy/src/hid/disp/display.h ****     Similar to WriteChar, except it will handle an entire String.
 141:../../libdaisy/src/hid/disp/display.h ****     Wrapping does not happen automatically, so the width
 142:../../libdaisy/src/hid/disp/display.h ****     of the string must be kept within the dimensions of the screen.
 143:../../libdaisy/src/hid/disp/display.h ****     \param str string to be written
 144:../../libdaisy/src/hid/disp/display.h ****     \param font font to use
 145:../../libdaisy/src/hid/disp/display.h ****     \param on  on or off
 146:../../libdaisy/src/hid/disp/display.h ****     \return &
 147:../../libdaisy/src/hid/disp/display.h ****     */
 148:../../libdaisy/src/hid/disp/display.h ****     virtual char WriteString(const char* str, FontDef font, bool on) = 0;
 149:../../libdaisy/src/hid/disp/display.h **** 
 150:../../libdaisy/src/hid/disp/display.h ****     /** 
 151:../../libdaisy/src/hid/disp/display.h ****     Similar to WriteString but justified within a bounding box.
 152:../../libdaisy/src/hid/disp/display.h ****     \param str          string to be written
 153:../../libdaisy/src/hid/disp/display.h ****     \param font         font to use
 154:../../libdaisy/src/hid/disp/display.h ****     \param boundingBox  the bounding box to draw the text in
 155:../../libdaisy/src/hid/disp/display.h ****     \param alignment    the alignment to use
 156:../../libdaisy/src/hid/disp/display.h ****     \param on           on or off
 157:../../libdaisy/src/hid/disp/display.h ****     \return The rectangle that was drawn to
 158:../../libdaisy/src/hid/disp/display.h ****     */
 159:../../libdaisy/src/hid/disp/display.h ****     virtual Rectangle WriteStringAligned(const char*    str,
 160:../../libdaisy/src/hid/disp/display.h ****                                          const FontDef& font,
 161:../../libdaisy/src/hid/disp/display.h ****                                          Rectangle      boundingBox,
 162:../../libdaisy/src/hid/disp/display.h ****                                          Alignment      alignment,
 163:../../libdaisy/src/hid/disp/display.h ****                                          bool           on)
 164:../../libdaisy/src/hid/disp/display.h ****         = 0;
 165:../../libdaisy/src/hid/disp/display.h **** 
 166:../../libdaisy/src/hid/disp/display.h ****     /** 
 167:../../libdaisy/src/hid/disp/display.h ****     Moves the 'Cursor' position used for WriteChar, and WriteStr to the specified coordinate.
 168:../../libdaisy/src/hid/disp/display.h ****     \param x x pos
 169:../../libdaisy/src/hid/disp/display.h ****     \param y y pos
ARM GAS  /tmp/ccF7J5sE.s 			page 8


 170:../../libdaisy/src/hid/disp/display.h ****     */
 171:../../libdaisy/src/hid/disp/display.h ****     void SetCursor(uint16_t x, uint16_t y)
 172:../../libdaisy/src/hid/disp/display.h ****     {
 173:../../libdaisy/src/hid/disp/display.h ****         currentX_ = (x >= Width()) ? Width() - 1 : x;
 174:../../libdaisy/src/hid/disp/display.h ****         currentY_ = (y >= Height()) ? Height() - 1 : y;
 175:../../libdaisy/src/hid/disp/display.h ****     }
 176:../../libdaisy/src/hid/disp/display.h **** 
 177:../../libdaisy/src/hid/disp/display.h ****     /** 
 178:../../libdaisy/src/hid/disp/display.h ****     Writes the current display buffer to the OLED device using SPI or I2C depending on 
 179:../../libdaisy/src/hid/disp/display.h ****     how the object was initialized.
 180:../../libdaisy/src/hid/disp/display.h ****     */
 181:../../libdaisy/src/hid/disp/display.h ****     virtual void Update() = 0;
 182:../../libdaisy/src/hid/disp/display.h **** 
 183:../../libdaisy/src/hid/disp/display.h ****   protected:
 184:../../libdaisy/src/hid/disp/display.h ****     uint16_t currentX_;
 185:../../libdaisy/src/hid/disp/display.h ****     uint16_t currentY_;
 186:../../libdaisy/src/hid/disp/display.h **** };
 187:../../libdaisy/src/hid/disp/display.h **** 
 188:../../libdaisy/src/hid/disp/display.h **** /** This class is intended as a intermediary class for your actual implementation of the OneBitGrap
 189:../../libdaisy/src/hid/disp/display.h ****  *  interface. It uses the CRTP design pattern where the template argument is the child class. It p
 190:../../libdaisy/src/hid/disp/display.h ****  *  implementations for most of the functions, except DrawPixel(), Update() and Fill(), which you'l
 191:../../libdaisy/src/hid/disp/display.h ****  *  to provide in your child class.
 192:../../libdaisy/src/hid/disp/display.h ****  *  The main goal of this class is to provide common drawing functions without relying on massive a
 193:../../libdaisy/src/hid/disp/display.h ****  *  virtual function calls that would result in a performance loss. To achieve this, any drawing fu
 194:../../libdaisy/src/hid/disp/display.h ****  *  is implemented here and internally calls other drawing functions (e.g. DrawRect() which interna
 195:../../libdaisy/src/hid/disp/display.h ****  *  DrawPixel() and DrawLine()) makes these calls via the qualified name of these functions to expl
 196:../../libdaisy/src/hid/disp/display.h ****  *  suppress the virtual dispatch mechanism like this:
 197:../../libdaisy/src/hid/disp/display.h ****  * 
 198:../../libdaisy/src/hid/disp/display.h ****  *      ChildType::DrawPixel(...); // no virtual function call; direct call into the child class fu
 199:../../libdaisy/src/hid/disp/display.h ****  *  
 200:../../libdaisy/src/hid/disp/display.h ****  *  To create a custom OneBitGraphicsDisplay implementation, you can 
 201:../../libdaisy/src/hid/disp/display.h ****  *  A) inherit from OneBitGraphicsDisplay directly and provide all the drawing functions yourself
 202:../../libdaisy/src/hid/disp/display.h ****  *  B) Inherit from OneBitGraphicsDisplayImpl and only provide DrawPixel(), Fill() and Update()
 203:../../libdaisy/src/hid/disp/display.h ****  *     like this:
 204:../../libdaisy/src/hid/disp/display.h ****  *  
 205:../../libdaisy/src/hid/disp/display.h ****  *      class MyDisplayClass : public OneBitGraphicsDisplayImpl<MyDisplayClass> 
 206:../../libdaisy/src/hid/disp/display.h ****  *      {
 207:../../libdaisy/src/hid/disp/display.h ****  *      public:
 208:../../libdaisy/src/hid/disp/display.h ****  *          void Fill() override { ... };
 209:../../libdaisy/src/hid/disp/display.h ****  *          void DrawPixel(uint_fast8_t x, uint_fast8_t y, bool on) override { ... };
 210:../../libdaisy/src/hid/disp/display.h ****  *          void Update() override { ... }
 211:../../libdaisy/src/hid/disp/display.h ****  *      };
 212:../../libdaisy/src/hid/disp/display.h ****  *  
 213:../../libdaisy/src/hid/disp/display.h ****  */
 214:../../libdaisy/src/hid/disp/display.h **** template <class ChildType>
 215:../../libdaisy/src/hid/disp/display.h **** class OneBitGraphicsDisplayImpl : public OneBitGraphicsDisplay
 216:../../libdaisy/src/hid/disp/display.h **** {
 217:../../libdaisy/src/hid/disp/display.h ****   public:
 218:../../libdaisy/src/hid/disp/display.h ****     OneBitGraphicsDisplayImpl() {}
 219:../../libdaisy/src/hid/disp/display.h ****     virtual ~OneBitGraphicsDisplayImpl() {}
  98              		.loc 6 219 13 view .LVU8
  99              	.LBB841:
 100              	.LBI841:
  23:../../libdaisy/src/hid/disp/display.h **** 
 101              		.loc 6 23 13 view .LVU9
  23:../../libdaisy/src/hid/disp/display.h **** 
 102              		.loc 6 23 13 is_stmt 0 view .LVU10
ARM GAS  /tmp/ccF7J5sE.s 			page 9


 103              	.LBE841:
 104              	.LBE840:
 105              	.LBE839:
 106              	.LBB842:
 107              	.LBI842:
 108              		.file 7 "../../libdaisy/src/hid/midi.h"
   1:../../libdaisy/src/hid/midi.h **** #pragma once
   2:../../libdaisy/src/hid/midi.h **** #ifndef DSY_MIDI_H
   3:../../libdaisy/src/hid/midi.h **** #define DSY_MIDI_H
   4:../../libdaisy/src/hid/midi.h **** 
   5:../../libdaisy/src/hid/midi.h **** // TODO: make this adjustable
   6:../../libdaisy/src/hid/midi.h **** #define SYSEX_BUFFER_LEN 128
   7:../../libdaisy/src/hid/midi.h **** 
   8:../../libdaisy/src/hid/midi.h **** #include <stdint.h>
   9:../../libdaisy/src/hid/midi.h **** #include <stdlib.h>
  10:../../libdaisy/src/hid/midi.h **** #include "per/uart.h"
  11:../../libdaisy/src/hid/midi.h **** #include "util/ringbuffer.h"
  12:../../libdaisy/src/hid/midi.h **** #include "hid/MidiEvent.h"
  13:../../libdaisy/src/hid/midi.h **** #include "sys/system.h"
  14:../../libdaisy/src/hid/midi.h **** 
  15:../../libdaisy/src/hid/midi.h **** namespace daisy
  16:../../libdaisy/src/hid/midi.h **** {
  17:../../libdaisy/src/hid/midi.h **** /** @addtogroup external 
  18:../../libdaisy/src/hid/midi.h ****     @{ 
  19:../../libdaisy/src/hid/midi.h **** */
  20:../../libdaisy/src/hid/midi.h **** 
  21:../../libdaisy/src/hid/midi.h **** class MidiUartTransport
  22:../../libdaisy/src/hid/midi.h **** {
  23:../../libdaisy/src/hid/midi.h ****   public:
  24:../../libdaisy/src/hid/midi.h ****     MidiUartTransport() {}
  25:../../libdaisy/src/hid/midi.h ****     ~MidiUartTransport() {}
  26:../../libdaisy/src/hid/midi.h **** 
  27:../../libdaisy/src/hid/midi.h ****     struct Config
  28:../../libdaisy/src/hid/midi.h ****     {
  29:../../libdaisy/src/hid/midi.h ****         UartHandler::Config::Peripheral periph;
  30:../../libdaisy/src/hid/midi.h ****         dsy_gpio_pin                    rx;
  31:../../libdaisy/src/hid/midi.h ****         dsy_gpio_pin                    tx;
  32:../../libdaisy/src/hid/midi.h **** 
  33:../../libdaisy/src/hid/midi.h ****         Config()
  34:../../libdaisy/src/hid/midi.h ****         {
  35:../../libdaisy/src/hid/midi.h ****             periph = UartHandler::Config::Peripheral::USART_1;
  36:../../libdaisy/src/hid/midi.h ****             rx     = {DSY_GPIOB, 7};
  37:../../libdaisy/src/hid/midi.h ****             tx     = {DSY_GPIOB, 6};
  38:../../libdaisy/src/hid/midi.h ****         }
  39:../../libdaisy/src/hid/midi.h ****     };
  40:../../libdaisy/src/hid/midi.h **** 
  41:../../libdaisy/src/hid/midi.h ****     inline void Init(Config config)
  42:../../libdaisy/src/hid/midi.h ****     {
  43:../../libdaisy/src/hid/midi.h ****         UartHandler::Config uart_config;
  44:../../libdaisy/src/hid/midi.h **** 
  45:../../libdaisy/src/hid/midi.h ****         //defaults
  46:../../libdaisy/src/hid/midi.h ****         uart_config.baudrate   = 31250;
  47:../../libdaisy/src/hid/midi.h ****         uart_config.stopbits   = UartHandler::Config::StopBits::BITS_1;
  48:../../libdaisy/src/hid/midi.h ****         uart_config.parity     = UartHandler::Config::Parity::NONE;
  49:../../libdaisy/src/hid/midi.h ****         uart_config.mode       = UartHandler::Config::Mode::TX_RX;
  50:../../libdaisy/src/hid/midi.h ****         uart_config.wordlength = UartHandler::Config::WordLength::BITS_8;
  51:../../libdaisy/src/hid/midi.h **** 
ARM GAS  /tmp/ccF7J5sE.s 			page 10


  52:../../libdaisy/src/hid/midi.h ****         //user settings
  53:../../libdaisy/src/hid/midi.h ****         uart_config.periph        = config.periph;
  54:../../libdaisy/src/hid/midi.h ****         uart_config.pin_config.rx = config.rx;
  55:../../libdaisy/src/hid/midi.h ****         uart_config.pin_config.tx = config.tx;
  56:../../libdaisy/src/hid/midi.h **** 
  57:../../libdaisy/src/hid/midi.h ****         uart_.Init(uart_config);
  58:../../libdaisy/src/hid/midi.h ****     }
  59:../../libdaisy/src/hid/midi.h **** 
  60:../../libdaisy/src/hid/midi.h ****     inline void    StartRx() { uart_.StartRx(); }
  61:../../libdaisy/src/hid/midi.h ****     inline size_t  Readable() { return uart_.Readable(); }
  62:../../libdaisy/src/hid/midi.h ****     inline uint8_t Rx() { return uart_.PopRx(); }
  63:../../libdaisy/src/hid/midi.h ****     inline bool    RxActive() { return uart_.RxActive(); }
  64:../../libdaisy/src/hid/midi.h ****     inline void    FlushRx() { uart_.FlushRx(); }
  65:../../libdaisy/src/hid/midi.h ****     inline void    Tx(uint8_t* buff, size_t size) { uart_.PollTx(buff, size); }
  66:../../libdaisy/src/hid/midi.h **** 
  67:../../libdaisy/src/hid/midi.h ****   private:
  68:../../libdaisy/src/hid/midi.h ****     UartHandler uart_;
  69:../../libdaisy/src/hid/midi.h **** };
  70:../../libdaisy/src/hid/midi.h **** 
  71:../../libdaisy/src/hid/midi.h **** /** 
  72:../../libdaisy/src/hid/midi.h ****     @brief Simple MIDI Handler \n 
  73:../../libdaisy/src/hid/midi.h ****     Parses bytes from an input into valid MidiEvents. \n 
  74:../../libdaisy/src/hid/midi.h ****     The MidiEvents fill a FIFO queue that the user can pop messages from.
  75:../../libdaisy/src/hid/midi.h ****     @author shensley
  76:../../libdaisy/src/hid/midi.h ****     @date March 2020
  77:../../libdaisy/src/hid/midi.h **** */
  78:../../libdaisy/src/hid/midi.h **** template <typename Transport>
  79:../../libdaisy/src/hid/midi.h **** class MidiHandler
  80:../../libdaisy/src/hid/midi.h **** {
  81:../../libdaisy/src/hid/midi.h ****   public:
  82:../../libdaisy/src/hid/midi.h ****     MidiHandler() {}
  83:../../libdaisy/src/hid/midi.h ****     ~MidiHandler() {}
 109              		.loc 7 83 5 is_stmt 1 view .LVU11
 110              	.LBB843:
 111              	.LBI843:
  25:../../libdaisy/src/hid/midi.h **** 
 112              		.loc 7 25 5 view .LVU12
  25:../../libdaisy/src/hid/midi.h **** 
 113              		.loc 7 25 5 is_stmt 0 view .LVU13
 114              	.LBE843:
 115              	.LBE842:
 116              	.LBB844:
 117              	.LBI844:
 118              		.file 8 "../../libdaisy/src/hid/encoder.h"
   1:../../libdaisy/src/hid/encoder.h **** #pragma once
   2:../../libdaisy/src/hid/encoder.h **** #ifndef DSY_ENCODER_H
   3:../../libdaisy/src/hid/encoder.h **** #define DSY_ENCODER_H
   4:../../libdaisy/src/hid/encoder.h **** #include "daisy_core.h"
   5:../../libdaisy/src/hid/encoder.h **** #include "per/gpio.h"
   6:../../libdaisy/src/hid/encoder.h **** #include "hid/switch.h"
   7:../../libdaisy/src/hid/encoder.h **** 
   8:../../libdaisy/src/hid/encoder.h **** namespace daisy
   9:../../libdaisy/src/hid/encoder.h **** {
  10:../../libdaisy/src/hid/encoder.h **** /** 
  11:../../libdaisy/src/hid/encoder.h ****     @brief Generic Class for handling Quadrature Encoders \n 
  12:../../libdaisy/src/hid/encoder.h ****     Inspired/influenced by Mutable Instruments (pichenettes) Encoder classes
  13:../../libdaisy/src/hid/encoder.h ****     @author Stephen Hensley
ARM GAS  /tmp/ccF7J5sE.s 			page 11


  14:../../libdaisy/src/hid/encoder.h ****     @date December 2019
  15:../../libdaisy/src/hid/encoder.h ****     @ingroup controls
  16:../../libdaisy/src/hid/encoder.h **** */
  17:../../libdaisy/src/hid/encoder.h **** class Encoder
  18:../../libdaisy/src/hid/encoder.h **** {
  19:../../libdaisy/src/hid/encoder.h ****   public:
  20:../../libdaisy/src/hid/encoder.h ****     Encoder() {}
  21:../../libdaisy/src/hid/encoder.h ****     ~Encoder() {}
 119              		.loc 8 21 5 is_stmt 1 view .LVU14
 120              	.LBB845:
 121              	.LBI845:
 122              		.file 9 "../../libdaisy/src/hid/switch.h"
   1:../../libdaisy/src/hid/switch.h **** #pragma once
   2:../../libdaisy/src/hid/switch.h **** #ifndef DSY_SWITCH_H
   3:../../libdaisy/src/hid/switch.h **** #define DSY_SWITCH_H
   4:../../libdaisy/src/hid/switch.h **** #include "daisy_core.h"
   5:../../libdaisy/src/hid/switch.h **** #include "per/gpio.h"
   6:../../libdaisy/src/hid/switch.h **** 
   7:../../libdaisy/src/hid/switch.h **** namespace daisy
   8:../../libdaisy/src/hid/switch.h **** {
   9:../../libdaisy/src/hid/switch.h **** /** 
  10:../../libdaisy/src/hid/switch.h ****     Generic Class for handling momentary/latching switches \n 
  11:../../libdaisy/src/hid/switch.h ****     Inspired/influenced by Mutable Instruments (pichenettes) Switch classes
  12:../../libdaisy/src/hid/switch.h ****     @author Stephen Hensley
  13:../../libdaisy/src/hid/switch.h ****     @date December 2019
  14:../../libdaisy/src/hid/switch.h ****     @ingroup controls
  15:../../libdaisy/src/hid/switch.h **** */
  16:../../libdaisy/src/hid/switch.h **** class Switch
  17:../../libdaisy/src/hid/switch.h **** {
  18:../../libdaisy/src/hid/switch.h ****   public:
  19:../../libdaisy/src/hid/switch.h ****     /** Specifies the expected behavior of the switch */
  20:../../libdaisy/src/hid/switch.h ****     enum Type
  21:../../libdaisy/src/hid/switch.h ****     {
  22:../../libdaisy/src/hid/switch.h ****         TYPE_TOGGLE,    /**< & */
  23:../../libdaisy/src/hid/switch.h ****         TYPE_MOMENTARY, /**< & */
  24:../../libdaisy/src/hid/switch.h ****     };
  25:../../libdaisy/src/hid/switch.h ****     /** Specifies whether the pressed is HIGH or LOW. */
  26:../../libdaisy/src/hid/switch.h ****     enum Polarity
  27:../../libdaisy/src/hid/switch.h ****     {
  28:../../libdaisy/src/hid/switch.h ****         POLARITY_NORMAL,   /**< & */
  29:../../libdaisy/src/hid/switch.h ****         POLARITY_INVERTED, /**< & */
  30:../../libdaisy/src/hid/switch.h ****     };
  31:../../libdaisy/src/hid/switch.h **** 
  32:../../libdaisy/src/hid/switch.h ****     /** Specifies whether to use built-in Pull Up/Down resistors to hold button at a given state wh
  33:../../libdaisy/src/hid/switch.h ****     enum Pull
  34:../../libdaisy/src/hid/switch.h ****     {
  35:../../libdaisy/src/hid/switch.h ****         PULL_UP,   /**< & */
  36:../../libdaisy/src/hid/switch.h ****         PULL_DOWN, /**< & */
  37:../../libdaisy/src/hid/switch.h ****         PULL_NONE, /**< & */
  38:../../libdaisy/src/hid/switch.h ****     };
  39:../../libdaisy/src/hid/switch.h **** 
  40:../../libdaisy/src/hid/switch.h ****     Switch() {}
  41:../../libdaisy/src/hid/switch.h ****     ~Switch() {}
 123              		.loc 9 41 5 view .LVU15
 124              		.loc 9 41 5 is_stmt 0 view .LVU16
 125              	.LBE845:
 126              	.LBE844:
ARM GAS  /tmp/ccF7J5sE.s 			page 12


 127              	.LBB846:
 128              	.LBI846:
 129              		.file 10 "../../libdaisy/src/daisy_seed.h"
   1:../../libdaisy/src/daisy_seed.h **** #pragma once
   2:../../libdaisy/src/daisy_seed.h **** #ifndef DSY_SEED_H
   3:../../libdaisy/src/daisy_seed.h **** #define DSY_SEED_H
   4:../../libdaisy/src/daisy_seed.h **** 
   5:../../libdaisy/src/daisy_seed.h **** #include "daisy.h"
   6:../../libdaisy/src/daisy_seed.h **** 
   7:../../libdaisy/src/daisy_seed.h **** //Uncomment this out if you're still using the rev2 hardware
   8:../../libdaisy/src/daisy_seed.h **** //#define SEED_REV2
   9:../../libdaisy/src/daisy_seed.h **** 
  10:../../libdaisy/src/daisy_seed.h **** namespace daisy
  11:../../libdaisy/src/daisy_seed.h **** {
  12:../../libdaisy/src/daisy_seed.h **** /**
  13:../../libdaisy/src/daisy_seed.h ****    @brief This is the higher-level interface for the Daisy board. \n 
  14:../../libdaisy/src/daisy_seed.h ****     All basic peripheral configuration/initialization is setup here. \n
  15:../../libdaisy/src/daisy_seed.h **** 
  16:../../libdaisy/src/daisy_seed.h ****    @ingroup boards
  17:../../libdaisy/src/daisy_seed.h **** */
  18:../../libdaisy/src/daisy_seed.h **** class DaisySeed
  19:../../libdaisy/src/daisy_seed.h **** {
  20:../../libdaisy/src/daisy_seed.h ****   public:
  21:../../libdaisy/src/daisy_seed.h ****     DaisySeed() {}
  22:../../libdaisy/src/daisy_seed.h ****     ~DaisySeed() {}
 130              		.loc 10 22 5 is_stmt 1 view .LVU17
 131              	.LBB847:
 132              	.LBI847:
 133              		.file 11 "../../libdaisy/src/sys/system.h"
   1:../../libdaisy/src/sys/system.h **** #ifndef DSY_SYSTEM_H
   2:../../libdaisy/src/sys/system.h **** #define DSY_SYSTEM_H
   3:../../libdaisy/src/sys/system.h **** 
   4:../../libdaisy/src/sys/system.h **** #ifndef UNIT_TEST // for unit tests, a dummy implementation is provided below
   5:../../libdaisy/src/sys/system.h **** 
   6:../../libdaisy/src/sys/system.h **** #include <cstdint>
   7:../../libdaisy/src/sys/system.h **** #include "per/tim.h"
   8:../../libdaisy/src/sys/system.h **** 
   9:../../libdaisy/src/sys/system.h **** namespace daisy
  10:../../libdaisy/src/sys/system.h **** {
  11:../../libdaisy/src/sys/system.h **** /** A handle for interacting with the Core System. 
  12:../../libdaisy/src/sys/system.h ****  ** This includes the Clock tree, MPU, global DMA initialization,
  13:../../libdaisy/src/sys/system.h ****  ** cache handling, and any other necessary global initiailzation
  14:../../libdaisy/src/sys/system.h ****  **
  15:../../libdaisy/src/sys/system.h ****  ** @author shensley
  16:../../libdaisy/src/sys/system.h ****  ** @addtogroup system
  17:../../libdaisy/src/sys/system.h ****  */
  18:../../libdaisy/src/sys/system.h **** class System
  19:../../libdaisy/src/sys/system.h **** {
  20:../../libdaisy/src/sys/system.h ****   public:
  21:../../libdaisy/src/sys/system.h ****     /** Contains settings for initializing the System */
  22:../../libdaisy/src/sys/system.h ****     struct Config
  23:../../libdaisy/src/sys/system.h ****     {
  24:../../libdaisy/src/sys/system.h ****         /** Specifies the system clock frequency that feeds APB/AHB clocks, etc. */
  25:../../libdaisy/src/sys/system.h ****         enum class SysClkFreq
  26:../../libdaisy/src/sys/system.h ****         {
  27:../../libdaisy/src/sys/system.h ****             FREQ_400MHZ,
  28:../../libdaisy/src/sys/system.h ****             FREQ_480MHZ,
ARM GAS  /tmp/ccF7J5sE.s 			page 13


  29:../../libdaisy/src/sys/system.h ****         };
  30:../../libdaisy/src/sys/system.h **** 
  31:../../libdaisy/src/sys/system.h ****         /** Method to call on the struct to set to defaults
  32:../../libdaisy/src/sys/system.h ****          ** CPU Freq set to 400MHz
  33:../../libdaisy/src/sys/system.h ****          ** Cache Enabled 
  34:../../libdaisy/src/sys/system.h ****          ** */
  35:../../libdaisy/src/sys/system.h ****         void Defaults()
  36:../../libdaisy/src/sys/system.h ****         {
  37:../../libdaisy/src/sys/system.h ****             cpu_freq   = SysClkFreq::FREQ_400MHZ;
  38:../../libdaisy/src/sys/system.h ****             use_dcache = true;
  39:../../libdaisy/src/sys/system.h ****             use_icache = true;
  40:../../libdaisy/src/sys/system.h ****         }
  41:../../libdaisy/src/sys/system.h **** 
  42:../../libdaisy/src/sys/system.h ****         /** Method to call on the struct to set to boost mode:
  43:../../libdaisy/src/sys/system.h ****          ** CPU Freq set to 480MHz
  44:../../libdaisy/src/sys/system.h ****          ** Cache Enabled 
  45:../../libdaisy/src/sys/system.h ****          ** */
  46:../../libdaisy/src/sys/system.h ****         void Boost()
  47:../../libdaisy/src/sys/system.h ****         {
  48:../../libdaisy/src/sys/system.h ****             cpu_freq   = SysClkFreq::FREQ_480MHZ;
  49:../../libdaisy/src/sys/system.h ****             use_dcache = true;
  50:../../libdaisy/src/sys/system.h ****             use_icache = true;
  51:../../libdaisy/src/sys/system.h ****         }
  52:../../libdaisy/src/sys/system.h **** 
  53:../../libdaisy/src/sys/system.h ****         SysClkFreq cpu_freq;
  54:../../libdaisy/src/sys/system.h ****         bool       use_dcache;
  55:../../libdaisy/src/sys/system.h ****         bool       use_icache;
  56:../../libdaisy/src/sys/system.h ****     };
  57:../../libdaisy/src/sys/system.h **** 
  58:../../libdaisy/src/sys/system.h ****     System() {}
  59:../../libdaisy/src/sys/system.h ****     ~System() {}
 134              		.loc 11 59 5 view .LVU18
 135              		.loc 11 59 5 is_stmt 0 view .LVU19
 136              	.LBE847:
 137              	.LBB848:
 138              	.LBI848:
 139              		.file 12 "../../libdaisy/src/hid/usb.h"
   1:../../libdaisy/src/hid/usb.h **** #pragma once
   2:../../libdaisy/src/hid/usb.h **** #ifndef DSY_HID_USB_H
   3:../../libdaisy/src/hid/usb.h **** #define DSY_HID_USB_H
   4:../../libdaisy/src/hid/usb.h **** #include <stdint.h>
   5:../../libdaisy/src/hid/usb.h **** #include <stdlib.h>
   6:../../libdaisy/src/hid/usb.h **** 
   7:../../libdaisy/src/hid/usb.h **** namespace daisy
   8:../../libdaisy/src/hid/usb.h **** /** @addtogroup externals
   9:../../libdaisy/src/hid/usb.h ****     @{
  10:../../libdaisy/src/hid/usb.h **** */
  11:../../libdaisy/src/hid/usb.h **** 
  12:../../libdaisy/src/hid/usb.h **** {
  13:../../libdaisy/src/hid/usb.h **** /** 
  14:../../libdaisy/src/hid/usb.h ****     @brief Interface for initializing and using the USB Peripherals on the daisy
  15:../../libdaisy/src/hid/usb.h ****     @author Stephen Hensley
  16:../../libdaisy/src/hid/usb.h ****     @date December 2019
  17:../../libdaisy/src/hid/usb.h **** */
  18:../../libdaisy/src/hid/usb.h **** class UsbHandle
  19:../../libdaisy/src/hid/usb.h **** {
  20:../../libdaisy/src/hid/usb.h ****   public:
ARM GAS  /tmp/ccF7J5sE.s 			page 14


  21:../../libdaisy/src/hid/usb.h ****     /** Return values for USBHandle Functions */
  22:../../libdaisy/src/hid/usb.h ****     enum class Result
  23:../../libdaisy/src/hid/usb.h ****     {
  24:../../libdaisy/src/hid/usb.h ****         OK,
  25:../../libdaisy/src/hid/usb.h ****         ERR,
  26:../../libdaisy/src/hid/usb.h ****     };
  27:../../libdaisy/src/hid/usb.h **** 
  28:../../libdaisy/src/hid/usb.h ****     /** Specified which of the two USB Peripherals to initialize. */
  29:../../libdaisy/src/hid/usb.h ****     enum UsbPeriph
  30:../../libdaisy/src/hid/usb.h ****     {
  31:../../libdaisy/src/hid/usb.h ****         FS_INTERNAL, /**< Internal pin */
  32:../../libdaisy/src/hid/usb.h ****         FS_EXTERNAL, /**< FS External D+ pin is Pin 38 (GPIO32). FS External D- pin is Pin 37 (GPIO
  33:../../libdaisy/src/hid/usb.h ****         FS_BOTH,     /**< Both */
  34:../../libdaisy/src/hid/usb.h ****     };
  35:../../libdaisy/src/hid/usb.h **** 
  36:../../libdaisy/src/hid/usb.h **** 
  37:../../libdaisy/src/hid/usb.h ****     /** Function called upon reception of a buffer */
  38:../../libdaisy/src/hid/usb.h ****     typedef void (*ReceiveCallback)(uint8_t* buff, uint32_t* len);
  39:../../libdaisy/src/hid/usb.h **** 
  40:../../libdaisy/src/hid/usb.h ****     UsbHandle() {}
  41:../../libdaisy/src/hid/usb.h **** 
  42:../../libdaisy/src/hid/usb.h ****     ~UsbHandle() {}
 140              		.loc 12 42 5 is_stmt 1 view .LVU20
 141              		.loc 12 42 5 is_stmt 0 view .LVU21
 142              	.LBE848:
 143              	.LBB849:
 144              	.LBI849:
 145              		.file 13 "../../libdaisy/src/per/adc.h"
   1:../../libdaisy/src/per/adc.h **** #pragma once
   2:../../libdaisy/src/per/adc.h **** #ifndef DSY_ADC_H
   3:../../libdaisy/src/per/adc.h **** #define DSY_ADC_H /**< Macro */
   4:../../libdaisy/src/per/adc.h **** #include <stdint.h>
   5:../../libdaisy/src/per/adc.h **** #include <stdlib.h>
   6:../../libdaisy/src/per/adc.h **** #include "daisy_core.h"
   7:../../libdaisy/src/per/adc.h **** #include "per/gpio.h"
   8:../../libdaisy/src/per/adc.h **** 
   9:../../libdaisy/src/per/adc.h **** #define DSY_ADC_MAX_CHANNELS 14 /**< Maximum number of ADC channels */
  10:../../libdaisy/src/per/adc.h **** 
  11:../../libdaisy/src/per/adc.h **** namespace daisy
  12:../../libdaisy/src/per/adc.h **** {
  13:../../libdaisy/src/per/adc.h **** /** @addtogroup analog_digital_conversion
  14:../../libdaisy/src/per/adc.h ****     @{
  15:../../libdaisy/src/per/adc.h **** */
  16:../../libdaisy/src/per/adc.h **** 
  17:../../libdaisy/src/per/adc.h **** /* While there may not be many configuration options here,
  18:../../libdaisy/src/per/adc.h **** using a struct like this allows us to add more configuration
  19:../../libdaisy/src/per/adc.h **** later without breaking existing functionality.
  20:../../libdaisy/src/per/adc.h **** */
  21:../../libdaisy/src/per/adc.h **** 
  22:../../libdaisy/src/per/adc.h **** /** Configuration Structure for a given channel */
  23:../../libdaisy/src/per/adc.h **** struct AdcChannelConfig
  24:../../libdaisy/src/per/adc.h **** {
  25:../../libdaisy/src/per/adc.h ****     /** Which pin to use for multiplexing */
  26:../../libdaisy/src/per/adc.h ****     enum MuxPin
  27:../../libdaisy/src/per/adc.h ****     {
  28:../../libdaisy/src/per/adc.h ****         MUX_SEL_0,    /**< & */
  29:../../libdaisy/src/per/adc.h ****         MUX_SEL_1,    /**< & */
ARM GAS  /tmp/ccF7J5sE.s 			page 15


  30:../../libdaisy/src/per/adc.h ****         MUX_SEL_2,    /**< & */
  31:../../libdaisy/src/per/adc.h ****         MUX_SEL_LAST, /**< & */
  32:../../libdaisy/src/per/adc.h ****     };
  33:../../libdaisy/src/per/adc.h **** 
  34:../../libdaisy/src/per/adc.h ****     /** Initializes a single ADC pin as an ADC. 
  35:../../libdaisy/src/per/adc.h ****     \param pin Pin to init.
  36:../../libdaisy/src/per/adc.h ****      */
  37:../../libdaisy/src/per/adc.h ****     void InitSingle(dsy_gpio_pin pin);
  38:../../libdaisy/src/per/adc.h **** 
  39:../../libdaisy/src/per/adc.h ****     /** 
  40:../../libdaisy/src/per/adc.h ****     Initializes a single ADC pin as a Multiplexed ADC.
  41:../../libdaisy/src/per/adc.h ****     Requires a CD405X Multiplexer connected to the pin.
  42:../../libdaisy/src/per/adc.h ****     You only need to supply the mux pins that are required,
  43:../../libdaisy/src/per/adc.h ****     e.g. a 4052 mux would only require mux_0 and mux_1.
  44:../../libdaisy/src/per/adc.h ****     Internal Callbacks handle the pin addressing.
  45:../../libdaisy/src/per/adc.h ****     \param mux_channels must be 1-8
  46:../../libdaisy/src/per/adc.h ****     \param mux_0 First mux pin
  47:../../libdaisy/src/per/adc.h ****     \param mux_1 Second mux pin
  48:../../libdaisy/src/per/adc.h ****     \param mux_2 Third mux pin
  49:../../libdaisy/src/per/adc.h ****     \param adc_pin &
  50:../../libdaisy/src/per/adc.h ****     */
  51:../../libdaisy/src/per/adc.h ****     void InitMux(dsy_gpio_pin adc_pin,
  52:../../libdaisy/src/per/adc.h ****                  size_t       mux_channels,
  53:../../libdaisy/src/per/adc.h ****                  dsy_gpio_pin mux_0,
  54:../../libdaisy/src/per/adc.h ****                  dsy_gpio_pin mux_1 = {DSY_GPIOX, 0},
  55:../../libdaisy/src/per/adc.h ****                  dsy_gpio_pin mux_2 = {DSY_GPIOX, 0});
  56:../../libdaisy/src/per/adc.h **** 
  57:../../libdaisy/src/per/adc.h ****     dsy_gpio pin_;                   /**< & */
  58:../../libdaisy/src/per/adc.h ****     dsy_gpio mux_pin_[MUX_SEL_LAST]; /**< & */
  59:../../libdaisy/src/per/adc.h ****     uint8_t  mux_channels_;          /**< & */
  60:../../libdaisy/src/per/adc.h **** };
  61:../../libdaisy/src/per/adc.h **** 
  62:../../libdaisy/src/per/adc.h **** /**
  63:../../libdaisy/src/per/adc.h ****    Handler for analog to digital conversion
  64:../../libdaisy/src/per/adc.h **** */
  65:../../libdaisy/src/per/adc.h **** class AdcHandle
  66:../../libdaisy/src/per/adc.h **** {
  67:../../libdaisy/src/per/adc.h ****   public:
  68:../../libdaisy/src/per/adc.h ****     /** Supported oversampling amounts */
  69:../../libdaisy/src/per/adc.h ****     enum OverSampling
  70:../../libdaisy/src/per/adc.h ****     {
  71:../../libdaisy/src/per/adc.h ****         OVS_NONE, /**< & */
  72:../../libdaisy/src/per/adc.h ****         OVS_4,    /**< & */
  73:../../libdaisy/src/per/adc.h ****         OVS_8,    /**< & */
  74:../../libdaisy/src/per/adc.h ****         OVS_16,   /**< & */
  75:../../libdaisy/src/per/adc.h ****         OVS_32,   /**< & */
  76:../../libdaisy/src/per/adc.h ****         OVS_64,   /**< & */
  77:../../libdaisy/src/per/adc.h ****         OVS_128,  /**< & */
  78:../../libdaisy/src/per/adc.h ****         OVS_256,  /**< & */
  79:../../libdaisy/src/per/adc.h ****         OVS_512,  /**< & */
  80:../../libdaisy/src/per/adc.h ****         OVS_1024, /**< & */
  81:../../libdaisy/src/per/adc.h ****         OVS_LAST, /**< & */
  82:../../libdaisy/src/per/adc.h ****     };
  83:../../libdaisy/src/per/adc.h **** 
  84:../../libdaisy/src/per/adc.h ****     AdcHandle() {}
  85:../../libdaisy/src/per/adc.h ****     ~AdcHandle() {}
 146              		.loc 13 85 5 is_stmt 1 view .LVU22
ARM GAS  /tmp/ccF7J5sE.s 			page 16


 147              		.loc 13 85 5 is_stmt 0 view .LVU23
 148              	.LBE849:
 149              	.LBB850:
 150              	.LBI850:
 151              		.file 14 "../../libdaisy/src/hid/audio.h"
   1:../../libdaisy/src/hid/audio.h **** #ifndef DSY_AUDIO_H
   2:../../libdaisy/src/hid/audio.h **** #define DSY_AUDIO_H /**< & */
   3:../../libdaisy/src/hid/audio.h **** 
   4:../../libdaisy/src/hid/audio.h **** #include "per/sai.h"
   5:../../libdaisy/src/hid/audio.h **** 
   6:../../libdaisy/src/hid/audio.h **** namespace daisy
   7:../../libdaisy/src/hid/audio.h **** {
   8:../../libdaisy/src/hid/audio.h **** class AudioHandle
   9:../../libdaisy/src/hid/audio.h **** {
  10:../../libdaisy/src/hid/audio.h ****   public:
  11:../../libdaisy/src/hid/audio.h ****     /** Manually configurable details about the Audio Engine */
  12:../../libdaisy/src/hid/audio.h ****     /** TODO: Figure out how to get samplerate in here. */
  13:../../libdaisy/src/hid/audio.h ****     struct Config
  14:../../libdaisy/src/hid/audio.h ****     {
  15:../../libdaisy/src/hid/audio.h ****         size_t                        blocksize;
  16:../../libdaisy/src/hid/audio.h ****         SaiHandle::Config::SampleRate samplerate;
  17:../../libdaisy/src/hid/audio.h ****         float                         postgain;
  18:../../libdaisy/src/hid/audio.h ****     };
  19:../../libdaisy/src/hid/audio.h **** 
  20:../../libdaisy/src/hid/audio.h ****     enum class Result
  21:../../libdaisy/src/hid/audio.h ****     {
  22:../../libdaisy/src/hid/audio.h ****         OK,
  23:../../libdaisy/src/hid/audio.h ****         ERR,
  24:../../libdaisy/src/hid/audio.h ****     };
  25:../../libdaisy/src/hid/audio.h **** 
  26:../../libdaisy/src/hid/audio.h ****     /** Non-Interleaving input buffer
  27:../../libdaisy/src/hid/audio.h ****      * Buffer arranged by float[chn][sample] 
  28:../../libdaisy/src/hid/audio.h ****      * const so that the user can't modify the input
  29:../../libdaisy/src/hid/audio.h ****     */
  30:../../libdaisy/src/hid/audio.h ****     typedef const float* const* InputBuffer;
  31:../../libdaisy/src/hid/audio.h **** 
  32:../../libdaisy/src/hid/audio.h ****     /** Non-Interleaving output buffer
  33:../../libdaisy/src/hid/audio.h ****      * Arranged by float[chn][sample] 
  34:../../libdaisy/src/hid/audio.h ****     */
  35:../../libdaisy/src/hid/audio.h ****     typedef float** OutputBuffer;
  36:../../libdaisy/src/hid/audio.h **** 
  37:../../libdaisy/src/hid/audio.h ****     /** Type for a Non-Interleaving audio callback 
  38:../../libdaisy/src/hid/audio.h ****    * Non-Interleaving audio callbacks in daisy will be of this type
  39:../../libdaisy/src/hid/audio.h ****   */
  40:../../libdaisy/src/hid/audio.h ****     typedef void (*AudioCallback)(InputBuffer  in,
  41:../../libdaisy/src/hid/audio.h ****                                   OutputBuffer out,
  42:../../libdaisy/src/hid/audio.h ****                                   size_t       size);
  43:../../libdaisy/src/hid/audio.h **** 
  44:../../libdaisy/src/hid/audio.h ****     /** Interleaving Input buffer
  45:../../libdaisy/src/hid/audio.h ****      ** audio is prepared as { L0, R0, L1, R1, . . . LN, RN }]
  46:../../libdaisy/src/hid/audio.h ****      ** this is const, as the user shouldn't modify it
  47:../../libdaisy/src/hid/audio.h ****     */
  48:../../libdaisy/src/hid/audio.h ****     typedef const float* InterleavingInputBuffer;
  49:../../libdaisy/src/hid/audio.h **** 
  50:../../libdaisy/src/hid/audio.h ****     /** Interleaving Output buffer 
  51:../../libdaisy/src/hid/audio.h ****      ** audio is prepared as { L0, R0, L1, R1, . . . LN, RN }
  52:../../libdaisy/src/hid/audio.h ****     */
ARM GAS  /tmp/ccF7J5sE.s 			page 17


  53:../../libdaisy/src/hid/audio.h ****     typedef float* InterleavingOutputBuffer;
  54:../../libdaisy/src/hid/audio.h **** 
  55:../../libdaisy/src/hid/audio.h ****     /** Interleaving Audio Callback 
  56:../../libdaisy/src/hid/audio.h ****    * Interleaving audio callbacks in daisy must be of this type
  57:../../libdaisy/src/hid/audio.h ****   */
  58:../../libdaisy/src/hid/audio.h ****     typedef void (*InterleavingAudioCallback)(InterleavingInputBuffer  in,
  59:../../libdaisy/src/hid/audio.h ****                                               InterleavingOutputBuffer out,
  60:../../libdaisy/src/hid/audio.h ****                                               size_t                   size);
  61:../../libdaisy/src/hid/audio.h **** 
  62:../../libdaisy/src/hid/audio.h ****     AudioHandle() : pimpl_(nullptr) {}
  63:../../libdaisy/src/hid/audio.h ****     ~AudioHandle() {}
 152              		.loc 14 63 5 is_stmt 1 view .LVU24
 153              		.loc 14 63 5 is_stmt 0 view .LVU25
 154              	.LBE850:
 155              	.LBE846:
 156              		.loc 4 41 20 view .LVU26
 157 0000 7047     		bx	lr
 158              		.cfi_endproc
 159              	.LFE4230:
 161              		.weak	_ZN5daisy10DaisyPatchD1Ev
 162              		.thumb_set _ZN5daisy10DaisyPatchD1Ev,_ZN5daisy10DaisyPatchD2Ev
 163 0002 00BF     		.section	.text._ZN5daisy11OledDisplayINS_13SSD130xDriverILj128ELj64ENS_24SSD130x4WireSpiTransportE
 164              		.align	1
 165              		.p2align 2,,3
 166              		.weak	_ZN5daisy11OledDisplayINS_13SSD130xDriverILj128ELj64ENS_24SSD130x4WireSpiTransportEEEED2Ev
 167              		.syntax unified
 168              		.thumb
 169              		.thumb_func
 170              		.fpu fpv5-d16
 172              	_ZN5daisy11OledDisplayINS_13SSD130xDriverILj128ELj64ENS_24SSD130x4WireSpiTransportEEEED2Ev:
 173              	.LVL3:
 174              	.LFB4553:
 175              		.loc 5 17 13 is_stmt 1 view -0
 176              		.cfi_startproc
 177              		@ args = 0, pretend = 0, frame = 0
 178              		@ frame_needed = 0, uses_anonymous_args = 0
 179              		@ link register save eliminated.
 180              	.LBB851:
 181              	.LBI851:
 182              		.loc 6 219 13 view .LVU28
 183              	.LBB852:
 184              	.LBI852:
  23:../../libdaisy/src/hid/disp/display.h **** 
 185              		.loc 6 23 13 view .LVU29
  23:../../libdaisy/src/hid/disp/display.h **** 
 186              		.loc 6 23 13 is_stmt 0 view .LVU30
 187              	.LBE852:
 188              	.LBE851:
 189              		.loc 5 17 29 view .LVU31
 190 0000 7047     		bx	lr
 191              		.cfi_endproc
 192              	.LFE4553:
 194              		.weak	_ZN5daisy11OledDisplayINS_13SSD130xDriverILj128ELj64ENS_24SSD130x4WireSpiTransportEEEED1Ev
 195              		.thumb_set _ZN5daisy11OledDisplayINS_13SSD130xDriverILj128ELj64ENS_24SSD130x4WireSpiTransportEEEED
 196 0002 00BF     		.section	.text._ZN5daisy11OledDisplayINS_13SSD130xDriverILj128ELj64ENS_24SSD130x4WireSpiTransportE
 197              		.align	1
 198              		.p2align 2,,3
ARM GAS  /tmp/ccF7J5sE.s 			page 18


 199              		.weak	_ZN5daisy11OledDisplayINS_13SSD130xDriverILj128ELj64ENS_24SSD130x4WireSpiTransportEEEE4FillE
 200              		.syntax unified
 201              		.thumb
 202              		.thumb_func
 203              		.fpu fpv5-d16
 205              	_ZN5daisy11OledDisplayINS_13SSD130xDriverILj128ELj64ENS_24SSD130x4WireSpiTransportEEEE4FillEb:
 206              	.LVL4:
 207              	.LFB4556:
  18:../../libdaisy/src/hid/disp/oled_display.h **** 
  19:../../libdaisy/src/hid/disp/oled_display.h ****     struct Config
  20:../../libdaisy/src/hid/disp/oled_display.h ****     {
  21:../../libdaisy/src/hid/disp/oled_display.h ****         typename DisplayDriver::Config driver_config;
  22:../../libdaisy/src/hid/disp/oled_display.h ****     };
  23:../../libdaisy/src/hid/disp/oled_display.h **** 
  24:../../libdaisy/src/hid/disp/oled_display.h ****     void Init(Config config) { driver_.Init(config.driver_config); }
  25:../../libdaisy/src/hid/disp/oled_display.h **** 
  26:../../libdaisy/src/hid/disp/oled_display.h ****     uint16_t Height() const override { return driver_.Height(); }
  27:../../libdaisy/src/hid/disp/oled_display.h ****     uint16_t Width() const override { return driver_.Width(); }
  28:../../libdaisy/src/hid/disp/oled_display.h **** 
  29:../../libdaisy/src/hid/disp/oled_display.h ****     /** 
  30:../../libdaisy/src/hid/disp/oled_display.h ****     Fills the entire display with either on/off.
  31:../../libdaisy/src/hid/disp/oled_display.h ****     \param on Sets on or off.
  32:../../libdaisy/src/hid/disp/oled_display.h ****     */
  33:../../libdaisy/src/hid/disp/oled_display.h ****     void Fill(bool on) override { driver_.Fill(on); }
 208              		.loc 5 33 10 is_stmt 1 view -0
 209              		.cfi_startproc
 210              		@ args = 0, pretend = 0, frame = 0
 211              		@ frame_needed = 0, uses_anonymous_args = 0
 212              		@ link register save eliminated.
 213              	.LBB853:
 214              	.LBI853:
 215              		.file 15 "../../libdaisy/src/dev/oled_ssd130x.h"
   1:../../libdaisy/src/dev/oled_ssd130x.h **** #pragma once
   2:../../libdaisy/src/dev/oled_ssd130x.h **** #ifndef SA_OLED_SSD130X_H
   3:../../libdaisy/src/dev/oled_ssd130x.h **** #define SA_OLED_SSD130X_H /**< & */
   4:../../libdaisy/src/dev/oled_ssd130x.h **** 
   5:../../libdaisy/src/dev/oled_ssd130x.h **** #include "per/i2c.h"
   6:../../libdaisy/src/dev/oled_ssd130x.h **** #include "per/spi.h"
   7:../../libdaisy/src/dev/oled_ssd130x.h **** #include "per/gpio.h"
   8:../../libdaisy/src/dev/oled_ssd130x.h **** #include "sys/system.h"
   9:../../libdaisy/src/dev/oled_ssd130x.h **** 
  10:../../libdaisy/src/dev/oled_ssd130x.h **** namespace daisy
  11:../../libdaisy/src/dev/oled_ssd130x.h **** {
  12:../../libdaisy/src/dev/oled_ssd130x.h **** /**
  13:../../libdaisy/src/dev/oled_ssd130x.h ****  * I2C Transport for SSD1306 / SSD1309 OLED display devices
  14:../../libdaisy/src/dev/oled_ssd130x.h ****  */
  15:../../libdaisy/src/dev/oled_ssd130x.h **** class SSD130xI2CTransport
  16:../../libdaisy/src/dev/oled_ssd130x.h **** {
  17:../../libdaisy/src/dev/oled_ssd130x.h ****   public:
  18:../../libdaisy/src/dev/oled_ssd130x.h ****     struct Config
  19:../../libdaisy/src/dev/oled_ssd130x.h ****     {
  20:../../libdaisy/src/dev/oled_ssd130x.h ****         I2CHandle::Config i2c_config;
  21:../../libdaisy/src/dev/oled_ssd130x.h ****         uint8_t           i2c_address;
  22:../../libdaisy/src/dev/oled_ssd130x.h ****         void              Defaults()
  23:../../libdaisy/src/dev/oled_ssd130x.h ****         {
  24:../../libdaisy/src/dev/oled_ssd130x.h ****             i2c_config.periph         = I2CHandle::Config::Peripheral::I2C_1;
  25:../../libdaisy/src/dev/oled_ssd130x.h ****             i2c_config.speed          = I2CHandle::Config::Speed::I2C_1MHZ;
ARM GAS  /tmp/ccF7J5sE.s 			page 19


  26:../../libdaisy/src/dev/oled_ssd130x.h ****             i2c_config.mode           = I2CHandle::Config::Mode::I2C_MASTER;
  27:../../libdaisy/src/dev/oled_ssd130x.h ****             i2c_config.pin_config.scl = {DSY_GPIOB, 8};
  28:../../libdaisy/src/dev/oled_ssd130x.h ****             i2c_config.pin_config.sda = {DSY_GPIOB, 9};
  29:../../libdaisy/src/dev/oled_ssd130x.h ****             i2c_address               = 0x3C;
  30:../../libdaisy/src/dev/oled_ssd130x.h ****         }
  31:../../libdaisy/src/dev/oled_ssd130x.h ****     };
  32:../../libdaisy/src/dev/oled_ssd130x.h ****     void Init(const Config& config)
  33:../../libdaisy/src/dev/oled_ssd130x.h ****     {
  34:../../libdaisy/src/dev/oled_ssd130x.h ****         i2c_address_ = config.i2c_address;
  35:../../libdaisy/src/dev/oled_ssd130x.h ****         i2c_.Init(config.i2c_config);
  36:../../libdaisy/src/dev/oled_ssd130x.h ****     };
  37:../../libdaisy/src/dev/oled_ssd130x.h ****     void SendCommand(uint8_t cmd)
  38:../../libdaisy/src/dev/oled_ssd130x.h ****     {
  39:../../libdaisy/src/dev/oled_ssd130x.h ****         uint8_t buf[2] = {0X00, cmd};
  40:../../libdaisy/src/dev/oled_ssd130x.h ****         i2c_.TransmitBlocking(i2c_address_, buf, 2, 1000);
  41:../../libdaisy/src/dev/oled_ssd130x.h ****     };
  42:../../libdaisy/src/dev/oled_ssd130x.h **** 
  43:../../libdaisy/src/dev/oled_ssd130x.h ****     void SendData(uint8_t* buff, size_t size)
  44:../../libdaisy/src/dev/oled_ssd130x.h ****     {
  45:../../libdaisy/src/dev/oled_ssd130x.h ****         for(size_t i = 0; i < size; i++)
  46:../../libdaisy/src/dev/oled_ssd130x.h ****         {
  47:../../libdaisy/src/dev/oled_ssd130x.h ****             uint8_t buf[2] = {0X40, buff[i]};
  48:../../libdaisy/src/dev/oled_ssd130x.h ****             i2c_.TransmitBlocking(i2c_address_, buf, 2, 1000);
  49:../../libdaisy/src/dev/oled_ssd130x.h ****         }
  50:../../libdaisy/src/dev/oled_ssd130x.h ****     };
  51:../../libdaisy/src/dev/oled_ssd130x.h **** 
  52:../../libdaisy/src/dev/oled_ssd130x.h ****   private:
  53:../../libdaisy/src/dev/oled_ssd130x.h ****     daisy::I2CHandle i2c_;
  54:../../libdaisy/src/dev/oled_ssd130x.h ****     uint8_t          i2c_address_;
  55:../../libdaisy/src/dev/oled_ssd130x.h **** };
  56:../../libdaisy/src/dev/oled_ssd130x.h **** 
  57:../../libdaisy/src/dev/oled_ssd130x.h **** /**
  58:../../libdaisy/src/dev/oled_ssd130x.h ****  * 4 Wire SPI Transport for SSD1306 / SSD1309 OLED display devices
  59:../../libdaisy/src/dev/oled_ssd130x.h ****  */
  60:../../libdaisy/src/dev/oled_ssd130x.h **** class SSD130x4WireSpiTransport
  61:../../libdaisy/src/dev/oled_ssd130x.h **** {
  62:../../libdaisy/src/dev/oled_ssd130x.h ****   public:
  63:../../libdaisy/src/dev/oled_ssd130x.h ****     struct Config
  64:../../libdaisy/src/dev/oled_ssd130x.h ****     {
  65:../../libdaisy/src/dev/oled_ssd130x.h ****         struct
  66:../../libdaisy/src/dev/oled_ssd130x.h ****         {
  67:../../libdaisy/src/dev/oled_ssd130x.h ****             dsy_gpio_pin dc;    /**< & */
  68:../../libdaisy/src/dev/oled_ssd130x.h ****             dsy_gpio_pin reset; /**< & */
  69:../../libdaisy/src/dev/oled_ssd130x.h ****         } pin_config;
  70:../../libdaisy/src/dev/oled_ssd130x.h ****         void Defaults()
  71:../../libdaisy/src/dev/oled_ssd130x.h ****         {
  72:../../libdaisy/src/dev/oled_ssd130x.h ****             pin_config.dc    = {DSY_GPIOB, 4};
  73:../../libdaisy/src/dev/oled_ssd130x.h ****             pin_config.reset = {DSY_GPIOB, 15};
  74:../../libdaisy/src/dev/oled_ssd130x.h ****         }
  75:../../libdaisy/src/dev/oled_ssd130x.h ****     };
  76:../../libdaisy/src/dev/oled_ssd130x.h ****     void Init(const Config& config)
  77:../../libdaisy/src/dev/oled_ssd130x.h ****     {
  78:../../libdaisy/src/dev/oled_ssd130x.h ****         // Initialize both GPIO
  79:../../libdaisy/src/dev/oled_ssd130x.h ****         pin_dc_.mode = DSY_GPIO_MODE_OUTPUT_PP;
  80:../../libdaisy/src/dev/oled_ssd130x.h ****         pin_dc_.pin  = config.pin_config.dc;
  81:../../libdaisy/src/dev/oled_ssd130x.h ****         dsy_gpio_init(&pin_dc_);
  82:../../libdaisy/src/dev/oled_ssd130x.h ****         pin_reset_.mode = DSY_GPIO_MODE_OUTPUT_PP;
ARM GAS  /tmp/ccF7J5sE.s 			page 20


  83:../../libdaisy/src/dev/oled_ssd130x.h ****         pin_reset_.pin  = config.pin_config.reset;
  84:../../libdaisy/src/dev/oled_ssd130x.h ****         dsy_gpio_init(&pin_reset_);
  85:../../libdaisy/src/dev/oled_ssd130x.h ****         // Initialize SPI
  86:../../libdaisy/src/dev/oled_ssd130x.h ****         SpiHandle::Config spi_config;
  87:../../libdaisy/src/dev/oled_ssd130x.h ****         spi_config.periph    = SpiHandle::Config::Peripheral::SPI_1;
  88:../../libdaisy/src/dev/oled_ssd130x.h ****         spi_config.mode      = SpiHandle::Config::Mode::MASTER;
  89:../../libdaisy/src/dev/oled_ssd130x.h ****         spi_config.direction = SpiHandle::Config::Direction::TWO_LINES_TX_ONLY;
  90:../../libdaisy/src/dev/oled_ssd130x.h ****         spi_config.datasize  = 8;
  91:../../libdaisy/src/dev/oled_ssd130x.h ****         spi_config.clock_polarity = SpiHandle::Config::ClockPolarity::LOW;
  92:../../libdaisy/src/dev/oled_ssd130x.h ****         spi_config.clock_phase    = SpiHandle::Config::ClockPhase::ONE_EDGE;
  93:../../libdaisy/src/dev/oled_ssd130x.h ****         spi_config.nss            = SpiHandle::Config::NSS::HARD_OUTPUT;
  94:../../libdaisy/src/dev/oled_ssd130x.h ****         spi_config.baud_prescaler = SpiHandle::Config::BaudPrescaler::PS_8;
  95:../../libdaisy/src/dev/oled_ssd130x.h **** 
  96:../../libdaisy/src/dev/oled_ssd130x.h ****         spi_config.pin_config.sclk = {DSY_GPIOG, 11};
  97:../../libdaisy/src/dev/oled_ssd130x.h ****         spi_config.pin_config.miso = {DSY_GPIOX, 0};
  98:../../libdaisy/src/dev/oled_ssd130x.h ****         spi_config.pin_config.mosi = {DSY_GPIOB, 5};
  99:../../libdaisy/src/dev/oled_ssd130x.h ****         spi_config.pin_config.nss  = {DSY_GPIOG, 10};
 100:../../libdaisy/src/dev/oled_ssd130x.h **** 
 101:../../libdaisy/src/dev/oled_ssd130x.h ****         spi_.Init(spi_config);
 102:../../libdaisy/src/dev/oled_ssd130x.h **** 
 103:../../libdaisy/src/dev/oled_ssd130x.h ****         // Reset and Configure OLED.
 104:../../libdaisy/src/dev/oled_ssd130x.h ****         dsy_gpio_write(&pin_reset_, 0);
 105:../../libdaisy/src/dev/oled_ssd130x.h ****         System::Delay(10);
 106:../../libdaisy/src/dev/oled_ssd130x.h ****         dsy_gpio_write(&pin_reset_, 1);
 107:../../libdaisy/src/dev/oled_ssd130x.h ****         System::Delay(10);
 108:../../libdaisy/src/dev/oled_ssd130x.h ****     };
 109:../../libdaisy/src/dev/oled_ssd130x.h ****     void SendCommand(uint8_t cmd)
 110:../../libdaisy/src/dev/oled_ssd130x.h ****     {
 111:../../libdaisy/src/dev/oled_ssd130x.h ****         dsy_gpio_write(&pin_dc_, 0);
 112:../../libdaisy/src/dev/oled_ssd130x.h ****         spi_.BlockingTransmit(&cmd, 1);
 113:../../libdaisy/src/dev/oled_ssd130x.h ****     };
 114:../../libdaisy/src/dev/oled_ssd130x.h **** 
 115:../../libdaisy/src/dev/oled_ssd130x.h ****     void SendData(uint8_t* buff, size_t size)
 116:../../libdaisy/src/dev/oled_ssd130x.h ****     {
 117:../../libdaisy/src/dev/oled_ssd130x.h ****         dsy_gpio_write(&pin_dc_, 1);
 118:../../libdaisy/src/dev/oled_ssd130x.h ****         spi_.BlockingTransmit(buff, size);
 119:../../libdaisy/src/dev/oled_ssd130x.h ****     };
 120:../../libdaisy/src/dev/oled_ssd130x.h **** 
 121:../../libdaisy/src/dev/oled_ssd130x.h ****   private:
 122:../../libdaisy/src/dev/oled_ssd130x.h ****     SpiHandle spi_;
 123:../../libdaisy/src/dev/oled_ssd130x.h ****     dsy_gpio  pin_reset_;
 124:../../libdaisy/src/dev/oled_ssd130x.h ****     dsy_gpio  pin_dc_;
 125:../../libdaisy/src/dev/oled_ssd130x.h **** };
 126:../../libdaisy/src/dev/oled_ssd130x.h **** 
 127:../../libdaisy/src/dev/oled_ssd130x.h **** 
 128:../../libdaisy/src/dev/oled_ssd130x.h **** /**
 129:../../libdaisy/src/dev/oled_ssd130x.h ****  * A driver implementation for the SSD1306/SSD1309
 130:../../libdaisy/src/dev/oled_ssd130x.h ****  */
 131:../../libdaisy/src/dev/oled_ssd130x.h **** template <size_t width, size_t height, typename Transport>
 132:../../libdaisy/src/dev/oled_ssd130x.h **** class SSD130xDriver
 133:../../libdaisy/src/dev/oled_ssd130x.h **** {
 134:../../libdaisy/src/dev/oled_ssd130x.h ****   public:
 135:../../libdaisy/src/dev/oled_ssd130x.h ****     struct Config
 136:../../libdaisy/src/dev/oled_ssd130x.h ****     {
 137:../../libdaisy/src/dev/oled_ssd130x.h ****         typename Transport::Config transport_config;
 138:../../libdaisy/src/dev/oled_ssd130x.h ****     };
 139:../../libdaisy/src/dev/oled_ssd130x.h **** 
ARM GAS  /tmp/ccF7J5sE.s 			page 21


 140:../../libdaisy/src/dev/oled_ssd130x.h ****     void Init(Config config)
 141:../../libdaisy/src/dev/oled_ssd130x.h ****     {
 142:../../libdaisy/src/dev/oled_ssd130x.h ****         transport_.Init(config.transport_config);
 143:../../libdaisy/src/dev/oled_ssd130x.h **** 
 144:../../libdaisy/src/dev/oled_ssd130x.h ****         // Init routine...
 145:../../libdaisy/src/dev/oled_ssd130x.h **** 
 146:../../libdaisy/src/dev/oled_ssd130x.h ****         // Display Off
 147:../../libdaisy/src/dev/oled_ssd130x.h ****         transport_.SendCommand(0xaE);
 148:../../libdaisy/src/dev/oled_ssd130x.h ****         // Dimension dependent commands...
 149:../../libdaisy/src/dev/oled_ssd130x.h ****         switch(height)
 150:../../libdaisy/src/dev/oled_ssd130x.h ****         {
 151:../../libdaisy/src/dev/oled_ssd130x.h ****             case 16:
 152:../../libdaisy/src/dev/oled_ssd130x.h ****                 // Display Clock Divide Ratio
 153:../../libdaisy/src/dev/oled_ssd130x.h ****                 transport_.SendCommand(0xD5);
 154:../../libdaisy/src/dev/oled_ssd130x.h ****                 transport_.SendCommand(0x60);
 155:../../libdaisy/src/dev/oled_ssd130x.h ****                 // Multiplex Ratio
 156:../../libdaisy/src/dev/oled_ssd130x.h ****                 transport_.SendCommand(0xA8);
 157:../../libdaisy/src/dev/oled_ssd130x.h ****                 transport_.SendCommand(0x0F);
 158:../../libdaisy/src/dev/oled_ssd130x.h ****                 // COM Pins
 159:../../libdaisy/src/dev/oled_ssd130x.h ****                 transport_.SendCommand(0xDA);
 160:../../libdaisy/src/dev/oled_ssd130x.h ****                 transport_.SendCommand(0x02);
 161:../../libdaisy/src/dev/oled_ssd130x.h ****                 break;
 162:../../libdaisy/src/dev/oled_ssd130x.h ****             case 32:
 163:../../libdaisy/src/dev/oled_ssd130x.h ****                 // Display Clock Divide Ratio
 164:../../libdaisy/src/dev/oled_ssd130x.h ****                 transport_.SendCommand(0xD5);
 165:../../libdaisy/src/dev/oled_ssd130x.h ****                 transport_.SendCommand(0x80);
 166:../../libdaisy/src/dev/oled_ssd130x.h ****                 // Multiplex Ratio
 167:../../libdaisy/src/dev/oled_ssd130x.h ****                 transport_.SendCommand(0xA8);
 168:../../libdaisy/src/dev/oled_ssd130x.h ****                 transport_.SendCommand(0x1F);
 169:../../libdaisy/src/dev/oled_ssd130x.h ****                 // COM Pins
 170:../../libdaisy/src/dev/oled_ssd130x.h ****                 transport_.SendCommand(0xDA);
 171:../../libdaisy/src/dev/oled_ssd130x.h ****                 if(width == 64)
 172:../../libdaisy/src/dev/oled_ssd130x.h ****                 {
 173:../../libdaisy/src/dev/oled_ssd130x.h ****                     transport_.SendCommand(0x12);
 174:../../libdaisy/src/dev/oled_ssd130x.h ****                 }
 175:../../libdaisy/src/dev/oled_ssd130x.h ****                 else
 176:../../libdaisy/src/dev/oled_ssd130x.h ****                 {
 177:../../libdaisy/src/dev/oled_ssd130x.h ****                     transport_.SendCommand(0x02);
 178:../../libdaisy/src/dev/oled_ssd130x.h ****                 }
 179:../../libdaisy/src/dev/oled_ssd130x.h **** 
 180:../../libdaisy/src/dev/oled_ssd130x.h ****                 break;
 181:../../libdaisy/src/dev/oled_ssd130x.h ****             case 48:
 182:../../libdaisy/src/dev/oled_ssd130x.h ****                 // Display Clock Divide Ratio
 183:../../libdaisy/src/dev/oled_ssd130x.h ****                 transport_.SendCommand(0xD5);
 184:../../libdaisy/src/dev/oled_ssd130x.h ****                 transport_.SendCommand(0x80);
 185:../../libdaisy/src/dev/oled_ssd130x.h ****                 // Multiplex Ratio
 186:../../libdaisy/src/dev/oled_ssd130x.h ****                 transport_.SendCommand(0xA8);
 187:../../libdaisy/src/dev/oled_ssd130x.h ****                 transport_.SendCommand(0x2F);
 188:../../libdaisy/src/dev/oled_ssd130x.h ****                 // COM Pins
 189:../../libdaisy/src/dev/oled_ssd130x.h ****                 transport_.SendCommand(0xDA);
 190:../../libdaisy/src/dev/oled_ssd130x.h ****                 transport_.SendCommand(0x12);
 191:../../libdaisy/src/dev/oled_ssd130x.h ****                 break;
 192:../../libdaisy/src/dev/oled_ssd130x.h ****             default: // 128
 193:../../libdaisy/src/dev/oled_ssd130x.h ****                 // Display Clock Divide Ratio
 194:../../libdaisy/src/dev/oled_ssd130x.h ****                 transport_.SendCommand(0xD5);
 195:../../libdaisy/src/dev/oled_ssd130x.h ****                 transport_.SendCommand(0x80);
 196:../../libdaisy/src/dev/oled_ssd130x.h ****                 // Multiplex Ratio
ARM GAS  /tmp/ccF7J5sE.s 			page 22


 197:../../libdaisy/src/dev/oled_ssd130x.h ****                 transport_.SendCommand(0xA8);
 198:../../libdaisy/src/dev/oled_ssd130x.h ****                 transport_.SendCommand(0x3F);
 199:../../libdaisy/src/dev/oled_ssd130x.h ****                 // COM Pins
 200:../../libdaisy/src/dev/oled_ssd130x.h ****                 transport_.SendCommand(0xDA);
 201:../../libdaisy/src/dev/oled_ssd130x.h ****                 transport_.SendCommand(0x12);
 202:../../libdaisy/src/dev/oled_ssd130x.h ****                 break;
 203:../../libdaisy/src/dev/oled_ssd130x.h ****         }
 204:../../libdaisy/src/dev/oled_ssd130x.h **** 
 205:../../libdaisy/src/dev/oled_ssd130x.h ****         // Display Offset
 206:../../libdaisy/src/dev/oled_ssd130x.h ****         transport_.SendCommand(0xD3);
 207:../../libdaisy/src/dev/oled_ssd130x.h ****         transport_.SendCommand(0x00);
 208:../../libdaisy/src/dev/oled_ssd130x.h ****         // Start Line Address
 209:../../libdaisy/src/dev/oled_ssd130x.h ****         transport_.SendCommand(0x40);
 210:../../libdaisy/src/dev/oled_ssd130x.h ****         // Normal Display
 211:../../libdaisy/src/dev/oled_ssd130x.h ****         transport_.SendCommand(0xA6);
 212:../../libdaisy/src/dev/oled_ssd130x.h ****         // All On Resume
 213:../../libdaisy/src/dev/oled_ssd130x.h ****         transport_.SendCommand(0xA4);
 214:../../libdaisy/src/dev/oled_ssd130x.h ****         // Charge Pump
 215:../../libdaisy/src/dev/oled_ssd130x.h ****         transport_.SendCommand(0x8D);
 216:../../libdaisy/src/dev/oled_ssd130x.h ****         transport_.SendCommand(0x14);
 217:../../libdaisy/src/dev/oled_ssd130x.h ****         // Set Segment Remap
 218:../../libdaisy/src/dev/oled_ssd130x.h ****         transport_.SendCommand(0xA1);
 219:../../libdaisy/src/dev/oled_ssd130x.h ****         // COM Output Scan Direction
 220:../../libdaisy/src/dev/oled_ssd130x.h ****         transport_.SendCommand(0xC8);
 221:../../libdaisy/src/dev/oled_ssd130x.h ****         // Contrast Control
 222:../../libdaisy/src/dev/oled_ssd130x.h ****         transport_.SendCommand(0x81);
 223:../../libdaisy/src/dev/oled_ssd130x.h ****         transport_.SendCommand(0x8F);
 224:../../libdaisy/src/dev/oled_ssd130x.h ****         // Pre Charge
 225:../../libdaisy/src/dev/oled_ssd130x.h ****         transport_.SendCommand(0xD9);
 226:../../libdaisy/src/dev/oled_ssd130x.h ****         transport_.SendCommand(0x25);
 227:../../libdaisy/src/dev/oled_ssd130x.h ****         // VCOM Detect
 228:../../libdaisy/src/dev/oled_ssd130x.h ****         transport_.SendCommand(0xDB);
 229:../../libdaisy/src/dev/oled_ssd130x.h ****         transport_.SendCommand(0x34);
 230:../../libdaisy/src/dev/oled_ssd130x.h **** 
 231:../../libdaisy/src/dev/oled_ssd130x.h **** 
 232:../../libdaisy/src/dev/oled_ssd130x.h ****         // Display On
 233:../../libdaisy/src/dev/oled_ssd130x.h ****         transport_.SendCommand(0xAF); //--turn on oled panel
 234:../../libdaisy/src/dev/oled_ssd130x.h ****     };
 235:../../libdaisy/src/dev/oled_ssd130x.h **** 
 236:../../libdaisy/src/dev/oled_ssd130x.h ****     size_t Width() const { return width; };
 237:../../libdaisy/src/dev/oled_ssd130x.h ****     size_t Height() const { return height; };
 238:../../libdaisy/src/dev/oled_ssd130x.h **** 
 239:../../libdaisy/src/dev/oled_ssd130x.h ****     void DrawPixel(uint_fast8_t x, uint_fast8_t y, bool on)
 240:../../libdaisy/src/dev/oled_ssd130x.h ****     {
 241:../../libdaisy/src/dev/oled_ssd130x.h ****         if(x >= width || y >= height)
 242:../../libdaisy/src/dev/oled_ssd130x.h ****             return;
 243:../../libdaisy/src/dev/oled_ssd130x.h ****         if(on)
 244:../../libdaisy/src/dev/oled_ssd130x.h ****             buffer_[x + (y / 8) * width] |= (1 << (y % 8));
 245:../../libdaisy/src/dev/oled_ssd130x.h ****         else
 246:../../libdaisy/src/dev/oled_ssd130x.h ****             buffer_[x + (y / 8) * width] &= ~(1 << (y % 8));
 247:../../libdaisy/src/dev/oled_ssd130x.h ****     }
 248:../../libdaisy/src/dev/oled_ssd130x.h **** 
 249:../../libdaisy/src/dev/oled_ssd130x.h ****     void Fill(bool on)
 216              		.loc 15 249 10 view .LVU33
 217              	.LBB854:
 250:../../libdaisy/src/dev/oled_ssd130x.h ****     {
 251:../../libdaisy/src/dev/oled_ssd130x.h ****         for(size_t i = 0; i < sizeof(buffer_); i++)
ARM GAS  /tmp/ccF7J5sE.s 			page 23


 218              		.loc 15 251 29 view .LVU34
 219 0000 4942     		rsbs	r1, r1, #0
 220              	.LVL5:
 221              		.loc 15 251 29 is_stmt 0 view .LVU35
 222 0002 00F11303 		add	r3, r0, #19
 223 0006 00F21342 		addw	r2, r0, #1043
 224 000a C9B2     		uxtb	r1, r1
 225              	.LVL6:
 226              	.L7:
 252:../../libdaisy/src/dev/oled_ssd130x.h ****         {
 253:../../libdaisy/src/dev/oled_ssd130x.h ****             buffer_[i] = on ? 0xff : 0x00;
 227              		.loc 15 253 13 view .LVU36
 228 000c 03F8011F 		strb	r1, [r3, #1]!
 229              	.LVL7:
 251:../../libdaisy/src/dev/oled_ssd130x.h ****         {
 230              		.loc 15 251 9 is_stmt 1 view .LVU37
 251:../../libdaisy/src/dev/oled_ssd130x.h ****         {
 231              		.loc 15 251 29 view .LVU38
 232 0010 9342     		cmp	r3, r2
 233 0012 FBD1     		bne	.L7
 234              	.LBE854:
 235              	.LBE853:
 236              		.loc 5 33 53 is_stmt 0 view .LVU39
 237 0014 7047     		bx	lr
 238              		.cfi_endproc
 239              	.LFE4556:
 241 0016 00BF     		.section	.text._ZNK5daisy11OledDisplayINS_13SSD130xDriverILj128ELj64ENS_24SSD130x4WireSpiTransport
 242              		.align	1
 243              		.p2align 2,,3
 244              		.weak	_ZNK5daisy11OledDisplayINS_13SSD130xDriverILj128ELj64ENS_24SSD130x4WireSpiTransportEEEE5Widt
 245              		.syntax unified
 246              		.thumb
 247              		.thumb_func
 248              		.fpu fpv5-d16
 250              	_ZNK5daisy11OledDisplayINS_13SSD130xDriverILj128ELj64ENS_24SSD130x4WireSpiTransportEEEE5WidthEv:
 251              	.LVL8:
 252              	.LFB4557:
  27:../../libdaisy/src/hid/disp/oled_display.h **** 
 253              		.loc 5 27 14 is_stmt 1 view -0
 254              		.cfi_startproc
 255              		@ args = 0, pretend = 0, frame = 0
 256              		@ frame_needed = 0, uses_anonymous_args = 0
 257              		@ link register save eliminated.
  27:../../libdaisy/src/hid/disp/oled_display.h **** 
 258              		.loc 5 27 63 is_stmt 0 view .LVU41
 259 0000 8020     		movs	r0, #128
 260              	.LVL9:
  27:../../libdaisy/src/hid/disp/oled_display.h **** 
 261              		.loc 5 27 63 view .LVU42
 262 0002 7047     		bx	lr
 263              		.cfi_endproc
 264              	.LFE4557:
 266              		.section	.text._ZNK5daisy11OledDisplayINS_13SSD130xDriverILj128ELj64ENS_24SSD130x4WireSpiTransport
 267              		.align	1
 268              		.p2align 2,,3
 269              		.weak	_ZNK5daisy11OledDisplayINS_13SSD130xDriverILj128ELj64ENS_24SSD130x4WireSpiTransportEEEE6Heig
 270              		.syntax unified
ARM GAS  /tmp/ccF7J5sE.s 			page 24


 271              		.thumb
 272              		.thumb_func
 273              		.fpu fpv5-d16
 275              	_ZNK5daisy11OledDisplayINS_13SSD130xDriverILj128ELj64ENS_24SSD130x4WireSpiTransportEEEE6HeightEv:
 276              	.LVL10:
 277              	.LFB4560:
  26:../../libdaisy/src/hid/disp/oled_display.h ****     uint16_t Width() const override { return driver_.Width(); }
 278              		.loc 5 26 14 is_stmt 1 view -0
 279              		.cfi_startproc
 280              		@ args = 0, pretend = 0, frame = 0
 281              		@ frame_needed = 0, uses_anonymous_args = 0
 282              		@ link register save eliminated.
  26:../../libdaisy/src/hid/disp/oled_display.h ****     uint16_t Width() const override { return driver_.Width(); }
 283              		.loc 5 26 65 is_stmt 0 view .LVU44
 284 0000 4020     		movs	r0, #64
 285              	.LVL11:
  26:../../libdaisy/src/hid/disp/oled_display.h ****     uint16_t Width() const override { return driver_.Width(); }
 286              		.loc 5 26 65 view .LVU45
 287 0002 7047     		bx	lr
 288              		.cfi_endproc
 289              	.LFE4560:
 291              		.section	.text._ZN5daisy11OledDisplayINS_13SSD130xDriverILj128ELj64ENS_24SSD130x4WireSpiTransportE
 292              		.align	1
 293              		.p2align 2,,3
 294              		.weak	_ZN5daisy11OledDisplayINS_13SSD130xDriverILj128ELj64ENS_24SSD130x4WireSpiTransportEEEED0Ev
 295              		.syntax unified
 296              		.thumb
 297              		.thumb_func
 298              		.fpu fpv5-d16
 300              	_ZN5daisy11OledDisplayINS_13SSD130xDriverILj128ELj64ENS_24SSD130x4WireSpiTransportEEEED0Ev:
 301              	.LVL12:
 302              	.LFB4555:
  17:../../libdaisy/src/hid/disp/oled_display.h **** 
 303              		.loc 5 17 13 is_stmt 1 view -0
 304              		.cfi_startproc
 305              		@ args = 0, pretend = 0, frame = 0
 306              		@ frame_needed = 0, uses_anonymous_args = 0
  17:../../libdaisy/src/hid/disp/oled_display.h **** 
 307              		.loc 5 17 13 is_stmt 0 view .LVU47
 308 0000 10B5     		push	{r4, lr}
 309              		.cfi_def_cfa_offset 8
 310              		.cfi_offset 4, -8
 311              		.cfi_offset 14, -4
  17:../../libdaisy/src/hid/disp/oled_display.h **** 
 312              		.loc 5 17 13 view .LVU48
 313 0002 0446     		mov	r4, r0
 314              	.LVL13:
 315              	.LBB855:
 316              	.LBI855:
  17:../../libdaisy/src/hid/disp/oled_display.h **** 
 317              		.loc 5 17 13 is_stmt 1 view .LVU49
 318              	.LBB856:
 319              	.LBI856:
 320              		.loc 6 219 13 view .LVU50
 321              	.LBB857:
 322              	.LBI857:
  23:../../libdaisy/src/hid/disp/display.h **** 
ARM GAS  /tmp/ccF7J5sE.s 			page 25


 323              		.loc 6 23 13 view .LVU51
  23:../../libdaisy/src/hid/disp/display.h **** 
 324              		.loc 6 23 13 is_stmt 0 view .LVU52
 325              	.LBE857:
 326              	.LBE856:
 327              	.LBE855:
  17:../../libdaisy/src/hid/disp/oled_display.h **** 
 328              		.loc 5 17 29 view .LVU53
 329 0004 40F21441 		movw	r1, #1044
 330 0008 FFF7FEFF 		bl	_ZdlPvj
 331              	.LVL14:
  17:../../libdaisy/src/hid/disp/oled_display.h **** 
 332              		.loc 5 17 29 view .LVU54
 333 000c 2046     		mov	r0, r4
 334 000e 10BD     		pop	{r4, pc}
  17:../../libdaisy/src/hid/disp/oled_display.h **** 
 335              		.loc 5 17 29 view .LVU55
 336              		.cfi_endproc
 337              	.LFE4555:
 339              		.section	.text._ZN5daisy11OledDisplayINS_13SSD130xDriverILj128ELj64ENS_24SSD130x4WireSpiTransportE
 340              		.align	1
 341              		.p2align 2,,3
 342              		.weak	_ZN5daisy11OledDisplayINS_13SSD130xDriverILj128ELj64ENS_24SSD130x4WireSpiTransportEEEE6Updat
 343              		.syntax unified
 344              		.thumb
 345              		.thumb_func
 346              		.fpu fpv5-d16
 348              	_ZN5daisy11OledDisplayINS_13SSD130xDriverILj128ELj64ENS_24SSD130x4WireSpiTransportEEEE6UpdateEv:
 349              	.LVL15:
 350              	.LFB4562:
  34:../../libdaisy/src/hid/disp/oled_display.h **** 
  35:../../libdaisy/src/hid/disp/oled_display.h ****     /**
  36:../../libdaisy/src/hid/disp/oled_display.h ****     Sets the pixel at the specified coordinate to be on/off.
  37:../../libdaisy/src/hid/disp/oled_display.h ****     \param x   x Coordinate
  38:../../libdaisy/src/hid/disp/oled_display.h ****     \param y   y coordinate
  39:../../libdaisy/src/hid/disp/oled_display.h ****     \param on  on or off
  40:../../libdaisy/src/hid/disp/oled_display.h ****     */
  41:../../libdaisy/src/hid/disp/oled_display.h ****     void DrawPixel(uint_fast8_t x, uint_fast8_t y, bool on) override
  42:../../libdaisy/src/hid/disp/oled_display.h ****     {
  43:../../libdaisy/src/hid/disp/oled_display.h ****         driver_.DrawPixel(x, y, on);
  44:../../libdaisy/src/hid/disp/oled_display.h ****     }
  45:../../libdaisy/src/hid/disp/oled_display.h **** 
  46:../../libdaisy/src/hid/disp/oled_display.h ****     /** 
  47:../../libdaisy/src/hid/disp/oled_display.h ****     Writes the current display buffer to the OLED device using SPI or I2C depending on 
  48:../../libdaisy/src/hid/disp/oled_display.h ****     how the object was initialized.
  49:../../libdaisy/src/hid/disp/oled_display.h ****     */
  50:../../libdaisy/src/hid/disp/oled_display.h ****     void Update() override { driver_.Update(); }
 351              		.loc 5 50 10 is_stmt 1 view -0
 352              		.cfi_startproc
 353              		@ args = 0, pretend = 0, frame = 8
 354              		@ frame_needed = 0, uses_anonymous_args = 0
 355              	.LBB868:
 356              	.LBI868:
 254:../../libdaisy/src/dev/oled_ssd130x.h ****         }
 255:../../libdaisy/src/dev/oled_ssd130x.h ****     };
 256:../../libdaisy/src/dev/oled_ssd130x.h **** 
 257:../../libdaisy/src/dev/oled_ssd130x.h ****     /**
ARM GAS  /tmp/ccF7J5sE.s 			page 26


 258:../../libdaisy/src/dev/oled_ssd130x.h ****      * Update the display 
 259:../../libdaisy/src/dev/oled_ssd130x.h ****     */
 260:../../libdaisy/src/dev/oled_ssd130x.h ****     void Update()
 357              		.loc 15 260 10 view .LVU57
 358              	.LBB869:
 261:../../libdaisy/src/dev/oled_ssd130x.h ****     {
 262:../../libdaisy/src/dev/oled_ssd130x.h ****         uint8_t i;
 263:../../libdaisy/src/dev/oled_ssd130x.h ****         uint8_t high_column_addr;
 264:../../libdaisy/src/dev/oled_ssd130x.h ****         switch(height)
 265:../../libdaisy/src/dev/oled_ssd130x.h ****         {
 266:../../libdaisy/src/dev/oled_ssd130x.h ****             case 32: high_column_addr = 0x12; break;
 267:../../libdaisy/src/dev/oled_ssd130x.h **** 
 268:../../libdaisy/src/dev/oled_ssd130x.h ****             default: high_column_addr = 0x10; break;
 269:../../libdaisy/src/dev/oled_ssd130x.h ****         }
 270:../../libdaisy/src/dev/oled_ssd130x.h ****         for(i = 0; i < (height / 8); i++)
 359              		.loc 15 270 22 view .LVU58
 360              	.LBE869:
 361              	.LBE868:
 362              		.loc 5 50 10 is_stmt 0 view .LVU59
 363 0000 2DE9F041 		push	{r4, r5, r6, r7, r8, lr}
 364              		.cfi_def_cfa_offset 24
 365              		.cfi_offset 4, -24
 366              		.cfi_offset 5, -20
 367              		.cfi_offset 6, -16
 368              		.cfi_offset 7, -12
 369              		.cfi_offset 8, -8
 370              		.cfi_offset 14, -4
 371 0004 B025     		movs	r5, #176
 372 0006 82B0     		sub	sp, sp, #8
 373              		.cfi_def_cfa_offset 32
 374 0008 00F10807 		add	r7, r0, #8
 375 000c 00F11006 		add	r6, r0, #16
 376 0010 00F11404 		add	r4, r0, #20
 377              	.LVL16:
 378              	.L14:
 379              	.LBB882:
 380              	.LBB881:
 381              	.LBB870:
 382              	.LBB871:
 111:../../libdaisy/src/dev/oled_ssd130x.h ****         spi_.BlockingTransmit(&cmd, 1);
 383              		.loc 15 111 23 view .LVU60
 384 0014 0021     		movs	r1, #0
 385 0016 3046     		mov	r0, r6
 386 0018 8DF80750 		strb	r5, [sp, #7]
 387              	.LVL17:
 111:../../libdaisy/src/dev/oled_ssd130x.h ****         spi_.BlockingTransmit(&cmd, 1);
 388              		.loc 15 111 23 view .LVU61
 389              	.LBE871:
 390              	.LBI870:
 109:../../libdaisy/src/dev/oled_ssd130x.h ****     {
 391              		.loc 15 109 10 is_stmt 1 view .LVU62
 392              	.LBB872:
 111:../../libdaisy/src/dev/oled_ssd130x.h ****         spi_.BlockingTransmit(&cmd, 1);
 393              		.loc 15 111 9 view .LVU63
 394 001c 0135     		adds	r5, r5, #1
 395              	.LVL18:
 111:../../libdaisy/src/dev/oled_ssd130x.h ****         spi_.BlockingTransmit(&cmd, 1);
ARM GAS  /tmp/ccF7J5sE.s 			page 27


 396              		.loc 15 111 9 is_stmt 0 view .LVU64
 397 001e 8846     		mov	r8, r1
 111:../../libdaisy/src/dev/oled_ssd130x.h ****         spi_.BlockingTransmit(&cmd, 1);
 398              		.loc 15 111 23 view .LVU65
 399 0020 FFF7FEFF 		bl	dsy_gpio_write
 400              	.LVL19:
 112:../../libdaisy/src/dev/oled_ssd130x.h ****     };
 401              		.loc 15 112 9 is_stmt 1 view .LVU66
 112:../../libdaisy/src/dev/oled_ssd130x.h ****     };
 402              		.loc 15 112 30 is_stmt 0 view .LVU67
 403 0024 6423     		movs	r3, #100
 404 0026 0122     		movs	r2, #1
 405 0028 0DF10701 		add	r1, sp, #7
 406 002c 3846     		mov	r0, r7
 407 002e FFF7FEFF 		bl	_ZN5daisy9SpiHandle16BlockingTransmitEPhjm
 408              	.LVL20:
 112:../../libdaisy/src/dev/oled_ssd130x.h ****     };
 409              		.loc 15 112 30 view .LVU68
 410              	.LBE872:
 411              	.LBE870:
 412              	.LBB873:
 413              	.LBB874:
 111:../../libdaisy/src/dev/oled_ssd130x.h ****         spi_.BlockingTransmit(&cmd, 1);
 414              		.loc 15 111 23 view .LVU69
 415 0032 4146     		mov	r1, r8
 416 0034 3046     		mov	r0, r6
 417 0036 8DF80780 		strb	r8, [sp, #7]
 418              	.LVL21:
 111:../../libdaisy/src/dev/oled_ssd130x.h ****         spi_.BlockingTransmit(&cmd, 1);
 419              		.loc 15 111 23 view .LVU70
 420              	.LBE874:
 421              	.LBI873:
 109:../../libdaisy/src/dev/oled_ssd130x.h ****     {
 422              		.loc 15 109 10 is_stmt 1 view .LVU71
 423              	.LBB875:
 111:../../libdaisy/src/dev/oled_ssd130x.h ****         spi_.BlockingTransmit(&cmd, 1);
 424              		.loc 15 111 9 view .LVU72
 111:../../libdaisy/src/dev/oled_ssd130x.h ****         spi_.BlockingTransmit(&cmd, 1);
 425              		.loc 15 111 23 is_stmt 0 view .LVU73
 426 003a FFF7FEFF 		bl	dsy_gpio_write
 427              	.LVL22:
 112:../../libdaisy/src/dev/oled_ssd130x.h ****     };
 428              		.loc 15 112 9 is_stmt 1 view .LVU74
 112:../../libdaisy/src/dev/oled_ssd130x.h ****     };
 429              		.loc 15 112 30 is_stmt 0 view .LVU75
 430 003e 0122     		movs	r2, #1
 431 0040 6423     		movs	r3, #100
 432 0042 0DF10701 		add	r1, sp, #7
 433 0046 3846     		mov	r0, r7
 434 0048 EDB2     		uxtb	r5, r5
 435 004a FFF7FEFF 		bl	_ZN5daisy9SpiHandle16BlockingTransmitEPhjm
 436              	.LVL23:
 112:../../libdaisy/src/dev/oled_ssd130x.h ****     };
 437              		.loc 15 112 30 view .LVU76
 438 004e 1023     		movs	r3, #16
 439              	.LBE875:
 440              	.LBE873:
ARM GAS  /tmp/ccF7J5sE.s 			page 28


 441              	.LBB876:
 442              	.LBB877:
 111:../../libdaisy/src/dev/oled_ssd130x.h ****         spi_.BlockingTransmit(&cmd, 1);
 443              		.loc 15 111 23 view .LVU77
 444 0050 4146     		mov	r1, r8
 445 0052 3046     		mov	r0, r6
 446 0054 8DF80730 		strb	r3, [sp, #7]
 447              	.LVL24:
 111:../../libdaisy/src/dev/oled_ssd130x.h ****         spi_.BlockingTransmit(&cmd, 1);
 448              		.loc 15 111 23 view .LVU78
 449              	.LBE877:
 450              	.LBI876:
 109:../../libdaisy/src/dev/oled_ssd130x.h ****     {
 451              		.loc 15 109 10 is_stmt 1 view .LVU79
 452              	.LBB878:
 111:../../libdaisy/src/dev/oled_ssd130x.h ****         spi_.BlockingTransmit(&cmd, 1);
 453              		.loc 15 111 9 view .LVU80
 111:../../libdaisy/src/dev/oled_ssd130x.h ****         spi_.BlockingTransmit(&cmd, 1);
 454              		.loc 15 111 23 is_stmt 0 view .LVU81
 455 0058 FFF7FEFF 		bl	dsy_gpio_write
 456              	.LVL25:
 112:../../libdaisy/src/dev/oled_ssd130x.h ****     };
 457              		.loc 15 112 9 is_stmt 1 view .LVU82
 112:../../libdaisy/src/dev/oled_ssd130x.h ****     };
 458              		.loc 15 112 30 is_stmt 0 view .LVU83
 459 005c 6423     		movs	r3, #100
 460 005e 0122     		movs	r2, #1
 461 0060 0DF10701 		add	r1, sp, #7
 462 0064 3846     		mov	r0, r7
 463 0066 FFF7FEFF 		bl	_ZN5daisy9SpiHandle16BlockingTransmitEPhjm
 464              	.LVL26:
 112:../../libdaisy/src/dev/oled_ssd130x.h ****     };
 465              		.loc 15 112 30 view .LVU84
 466              	.LBE878:
 467              	.LBE876:
 468              	.LBB879:
 469              	.LBI879:
 115:../../libdaisy/src/dev/oled_ssd130x.h ****     {
 470              		.loc 15 115 10 is_stmt 1 view .LVU85
 471              	.LBB880:
 117:../../libdaisy/src/dev/oled_ssd130x.h ****         spi_.BlockingTransmit(buff, size);
 472              		.loc 15 117 9 view .LVU86
 117:../../libdaisy/src/dev/oled_ssd130x.h ****         spi_.BlockingTransmit(buff, size);
 473              		.loc 15 117 23 is_stmt 0 view .LVU87
 474 006a 0121     		movs	r1, #1
 475 006c 3046     		mov	r0, r6
 476 006e FFF7FEFF 		bl	dsy_gpio_write
 477              	.LVL27:
 118:../../libdaisy/src/dev/oled_ssd130x.h ****     };
 478              		.loc 15 118 9 is_stmt 1 view .LVU88
 118:../../libdaisy/src/dev/oled_ssd130x.h ****     };
 479              		.loc 15 118 30 is_stmt 0 view .LVU89
 480 0072 8022     		movs	r2, #128
 481 0074 2146     		mov	r1, r4
 482 0076 6423     		movs	r3, #100
 483 0078 3846     		mov	r0, r7
 484 007a 1444     		add	r4, r4, r2
ARM GAS  /tmp/ccF7J5sE.s 			page 29


 485              	.LVL28:
 118:../../libdaisy/src/dev/oled_ssd130x.h ****     };
 486              		.loc 15 118 30 view .LVU90
 487 007c FFF7FEFF 		bl	_ZN5daisy9SpiHandle16BlockingTransmitEPhjm
 488              	.LVL29:
 118:../../libdaisy/src/dev/oled_ssd130x.h ****     };
 489              		.loc 15 118 30 view .LVU91
 490              	.LBE880:
 491              	.LBE879:
 492              		.loc 15 270 9 is_stmt 1 view .LVU92
 493              		.loc 15 270 22 view .LVU93
 494 0080 B82D     		cmp	r5, #184
 495 0082 C7D1     		bne	.L14
 496              	.LBE881:
 497              	.LBE882:
 498              		.loc 5 50 48 is_stmt 0 view .LVU94
 499 0084 02B0     		add	sp, sp, #8
 500              		.cfi_def_cfa_offset 24
 501              		@ sp needed
 502 0086 BDE8F081 		pop	{r4, r5, r6, r7, r8, pc}
 503              		.loc 5 50 48 view .LVU95
 504              		.cfi_endproc
 505              	.LFE4562:
 507 008a 00BF     		.section	.text._ZN5daisy25OneBitGraphicsDisplayImplINS_11OledDisplayINS_13SSD130xDriverILj128ELj64
 508              		.align	1
 509              		.p2align 2,,3
 510              		.weak	_ZN5daisy25OneBitGraphicsDisplayImplINS_11OledDisplayINS_13SSD130xDriverILj128ELj64ENS_24SSD
 511              		.syntax unified
 512              		.thumb
 513              		.thumb_func
 514              		.fpu fpv5-d16
 516              	_ZN5daisy25OneBitGraphicsDisplayImplINS_11OledDisplayINS_13SSD130xDriverILj128ELj64ENS_24SSD130x4Wi
 517              	.LVL30:
 518              	.LFB4690:
 220:../../libdaisy/src/hid/disp/display.h **** 
 221:../../libdaisy/src/hid/disp/display.h ****     void DrawLine(uint_fast8_t x1,
 222:../../libdaisy/src/hid/disp/display.h ****                   uint_fast8_t y1,
 223:../../libdaisy/src/hid/disp/display.h ****                   uint_fast8_t x2,
 224:../../libdaisy/src/hid/disp/display.h ****                   uint_fast8_t y2,
 225:../../libdaisy/src/hid/disp/display.h ****                   bool         on) override
 226:../../libdaisy/src/hid/disp/display.h ****     {
 227:../../libdaisy/src/hid/disp/display.h ****         int_fast16_t deltaX = abs((int_fast16_t)x2 - (int_fast16_t)x1);
 228:../../libdaisy/src/hid/disp/display.h ****         int_fast16_t deltaY = abs((int_fast16_t)y2 - (int_fast16_t)y1);
 229:../../libdaisy/src/hid/disp/display.h ****         int_fast16_t signX  = ((x1 < x2) ? 1 : -1);
 230:../../libdaisy/src/hid/disp/display.h ****         int_fast16_t signY  = ((y1 < y2) ? 1 : -1);
 231:../../libdaisy/src/hid/disp/display.h ****         int_fast16_t error  = deltaX - deltaY;
 232:../../libdaisy/src/hid/disp/display.h ****         int_fast16_t error2;
 233:../../libdaisy/src/hid/disp/display.h **** 
 234:../../libdaisy/src/hid/disp/display.h ****         // If we write "ChildType::DrawPixel(x2, y2, on);", we end up with
 235:../../libdaisy/src/hid/disp/display.h ****         // all sorts of weird compiler errors when the Child class is a template
 236:../../libdaisy/src/hid/disp/display.h ****         // class. The only way around this is to use this very verbose syntax:
 237:../../libdaisy/src/hid/disp/display.h ****         ((ChildType*)(this))->ChildType::DrawPixel(x2, y2, on);
 238:../../libdaisy/src/hid/disp/display.h **** 
 239:../../libdaisy/src/hid/disp/display.h ****         while((x1 != x2) || (y1 != y2))
 240:../../libdaisy/src/hid/disp/display.h ****         {
 241:../../libdaisy/src/hid/disp/display.h ****             ((ChildType*)(this))->ChildType::DrawPixel(x1, y1, on);
 242:../../libdaisy/src/hid/disp/display.h ****             error2 = error * 2;
ARM GAS  /tmp/ccF7J5sE.s 			page 30


 243:../../libdaisy/src/hid/disp/display.h ****             if(error2 > -deltaY)
 244:../../libdaisy/src/hid/disp/display.h ****             {
 245:../../libdaisy/src/hid/disp/display.h ****                 error -= deltaY;
 246:../../libdaisy/src/hid/disp/display.h ****                 x1 += signX;
 247:../../libdaisy/src/hid/disp/display.h ****             }
 248:../../libdaisy/src/hid/disp/display.h **** 
 249:../../libdaisy/src/hid/disp/display.h ****             if(error2 < deltaX)
 250:../../libdaisy/src/hid/disp/display.h ****             {
 251:../../libdaisy/src/hid/disp/display.h ****                 error += deltaX;
 252:../../libdaisy/src/hid/disp/display.h ****                 y1 += signY;
 253:../../libdaisy/src/hid/disp/display.h ****             }
 254:../../libdaisy/src/hid/disp/display.h ****         }
 255:../../libdaisy/src/hid/disp/display.h ****     }
 256:../../libdaisy/src/hid/disp/display.h **** 
 257:../../libdaisy/src/hid/disp/display.h ****     void DrawRect(uint_fast8_t x1,
 258:../../libdaisy/src/hid/disp/display.h ****                   uint_fast8_t y1,
 259:../../libdaisy/src/hid/disp/display.h ****                   uint_fast8_t x2,
 260:../../libdaisy/src/hid/disp/display.h ****                   uint_fast8_t y2,
 261:../../libdaisy/src/hid/disp/display.h ****                   bool         on,
 262:../../libdaisy/src/hid/disp/display.h ****                   bool         fill = false) override
 263:../../libdaisy/src/hid/disp/display.h ****     {
 264:../../libdaisy/src/hid/disp/display.h ****         if(fill)
 265:../../libdaisy/src/hid/disp/display.h ****         {
 266:../../libdaisy/src/hid/disp/display.h ****             for(uint_fast8_t x = x1; x <= x2; x++)
 267:../../libdaisy/src/hid/disp/display.h ****             {
 268:../../libdaisy/src/hid/disp/display.h ****                 for(uint_fast8_t y = y1; y <= y2; y++)
 269:../../libdaisy/src/hid/disp/display.h ****                 {
 270:../../libdaisy/src/hid/disp/display.h ****                     ((ChildType*)(this))->ChildType::DrawPixel(x, y, on);
 271:../../libdaisy/src/hid/disp/display.h ****                 }
 272:../../libdaisy/src/hid/disp/display.h ****             }
 273:../../libdaisy/src/hid/disp/display.h ****         }
 274:../../libdaisy/src/hid/disp/display.h ****         else
 275:../../libdaisy/src/hid/disp/display.h ****         {
 276:../../libdaisy/src/hid/disp/display.h ****             ((ChildType*)(this))->ChildType::DrawLine(x1, y1, x2, y1, on);
 277:../../libdaisy/src/hid/disp/display.h ****             ((ChildType*)(this))->ChildType::DrawLine(x2, y1, x2, y2, on);
 278:../../libdaisy/src/hid/disp/display.h ****             ((ChildType*)(this))->ChildType::DrawLine(x2, y2, x1, y2, on);
 279:../../libdaisy/src/hid/disp/display.h ****             ((ChildType*)(this))->ChildType::DrawLine(x1, y2, x1, y1, on);
 280:../../libdaisy/src/hid/disp/display.h ****         }
 281:../../libdaisy/src/hid/disp/display.h ****     }
 282:../../libdaisy/src/hid/disp/display.h **** 
 283:../../libdaisy/src/hid/disp/display.h ****     void DrawArc(uint_fast8_t x,
 284:../../libdaisy/src/hid/disp/display.h ****                  uint_fast8_t y,
 285:../../libdaisy/src/hid/disp/display.h ****                  uint_fast8_t radius,
 286:../../libdaisy/src/hid/disp/display.h ****                  int_fast16_t start_angle,
 287:../../libdaisy/src/hid/disp/display.h ****                  int_fast16_t sweep,
 288:../../libdaisy/src/hid/disp/display.h ****                  bool         on) override
 289:../../libdaisy/src/hid/disp/display.h ****     {
 290:../../libdaisy/src/hid/disp/display.h ****         // Values to calculate the circle
 291:../../libdaisy/src/hid/disp/display.h ****         int_fast16_t t_x, t_y, err, e2;
 292:../../libdaisy/src/hid/disp/display.h **** 
 293:../../libdaisy/src/hid/disp/display.h ****         // Temporary values to speed up comparisons
 294:../../libdaisy/src/hid/disp/display.h ****         float t_sxy, t_syx, t_sxny, t_synx;
 295:../../libdaisy/src/hid/disp/display.h ****         float t_exy, t_eyx, t_exny, t_eynx;
 296:../../libdaisy/src/hid/disp/display.h **** 
 297:../../libdaisy/src/hid/disp/display.h ****         float start_angle_rad, end_angle_rad;
 298:../../libdaisy/src/hid/disp/display.h ****         float start_x, start_y, end_x, end_y;
 299:../../libdaisy/src/hid/disp/display.h **** 
ARM GAS  /tmp/ccF7J5sE.s 			page 31


 300:../../libdaisy/src/hid/disp/display.h ****         bool d1, d2, d3, d4;
 301:../../libdaisy/src/hid/disp/display.h **** 
 302:../../libdaisy/src/hid/disp/display.h ****         d1 = d2 = d3 = d4 = true;
 303:../../libdaisy/src/hid/disp/display.h **** 
 304:../../libdaisy/src/hid/disp/display.h ****         bool circle = false;
 305:../../libdaisy/src/hid/disp/display.h **** 
 306:../../libdaisy/src/hid/disp/display.h ****         if(sweep < 0)
 307:../../libdaisy/src/hid/disp/display.h ****         {
 308:../../libdaisy/src/hid/disp/display.h ****             start_angle += sweep;
 309:../../libdaisy/src/hid/disp/display.h ****             sweep = -sweep;
 310:../../libdaisy/src/hid/disp/display.h ****         }
 311:../../libdaisy/src/hid/disp/display.h **** 
 312:../../libdaisy/src/hid/disp/display.h ****         start_angle_rad = deg2rad(start_angle);
 313:../../libdaisy/src/hid/disp/display.h ****         end_angle_rad   = deg2rad(start_angle + sweep);
 314:../../libdaisy/src/hid/disp/display.h **** 
 315:../../libdaisy/src/hid/disp/display.h ****         start_x = cos(start_angle_rad) * radius;
 316:../../libdaisy/src/hid/disp/display.h ****         start_y = -sin(start_angle_rad) * radius;
 317:../../libdaisy/src/hid/disp/display.h ****         end_x   = cos(end_angle_rad) * radius;
 318:../../libdaisy/src/hid/disp/display.h ****         end_y   = -sin(end_angle_rad) * radius;
 319:../../libdaisy/src/hid/disp/display.h **** 
 320:../../libdaisy/src/hid/disp/display.h ****         // Check if start and endpoint are very near
 321:../../libdaisy/src/hid/disp/display.h ****         if((end_x - start_x) * (end_x - start_x)
 322:../../libdaisy/src/hid/disp/display.h ****                + (end_y - start_y) * (end_y - start_y)
 323:../../libdaisy/src/hid/disp/display.h ****            < 2.0f)
 324:../../libdaisy/src/hid/disp/display.h ****         {
 325:../../libdaisy/src/hid/disp/display.h ****             if(sweep > 180)
 326:../../libdaisy/src/hid/disp/display.h ****                 circle = true;
 327:../../libdaisy/src/hid/disp/display.h ****             else
 328:../../libdaisy/src/hid/disp/display.h ****                 // Nothing to draw
 329:../../libdaisy/src/hid/disp/display.h ****                 return;
 330:../../libdaisy/src/hid/disp/display.h ****         }
 331:../../libdaisy/src/hid/disp/display.h **** 
 332:../../libdaisy/src/hid/disp/display.h ****         t_x = -radius;
 333:../../libdaisy/src/hid/disp/display.h ****         t_y = 0;
 334:../../libdaisy/src/hid/disp/display.h ****         err = 2 - 2 * radius;
 335:../../libdaisy/src/hid/disp/display.h **** 
 336:../../libdaisy/src/hid/disp/display.h ****         do
 337:../../libdaisy/src/hid/disp/display.h ****         {
 338:../../libdaisy/src/hid/disp/display.h ****             if(!circle)
 339:../../libdaisy/src/hid/disp/display.h ****             {
 340:../../libdaisy/src/hid/disp/display.h ****                 t_sxy  = start_x * t_y;
 341:../../libdaisy/src/hid/disp/display.h ****                 t_syx  = start_y * t_x;
 342:../../libdaisy/src/hid/disp/display.h ****                 t_sxny = start_x * -t_y;
 343:../../libdaisy/src/hid/disp/display.h ****                 t_synx = start_y * -t_x;
 344:../../libdaisy/src/hid/disp/display.h ****                 t_exy  = end_x * t_y;
 345:../../libdaisy/src/hid/disp/display.h ****                 t_eyx  = end_y * t_x;
 346:../../libdaisy/src/hid/disp/display.h ****                 t_exny = end_x * -t_y;
 347:../../libdaisy/src/hid/disp/display.h ****                 t_eynx = end_y * -t_x;
 348:../../libdaisy/src/hid/disp/display.h **** 
 349:../../libdaisy/src/hid/disp/display.h ****                 if(sweep > 180)
 350:../../libdaisy/src/hid/disp/display.h ****                 {
 351:../../libdaisy/src/hid/disp/display.h ****                     d1 = (t_sxy - t_synx < 0 || t_exy - t_eynx > 0);
 352:../../libdaisy/src/hid/disp/display.h ****                     d2 = (t_sxy - t_syx < 0 || t_exy - t_eyx > 0);
 353:../../libdaisy/src/hid/disp/display.h ****                     d3 = (t_sxny - t_syx < 0 || t_exny - t_eyx > 0);
 354:../../libdaisy/src/hid/disp/display.h ****                     d4 = (t_sxny - t_synx < 0 || t_exny - t_eynx > 0);
 355:../../libdaisy/src/hid/disp/display.h ****                 }
 356:../../libdaisy/src/hid/disp/display.h ****                 else
ARM GAS  /tmp/ccF7J5sE.s 			page 32


 357:../../libdaisy/src/hid/disp/display.h ****                 {
 358:../../libdaisy/src/hid/disp/display.h ****                     d1 = (t_sxy - t_synx < 0 && t_exy - t_eynx > 0);
 359:../../libdaisy/src/hid/disp/display.h ****                     d2 = (t_sxy - t_syx < 0 && t_exy - t_eyx > 0);
 360:../../libdaisy/src/hid/disp/display.h ****                     d3 = (t_sxny - t_syx < 0 && t_exny - t_eyx > 0);
 361:../../libdaisy/src/hid/disp/display.h ****                     d4 = (t_sxny - t_synx < 0 && t_exny - t_eynx > 0);
 362:../../libdaisy/src/hid/disp/display.h ****                 }
 363:../../libdaisy/src/hid/disp/display.h ****             }
 364:../../libdaisy/src/hid/disp/display.h **** 
 365:../../libdaisy/src/hid/disp/display.h ****             if(d1)
 366:../../libdaisy/src/hid/disp/display.h ****                 ((ChildType*)(this))
 367:../../libdaisy/src/hid/disp/display.h ****                     ->ChildType::DrawPixel(x - t_x, y + t_y, on);
 368:../../libdaisy/src/hid/disp/display.h ****             if(d2)
 369:../../libdaisy/src/hid/disp/display.h ****                 ((ChildType*)(this))
 370:../../libdaisy/src/hid/disp/display.h ****                     ->ChildType::DrawPixel(x + t_x, y + t_y, on);
 371:../../libdaisy/src/hid/disp/display.h ****             if(d3)
 372:../../libdaisy/src/hid/disp/display.h ****                 ((ChildType*)(this))
 373:../../libdaisy/src/hid/disp/display.h ****                     ->ChildType::DrawPixel(x + t_x, y - t_y, on);
 374:../../libdaisy/src/hid/disp/display.h ****             if(d4)
 375:../../libdaisy/src/hid/disp/display.h ****                 ((ChildType*)(this))
 376:../../libdaisy/src/hid/disp/display.h ****                     ->ChildType::DrawPixel(x - t_x, y - t_y, on);
 377:../../libdaisy/src/hid/disp/display.h **** 
 378:../../libdaisy/src/hid/disp/display.h ****             e2 = err;
 379:../../libdaisy/src/hid/disp/display.h ****             if(e2 <= t_y)
 380:../../libdaisy/src/hid/disp/display.h ****             {
 381:../../libdaisy/src/hid/disp/display.h ****                 t_y++;
 382:../../libdaisy/src/hid/disp/display.h ****                 err = err + (t_y * 2 + 1);
 383:../../libdaisy/src/hid/disp/display.h ****                 if(-t_x == t_y && e2 <= t_x)
 384:../../libdaisy/src/hid/disp/display.h ****                 {
 385:../../libdaisy/src/hid/disp/display.h ****                     e2 = 0;
 386:../../libdaisy/src/hid/disp/display.h ****                 }
 387:../../libdaisy/src/hid/disp/display.h ****             }
 388:../../libdaisy/src/hid/disp/display.h ****             if(e2 > t_x)
 389:../../libdaisy/src/hid/disp/display.h ****             {
 390:../../libdaisy/src/hid/disp/display.h ****                 t_x++;
 391:../../libdaisy/src/hid/disp/display.h ****                 err = err + (t_x * 2 + 1);
 392:../../libdaisy/src/hid/disp/display.h ****             }
 393:../../libdaisy/src/hid/disp/display.h ****         } while(t_x <= 0);
 394:../../libdaisy/src/hid/disp/display.h ****     }
 395:../../libdaisy/src/hid/disp/display.h **** 
 396:../../libdaisy/src/hid/disp/display.h ****     char WriteChar(char ch, FontDef font, bool on) override
 519              		.loc 6 396 10 is_stmt 1 view -0
 520              		.cfi_startproc
 521              		@ args = 4, pretend = 0, frame = 16
 522              		@ frame_needed = 0, uses_anonymous_args = 0
 523              		.loc 6 396 10 is_stmt 0 view .LVU97
 524 0000 2DE9F04F 		push	{r4, r5, r6, r7, r8, r9, r10, fp, lr}
 525              		.cfi_def_cfa_offset 36
 526              		.cfi_offset 4, -36
 527              		.cfi_offset 5, -32
 528              		.cfi_offset 6, -28
 529              		.cfi_offset 7, -24
 530              		.cfi_offset 8, -20
 531              		.cfi_offset 9, -16
 532              		.cfi_offset 10, -12
 533              		.cfi_offset 11, -8
 534              		.cfi_offset 14, -4
 535 0004 85B0     		sub	sp, sp, #20
ARM GAS  /tmp/ccF7J5sE.s 			page 33


 536              		.cfi_def_cfa_offset 56
 537              	.LVL31:
 397:../../libdaisy/src/hid/disp/display.h ****     {
 398:../../libdaisy/src/hid/disp/display.h ****         uint32_t i, b, j;
 399:../../libdaisy/src/hid/disp/display.h **** 
 400:../../libdaisy/src/hid/disp/display.h ****         // Check if character is valid
 401:../../libdaisy/src/hid/disp/display.h ****         if(ch < 32 || ch > 126)
 538              		.loc 6 401 20 view .LVU98
 539 0006 A1F12004 		sub	r4, r1, #32
 396:../../libdaisy/src/hid/disp/display.h ****     {
 540              		.loc 6 396 10 view .LVU99
 541 000a 0091     		str	r1, [sp]
 542 000c 04A9     		add	r1, sp, #16
 543              	.LVL32:
 396:../../libdaisy/src/hid/disp/display.h ****     {
 544              		.loc 6 396 10 view .LVU100
 545 000e 9DF83880 		ldrb	r8, [sp, #56]	@ zero_extendqisi2
 546 0012 01E90C00 		stmdb	r1, {r2, r3}
 547              	.LVL33:
 548              		.loc 6 401 9 view .LVU101
 549 0016 E3B2     		uxtb	r3, r4
 550 0018 5E2B     		cmp	r3, #94
 551 001a 00F29480 		bhi	.L21
 402:../../libdaisy/src/hid/disp/display.h ****             return 0;
 403:../../libdaisy/src/hid/disp/display.h **** 
 404:../../libdaisy/src/hid/disp/display.h ****         // Check remaining space on current line
 405:../../libdaisy/src/hid/disp/display.h ****         if(Width() < (currentX_ + font.FontWidth)
 552              		.loc 6 405 17 view .LVU102
 553 001e 0368     		ldr	r3, [r0]
 554 0020 8146     		mov	r9, r0
 555 0022 5C4A     		ldr	r2, .L57
 556 0024 DB68     		ldr	r3, [r3, #12]
 557 0026 9DF80860 		ldrb	r6, [sp, #8]	@ zero_extendqisi2
 558 002a 9342     		cmp	r3, r2
 559 002c 9DF80950 		ldrb	r5, [sp, #9]	@ zero_extendqisi2
 560 0030 40F09380 		bne	.L48
 561 0034 8020     		movs	r0, #128
 562              	.LVL34:
 563              	.L20:
 564              		.loc 6 405 23 view .LVU103
 565 0036 B9F80430 		ldrh	r3, [r9, #4]
 566              		.loc 6 405 33 view .LVU104
 567 003a 3344     		add	r3, r3, r6
 406:../../libdaisy/src/hid/disp/display.h ****            || Height() < (currentY_ + font.FontHeight))
 568              		.loc 6 406 12 view .LVU105
 569 003c 8342     		cmp	r3, r0
 570 003e 00F38280 		bgt	.L21
 571              		.loc 6 406 21 discriminator 2 view .LVU106
 572 0042 D9F80030 		ldr	r3, [r9]
 573 0046 544A     		ldr	r2, .L57+4
 574 0048 9B68     		ldr	r3, [r3, #8]
 575 004a 9342     		cmp	r3, r2
 576 004c 40F08780 		bne	.L49
 577              		.loc 6 406 21 view .LVU107
 578 0050 4020     		movs	r0, #64
 579              	.L22:
 580              		.loc 6 406 27 discriminator 2 view .LVU108
ARM GAS  /tmp/ccF7J5sE.s 			page 34


 581 0052 B9F80610 		ldrh	r1, [r9, #6]
 582              		.loc 6 406 37 discriminator 2 view .LVU109
 583 0056 4B19     		adds	r3, r1, r5
 584              		.loc 6 406 27 discriminator 2 view .LVU110
 585 0058 0191     		str	r1, [sp, #4]
 586              		.loc 6 406 12 discriminator 2 view .LVU111
 587 005a 8342     		cmp	r3, r0
 588 005c 73DC     		bgt	.L21
 589              	.LVL35:
 407:../../libdaisy/src/hid/disp/display.h ****         {
 408:../../libdaisy/src/hid/disp/display.h ****             // Not enough space on current line
 409:../../libdaisy/src/hid/disp/display.h ****             return 0;
 410:../../libdaisy/src/hid/disp/display.h ****         }
 411:../../libdaisy/src/hid/disp/display.h **** 
 412:../../libdaisy/src/hid/disp/display.h ****         // Use the font to write
 413:../../libdaisy/src/hid/disp/display.h ****         for(i = 0; i < font.FontHeight; i++)
 590              		.loc 6 413 22 is_stmt 1 view .LVU112
 591 005e 002D     		cmp	r5, #0
 592 0060 00F08880 		beq	.L23
 414:../../libdaisy/src/hid/disp/display.h ****         {
 415:../../libdaisy/src/hid/disp/display.h ****             b = font.data[(ch - 32) * font.FontHeight + i];
 593              		.loc 6 415 37 is_stmt 0 view .LVU113
 594 0064 05FB04F4 		mul	r4, r5, r4
 595              		.loc 6 415 22 view .LVU114
 596 0068 039A     		ldr	r2, [sp, #12]
 597 006a 6FF00043 		mvn	r3, #-2147483648
 598 006e B9F804A0 		ldrh	r10, [r9, #4]
 599 0072 2544     		add	r5, r5, r4
 600 0074 A2F1020B 		sub	fp, r2, #2
 601 0078 2344     		add	r3, r3, r4
 602 007a 0BEB450B 		add	fp, fp, r5, lsl #1
 603 007e 0D46     		mov	r5, r1
 604 0080 02EB430E 		add	lr, r2, r3, lsl #1
 605              	.LVL36:
 606              	.L26:
 607              		.loc 6 415 13 view .LVU115
 608 0084 3EF8024F 		ldrh	r4, [lr, #2]!
 609              	.LVL37:
 416:../../libdaisy/src/hid/disp/display.h ****             for(j = 0; j < font.FontWidth; j++)
 610              		.loc 6 416 26 is_stmt 1 view .LVU116
 611 0088 A6B3     		cbz	r6, .L31
 612              	.LBB913:
 613              	.LBB914:
 614              	.LBB915:
 615              	.LBB916:
 616              	.LBB917:
 246:../../libdaisy/src/dev/oled_ssd130x.h ****     }
 617              		.loc 15 246 55 is_stmt 0 view .LVU117
 618 008a 05F00703 		and	r3, r5, #7
 246:../../libdaisy/src/dev/oled_ssd130x.h ****     }
 619              		.loc 15 246 49 view .LVU118
 620 008e 0127     		movs	r7, #1
 246:../../libdaisy/src/dev/oled_ssd130x.h ****     }
 621              		.loc 15 246 28 view .LVU119
 622 0090 E808     		lsrs	r0, r5, #3
 246:../../libdaisy/src/dev/oled_ssd130x.h ****     }
 623              		.loc 15 246 42 view .LVU120
ARM GAS  /tmp/ccF7J5sE.s 			page 35


 624 0092 4146     		mov	r1, r8
 246:../../libdaisy/src/dev/oled_ssd130x.h ****     }
 625              		.loc 15 246 49 view .LVU121
 626 0094 9F40     		lsls	r7, r7, r3
 627              	.LBE917:
 628              	.LBE916:
 629              	.LBE915:
 630              	.LBE914:
 631              	.LBE913:
 632              		.loc 6 416 19 view .LVU122
 633 0096 0022     		movs	r2, #0
 634 0098 0AEBC013 		add	r3, r10, r0, lsl #7
 635              	.LBB935:
 636              	.LBB930:
 637              	.LBB925:
 638              	.LBB921:
 639              	.LBB918:
 246:../../libdaisy/src/dev/oled_ssd130x.h ****     }
 640              		.loc 15 246 42 view .LVU123
 641 009c 7FB2     		sxtb	r7, r7
 642 009e 4B44     		add	r3, r3, r9
 643 00a0 09EBC010 		add	r0, r9, r0, lsl #7
 644 00a4 6FEA070C 		mvn	ip, r7
 645 00a8 B846     		mov	r8, r7
 646 00aa 0F46     		mov	r7, r1
 647 00ac 0CE0     		b	.L32
 648              	.LVL38:
 649              	.L51:
 246:../../libdaisy/src/dev/oled_ssd130x.h ****     }
 650              		.loc 15 246 42 view .LVU124
 651              	.LBE918:
 652              	.LBE921:
 653              	.LBE925:
 654              	.LBE930:
 655              	.LBE935:
 656              	.LBB936:
 657              	.LBI936:
  41:../../libdaisy/src/hid/disp/oled_display.h ****     {
 658              		.loc 5 41 10 is_stmt 1 view .LVU125
 659              	.LBB937:
 660              	.LBI937:
 239:../../libdaisy/src/dev/oled_ssd130x.h ****     {
 661              		.loc 15 239 10 view .LVU126
 662              	.LBB938:
 241:../../libdaisy/src/dev/oled_ssd130x.h ****             return;
 663              		.loc 15 241 9 is_stmt 0 view .LVU127
 664 00ae 7F29     		cmp	r1, #127
 665 00b0 06D8     		bhi	.L28
 666 00b2 3F2D     		cmp	r5, #63
 667 00b4 04D8     		bhi	.L28
 244:../../libdaisy/src/dev/oled_ssd130x.h ****         else
 668              		.loc 15 244 42 view .LVU128
 669 00b6 197D     		ldrb	r1, [r3, #20]	@ zero_extendqisi2
 243:../../libdaisy/src/dev/oled_ssd130x.h ****             buffer_[x + (y / 8) * width] |= (1 << (y % 8));
 670              		.loc 15 243 9 view .LVU129
 671 00b8 A7B1     		cbz	r7, .L30
 672              	.L47:
ARM GAS  /tmp/ccF7J5sE.s 			page 36


 243:../../libdaisy/src/dev/oled_ssd130x.h ****             buffer_[x + (y / 8) * width] |= (1 << (y % 8));
 673              		.loc 15 243 9 view .LVU130
 674              	.LBE938:
 675              	.LBE937:
 676              	.LBE936:
 677              	.LBB941:
 678              	.LBB931:
 679              	.LBB926:
 244:../../libdaisy/src/dev/oled_ssd130x.h ****         else
 680              		.loc 15 244 42 view .LVU131
 681 00ba 48EA0101 		orr	r1, r8, r1
 244:../../libdaisy/src/dev/oled_ssd130x.h ****         else
 682              		.loc 15 244 13 view .LVU132
 683 00be 1975     		strb	r1, [r3, #20]
 684              	.L28:
 685              	.LBE926:
 686              	.LBE931:
 687              	.LBE941:
 688              		.loc 6 416 13 is_stmt 1 discriminator 2 view .LVU133
 689 00c0 0132     		adds	r2, r2, #1
 690              	.LVL39:
 691              		.loc 6 416 26 discriminator 2 view .LVU134
 692 00c2 0133     		adds	r3, r3, #1
 693 00c4 9642     		cmp	r6, r2
 694 00c6 14D0     		beq	.L50
 695              	.LVL40:
 696              	.L32:
 417:../../libdaisy/src/hid/disp/display.h ****             {
 418:../../libdaisy/src/hid/disp/display.h ****                 if((b << j) & 0x8000)
 697              		.loc 6 418 23 is_stmt 0 view .LVU135
 698 00c8 04FA02F1 		lsl	r1, r4, r2
 699              		.loc 6 418 17 view .LVU136
 700 00cc 11F4004F 		tst	r1, #32768
 701              	.LBB942:
 702              	.LBB940:
 703              	.LBB939:
 241:../../libdaisy/src/dev/oled_ssd130x.h ****             return;
 704              		.loc 15 241 14 view .LVU137
 705 00d0 A3EB0001 		sub	r1, r3, r0
 706              	.LBE939:
 707              	.LBE940:
 708              	.LBE942:
 709              		.loc 6 418 17 view .LVU138
 710 00d4 EBD1     		bne	.L51
 711              	.LVL41:
 712              	.LBB943:
 713              	.LBI913:
  41:../../libdaisy/src/hid/disp/oled_display.h ****     {
 714              		.loc 5 41 10 is_stmt 1 view .LVU139
 715              	.LBB932:
 716              	.LBI914:
 239:../../libdaisy/src/dev/oled_ssd130x.h ****     {
 717              		.loc 15 239 10 view .LVU140
 718              	.LBB927:
 241:../../libdaisy/src/dev/oled_ssd130x.h ****             return;
 719              		.loc 15 241 9 is_stmt 0 view .LVU141
 720 00d6 7F29     		cmp	r1, #127
ARM GAS  /tmp/ccF7J5sE.s 			page 37


 721 00d8 F2D8     		bhi	.L28
 722 00da 3F2D     		cmp	r5, #63
 723 00dc F0D8     		bhi	.L28
 244:../../libdaisy/src/dev/oled_ssd130x.h ****         else
 724              		.loc 15 244 42 view .LVU142
 725 00de 197D     		ldrb	r1, [r3, #20]	@ zero_extendqisi2
 243:../../libdaisy/src/dev/oled_ssd130x.h ****             buffer_[x + (y / 8) * width] |= (1 << (y % 8));
 726              		.loc 15 243 9 view .LVU143
 727 00e0 002F     		cmp	r7, #0
 728 00e2 EAD0     		beq	.L47
 729              	.L30:
 730              	.LVL42:
 731              	.LBB922:
 732              	.LBI916:
 239:../../libdaisy/src/dev/oled_ssd130x.h ****     {
 733              		.loc 15 239 10 is_stmt 1 view .LVU144
 239:../../libdaisy/src/dev/oled_ssd130x.h ****     {
 734              		.loc 15 239 10 is_stmt 0 view .LVU145
 735              	.LBE922:
 736              	.LBE927:
 737              	.LBE932:
 738              	.LBE943:
 416:../../libdaisy/src/hid/disp/display.h ****             {
 739              		.loc 6 416 13 view .LVU146
 740 00e4 0132     		adds	r2, r2, #1
 741              	.LVL43:
 742              	.LBB944:
 743              	.LBB933:
 744              	.LBB928:
 745              	.LBB923:
 746              	.LBB919:
 246:../../libdaisy/src/dev/oled_ssd130x.h ****     }
 747              		.loc 15 246 42 view .LVU147
 748 00e6 0CEA0101 		and	r1, ip, r1
 749 00ea 0133     		adds	r3, r3, #1
 750              	.LBE919:
 751              	.LBE923:
 752              	.LBE928:
 753              	.LBE933:
 754              	.LBE944:
 416:../../libdaisy/src/hid/disp/display.h ****             {
 755              		.loc 6 416 26 view .LVU148
 756 00ec 9642     		cmp	r6, r2
 757              	.LBB945:
 758              	.LBB934:
 759              	.LBB929:
 760              	.LBB924:
 761              	.LBB920:
 246:../../libdaisy/src/dev/oled_ssd130x.h ****     }
 762              		.loc 15 246 13 view .LVU149
 763 00ee D974     		strb	r1, [r3, #19]
 246:../../libdaisy/src/dev/oled_ssd130x.h ****     }
 764              		.loc 15 246 13 view .LVU150
 765              	.LBE920:
 766              	.LBE924:
 767              	.LBE929:
 768              	.LBE934:
ARM GAS  /tmp/ccF7J5sE.s 			page 38


 769              	.LBE945:
 416:../../libdaisy/src/hid/disp/display.h ****             {
 770              		.loc 6 416 13 is_stmt 1 view .LVU151
 771              	.LVL44:
 416:../../libdaisy/src/hid/disp/display.h ****             {
 772              		.loc 6 416 26 view .LVU152
 773 00f0 EAD1     		bne	.L32
 774              	.L50:
 416:../../libdaisy/src/hid/disp/display.h ****             {
 775              		.loc 6 416 26 is_stmt 0 view .LVU153
 776 00f2 B846     		mov	r8, r7
 777              	.LVL45:
 778              	.L31:
 413:../../libdaisy/src/hid/disp/display.h ****         {
 779              		.loc 6 413 9 is_stmt 1 view .LVU154
 413:../../libdaisy/src/hid/disp/display.h ****         {
 780              		.loc 6 413 22 view .LVU155
 781 00f4 F345     		cmp	fp, lr
 782 00f6 05F10105 		add	r5, r5, #1
 783 00fa C3D1     		bne	.L26
 784              	.LVL46:
 785              	.L25:
 786              	.LBB946:
 787              	.LBB947:
 173:../../libdaisy/src/hid/disp/display.h ****         currentY_ = (y >= Height()) ? Height() - 1 : y;
 788              		.loc 6 173 33 is_stmt 0 view .LVU156
 789 00fc D9F80030 		ldr	r3, [r9]
 790              	.LBE947:
 791              	.LBE946:
 419:../../libdaisy/src/hid/disp/display.h ****                 {
 420:../../libdaisy/src/hid/disp/display.h ****                     ((ChildType*)(this))
 421:../../libdaisy/src/hid/disp/display.h ****                         ->ChildType::DrawPixel(
 422:../../libdaisy/src/hid/disp/display.h ****                             currentX_ + j, (currentY_ + i), on);
 423:../../libdaisy/src/hid/disp/display.h ****                 }
 424:../../libdaisy/src/hid/disp/display.h ****                 else
 425:../../libdaisy/src/hid/disp/display.h ****                 {
 426:../../libdaisy/src/hid/disp/display.h ****                     ((ChildType*)(this))
 427:../../libdaisy/src/hid/disp/display.h ****                         ->ChildType::DrawPixel(
 428:../../libdaisy/src/hid/disp/display.h ****                             currentX_ + j, (currentY_ + i), !on);
 429:../../libdaisy/src/hid/disp/display.h ****                 }
 430:../../libdaisy/src/hid/disp/display.h ****             }
 431:../../libdaisy/src/hid/disp/display.h ****         }
 432:../../libdaisy/src/hid/disp/display.h **** 
 433:../../libdaisy/src/hid/disp/display.h ****         // The current space is now taken
 434:../../libdaisy/src/hid/disp/display.h ****         SetCursor(currentX_ + font.FontWidth, currentY_);
 792              		.loc 6 434 18 view .LVU157
 793 0100 0AEB0604 		add	r4, r10, r6
 794 0104 2349     		ldr	r1, .L57
 795              	.LBB952:
 796              	.LBB948:
 173:../../libdaisy/src/hid/disp/display.h ****         currentY_ = (y >= Height()) ? Height() - 1 : y;
 797              		.loc 6 173 33 view .LVU158
 798 0106 DA68     		ldr	r2, [r3, #12]
 799              	.LBE948:
 800              	.LBE952:
 801              		.loc 6 434 18 view .LVU159
 802 0108 A4B2     		uxth	r4, r4
ARM GAS  /tmp/ccF7J5sE.s 			page 39


 803              	.LVL47:
 804              	.LBB953:
 805              	.LBI946:
 171:../../libdaisy/src/hid/disp/display.h ****     {
 806              		.loc 6 171 10 is_stmt 1 view .LVU160
 807              	.LBB949:
 173:../../libdaisy/src/hid/disp/display.h ****         currentY_ = (y >= Height()) ? Height() - 1 : y;
 808              		.loc 6 173 9 view .LVU161
 809 010a 8A42     		cmp	r2, r1
 810 010c 2DD1     		bne	.L52
 173:../../libdaisy/src/hid/disp/display.h ****         currentY_ = (y >= Height()) ? Height() - 1 : y;
 811              		.loc 6 173 33 is_stmt 0 view .LVU162
 812 010e 8020     		movs	r0, #128
 813              	.L33:
 173:../../libdaisy/src/hid/disp/display.h ****         currentY_ = (y >= Height()) ? Height() - 1 : y;
 814              		.loc 6 173 19 view .LVU163
 815 0110 8442     		cmp	r4, r0
 816 0112 1CD2     		bcs	.L53
 817              	.LVL48:
 818              	.L34:
 174:../../libdaisy/src/hid/disp/display.h ****     }
 819              		.loc 6 174 34 view .LVU164
 820 0114 9B68     		ldr	r3, [r3, #8]
 821 0116 204A     		ldr	r2, .L57+4
 173:../../libdaisy/src/hid/disp/display.h ****         currentY_ = (y >= Height()) ? Height() - 1 : y;
 822              		.loc 6 173 19 view .LVU165
 823 0118 A9F80440 		strh	r4, [r9, #4]	@ movhi
 174:../../libdaisy/src/hid/disp/display.h ****     }
 824              		.loc 6 174 9 is_stmt 1 view .LVU166
 825 011c 9342     		cmp	r3, r2
 826 011e 21D1     		bne	.L54
 174:../../libdaisy/src/hid/disp/display.h ****     }
 827              		.loc 6 174 34 is_stmt 0 view .LVU167
 828 0120 4020     		movs	r0, #64
 829              	.L36:
 174:../../libdaisy/src/hid/disp/display.h ****     }
 830              		.loc 6 174 19 view .LVU168
 831 0122 019B     		ldr	r3, [sp, #4]
 832 0124 8342     		cmp	r3, r0
 833 0126 07D3     		bcc	.L37
 174:../../libdaisy/src/hid/disp/display.h ****     }
 834              		.loc 6 174 46 view .LVU169
 835 0128 D9F80030 		ldr	r3, [r9]
 836 012c 1A4A     		ldr	r2, .L57+4
 837 012e 9B68     		ldr	r3, [r3, #8]
 838 0130 9342     		cmp	r3, r2
 839 0132 29D1     		bne	.L55
 840 0134 3F23     		movs	r3, #63
 841 0136 0193     		str	r3, [sp, #4]
 842              	.LVL49:
 843              	.L37:
 174:../../libdaisy/src/hid/disp/display.h ****     }
 844              		.loc 6 174 19 view .LVU170
 845 0138 DDE90003 		ldrd	r0, r3, [sp]
 846 013c A9F80630 		strh	r3, [r9, #6]	@ movhi
 847              	.LVL50:
 174:../../libdaisy/src/hid/disp/display.h ****     }
ARM GAS  /tmp/ccF7J5sE.s 			page 40


 848              		.loc 6 174 19 view .LVU171
 849              	.LBE949:
 850              	.LBE953:
 435:../../libdaisy/src/hid/disp/display.h **** 
 436:../../libdaisy/src/hid/disp/display.h ****         // Return written char for validation
 437:../../libdaisy/src/hid/disp/display.h ****         return ch;
 438:../../libdaisy/src/hid/disp/display.h ****     }
 851              		.loc 6 438 5 view .LVU172
 852 0140 05B0     		add	sp, sp, #20
 853              		.cfi_remember_state
 854              		.cfi_def_cfa_offset 36
 855              		@ sp needed
 856 0142 BDE8F08F 		pop	{r4, r5, r6, r7, r8, r9, r10, fp, pc}
 857              	.LVL51:
 858              	.L21:
 859              		.cfi_restore_state
 402:../../libdaisy/src/hid/disp/display.h **** 
 860              		.loc 6 402 20 view .LVU173
 861 0146 0020     		movs	r0, #0
 862              		.loc 6 438 5 view .LVU174
 863 0148 05B0     		add	sp, sp, #20
 864              		.cfi_remember_state
 865              		.cfi_def_cfa_offset 36
 866              		@ sp needed
 867 014a BDE8F08F 		pop	{r4, r5, r6, r7, r8, r9, r10, fp, pc}
 868              	.LVL52:
 869              	.L53:
 870              		.cfi_restore_state
 871              	.LBB954:
 872              	.LBB950:
 173:../../libdaisy/src/hid/disp/display.h ****         currentY_ = (y >= Height()) ? Height() - 1 : y;
 873              		.loc 6 173 44 view .LVU175
 874 014e DA68     		ldr	r2, [r3, #12]
 875 0150 1049     		ldr	r1, .L57
 876 0152 8A42     		cmp	r2, r1
 877 0154 11D1     		bne	.L56
 878 0156 7F24     		movs	r4, #127
 879              	.LVL53:
 173:../../libdaisy/src/hid/disp/display.h ****         currentY_ = (y >= Height()) ? Height() - 1 : y;
 880              		.loc 6 173 44 view .LVU176
 881 0158 DCE7     		b	.L34
 882              	.LVL54:
 883              	.L48:
 173:../../libdaisy/src/hid/disp/display.h ****         currentY_ = (y >= Height()) ? Height() - 1 : y;
 884              		.loc 6 173 44 view .LVU177
 885              	.LBE950:
 886              	.LBE954:
 405:../../libdaisy/src/hid/disp/display.h ****            || Height() < (currentY_ + font.FontHeight))
 887              		.loc 6 405 17 view .LVU178
 888 015a 9847     		blx	r3
 889              	.LVL55:
 405:../../libdaisy/src/hid/disp/display.h ****            || Height() < (currentY_ + font.FontHeight))
 890              		.loc 6 405 17 view .LVU179
 891 015c 6BE7     		b	.L20
 892              	.L49:
 406:../../libdaisy/src/hid/disp/display.h ****         {
 893              		.loc 6 406 21 discriminator 2 view .LVU180
ARM GAS  /tmp/ccF7J5sE.s 			page 41


 894 015e 4846     		mov	r0, r9
 895 0160 9847     		blx	r3
 896              	.LVL56:
 897 0162 76E7     		b	.L22
 898              	.LVL57:
 899              	.L54:
 900              	.LBB955:
 901              	.LBB951:
 174:../../libdaisy/src/hid/disp/display.h ****     }
 902              		.loc 6 174 33 view .LVU181
 903 0164 4846     		mov	r0, r9
 904 0166 9847     		blx	r3
 905              	.LVL58:
 906 0168 DBE7     		b	.L36
 907              	.LVL59:
 908              	.L52:
 173:../../libdaisy/src/hid/disp/display.h ****         currentY_ = (y >= Height()) ? Height() - 1 : y;
 909              		.loc 6 173 32 view .LVU182
 910 016a 4846     		mov	r0, r9
 911 016c 9047     		blx	r2
 912              	.LVL60:
 913 016e D9F80030 		ldr	r3, [r9]
 914 0172 CDE7     		b	.L33
 915              	.LVL61:
 916              	.L23:
 173:../../libdaisy/src/hid/disp/display.h ****         currentY_ = (y >= Height()) ? Height() - 1 : y;
 917              		.loc 6 173 32 view .LVU183
 918 0174 B9F804A0 		ldrh	r10, [r9, #4]
 919 0178 C0E7     		b	.L25
 920              	.LVL62:
 921              	.L56:
 173:../../libdaisy/src/hid/disp/display.h ****         currentY_ = (y >= Height()) ? Height() - 1 : y;
 922              		.loc 6 173 43 view .LVU184
 923 017a 4846     		mov	r0, r9
 924 017c 9047     		blx	r2
 925              	.LVL63:
 926 017e 0138     		subs	r0, r0, #1
 927 0180 D9F80030 		ldr	r3, [r9]
 928 0184 84B2     		uxth	r4, r0
 929              	.LVL64:
 173:../../libdaisy/src/hid/disp/display.h ****         currentY_ = (y >= Height()) ? Height() - 1 : y;
 930              		.loc 6 173 43 view .LVU185
 931 0186 C5E7     		b	.L34
 932              	.L55:
 174:../../libdaisy/src/hid/disp/display.h ****     }
 933              		.loc 6 174 45 view .LVU186
 934 0188 4846     		mov	r0, r9
 935 018a 9847     		blx	r3
 936              	.LVL65:
 937 018c 0138     		subs	r0, r0, #1
 938 018e 83B2     		uxth	r3, r0
 939 0190 0193     		str	r3, [sp, #4]
 940              	.LVL66:
 174:../../libdaisy/src/hid/disp/display.h ****     }
 941              		.loc 6 174 45 view .LVU187
 942 0192 D1E7     		b	.L37
 943              	.L58:
ARM GAS  /tmp/ccF7J5sE.s 			page 42


 944              		.align	2
 945              	.L57:
 946 0194 00000000 		.word	_ZNK5daisy11OledDisplayINS_13SSD130xDriverILj128ELj64ENS_24SSD130x4WireSpiTransportEEEE5Widt
 947 0198 00000000 		.word	_ZNK5daisy11OledDisplayINS_13SSD130xDriverILj128ELj64ENS_24SSD130x4WireSpiTransportEEEE6Heig
 948              	.LBE951:
 949              	.LBE955:
 950              		.cfi_endproc
 951              	.LFE4690:
 953              		.section	.text._ZN5daisy11OledDisplayINS_13SSD130xDriverILj128ELj64ENS_24SSD130x4WireSpiTransportE
 954              		.align	1
 955              		.p2align 2,,3
 956              		.weak	_ZN5daisy11OledDisplayINS_13SSD130xDriverILj128ELj64ENS_24SSD130x4WireSpiTransportEEEE9DrawP
 957              		.syntax unified
 958              		.thumb
 959              		.thumb_func
 960              		.fpu fpv5-d16
 962              	_ZN5daisy11OledDisplayINS_13SSD130xDriverILj128ELj64ENS_24SSD130x4WireSpiTransportEEEE9DrawPixelEjj
 963              	.LVL67:
 964              	.LFB4736:
  41:../../libdaisy/src/hid/disp/oled_display.h ****     {
 965              		.loc 5 41 10 is_stmt 1 view -0
 966              		.cfi_startproc
 967              		@ args = 0, pretend = 0, frame = 0
 968              		@ frame_needed = 0, uses_anonymous_args = 0
 969              		@ link register save eliminated.
 970              	.LBB960:
 971              	.LBI960:
 239:../../libdaisy/src/dev/oled_ssd130x.h ****     {
 972              		.loc 15 239 10 view .LVU189
 973              	.LBB961:
 241:../../libdaisy/src/dev/oled_ssd130x.h ****             return;
 974              		.loc 15 241 9 is_stmt 0 view .LVU190
 975 0000 7F29     		cmp	r1, #127
 976 0002 21D8     		bhi	.L63
 977 0004 3F2A     		cmp	r2, #63
 978 0006 1FD8     		bhi	.L63
 979              	.LBE961:
 980              	.LBE960:
  41:../../libdaisy/src/hid/disp/oled_display.h ****     {
 981              		.loc 5 41 10 view .LVU191
 982 0008 10B4     		push	{r4}
 983              		.cfi_def_cfa_offset 4
 984              		.cfi_offset 4, -4
 985              	.LBB966:
 986              	.LBB964:
 243:../../libdaisy/src/dev/oled_ssd130x.h ****             buffer_[x + (y / 8) * width] |= (1 << (y % 8));
 987              		.loc 15 243 9 view .LVU192
 988 000a 73B9     		cbnz	r3, .L66
 989              	.LVL68:
 990              	.LBB962:
 991              	.LBI962:
 239:../../libdaisy/src/dev/oled_ssd130x.h ****     {
 992              		.loc 15 239 10 is_stmt 1 view .LVU193
 993              	.LBB963:
 246:../../libdaisy/src/dev/oled_ssd130x.h ****     }
 994              		.loc 15 246 28 is_stmt 0 view .LVU194
 995 000c D308     		lsrs	r3, r2, #3
ARM GAS  /tmp/ccF7J5sE.s 			page 43


 996              	.LVL69:
 246:../../libdaisy/src/dev/oled_ssd130x.h ****     }
 997              		.loc 15 246 49 view .LVU195
 998 000e 0124     		movs	r4, #1
 246:../../libdaisy/src/dev/oled_ssd130x.h ****     }
 999              		.loc 15 246 55 view .LVU196
 1000 0010 02F00702 		and	r2, r2, #7
 1001              	.LVL70:
 246:../../libdaisy/src/dev/oled_ssd130x.h ****     }
 1002              		.loc 15 246 42 view .LVU197
 1003 0014 01EBC313 		add	r3, r1, r3, lsl #7
 246:../../libdaisy/src/dev/oled_ssd130x.h ****     }
 1004              		.loc 15 246 49 view .LVU198
 1005 0018 9440     		lsls	r4, r4, r2
 246:../../libdaisy/src/dev/oled_ssd130x.h ****     }
 1006              		.loc 15 246 13 view .LVU199
 1007 001a C118     		adds	r1, r0, r3
 1008              	.LVL71:
 246:../../libdaisy/src/dev/oled_ssd130x.h ****     }
 1009              		.loc 15 246 42 view .LVU200
 1010 001c 0A7D     		ldrb	r2, [r1, #20]	@ zero_extendqisi2
 1011 001e 22EA0402 		bic	r2, r2, r4
 246:../../libdaisy/src/dev/oled_ssd130x.h ****     }
 1012              		.loc 15 246 13 view .LVU201
 1013 0022 0A75     		strb	r2, [r1, #20]
 1014              	.LVL72:
 246:../../libdaisy/src/dev/oled_ssd130x.h ****     }
 1015              		.loc 15 246 13 view .LVU202
 1016              	.LBE963:
 1017              	.LBE962:
 1018              	.LBE964:
 1019              	.LBE966:
  44:../../libdaisy/src/hid/disp/oled_display.h **** 
 1020              		.loc 5 44 5 view .LVU203
 1021 0024 5DF8044B 		ldr	r4, [sp], #4
 1022              		.cfi_remember_state
 1023              		.cfi_restore 4
 1024              		.cfi_def_cfa_offset 0
 1025 0028 7047     		bx	lr
 1026              	.LVL73:
 1027              	.L66:
 1028              		.cfi_restore_state
 1029              	.LBB967:
 1030              	.LBB965:
 244:../../libdaisy/src/dev/oled_ssd130x.h ****         else
 1031              		.loc 15 244 28 view .LVU204
 1032 002a D408     		lsrs	r4, r2, #3
 244:../../libdaisy/src/dev/oled_ssd130x.h ****         else
 1033              		.loc 15 244 48 view .LVU205
 1034 002c 0123     		movs	r3, #1
 1035              	.LVL74:
 244:../../libdaisy/src/dev/oled_ssd130x.h ****         else
 1036              		.loc 15 244 54 view .LVU206
 1037 002e 02F00702 		and	r2, r2, #7
 1038              	.LVL75:
 244:../../libdaisy/src/dev/oled_ssd130x.h ****         else
 1039              		.loc 15 244 42 view .LVU207
ARM GAS  /tmp/ccF7J5sE.s 			page 44


 1040 0032 01EBC414 		add	r4, r1, r4, lsl #7
 244:../../libdaisy/src/dev/oled_ssd130x.h ****         else
 1041              		.loc 15 244 48 view .LVU208
 1042 0036 03FA02F2 		lsl	r2, r3, r2
 244:../../libdaisy/src/dev/oled_ssd130x.h ****         else
 1043              		.loc 15 244 13 view .LVU209
 1044 003a 0119     		adds	r1, r0, r4
 1045              	.LVL76:
 244:../../libdaisy/src/dev/oled_ssd130x.h ****         else
 1046              		.loc 15 244 42 view .LVU210
 1047 003c 0B7D     		ldrb	r3, [r1, #20]	@ zero_extendqisi2
 1048 003e 1A43     		orrs	r2, r2, r3
 244:../../libdaisy/src/dev/oled_ssd130x.h ****         else
 1049              		.loc 15 244 13 view .LVU211
 1050 0040 0A75     		strb	r2, [r1, #20]
 1051              	.LBE965:
 1052              	.LBE967:
  44:../../libdaisy/src/hid/disp/oled_display.h **** 
 1053              		.loc 5 44 5 view .LVU212
 1054 0042 5DF8044B 		ldr	r4, [sp], #4
 1055              		.cfi_restore 4
 1056              		.cfi_def_cfa_offset 0
 1057 0046 7047     		bx	lr
 1058              	.LVL77:
 1059              	.L63:
  44:../../libdaisy/src/hid/disp/oled_display.h **** 
 1060              		.loc 5 44 5 view .LVU213
 1061 0048 7047     		bx	lr
 1062              		.cfi_endproc
 1063              	.LFE4736:
 1065 004a 00BF     		.section	.text._ZN5daisy25OneBitGraphicsDisplayImplINS_11OledDisplayINS_13SSD130xDriverILj128ELj64
 1066              		.align	1
 1067              		.p2align 2,,3
 1068              		.weak	_ZN5daisy25OneBitGraphicsDisplayImplINS_11OledDisplayINS_13SSD130xDriverILj128ELj64ENS_24SSD
 1069              		.syntax unified
 1070              		.thumb
 1071              		.thumb_func
 1072              		.fpu fpv5-d16
 1074              	_ZN5daisy25OneBitGraphicsDisplayImplINS_11OledDisplayINS_13SSD130xDriverILj128ELj64ENS_24SSD130x4Wi
 1075              	.LVL78:
 1076              	.LFB4559:
 439:../../libdaisy/src/hid/disp/display.h **** 
 440:../../libdaisy/src/hid/disp/display.h ****     char WriteString(const char* str, FontDef font, bool on) override
 1077              		.loc 6 440 10 is_stmt 1 view -0
 1078              		.cfi_startproc
 1079              		@ args = 4, pretend = 0, frame = 32
 1080              		@ frame_needed = 0, uses_anonymous_args = 0
 1081              		.loc 6 440 10 is_stmt 0 view .LVU215
 1082 0000 2DE9F04F 		push	{r4, r5, r6, r7, r8, r9, r10, fp, lr}
 1083              		.cfi_def_cfa_offset 36
 1084              		.cfi_offset 4, -36
 1085              		.cfi_offset 5, -32
 1086              		.cfi_offset 6, -28
 1087              		.cfi_offset 7, -24
 1088              		.cfi_offset 8, -20
 1089              		.cfi_offset 9, -16
 1090              		.cfi_offset 10, -12
ARM GAS  /tmp/ccF7J5sE.s 			page 45


 1091              		.cfi_offset 11, -8
 1092              		.cfi_offset 14, -4
 1093 0004 89B0     		sub	sp, sp, #36
 1094              		.cfi_def_cfa_offset 72
 1095              		.loc 6 440 10 view .LVU216
 1096 0006 8B46     		mov	fp, r1
 441:../../libdaisy/src/hid/disp/display.h ****     {
 442:../../libdaisy/src/hid/disp/display.h ****         // Write until null-byte
 443:../../libdaisy/src/hid/disp/display.h ****         while(*str)
 1097              		.loc 6 443 9 is_stmt 1 view .LVU217
 1098 0008 91F80090 		ldrb	r9, [r1]	@ zero_extendqisi2
 440:../../libdaisy/src/hid/disp/display.h ****     {
 1099              		.loc 6 440 10 is_stmt 0 view .LVU218
 1100 000c 9DF84840 		ldrb	r4, [sp, #72]	@ zero_extendqisi2
 1101 0010 08A9     		add	r1, sp, #32
 1102              	.LVL79:
 440:../../libdaisy/src/hid/disp/display.h ****     {
 1103              		.loc 6 440 10 view .LVU219
 1104 0012 0494     		str	r4, [sp, #16]
 1105 0014 01E90C00 		stmdb	r1, {r2, r3}
 1106              		.loc 6 443 9 view .LVU220
 1107 0018 B9F1000F 		cmp	r9, #0
 1108 001c 00F0B780 		beq	.L91
 1109 0020 9DF81930 		ldrb	r3, [sp, #25]	@ zero_extendqisi2
 1110 0024 8046     		mov	r8, r0
 1111 0026 9DF818A0 		ldrb	r10, [sp, #24]	@ zero_extendqisi2
 1112 002a 4D46     		mov	r5, r9
 1113 002c 0193     		str	r3, [sp, #4]
 1114 002e 079B     		ldr	r3, [sp, #28]
 1115 0030 0593     		str	r3, [sp, #20]
 1116              	.LVL80:
 1117              	.L92:
 1118              	.LBB996:
 1119              	.LBI996:
 396:../../libdaisy/src/hid/disp/display.h ****     {
 1120              		.loc 6 396 10 is_stmt 1 view .LVU221
 1121              	.LBB997:
 401:../../libdaisy/src/hid/disp/display.h ****             return 0;
 1122              		.loc 6 401 20 is_stmt 0 view .LVU222
 1123 0032 A5F12004 		sub	r4, r5, #32
 401:../../libdaisy/src/hid/disp/display.h ****             return 0;
 1124              		.loc 6 401 9 view .LVU223
 1125 0036 E3B2     		uxtb	r3, r4
 1126 0038 5E2B     		cmp	r3, #94
 1127 003a 00F2AC80 		bhi	.L73
 405:../../libdaisy/src/hid/disp/display.h ****            || Height() < (currentY_ + font.FontHeight))
 1128              		.loc 6 405 17 view .LVU224
 1129 003e D8F80030 		ldr	r3, [r8]
 1130 0042 654A     		ldr	r2, .L113
 1131 0044 DB68     		ldr	r3, [r3, #12]
 1132 0046 9342     		cmp	r3, r2
 1133 0048 40F0A780 		bne	.L106
 1134 004c 8020     		movs	r0, #128
 1135              	.L72:
 405:../../libdaisy/src/hid/disp/display.h ****            || Height() < (currentY_ + font.FontHeight))
 1136              		.loc 6 405 23 view .LVU225
 1137 004e B8F80430 		ldrh	r3, [r8, #4]
ARM GAS  /tmp/ccF7J5sE.s 			page 46


 405:../../libdaisy/src/hid/disp/display.h ****            || Height() < (currentY_ + font.FontHeight))
 1138              		.loc 6 405 33 view .LVU226
 1139 0052 5344     		add	r3, r3, r10
 406:../../libdaisy/src/hid/disp/display.h ****         {
 1140              		.loc 6 406 12 view .LVU227
 1141 0054 8342     		cmp	r3, r0
 1142 0056 00F39E80 		bgt	.L73
 406:../../libdaisy/src/hid/disp/display.h ****         {
 1143              		.loc 6 406 21 view .LVU228
 1144 005a D8F80030 		ldr	r3, [r8]
 1145 005e 5F4A     		ldr	r2, .L113+4
 1146 0060 9B68     		ldr	r3, [r3, #8]
 1147 0062 9342     		cmp	r3, r2
 1148 0064 40F09C80 		bne	.L107
 1149 0068 4020     		movs	r0, #64
 1150              	.L74:
 406:../../libdaisy/src/hid/disp/display.h ****         {
 1151              		.loc 6 406 27 view .LVU229
 1152 006a B8F80610 		ldrh	r1, [r8, #6]
 406:../../libdaisy/src/hid/disp/display.h ****         {
 1153              		.loc 6 406 37 view .LVU230
 1154 006e 019A     		ldr	r2, [sp, #4]
 406:../../libdaisy/src/hid/disp/display.h ****         {
 1155              		.loc 6 406 27 view .LVU231
 1156 0070 0091     		str	r1, [sp]
 406:../../libdaisy/src/hid/disp/display.h ****         {
 1157              		.loc 6 406 37 view .LVU232
 1158 0072 8B18     		adds	r3, r1, r2
 406:../../libdaisy/src/hid/disp/display.h ****         {
 1159              		.loc 6 406 12 view .LVU233
 1160 0074 8342     		cmp	r3, r0
 1161 0076 00F38E80 		bgt	.L73
 1162              	.LVL81:
 413:../../libdaisy/src/hid/disp/display.h ****         {
 1163              		.loc 6 413 22 is_stmt 1 view .LVU234
 1164 007a 1046     		mov	r0, r2
 1165 007c 002A     		cmp	r2, #0
 1166 007e 00F09A80 		beq	.L75
 415:../../libdaisy/src/hid/disp/display.h ****             for(j = 0; j < font.FontWidth; j++)
 1167              		.loc 6 415 37 is_stmt 0 view .LVU235
 1168 0082 1346     		mov	r3, r2
 1169 0084 6FF00046 		mvn	r6, #-2147483648
 1170 0088 B8F80470 		ldrh	r7, [r8, #4]
 1171 008c 03FB04F3 		mul	r3, r3, r4
 1172 0090 059C     		ldr	r4, [sp, #20]
 1173 0092 BE46     		mov	lr, r7
 1174 0094 CDF80CB0 		str	fp, [sp, #12]
 1175 0098 1E44     		add	r6, r6, r3
 1176 009a A21E     		subs	r2, r4, #2
 1177 009c 0344     		add	r3, r3, r0
 1178 009e 5746     		mov	r7, r10
 1179 00a0 04EB4606 		add	r6, r4, r6, lsl #1
 1180 00a4 DDF81090 		ldr	r9, [sp, #16]
 1181 00a8 02EB4303 		add	r3, r2, r3, lsl #1
 1182 00ac 0295     		str	r5, [sp, #8]
 1183 00ae 9B46     		mov	fp, r3
 1184              	.LVL82:
ARM GAS  /tmp/ccF7J5sE.s 			page 47


 1185              	.L78:
 415:../../libdaisy/src/hid/disp/display.h ****             for(j = 0; j < font.FontWidth; j++)
 1186              		.loc 6 415 13 view .LVU236
 1187 00b0 36F802AF 		ldrh	r10, [r6, #2]!
 1188              	.LVL83:
 416:../../libdaisy/src/hid/disp/display.h ****             {
 1189              		.loc 6 416 26 is_stmt 1 view .LVU237
 1190 00b4 A7B3     		cbz	r7, .L83
 1191              	.LBB998:
 1192              	.LBB999:
 1193              	.LBB1000:
 1194              	.LBB1001:
 1195              	.LBB1002:
 246:../../libdaisy/src/dev/oled_ssd130x.h ****     }
 1196              		.loc 15 246 49 is_stmt 0 view .LVU238
 1197 00b6 0124     		movs	r4, #1
 246:../../libdaisy/src/dev/oled_ssd130x.h ****     }
 1198              		.loc 15 246 55 view .LVU239
 1199 00b8 01F00702 		and	r2, r1, #7
 246:../../libdaisy/src/dev/oled_ssd130x.h ****     }
 1200              		.loc 15 246 28 view .LVU240
 1201 00bc C808     		lsrs	r0, r1, #3
 1202 00be 0EF11403 		add	r3, lr, #20
 246:../../libdaisy/src/dev/oled_ssd130x.h ****     }
 1203              		.loc 15 246 49 view .LVU241
 1204 00c2 04FA02F2 		lsl	r2, r4, r2
 1205 00c6 7446     		mov	r4, lr
 1206 00c8 03EBC013 		add	r3, r3, r0, lsl #7
 1207              	.LBE1002:
 1208              	.LBE1001:
 1209              	.LBE1000:
 1210              	.LBE999:
 1211              	.LBE998:
 416:../../libdaisy/src/hid/disp/display.h ****             {
 1212              		.loc 6 416 19 view .LVU242
 1213 00cc 0020     		movs	r0, #0
 1214              	.LBB1020:
 1215              	.LBB1015:
 1216              	.LBB1010:
 1217              	.LBB1006:
 1218              	.LBB1003:
 246:../../libdaisy/src/dev/oled_ssd130x.h ****     }
 1219              		.loc 15 246 42 view .LVU243
 1220 00ce 52B2     		sxtb	r2, r2
 1221 00d0 4344     		add	r3, r3, r8
 1222 00d2 6FEA020C 		mvn	ip, r2
 1223 00d6 0EE0     		b	.L84
 1224              	.LVL84:
 1225              	.L108:
 246:../../libdaisy/src/dev/oled_ssd130x.h ****     }
 1226              		.loc 15 246 42 view .LVU244
 1227              	.LBE1003:
 1228              	.LBE1006:
 1229              	.LBE1010:
 1230              	.LBE1015:
 1231              	.LBE1020:
 1232              	.LBB1021:
ARM GAS  /tmp/ccF7J5sE.s 			page 48


 1233              	.LBI1021:
  41:../../libdaisy/src/hid/disp/oled_display.h ****     {
 1234              		.loc 5 41 10 is_stmt 1 view .LVU245
 1235              	.LBB1022:
 1236              	.LBI1022:
 239:../../libdaisy/src/dev/oled_ssd130x.h ****     {
 1237              		.loc 15 239 10 view .LVU246
 1238              	.LBB1023:
 241:../../libdaisy/src/dev/oled_ssd130x.h ****             return;
 1239              		.loc 15 241 9 is_stmt 0 view .LVU247
 1240 00d8 7F2C     		cmp	r4, #127
 1241 00da 07D8     		bhi	.L80
 1242 00dc 3F29     		cmp	r1, #63
 1243 00de 05D8     		bhi	.L80
 244:../../libdaisy/src/dev/oled_ssd130x.h ****         else
 1244              		.loc 15 244 42 view .LVU248
 1245 00e0 1D78     		ldrb	r5, [r3]	@ zero_extendqisi2
 243:../../libdaisy/src/dev/oled_ssd130x.h ****             buffer_[x + (y / 8) * width] |= (1 << (y % 8));
 1246              		.loc 15 243 9 view .LVU249
 1247 00e2 B9F1000F 		cmp	r9, #0
 1248 00e6 12D0     		beq	.L82
 1249              	.L105:
 243:../../libdaisy/src/dev/oled_ssd130x.h ****             buffer_[x + (y / 8) * width] |= (1 << (y % 8));
 1250              		.loc 15 243 9 view .LVU250
 1251              	.LBE1023:
 1252              	.LBE1022:
 1253              	.LBE1021:
 1254              	.LBB1024:
 1255              	.LBB1016:
 1256              	.LBB1011:
 244:../../libdaisy/src/dev/oled_ssd130x.h ****         else
 1257              		.loc 15 244 42 view .LVU251
 1258 00e8 1543     		orrs	r5, r5, r2
 244:../../libdaisy/src/dev/oled_ssd130x.h ****         else
 1259              		.loc 15 244 13 view .LVU252
 1260 00ea 1D70     		strb	r5, [r3]
 1261              	.L80:
 1262              	.LBE1011:
 1263              	.LBE1016:
 1264              	.LBE1024:
 416:../../libdaisy/src/hid/disp/display.h ****             {
 1265              		.loc 6 416 13 is_stmt 1 view .LVU253
 1266 00ec 0130     		adds	r0, r0, #1
 1267              	.LVL85:
 416:../../libdaisy/src/hid/disp/display.h ****             {
 1268              		.loc 6 416 26 view .LVU254
 1269 00ee 0133     		adds	r3, r3, #1
 1270 00f0 0134     		adds	r4, r4, #1
 1271 00f2 B842     		cmp	r0, r7
 1272 00f4 14D0     		beq	.L83
 1273              	.LVL86:
 1274              	.L84:
 418:../../libdaisy/src/hid/disp/display.h ****                 {
 1275              		.loc 6 418 23 is_stmt 0 view .LVU255
 1276 00f6 0AFA00F5 		lsl	r5, r10, r0
 418:../../libdaisy/src/hid/disp/display.h ****                 {
 1277              		.loc 6 418 17 view .LVU256
ARM GAS  /tmp/ccF7J5sE.s 			page 49


 1278 00fa 2D04     		lsls	r5, r5, #16
 1279 00fc ECD4     		bmi	.L108
 1280              	.LVL87:
 1281              	.LBB1025:
 1282              	.LBI998:
  41:../../libdaisy/src/hid/disp/oled_display.h ****     {
 1283              		.loc 5 41 10 is_stmt 1 view .LVU257
 1284              	.LBB1017:
 1285              	.LBI999:
 239:../../libdaisy/src/dev/oled_ssd130x.h ****     {
 1286              		.loc 15 239 10 view .LVU258
 1287              	.LBB1012:
 241:../../libdaisy/src/dev/oled_ssd130x.h ****             return;
 1288              		.loc 15 241 9 is_stmt 0 view .LVU259
 1289 00fe 7F2C     		cmp	r4, #127
 1290 0100 F4D8     		bhi	.L80
 1291 0102 3F29     		cmp	r1, #63
 1292 0104 F2D8     		bhi	.L80
 244:../../libdaisy/src/dev/oled_ssd130x.h ****         else
 1293              		.loc 15 244 42 view .LVU260
 1294 0106 1D78     		ldrb	r5, [r3]	@ zero_extendqisi2
 243:../../libdaisy/src/dev/oled_ssd130x.h ****             buffer_[x + (y / 8) * width] |= (1 << (y % 8));
 1295              		.loc 15 243 9 view .LVU261
 1296 0108 B9F1000F 		cmp	r9, #0
 1297 010c ECD0     		beq	.L105
 1298              	.L82:
 1299              	.LVL88:
 1300              	.LBB1007:
 1301              	.LBI1001:
 239:../../libdaisy/src/dev/oled_ssd130x.h ****     {
 1302              		.loc 15 239 10 is_stmt 1 view .LVU262
 239:../../libdaisy/src/dev/oled_ssd130x.h ****     {
 1303              		.loc 15 239 10 is_stmt 0 view .LVU263
 1304              	.LBE1007:
 1305              	.LBE1012:
 1306              	.LBE1017:
 1307              	.LBE1025:
 416:../../libdaisy/src/hid/disp/display.h ****             {
 1308              		.loc 6 416 13 view .LVU264
 1309 010e 0130     		adds	r0, r0, #1
 1310              	.LVL89:
 1311              	.LBB1026:
 1312              	.LBB1018:
 1313              	.LBB1013:
 1314              	.LBB1008:
 1315              	.LBB1004:
 246:../../libdaisy/src/dev/oled_ssd130x.h ****     }
 1316              		.loc 15 246 42 view .LVU265
 1317 0110 0CEA0505 		and	r5, ip, r5
 1318 0114 0133     		adds	r3, r3, #1
 1319 0116 0134     		adds	r4, r4, #1
 1320              	.LBE1004:
 1321              	.LBE1008:
 1322              	.LBE1013:
 1323              	.LBE1018:
 1324              	.LBE1026:
 416:../../libdaisy/src/hid/disp/display.h ****             {
ARM GAS  /tmp/ccF7J5sE.s 			page 50


 1325              		.loc 6 416 26 view .LVU266
 1326 0118 B842     		cmp	r0, r7
 1327              	.LBB1027:
 1328              	.LBB1019:
 1329              	.LBB1014:
 1330              	.LBB1009:
 1331              	.LBB1005:
 246:../../libdaisy/src/dev/oled_ssd130x.h ****     }
 1332              		.loc 15 246 13 view .LVU267
 1333 011a 03F8015C 		strb	r5, [r3, #-1]
 246:../../libdaisy/src/dev/oled_ssd130x.h ****     }
 1334              		.loc 15 246 13 view .LVU268
 1335              	.LBE1005:
 1336              	.LBE1009:
 1337              	.LBE1014:
 1338              	.LBE1019:
 1339              	.LBE1027:
 416:../../libdaisy/src/hid/disp/display.h ****             {
 1340              		.loc 6 416 13 is_stmt 1 view .LVU269
 1341              	.LVL90:
 416:../../libdaisy/src/hid/disp/display.h ****             {
 1342              		.loc 6 416 26 view .LVU270
 1343 011e EAD1     		bne	.L84
 1344              	.LVL91:
 1345              	.L83:
 413:../../libdaisy/src/hid/disp/display.h ****         {
 1346              		.loc 6 413 9 view .LVU271
 413:../../libdaisy/src/hid/disp/display.h ****         {
 1347              		.loc 6 413 22 view .LVU272
 1348 0120 5E45     		cmp	r6, fp
 1349 0122 01F10101 		add	r1, r1, #1
 1350 0126 C3D1     		bne	.L78
 1351 0128 BA46     		mov	r10, r7
 1352              	.LVL92:
 413:../../libdaisy/src/hid/disp/display.h ****         {
 1353              		.loc 6 413 22 is_stmt 0 view .LVU273
 1354 012a 029D     		ldr	r5, [sp, #8]
 1355 012c 7746     		mov	r7, lr
 1356 012e DDF80CB0 		ldr	fp, [sp, #12]
 1357              	.L77:
 1358              	.LBB1028:
 1359              	.LBB1029:
 173:../../libdaisy/src/hid/disp/display.h ****         currentY_ = (y >= Height()) ? Height() - 1 : y;
 1360              		.loc 6 173 33 view .LVU274
 1361 0132 D8F80020 		ldr	r2, [r8]
 1362              	.LBE1029:
 1363              	.LBE1028:
 434:../../libdaisy/src/hid/disp/display.h **** 
 1364              		.loc 6 434 18 view .LVU275
 1365 0136 5744     		add	r7, r7, r10
 1366 0138 2749     		ldr	r1, .L113
 1367              	.LBB1033:
 1368              	.LBB1030:
 173:../../libdaisy/src/hid/disp/display.h ****         currentY_ = (y >= Height()) ? Height() - 1 : y;
 1369              		.loc 6 173 33 view .LVU276
 1370 013a D368     		ldr	r3, [r2, #12]
 1371              	.LBE1030:
ARM GAS  /tmp/ccF7J5sE.s 			page 51


 1372              	.LBE1033:
 434:../../libdaisy/src/hid/disp/display.h **** 
 1373              		.loc 6 434 18 view .LVU277
 1374 013c BFB2     		uxth	r7, r7
 1375              	.LVL93:
 1376              	.LBB1034:
 1377              	.LBI1028:
 171:../../libdaisy/src/hid/disp/display.h ****     {
 1378              		.loc 6 171 10 is_stmt 1 view .LVU278
 1379              	.LBB1031:
 173:../../libdaisy/src/hid/disp/display.h ****         currentY_ = (y >= Height()) ? Height() - 1 : y;
 1380              		.loc 6 173 9 view .LVU279
 1381 013e 8B42     		cmp	r3, r1
 1382 0140 34D1     		bne	.L109
 173:../../libdaisy/src/hid/disp/display.h ****         currentY_ = (y >= Height()) ? Height() - 1 : y;
 1383              		.loc 6 173 33 is_stmt 0 view .LVU280
 1384 0142 8020     		movs	r0, #128
 1385              	.L85:
 173:../../libdaisy/src/hid/disp/display.h ****         currentY_ = (y >= Height()) ? Height() - 1 : y;
 1386              		.loc 6 173 19 view .LVU281
 1387 0144 8742     		cmp	r7, r0
 1388 0146 04D3     		bcc	.L86
 173:../../libdaisy/src/hid/disp/display.h ****         currentY_ = (y >= Height()) ? Height() - 1 : y;
 1389              		.loc 6 173 44 view .LVU282
 1390 0148 D368     		ldr	r3, [r2, #12]
 1391 014a 2349     		ldr	r1, .L113
 1392 014c 8B42     		cmp	r3, r1
 1393 014e 3BD1     		bne	.L110
 1394 0150 7F27     		movs	r7, #127
 1395              	.LVL94:
 1396              	.L86:
 174:../../libdaisy/src/hid/disp/display.h ****     }
 1397              		.loc 6 174 34 view .LVU283
 1398 0152 9368     		ldr	r3, [r2, #8]
 1399 0154 214A     		ldr	r2, .L113+4
 173:../../libdaisy/src/hid/disp/display.h ****         currentY_ = (y >= Height()) ? Height() - 1 : y;
 1400              		.loc 6 173 19 view .LVU284
 1401 0156 A8F80470 		strh	r7, [r8, #4]	@ movhi
 174:../../libdaisy/src/hid/disp/display.h ****     }
 1402              		.loc 6 174 9 is_stmt 1 view .LVU285
 1403 015a 9342     		cmp	r3, r2
 1404 015c 23D1     		bne	.L111
 174:../../libdaisy/src/hid/disp/display.h ****     }
 1405              		.loc 6 174 34 is_stmt 0 view .LVU286
 1406 015e 4020     		movs	r0, #64
 1407              	.L88:
 174:../../libdaisy/src/hid/disp/display.h ****     }
 1408              		.loc 6 174 19 view .LVU287
 1409 0160 009B     		ldr	r3, [sp]
 1410 0162 8342     		cmp	r3, r0
 1411 0164 07D3     		bcc	.L89
 174:../../libdaisy/src/hid/disp/display.h ****     }
 1412              		.loc 6 174 46 view .LVU288
 1413 0166 D8F80030 		ldr	r3, [r8]
 1414 016a 1C4A     		ldr	r2, .L113+4
 1415 016c 9B68     		ldr	r3, [r3, #8]
 1416 016e 9342     		cmp	r3, r2
ARM GAS  /tmp/ccF7J5sE.s 			page 52


 1417 0170 24D1     		bne	.L112
 1418 0172 3F23     		movs	r3, #63
 1419 0174 0093     		str	r3, [sp]
 1420              	.LVL95:
 1421              	.L89:
 174:../../libdaisy/src/hid/disp/display.h ****     }
 1422              		.loc 6 174 19 view .LVU289
 1423 0176 009B     		ldr	r3, [sp]
 1424 0178 A8F80630 		strh	r3, [r8, #6]	@ movhi
 1425              	.LVL96:
 1426              	.L71:
 174:../../libdaisy/src/hid/disp/display.h ****     }
 1427              		.loc 6 174 19 view .LVU290
 1428              	.LBE1031:
 1429              	.LBE1034:
 1430              	.LBE997:
 1431              	.LBE996:
 444:../../libdaisy/src/hid/disp/display.h ****         {
 445:../../libdaisy/src/hid/disp/display.h ****             if(((ChildType*)(this))->ChildType::WriteChar(*str, font, on)
 446:../../libdaisy/src/hid/disp/display.h ****                != *str)
 1432              		.loc 6 446 16 view .LVU291
 1433 017c 9BF80000 		ldrb	r0, [fp]	@ zero_extendqisi2
 445:../../libdaisy/src/hid/disp/display.h ****                != *str)
 1434              		.loc 6 445 13 view .LVU292
 1435 0180 A842     		cmp	r0, r5
 1436 0182 05D1     		bne	.L69
 1437              	.LVL97:
 443:../../libdaisy/src/hid/disp/display.h ****         {
 1438              		.loc 6 443 9 is_stmt 1 view .LVU293
 1439 0184 1BF8015F 		ldrb	r5, [fp, #1]!	@ zero_extendqisi2
 1440              	.LVL98:
 443:../../libdaisy/src/hid/disp/display.h ****         {
 1441              		.loc 6 443 9 is_stmt 0 view .LVU294
 1442 0188 002D     		cmp	r5, #0
 1443 018a 7FF452AF 		bne	.L92
 1444              	.LVL99:
 1445              	.L91:
 1446              	.LBB1038:
 1447              	.LBB1036:
 402:../../libdaisy/src/hid/disp/display.h **** 
 1448              		.loc 6 402 20 view .LVU295
 1449 018e 0020     		movs	r0, #0
 1450              	.LVL100:
 1451              	.L69:
 402:../../libdaisy/src/hid/disp/display.h **** 
 1452              		.loc 6 402 20 view .LVU296
 1453              	.LBE1036:
 1454              	.LBE1038:
 447:../../libdaisy/src/hid/disp/display.h ****             {
 448:../../libdaisy/src/hid/disp/display.h ****                 // Char could not be written
 449:../../libdaisy/src/hid/disp/display.h ****                 return *str;
 450:../../libdaisy/src/hid/disp/display.h ****             }
 451:../../libdaisy/src/hid/disp/display.h **** 
 452:../../libdaisy/src/hid/disp/display.h ****             // Next char
 453:../../libdaisy/src/hid/disp/display.h ****             str++;
 454:../../libdaisy/src/hid/disp/display.h ****         }
 455:../../libdaisy/src/hid/disp/display.h **** 
ARM GAS  /tmp/ccF7J5sE.s 			page 53


 456:../../libdaisy/src/hid/disp/display.h ****         // Everything ok
 457:../../libdaisy/src/hid/disp/display.h ****         return *str;
 458:../../libdaisy/src/hid/disp/display.h ****     }
 1455              		.loc 6 458 5 view .LVU297
 1456 0190 09B0     		add	sp, sp, #36
 1457              		.cfi_remember_state
 1458              		.cfi_def_cfa_offset 36
 1459              		@ sp needed
 1460 0192 BDE8F08F 		pop	{r4, r5, r6, r7, r8, r9, r10, fp, pc}
 1461              	.LVL101:
 1462              	.L73:
 1463              		.cfi_restore_state
 1464              	.LBB1039:
 1465              	.LBB1037:
 402:../../libdaisy/src/hid/disp/display.h **** 
 1466              		.loc 6 402 20 view .LVU298
 1467 0196 0025     		movs	r5, #0
 1468              	.LVL102:
 402:../../libdaisy/src/hid/disp/display.h **** 
 1469              		.loc 6 402 20 view .LVU299
 1470 0198 F0E7     		b	.L71
 1471              	.LVL103:
 1472              	.L106:
 405:../../libdaisy/src/hid/disp/display.h ****            || Height() < (currentY_ + font.FontHeight))
 1473              		.loc 6 405 17 view .LVU300
 1474 019a 4046     		mov	r0, r8
 1475 019c 9847     		blx	r3
 1476              	.LVL104:
 1477 019e 56E7     		b	.L72
 1478              	.L107:
 406:../../libdaisy/src/hid/disp/display.h ****         {
 1479              		.loc 6 406 21 view .LVU301
 1480 01a0 4046     		mov	r0, r8
 1481 01a2 9847     		blx	r3
 1482              	.LVL105:
 1483 01a4 61E7     		b	.L74
 1484              	.LVL106:
 1485              	.L111:
 1486              	.LBB1035:
 1487              	.LBB1032:
 174:../../libdaisy/src/hid/disp/display.h ****     }
 1488              		.loc 6 174 33 view .LVU302
 1489 01a6 4046     		mov	r0, r8
 1490 01a8 9847     		blx	r3
 1491              	.LVL107:
 1492 01aa D9E7     		b	.L88
 1493              	.LVL108:
 1494              	.L109:
 173:../../libdaisy/src/hid/disp/display.h ****         currentY_ = (y >= Height()) ? Height() - 1 : y;
 1495              		.loc 6 173 32 view .LVU303
 1496 01ac 4046     		mov	r0, r8
 1497 01ae 9847     		blx	r3
 1498              	.LVL109:
 1499 01b0 D8F80020 		ldr	r2, [r8]
 1500 01b4 C6E7     		b	.L85
 1501              	.LVL110:
 1502              	.L75:
ARM GAS  /tmp/ccF7J5sE.s 			page 54


 173:../../libdaisy/src/hid/disp/display.h ****         currentY_ = (y >= Height()) ? Height() - 1 : y;
 1503              		.loc 6 173 32 view .LVU304
 1504 01b6 B8F80470 		ldrh	r7, [r8, #4]
 1505 01ba BAE7     		b	.L77
 1506              	.LVL111:
 1507              	.L112:
 174:../../libdaisy/src/hid/disp/display.h ****     }
 1508              		.loc 6 174 45 view .LVU305
 1509 01bc 4046     		mov	r0, r8
 1510 01be 9847     		blx	r3
 1511              	.LVL112:
 1512 01c0 0138     		subs	r0, r0, #1
 1513 01c2 83B2     		uxth	r3, r0
 1514 01c4 0093     		str	r3, [sp]
 1515              	.LVL113:
 174:../../libdaisy/src/hid/disp/display.h ****     }
 1516              		.loc 6 174 45 view .LVU306
 1517 01c6 D6E7     		b	.L89
 1518              	.LVL114:
 1519              	.L110:
 173:../../libdaisy/src/hid/disp/display.h ****         currentY_ = (y >= Height()) ? Height() - 1 : y;
 1520              		.loc 6 173 43 view .LVU307
 1521 01c8 4046     		mov	r0, r8
 1522 01ca 9847     		blx	r3
 1523              	.LVL115:
 1524 01cc 0138     		subs	r0, r0, #1
 1525 01ce D8F80020 		ldr	r2, [r8]
 1526 01d2 87B2     		uxth	r7, r0
 1527              	.LVL116:
 173:../../libdaisy/src/hid/disp/display.h ****         currentY_ = (y >= Height()) ? Height() - 1 : y;
 1528              		.loc 6 173 43 view .LVU308
 1529 01d4 BDE7     		b	.L86
 1530              	.L114:
 1531 01d6 00BF     		.align	2
 1532              	.L113:
 1533 01d8 00000000 		.word	_ZNK5daisy11OledDisplayINS_13SSD130xDriverILj128ELj64ENS_24SSD130x4WireSpiTransportEEEE5Widt
 1534 01dc 00000000 		.word	_ZNK5daisy11OledDisplayINS_13SSD130xDriverILj128ELj64ENS_24SSD130x4WireSpiTransportEEEE6Heig
 1535              	.LBE1032:
 1536              	.LBE1035:
 1537              	.LBE1037:
 1538              	.LBE1039:
 1539              		.cfi_endproc
 1540              	.LFE4559:
 1542              		.section	.text._ZN5daisy25OneBitGraphicsDisplayImplINS_11OledDisplayINS_13SSD130xDriverILj128ELj64
 1543              		.align	1
 1544              		.p2align 2,,3
 1545              		.weak	_ZN5daisy25OneBitGraphicsDisplayImplINS_11OledDisplayINS_13SSD130xDriverILj128ELj64ENS_24SSD
 1546              		.syntax unified
 1547              		.thumb
 1548              		.thumb_func
 1549              		.fpu fpv5-d16
 1551              	_ZN5daisy25OneBitGraphicsDisplayImplINS_11OledDisplayINS_13SSD130xDriverILj128ELj64ENS_24SSD130x4Wi
 1552              	.LVL117:
 1553              	.LFB4837:
 221:../../libdaisy/src/hid/disp/display.h ****                   uint_fast8_t y1,
 1554              		.loc 6 221 10 is_stmt 1 view -0
 1555              		.cfi_startproc
ARM GAS  /tmp/ccF7J5sE.s 			page 55


 1556              		@ args = 8, pretend = 0, frame = 8
 1557              		@ frame_needed = 0, uses_anonymous_args = 0
 221:../../libdaisy/src/hid/disp/display.h ****                   uint_fast8_t y1,
 1558              		.loc 6 221 10 is_stmt 0 view .LVU310
 1559 0000 2DE9F04F 		push	{r4, r5, r6, r7, r8, r9, r10, fp, lr}
 1560              		.cfi_def_cfa_offset 36
 1561              		.cfi_offset 4, -36
 1562              		.cfi_offset 5, -32
 1563              		.cfi_offset 6, -28
 1564              		.cfi_offset 7, -24
 1565              		.cfi_offset 8, -20
 1566              		.cfi_offset 9, -16
 1567              		.cfi_offset 10, -12
 1568              		.cfi_offset 11, -8
 1569              		.cfi_offset 14, -4
 1570 0004 83B0     		sub	sp, sp, #12
 1571              		.cfi_def_cfa_offset 48
 227:../../libdaisy/src/hid/disp/display.h ****         int_fast16_t deltaY = abs((int_fast16_t)y2 - (int_fast16_t)y1);
 1572              		.loc 6 227 52 view .LVU311
 1573 0006 5E1A     		subs	r6, r3, r1
 221:../../libdaisy/src/hid/disp/display.h ****                   uint_fast8_t y1,
 1574              		.loc 6 221 10 view .LVU312
 1575 0008 0C9F     		ldr	r7, [sp, #48]
 1576 000a 9DF83480 		ldrb	r8, [sp, #52]	@ zero_extendqisi2
 228:../../libdaisy/src/hid/disp/display.h ****         int_fast16_t signX  = ((x1 < x2) ? 1 : -1);
 1577              		.loc 6 228 52 view .LVU313
 1578 000e A7EB020E 		sub	lr, r7, r2
 228:../../libdaisy/src/hid/disp/display.h ****         int_fast16_t signX  = ((x1 < x2) ? 1 : -1);
 1579              		.loc 6 228 22 view .LVU314
 1580 0012 BEF1000F 		cmp	lr, #0
 1581 0016 B8BF     		it	lt
 1582 0018 CEF1000E 		rsblt	lr, lr, #0
 229:../../libdaisy/src/hid/disp/display.h ****         int_fast16_t signY  = ((y1 < y2) ? 1 : -1);
 1583              		.loc 6 229 22 view .LVU315
 1584 001c 8B42     		cmp	r3, r1
 1585 001e 8CBF     		ite	hi
 1586 0020 4FF00109 		movhi	r9, #1
 1587 0024 4FF0FF39 		movls	r9, #-1
 227:../../libdaisy/src/hid/disp/display.h ****         int_fast16_t deltaY = abs((int_fast16_t)y2 - (int_fast16_t)y1);
 1588              		.loc 6 227 22 view .LVU316
 1589 0028 002E     		cmp	r6, #0
 1590 002a B8BF     		it	lt
 1591 002c 7642     		rsblt	r6, r6, #0
 1592              	.LVL118:
 230:../../libdaisy/src/hid/disp/display.h ****         int_fast16_t error  = deltaX - deltaY;
 1593              		.loc 6 230 22 view .LVU317
 1594 002e 9742     		cmp	r7, r2
 231:../../libdaisy/src/hid/disp/display.h ****         int_fast16_t error2;
 1595              		.loc 6 231 22 view .LVU318
 1596 0030 A6EB0E04 		sub	r4, r6, lr
 230:../../libdaisy/src/hid/disp/display.h ****         int_fast16_t error  = deltaX - deltaY;
 1597              		.loc 6 230 22 view .LVU319
 1598 0034 4FD8     		bhi	.L117
 1599              	.LVL119:
 1600              	.LBB1056:
 1601              	.LBI1056:
  41:../../libdaisy/src/hid/disp/oled_display.h ****     {
ARM GAS  /tmp/ccF7J5sE.s 			page 56


 1602              		.loc 5 41 10 is_stmt 1 discriminator 4 view .LVU320
 1603              	.LBB1057:
 1604              	.LBI1057:
 239:../../libdaisy/src/dev/oled_ssd130x.h ****     {
 1605              		.loc 15 239 10 discriminator 4 view .LVU321
 1606              	.LBE1057:
 1607              	.LBE1056:
 230:../../libdaisy/src/hid/disp/display.h ****         int_fast16_t error  = deltaX - deltaY;
 1608              		.loc 6 230 22 is_stmt 0 discriminator 4 view .LVU322
 1609 0036 4FF0FF35 		mov	r5, #-1
 1610              	.LBB1073:
 1611              	.LBB1067:
 1612              	.LBB1058:
 241:../../libdaisy/src/dev/oled_ssd130x.h ****             return;
 1613              		.loc 15 241 9 discriminator 4 view .LVU323
 1614 003a 7F2B     		cmp	r3, #127
 1615              	.LBE1058:
 1616              	.LBE1067:
 1617              	.LBE1073:
 230:../../libdaisy/src/hid/disp/display.h ****         int_fast16_t error  = deltaX - deltaY;
 1618              		.loc 6 230 22 discriminator 4 view .LVU324
 1619 003c 0195     		str	r5, [sp, #4]
 1620              	.LBB1074:
 1621              	.LBB1068:
 1622              	.LBB1063:
 241:../../libdaisy/src/dev/oled_ssd130x.h ****             return;
 1623              		.loc 15 241 9 discriminator 4 view .LVU325
 1624 003e 14D8     		bhi	.L118
 1625 0040 3F2F     		cmp	r7, #63
 1626 0042 12D8     		bhi	.L118
 1627              	.LVL120:
 1628              	.L129:
 244:../../libdaisy/src/dev/oled_ssd130x.h ****         else
 1629              		.loc 15 244 28 view .LVU326
 1630 0044 FD08     		lsrs	r5, r7, #3
 244:../../libdaisy/src/dev/oled_ssd130x.h ****         else
 1631              		.loc 15 244 54 view .LVU327
 1632 0046 07F0070C 		and	ip, r7, #7
 244:../../libdaisy/src/dev/oled_ssd130x.h ****         else
 1633              		.loc 15 244 48 view .LVU328
 1634 004a 4FF0010A 		mov	r10, #1
 244:../../libdaisy/src/dev/oled_ssd130x.h ****         else
 1635              		.loc 15 244 42 view .LVU329
 1636 004e 03EBC515 		add	r5, r3, r5, lsl #7
 243:../../libdaisy/src/dev/oled_ssd130x.h ****             buffer_[x + (y / 8) * width] |= (1 << (y % 8));
 1637              		.loc 15 243 9 view .LVU330
 1638 0052 B8F1000F 		cmp	r8, #0
 1639 0056 45D0     		beq	.L119
 244:../../libdaisy/src/dev/oled_ssd130x.h ****         else
 1640              		.loc 15 244 13 view .LVU331
 1641 0058 0544     		add	r5, r5, r0
 244:../../libdaisy/src/dev/oled_ssd130x.h ****         else
 1642              		.loc 15 244 48 view .LVU332
 1643 005a 0AFA0CFC 		lsl	ip, r10, ip
 244:../../libdaisy/src/dev/oled_ssd130x.h ****         else
 1644              		.loc 15 244 42 view .LVU333
 1645 005e 95F814A0 		ldrb	r10, [r5, #20]	@ zero_extendqisi2
ARM GAS  /tmp/ccF7J5sE.s 			page 57


 1646 0062 4CEA0A0C 		orr	ip, ip, r10
 244:../../libdaisy/src/dev/oled_ssd130x.h ****         else
 1647              		.loc 15 244 13 view .LVU334
 1648 0066 85F814C0 		strb	ip, [r5, #20]
 1649              	.L118:
 1650              	.LVL121:
 244:../../libdaisy/src/dev/oled_ssd130x.h ****         else
 1651              		.loc 15 244 13 view .LVU335
 1652              	.LBE1063:
 1653              	.LBE1068:
 1654              	.LBE1074:
 239:../../libdaisy/src/hid/disp/display.h ****         {
 1655              		.loc 6 239 26 is_stmt 1 view .LVU336
 1656 006a 9742     		cmp	r7, r2
 1657 006c 01D1     		bne	.L122
 1658              	.L141:
 239:../../libdaisy/src/hid/disp/display.h ****         {
 1659              		.loc 6 239 26 is_stmt 0 view .LVU337
 1660 006e 8B42     		cmp	r3, r1
 1661 0070 29D0     		beq	.L115
 1662              	.L122:
 1663              	.LVL122:
 239:../../libdaisy/src/hid/disp/display.h ****         {
 1664              		.loc 6 239 26 view .LVU338
 1665 0072 CEF1000C 		rsb	ip, lr, #0
 1666              	.L124:
 1667              	.LVL123:
 1668              	.LBB1075:
 1669              	.LBI1075:
  41:../../libdaisy/src/hid/disp/oled_display.h ****     {
 1670              		.loc 5 41 10 is_stmt 1 view .LVU339
 1671              	.LBB1076:
 1672              	.LBI1076:
 239:../../libdaisy/src/dev/oled_ssd130x.h ****     {
 1673              		.loc 15 239 10 view .LVU340
 1674              	.LBB1077:
 241:../../libdaisy/src/dev/oled_ssd130x.h ****             return;
 1675              		.loc 15 241 9 is_stmt 0 view .LVU341
 1676 0076 7F29     		cmp	r1, #127
 1677 0078 14D8     		bhi	.L125
 1678 007a 3F2A     		cmp	r2, #63
 1679 007c 12D8     		bhi	.L125
 244:../../libdaisy/src/dev/oled_ssd130x.h ****         else
 1680              		.loc 15 244 28 view .LVU342
 1681 007e D508     		lsrs	r5, r2, #3
 244:../../libdaisy/src/dev/oled_ssd130x.h ****         else
 1682              		.loc 15 244 48 view .LVU343
 1683 0080 4FF0010B 		mov	fp, #1
 244:../../libdaisy/src/dev/oled_ssd130x.h ****         else
 1684              		.loc 15 244 54 view .LVU344
 1685 0084 02F0070A 		and	r10, r2, #7
 244:../../libdaisy/src/dev/oled_ssd130x.h ****         else
 1686              		.loc 15 244 42 view .LVU345
 1687 0088 01EBC515 		add	r5, r1, r5, lsl #7
 244:../../libdaisy/src/dev/oled_ssd130x.h ****         else
 1688              		.loc 15 244 48 view .LVU346
 1689 008c 0BFA0AFA 		lsl	r10, fp, r10
ARM GAS  /tmp/ccF7J5sE.s 			page 58


 244:../../libdaisy/src/dev/oled_ssd130x.h ****         else
 1690              		.loc 15 244 13 view .LVU347
 1691 0090 0544     		add	r5, r5, r0
 244:../../libdaisy/src/dev/oled_ssd130x.h ****         else
 1692              		.loc 15 244 42 view .LVU348
 1693 0092 95F814B0 		ldrb	fp, [r5, #20]	@ zero_extendqisi2
 243:../../libdaisy/src/dev/oled_ssd130x.h ****             buffer_[x + (y / 8) * width] |= (1 << (y % 8));
 1694              		.loc 15 243 9 view .LVU349
 1695 0096 B8F1000F 		cmp	r8, #0
 1696 009a 17D0     		beq	.L126
 244:../../libdaisy/src/dev/oled_ssd130x.h ****         else
 1697              		.loc 15 244 42 view .LVU350
 1698 009c 4AEA0B0A 		orr	r10, r10, fp
 244:../../libdaisy/src/dev/oled_ssd130x.h ****         else
 1699              		.loc 15 244 13 view .LVU351
 1700 00a0 85F814A0 		strb	r10, [r5, #20]
 1701              	.L125:
 1702              	.LVL124:
 244:../../libdaisy/src/dev/oled_ssd130x.h ****         else
 1703              		.loc 15 244 13 view .LVU352
 1704              	.LBE1077:
 1705              	.LBE1076:
 1706              	.LBE1075:
 243:../../libdaisy/src/hid/disp/display.h ****             {
 1707              		.loc 6 243 13 view .LVU353
 1708 00a4 BCEB440F 		cmp	ip, r4, lsl #1
 242:../../libdaisy/src/hid/disp/display.h ****             if(error2 > -deltaY)
 1709              		.loc 6 242 13 view .LVU354
 1710 00a8 4FEA4405 		lsl	r5, r4, #1
 1711              	.LVL125:
 243:../../libdaisy/src/hid/disp/display.h ****             {
 1712              		.loc 6 243 13 view .LVU355
 1713 00ac 02DA     		bge	.L127
 245:../../libdaisy/src/hid/disp/display.h ****                 x1 += signX;
 1714              		.loc 6 245 17 view .LVU356
 1715 00ae A4EB0E04 		sub	r4, r4, lr
 1716              	.LVL126:
 246:../../libdaisy/src/hid/disp/display.h ****             }
 1717              		.loc 6 246 17 view .LVU357
 1718 00b2 4944     		add	r1, r1, r9
 1719              	.LVL127:
 1720              	.L127:
 249:../../libdaisy/src/hid/disp/display.h ****             {
 1721              		.loc 6 249 13 view .LVU358
 1722 00b4 AE42     		cmp	r6, r5
 1723 00b6 02DD     		ble	.L128
 252:../../libdaisy/src/hid/disp/display.h ****             }
 1724              		.loc 6 252 17 view .LVU359
 1725 00b8 019D     		ldr	r5, [sp, #4]
 1726              	.LVL128:
 251:../../libdaisy/src/hid/disp/display.h ****                 y1 += signY;
 1727              		.loc 6 251 17 view .LVU360
 1728 00ba 3444     		add	r4, r4, r6
 1729              	.LVL129:
 252:../../libdaisy/src/hid/disp/display.h ****             }
 1730              		.loc 6 252 17 view .LVU361
 1731 00bc 2A44     		add	r2, r2, r5
ARM GAS  /tmp/ccF7J5sE.s 			page 59


 1732              	.LVL130:
 1733              	.L128:
 239:../../libdaisy/src/hid/disp/display.h ****         {
 1734              		.loc 6 239 26 is_stmt 1 view .LVU362
 1735 00be 9942     		cmp	r1, r3
 1736 00c0 D9D1     		bne	.L124
 239:../../libdaisy/src/hid/disp/display.h ****         {
 1737              		.loc 6 239 26 is_stmt 0 view .LVU363
 1738 00c2 9742     		cmp	r7, r2
 1739 00c4 D7D1     		bne	.L124
 1740              	.L115:
 255:../../libdaisy/src/hid/disp/display.h **** 
 1741              		.loc 6 255 5 view .LVU364
 1742 00c6 03B0     		add	sp, sp, #12
 1743              		.cfi_remember_state
 1744              		.cfi_def_cfa_offset 36
 1745              		@ sp needed
 1746 00c8 BDE8F08F 		pop	{r4, r5, r6, r7, r8, r9, r10, fp, pc}
 1747              	.LVL131:
 1748              	.L126:
 1749              		.cfi_restore_state
 1750              	.LBB1082:
 1751              	.LBB1081:
 1752              	.LBB1080:
 1753              	.LBB1078:
 1754              	.LBI1078:
 239:../../libdaisy/src/dev/oled_ssd130x.h ****     {
 1755              		.loc 15 239 10 is_stmt 1 view .LVU365
 1756              	.LBB1079:
 246:../../libdaisy/src/dev/oled_ssd130x.h ****     }
 1757              		.loc 15 246 42 is_stmt 0 view .LVU366
 1758 00cc 2BEA0A0A 		bic	r10, fp, r10
 246:../../libdaisy/src/dev/oled_ssd130x.h ****     }
 1759              		.loc 15 246 13 view .LVU367
 1760 00d0 85F814A0 		strb	r10, [r5, #20]
 1761 00d4 E6E7     		b	.L125
 1762              	.LVL132:
 1763              	.L117:
 246:../../libdaisy/src/dev/oled_ssd130x.h ****     }
 1764              		.loc 15 246 13 view .LVU368
 1765              	.LBE1079:
 1766              	.LBE1078:
 1767              	.LBE1080:
 1768              	.LBE1081:
 1769              	.LBE1082:
 1770              	.LBB1083:
  41:../../libdaisy/src/hid/disp/oled_display.h ****     {
 1771              		.loc 5 41 10 is_stmt 1 view .LVU369
 1772              	.LBB1069:
 239:../../libdaisy/src/dev/oled_ssd130x.h ****     {
 1773              		.loc 15 239 10 view .LVU370
 1774              	.LBE1069:
 1775              	.LBE1083:
 230:../../libdaisy/src/hid/disp/display.h ****         int_fast16_t error  = deltaX - deltaY;
 1776              		.loc 6 230 22 is_stmt 0 view .LVU371
 1777 00d6 0125     		movs	r5, #1
 1778              	.LBB1084:
ARM GAS  /tmp/ccF7J5sE.s 			page 60


 1779              	.LBB1070:
 1780              	.LBB1064:
 241:../../libdaisy/src/dev/oled_ssd130x.h ****             return;
 1781              		.loc 15 241 9 view .LVU372
 1782 00d8 7F2B     		cmp	r3, #127
 1783              	.LBE1064:
 1784              	.LBE1070:
 1785              	.LBE1084:
 230:../../libdaisy/src/hid/disp/display.h ****         int_fast16_t error  = deltaX - deltaY;
 1786              		.loc 6 230 22 view .LVU373
 1787 00da 0195     		str	r5, [sp, #4]
 1788              	.LBB1085:
 1789              	.LBB1071:
 1790              	.LBB1065:
 241:../../libdaisy/src/dev/oled_ssd130x.h ****             return;
 1791              		.loc 15 241 9 view .LVU374
 1792 00dc C9D8     		bhi	.L122
 1793 00de 3F2F     		cmp	r7, #63
 1794 00e0 B0D9     		bls	.L129
 1795 00e2 C6E7     		b	.L122
 1796              	.LVL133:
 1797              	.L119:
 1798              	.LBB1059:
 1799              	.LBI1059:
 239:../../libdaisy/src/dev/oled_ssd130x.h ****     {
 1800              		.loc 15 239 10 is_stmt 1 view .LVU375
 1801              	.LBB1060:
 246:../../libdaisy/src/dev/oled_ssd130x.h ****     }
 1802              		.loc 15 246 13 is_stmt 0 view .LVU376
 1803 00e4 0544     		add	r5, r5, r0
 246:../../libdaisy/src/dev/oled_ssd130x.h ****     }
 1804              		.loc 15 246 49 view .LVU377
 1805 00e6 0AFA0CFA 		lsl	r10, r10, ip
 1806              	.LBE1060:
 1807              	.LBE1059:
 1808              	.LBE1065:
 1809              	.LBE1071:
 1810              	.LBE1085:
 239:../../libdaisy/src/hid/disp/display.h ****         {
 1811              		.loc 6 239 26 view .LVU378
 1812 00ea 9742     		cmp	r7, r2
 1813              	.LBB1086:
 1814              	.LBB1072:
 1815              	.LBB1066:
 1816              	.LBB1062:
 1817              	.LBB1061:
 246:../../libdaisy/src/dev/oled_ssd130x.h ****     }
 1818              		.loc 15 246 42 view .LVU379
 1819 00ec 95F814C0 		ldrb	ip, [r5, #20]	@ zero_extendqisi2
 1820 00f0 2CEA0A0C 		bic	ip, ip, r10
 246:../../libdaisy/src/dev/oled_ssd130x.h ****     }
 1821              		.loc 15 246 13 view .LVU380
 1822 00f4 85F814C0 		strb	ip, [r5, #20]
 1823              	.LVL134:
 246:../../libdaisy/src/dev/oled_ssd130x.h ****     }
 1824              		.loc 15 246 13 view .LVU381
 1825              	.LBE1061:
ARM GAS  /tmp/ccF7J5sE.s 			page 61


 1826              	.LBE1062:
 1827              	.LBE1066:
 1828              	.LBE1072:
 1829              	.LBE1086:
 239:../../libdaisy/src/hid/disp/display.h ****         {
 1830              		.loc 6 239 26 is_stmt 1 view .LVU382
 1831 00f8 B9D0     		beq	.L141
 1832 00fa BAE7     		b	.L122
 1833              		.cfi_endproc
 1834              	.LFE4837:
 1836              		.section	.text._ZN5daisy25OneBitGraphicsDisplayImplINS_11OledDisplayINS_13SSD130xDriverILj128ELj64
 1837              		.align	1
 1838              		.p2align 2,,3
 1839              		.weak	_ZN5daisy25OneBitGraphicsDisplayImplINS_11OledDisplayINS_13SSD130xDriverILj128ELj64ENS_24SSD
 1840              		.syntax unified
 1841              		.thumb
 1842              		.thumb_func
 1843              		.fpu fpv5-d16
 1845              	_ZN5daisy25OneBitGraphicsDisplayImplINS_11OledDisplayINS_13SSD130xDriverILj128ELj64ENS_24SSD130x4Wi
 1846              	.LVL135:
 1847              	.LFB4839:
 283:../../libdaisy/src/hid/disp/display.h ****                  uint_fast8_t y,
 1848              		.loc 6 283 10 view -0
 1849              		.cfi_startproc
 1850              		@ args = 12, pretend = 0, frame = 16
 1851              		@ frame_needed = 0, uses_anonymous_args = 0
 283:../../libdaisy/src/hid/disp/display.h ****                  uint_fast8_t y,
 1852              		.loc 6 283 10 is_stmt 0 view .LVU384
 1853 0000 2DE9F04F 		push	{r4, r5, r6, r7, r8, r9, r10, fp, lr}
 1854              		.cfi_def_cfa_offset 36
 1855              		.cfi_offset 4, -36
 1856              		.cfi_offset 5, -32
 1857              		.cfi_offset 6, -28
 1858              		.cfi_offset 7, -24
 1859              		.cfi_offset 8, -20
 1860              		.cfi_offset 9, -16
 1861              		.cfi_offset 10, -12
 1862              		.cfi_offset 11, -8
 1863              		.cfi_offset 14, -4
 1864 0004 2DED068B 		vpush.64	{d8, d9, d10}
 1865              		.cfi_def_cfa_offset 60
 1866              		.cfi_offset 80, -60
 1867              		.cfi_offset 81, -56
 1868              		.cfi_offset 82, -52
 1869              		.cfi_offset 83, -48
 1870              		.cfi_offset 84, -44
 1871              		.cfi_offset 85, -40
 1872 0008 85B0     		sub	sp, sp, #20
 1873              		.cfi_def_cfa_offset 80
 283:../../libdaisy/src/hid/disp/display.h ****                  uint_fast8_t y,
 1874              		.loc 6 283 10 view .LVU385
 1875 000a 1C46     		mov	r4, r3
 1876 000c 0F46     		mov	r7, r1
 1877 000e 9046     		mov	r8, r2
 1878 0010 9DF85830 		ldrb	r3, [sp, #88]	@ zero_extendqisi2
 1879              	.LVL136:
 283:../../libdaisy/src/hid/disp/display.h ****                  uint_fast8_t y,
ARM GAS  /tmp/ccF7J5sE.s 			page 62


 1880              		.loc 6 283 10 view .LVU386
 1881 0014 0390     		str	r0, [sp, #12]
 1882 0016 0293     		str	r3, [sp, #8]
 306:../../libdaisy/src/hid/disp/display.h ****         {
 1883              		.loc 6 306 9 view .LVU387
 1884 0018 159B     		ldr	r3, [sp, #84]
 1885 001a 002B     		cmp	r3, #0
 1886 001c C0F2F281 		blt	.L143
 1887 0020 149A     		ldr	r2, [sp, #80]
 1888              	.LVL137:
 306:../../libdaisy/src/hid/disp/display.h ****         {
 1889              		.loc 6 306 9 view .LVU388
 1890 0022 1344     		add	r3, r3, r2
 1891 0024 06EE103A 		vmov	s12, r3	@ int
 1892              	.LVL138:
 1893              	.L144:
 312:../../libdaisy/src/hid/disp/display.h ****         end_angle_rad   = deg2rad(start_angle + sweep);
 1894              		.loc 6 312 27 view .LVU389
 1895 0028 DDED147A 		vldr.32	s15, [sp, #80]	@ int
 313:../../libdaisy/src/hid/disp/display.h **** 
 1896              		.loc 6 313 27 view .LVU390
 1897 002c B8EEC66B 		vcvt.f64.s32	d6, s12
 312:../../libdaisy/src/hid/disp/display.h ****         end_angle_rad   = deg2rad(start_angle + sweep);
 1898              		.loc 6 312 27 view .LVU391
 1899 0030 9FEDD54B 		vldr.64	d4, .L217
 1900 0034 B8EEE77B 		vcvt.f64.s32	d7, s15
 1901 0038 9FEDD55B 		vldr.64	d5, .L217+8
 1902 003c 27EE047B 		vmul.f64	d7, d7, d4
 313:../../libdaisy/src/hid/disp/display.h **** 
 1903              		.loc 6 313 27 view .LVU392
 1904 0040 26EE046B 		vmul.f64	d6, d6, d4
 312:../../libdaisy/src/hid/disp/display.h ****         end_angle_rad   = deg2rad(start_angle + sweep);
 1905              		.loc 6 312 27 view .LVU393
 1906 0044 87EE050B 		vdiv.f64	d0, d7, d5
 313:../../libdaisy/src/hid/disp/display.h **** 
 1907              		.loc 6 313 27 view .LVU394
 1908 0048 86EE05AB 		vdiv.f64	d10, d6, d5
 312:../../libdaisy/src/hid/disp/display.h ****         end_angle_rad   = deg2rad(start_angle + sweep);
 1909              		.loc 6 312 9 view .LVU395
 1910 004c F7EEC08B 		vcvt.f32.f64	s17, d0
 1911              	.LVL139:
 1912              	.LBB1119:
 1913              	.LBB1120:
 1914              		.file 16 "/usr/include/newlib/c++/9.2.1/cmath"
   1:/usr/include/newlib/c++/9.2.1/cmath **** // -*- C++ -*- C forwarding header.
   2:/usr/include/newlib/c++/9.2.1/cmath **** 
   3:/usr/include/newlib/c++/9.2.1/cmath **** // Copyright (C) 1997-2019 Free Software Foundation, Inc.
   4:/usr/include/newlib/c++/9.2.1/cmath **** //
   5:/usr/include/newlib/c++/9.2.1/cmath **** // This file is part of the GNU ISO C++ Library.  This library is free
   6:/usr/include/newlib/c++/9.2.1/cmath **** // software; you can redistribute it and/or modify it under the
   7:/usr/include/newlib/c++/9.2.1/cmath **** // terms of the GNU General Public License as published by the
   8:/usr/include/newlib/c++/9.2.1/cmath **** // Free Software Foundation; either version 3, or (at your option)
   9:/usr/include/newlib/c++/9.2.1/cmath **** // any later version.
  10:/usr/include/newlib/c++/9.2.1/cmath **** 
  11:/usr/include/newlib/c++/9.2.1/cmath **** // This library is distributed in the hope that it will be useful,
  12:/usr/include/newlib/c++/9.2.1/cmath **** // but WITHOUT ANY WARRANTY; without even the implied warranty of
  13:/usr/include/newlib/c++/9.2.1/cmath **** // MERCHANTABILITY or FITNESS FOR A PARTICULAR PURPOSE.  See the
ARM GAS  /tmp/ccF7J5sE.s 			page 63


  14:/usr/include/newlib/c++/9.2.1/cmath **** // GNU General Public License for more details.
  15:/usr/include/newlib/c++/9.2.1/cmath **** 
  16:/usr/include/newlib/c++/9.2.1/cmath **** // Under Section 7 of GPL version 3, you are granted additional
  17:/usr/include/newlib/c++/9.2.1/cmath **** // permissions described in the GCC Runtime Library Exception, version
  18:/usr/include/newlib/c++/9.2.1/cmath **** // 3.1, as published by the Free Software Foundation.
  19:/usr/include/newlib/c++/9.2.1/cmath **** 
  20:/usr/include/newlib/c++/9.2.1/cmath **** // You should have received a copy of the GNU General Public License and
  21:/usr/include/newlib/c++/9.2.1/cmath **** // a copy of the GCC Runtime Library Exception along with this program;
  22:/usr/include/newlib/c++/9.2.1/cmath **** // see the files COPYING3 and COPYING.RUNTIME respectively.  If not, see
  23:/usr/include/newlib/c++/9.2.1/cmath **** // <http://www.gnu.org/licenses/>.
  24:/usr/include/newlib/c++/9.2.1/cmath **** 
  25:/usr/include/newlib/c++/9.2.1/cmath **** /** @file include/cmath
  26:/usr/include/newlib/c++/9.2.1/cmath ****  *  This is a Standard C++ Library file.  You should @c \#include this file
  27:/usr/include/newlib/c++/9.2.1/cmath ****  *  in your programs, rather than any of the @a *.h implementation files.
  28:/usr/include/newlib/c++/9.2.1/cmath ****  *
  29:/usr/include/newlib/c++/9.2.1/cmath ****  *  This is the C++ version of the Standard C Library header @c math.h,
  30:/usr/include/newlib/c++/9.2.1/cmath ****  *  and its contents are (mostly) the same as that header, but are all
  31:/usr/include/newlib/c++/9.2.1/cmath ****  *  contained in the namespace @c std (except for names which are defined
  32:/usr/include/newlib/c++/9.2.1/cmath ****  *  as macros in C).
  33:/usr/include/newlib/c++/9.2.1/cmath ****  */
  34:/usr/include/newlib/c++/9.2.1/cmath **** 
  35:/usr/include/newlib/c++/9.2.1/cmath **** //
  36:/usr/include/newlib/c++/9.2.1/cmath **** // ISO C++ 14882: 26.5  C library
  37:/usr/include/newlib/c++/9.2.1/cmath **** //
  38:/usr/include/newlib/c++/9.2.1/cmath **** 
  39:/usr/include/newlib/c++/9.2.1/cmath **** #pragma GCC system_header
  40:/usr/include/newlib/c++/9.2.1/cmath **** 
  41:/usr/include/newlib/c++/9.2.1/cmath **** #include <bits/c++config.h>
  42:/usr/include/newlib/c++/9.2.1/cmath **** #include <bits/cpp_type_traits.h>
  43:/usr/include/newlib/c++/9.2.1/cmath **** #include <ext/type_traits.h>
  44:/usr/include/newlib/c++/9.2.1/cmath **** #define _GLIBCXX_INCLUDE_NEXT_C_HEADERS
  45:/usr/include/newlib/c++/9.2.1/cmath **** #include_next <math.h>
  46:/usr/include/newlib/c++/9.2.1/cmath **** #undef _GLIBCXX_INCLUDE_NEXT_C_HEADERS
  47:/usr/include/newlib/c++/9.2.1/cmath **** #include <bits/std_abs.h>
  48:/usr/include/newlib/c++/9.2.1/cmath **** 
  49:/usr/include/newlib/c++/9.2.1/cmath **** #ifndef _GLIBCXX_CMATH
  50:/usr/include/newlib/c++/9.2.1/cmath **** #define _GLIBCXX_CMATH 1
  51:/usr/include/newlib/c++/9.2.1/cmath **** 
  52:/usr/include/newlib/c++/9.2.1/cmath **** // Get rid of those macros defined in <math.h> in lieu of real functions.
  53:/usr/include/newlib/c++/9.2.1/cmath **** #undef div
  54:/usr/include/newlib/c++/9.2.1/cmath **** #undef acos
  55:/usr/include/newlib/c++/9.2.1/cmath **** #undef asin
  56:/usr/include/newlib/c++/9.2.1/cmath **** #undef atan
  57:/usr/include/newlib/c++/9.2.1/cmath **** #undef atan2
  58:/usr/include/newlib/c++/9.2.1/cmath **** #undef ceil
  59:/usr/include/newlib/c++/9.2.1/cmath **** #undef cos
  60:/usr/include/newlib/c++/9.2.1/cmath **** #undef cosh
  61:/usr/include/newlib/c++/9.2.1/cmath **** #undef exp
  62:/usr/include/newlib/c++/9.2.1/cmath **** #undef fabs
  63:/usr/include/newlib/c++/9.2.1/cmath **** #undef floor
  64:/usr/include/newlib/c++/9.2.1/cmath **** #undef fmod
  65:/usr/include/newlib/c++/9.2.1/cmath **** #undef frexp
  66:/usr/include/newlib/c++/9.2.1/cmath **** #undef ldexp
  67:/usr/include/newlib/c++/9.2.1/cmath **** #undef log
  68:/usr/include/newlib/c++/9.2.1/cmath **** #undef log10
  69:/usr/include/newlib/c++/9.2.1/cmath **** #undef modf
  70:/usr/include/newlib/c++/9.2.1/cmath **** #undef pow
ARM GAS  /tmp/ccF7J5sE.s 			page 64


  71:/usr/include/newlib/c++/9.2.1/cmath **** #undef sin
  72:/usr/include/newlib/c++/9.2.1/cmath **** #undef sinh
  73:/usr/include/newlib/c++/9.2.1/cmath **** #undef sqrt
  74:/usr/include/newlib/c++/9.2.1/cmath **** #undef tan
  75:/usr/include/newlib/c++/9.2.1/cmath **** #undef tanh
  76:/usr/include/newlib/c++/9.2.1/cmath **** 
  77:/usr/include/newlib/c++/9.2.1/cmath **** extern "C++"
  78:/usr/include/newlib/c++/9.2.1/cmath **** {
  79:/usr/include/newlib/c++/9.2.1/cmath **** namespace std _GLIBCXX_VISIBILITY(default)
  80:/usr/include/newlib/c++/9.2.1/cmath **** {
  81:/usr/include/newlib/c++/9.2.1/cmath **** _GLIBCXX_BEGIN_NAMESPACE_VERSION
  82:/usr/include/newlib/c++/9.2.1/cmath **** 
  83:/usr/include/newlib/c++/9.2.1/cmath ****   using ::acos;
  84:/usr/include/newlib/c++/9.2.1/cmath **** 
  85:/usr/include/newlib/c++/9.2.1/cmath **** #ifndef __CORRECT_ISO_CPP_MATH_H_PROTO
  86:/usr/include/newlib/c++/9.2.1/cmath ****   inline _GLIBCXX_CONSTEXPR float
  87:/usr/include/newlib/c++/9.2.1/cmath ****   acos(float __x)
  88:/usr/include/newlib/c++/9.2.1/cmath ****   { return __builtin_acosf(__x); }
  89:/usr/include/newlib/c++/9.2.1/cmath **** 
  90:/usr/include/newlib/c++/9.2.1/cmath ****   inline _GLIBCXX_CONSTEXPR long double
  91:/usr/include/newlib/c++/9.2.1/cmath ****   acos(long double __x)
  92:/usr/include/newlib/c++/9.2.1/cmath ****   { return __builtin_acosl(__x); }
  93:/usr/include/newlib/c++/9.2.1/cmath **** #endif
  94:/usr/include/newlib/c++/9.2.1/cmath **** 
  95:/usr/include/newlib/c++/9.2.1/cmath ****   template<typename _Tp>
  96:/usr/include/newlib/c++/9.2.1/cmath ****     inline _GLIBCXX_CONSTEXPR
  97:/usr/include/newlib/c++/9.2.1/cmath ****     typename __gnu_cxx::__enable_if<__is_integer<_Tp>::__value, 
  98:/usr/include/newlib/c++/9.2.1/cmath ****                                     double>::__type
  99:/usr/include/newlib/c++/9.2.1/cmath ****     acos(_Tp __x)
 100:/usr/include/newlib/c++/9.2.1/cmath ****     { return __builtin_acos(__x); }
 101:/usr/include/newlib/c++/9.2.1/cmath **** 
 102:/usr/include/newlib/c++/9.2.1/cmath ****   using ::asin;
 103:/usr/include/newlib/c++/9.2.1/cmath **** 
 104:/usr/include/newlib/c++/9.2.1/cmath **** #ifndef __CORRECT_ISO_CPP_MATH_H_PROTO
 105:/usr/include/newlib/c++/9.2.1/cmath ****   inline _GLIBCXX_CONSTEXPR float
 106:/usr/include/newlib/c++/9.2.1/cmath ****   asin(float __x)
 107:/usr/include/newlib/c++/9.2.1/cmath ****   { return __builtin_asinf(__x); }
 108:/usr/include/newlib/c++/9.2.1/cmath **** 
 109:/usr/include/newlib/c++/9.2.1/cmath ****   inline _GLIBCXX_CONSTEXPR long double
 110:/usr/include/newlib/c++/9.2.1/cmath ****   asin(long double __x)
 111:/usr/include/newlib/c++/9.2.1/cmath ****   { return __builtin_asinl(__x); }
 112:/usr/include/newlib/c++/9.2.1/cmath **** #endif
 113:/usr/include/newlib/c++/9.2.1/cmath **** 
 114:/usr/include/newlib/c++/9.2.1/cmath ****   template<typename _Tp>
 115:/usr/include/newlib/c++/9.2.1/cmath ****     inline _GLIBCXX_CONSTEXPR
 116:/usr/include/newlib/c++/9.2.1/cmath ****     typename __gnu_cxx::__enable_if<__is_integer<_Tp>::__value,
 117:/usr/include/newlib/c++/9.2.1/cmath ****                                     double>::__type
 118:/usr/include/newlib/c++/9.2.1/cmath ****     asin(_Tp __x)
 119:/usr/include/newlib/c++/9.2.1/cmath ****     { return __builtin_asin(__x); }
 120:/usr/include/newlib/c++/9.2.1/cmath **** 
 121:/usr/include/newlib/c++/9.2.1/cmath ****   using ::atan;
 122:/usr/include/newlib/c++/9.2.1/cmath **** 
 123:/usr/include/newlib/c++/9.2.1/cmath **** #ifndef __CORRECT_ISO_CPP_MATH_H_PROTO
 124:/usr/include/newlib/c++/9.2.1/cmath ****   inline _GLIBCXX_CONSTEXPR float
 125:/usr/include/newlib/c++/9.2.1/cmath ****   atan(float __x)
 126:/usr/include/newlib/c++/9.2.1/cmath ****   { return __builtin_atanf(__x); }
 127:/usr/include/newlib/c++/9.2.1/cmath **** 
ARM GAS  /tmp/ccF7J5sE.s 			page 65


 128:/usr/include/newlib/c++/9.2.1/cmath ****   inline _GLIBCXX_CONSTEXPR long double
 129:/usr/include/newlib/c++/9.2.1/cmath ****   atan(long double __x)
 130:/usr/include/newlib/c++/9.2.1/cmath ****   { return __builtin_atanl(__x); }
 131:/usr/include/newlib/c++/9.2.1/cmath **** #endif
 132:/usr/include/newlib/c++/9.2.1/cmath **** 
 133:/usr/include/newlib/c++/9.2.1/cmath ****   template<typename _Tp>
 134:/usr/include/newlib/c++/9.2.1/cmath ****     inline _GLIBCXX_CONSTEXPR
 135:/usr/include/newlib/c++/9.2.1/cmath ****     typename __gnu_cxx::__enable_if<__is_integer<_Tp>::__value,
 136:/usr/include/newlib/c++/9.2.1/cmath ****                                     double>::__type
 137:/usr/include/newlib/c++/9.2.1/cmath ****     atan(_Tp __x)
 138:/usr/include/newlib/c++/9.2.1/cmath ****     { return __builtin_atan(__x); }
 139:/usr/include/newlib/c++/9.2.1/cmath **** 
 140:/usr/include/newlib/c++/9.2.1/cmath ****   using ::atan2;
 141:/usr/include/newlib/c++/9.2.1/cmath **** 
 142:/usr/include/newlib/c++/9.2.1/cmath **** #ifndef __CORRECT_ISO_CPP_MATH_H_PROTO
 143:/usr/include/newlib/c++/9.2.1/cmath ****   inline _GLIBCXX_CONSTEXPR float
 144:/usr/include/newlib/c++/9.2.1/cmath ****   atan2(float __y, float __x)
 145:/usr/include/newlib/c++/9.2.1/cmath ****   { return __builtin_atan2f(__y, __x); }
 146:/usr/include/newlib/c++/9.2.1/cmath **** 
 147:/usr/include/newlib/c++/9.2.1/cmath ****   inline _GLIBCXX_CONSTEXPR long double
 148:/usr/include/newlib/c++/9.2.1/cmath ****   atan2(long double __y, long double __x)
 149:/usr/include/newlib/c++/9.2.1/cmath ****   { return __builtin_atan2l(__y, __x); }
 150:/usr/include/newlib/c++/9.2.1/cmath **** #endif
 151:/usr/include/newlib/c++/9.2.1/cmath **** 
 152:/usr/include/newlib/c++/9.2.1/cmath ****   template<typename _Tp, typename _Up>
 153:/usr/include/newlib/c++/9.2.1/cmath ****     inline _GLIBCXX_CONSTEXPR
 154:/usr/include/newlib/c++/9.2.1/cmath ****     typename __gnu_cxx::__promote_2<_Tp, _Up>::__type
 155:/usr/include/newlib/c++/9.2.1/cmath ****     atan2(_Tp __y, _Up __x)
 156:/usr/include/newlib/c++/9.2.1/cmath ****     {
 157:/usr/include/newlib/c++/9.2.1/cmath ****       typedef typename __gnu_cxx::__promote_2<_Tp, _Up>::__type __type;
 158:/usr/include/newlib/c++/9.2.1/cmath ****       return atan2(__type(__y), __type(__x));
 159:/usr/include/newlib/c++/9.2.1/cmath ****     }
 160:/usr/include/newlib/c++/9.2.1/cmath **** 
 161:/usr/include/newlib/c++/9.2.1/cmath ****   using ::ceil;
 162:/usr/include/newlib/c++/9.2.1/cmath **** 
 163:/usr/include/newlib/c++/9.2.1/cmath **** #ifndef __CORRECT_ISO_CPP_MATH_H_PROTO
 164:/usr/include/newlib/c++/9.2.1/cmath ****   inline _GLIBCXX_CONSTEXPR float
 165:/usr/include/newlib/c++/9.2.1/cmath ****   ceil(float __x)
 166:/usr/include/newlib/c++/9.2.1/cmath ****   { return __builtin_ceilf(__x); }
 167:/usr/include/newlib/c++/9.2.1/cmath **** 
 168:/usr/include/newlib/c++/9.2.1/cmath ****   inline _GLIBCXX_CONSTEXPR long double
 169:/usr/include/newlib/c++/9.2.1/cmath ****   ceil(long double __x)
 170:/usr/include/newlib/c++/9.2.1/cmath ****   { return __builtin_ceill(__x); }
 171:/usr/include/newlib/c++/9.2.1/cmath **** #endif
 172:/usr/include/newlib/c++/9.2.1/cmath **** 
 173:/usr/include/newlib/c++/9.2.1/cmath ****   template<typename _Tp>
 174:/usr/include/newlib/c++/9.2.1/cmath ****     inline _GLIBCXX_CONSTEXPR
 175:/usr/include/newlib/c++/9.2.1/cmath ****     typename __gnu_cxx::__enable_if<__is_integer<_Tp>::__value, 
 176:/usr/include/newlib/c++/9.2.1/cmath ****                                     double>::__type
 177:/usr/include/newlib/c++/9.2.1/cmath ****     ceil(_Tp __x)
 178:/usr/include/newlib/c++/9.2.1/cmath ****     { return __builtin_ceil(__x); }
 179:/usr/include/newlib/c++/9.2.1/cmath **** 
 180:/usr/include/newlib/c++/9.2.1/cmath ****   using ::cos;
 181:/usr/include/newlib/c++/9.2.1/cmath **** 
 182:/usr/include/newlib/c++/9.2.1/cmath **** #ifndef __CORRECT_ISO_CPP_MATH_H_PROTO
 183:/usr/include/newlib/c++/9.2.1/cmath ****   inline _GLIBCXX_CONSTEXPR float
 184:/usr/include/newlib/c++/9.2.1/cmath ****   cos(float __x)
ARM GAS  /tmp/ccF7J5sE.s 			page 66


 185:/usr/include/newlib/c++/9.2.1/cmath ****   { return __builtin_cosf(__x); }
 1915              		.loc 16 185 26 view .LVU396
 1916 0050 B0EE680A 		vmov.f32	s0, s17
 1917 0054 FFF7FEFF 		bl	cosf
 1918              	.LVL140:
 1919              		.loc 16 185 26 view .LVU397
 1920              	.LBE1120:
 1921              	.LBE1119:
 313:../../libdaisy/src/hid/disp/display.h **** 
 1922              		.loc 6 313 9 view .LVU398
 1923 0058 B7EECAAB 		vcvt.f32.f64	s20, d10
 1924              	.LVL141:
 1925              	.LBB1123:
 1926              	.LBI1119:
 184:/usr/include/newlib/c++/9.2.1/cmath ****   { return __builtin_cosf(__x); }
 1927              		.loc 16 184 3 is_stmt 1 view .LVU399
 1928              	.LBB1121:
 1929              		.loc 16 185 5 view .LVU400
 1930              		.loc 16 185 5 is_stmt 0 view .LVU401
 1931              	.LBE1121:
 1932              	.LBE1123:
 315:../../libdaisy/src/hid/disp/display.h ****         start_y = -sin(start_angle_rad) * radius;
 1933              		.loc 6 315 9 view .LVU402
 1934 005c 07EE904A 		vmov	s15, r4	@ int
 1935              	.LBB1124:
 1936              	.LBB1122:
 1937              		.loc 16 185 26 view .LVU403
 1938 0060 B0EE408A 		vmov.f32	s16, s0
 1939              	.LBE1122:
 1940              	.LBE1124:
 1941              	.LBB1125:
 1942              	.LBB1126:
 186:/usr/include/newlib/c++/9.2.1/cmath **** 
 187:/usr/include/newlib/c++/9.2.1/cmath ****   inline _GLIBCXX_CONSTEXPR long double
 188:/usr/include/newlib/c++/9.2.1/cmath ****   cos(long double __x)
 189:/usr/include/newlib/c++/9.2.1/cmath ****   { return __builtin_cosl(__x); }
 190:/usr/include/newlib/c++/9.2.1/cmath **** #endif
 191:/usr/include/newlib/c++/9.2.1/cmath **** 
 192:/usr/include/newlib/c++/9.2.1/cmath ****   template<typename _Tp>
 193:/usr/include/newlib/c++/9.2.1/cmath ****     inline _GLIBCXX_CONSTEXPR
 194:/usr/include/newlib/c++/9.2.1/cmath ****     typename __gnu_cxx::__enable_if<__is_integer<_Tp>::__value,
 195:/usr/include/newlib/c++/9.2.1/cmath ****                                     double>::__type
 196:/usr/include/newlib/c++/9.2.1/cmath ****     cos(_Tp __x)
 197:/usr/include/newlib/c++/9.2.1/cmath ****     { return __builtin_cos(__x); }
 198:/usr/include/newlib/c++/9.2.1/cmath **** 
 199:/usr/include/newlib/c++/9.2.1/cmath ****   using ::cosh;
 200:/usr/include/newlib/c++/9.2.1/cmath **** 
 201:/usr/include/newlib/c++/9.2.1/cmath **** #ifndef __CORRECT_ISO_CPP_MATH_H_PROTO
 202:/usr/include/newlib/c++/9.2.1/cmath ****   inline _GLIBCXX_CONSTEXPR float
 203:/usr/include/newlib/c++/9.2.1/cmath ****   cosh(float __x)
 204:/usr/include/newlib/c++/9.2.1/cmath ****   { return __builtin_coshf(__x); }
 205:/usr/include/newlib/c++/9.2.1/cmath **** 
 206:/usr/include/newlib/c++/9.2.1/cmath ****   inline _GLIBCXX_CONSTEXPR long double
 207:/usr/include/newlib/c++/9.2.1/cmath ****   cosh(long double __x)
 208:/usr/include/newlib/c++/9.2.1/cmath ****   { return __builtin_coshl(__x); }
 209:/usr/include/newlib/c++/9.2.1/cmath **** #endif
 210:/usr/include/newlib/c++/9.2.1/cmath **** 
ARM GAS  /tmp/ccF7J5sE.s 			page 67


 211:/usr/include/newlib/c++/9.2.1/cmath ****   template<typename _Tp>
 212:/usr/include/newlib/c++/9.2.1/cmath ****     inline _GLIBCXX_CONSTEXPR
 213:/usr/include/newlib/c++/9.2.1/cmath ****     typename __gnu_cxx::__enable_if<__is_integer<_Tp>::__value,
 214:/usr/include/newlib/c++/9.2.1/cmath ****                                     double>::__type
 215:/usr/include/newlib/c++/9.2.1/cmath ****     cosh(_Tp __x)
 216:/usr/include/newlib/c++/9.2.1/cmath ****     { return __builtin_cosh(__x); }
 217:/usr/include/newlib/c++/9.2.1/cmath **** 
 218:/usr/include/newlib/c++/9.2.1/cmath ****   using ::exp;
 219:/usr/include/newlib/c++/9.2.1/cmath **** 
 220:/usr/include/newlib/c++/9.2.1/cmath **** #ifndef __CORRECT_ISO_CPP_MATH_H_PROTO
 221:/usr/include/newlib/c++/9.2.1/cmath ****   inline _GLIBCXX_CONSTEXPR float
 222:/usr/include/newlib/c++/9.2.1/cmath ****   exp(float __x)
 223:/usr/include/newlib/c++/9.2.1/cmath ****   { return __builtin_expf(__x); }
 224:/usr/include/newlib/c++/9.2.1/cmath **** 
 225:/usr/include/newlib/c++/9.2.1/cmath ****   inline _GLIBCXX_CONSTEXPR long double
 226:/usr/include/newlib/c++/9.2.1/cmath ****   exp(long double __x)
 227:/usr/include/newlib/c++/9.2.1/cmath ****   { return __builtin_expl(__x); }
 228:/usr/include/newlib/c++/9.2.1/cmath **** #endif
 229:/usr/include/newlib/c++/9.2.1/cmath **** 
 230:/usr/include/newlib/c++/9.2.1/cmath ****   template<typename _Tp>
 231:/usr/include/newlib/c++/9.2.1/cmath ****     inline _GLIBCXX_CONSTEXPR
 232:/usr/include/newlib/c++/9.2.1/cmath ****     typename __gnu_cxx::__enable_if<__is_integer<_Tp>::__value,
 233:/usr/include/newlib/c++/9.2.1/cmath ****                                     double>::__type
 234:/usr/include/newlib/c++/9.2.1/cmath ****     exp(_Tp __x)
 235:/usr/include/newlib/c++/9.2.1/cmath ****     { return __builtin_exp(__x); }
 236:/usr/include/newlib/c++/9.2.1/cmath **** 
 237:/usr/include/newlib/c++/9.2.1/cmath ****   using ::fabs;
 238:/usr/include/newlib/c++/9.2.1/cmath **** 
 239:/usr/include/newlib/c++/9.2.1/cmath **** #ifndef __CORRECT_ISO_CPP_MATH_H_PROTO
 240:/usr/include/newlib/c++/9.2.1/cmath ****   inline _GLIBCXX_CONSTEXPR float
 241:/usr/include/newlib/c++/9.2.1/cmath ****   fabs(float __x)
 242:/usr/include/newlib/c++/9.2.1/cmath ****   { return __builtin_fabsf(__x); }
 243:/usr/include/newlib/c++/9.2.1/cmath **** 
 244:/usr/include/newlib/c++/9.2.1/cmath ****   inline _GLIBCXX_CONSTEXPR long double
 245:/usr/include/newlib/c++/9.2.1/cmath ****   fabs(long double __x)
 246:/usr/include/newlib/c++/9.2.1/cmath ****   { return __builtin_fabsl(__x); }
 247:/usr/include/newlib/c++/9.2.1/cmath **** #endif
 248:/usr/include/newlib/c++/9.2.1/cmath **** 
 249:/usr/include/newlib/c++/9.2.1/cmath ****   template<typename _Tp>
 250:/usr/include/newlib/c++/9.2.1/cmath ****     inline _GLIBCXX_CONSTEXPR
 251:/usr/include/newlib/c++/9.2.1/cmath ****     typename __gnu_cxx::__enable_if<__is_integer<_Tp>::__value,
 252:/usr/include/newlib/c++/9.2.1/cmath ****                                     double>::__type
 253:/usr/include/newlib/c++/9.2.1/cmath ****     fabs(_Tp __x)
 254:/usr/include/newlib/c++/9.2.1/cmath ****     { return __builtin_fabs(__x); }
 255:/usr/include/newlib/c++/9.2.1/cmath **** 
 256:/usr/include/newlib/c++/9.2.1/cmath ****   using ::floor;
 257:/usr/include/newlib/c++/9.2.1/cmath **** 
 258:/usr/include/newlib/c++/9.2.1/cmath **** #ifndef __CORRECT_ISO_CPP_MATH_H_PROTO
 259:/usr/include/newlib/c++/9.2.1/cmath ****   inline _GLIBCXX_CONSTEXPR float
 260:/usr/include/newlib/c++/9.2.1/cmath ****   floor(float __x)
 261:/usr/include/newlib/c++/9.2.1/cmath ****   { return __builtin_floorf(__x); }
 262:/usr/include/newlib/c++/9.2.1/cmath **** 
 263:/usr/include/newlib/c++/9.2.1/cmath ****   inline _GLIBCXX_CONSTEXPR long double
 264:/usr/include/newlib/c++/9.2.1/cmath ****   floor(long double __x)
 265:/usr/include/newlib/c++/9.2.1/cmath ****   { return __builtin_floorl(__x); }
 266:/usr/include/newlib/c++/9.2.1/cmath **** #endif
 267:/usr/include/newlib/c++/9.2.1/cmath **** 
ARM GAS  /tmp/ccF7J5sE.s 			page 68


 268:/usr/include/newlib/c++/9.2.1/cmath ****   template<typename _Tp>
 269:/usr/include/newlib/c++/9.2.1/cmath ****     inline _GLIBCXX_CONSTEXPR
 270:/usr/include/newlib/c++/9.2.1/cmath ****     typename __gnu_cxx::__enable_if<__is_integer<_Tp>::__value,
 271:/usr/include/newlib/c++/9.2.1/cmath ****                                     double>::__type
 272:/usr/include/newlib/c++/9.2.1/cmath ****     floor(_Tp __x)
 273:/usr/include/newlib/c++/9.2.1/cmath ****     { return __builtin_floor(__x); }
 274:/usr/include/newlib/c++/9.2.1/cmath **** 
 275:/usr/include/newlib/c++/9.2.1/cmath ****   using ::fmod;
 276:/usr/include/newlib/c++/9.2.1/cmath **** 
 277:/usr/include/newlib/c++/9.2.1/cmath **** #ifndef __CORRECT_ISO_CPP_MATH_H_PROTO
 278:/usr/include/newlib/c++/9.2.1/cmath ****   inline _GLIBCXX_CONSTEXPR float
 279:/usr/include/newlib/c++/9.2.1/cmath ****   fmod(float __x, float __y)
 280:/usr/include/newlib/c++/9.2.1/cmath ****   { return __builtin_fmodf(__x, __y); }
 281:/usr/include/newlib/c++/9.2.1/cmath **** 
 282:/usr/include/newlib/c++/9.2.1/cmath ****   inline _GLIBCXX_CONSTEXPR long double
 283:/usr/include/newlib/c++/9.2.1/cmath ****   fmod(long double __x, long double __y)
 284:/usr/include/newlib/c++/9.2.1/cmath ****   { return __builtin_fmodl(__x, __y); }
 285:/usr/include/newlib/c++/9.2.1/cmath **** #endif
 286:/usr/include/newlib/c++/9.2.1/cmath **** 
 287:/usr/include/newlib/c++/9.2.1/cmath ****   template<typename _Tp, typename _Up>
 288:/usr/include/newlib/c++/9.2.1/cmath ****     inline _GLIBCXX_CONSTEXPR
 289:/usr/include/newlib/c++/9.2.1/cmath ****     typename __gnu_cxx::__promote_2<_Tp, _Up>::__type
 290:/usr/include/newlib/c++/9.2.1/cmath ****     fmod(_Tp __x, _Up __y)
 291:/usr/include/newlib/c++/9.2.1/cmath ****     {
 292:/usr/include/newlib/c++/9.2.1/cmath ****       typedef typename __gnu_cxx::__promote_2<_Tp, _Up>::__type __type;
 293:/usr/include/newlib/c++/9.2.1/cmath ****       return fmod(__type(__x), __type(__y));
 294:/usr/include/newlib/c++/9.2.1/cmath ****     }
 295:/usr/include/newlib/c++/9.2.1/cmath **** 
 296:/usr/include/newlib/c++/9.2.1/cmath ****   using ::frexp;
 297:/usr/include/newlib/c++/9.2.1/cmath **** 
 298:/usr/include/newlib/c++/9.2.1/cmath **** #ifndef __CORRECT_ISO_CPP_MATH_H_PROTO
 299:/usr/include/newlib/c++/9.2.1/cmath ****   inline float
 300:/usr/include/newlib/c++/9.2.1/cmath ****   frexp(float __x, int* __exp)
 301:/usr/include/newlib/c++/9.2.1/cmath ****   { return __builtin_frexpf(__x, __exp); }
 302:/usr/include/newlib/c++/9.2.1/cmath **** 
 303:/usr/include/newlib/c++/9.2.1/cmath ****   inline long double
 304:/usr/include/newlib/c++/9.2.1/cmath ****   frexp(long double __x, int* __exp)
 305:/usr/include/newlib/c++/9.2.1/cmath ****   { return __builtin_frexpl(__x, __exp); }
 306:/usr/include/newlib/c++/9.2.1/cmath **** #endif
 307:/usr/include/newlib/c++/9.2.1/cmath **** 
 308:/usr/include/newlib/c++/9.2.1/cmath ****   template<typename _Tp>
 309:/usr/include/newlib/c++/9.2.1/cmath ****     inline _GLIBCXX_CONSTEXPR
 310:/usr/include/newlib/c++/9.2.1/cmath ****     typename __gnu_cxx::__enable_if<__is_integer<_Tp>::__value, 
 311:/usr/include/newlib/c++/9.2.1/cmath ****                                     double>::__type
 312:/usr/include/newlib/c++/9.2.1/cmath ****     frexp(_Tp __x, int* __exp)
 313:/usr/include/newlib/c++/9.2.1/cmath ****     { return __builtin_frexp(__x, __exp); }
 314:/usr/include/newlib/c++/9.2.1/cmath **** 
 315:/usr/include/newlib/c++/9.2.1/cmath ****   using ::ldexp;
 316:/usr/include/newlib/c++/9.2.1/cmath **** 
 317:/usr/include/newlib/c++/9.2.1/cmath **** #ifndef __CORRECT_ISO_CPP_MATH_H_PROTO
 318:/usr/include/newlib/c++/9.2.1/cmath ****   inline _GLIBCXX_CONSTEXPR float
 319:/usr/include/newlib/c++/9.2.1/cmath ****   ldexp(float __x, int __exp)
 320:/usr/include/newlib/c++/9.2.1/cmath ****   { return __builtin_ldexpf(__x, __exp); }
 321:/usr/include/newlib/c++/9.2.1/cmath **** 
 322:/usr/include/newlib/c++/9.2.1/cmath ****   inline _GLIBCXX_CONSTEXPR long double
 323:/usr/include/newlib/c++/9.2.1/cmath ****   ldexp(long double __x, int __exp)
 324:/usr/include/newlib/c++/9.2.1/cmath ****   { return __builtin_ldexpl(__x, __exp); }
ARM GAS  /tmp/ccF7J5sE.s 			page 69


 325:/usr/include/newlib/c++/9.2.1/cmath **** #endif
 326:/usr/include/newlib/c++/9.2.1/cmath **** 
 327:/usr/include/newlib/c++/9.2.1/cmath ****   template<typename _Tp>
 328:/usr/include/newlib/c++/9.2.1/cmath ****     inline _GLIBCXX_CONSTEXPR
 329:/usr/include/newlib/c++/9.2.1/cmath ****     typename __gnu_cxx::__enable_if<__is_integer<_Tp>::__value, 
 330:/usr/include/newlib/c++/9.2.1/cmath ****                                     double>::__type
 331:/usr/include/newlib/c++/9.2.1/cmath ****     ldexp(_Tp __x, int __exp)
 332:/usr/include/newlib/c++/9.2.1/cmath ****     { return __builtin_ldexp(__x, __exp); }
 333:/usr/include/newlib/c++/9.2.1/cmath **** 
 334:/usr/include/newlib/c++/9.2.1/cmath ****   using ::log;
 335:/usr/include/newlib/c++/9.2.1/cmath **** 
 336:/usr/include/newlib/c++/9.2.1/cmath **** #ifndef __CORRECT_ISO_CPP_MATH_H_PROTO
 337:/usr/include/newlib/c++/9.2.1/cmath ****   inline _GLIBCXX_CONSTEXPR float
 338:/usr/include/newlib/c++/9.2.1/cmath ****   log(float __x)
 339:/usr/include/newlib/c++/9.2.1/cmath ****   { return __builtin_logf(__x); }
 340:/usr/include/newlib/c++/9.2.1/cmath **** 
 341:/usr/include/newlib/c++/9.2.1/cmath ****   inline _GLIBCXX_CONSTEXPR long double
 342:/usr/include/newlib/c++/9.2.1/cmath ****   log(long double __x)
 343:/usr/include/newlib/c++/9.2.1/cmath ****   { return __builtin_logl(__x); }
 344:/usr/include/newlib/c++/9.2.1/cmath **** #endif
 345:/usr/include/newlib/c++/9.2.1/cmath **** 
 346:/usr/include/newlib/c++/9.2.1/cmath ****   template<typename _Tp>
 347:/usr/include/newlib/c++/9.2.1/cmath ****     inline _GLIBCXX_CONSTEXPR
 348:/usr/include/newlib/c++/9.2.1/cmath ****     typename __gnu_cxx::__enable_if<__is_integer<_Tp>::__value, 
 349:/usr/include/newlib/c++/9.2.1/cmath ****                                     double>::__type
 350:/usr/include/newlib/c++/9.2.1/cmath ****     log(_Tp __x)
 351:/usr/include/newlib/c++/9.2.1/cmath ****     { return __builtin_log(__x); }
 352:/usr/include/newlib/c++/9.2.1/cmath **** 
 353:/usr/include/newlib/c++/9.2.1/cmath ****   using ::log10;
 354:/usr/include/newlib/c++/9.2.1/cmath **** 
 355:/usr/include/newlib/c++/9.2.1/cmath **** #ifndef __CORRECT_ISO_CPP_MATH_H_PROTO
 356:/usr/include/newlib/c++/9.2.1/cmath ****   inline _GLIBCXX_CONSTEXPR float
 357:/usr/include/newlib/c++/9.2.1/cmath ****   log10(float __x)
 358:/usr/include/newlib/c++/9.2.1/cmath ****   { return __builtin_log10f(__x); }
 359:/usr/include/newlib/c++/9.2.1/cmath **** 
 360:/usr/include/newlib/c++/9.2.1/cmath ****   inline _GLIBCXX_CONSTEXPR long double
 361:/usr/include/newlib/c++/9.2.1/cmath ****   log10(long double __x)
 362:/usr/include/newlib/c++/9.2.1/cmath ****   { return __builtin_log10l(__x); }
 363:/usr/include/newlib/c++/9.2.1/cmath **** #endif
 364:/usr/include/newlib/c++/9.2.1/cmath **** 
 365:/usr/include/newlib/c++/9.2.1/cmath ****   template<typename _Tp>
 366:/usr/include/newlib/c++/9.2.1/cmath ****     inline _GLIBCXX_CONSTEXPR
 367:/usr/include/newlib/c++/9.2.1/cmath ****     typename __gnu_cxx::__enable_if<__is_integer<_Tp>::__value,
 368:/usr/include/newlib/c++/9.2.1/cmath ****                                     double>::__type
 369:/usr/include/newlib/c++/9.2.1/cmath ****     log10(_Tp __x)
 370:/usr/include/newlib/c++/9.2.1/cmath ****     { return __builtin_log10(__x); }
 371:/usr/include/newlib/c++/9.2.1/cmath **** 
 372:/usr/include/newlib/c++/9.2.1/cmath ****   using ::modf;
 373:/usr/include/newlib/c++/9.2.1/cmath **** 
 374:/usr/include/newlib/c++/9.2.1/cmath **** #ifndef __CORRECT_ISO_CPP_MATH_H_PROTO
 375:/usr/include/newlib/c++/9.2.1/cmath ****   inline float
 376:/usr/include/newlib/c++/9.2.1/cmath ****   modf(float __x, float* __iptr)
 377:/usr/include/newlib/c++/9.2.1/cmath ****   { return __builtin_modff(__x, __iptr); }
 378:/usr/include/newlib/c++/9.2.1/cmath **** 
 379:/usr/include/newlib/c++/9.2.1/cmath ****   inline long double
 380:/usr/include/newlib/c++/9.2.1/cmath ****   modf(long double __x, long double* __iptr)
 381:/usr/include/newlib/c++/9.2.1/cmath ****   { return __builtin_modfl(__x, __iptr); }
ARM GAS  /tmp/ccF7J5sE.s 			page 70


 382:/usr/include/newlib/c++/9.2.1/cmath **** #endif
 383:/usr/include/newlib/c++/9.2.1/cmath **** 
 384:/usr/include/newlib/c++/9.2.1/cmath ****   using ::pow;
 385:/usr/include/newlib/c++/9.2.1/cmath **** 
 386:/usr/include/newlib/c++/9.2.1/cmath **** #ifndef __CORRECT_ISO_CPP_MATH_H_PROTO
 387:/usr/include/newlib/c++/9.2.1/cmath ****   inline _GLIBCXX_CONSTEXPR float
 388:/usr/include/newlib/c++/9.2.1/cmath ****   pow(float __x, float __y)
 389:/usr/include/newlib/c++/9.2.1/cmath ****   { return __builtin_powf(__x, __y); }
 390:/usr/include/newlib/c++/9.2.1/cmath **** 
 391:/usr/include/newlib/c++/9.2.1/cmath ****   inline _GLIBCXX_CONSTEXPR long double
 392:/usr/include/newlib/c++/9.2.1/cmath ****   pow(long double __x, long double __y)
 393:/usr/include/newlib/c++/9.2.1/cmath ****   { return __builtin_powl(__x, __y); }
 394:/usr/include/newlib/c++/9.2.1/cmath **** 
 395:/usr/include/newlib/c++/9.2.1/cmath **** #if __cplusplus < 201103L
 396:/usr/include/newlib/c++/9.2.1/cmath ****   // _GLIBCXX_RESOLVE_LIB_DEFECTS
 397:/usr/include/newlib/c++/9.2.1/cmath ****   // DR 550. What should the return type of pow(float,int) be?
 398:/usr/include/newlib/c++/9.2.1/cmath ****   inline double
 399:/usr/include/newlib/c++/9.2.1/cmath ****   pow(double __x, int __i)
 400:/usr/include/newlib/c++/9.2.1/cmath ****   { return __builtin_powi(__x, __i); }
 401:/usr/include/newlib/c++/9.2.1/cmath **** 
 402:/usr/include/newlib/c++/9.2.1/cmath ****   inline float
 403:/usr/include/newlib/c++/9.2.1/cmath ****   pow(float __x, int __n)
 404:/usr/include/newlib/c++/9.2.1/cmath ****   { return __builtin_powif(__x, __n); }
 405:/usr/include/newlib/c++/9.2.1/cmath **** 
 406:/usr/include/newlib/c++/9.2.1/cmath ****   inline long double
 407:/usr/include/newlib/c++/9.2.1/cmath ****   pow(long double __x, int __n)
 408:/usr/include/newlib/c++/9.2.1/cmath ****   { return __builtin_powil(__x, __n); }
 409:/usr/include/newlib/c++/9.2.1/cmath **** #endif
 410:/usr/include/newlib/c++/9.2.1/cmath **** #endif
 411:/usr/include/newlib/c++/9.2.1/cmath **** 
 412:/usr/include/newlib/c++/9.2.1/cmath ****   template<typename _Tp, typename _Up>
 413:/usr/include/newlib/c++/9.2.1/cmath ****     inline _GLIBCXX_CONSTEXPR
 414:/usr/include/newlib/c++/9.2.1/cmath ****     typename __gnu_cxx::__promote_2<_Tp, _Up>::__type
 415:/usr/include/newlib/c++/9.2.1/cmath ****     pow(_Tp __x, _Up __y)
 416:/usr/include/newlib/c++/9.2.1/cmath ****     {
 417:/usr/include/newlib/c++/9.2.1/cmath ****       typedef typename __gnu_cxx::__promote_2<_Tp, _Up>::__type __type;
 418:/usr/include/newlib/c++/9.2.1/cmath ****       return pow(__type(__x), __type(__y));
 419:/usr/include/newlib/c++/9.2.1/cmath ****     }
 420:/usr/include/newlib/c++/9.2.1/cmath **** 
 421:/usr/include/newlib/c++/9.2.1/cmath ****   using ::sin;
 422:/usr/include/newlib/c++/9.2.1/cmath **** 
 423:/usr/include/newlib/c++/9.2.1/cmath **** #ifndef __CORRECT_ISO_CPP_MATH_H_PROTO
 424:/usr/include/newlib/c++/9.2.1/cmath ****   inline _GLIBCXX_CONSTEXPR float
 425:/usr/include/newlib/c++/9.2.1/cmath ****   sin(float __x)
 426:/usr/include/newlib/c++/9.2.1/cmath ****   { return __builtin_sinf(__x); }
 1943              		.loc 16 426 26 view .LVU404
 1944 0064 B0EE680A 		vmov.f32	s0, s17
 1945              	.LBE1126:
 1946              	.LBE1125:
 315:../../libdaisy/src/hid/disp/display.h ****         start_y = -sin(start_angle_rad) * radius;
 1947              		.loc 6 315 9 view .LVU405
 1948 0068 F8EE679A 		vcvt.f32.u32	s19, s15
 1949              	.LBB1129:
 1950              	.LBB1127:
 1951              		.loc 16 426 26 view .LVU406
 1952 006c FFF7FEFF 		bl	sinf
 1953              	.LVL142:
ARM GAS  /tmp/ccF7J5sE.s 			page 71


 1954 0070 F0EE408A 		vmov.f32	s17, s0
 1955              	.LVL143:
 1956              		.loc 16 426 26 view .LVU407
 1957              	.LBE1127:
 1958              	.LBE1129:
 1959              	.LBB1130:
 1960              	.LBB1131:
 185:/usr/include/newlib/c++/9.2.1/cmath **** 
 1961              		.loc 16 185 26 view .LVU408
 1962 0074 B0EE4A0A 		vmov.f32	s0, s20
 1963 0078 FFF7FEFF 		bl	cosf
 1964              	.LVL144:
 1965 007c B0EE409A 		vmov.f32	s18, s0
 1966              	.LBE1131:
 1967              	.LBE1130:
 1968              	.LBB1133:
 1969              	.LBB1134:
 1970              		.loc 16 426 26 view .LVU409
 1971 0080 B0EE4A0A 		vmov.f32	s0, s20
 1972 0084 FFF7FEFF 		bl	sinf
 1973              	.LVL145:
 1974              	.LBE1134:
 1975              	.LBE1133:
 316:../../libdaisy/src/hid/disp/display.h ****         end_x   = cos(end_angle_rad) * radius;
 1976              		.loc 6 316 9 view .LVU410
 1977 0088 68EEE98A 		vnmul.f32	s17, s17, s19
 318:../../libdaisy/src/hid/disp/display.h **** 
 1978              		.loc 6 318 9 view .LVU411
 1979 008c 20EE690A 		vnmul.f32	s0, s0, s19
 315:../../libdaisy/src/hid/disp/display.h ****         start_y = -sin(start_angle_rad) * radius;
 1980              		.loc 6 315 9 view .LVU412
 1981 0090 29EE888A 		vmul.f32	s16, s19, s16
 1982              	.LVL146:
 1983              	.LBB1136:
 1984              	.LBI1125:
 425:/usr/include/newlib/c++/9.2.1/cmath ****   { return __builtin_sinf(__x); }
 1985              		.loc 16 425 3 is_stmt 1 view .LVU413
 1986              	.LBB1128:
 1987              		.loc 16 426 5 view .LVU414
 1988              		.loc 16 426 5 is_stmt 0 view .LVU415
 1989              	.LBE1128:
 1990              	.LBE1136:
 1991              	.LBB1137:
 1992              	.LBI1130:
 184:/usr/include/newlib/c++/9.2.1/cmath ****   { return __builtin_cosf(__x); }
 1993              		.loc 16 184 3 is_stmt 1 view .LVU416
 1994              	.LBB1132:
 185:/usr/include/newlib/c++/9.2.1/cmath **** 
 1995              		.loc 16 185 5 view .LVU417
 185:/usr/include/newlib/c++/9.2.1/cmath **** 
 1996              		.loc 16 185 5 is_stmt 0 view .LVU418
 1997              	.LBE1132:
 1998              	.LBE1137:
 317:../../libdaisy/src/hid/disp/display.h ****         end_y   = -sin(end_angle_rad) * radius;
 1999              		.loc 6 317 9 view .LVU419
 2000 0094 29EE899A 		vmul.f32	s18, s19, s18
 2001              	.LVL147:
ARM GAS  /tmp/ccF7J5sE.s 			page 72


 2002              	.LBB1138:
 2003              	.LBI1133:
 425:/usr/include/newlib/c++/9.2.1/cmath ****   { return __builtin_sinf(__x); }
 2004              		.loc 16 425 3 is_stmt 1 view .LVU420
 2005              	.LBB1135:
 2006              		.loc 16 426 5 view .LVU421
 2007              		.loc 16 426 5 is_stmt 0 view .LVU422
 2008              	.LBE1135:
 2009              	.LBE1138:
 322:../../libdaisy/src/hid/disp/display.h ****            < 2.0f)
 2010              		.loc 6 322 25 view .LVU423
 2011 0098 70EE687A 		vsub.f32	s15, s0, s17
 321:../../libdaisy/src/hid/disp/display.h ****                + (end_y - start_y) * (end_y - start_y)
 2012              		.loc 6 321 9 view .LVU424
 2013 009c F0EE006A 		vmov.f32	s13, #2.0e+0
 321:../../libdaisy/src/hid/disp/display.h ****                + (end_y - start_y) * (end_y - start_y)
 2014              		.loc 6 321 19 view .LVU425
 2015 00a0 39EE487A 		vsub.f32	s14, s18, s16
 322:../../libdaisy/src/hid/disp/display.h ****            < 2.0f)
 2016              		.loc 6 322 36 view .LVU426
 2017 00a4 67EEA77A 		vmul.f32	s15, s15, s15
 322:../../libdaisy/src/hid/disp/display.h ****            < 2.0f)
 2018              		.loc 6 322 16 view .LVU427
 2019 00a8 E7EE077A 		vfma.f32	s15, s14, s14
 321:../../libdaisy/src/hid/disp/display.h ****                + (end_y - start_y) * (end_y - start_y)
 2020              		.loc 6 321 9 view .LVU428
 2021 00ac F4EEE67A 		vcmpe.f32	s15, s13
 2022 00b0 F1EE10FA 		vmrs	APSR_nzcv, FPSCR
 2023 00b4 06D5     		bpl	.L201
 325:../../libdaisy/src/hid/disp/display.h ****                 circle = true;
 2024              		.loc 6 325 13 view .LVU429
 2025 00b6 159B     		ldr	r3, [sp, #84]
 2026 00b8 B42B     		cmp	r3, #180
 2027 00ba 40F3EE80 		ble	.L142
 326:../../libdaisy/src/hid/disp/display.h ****             else
 2028              		.loc 6 326 17 view .LVU430
 2029 00be 4FF0010E 		mov	lr, #1
 2030 00c2 01E0     		b	.L145
 2031              	.L201:
 304:../../libdaisy/src/hid/disp/display.h **** 
 2032              		.loc 6 304 14 view .LVU431
 2033 00c4 4FF0000E 		mov	lr, #0
 2034              	.L145:
 2035              	.LVL148:
 302:../../libdaisy/src/hid/disp/display.h **** 
 2036              		.loc 6 302 9 view .LVU432
 2037 00c8 0126     		movs	r6, #1
 334:../../libdaisy/src/hid/disp/display.h **** 
 2038              		.loc 6 334 17 view .LVU433
 2039 00ca C4F10103 		rsb	r3, r4, #1
 302:../../libdaisy/src/hid/disp/display.h **** 
 2040              		.loc 6 302 9 view .LVU434
 2041 00ce 3A46     		mov	r2, r7
 332:../../libdaisy/src/hid/disp/display.h ****         t_y = 0;
 2042              		.loc 6 332 9 view .LVU435
 2043 00d0 6042     		rsbs	r0, r4, #0
 2044              	.LVL149:
ARM GAS  /tmp/ccF7J5sE.s 			page 73


 334:../../libdaisy/src/hid/disp/display.h **** 
 2045              		.loc 6 334 17 view .LVU436
 2046 00d2 B340     		lsls	r3, r3, r6
 2047              	.LVL150:
 333:../../libdaisy/src/hid/disp/display.h ****         err = 2 - 2 * radius;
 2048              		.loc 6 333 9 view .LVU437
 2049 00d4 0024     		movs	r4, #0
 2050              	.LVL151:
 302:../../libdaisy/src/hid/disp/display.h **** 
 2051              		.loc 6 302 9 view .LVU438
 2052 00d6 3146     		mov	r1, r6
 2053 00d8 3746     		mov	r7, r6
 2054              	.LVL152:
 302:../../libdaisy/src/hid/disp/display.h **** 
 2055              		.loc 6 302 9 view .LVU439
 2056 00da 9446     		mov	ip, r2
 2057 00dc 0196     		str	r6, [sp, #4]
 2058              	.LVL153:
 2059              	.L171:
 338:../../libdaisy/src/hid/disp/display.h ****             {
 2060              		.loc 6 338 13 view .LVU440
 2061 00de BEF1000F 		cmp	lr, #0
 2062 00e2 6AD1     		bne	.L147
 343:../../libdaisy/src/hid/disp/display.h ****                 t_exy  = end_x * t_y;
 2063              		.loc 6 343 34 view .LVU441
 2064 00e4 4242     		rsbs	r2, r0, #0
 340:../../libdaisy/src/hid/disp/display.h ****                 t_syx  = start_y * t_x;
 2065              		.loc 6 340 17 view .LVU442
 2066 00e6 06EE904A 		vmov	s13, r4	@ int
 342:../../libdaisy/src/hid/disp/display.h ****                 t_synx = start_y * -t_x;
 2067              		.loc 6 342 34 view .LVU443
 2068 00ea 6142     		rsbs	r1, r4, #0
 2069              	.LVL154:
 343:../../libdaisy/src/hid/disp/display.h ****                 t_exy  = end_x * t_y;
 2070              		.loc 6 343 34 view .LVU444
 2071 00ec 07EE102A 		vmov	s14, r2	@ int
 340:../../libdaisy/src/hid/disp/display.h ****                 t_syx  = start_y * t_x;
 2072              		.loc 6 340 17 view .LVU445
 2073 00f0 F8EEE66A 		vcvt.f32.s32	s13, s13
 342:../../libdaisy/src/hid/disp/display.h ****                 t_synx = start_y * -t_x;
 2074              		.loc 6 342 34 view .LVU446
 2075 00f4 07EE901A 		vmov	s15, r1	@ int
 349:../../libdaisy/src/hid/disp/display.h ****                 {
 2076              		.loc 6 349 17 view .LVU447
 2077 00f8 159A     		ldr	r2, [sp, #84]
 343:../../libdaisy/src/hid/disp/display.h ****                 t_exy  = end_x * t_y;
 2078              		.loc 6 343 34 view .LVU448
 2079 00fa B8EEC77A 		vcvt.f32.s32	s14, s14
 340:../../libdaisy/src/hid/disp/display.h ****                 t_syx  = start_y * t_x;
 2080              		.loc 6 340 17 view .LVU449
 2081 00fe 66EE884A 		vmul.f32	s9, s13, s16
 2082              	.LVL155:
 349:../../libdaisy/src/hid/disp/display.h ****                 {
 2083              		.loc 6 349 17 view .LVU450
 2084 0102 B42A     		cmp	r2, #180
 344:../../libdaisy/src/hid/disp/display.h ****                 t_eyx  = end_y * t_x;
 2085              		.loc 6 344 17 view .LVU451
ARM GAS  /tmp/ccF7J5sE.s 			page 74


 2086 0104 26EE896A 		vmul.f32	s12, s13, s18
 341:../../libdaisy/src/hid/disp/display.h ****                 t_sxny = start_x * -t_y;
 2087              		.loc 6 341 17 view .LVU452
 2088 0108 06EE900A 		vmov	s13, r0	@ int
 343:../../libdaisy/src/hid/disp/display.h ****                 t_exy  = end_x * t_y;
 2089              		.loc 6 343 17 view .LVU453
 2090 010c 27EE284A 		vmul.f32	s8, s14, s17
 342:../../libdaisy/src/hid/disp/display.h ****                 t_synx = start_y * -t_x;
 2091              		.loc 6 342 34 view .LVU454
 2092 0110 F8EEE77A 		vcvt.f32.s32	s15, s15
 341:../../libdaisy/src/hid/disp/display.h ****                 t_sxny = start_x * -t_y;
 2093              		.loc 6 341 17 view .LVU455
 2094 0114 F8EEE66A 		vcvt.f32.s32	s13, s13
 351:../../libdaisy/src/hid/disp/display.h ****                     d2 = (t_sxy - t_syx < 0 || t_exy - t_eyx > 0);
 2095              		.loc 6 351 33 view .LVU456
 2096 0118 74EEC43A 		vsub.f32	s7, s9, s8
 342:../../libdaisy/src/hid/disp/display.h ****                 t_synx = start_y * -t_x;
 2097              		.loc 6 342 17 view .LVU457
 2098 011c 67EE885A 		vmul.f32	s11, s15, s16
 341:../../libdaisy/src/hid/disp/display.h ****                 t_sxny = start_x * -t_y;
 2099              		.loc 6 341 17 view .LVU458
 2100 0120 26EEA85A 		vmul.f32	s10, s13, s17
 2101              	.LVL156:
 346:../../libdaisy/src/hid/disp/display.h ****                 t_eynx = end_y * -t_x;
 2102              		.loc 6 346 17 view .LVU459
 2103 0124 67EE897A 		vmul.f32	s15, s15, s18
 347:../../libdaisy/src/hid/disp/display.h **** 
 2104              		.loc 6 347 17 view .LVU460
 2105 0128 27EE007A 		vmul.f32	s14, s14, s0
 345:../../libdaisy/src/hid/disp/display.h ****                 t_exny = end_x * -t_y;
 2106              		.loc 6 345 17 view .LVU461
 2107 012c 66EE806A 		vmul.f32	s13, s13, s0
 2108              	.LVL157:
 351:../../libdaisy/src/hid/disp/display.h ****                     d2 = (t_sxy - t_syx < 0 || t_exy - t_eyx > 0);
 2109              		.loc 6 351 46 view .LVU462
 2110 0130 F5EEC03A 		vcmpe.f32	s7, #0
 349:../../libdaisy/src/hid/disp/display.h ****                 {
 2111              		.loc 6 349 17 view .LVU463
 2112 0134 40F3DC80 		ble	.L148
 351:../../libdaisy/src/hid/disp/display.h ****                     d2 = (t_sxy - t_syx < 0 || t_exy - t_eyx > 0);
 2113              		.loc 6 351 46 view .LVU464
 2114 0138 F1EE10FA 		vmrs	APSR_nzcv, FPSCR
 2115 013c 00F14D81 		bmi	.L174
 351:../../libdaisy/src/hid/disp/display.h ****                     d2 = (t_sxy - t_syx < 0 || t_exy - t_eyx > 0);
 2116              		.loc 6 351 55 discriminator 2 view .LVU465
 2117 0140 76EE473A 		vsub.f32	s7, s12, s14
 352:../../libdaisy/src/hid/disp/display.h ****                     d3 = (t_sxny - t_syx < 0 || t_exny - t_eyx > 0);
 2118              		.loc 6 352 33 discriminator 2 view .LVU466
 2119 0144 74EEC54A 		vsub.f32	s9, s9, s10
 2120              	.LVL158:
 351:../../libdaisy/src/hid/disp/display.h ****                     d2 = (t_sxy - t_syx < 0 || t_exy - t_eyx > 0);
 2121              		.loc 6 351 46 discriminator 2 view .LVU467
 2122 0148 F5EEC03A 		vcmpe.f32	s7, #0
 2123 014c F1EE10FA 		vmrs	APSR_nzcv, FPSCR
 352:../../libdaisy/src/hid/disp/display.h ****                     d3 = (t_sxny - t_syx < 0 || t_exny - t_eyx > 0);
 2124              		.loc 6 352 45 discriminator 2 view .LVU468
 2125 0150 F5EEC04A 		vcmpe.f32	s9, #0
ARM GAS  /tmp/ccF7J5sE.s 			page 75


 351:../../libdaisy/src/hid/disp/display.h ****                     d2 = (t_sxy - t_syx < 0 || t_exy - t_eyx > 0);
 2126              		.loc 6 351 46 discriminator 2 view .LVU469
 2127 0154 CCBF     		ite	gt
 2128 0156 0122     		movgt	r2, #1
 2129 0158 0022     		movle	r2, #0
 352:../../libdaisy/src/hid/disp/display.h ****                     d3 = (t_sxny - t_syx < 0 || t_exny - t_eyx > 0);
 2130              		.loc 6 352 45 discriminator 2 view .LVU470
 2131 015a F1EE10FA 		vmrs	APSR_nzcv, FPSCR
 351:../../libdaisy/src/hid/disp/display.h ****                     d2 = (t_sxy - t_syx < 0 || t_exy - t_eyx > 0);
 2132              		.loc 6 351 46 discriminator 2 view .LVU471
 2133 015e 0192     		str	r2, [sp, #4]
 2134              	.LVL159:
 352:../../libdaisy/src/hid/disp/display.h ****                     d3 = (t_sxny - t_syx < 0 || t_exny - t_eyx > 0);
 2135              		.loc 6 352 45 discriminator 2 view .LVU472
 2136 0160 00F14581 		bmi	.L175
 2137              	.L215:
 352:../../libdaisy/src/hid/disp/display.h ****                     d3 = (t_sxny - t_syx < 0 || t_exny - t_eyx > 0);
 2138              		.loc 6 352 54 discriminator 2 view .LVU473
 2139 0164 36EE666A 		vsub.f32	s12, s12, s13
 2140              	.LVL160:
 353:../../libdaisy/src/hid/disp/display.h ****                     d4 = (t_sxny - t_synx < 0 || t_exny - t_eynx > 0);
 2141              		.loc 6 353 34 discriminator 2 view .LVU474
 2142 0168 35EEC55A 		vsub.f32	s10, s11, s10
 2143              	.LVL161:
 352:../../libdaisy/src/hid/disp/display.h ****                     d3 = (t_sxny - t_syx < 0 || t_exny - t_eyx > 0);
 2144              		.loc 6 352 45 discriminator 2 view .LVU475
 2145 016c B5EEC06A 		vcmpe.f32	s12, #0
 2146 0170 F1EE10FA 		vmrs	APSR_nzcv, FPSCR
 353:../../libdaisy/src/hid/disp/display.h ****                     d4 = (t_sxny - t_synx < 0 || t_exny - t_eynx > 0);
 2147              		.loc 6 353 46 discriminator 2 view .LVU476
 2148 0174 B5EEC05A 		vcmpe.f32	s10, #0
 352:../../libdaisy/src/hid/disp/display.h ****                     d3 = (t_sxny - t_syx < 0 || t_exny - t_eyx > 0);
 2149              		.loc 6 352 45 discriminator 2 view .LVU477
 2150 0178 CCBF     		ite	gt
 2151 017a 0121     		movgt	r1, #1
 2152 017c 0021     		movle	r1, #0
 2153              	.LVL162:
 353:../../libdaisy/src/hid/disp/display.h ****                     d4 = (t_sxny - t_synx < 0 || t_exny - t_eynx > 0);
 2154              		.loc 6 353 46 discriminator 2 view .LVU478
 2155 017e F1EE10FA 		vmrs	APSR_nzcv, FPSCR
 2156 0182 00F13D81 		bmi	.L176
 2157              	.L216:
 353:../../libdaisy/src/hid/disp/display.h ****                     d4 = (t_sxny - t_synx < 0 || t_exny - t_eynx > 0);
 2158              		.loc 6 353 56 discriminator 2 view .LVU479
 2159 0186 77EEE66A 		vsub.f32	s13, s15, s13
 2160              	.LVL163:
 353:../../libdaisy/src/hid/disp/display.h ****                     d4 = (t_sxny - t_synx < 0 || t_exny - t_eynx > 0);
 2161              		.loc 6 353 46 discriminator 2 view .LVU480
 2162 018a F5EEC06A 		vcmpe.f32	s13, #0
 2163 018e F1EE10FA 		vmrs	APSR_nzcv, FPSCR
 2164 0192 CCBF     		ite	gt
 2165 0194 0126     		movgt	r6, #1
 2166              	.LVL164:
 353:../../libdaisy/src/hid/disp/display.h ****                     d4 = (t_sxny - t_synx < 0 || t_exny - t_eynx > 0);
 2167              		.loc 6 353 46 discriminator 2 view .LVU481
 2168 0196 0026     		movle	r6, #0
 2169              	.L151:
ARM GAS  /tmp/ccF7J5sE.s 			page 76


 2170              	.LVL165:
 354:../../libdaisy/src/hid/disp/display.h ****                 }
 2171              		.loc 6 354 34 discriminator 6 view .LVU482
 2172 0198 75EEC45A 		vsub.f32	s11, s11, s8
 2173              	.LVL166:
 354:../../libdaisy/src/hid/disp/display.h ****                 }
 2174              		.loc 6 354 47 discriminator 6 view .LVU483
 2175 019c F5EEC05A 		vcmpe.f32	s11, #0
 2176 01a0 F1EE10FA 		vmrs	APSR_nzcv, FPSCR
 2177 01a4 00F11781 		bmi	.L177
 2178              	.L207:
 361:../../libdaisy/src/hid/disp/display.h ****                 }
 2179              		.loc 6 361 57 discriminator 1 view .LVU484
 2180 01a8 77EEC77A 		vsub.f32	s15, s15, s14
 2181              	.LVL167:
 361:../../libdaisy/src/hid/disp/display.h ****                 }
 2182              		.loc 6 361 47 discriminator 1 view .LVU485
 2183 01ac F5EEC07A 		vcmpe.f32	s15, #0
 2184 01b0 F1EE10FA 		vmrs	APSR_nzcv, FPSCR
 2185 01b4 CCBF     		ite	gt
 2186 01b6 0127     		movgt	r7, #1
 2187              	.LVL168:
 361:../../libdaisy/src/hid/disp/display.h ****                 }
 2188              		.loc 6 361 47 discriminator 1 view .LVU486
 2189 01b8 0027     		movle	r7, #0
 2190              	.LVL169:
 2191              	.L147:
 365:../../libdaisy/src/hid/disp/display.h ****                 ((ChildType*)(this))
 2192              		.loc 6 365 13 view .LVU487
 2193 01ba 019A     		ldr	r2, [sp, #4]
 2194 01bc F2B1     		cbz	r2, .L159
 366:../../libdaisy/src/hid/disp/display.h ****                     ->ChildType::DrawPixel(x - t_x, y + t_y, on);
 2195              		.loc 6 366 17 view .LVU488
 2196 01be ACEB0009 		sub	r9, ip, r0
 2197 01c2 04EB0805 		add	r5, r4, r8
 2198              	.LVL170:
 2199              	.LBB1139:
 2200              	.LBI1139:
  41:../../libdaisy/src/hid/disp/oled_display.h ****     {
 2201              		.loc 5 41 10 is_stmt 1 view .LVU489
 2202              	.LBB1140:
 2203              	.LBI1140:
 239:../../libdaisy/src/dev/oled_ssd130x.h ****     {
 2204              		.loc 15 239 10 view .LVU490
 2205              	.LBB1141:
 241:../../libdaisy/src/dev/oled_ssd130x.h ****             return;
 2206              		.loc 15 241 9 is_stmt 0 view .LVU491
 2207 01c6 B9F17F0F 		cmp	r9, #127
 2208 01ca 17D8     		bhi	.L159
 2209 01cc 3F2D     		cmp	r5, #63
 2210 01ce 15D8     		bhi	.L159
 244:../../libdaisy/src/dev/oled_ssd130x.h ****         else
 2211              		.loc 15 244 28 view .LVU492
 2212 01d0 4FEAD50A 		lsr	r10, r5, #3
 244:../../libdaisy/src/dev/oled_ssd130x.h ****         else
 2213              		.loc 15 244 48 view .LVU493
 2214 01d4 4FF0010B 		mov	fp, #1
ARM GAS  /tmp/ccF7J5sE.s 			page 77


 244:../../libdaisy/src/dev/oled_ssd130x.h ****         else
 2215              		.loc 15 244 54 view .LVU494
 2216 01d8 05F00705 		and	r5, r5, #7
 2217              	.LVL171:
 243:../../libdaisy/src/dev/oled_ssd130x.h ****             buffer_[x + (y / 8) * width] |= (1 << (y % 8));
 2218              		.loc 15 243 9 view .LVU495
 2219 01dc 029A     		ldr	r2, [sp, #8]
 244:../../libdaisy/src/dev/oled_ssd130x.h ****         else
 2220              		.loc 15 244 42 view .LVU496
 2221 01de 09EBCA19 		add	r9, r9, r10, lsl #7
 2222              	.LVL172:
 244:../../libdaisy/src/dev/oled_ssd130x.h ****         else
 2223              		.loc 15 244 48 view .LVU497
 2224 01e2 0BFA05F5 		lsl	r5, fp, r5
 243:../../libdaisy/src/dev/oled_ssd130x.h ****             buffer_[x + (y / 8) * width] |= (1 << (y % 8));
 2225              		.loc 15 243 9 view .LVU498
 2226 01e6 002A     		cmp	r2, #0
 2227 01e8 00F0C280 		beq	.L160
 244:../../libdaisy/src/dev/oled_ssd130x.h ****         else
 2228              		.loc 15 244 13 view .LVU499
 2229 01ec 039A     		ldr	r2, [sp, #12]
 2230 01ee 9144     		add	r9, r9, r2
 244:../../libdaisy/src/dev/oled_ssd130x.h ****         else
 2231              		.loc 15 244 42 view .LVU500
 2232 01f0 99F814B0 		ldrb	fp, [r9, #20]	@ zero_extendqisi2
 2233 01f4 45EA0B05 		orr	r5, r5, fp
 244:../../libdaisy/src/dev/oled_ssd130x.h ****         else
 2234              		.loc 15 244 13 view .LVU501
 2235 01f8 89F81450 		strb	r5, [r9, #20]
 2236              	.LVL173:
 2237              	.L159:
 244:../../libdaisy/src/dev/oled_ssd130x.h ****         else
 2238              		.loc 15 244 13 view .LVU502
 2239              	.LBE1141:
 2240              	.LBE1140:
 2241              	.LBE1139:
 368:../../libdaisy/src/hid/disp/display.h ****                 ((ChildType*)(this))
 2242              		.loc 6 368 13 view .LVU503
 2243 01fc F1B1     		cbz	r1, .L161
 2244              	.L214:
 369:../../libdaisy/src/hid/disp/display.h ****                     ->ChildType::DrawPixel(x + t_x, y + t_y, on);
 2245              		.loc 6 369 17 view .LVU504
 2246 01fe 00EB0C09 		add	r9, r0, ip
 2247 0202 04EB0805 		add	r5, r4, r8
 2248              	.LVL174:
 2249              	.LBB1146:
 2250              	.LBI1146:
  41:../../libdaisy/src/hid/disp/oled_display.h ****     {
 2251              		.loc 5 41 10 is_stmt 1 view .LVU505
 2252              	.LBB1147:
 2253              	.LBI1147:
 239:../../libdaisy/src/dev/oled_ssd130x.h ****     {
 2254              		.loc 15 239 10 view .LVU506
 2255              	.LBB1148:
 241:../../libdaisy/src/dev/oled_ssd130x.h ****             return;
 2256              		.loc 15 241 9 is_stmt 0 view .LVU507
 2257 0206 B9F17F0F 		cmp	r9, #127
ARM GAS  /tmp/ccF7J5sE.s 			page 78


 2258 020a 17D8     		bhi	.L161
 2259 020c 3F2D     		cmp	r5, #63
 2260 020e 15D8     		bhi	.L161
 244:../../libdaisy/src/dev/oled_ssd130x.h ****         else
 2261              		.loc 15 244 28 view .LVU508
 2262 0210 4FEAD50A 		lsr	r10, r5, #3
 244:../../libdaisy/src/dev/oled_ssd130x.h ****         else
 2263              		.loc 15 244 48 view .LVU509
 2264 0214 4FF0010B 		mov	fp, #1
 244:../../libdaisy/src/dev/oled_ssd130x.h ****         else
 2265              		.loc 15 244 54 view .LVU510
 2266 0218 05F00705 		and	r5, r5, #7
 2267              	.LVL175:
 243:../../libdaisy/src/dev/oled_ssd130x.h ****             buffer_[x + (y / 8) * width] |= (1 << (y % 8));
 2268              		.loc 15 243 9 view .LVU511
 2269 021c 029A     		ldr	r2, [sp, #8]
 244:../../libdaisy/src/dev/oled_ssd130x.h ****         else
 2270              		.loc 15 244 42 view .LVU512
 2271 021e 09EBCA19 		add	r9, r9, r10, lsl #7
 2272              	.LVL176:
 244:../../libdaisy/src/dev/oled_ssd130x.h ****         else
 2273              		.loc 15 244 48 view .LVU513
 2274 0222 0BFA05F5 		lsl	r5, fp, r5
 243:../../libdaisy/src/dev/oled_ssd130x.h ****             buffer_[x + (y / 8) * width] |= (1 << (y % 8));
 2275              		.loc 15 243 9 view .LVU514
 2276 0226 002A     		cmp	r2, #0
 2277 0228 00F08E80 		beq	.L162
 244:../../libdaisy/src/dev/oled_ssd130x.h ****         else
 2278              		.loc 15 244 13 view .LVU515
 2279 022c 039A     		ldr	r2, [sp, #12]
 2280 022e 9144     		add	r9, r9, r2
 244:../../libdaisy/src/dev/oled_ssd130x.h ****         else
 2281              		.loc 15 244 42 view .LVU516
 2282 0230 99F814B0 		ldrb	fp, [r9, #20]	@ zero_extendqisi2
 2283 0234 45EA0B05 		orr	r5, r5, fp
 244:../../libdaisy/src/dev/oled_ssd130x.h ****         else
 2284              		.loc 15 244 13 view .LVU517
 2285 0238 89F81450 		strb	r5, [r9, #20]
