ARM GAS  /tmp/cc1M3G4N.s 			page 1


   1              		.cpu cortex-m7
   2              		.eabi_attribute 28, 1
   3              		.eabi_attribute 20, 1
   4              		.eabi_attribute 21, 1
   5              		.eabi_attribute 23, 3
   6              		.eabi_attribute 24, 1
   7              		.eabi_attribute 25, 1
   8              		.eabi_attribute 26, 1
   9              		.eabi_attribute 30, 2
  10              		.eabi_attribute 34, 1
  11              		.eabi_attribute 18, 4
  12              		.file	"SimpleLed.cpp"
  13              		.text
  14              	.Ltext0:
  15              		.cfi_sections	.debug_frame
  16              		.section	.text._ZN5daisy9ParameterD2Ev,"axG",%progbits,_ZN5daisy9ParameterD5Ev,comdat
  17              		.align	1
  18              		.p2align 2,,3
  19              		.weak	_ZN5daisy9ParameterD2Ev
  20              		.arch armv7e-m
  21              		.syntax unified
  22              		.thumb
  23              		.thumb_func
  24              		.fpu fpv5-d16
  26              	_ZN5daisy9ParameterD2Ev:
  27              	.LVL0:
  28              	.LFB1607:
  29              		.file 1 "../../libdaisy/src/hid/parameter.h"
   1:../../libdaisy/src/hid/parameter.h **** #pragma once
   2:../../libdaisy/src/hid/parameter.h **** #include <stdint.h>
   3:../../libdaisy/src/hid/parameter.h **** #include "hid/ctrl.h"
   4:../../libdaisy/src/hid/parameter.h **** 
   5:../../libdaisy/src/hid/parameter.h **** namespace daisy
   6:../../libdaisy/src/hid/parameter.h **** {
   7:../../libdaisy/src/hid/parameter.h **** /** @addtogroup controls
   8:../../libdaisy/src/hid/parameter.h ****     @{
   9:../../libdaisy/src/hid/parameter.h **** */
  10:../../libdaisy/src/hid/parameter.h **** 
  11:../../libdaisy/src/hid/parameter.h **** /**      Simple parameter mapping tool that takes a 0-1 input from an hid_ctrl. */
  12:../../libdaisy/src/hid/parameter.h **** class Parameter
  13:../../libdaisy/src/hid/parameter.h **** {
  14:../../libdaisy/src/hid/parameter.h ****   public:
  15:../../libdaisy/src/hid/parameter.h ****     /** Curves are applied to the output signal */
  16:../../libdaisy/src/hid/parameter.h ****     enum Curve
  17:../../libdaisy/src/hid/parameter.h ****     {
  18:../../libdaisy/src/hid/parameter.h ****         LINEAR,      /**< Linear curve */
  19:../../libdaisy/src/hid/parameter.h ****         EXPONENTIAL, /**< Exponential curve */
  20:../../libdaisy/src/hid/parameter.h ****         LOGARITHMIC, /**<  Logarithmic curve */
  21:../../libdaisy/src/hid/parameter.h ****         CUBE,        /**< Cubic curve */
  22:../../libdaisy/src/hid/parameter.h ****         LAST,        /**< Final enum element. */
  23:../../libdaisy/src/hid/parameter.h ****     };
  24:../../libdaisy/src/hid/parameter.h ****     /** Constructor */
  25:../../libdaisy/src/hid/parameter.h ****     Parameter() {}
  26:../../libdaisy/src/hid/parameter.h ****     /** Destructor */
  27:../../libdaisy/src/hid/parameter.h ****     ~Parameter() {}
  30              		.loc 1 27 5 view -0
  31              		.cfi_startproc
ARM GAS  /tmp/cc1M3G4N.s 			page 2


  32              		@ args = 0, pretend = 0, frame = 0
  33              		@ frame_needed = 0, uses_anonymous_args = 0
  34              		@ link register save eliminated.
  35              	.LBB324:
  36              	.LBI324:
  37              		.file 2 "../../libdaisy/src/hid/ctrl.h"
   1:../../libdaisy/src/hid/ctrl.h **** #pragma once
   2:../../libdaisy/src/hid/ctrl.h **** #ifndef DSY_KNOB_H
   3:../../libdaisy/src/hid/ctrl.h **** #define DSY_KNOB_H /**< & */
   4:../../libdaisy/src/hid/ctrl.h **** #include <stdint.h>
   5:../../libdaisy/src/hid/ctrl.h **** 
   6:../../libdaisy/src/hid/ctrl.h **** #ifdef __cplusplus
   7:../../libdaisy/src/hid/ctrl.h **** namespace daisy
   8:../../libdaisy/src/hid/ctrl.h **** {
   9:../../libdaisy/src/hid/ctrl.h **** /**
  10:../../libdaisy/src/hid/ctrl.h ****     @brief Hardware Interface for control inputs \n 
  11:../../libdaisy/src/hid/ctrl.h ****     Primarily designed for ADC input controls such as \n 
  12:../../libdaisy/src/hid/ctrl.h ****     potentiometers, and control voltage. \n 
  13:../../libdaisy/src/hid/ctrl.h ****     @author Stephen Hensley
  14:../../libdaisy/src/hid/ctrl.h ****     @date November 2019
  15:../../libdaisy/src/hid/ctrl.h ****     @ingroup controls
  16:../../libdaisy/src/hid/ctrl.h **** */
  17:../../libdaisy/src/hid/ctrl.h **** class AnalogControl
  18:../../libdaisy/src/hid/ctrl.h **** {
  19:../../libdaisy/src/hid/ctrl.h ****   public:
  20:../../libdaisy/src/hid/ctrl.h ****     /** Constructor */
  21:../../libdaisy/src/hid/ctrl.h ****     AnalogControl() {}
  22:../../libdaisy/src/hid/ctrl.h ****     /** destructor */
  23:../../libdaisy/src/hid/ctrl.h ****     ~AnalogControl() {}
  38              		.loc 2 23 5 view .LVU1
  39              		.loc 2 23 5 is_stmt 0 view .LVU2
  40              	.LBE324:
  41              		.loc 1 27 19 view .LVU3
  42 0000 7047     		bx	lr
  43              		.cfi_endproc
  44              	.LFE1607:
  46              		.weak	_ZN5daisy9ParameterD1Ev
  47              		.thumb_set _ZN5daisy9ParameterD1Ev,_ZN5daisy9ParameterD2Ev
  48 0002 00BF     		.section	.text._ZN5daisy8DaisyPodD2Ev,"axG",%progbits,_ZN5daisy8DaisyPodD5Ev,comdat
  49              		.align	1
  50              		.p2align 2,,3
  51              		.weak	_ZN5daisy8DaisyPodD2Ev
  52              		.syntax unified
  53              		.thumb
  54              		.thumb_func
  55              		.fpu fpv5-d16
  57              	_ZN5daisy8DaisyPodD2Ev:
  58              	.LVL1:
  59              	.LFB2046:
  60              		.file 3 "../../libdaisy/src/daisy_pod.h"
   1:../../libdaisy/src/daisy_pod.h **** #pragma once
   2:../../libdaisy/src/daisy_pod.h **** #ifndef DSY_POD_BSP_H
   3:../../libdaisy/src/daisy_pod.h **** #define DSY_POD_BSP_H
   4:../../libdaisy/src/daisy_pod.h **** 
   5:../../libdaisy/src/daisy_pod.h **** #include "daisy_seed.h"
   6:../../libdaisy/src/daisy_pod.h **** 
   7:../../libdaisy/src/daisy_pod.h **** namespace daisy
ARM GAS  /tmp/cc1M3G4N.s 			page 3


   8:../../libdaisy/src/daisy_pod.h **** {
   9:../../libdaisy/src/daisy_pod.h **** /**
  10:../../libdaisy/src/daisy_pod.h ****     @brief Class that handles initializing all of the hardware specific to the Daisy Patch Board. \
  11:../../libdaisy/src/daisy_pod.h ****     Helper funtions are also in place to provide easy access to built-in controls and peripherals.
  12:../../libdaisy/src/daisy_pod.h ****     @author Stephen Hensley
  13:../../libdaisy/src/daisy_pod.h ****     @date November 2019
  14:../../libdaisy/src/daisy_pod.h ****     @ingroup boards
  15:../../libdaisy/src/daisy_pod.h **** */
  16:../../libdaisy/src/daisy_pod.h **** class DaisyPod
  17:../../libdaisy/src/daisy_pod.h **** {
  18:../../libdaisy/src/daisy_pod.h ****   public:
  19:../../libdaisy/src/daisy_pod.h ****     /** Switches */
  20:../../libdaisy/src/daisy_pod.h ****     enum Sw
  21:../../libdaisy/src/daisy_pod.h ****     {
  22:../../libdaisy/src/daisy_pod.h ****         BUTTON_1,    /** & */
  23:../../libdaisy/src/daisy_pod.h ****         BUTTON_2,    /** & */
  24:../../libdaisy/src/daisy_pod.h ****         BUTTON_LAST, /** &  */
  25:../../libdaisy/src/daisy_pod.h ****     };
  26:../../libdaisy/src/daisy_pod.h **** 
  27:../../libdaisy/src/daisy_pod.h ****     /** Knobs */
  28:../../libdaisy/src/daisy_pod.h ****     enum Knob
  29:../../libdaisy/src/daisy_pod.h ****     {
  30:../../libdaisy/src/daisy_pod.h ****         KNOB_1,    /** &  */
  31:../../libdaisy/src/daisy_pod.h ****         KNOB_2,    /** & */
  32:../../libdaisy/src/daisy_pod.h ****         KNOB_LAST, /** & */
  33:../../libdaisy/src/daisy_pod.h ****     };
  34:../../libdaisy/src/daisy_pod.h **** 
  35:../../libdaisy/src/daisy_pod.h ****     DaisyPod() {}
  36:../../libdaisy/src/daisy_pod.h ****     ~DaisyPod() {}
  61              		.loc 3 36 5 is_stmt 1 view -0
  62              		.cfi_startproc
  63              		@ args = 0, pretend = 0, frame = 0
  64              		@ frame_needed = 0, uses_anonymous_args = 0
  65              		@ link register save eliminated.
  66              	.LBB325:
  67              	.LBI325:
  68              		.file 4 "../../libdaisy/src/hid/midi.h"
   1:../../libdaisy/src/hid/midi.h **** #pragma once
   2:../../libdaisy/src/hid/midi.h **** #ifndef DSY_MIDI_H
   3:../../libdaisy/src/hid/midi.h **** #define DSY_MIDI_H
   4:../../libdaisy/src/hid/midi.h **** 
   5:../../libdaisy/src/hid/midi.h **** // TODO: make this adjustable
   6:../../libdaisy/src/hid/midi.h **** #define SYSEX_BUFFER_LEN 128
   7:../../libdaisy/src/hid/midi.h **** 
   8:../../libdaisy/src/hid/midi.h **** #include <stdint.h>
   9:../../libdaisy/src/hid/midi.h **** #include <stdlib.h>
  10:../../libdaisy/src/hid/midi.h **** #include "per/uart.h"
  11:../../libdaisy/src/hid/midi.h **** #include "util/ringbuffer.h"
  12:../../libdaisy/src/hid/midi.h **** #include "hid/MidiEvent.h"
  13:../../libdaisy/src/hid/midi.h **** #include "sys/system.h"
  14:../../libdaisy/src/hid/midi.h **** 
  15:../../libdaisy/src/hid/midi.h **** namespace daisy
  16:../../libdaisy/src/hid/midi.h **** {
  17:../../libdaisy/src/hid/midi.h **** /** @addtogroup external 
  18:../../libdaisy/src/hid/midi.h ****     @{ 
  19:../../libdaisy/src/hid/midi.h **** */
  20:../../libdaisy/src/hid/midi.h **** 
ARM GAS  /tmp/cc1M3G4N.s 			page 4


  21:../../libdaisy/src/hid/midi.h **** class MidiUartTransport
  22:../../libdaisy/src/hid/midi.h **** {
  23:../../libdaisy/src/hid/midi.h ****   public:
  24:../../libdaisy/src/hid/midi.h ****     MidiUartTransport() {}
  25:../../libdaisy/src/hid/midi.h ****     ~MidiUartTransport() {}
  26:../../libdaisy/src/hid/midi.h **** 
  27:../../libdaisy/src/hid/midi.h ****     struct Config
  28:../../libdaisy/src/hid/midi.h ****     {
  29:../../libdaisy/src/hid/midi.h ****         UartHandler::Config::Peripheral periph;
  30:../../libdaisy/src/hid/midi.h ****         dsy_gpio_pin                    rx;
  31:../../libdaisy/src/hid/midi.h ****         dsy_gpio_pin                    tx;
  32:../../libdaisy/src/hid/midi.h **** 
  33:../../libdaisy/src/hid/midi.h ****         Config()
  34:../../libdaisy/src/hid/midi.h ****         {
  35:../../libdaisy/src/hid/midi.h ****             periph = UartHandler::Config::Peripheral::USART_1;
  36:../../libdaisy/src/hid/midi.h ****             rx     = {DSY_GPIOB, 7};
  37:../../libdaisy/src/hid/midi.h ****             tx     = {DSY_GPIOB, 6};
  38:../../libdaisy/src/hid/midi.h ****         }
  39:../../libdaisy/src/hid/midi.h ****     };
  40:../../libdaisy/src/hid/midi.h **** 
  41:../../libdaisy/src/hid/midi.h ****     inline void Init(Config config)
  42:../../libdaisy/src/hid/midi.h ****     {
  43:../../libdaisy/src/hid/midi.h ****         UartHandler::Config uart_config;
  44:../../libdaisy/src/hid/midi.h **** 
  45:../../libdaisy/src/hid/midi.h ****         //defaults
  46:../../libdaisy/src/hid/midi.h ****         uart_config.baudrate   = 31250;
  47:../../libdaisy/src/hid/midi.h ****         uart_config.stopbits   = UartHandler::Config::StopBits::BITS_1;
  48:../../libdaisy/src/hid/midi.h ****         uart_config.parity     = UartHandler::Config::Parity::NONE;
  49:../../libdaisy/src/hid/midi.h ****         uart_config.mode       = UartHandler::Config::Mode::TX_RX;
  50:../../libdaisy/src/hid/midi.h ****         uart_config.wordlength = UartHandler::Config::WordLength::BITS_8;
  51:../../libdaisy/src/hid/midi.h **** 
  52:../../libdaisy/src/hid/midi.h ****         //user settings
  53:../../libdaisy/src/hid/midi.h ****         uart_config.periph        = config.periph;
  54:../../libdaisy/src/hid/midi.h ****         uart_config.pin_config.rx = config.rx;
  55:../../libdaisy/src/hid/midi.h ****         uart_config.pin_config.tx = config.tx;
  56:../../libdaisy/src/hid/midi.h **** 
  57:../../libdaisy/src/hid/midi.h ****         uart_.Init(uart_config);
  58:../../libdaisy/src/hid/midi.h ****     }
  59:../../libdaisy/src/hid/midi.h **** 
  60:../../libdaisy/src/hid/midi.h ****     inline void    StartRx() { uart_.StartRx(); }
  61:../../libdaisy/src/hid/midi.h ****     inline size_t  Readable() { return uart_.Readable(); }
  62:../../libdaisy/src/hid/midi.h ****     inline uint8_t Rx() { return uart_.PopRx(); }
  63:../../libdaisy/src/hid/midi.h ****     inline bool    RxActive() { return uart_.RxActive(); }
  64:../../libdaisy/src/hid/midi.h ****     inline void    FlushRx() { uart_.FlushRx(); }
  65:../../libdaisy/src/hid/midi.h ****     inline void    Tx(uint8_t* buff, size_t size) { uart_.PollTx(buff, size); }
  66:../../libdaisy/src/hid/midi.h **** 
  67:../../libdaisy/src/hid/midi.h ****   private:
  68:../../libdaisy/src/hid/midi.h ****     UartHandler uart_;
  69:../../libdaisy/src/hid/midi.h **** };
  70:../../libdaisy/src/hid/midi.h **** 
  71:../../libdaisy/src/hid/midi.h **** /** 
  72:../../libdaisy/src/hid/midi.h ****     @brief Simple MIDI Handler \n 
  73:../../libdaisy/src/hid/midi.h ****     Parses bytes from an input into valid MidiEvents. \n 
  74:../../libdaisy/src/hid/midi.h ****     The MidiEvents fill a FIFO queue that the user can pop messages from.
  75:../../libdaisy/src/hid/midi.h ****     @author shensley
  76:../../libdaisy/src/hid/midi.h ****     @date March 2020
  77:../../libdaisy/src/hid/midi.h **** */
ARM GAS  /tmp/cc1M3G4N.s 			page 5


  78:../../libdaisy/src/hid/midi.h **** template <typename Transport>
  79:../../libdaisy/src/hid/midi.h **** class MidiHandler
  80:../../libdaisy/src/hid/midi.h **** {
  81:../../libdaisy/src/hid/midi.h ****   public:
  82:../../libdaisy/src/hid/midi.h ****     MidiHandler() {}
  83:../../libdaisy/src/hid/midi.h ****     ~MidiHandler() {}
  69              		.loc 4 83 5 view .LVU5
  70              	.LBB326:
  71              	.LBI326:
  25:../../libdaisy/src/hid/midi.h **** 
  72              		.loc 4 25 5 view .LVU6
  25:../../libdaisy/src/hid/midi.h **** 
  73              		.loc 4 25 5 is_stmt 0 view .LVU7
  74              	.LBE326:
  75              	.LBE325:
  76              	.LBB327:
  77              	.LBI327:
  78              		.file 5 "../../libdaisy/src/hid/rgb_led.h"
   1:../../libdaisy/src/hid/rgb_led.h **** #pragma once
   2:../../libdaisy/src/hid/rgb_led.h **** #ifndef DSY_RGB_LED_H
   3:../../libdaisy/src/hid/rgb_led.h **** #define DSY_RGB_LED_H
   4:../../libdaisy/src/hid/rgb_led.h **** #include "hid/led.h"
   5:../../libdaisy/src/hid/rgb_led.h **** #include "util/color.h"
   6:../../libdaisy/src/hid/rgb_led.h **** 
   7:../../libdaisy/src/hid/rgb_led.h **** namespace daisy
   8:../../libdaisy/src/hid/rgb_led.h **** {
   9:../../libdaisy/src/hid/rgb_led.h **** /** @addtogroup feedback
  10:../../libdaisy/src/hid/rgb_led.h ****     @{
  11:../../libdaisy/src/hid/rgb_led.h **** */
  12:../../libdaisy/src/hid/rgb_led.h **** 
  13:../../libdaisy/src/hid/rgb_led.h **** /** 3x LEDs configured as an RGB for ease of use. */
  14:../../libdaisy/src/hid/rgb_led.h **** class RgbLed
  15:../../libdaisy/src/hid/rgb_led.h **** {
  16:../../libdaisy/src/hid/rgb_led.h ****   public:
  17:../../libdaisy/src/hid/rgb_led.h ****     RgbLed() {}
  18:../../libdaisy/src/hid/rgb_led.h ****     ~RgbLed() {}
  79              		.loc 5 18 5 is_stmt 1 view .LVU8
  80              	.LBB328:
  81              	.LBI328:
  82              		.file 6 "../../libdaisy/src/hid/led.h"
   1:../../libdaisy/src/hid/led.h **** 
   2:../../libdaisy/src/hid/led.h **** #pragma once
   3:../../libdaisy/src/hid/led.h **** #ifndef DSY_LED_H
   4:../../libdaisy/src/hid/led.h **** #define DSY_LED_H
   5:../../libdaisy/src/hid/led.h **** #include "daisy_core.h"
   6:../../libdaisy/src/hid/led.h **** #include "per/gpio.h"
   7:../../libdaisy/src/hid/led.h **** 
   8:../../libdaisy/src/hid/led.h **** /* TODO - Get this set up to work with the dev_leddriver stuff as well
   9:../../libdaisy/src/hid/led.h **** - Setup Hardware PWM for pins that have it
  10:../../libdaisy/src/hid/led.h **** */
  11:../../libdaisy/src/hid/led.h **** 
  12:../../libdaisy/src/hid/led.h **** namespace daisy
  13:../../libdaisy/src/hid/led.h **** {
  14:../../libdaisy/src/hid/led.h **** /**
  15:../../libdaisy/src/hid/led.h ****     @brief LED Class providing simple Software PWM ability, etc \n 
  16:../../libdaisy/src/hid/led.h ****     Eventually this will work with hardware PWM, and external LED Driver devices as well.
  17:../../libdaisy/src/hid/led.h ****     @author shensley
ARM GAS  /tmp/cc1M3G4N.s 			page 6


  18:../../libdaisy/src/hid/led.h ****     @date March 2020
  19:../../libdaisy/src/hid/led.h ****     @ingroup feedback
  20:../../libdaisy/src/hid/led.h **** */
  21:../../libdaisy/src/hid/led.h **** class Led
  22:../../libdaisy/src/hid/led.h **** {
  23:../../libdaisy/src/hid/led.h ****   public:
  24:../../libdaisy/src/hid/led.h ****     Led() {}
  25:../../libdaisy/src/hid/led.h ****     ~Led() {}
  83              		.loc 6 25 5 view .LVU9
  84              		.loc 6 25 5 is_stmt 0 view .LVU10
  85              	.LBE328:
  86              	.LBB329:
  87              	.LBI329:
  88              		.loc 6 25 5 is_stmt 1 view .LVU11
  89              		.loc 6 25 5 is_stmt 0 view .LVU12
  90              	.LBE329:
  91              	.LBB330:
  92              	.LBI330:
  93              		.loc 6 25 5 is_stmt 1 view .LVU13
  94              		.loc 6 25 5 is_stmt 0 view .LVU14
  95              	.LBE330:
  96              	.LBE327:
  97              	.LBB331:
  98              	.LBI331:
  99              		.loc 5 18 5 is_stmt 1 view .LVU15
 100              	.LBB332:
 101              	.LBI332:
 102              		.loc 6 25 5 view .LVU16
 103              		.loc 6 25 5 is_stmt 0 view .LVU17
 104              	.LBE332:
 105              	.LBB333:
 106              	.LBI333:
 107              		.loc 6 25 5 is_stmt 1 view .LVU18
 108              		.loc 6 25 5 is_stmt 0 view .LVU19
 109              	.LBE333:
 110              	.LBB334:
 111              	.LBI334:
 112              		.loc 6 25 5 is_stmt 1 view .LVU20
 113              		.loc 6 25 5 is_stmt 0 view .LVU21
 114              	.LBE334:
 115              	.LBE331:
 116              	.LBB335:
 117              	.LBI335:
 118              		.file 7 "../../libdaisy/src/hid/switch.h"
   1:../../libdaisy/src/hid/switch.h **** #pragma once
   2:../../libdaisy/src/hid/switch.h **** #ifndef DSY_SWITCH_H
   3:../../libdaisy/src/hid/switch.h **** #define DSY_SWITCH_H
   4:../../libdaisy/src/hid/switch.h **** #include "daisy_core.h"
   5:../../libdaisy/src/hid/switch.h **** #include "per/gpio.h"
   6:../../libdaisy/src/hid/switch.h **** 
   7:../../libdaisy/src/hid/switch.h **** namespace daisy
   8:../../libdaisy/src/hid/switch.h **** {
   9:../../libdaisy/src/hid/switch.h **** /** 
  10:../../libdaisy/src/hid/switch.h ****     Generic Class for handling momentary/latching switches \n 
  11:../../libdaisy/src/hid/switch.h ****     Inspired/influenced by Mutable Instruments (pichenettes) Switch classes
  12:../../libdaisy/src/hid/switch.h ****     @author Stephen Hensley
  13:../../libdaisy/src/hid/switch.h ****     @date December 2019
ARM GAS  /tmp/cc1M3G4N.s 			page 7


  14:../../libdaisy/src/hid/switch.h ****     @ingroup controls
  15:../../libdaisy/src/hid/switch.h **** */
  16:../../libdaisy/src/hid/switch.h **** class Switch
  17:../../libdaisy/src/hid/switch.h **** {
  18:../../libdaisy/src/hid/switch.h ****   public:
  19:../../libdaisy/src/hid/switch.h ****     /** Specifies the expected behavior of the switch */
  20:../../libdaisy/src/hid/switch.h ****     enum Type
  21:../../libdaisy/src/hid/switch.h ****     {
  22:../../libdaisy/src/hid/switch.h ****         TYPE_TOGGLE,    /**< & */
  23:../../libdaisy/src/hid/switch.h ****         TYPE_MOMENTARY, /**< & */
  24:../../libdaisy/src/hid/switch.h ****     };
  25:../../libdaisy/src/hid/switch.h ****     /** Specifies whether the pressed is HIGH or LOW. */
  26:../../libdaisy/src/hid/switch.h ****     enum Polarity
  27:../../libdaisy/src/hid/switch.h ****     {
  28:../../libdaisy/src/hid/switch.h ****         POLARITY_NORMAL,   /**< & */
  29:../../libdaisy/src/hid/switch.h ****         POLARITY_INVERTED, /**< & */
  30:../../libdaisy/src/hid/switch.h ****     };
  31:../../libdaisy/src/hid/switch.h **** 
  32:../../libdaisy/src/hid/switch.h ****     /** Specifies whether to use built-in Pull Up/Down resistors to hold button at a given state wh
  33:../../libdaisy/src/hid/switch.h ****     enum Pull
  34:../../libdaisy/src/hid/switch.h ****     {
  35:../../libdaisy/src/hid/switch.h ****         PULL_UP,   /**< & */
  36:../../libdaisy/src/hid/switch.h ****         PULL_DOWN, /**< & */
  37:../../libdaisy/src/hid/switch.h ****         PULL_NONE, /**< & */
  38:../../libdaisy/src/hid/switch.h ****     };
  39:../../libdaisy/src/hid/switch.h **** 
  40:../../libdaisy/src/hid/switch.h ****     Switch() {}
  41:../../libdaisy/src/hid/switch.h ****     ~Switch() {}
 119              		.loc 7 41 5 is_stmt 1 view .LVU22
 120              		.loc 7 41 5 is_stmt 0 view .LVU23
 121              	.LBE335:
 122              	.LBB336:
 123              	.LBI336:
 124              		.loc 7 41 5 is_stmt 1 view .LVU24
 125              		.loc 7 41 5 is_stmt 0 view .LVU25
 126              	.LBE336:
 127              	.LBB337:
 128              	.LBI337:
 129              		.loc 2 23 5 is_stmt 1 view .LVU26
 130              		.loc 2 23 5 is_stmt 0 view .LVU27
 131              	.LBE337:
 132              	.LBB338:
 133              	.LBI338:
 134              		.loc 2 23 5 is_stmt 1 view .LVU28
 135              		.loc 2 23 5 is_stmt 0 view .LVU29
 136              	.LBE338:
 137              	.LBB339:
 138              	.LBI339:
 139              		.file 8 "../../libdaisy/src/hid/encoder.h"
   1:../../libdaisy/src/hid/encoder.h **** #pragma once
   2:../../libdaisy/src/hid/encoder.h **** #ifndef DSY_ENCODER_H
   3:../../libdaisy/src/hid/encoder.h **** #define DSY_ENCODER_H
   4:../../libdaisy/src/hid/encoder.h **** #include "daisy_core.h"
   5:../../libdaisy/src/hid/encoder.h **** #include "per/gpio.h"
   6:../../libdaisy/src/hid/encoder.h **** #include "hid/switch.h"
   7:../../libdaisy/src/hid/encoder.h **** 
   8:../../libdaisy/src/hid/encoder.h **** namespace daisy
ARM GAS  /tmp/cc1M3G4N.s 			page 8


   9:../../libdaisy/src/hid/encoder.h **** {
  10:../../libdaisy/src/hid/encoder.h **** /** 
  11:../../libdaisy/src/hid/encoder.h ****     @brief Generic Class for handling Quadrature Encoders \n 
  12:../../libdaisy/src/hid/encoder.h ****     Inspired/influenced by Mutable Instruments (pichenettes) Encoder classes
  13:../../libdaisy/src/hid/encoder.h ****     @author Stephen Hensley
  14:../../libdaisy/src/hid/encoder.h ****     @date December 2019
  15:../../libdaisy/src/hid/encoder.h ****     @ingroup controls
  16:../../libdaisy/src/hid/encoder.h **** */
  17:../../libdaisy/src/hid/encoder.h **** class Encoder
  18:../../libdaisy/src/hid/encoder.h **** {
  19:../../libdaisy/src/hid/encoder.h ****   public:
  20:../../libdaisy/src/hid/encoder.h ****     Encoder() {}
  21:../../libdaisy/src/hid/encoder.h ****     ~Encoder() {}
 140              		.loc 8 21 5 is_stmt 1 view .LVU30
 141              	.LBB340:
 142              	.LBI340:
 143              		.loc 7 41 5 view .LVU31
 144              		.loc 7 41 5 is_stmt 0 view .LVU32
 145              	.LBE340:
 146              	.LBE339:
 147              	.LBB341:
 148              	.LBI341:
 149              		.file 9 "../../libdaisy/src/daisy_seed.h"
   1:../../libdaisy/src/daisy_seed.h **** #pragma once
   2:../../libdaisy/src/daisy_seed.h **** #ifndef DSY_SEED_H
   3:../../libdaisy/src/daisy_seed.h **** #define DSY_SEED_H
   4:../../libdaisy/src/daisy_seed.h **** 
   5:../../libdaisy/src/daisy_seed.h **** #include "daisy.h"
   6:../../libdaisy/src/daisy_seed.h **** 
   7:../../libdaisy/src/daisy_seed.h **** //Uncomment this out if you're still using the rev2 hardware
   8:../../libdaisy/src/daisy_seed.h **** //#define SEED_REV2
   9:../../libdaisy/src/daisy_seed.h **** 
  10:../../libdaisy/src/daisy_seed.h **** namespace daisy
  11:../../libdaisy/src/daisy_seed.h **** {
  12:../../libdaisy/src/daisy_seed.h **** /**
  13:../../libdaisy/src/daisy_seed.h ****    @brief This is the higher-level interface for the Daisy board. \n 
  14:../../libdaisy/src/daisy_seed.h ****     All basic peripheral configuration/initialization is setup here. \n
  15:../../libdaisy/src/daisy_seed.h **** 
  16:../../libdaisy/src/daisy_seed.h ****    @ingroup boards
  17:../../libdaisy/src/daisy_seed.h **** */
  18:../../libdaisy/src/daisy_seed.h **** class DaisySeed
  19:../../libdaisy/src/daisy_seed.h **** {
  20:../../libdaisy/src/daisy_seed.h ****   public:
  21:../../libdaisy/src/daisy_seed.h ****     DaisySeed() {}
  22:../../libdaisy/src/daisy_seed.h ****     ~DaisySeed() {}
 150              		.loc 9 22 5 is_stmt 1 view .LVU33
 151              	.LBB342:
 152              	.LBI342:
 153              		.file 10 "../../libdaisy/src/sys/system.h"
   1:../../libdaisy/src/sys/system.h **** #ifndef DSY_SYSTEM_H
   2:../../libdaisy/src/sys/system.h **** #define DSY_SYSTEM_H
   3:../../libdaisy/src/sys/system.h **** 
   4:../../libdaisy/src/sys/system.h **** #ifndef UNIT_TEST // for unit tests, a dummy implementation is provided below
   5:../../libdaisy/src/sys/system.h **** 
   6:../../libdaisy/src/sys/system.h **** #include <cstdint>
   7:../../libdaisy/src/sys/system.h **** #include "per/tim.h"
   8:../../libdaisy/src/sys/system.h **** 
ARM GAS  /tmp/cc1M3G4N.s 			page 9


   9:../../libdaisy/src/sys/system.h **** namespace daisy
  10:../../libdaisy/src/sys/system.h **** {
  11:../../libdaisy/src/sys/system.h **** /** A handle for interacting with the Core System. 
  12:../../libdaisy/src/sys/system.h ****  ** This includes the Clock tree, MPU, global DMA initialization,
  13:../../libdaisy/src/sys/system.h ****  ** cache handling, and any other necessary global initiailzation
  14:../../libdaisy/src/sys/system.h ****  **
  15:../../libdaisy/src/sys/system.h ****  ** @author shensley
  16:../../libdaisy/src/sys/system.h ****  ** @addtogroup system
  17:../../libdaisy/src/sys/system.h ****  */
  18:../../libdaisy/src/sys/system.h **** class System
  19:../../libdaisy/src/sys/system.h **** {
  20:../../libdaisy/src/sys/system.h ****   public:
  21:../../libdaisy/src/sys/system.h ****     /** Contains settings for initializing the System */
  22:../../libdaisy/src/sys/system.h ****     struct Config
  23:../../libdaisy/src/sys/system.h ****     {
  24:../../libdaisy/src/sys/system.h ****         /** Specifies the system clock frequency that feeds APB/AHB clocks, etc. */
  25:../../libdaisy/src/sys/system.h ****         enum class SysClkFreq
  26:../../libdaisy/src/sys/system.h ****         {
  27:../../libdaisy/src/sys/system.h ****             FREQ_400MHZ,
  28:../../libdaisy/src/sys/system.h ****             FREQ_480MHZ,
  29:../../libdaisy/src/sys/system.h ****         };
  30:../../libdaisy/src/sys/system.h **** 
  31:../../libdaisy/src/sys/system.h ****         /** Method to call on the struct to set to defaults
  32:../../libdaisy/src/sys/system.h ****          ** CPU Freq set to 400MHz
  33:../../libdaisy/src/sys/system.h ****          ** Cache Enabled 
  34:../../libdaisy/src/sys/system.h ****          ** */
  35:../../libdaisy/src/sys/system.h ****         void Defaults()
  36:../../libdaisy/src/sys/system.h ****         {
  37:../../libdaisy/src/sys/system.h ****             cpu_freq   = SysClkFreq::FREQ_400MHZ;
  38:../../libdaisy/src/sys/system.h ****             use_dcache = true;
  39:../../libdaisy/src/sys/system.h ****             use_icache = true;
  40:../../libdaisy/src/sys/system.h ****         }
  41:../../libdaisy/src/sys/system.h **** 
  42:../../libdaisy/src/sys/system.h ****         /** Method to call on the struct to set to boost mode:
  43:../../libdaisy/src/sys/system.h ****          ** CPU Freq set to 480MHz
  44:../../libdaisy/src/sys/system.h ****          ** Cache Enabled 
  45:../../libdaisy/src/sys/system.h ****          ** */
  46:../../libdaisy/src/sys/system.h ****         void Boost()
  47:../../libdaisy/src/sys/system.h ****         {
  48:../../libdaisy/src/sys/system.h ****             cpu_freq   = SysClkFreq::FREQ_480MHZ;
  49:../../libdaisy/src/sys/system.h ****             use_dcache = true;
  50:../../libdaisy/src/sys/system.h ****             use_icache = true;
  51:../../libdaisy/src/sys/system.h ****         }
  52:../../libdaisy/src/sys/system.h **** 
  53:../../libdaisy/src/sys/system.h ****         SysClkFreq cpu_freq;
  54:../../libdaisy/src/sys/system.h ****         bool       use_dcache;
  55:../../libdaisy/src/sys/system.h ****         bool       use_icache;
  56:../../libdaisy/src/sys/system.h ****     };
  57:../../libdaisy/src/sys/system.h **** 
  58:../../libdaisy/src/sys/system.h ****     System() {}
  59:../../libdaisy/src/sys/system.h ****     ~System() {}
 154              		.loc 10 59 5 view .LVU34
 155              		.loc 10 59 5 is_stmt 0 view .LVU35
 156              	.LBE342:
 157              	.LBB343:
 158              	.LBI343:
 159              		.file 11 "../../libdaisy/src/hid/usb.h"
ARM GAS  /tmp/cc1M3G4N.s 			page 10


   1:../../libdaisy/src/hid/usb.h **** #pragma once
   2:../../libdaisy/src/hid/usb.h **** #ifndef DSY_HID_USB_H
   3:../../libdaisy/src/hid/usb.h **** #define DSY_HID_USB_H
   4:../../libdaisy/src/hid/usb.h **** #include <stdint.h>
   5:../../libdaisy/src/hid/usb.h **** #include <stdlib.h>
   6:../../libdaisy/src/hid/usb.h **** 
   7:../../libdaisy/src/hid/usb.h **** namespace daisy
   8:../../libdaisy/src/hid/usb.h **** /** @addtogroup externals
   9:../../libdaisy/src/hid/usb.h ****     @{
  10:../../libdaisy/src/hid/usb.h **** */
  11:../../libdaisy/src/hid/usb.h **** 
  12:../../libdaisy/src/hid/usb.h **** {
  13:../../libdaisy/src/hid/usb.h **** /** 
  14:../../libdaisy/src/hid/usb.h ****     @brief Interface for initializing and using the USB Peripherals on the daisy
  15:../../libdaisy/src/hid/usb.h ****     @author Stephen Hensley
  16:../../libdaisy/src/hid/usb.h ****     @date December 2019
  17:../../libdaisy/src/hid/usb.h **** */
  18:../../libdaisy/src/hid/usb.h **** class UsbHandle
  19:../../libdaisy/src/hid/usb.h **** {
  20:../../libdaisy/src/hid/usb.h ****   public:
  21:../../libdaisy/src/hid/usb.h ****     /** Return values for USBHandle Functions */
  22:../../libdaisy/src/hid/usb.h ****     enum class Result
  23:../../libdaisy/src/hid/usb.h ****     {
  24:../../libdaisy/src/hid/usb.h ****         OK,
  25:../../libdaisy/src/hid/usb.h ****         ERR,
  26:../../libdaisy/src/hid/usb.h ****     };
  27:../../libdaisy/src/hid/usb.h **** 
  28:../../libdaisy/src/hid/usb.h ****     /** Specified which of the two USB Peripherals to initialize. */
  29:../../libdaisy/src/hid/usb.h ****     enum UsbPeriph
  30:../../libdaisy/src/hid/usb.h ****     {
  31:../../libdaisy/src/hid/usb.h ****         FS_INTERNAL, /**< Internal pin */
  32:../../libdaisy/src/hid/usb.h ****         FS_EXTERNAL, /**< FS External D+ pin is Pin 38 (GPIO32). FS External D- pin is Pin 37 (GPIO
  33:../../libdaisy/src/hid/usb.h ****         FS_BOTH,     /**< Both */
  34:../../libdaisy/src/hid/usb.h ****     };
  35:../../libdaisy/src/hid/usb.h **** 
  36:../../libdaisy/src/hid/usb.h **** 
  37:../../libdaisy/src/hid/usb.h ****     /** Function called upon reception of a buffer */
  38:../../libdaisy/src/hid/usb.h ****     typedef void (*ReceiveCallback)(uint8_t* buff, uint32_t* len);
  39:../../libdaisy/src/hid/usb.h **** 
  40:../../libdaisy/src/hid/usb.h ****     UsbHandle() {}
  41:../../libdaisy/src/hid/usb.h **** 
  42:../../libdaisy/src/hid/usb.h ****     ~UsbHandle() {}
 160              		.loc 11 42 5 is_stmt 1 view .LVU36
 161              		.loc 11 42 5 is_stmt 0 view .LVU37
 162              	.LBE343:
 163              	.LBB344:
 164              	.LBI344:
 165              		.file 12 "../../libdaisy/src/per/adc.h"
   1:../../libdaisy/src/per/adc.h **** #pragma once
   2:../../libdaisy/src/per/adc.h **** #ifndef DSY_ADC_H
   3:../../libdaisy/src/per/adc.h **** #define DSY_ADC_H /**< Macro */
   4:../../libdaisy/src/per/adc.h **** #include <stdint.h>
   5:../../libdaisy/src/per/adc.h **** #include <stdlib.h>
   6:../../libdaisy/src/per/adc.h **** #include "daisy_core.h"
   7:../../libdaisy/src/per/adc.h **** #include "per/gpio.h"
   8:../../libdaisy/src/per/adc.h **** 
   9:../../libdaisy/src/per/adc.h **** #define DSY_ADC_MAX_CHANNELS 14 /**< Maximum number of ADC channels */
ARM GAS  /tmp/cc1M3G4N.s 			page 11


  10:../../libdaisy/src/per/adc.h **** 
  11:../../libdaisy/src/per/adc.h **** namespace daisy
  12:../../libdaisy/src/per/adc.h **** {
  13:../../libdaisy/src/per/adc.h **** /** @addtogroup analog_digital_conversion
  14:../../libdaisy/src/per/adc.h ****     @{
  15:../../libdaisy/src/per/adc.h **** */
  16:../../libdaisy/src/per/adc.h **** 
  17:../../libdaisy/src/per/adc.h **** /* While there may not be many configuration options here,
  18:../../libdaisy/src/per/adc.h **** using a struct like this allows us to add more configuration
  19:../../libdaisy/src/per/adc.h **** later without breaking existing functionality.
  20:../../libdaisy/src/per/adc.h **** */
  21:../../libdaisy/src/per/adc.h **** 
  22:../../libdaisy/src/per/adc.h **** /** Configuration Structure for a given channel */
  23:../../libdaisy/src/per/adc.h **** struct AdcChannelConfig
  24:../../libdaisy/src/per/adc.h **** {
  25:../../libdaisy/src/per/adc.h ****     /** Which pin to use for multiplexing */
  26:../../libdaisy/src/per/adc.h ****     enum MuxPin
  27:../../libdaisy/src/per/adc.h ****     {
  28:../../libdaisy/src/per/adc.h ****         MUX_SEL_0,    /**< & */
  29:../../libdaisy/src/per/adc.h ****         MUX_SEL_1,    /**< & */
  30:../../libdaisy/src/per/adc.h ****         MUX_SEL_2,    /**< & */
  31:../../libdaisy/src/per/adc.h ****         MUX_SEL_LAST, /**< & */
  32:../../libdaisy/src/per/adc.h ****     };
  33:../../libdaisy/src/per/adc.h **** 
  34:../../libdaisy/src/per/adc.h ****     /** Initializes a single ADC pin as an ADC. 
  35:../../libdaisy/src/per/adc.h ****     \param pin Pin to init.
  36:../../libdaisy/src/per/adc.h ****      */
  37:../../libdaisy/src/per/adc.h ****     void InitSingle(dsy_gpio_pin pin);
  38:../../libdaisy/src/per/adc.h **** 
  39:../../libdaisy/src/per/adc.h ****     /** 
  40:../../libdaisy/src/per/adc.h ****     Initializes a single ADC pin as a Multiplexed ADC.
  41:../../libdaisy/src/per/adc.h ****     Requires a CD405X Multiplexer connected to the pin.
  42:../../libdaisy/src/per/adc.h ****     You only need to supply the mux pins that are required,
  43:../../libdaisy/src/per/adc.h ****     e.g. a 4052 mux would only require mux_0 and mux_1.
  44:../../libdaisy/src/per/adc.h ****     Internal Callbacks handle the pin addressing.
  45:../../libdaisy/src/per/adc.h ****     \param mux_channels must be 1-8
  46:../../libdaisy/src/per/adc.h ****     \param mux_0 First mux pin
  47:../../libdaisy/src/per/adc.h ****     \param mux_1 Second mux pin
  48:../../libdaisy/src/per/adc.h ****     \param mux_2 Third mux pin
  49:../../libdaisy/src/per/adc.h ****     \param adc_pin &
  50:../../libdaisy/src/per/adc.h ****     */
  51:../../libdaisy/src/per/adc.h ****     void InitMux(dsy_gpio_pin adc_pin,
  52:../../libdaisy/src/per/adc.h ****                  size_t       mux_channels,
  53:../../libdaisy/src/per/adc.h ****                  dsy_gpio_pin mux_0,
  54:../../libdaisy/src/per/adc.h ****                  dsy_gpio_pin mux_1 = {DSY_GPIOX, 0},
  55:../../libdaisy/src/per/adc.h ****                  dsy_gpio_pin mux_2 = {DSY_GPIOX, 0});
  56:../../libdaisy/src/per/adc.h **** 
  57:../../libdaisy/src/per/adc.h ****     dsy_gpio pin_;                   /**< & */
  58:../../libdaisy/src/per/adc.h ****     dsy_gpio mux_pin_[MUX_SEL_LAST]; /**< & */
  59:../../libdaisy/src/per/adc.h ****     uint8_t  mux_channels_;          /**< & */
  60:../../libdaisy/src/per/adc.h **** };
  61:../../libdaisy/src/per/adc.h **** 
  62:../../libdaisy/src/per/adc.h **** /**
  63:../../libdaisy/src/per/adc.h ****    Handler for analog to digital conversion
  64:../../libdaisy/src/per/adc.h **** */
  65:../../libdaisy/src/per/adc.h **** class AdcHandle
  66:../../libdaisy/src/per/adc.h **** {
ARM GAS  /tmp/cc1M3G4N.s 			page 12


  67:../../libdaisy/src/per/adc.h ****   public:
  68:../../libdaisy/src/per/adc.h ****     /** Supported oversampling amounts */
  69:../../libdaisy/src/per/adc.h ****     enum OverSampling
  70:../../libdaisy/src/per/adc.h ****     {
  71:../../libdaisy/src/per/adc.h ****         OVS_NONE, /**< & */
  72:../../libdaisy/src/per/adc.h ****         OVS_4,    /**< & */
  73:../../libdaisy/src/per/adc.h ****         OVS_8,    /**< & */
  74:../../libdaisy/src/per/adc.h ****         OVS_16,   /**< & */
  75:../../libdaisy/src/per/adc.h ****         OVS_32,   /**< & */
  76:../../libdaisy/src/per/adc.h ****         OVS_64,   /**< & */
  77:../../libdaisy/src/per/adc.h ****         OVS_128,  /**< & */
  78:../../libdaisy/src/per/adc.h ****         OVS_256,  /**< & */
  79:../../libdaisy/src/per/adc.h ****         OVS_512,  /**< & */
  80:../../libdaisy/src/per/adc.h ****         OVS_1024, /**< & */
  81:../../libdaisy/src/per/adc.h ****         OVS_LAST, /**< & */
  82:../../libdaisy/src/per/adc.h ****     };
  83:../../libdaisy/src/per/adc.h **** 
  84:../../libdaisy/src/per/adc.h ****     AdcHandle() {}
  85:../../libdaisy/src/per/adc.h ****     ~AdcHandle() {}
 166              		.loc 12 85 5 is_stmt 1 view .LVU38
 167              		.loc 12 85 5 is_stmt 0 view .LVU39
 168              	.LBE344:
 169              	.LBB345:
 170              	.LBI345:
 171              		.file 13 "../../libdaisy/src/hid/audio.h"
   1:../../libdaisy/src/hid/audio.h **** #ifndef DSY_AUDIO_H
   2:../../libdaisy/src/hid/audio.h **** #define DSY_AUDIO_H /**< & */
   3:../../libdaisy/src/hid/audio.h **** 
   4:../../libdaisy/src/hid/audio.h **** #include "per/sai.h"
   5:../../libdaisy/src/hid/audio.h **** 
   6:../../libdaisy/src/hid/audio.h **** namespace daisy
   7:../../libdaisy/src/hid/audio.h **** {
   8:../../libdaisy/src/hid/audio.h **** class AudioHandle
   9:../../libdaisy/src/hid/audio.h **** {
  10:../../libdaisy/src/hid/audio.h ****   public:
  11:../../libdaisy/src/hid/audio.h ****     /** Manually configurable details about the Audio Engine */
  12:../../libdaisy/src/hid/audio.h ****     /** TODO: Figure out how to get samplerate in here. */
  13:../../libdaisy/src/hid/audio.h ****     struct Config
  14:../../libdaisy/src/hid/audio.h ****     {
  15:../../libdaisy/src/hid/audio.h ****         size_t                        blocksize;
  16:../../libdaisy/src/hid/audio.h ****         SaiHandle::Config::SampleRate samplerate;
  17:../../libdaisy/src/hid/audio.h ****         float                         postgain;
  18:../../libdaisy/src/hid/audio.h ****     };
  19:../../libdaisy/src/hid/audio.h **** 
  20:../../libdaisy/src/hid/audio.h ****     enum class Result
  21:../../libdaisy/src/hid/audio.h ****     {
  22:../../libdaisy/src/hid/audio.h ****         OK,
  23:../../libdaisy/src/hid/audio.h ****         ERR,
  24:../../libdaisy/src/hid/audio.h ****     };
  25:../../libdaisy/src/hid/audio.h **** 
  26:../../libdaisy/src/hid/audio.h ****     /** Non-Interleaving input buffer
  27:../../libdaisy/src/hid/audio.h ****      * Buffer arranged by float[chn][sample] 
  28:../../libdaisy/src/hid/audio.h ****      * const so that the user can't modify the input
  29:../../libdaisy/src/hid/audio.h ****     */
  30:../../libdaisy/src/hid/audio.h ****     typedef const float* const* InputBuffer;
  31:../../libdaisy/src/hid/audio.h **** 
  32:../../libdaisy/src/hid/audio.h ****     /** Non-Interleaving output buffer
ARM GAS  /tmp/cc1M3G4N.s 			page 13


  33:../../libdaisy/src/hid/audio.h ****      * Arranged by float[chn][sample] 
  34:../../libdaisy/src/hid/audio.h ****     */
  35:../../libdaisy/src/hid/audio.h ****     typedef float** OutputBuffer;
  36:../../libdaisy/src/hid/audio.h **** 
  37:../../libdaisy/src/hid/audio.h ****     /** Type for a Non-Interleaving audio callback 
  38:../../libdaisy/src/hid/audio.h ****    * Non-Interleaving audio callbacks in daisy will be of this type
  39:../../libdaisy/src/hid/audio.h ****   */
  40:../../libdaisy/src/hid/audio.h ****     typedef void (*AudioCallback)(InputBuffer  in,
  41:../../libdaisy/src/hid/audio.h ****                                   OutputBuffer out,
  42:../../libdaisy/src/hid/audio.h ****                                   size_t       size);
  43:../../libdaisy/src/hid/audio.h **** 
  44:../../libdaisy/src/hid/audio.h ****     /** Interleaving Input buffer
  45:../../libdaisy/src/hid/audio.h ****      ** audio is prepared as { L0, R0, L1, R1, . . . LN, RN }]
  46:../../libdaisy/src/hid/audio.h ****      ** this is const, as the user shouldn't modify it
  47:../../libdaisy/src/hid/audio.h ****     */
  48:../../libdaisy/src/hid/audio.h ****     typedef const float* InterleavingInputBuffer;
  49:../../libdaisy/src/hid/audio.h **** 
  50:../../libdaisy/src/hid/audio.h ****     /** Interleaving Output buffer 
  51:../../libdaisy/src/hid/audio.h ****      ** audio is prepared as { L0, R0, L1, R1, . . . LN, RN }
  52:../../libdaisy/src/hid/audio.h ****     */
  53:../../libdaisy/src/hid/audio.h ****     typedef float* InterleavingOutputBuffer;
  54:../../libdaisy/src/hid/audio.h **** 
  55:../../libdaisy/src/hid/audio.h ****     /** Interleaving Audio Callback 
  56:../../libdaisy/src/hid/audio.h ****    * Interleaving audio callbacks in daisy must be of this type
  57:../../libdaisy/src/hid/audio.h ****   */
  58:../../libdaisy/src/hid/audio.h ****     typedef void (*InterleavingAudioCallback)(InterleavingInputBuffer  in,
  59:../../libdaisy/src/hid/audio.h ****                                               InterleavingOutputBuffer out,
  60:../../libdaisy/src/hid/audio.h ****                                               size_t                   size);
  61:../../libdaisy/src/hid/audio.h **** 
  62:../../libdaisy/src/hid/audio.h ****     AudioHandle() : pimpl_(nullptr) {}
  63:../../libdaisy/src/hid/audio.h ****     ~AudioHandle() {}
 172              		.loc 13 63 5 is_stmt 1 view .LVU40
 173              		.loc 13 63 5 is_stmt 0 view .LVU41
 174              	.LBE345:
 175              	.LBE341:
 176              		.loc 3 36 18 view .LVU42
 177 0000 7047     		bx	lr
 178              		.cfi_endproc
 179              	.LFE2046:
 181              		.weak	_ZN5daisy8DaisyPodD1Ev
 182              		.thumb_set _ZN5daisy8DaisyPodD1Ev,_ZN5daisy8DaisyPodD2Ev
 183 0002 00BF     		.section	.text.startup.main,"ax",%progbits
 184              		.align	1
 185              		.p2align 2,,3
 186              		.global	main
 187              		.syntax unified
 188              		.thumb
 189              		.thumb_func
 190              		.fpu fpv5-d16
 192              	main:
 193              	.LFB2049:
 194              		.file 14 "SimpleLed.cpp"
   1:SimpleLed.cpp **** #include "daisy_pod.h"
   2:SimpleLed.cpp **** 
   3:SimpleLed.cpp **** using namespace daisy;
   4:SimpleLed.cpp **** 
   5:SimpleLed.cpp **** DaisyPod  hw;
ARM GAS  /tmp/cc1M3G4N.s 			page 14


   6:SimpleLed.cpp **** Parameter p_knob1, p_knob2;
   7:SimpleLed.cpp **** 
   8:SimpleLed.cpp **** int main(void)
   9:SimpleLed.cpp **** {
 195              		.loc 14 9 1 is_stmt 1 view -0
 196              		.cfi_startproc
 197              		@ args = 0, pretend = 0, frame = 32
 198              		@ frame_needed = 0, uses_anonymous_args = 0
  10:SimpleLed.cpp ****     hw.Init();
 199              		.loc 14 10 5 view .LVU44
   9:SimpleLed.cpp ****     hw.Init();
 200              		.loc 14 9 1 is_stmt 0 view .LVU45
 201 0000 F0B5     		push	{r4, r5, r6, r7, lr}
 202              		.cfi_def_cfa_offset 20
 203              		.cfi_offset 4, -20
 204              		.cfi_offset 5, -16
 205              		.cfi_offset 6, -12
 206              		.cfi_offset 7, -8
 207              		.cfi_offset 14, -4
  11:SimpleLed.cpp ****     float r = 0, g = 0, b = 0;
  12:SimpleLed.cpp ****     p_knob1.Init(hw.knob1, 0, 1, Parameter::LINEAR);
 208              		.loc 14 12 21 view .LVU46
 209 0002 224D     		ldr	r5, .L7
  10:SimpleLed.cpp ****     float r = 0, g = 0, b = 0;
 210              		.loc 14 10 12 view .LVU47
 211 0004 0021     		movs	r1, #0
   9:SimpleLed.cpp ****     hw.Init();
 212              		.loc 14 9 1 view .LVU48
 213 0006 2DED028B 		vpush.64	{d8}
 214              		.cfi_def_cfa_offset 28
 215              		.cfi_offset 80, -28
 216              		.cfi_offset 81, -24
 217 000a 89B0     		sub	sp, sp, #36
 218              		.cfi_def_cfa_offset 64
  10:SimpleLed.cpp ****     float r = 0, g = 0, b = 0;
 219              		.loc 14 10 12 view .LVU49
 220 000c A5F15C00 		sub	r0, r5, #92
 221 0010 FFF7FEFF 		bl	_ZN5daisy8DaisyPod4InitEb
 222              	.LVL2:
  11:SimpleLed.cpp ****     float r = 0, g = 0, b = 0;
 223              		.loc 14 11 5 is_stmt 1 view .LVU50
 224              		.loc 14 12 5 view .LVU51
 225              		.loc 14 12 17 is_stmt 0 view .LVU52
 226 0014 F7EE000A 		vmov.f32	s1, #1.0e+0
 227              		.loc 14 12 21 view .LVU53
 228 0018 6C46     		mov	r4, sp
 229              		.loc 14 12 17 view .LVU54
 230 001a 9FED1D0A 		vldr.32	s0, .L7+4
  13:SimpleLed.cpp ****     p_knob2.Init(hw.knob2, 0, 1, Parameter::LINEAR);
 231              		.loc 14 13 21 view .LVU55
 232 001e 6F46     		mov	r7, sp
  12:SimpleLed.cpp ****     p_knob2.Init(hw.knob2, 0, 1, Parameter::LINEAR);
 233              		.loc 14 12 21 view .LVU56
 234 0020 0FCD     		ldmia	r5!, {r0, r1, r2, r3}
 235 0022 0FC4     		stmia	r4!, {r0, r1, r2, r3}
 236 0024 95E80F00 		ldm	r5, {r0, r1, r2, r3}
 237              		.loc 14 13 21 view .LVU57
ARM GAS  /tmp/cc1M3G4N.s 			page 15


 238 0028 05F11006 		add	r6, r5, #16
  12:SimpleLed.cpp ****     p_knob2.Init(hw.knob2, 0, 1, Parameter::LINEAR);
 239              		.loc 14 12 21 view .LVU58
 240 002c 84E80F00 		stm	r4, {r0, r1, r2, r3}
  12:SimpleLed.cpp ****     p_knob2.Init(hw.knob2, 0, 1, Parameter::LINEAR);
 241              		.loc 14 12 17 view .LVU59
 242 0030 6946     		mov	r1, sp
 243 0032 0022     		movs	r2, #0
 244 0034 1748     		ldr	r0, .L7+8
 245 0036 FFF7FEFF 		bl	_ZN5daisy9Parameter4InitENS_13AnalogControlEffNS0_5CurveE
 246              	.LVL3:
 247              	.LBB346:
 248              	.LBI346:
 249              		.loc 2 23 5 is_stmt 1 view .LVU60
 250              		.loc 2 23 5 is_stmt 0 view .LVU61
 251              	.LBE346:
 252              		.loc 14 13 5 is_stmt 1 view .LVU62
 253              		.loc 14 13 17 is_stmt 0 view .LVU63
 254 003a F7EE000A 		vmov.f32	s1, #1.0e+0
 255 003e 9FED140A 		vldr.32	s0, .L7+4
 256              		.loc 14 13 21 view .LVU64
 257 0042 0FCE     		ldmia	r6!, {r0, r1, r2, r3}
 258 0044 0FC7     		stmia	r7!, {r0, r1, r2, r3}
 259 0046 96E80F00 		ldm	r6, {r0, r1, r2, r3}
 260 004a 84E80F00 		stm	r4, {r0, r1, r2, r3}
 261              		.loc 14 13 17 view .LVU65
 262 004e 1248     		ldr	r0, .L7+12
 263 0050 6946     		mov	r1, sp
 264 0052 0022     		movs	r2, #0
 265 0054 FFF7FEFF 		bl	_ZN5daisy9Parameter4InitENS_13AnalogControlEffNS0_5CurveE
 266              	.LVL4:
 267              	.LBB347:
 268              	.LBI347:
 269              		.loc 2 23 5 is_stmt 1 view .LVU66
 270              		.loc 2 23 5 is_stmt 0 view .LVU67
 271              	.LBE347:
  14:SimpleLed.cpp **** 
  15:SimpleLed.cpp ****     hw.StartAdc();
 272              		.loc 14 15 5 is_stmt 1 view .LVU68
 273              		.loc 14 15 16 is_stmt 0 view .LVU69
 274 0058 A5F16C00 		sub	r0, r5, #108
 275 005c FFF7FEFF 		bl	_ZN5daisy8DaisyPod8StartAdcEv
 276              	.LVL5:
 277              	.L5:
  16:SimpleLed.cpp **** 
  17:SimpleLed.cpp ****     while(1)
 278              		.loc 14 17 5 is_stmt 1 discriminator 1 view .LVU70
  18:SimpleLed.cpp ****     {
  19:SimpleLed.cpp ****         r = p_knob1.Process();
 279              		.loc 14 19 9 discriminator 1 view .LVU71
 280              		.loc 14 19 28 is_stmt 0 discriminator 1 view .LVU72
 281 0060 0C48     		ldr	r0, .L7+8
 282 0062 FFF7FEFF 		bl	_ZN5daisy9Parameter7ProcessEv
 283              	.LVL6:
 284 0066 B0EE408A 		vmov.f32	s16, s0
 285              	.LVL7:
  20:SimpleLed.cpp ****         g = p_knob2.Process();
ARM GAS  /tmp/cc1M3G4N.s 			page 16


 286              		.loc 14 20 9 is_stmt 1 discriminator 1 view .LVU73
 287              		.loc 14 20 28 is_stmt 0 discriminator 1 view .LVU74
 288 006a 0B48     		ldr	r0, .L7+12
 289 006c FFF7FEFF 		bl	_ZN5daisy9Parameter7ProcessEv
 290              	.LVL8:
  21:SimpleLed.cpp **** 
  22:SimpleLed.cpp ****         hw.led1.Set(r, g, b);
 291              		.loc 14 22 20 discriminator 1 view .LVU75
 292 0070 9FED071A 		vldr.32	s2, .L7+4
  20:SimpleLed.cpp ****         g = p_knob2.Process();
 293              		.loc 14 20 28 discriminator 1 view .LVU76
 294 0074 F0EE400A 		vmov.f32	s1, s0
 295              	.LVL9:
 296              		.loc 14 22 9 is_stmt 1 discriminator 1 view .LVU77
 297              		.loc 14 22 20 is_stmt 0 discriminator 1 view .LVU78
 298 0078 0848     		ldr	r0, .L7+16
 299 007a B0EE480A 		vmov.f32	s0, s16
 300              	.LVL10:
 301              		.loc 14 22 20 discriminator 1 view .LVU79
 302 007e FFF7FEFF 		bl	_ZN5daisy6RgbLed3SetEfff
 303              	.LVL11:
  23:SimpleLed.cpp **** 
  24:SimpleLed.cpp ****         hw.UpdateLeds();
 304              		.loc 14 24 9 is_stmt 1 discriminator 1 view .LVU80
 305              		.loc 14 24 22 is_stmt 0 discriminator 1 view .LVU81
 306 0082 0748     		ldr	r0, .L7+20
 307 0084 FFF7FEFF 		bl	_ZN5daisy8DaisyPod10UpdateLedsEv
 308              	.LVL12:
  17:SimpleLed.cpp ****     {
 309              		.loc 14 17 5 is_stmt 1 discriminator 1 view .LVU82
 310 0088 EAE7     		b	.L5
 311              	.L8:
 312 008a 00BF     		.align	2
 313              	.L7:
 314 008c 5C000000 		.word	hw+92
 315 0090 00000000 		.word	0
 316 0094 00000000 		.word	.LANCHOR0
 317 0098 00000000 		.word	.LANCHOR1
 318 009c CC000000 		.word	hw+204
 319 00a0 00000000 		.word	hw
 320              		.cfi_endproc
 321              	.LFE2049:
 323              		.section	.text.startup._GLOBAL__sub_I_hw,"ax",%progbits
 324              		.align	1
 325              		.p2align 2,,3
 326              		.syntax unified
 327              		.thumb
 328              		.thumb_func
 329              		.fpu fpv5-d16
 331              	_GLOBAL__sub_I_hw:
 332              	.LFB2077:
  25:SimpleLed.cpp ****     }
  26:SimpleLed.cpp **** }
 333              		.loc 14 26 1 view -0
 334              		.cfi_startproc
 335              		@ args = 0, pretend = 0, frame = 0
 336              		@ frame_needed = 0, uses_anonymous_args = 0
ARM GAS  /tmp/cc1M3G4N.s 			page 17


 337              	.LBB417:
 338              	.LBI417:
 339              		.loc 14 26 1 view .LVU84
 340              	.LVL13:
 341              	.LBB418:
 342              	.LBB419:
 343              	.LBI419:
  35:../../libdaisy/src/daisy_pod.h ****     ~DaisyPod() {}
 344              		.loc 3 35 5 view .LVU85
 345              	.LBB420:
 346              	.LBB421:
 347              	.LBI421:
  21:../../libdaisy/src/daisy_seed.h ****     ~DaisySeed() {}
 348              		.loc 9 21 5 view .LVU86
 349              	.LBB422:
 350              	.LBB423:
 351              	.LBI423:
  62:../../libdaisy/src/hid/audio.h ****     ~AudioHandle() {}
 352              		.loc 13 62 5 view .LVU87
 353              	.LBE423:
 354              	.LBE422:
 355              	.LBE421:
 356              	.LBB442:
 357              	.LBB443:
 358              	.LBB444:
 359              	.LBB445:
 360              	.LBB446:
 361              	.LBB447:
 362              	.LBB448:
  36:../../libdaisy/src/hid/midi.h ****             tx     = {DSY_GPIOB, 6};
 363              		.loc 4 36 20 is_stmt 0 view .LVU88
 364 0000 1949     		ldr	r1, .L11
 365              	.LBE448:
 366              	.LBE447:
 367              	.LBE446:
 368              	.LBE445:
 369              	.LBE444:
 370              	.LBE443:
 371              	.LBE442:
 372              	.LBB491:
 373              	.LBB439:
 374              	.LBB430:
 375              	.LBB424:
 376              	.LBB425:
  62:../../libdaisy/src/hid/audio.h ****     ~AudioHandle() {}
 377              		.loc 13 62 35 view .LVU89
 378 0002 1A48     		ldr	r0, .L11+4
 379              	.LBE425:
 380              	.LBE424:
 381              	.LBE430:
 382              	.LBE439:
 383              	.LBE491:
 384              	.LBE420:
 385              	.LBE419:
   5:SimpleLed.cpp **** Parameter p_knob1, p_knob2;
 386              		.loc 14 5 11 view .LVU90
 387 0004 1A4A     		ldr	r2, .L11+8
ARM GAS  /tmp/cc1M3G4N.s 			page 18


 388              	.LBE418:
 389              	.LBE417:
 390              		.loc 14 26 1 view .LVU91
 391 0006 F8B5     		push	{r3, r4, r5, r6, r7, lr}
 392              		.cfi_def_cfa_offset 24
 393              		.cfi_offset 3, -24
 394              		.cfi_offset 4, -20
 395              		.cfi_offset 5, -16
 396              		.cfi_offset 6, -12
 397              		.cfi_offset 7, -8
 398              		.cfi_offset 14, -4
 399              	.LBB527:
 400              	.LBB525:
 401              	.LBB517:
 402              	.LBB515:
 403              	.LBB492:
 404              	.LBB487:
 405              	.LBB483:
 406              	.LBB464:
 407              	.LBB459:
 408              	.LBB454:
 409              	.LBB449:
  36:../../libdaisy/src/hid/midi.h ****             tx     = {DSY_GPIOB, 6};
 410              		.loc 4 36 20 view .LVU92
 411 0008 0E88     		ldrh	r6, [r1]
 412 000a 49F22025 		movw	r5, #37408
  37:../../libdaisy/src/hid/midi.h ****         }
 413              		.loc 4 37 20 view .LVU93
 414 000e 8988     		ldrh	r1, [r1, #4]
 415 0010 49F22224 		movw	r4, #37410
 416              	.LBE449:
 417              	.LBE454:
 418              	.LBE459:
 419              	.LBE464:
 420              	.LBE483:
 421              	.LBE487:
 422              	.LBE492:
 423              	.LBB493:
 424              	.LBB440:
 425              	.LBB431:
 426              	.LBB428:
 427              	.LBB426:
  62:../../libdaisy/src/hid/audio.h ****     ~AudioHandle() {}
 428              		.loc 13 62 35 view .LVU94
 429 0014 0023     		movs	r3, #0
 430              	.LBE426:
 431              	.LBE428:
 432              	.LBE431:
 433              	.LBE440:
 434              	.LBE493:
 435              	.LBB494:
 436              	.LBB488:
 437              	.LBB484:
 438              	.LBB465:
 439              	.LBB460:
 440              	.LBB455:
 441              	.LBB450:
ARM GAS  /tmp/cc1M3G4N.s 			page 19


  36:../../libdaisy/src/hid/midi.h ****             tx     = {DSY_GPIOB, 6};
 442              		.loc 4 36 20 view .LVU95
 443 0016 4653     		strh	r6, [r0, r5]	@ movhi
 444              	.LBE450:
 445              	.LBE455:
 446              	.LBE460:
 447              	.LBE465:
 448              	.LBB466:
 449              	.LBB467:
 450              	.LBB468:
 451              	.LBB469:
 452              		.file 15 "../../libdaisy/src/per/uart.h"
   1:../../libdaisy/src/per/uart.h **** /* 
   2:../../libdaisy/src/per/uart.h **** TODO
   3:../../libdaisy/src/per/uart.h **** - UART1 defaults to DMA, add flexible config for DMA on all periphs
   4:../../libdaisy/src/per/uart.h **** - Transmit function improvements.
   5:../../libdaisy/src/per/uart.h **** - Overflow handling, etc. for Rx Queue.
   6:../../libdaisy/src/per/uart.h **** */
   7:../../libdaisy/src/per/uart.h **** 
   8:../../libdaisy/src/per/uart.h **** #pragma once
   9:../../libdaisy/src/per/uart.h **** #ifndef DSY_UART_H
  10:../../libdaisy/src/per/uart.h **** #define DSY_UART_H /**< macro */
  11:../../libdaisy/src/per/uart.h **** #include "daisy_core.h"
  12:../../libdaisy/src/per/uart.h **** 
  13:../../libdaisy/src/per/uart.h **** 
  14:../../libdaisy/src/per/uart.h **** namespace daisy
  15:../../libdaisy/src/per/uart.h **** {
  16:../../libdaisy/src/per/uart.h **** /** @addtogroup serial
  17:../../libdaisy/src/per/uart.h ****     @{
  18:../../libdaisy/src/per/uart.h ****     */
  19:../../libdaisy/src/per/uart.h **** 
  20:../../libdaisy/src/per/uart.h **** /** 
  21:../../libdaisy/src/per/uart.h ****     Uart Peripheral
  22:../../libdaisy/src/per/uart.h ****     @author shensley
  23:../../libdaisy/src/per/uart.h ****     @date March 2020
  24:../../libdaisy/src/per/uart.h ****     */
  25:../../libdaisy/src/per/uart.h **** class UartHandler
  26:../../libdaisy/src/per/uart.h **** {
  27:../../libdaisy/src/per/uart.h ****   public:
  28:../../libdaisy/src/per/uart.h ****     struct Config
  29:../../libdaisy/src/per/uart.h ****     {
  30:../../libdaisy/src/per/uart.h ****         enum class Peripheral
  31:../../libdaisy/src/per/uart.h ****         {
  32:../../libdaisy/src/per/uart.h ****             USART_1,
  33:../../libdaisy/src/per/uart.h ****             USART_2,
  34:../../libdaisy/src/per/uart.h ****             USART_3,
  35:../../libdaisy/src/per/uart.h ****             UART_4,
  36:../../libdaisy/src/per/uart.h ****             UART_5,
  37:../../libdaisy/src/per/uart.h ****             USART_6,
  38:../../libdaisy/src/per/uart.h ****             UART_7,
  39:../../libdaisy/src/per/uart.h ****             UART_8,
  40:../../libdaisy/src/per/uart.h ****             LPUART_1,
  41:../../libdaisy/src/per/uart.h ****         };
  42:../../libdaisy/src/per/uart.h **** 
  43:../../libdaisy/src/per/uart.h ****         enum class StopBits
  44:../../libdaisy/src/per/uart.h ****         {
  45:../../libdaisy/src/per/uart.h ****             BITS_0_5,
ARM GAS  /tmp/cc1M3G4N.s 			page 20


  46:../../libdaisy/src/per/uart.h ****             BITS_1,
  47:../../libdaisy/src/per/uart.h ****             BITS_1_5,
  48:../../libdaisy/src/per/uart.h ****             BITS_2,
  49:../../libdaisy/src/per/uart.h ****         };
  50:../../libdaisy/src/per/uart.h **** 
  51:../../libdaisy/src/per/uart.h ****         enum class Parity
  52:../../libdaisy/src/per/uart.h ****         {
  53:../../libdaisy/src/per/uart.h ****             NONE,
  54:../../libdaisy/src/per/uart.h ****             EVEN,
  55:../../libdaisy/src/per/uart.h ****             ODD,
  56:../../libdaisy/src/per/uart.h ****         };
  57:../../libdaisy/src/per/uart.h **** 
  58:../../libdaisy/src/per/uart.h ****         enum class Mode
  59:../../libdaisy/src/per/uart.h ****         {
  60:../../libdaisy/src/per/uart.h ****             RX,
  61:../../libdaisy/src/per/uart.h ****             TX,
  62:../../libdaisy/src/per/uart.h ****             TX_RX,
  63:../../libdaisy/src/per/uart.h ****         };
  64:../../libdaisy/src/per/uart.h **** 
  65:../../libdaisy/src/per/uart.h ****         enum class WordLength
  66:../../libdaisy/src/per/uart.h ****         {
  67:../../libdaisy/src/per/uart.h ****             BITS_7,
  68:../../libdaisy/src/per/uart.h ****             BITS_8,
  69:../../libdaisy/src/per/uart.h ****             BITS_9,
  70:../../libdaisy/src/per/uart.h ****         };
  71:../../libdaisy/src/per/uart.h **** 
  72:../../libdaisy/src/per/uart.h ****         struct
  73:../../libdaisy/src/per/uart.h ****         {
  74:../../libdaisy/src/per/uart.h ****             dsy_gpio_pin tx; /**< & */
  75:../../libdaisy/src/per/uart.h ****             dsy_gpio_pin rx; /**< & */
  76:../../libdaisy/src/per/uart.h ****         } pin_config;        /**< & */
  77:../../libdaisy/src/per/uart.h **** 
  78:../../libdaisy/src/per/uart.h ****         Peripheral periph;
  79:../../libdaisy/src/per/uart.h ****         StopBits   stopbits;
  80:../../libdaisy/src/per/uart.h ****         Parity     parity;
  81:../../libdaisy/src/per/uart.h ****         Mode       mode;
  82:../../libdaisy/src/per/uart.h ****         WordLength wordlength;
  83:../../libdaisy/src/per/uart.h ****         uint32_t   baudrate;
  84:../../libdaisy/src/per/uart.h ****     };
  85:../../libdaisy/src/per/uart.h **** 
  86:../../libdaisy/src/per/uart.h **** 
  87:../../libdaisy/src/per/uart.h ****     UartHandler() : pimpl_(nullptr) {}
 453              		.loc 15 87 35 view .LVU96
 454 0018 49F22425 		movw	r5, #37412
 455              	.LBE469:
 456              	.LBE468:
 457              	.LBE467:
 458              	.LBE466:
 459              	.LBB474:
 460              	.LBB461:
 461              	.LBB456:
 462              	.LBB451:
  37:../../libdaisy/src/hid/midi.h ****         }
 463              		.loc 4 37 20 view .LVU97
 464 001c 0153     		strh	r1, [r0, r4]	@ movhi
  35:../../libdaisy/src/hid/midi.h ****             rx     = {DSY_GPIOB, 7};
 465              		.loc 4 35 20 view .LVU98
ARM GAS  /tmp/cc1M3G4N.s 			page 21


 466 001e 49F21C27 		movw	r7, #37404
 467              	.LBE451:
 468              	.LBE456:
 469              	.LBE461:
 470              	.LBE474:
  82:../../libdaisy/src/hid/midi.h ****     ~MidiHandler() {}
 471              		.loc 4 82 19 view .LVU99
 472 0022 49F22C21 		movw	r1, #37420
 473 0026 4FF60F06 		movw	r6, #63503
 474              	.LBB475:
 475              	.LBB472:
 476              	.LBB471:
 477              	.LBB470:
 478              		.loc 15 87 35 view .LVU100
 479 002a 4351     		str	r3, [r0, r5]
 480              	.LBE470:
 481              	.LBE471:
 482              	.LBE472:
 483              	.LBE475:
  82:../../libdaisy/src/hid/midi.h ****     ~MidiHandler() {}
 484              		.loc 4 82 19 view .LVU101
 485 002c 49F22824 		movw	r4, #37416
 486 0030 104D     		ldr	r5, .L11+12
 487              	.LBB476:
 488              	.LBB462:
 489              	.LBB457:
 490              	.LBB452:
  35:../../libdaisy/src/hid/midi.h ****             rx     = {DSY_GPIOB, 7};
 491              		.loc 4 35 20 view .LVU102
 492 0032 C351     		str	r3, [r0, r7]
 493              	.LBE452:
 494              	.LBE457:
 495              	.LBE462:
 496              	.LBE476:
  82:../../libdaisy/src/hid/midi.h ****     ~MidiHandler() {}
 497              		.loc 4 82 19 view .LVU103
 498 0034 4652     		strh	r6, [r0, r1]	@ movhi
 499 0036 0721     		movs	r1, #7
 500              	.LBE484:
 501              	.LBE488:
 502              	.LBE494:
 503              	.LBB495:
 504              	.LBB441:
 505              	.LBB432:
 506              	.LBB429:
 507              	.LBB427:
  62:../../libdaisy/src/hid/audio.h ****     ~AudioHandle() {}
 508              		.loc 13 62 35 view .LVU104
 509 0038 4361     		str	r3, [r0, #20]
 510              	.LVL14:
  62:../../libdaisy/src/hid/audio.h ****     ~AudioHandle() {}
 511              		.loc 13 62 35 view .LVU105
 512              	.LBE427:
 513              	.LBE429:
 514              	.LBE432:
 515              	.LBB433:
 516              	.LBI433:
ARM GAS  /tmp/cc1M3G4N.s 			page 22


  84:../../libdaisy/src/per/adc.h ****     ~AdcHandle() {}
 517              		.loc 12 84 5 is_stmt 1 view .LVU106
  84:../../libdaisy/src/per/adc.h ****     ~AdcHandle() {}
 518              		.loc 12 84 5 is_stmt 0 view .LVU107
 519              	.LBE433:
 520              	.LBB434:
 521              	.LBI434:
 522              		.file 16 "../../libdaisy/src/per/dac.h"
   1:../../libdaisy/src/per/dac.h **** #pragma once
   2:../../libdaisy/src/per/dac.h **** #ifndef DSY_DAC_H
   3:../../libdaisy/src/per/dac.h **** #define DSY_DAC_H
   4:../../libdaisy/src/per/dac.h **** 
   5:../../libdaisy/src/per/dac.h **** #include "daisy_core.h"
   6:../../libdaisy/src/per/dac.h **** 
   7:../../libdaisy/src/per/dac.h **** namespace daisy
   8:../../libdaisy/src/per/dac.h **** {
   9:../../libdaisy/src/per/dac.h **** /** DAC handle for Built-in DAC Peripheral 
  10:../../libdaisy/src/per/dac.h ****  ** 
  11:../../libdaisy/src/per/dac.h ****  ** For now only Normal Mode is supported,
  12:../../libdaisy/src/per/dac.h ****  ** Sample and hold mode provides reduced power consumption, but requires a bit more setup.
  13:../../libdaisy/src/per/dac.h ****  **
  14:../../libdaisy/src/per/dac.h ****  ** For now connecting the DAC through other internal periphearls is also not supported.
  15:../../libdaisy/src/per/dac.h ****  **
  16:../../libdaisy/src/per/dac.h ****  ** Since the DAC channels have dedicated pins we don't need to pass in a pin config like with
  17:../../libdaisy/src/per/dac.h ****  ** other modules. However, it is still important to not try to use the DAC pins for anything else.
  18:../../libdaisy/src/per/dac.h ****  ** DAC Channel 1 is on PA4, and DAC Channel 2 is on PA5
  19:../../libdaisy/src/per/dac.h ****  ***/
  20:../../libdaisy/src/per/dac.h **** class DacHandle
  21:../../libdaisy/src/per/dac.h **** {
  22:../../libdaisy/src/per/dac.h ****   public:
  23:../../libdaisy/src/per/dac.h ****     /** Return Values for the DacHandle class */
  24:../../libdaisy/src/per/dac.h ****     enum class Result
  25:../../libdaisy/src/per/dac.h ****     {
  26:../../libdaisy/src/per/dac.h ****         OK,
  27:../../libdaisy/src/per/dac.h ****         ERR,
  28:../../libdaisy/src/per/dac.h ****     };
  29:../../libdaisy/src/per/dac.h **** 
  30:../../libdaisy/src/per/dac.h ****     /** Selects which channel(s) will be configured for use. */
  31:../../libdaisy/src/per/dac.h ****     enum class Channel
  32:../../libdaisy/src/per/dac.h ****     {
  33:../../libdaisy/src/per/dac.h ****         ONE,
  34:../../libdaisy/src/per/dac.h ****         TWO,
  35:../../libdaisy/src/per/dac.h ****         BOTH,
  36:../../libdaisy/src/per/dac.h ****     };
  37:../../libdaisy/src/per/dac.h **** 
  38:../../libdaisy/src/per/dac.h ****     /** Sets the Mode for the DAC channels.
  39:../../libdaisy/src/per/dac.h ****      **
  40:../../libdaisy/src/per/dac.h ****      ** Polling mode uses the blocking mode to transmit a single value at a time.
  41:../../libdaisy/src/per/dac.h ****      **
  42:../../libdaisy/src/per/dac.h ****      ** DMA mode uses a buffer, and periodically transmits it triggering a 
  43:../../libdaisy/src/per/dac.h ****      ** callback to fill the buffer when it is ready for more samples.
  44:../../libdaisy/src/per/dac.h ****      ***/
  45:../../libdaisy/src/per/dac.h ****     enum class Mode
  46:../../libdaisy/src/per/dac.h ****     {
  47:../../libdaisy/src/per/dac.h ****         POLLING,
  48:../../libdaisy/src/per/dac.h ****         DMA,
  49:../../libdaisy/src/per/dac.h ****     };
ARM GAS  /tmp/cc1M3G4N.s 			page 23


  50:../../libdaisy/src/per/dac.h **** 
  51:../../libdaisy/src/per/dac.h ****     /** Sets the number of bits per sample transmitted out of the DAC.
  52:../../libdaisy/src/per/dac.h ****      ** The output range will be: 0V - VDDA
  53:../../libdaisy/src/per/dac.h ****      ** The resolution will be roughly: bitdepth / (VDDA - 0V) 
  54:../../libdaisy/src/per/dac.h ****      ***/
  55:../../libdaisy/src/per/dac.h ****     enum class BitDepth
  56:../../libdaisy/src/per/dac.h ****     {
  57:../../libdaisy/src/per/dac.h ****         BITS_8,
  58:../../libdaisy/src/per/dac.h ****         BITS_12
  59:../../libdaisy/src/per/dac.h ****     };
  60:../../libdaisy/src/per/dac.h **** 
  61:../../libdaisy/src/per/dac.h ****     /** Sets whether the DAC output is buffered for higher drive ability. */
  62:../../libdaisy/src/per/dac.h ****     enum class BufferState
  63:../../libdaisy/src/per/dac.h ****     {
  64:../../libdaisy/src/per/dac.h ****         ENABLED,
  65:../../libdaisy/src/per/dac.h ****         DISABLED,
  66:../../libdaisy/src/per/dac.h ****     };
  67:../../libdaisy/src/per/dac.h **** 
  68:../../libdaisy/src/per/dac.h ****     /** Configuration structure for initializing the DAC structure. */
  69:../../libdaisy/src/per/dac.h ****     struct Config
  70:../../libdaisy/src/per/dac.h ****     {
  71:../../libdaisy/src/per/dac.h ****         /** Target Samplerate in Hz used to configure the internal 
  72:../../libdaisy/src/per/dac.h ****          ** timebase for DMA mode. Does nothing in POLLING mode.
  73:../../libdaisy/src/per/dac.h ****          ** If the value is 0 at Init time this will default to 48000Hz 
  74:../../libdaisy/src/per/dac.h ****          ** otherwise the driver will attempt meet the target.*/
  75:../../libdaisy/src/per/dac.h ****         uint32_t target_samplerate;
  76:../../libdaisy/src/per/dac.h **** 
  77:../../libdaisy/src/per/dac.h ****         Channel     chn;
  78:../../libdaisy/src/per/dac.h ****         Mode        mode;
  79:../../libdaisy/src/per/dac.h ****         BitDepth    bitdepth;
  80:../../libdaisy/src/per/dac.h ****         BufferState buff_state;
  81:../../libdaisy/src/per/dac.h ****     };
  82:../../libdaisy/src/per/dac.h **** 
  83:../../libdaisy/src/per/dac.h ****     DacHandle() : pimpl_(nullptr) {}
 523              		.loc 16 83 5 is_stmt 1 view .LVU108
 524              	.LBB435:
 525              	.LBB436:
 526              		.loc 16 83 33 is_stmt 0 view .LVU109
 527 003a 0362     		str	r3, [r0, #32]
 528              	.LVL15:
 529              		.loc 16 83 33 view .LVU110
 530              	.LBE436:
 531              	.LBE435:
 532              	.LBE434:
 533              	.LBB437:
 534              	.LBI437:
  40:../../libdaisy/src/hid/usb.h **** 
 535              		.loc 11 40 5 is_stmt 1 view .LVU111
  40:../../libdaisy/src/hid/usb.h **** 
 536              		.loc 11 40 5 is_stmt 0 view .LVU112
 537              	.LBE437:
 538              	.LBB438:
 539              	.LBI438:
  58:../../libdaisy/src/sys/system.h ****     ~System() {}
 540              		.loc 10 58 5 is_stmt 1 view .LVU113
  58:../../libdaisy/src/sys/system.h ****     ~System() {}
 541              		.loc 10 58 5 is_stmt 0 view .LVU114
ARM GAS  /tmp/cc1M3G4N.s 			page 24


 542              	.LBE438:
 543              	.LBE441:
 544              	.LBE495:
 545              	.LBB496:
 546              	.LBI496:
  20:../../libdaisy/src/hid/encoder.h ****     ~Encoder() {}
 547              		.loc 8 20 5 is_stmt 1 view .LVU115
 548              	.LBB497:
 549              	.LBB498:
 550              	.LBI498:
  40:../../libdaisy/src/hid/switch.h ****     ~Switch() {}
 551              		.loc 7 40 5 view .LVU116
  40:../../libdaisy/src/hid/switch.h ****     ~Switch() {}
 552              		.loc 7 40 5 is_stmt 0 view .LVU117
 553              	.LBE498:
 554              	.LBE497:
 555              	.LBE496:
 556              	.LBB499:
 557              	.LBI499:
  21:../../libdaisy/src/hid/ctrl.h ****     /** destructor */
 558              		.loc 2 21 5 is_stmt 1 view .LVU118
  21:../../libdaisy/src/hid/ctrl.h ****     /** destructor */
 559              		.loc 2 21 5 is_stmt 0 view .LVU119
 560              	.LBE499:
 561              	.LBB500:
 562              	.LBI500:
  21:../../libdaisy/src/hid/ctrl.h ****     /** destructor */
 563              		.loc 2 21 5 is_stmt 1 view .LVU120
  21:../../libdaisy/src/hid/ctrl.h ****     /** destructor */
 564              		.loc 2 21 5 is_stmt 0 view .LVU121
 565              	.LBE500:
 566              	.LBB501:
 567              	.LBI501:
  40:../../libdaisy/src/hid/switch.h ****     ~Switch() {}
 568              		.loc 7 40 5 is_stmt 1 view .LVU122
  40:../../libdaisy/src/hid/switch.h ****     ~Switch() {}
 569              		.loc 7 40 5 is_stmt 0 view .LVU123
 570              	.LBE501:
 571              	.LBB502:
 572              	.LBI502:
  40:../../libdaisy/src/hid/switch.h ****     ~Switch() {}
 573              		.loc 7 40 5 is_stmt 1 view .LVU124
  40:../../libdaisy/src/hid/switch.h ****     ~Switch() {}
 574              		.loc 7 40 5 is_stmt 0 view .LVU125
 575              	.LBE502:
 576              	.LBB503:
 577              	.LBI503:
  17:../../libdaisy/src/hid/rgb_led.h ****     ~RgbLed() {}
 578              		.loc 5 17 5 is_stmt 1 view .LVU126
 579              	.LBB504:
 580              	.LBB505:
 581              	.LBI505:
  24:../../libdaisy/src/hid/led.h ****     ~Led() {}
 582              		.loc 6 24 5 view .LVU127
  24:../../libdaisy/src/hid/led.h ****     ~Led() {}
 583              		.loc 6 24 5 is_stmt 0 view .LVU128
 584              	.LBE505:
ARM GAS  /tmp/cc1M3G4N.s 			page 25


 585              	.LBB506:
 586              	.LBI506:
  24:../../libdaisy/src/hid/led.h ****     ~Led() {}
 587              		.loc 6 24 5 is_stmt 1 view .LVU129
  24:../../libdaisy/src/hid/led.h ****     ~Led() {}
 588              		.loc 6 24 5 is_stmt 0 view .LVU130
 589              	.LBE506:
 590              	.LBB507:
 591              	.LBI507:
  24:../../libdaisy/src/hid/led.h ****     ~Led() {}
 592              		.loc 6 24 5 is_stmt 1 view .LVU131
  24:../../libdaisy/src/hid/led.h ****     ~Led() {}
 593              		.loc 6 24 5 is_stmt 0 view .LVU132
 594              	.LBE507:
 595              	.LBE504:
 596              	.LBE503:
 597              	.LBB508:
 598              	.LBI508:
  17:../../libdaisy/src/hid/rgb_led.h ****     ~RgbLed() {}
 599              		.loc 5 17 5 is_stmt 1 view .LVU133
 600              	.LBB509:
 601              	.LBB510:
 602              	.LBI510:
  24:../../libdaisy/src/hid/led.h ****     ~Led() {}
 603              		.loc 6 24 5 view .LVU134
  24:../../libdaisy/src/hid/led.h ****     ~Led() {}
 604              		.loc 6 24 5 is_stmt 0 view .LVU135
 605              	.LBE510:
 606              	.LBB511:
 607              	.LBI511:
  24:../../libdaisy/src/hid/led.h ****     ~Led() {}
 608              		.loc 6 24 5 is_stmt 1 view .LVU136
  24:../../libdaisy/src/hid/led.h ****     ~Led() {}
 609              		.loc 6 24 5 is_stmt 0 view .LVU137
 610              	.LBE511:
 611              	.LBB512:
 612              	.LBI512:
  24:../../libdaisy/src/hid/led.h ****     ~Led() {}
 613              		.loc 6 24 5 is_stmt 1 view .LVU138
  24:../../libdaisy/src/hid/led.h ****     ~Led() {}
 614              		.loc 6 24 5 is_stmt 0 view .LVU139
 615              	.LBE512:
 616              	.LBE509:
 617              	.LBE508:
 618              	.LBB513:
 619              	.LBI442:
  82:../../libdaisy/src/hid/midi.h ****     ~MidiHandler() {}
 620              		.loc 4 82 5 is_stmt 1 view .LVU140
 621              	.LBB489:
 622              	.LBB485:
 623              	.LBB477:
 624              	.LBI477:
 625              		.loc 15 87 5 view .LVU141
 626              	.LBB478:
 627              	.LBB479:
 628              		.loc 15 87 35 is_stmt 0 view .LVU142
 629 003c C0F87431 		str	r3, [r0, #372]
ARM GAS  /tmp/cc1M3G4N.s 			page 26


 630              	.LVL16:
 631              		.loc 15 87 35 view .LVU143
 632              	.LBE479:
 633              	.LBE478:
 634              	.LBE477:
 635              	.LBB480:
 636              	.LBI480:
 637              		.file 17 "../../libdaisy/src/util/ringbuffer.h"
   1:../../libdaisy/src/util/ringbuffer.h **** #pragma once
   2:../../libdaisy/src/util/ringbuffer.h **** #ifndef DSY_RINGBUFFER_H
   3:../../libdaisy/src/util/ringbuffer.h **** #define DSY_RINGBUFFER_H
   4:../../libdaisy/src/util/ringbuffer.h **** 
   5:../../libdaisy/src/util/ringbuffer.h **** #include <algorithm>
   6:../../libdaisy/src/util/ringbuffer.h **** 
   7:../../libdaisy/src/util/ringbuffer.h **** namespace daisy
   8:../../libdaisy/src/util/ringbuffer.h **** {
   9:../../libdaisy/src/util/ringbuffer.h **** /** @addtogroup utility
  10:../../libdaisy/src/util/ringbuffer.h ****     @{
  11:../../libdaisy/src/util/ringbuffer.h **** */
  12:../../libdaisy/src/util/ringbuffer.h **** 
  13:../../libdaisy/src/util/ringbuffer.h **** /**
  14:../../libdaisy/src/util/ringbuffer.h **** Utility Ring Buffer \n 
  15:../../libdaisy/src/util/ringbuffer.h **** imported from pichenettes/stmlib
  16:../../libdaisy/src/util/ringbuffer.h **** */
  17:../../libdaisy/src/util/ringbuffer.h **** template <typename T, size_t size>
  18:../../libdaisy/src/util/ringbuffer.h **** class RingBuffer
  19:../../libdaisy/src/util/ringbuffer.h **** {
  20:../../libdaisy/src/util/ringbuffer.h ****   public:
  21:../../libdaisy/src/util/ringbuffer.h ****     RingBuffer() {}
 638              		.loc 17 21 5 is_stmt 1 view .LVU144
 639              		.loc 17 21 5 is_stmt 0 view .LVU145
 640              	.LBE480:
 641              	.LBB481:
 642              	.LBI445:
  84:../../libdaisy/src/hid/midi.h **** 
  85:../../libdaisy/src/hid/midi.h ****     struct Config
 643              		.loc 4 85 12 is_stmt 1 view .LVU146
 644              	.LBB463:
 645              	.LBI446:
  33:../../libdaisy/src/hid/midi.h ****         {
 646              		.loc 4 33 9 view .LVU147
 647              	.LBB458:
 648              	.LBB453:
  35:../../libdaisy/src/hid/midi.h ****             rx     = {DSY_GPIOB, 7};
 649              		.loc 4 35 13 view .LVU148
  36:../../libdaisy/src/hid/midi.h ****             tx     = {DSY_GPIOB, 6};
 650              		.loc 4 36 13 view .LVU149
  37:../../libdaisy/src/hid/midi.h ****         }
 651              		.loc 4 37 13 view .LVU150
  37:../../libdaisy/src/hid/midi.h ****         }
 652              		.loc 4 37 13 is_stmt 0 view .LVU151
 653              	.LBE453:
 654              	.LBE458:
 655              	.LBE463:
 656              	.LBE481:
 657              	.LBB482:
 658              	.LBI466:
ARM GAS  /tmp/cc1M3G4N.s 			page 27


  24:../../libdaisy/src/hid/midi.h ****     ~MidiUartTransport() {}
 659              		.loc 4 24 5 is_stmt 1 view .LVU152
 660              	.LBB473:
 661              	.LBI467:
 662              		.loc 15 87 5 view .LVU153
 663              		.loc 15 87 5 is_stmt 0 view .LVU154
 664              	.LBE473:
 665              	.LBE482:
  82:../../libdaisy/src/hid/midi.h ****     ~MidiHandler() {}
 666              		.loc 4 82 19 view .LVU155
 667 0040 49F22E23 		movw	r3, #37422
 668 0044 0551     		str	r5, [r0, r4]
 669              	.LBE485:
 670              	.LBE489:
 671              	.LBE513:
 672              	.LBE515:
 673              	.LBE517:
   6:SimpleLed.cpp **** 
 674              		.loc 14 6 11 view .LVU156
 675 0046 0C4C     		ldr	r4, .L11+16
 676              	.LBB518:
 677              	.LBB516:
 678              	.LBB514:
 679              	.LBB490:
 680              	.LBB486:
  82:../../libdaisy/src/hid/midi.h ****     ~MidiHandler() {}
 681              		.loc 4 82 19 view .LVU157
 682 0048 C154     		strb	r1, [r0, r3]
 683              	.LVL17:
  82:../../libdaisy/src/hid/midi.h ****     ~MidiHandler() {}
 684              		.loc 4 82 19 view .LVU158
 685              	.LBE486:
 686              	.LBE490:
 687              	.LBE514:
 688              	.LBE516:
 689              	.LBE518:
   5:SimpleLed.cpp **** Parameter p_knob1, p_knob2;
 690              		.loc 14 5 11 view .LVU159
 691 004a 0C49     		ldr	r1, .L11+20
 692 004c FFF7FEFF 		bl	__aeabi_atexit
 693              	.LVL18:
 694              	.LBB519:
 695              	.LBI519:
  25:../../libdaisy/src/hid/parameter.h ****     /** Destructor */
 696              		.loc 1 25 5 is_stmt 1 view .LVU160
 697              	.LBB520:
 698              	.LBB521:
 699              	.LBI521:
  21:../../libdaisy/src/hid/ctrl.h ****     /** destructor */
 700              		.loc 2 21 5 view .LVU161
  21:../../libdaisy/src/hid/ctrl.h ****     /** destructor */
 701              		.loc 2 21 5 is_stmt 0 view .LVU162
 702              	.LBE521:
 703              	.LBE520:
 704              	.LBE519:
   6:SimpleLed.cpp **** 
 705              		.loc 14 6 11 view .LVU163
ARM GAS  /tmp/cc1M3G4N.s 			page 28


 706 0050 2146     		mov	r1, r4
 707 0052 074A     		ldr	r2, .L11+8
 708 0054 0A48     		ldr	r0, .L11+24
 709 0056 FFF7FEFF 		bl	__aeabi_atexit
 710              	.LVL19:
 711              	.LBB522:
 712              	.LBI522:
  25:../../libdaisy/src/hid/parameter.h ****     /** Destructor */
 713              		.loc 1 25 5 is_stmt 1 view .LVU164
 714              	.LBB523:
 715              	.LBB524:
 716              	.LBI524:
  21:../../libdaisy/src/hid/ctrl.h ****     /** destructor */
 717              		.loc 2 21 5 view .LVU165
  21:../../libdaisy/src/hid/ctrl.h ****     /** destructor */
 718              		.loc 2 21 5 is_stmt 0 view .LVU166
 719              	.LBE524:
 720              	.LBE523:
 721              	.LBE522:
   6:SimpleLed.cpp **** 
 722              		.loc 14 6 20 view .LVU167
 723 005a 2146     		mov	r1, r4
 724 005c 044A     		ldr	r2, .L11+8
 725 005e 0948     		ldr	r0, .L11+28
 726              	.LBE525:
 727              	.LBE527:
 728              		.loc 14 26 1 view .LVU168
 729 0060 BDE8F840 		pop	{r3, r4, r5, r6, r7, lr}
 730              		.cfi_restore 14
 731              		.cfi_restore 7
 732              		.cfi_restore 6
 733              		.cfi_restore 5
 734              		.cfi_restore 4
 735              		.cfi_restore 3
 736              		.cfi_def_cfa_offset 0
 737              	.LBB528:
 738              	.LBB526:
   6:SimpleLed.cpp **** 
 739              		.loc 14 6 20 view .LVU169
 740 0064 FFF7FEBF 		b	__aeabi_atexit
 741              	.LVL20:
 742              	.L12:
 743              		.align	2
 744              	.L11:
 745 0068 00000000 		.word	.LANCHOR2
 746 006c 00000000 		.word	hw
 747 0070 00000000 		.word	__dso_handle
 748 0074 80707FF0 		.word	-260083584
 749 0078 00000000 		.word	_ZN5daisy9ParameterD1Ev
 750 007c 00000000 		.word	_ZN5daisy8DaisyPodD1Ev
 751 0080 00000000 		.word	.LANCHOR0
 752 0084 00000000 		.word	.LANCHOR1
 753              	.LBE526:
 754              	.LBE528:
 755              		.cfi_endproc
 756              	.LFE2077:
 758              		.section	.init_array,"aw",%init_array
ARM GAS  /tmp/cc1M3G4N.s 			page 29


 759              		.align	2
 760 0000 00000000 		.word	_GLOBAL__sub_I_hw(target1)
 761              		.global	p_knob2
 762              		.global	p_knob1
 763              		.global	hw
 764              		.section	.rodata
 765              		.align	2
 766              		.set	.LANCHOR2,. + 0
 767              	.LC0:
 768 0000 01       		.byte	1
 769 0001 07       		.byte	7
 770 0002 0000     		.space	2
 771              	.LC1:
 772 0004 01       		.byte	1
 773 0005 06       		.byte	6
 774              		.section	.bss.hw,"aw",%nobits
 775              		.align	2
 778              	hw:
 779 0000 00000000 		.space	37424
 779      00000000 
 779      00000000 
 779      00000000 
 779      00000000 
 780              		.section	.bss.p_knob1,"aw",%nobits
 781              		.align	2
 782              		.set	.LANCHOR0,. + 0
 785              	p_knob1:
 786 0000 00000000 		.space	56
 786      00000000 
 786      00000000 
 786      00000000 
 786      00000000 
 787              		.section	.bss.p_knob2,"aw",%nobits
 788              		.align	2
 789              		.set	.LANCHOR1,. + 0
 792              	p_knob2:
 793 0000 00000000 		.space	56
 793      00000000 
 793      00000000 
 793      00000000 
 793      00000000 
 794              		.text
 795              	.Letext0:
 796              		.file 18 "/usr/lib/gcc/arm-none-eabi/9.2.1/include/stdint.h"
 797              		.file 19 "../../libdaisy/Drivers/CMSIS/Include/core_cm7.h"
 798              		.file 20 "../../libdaisy/Drivers/CMSIS/Device/ST/STM32H7xx/Include/system_stm32h7xx.h"
 799              		.file 21 "/usr/lib/gcc/arm-none-eabi/9.2.1/include/stddef.h"
 800              		.file 22 "/usr/include/newlib/c++/9.2.1/cmath"
 801              		.file 23 "/usr/include/newlib/c++/9.2.1/bits/std_abs.h"
 802              		.file 24 "/usr/include/newlib/c++/9.2.1/cstdlib"
 803              		.file 25 "/usr/include/newlib/c++/9.2.1/cstdint"
 804              		.file 26 "/usr/include/newlib/c++/9.2.1/type_traits"
 805              		.file 27 "/usr/include/newlib/c++/9.2.1/bits/stl_pair.h"
 806              		.file 28 "/usr/include/newlib/c++/9.2.1/debug/debug.h"
 807              		.file 29 "/usr/include/newlib/c++/9.2.1/arm-none-eabi/thumb/v7e-m+dp/hard/bits/c++config.h"
 808              		.file 30 "/usr/include/newlib/c++/9.2.1/bits/algorithmfwd.h"
 809              		.file 31 "/usr/include/newlib/c++/9.2.1/bits/exception_ptr.h"
ARM GAS  /tmp/cc1M3G4N.s 			page 30


 810              		.file 32 "/usr/include/newlib/c++/9.2.1/new"
 811              		.file 33 "/usr/include/newlib/c++/9.2.1/cstdarg"
 812              		.file 34 "/usr/include/newlib/c++/9.2.1/cstdio"
 813              		.file 35 "/usr/include/newlib/c++/9.2.1/bits/predefined_ops.h"
 814              		.file 36 "/usr/include/newlib/c++/9.2.1/ext/numeric_traits.h"
 815              		.file 37 "/usr/include/newlib/sys/_types.h"
 816              		.file 38 "<built-in>"
 817              		.file 39 "/usr/include/newlib/sys/reent.h"
 818              		.file 40 "/usr/include/newlib/sys/lock.h"
 819              		.file 41 "/usr/include/newlib/math.h"
 820              		.file 42 "/usr/include/newlib/stdlib.h"
 821              		.file 43 "/usr/include/newlib/c++/9.2.1/math.h"
 822              		.file 44 "../../libdaisy/Drivers/STM32H7xx_HAL_Driver/Inc/stm32h7xx_hal_def.h"
 823              		.file 45 "../../libdaisy/Drivers/STM32H7xx_HAL_Driver/Inc/stm32h7xx_hal_flash.h"
 824              		.file 46 "/usr/include/newlib/c++/9.2.1/stdlib.h"
 825              		.file 47 "../../libdaisy/src/daisy_core.h"
 826              		.file 48 "../../libdaisy/src/per/tim.h"
 827              		.file 49 "../../libdaisy/src/per/sai.h"
 828              		.file 50 "../../libdaisy/src/hid/MidiEvent.h"
 829              		.file 51 "../../libdaisy/src/util/wav_format.h"
 830              		.file 52 "../../libdaisy/src/util/color.h"
 831              		.file 53 "../../libdaisy/src/per/qspi.h"
 832              		.file 54 "../../libdaisy/src/per/gpio.h"
 833              		.file 55 "../../libdaisy/src/dev/sdram.h"
 834              		.file 56 "/usr/lib/gcc/arm-none-eabi/9.2.1/include/stdarg.h"
 835              		.file 57 "/usr/include/newlib/stdio.h"
 836              		.file 58 "/usr/include/newlib/sys/unistd.h"
 837              		.file 59 "../../libdaisy/src/util/oled_fonts.h"
 838              		.file 60 "../../libdaisy/Middlewares/Third_Party/FatFs/src/integer.h"
 839              		.file 61 "../../libdaisy/Middlewares/Third_Party/FatFs/src/ff.h"
 840              		.file 62 "../../libdaisy/Middlewares/Third_Party/FatFs/src/diskio.h"
 841              		.file 63 "../../libdaisy/Middlewares/Third_Party/FatFs/src/ff_gen_drv.h"
 842              		.file 64 "../../libdaisy/src/util/sd_diskio.h"
 843              		.file 65 "../../libdaisy/src/sys/fatfs.h"
 844              		.file 66 "../../libdaisy/src/dev/sr_595.h"
ARM GAS  /tmp/cc1M3G4N.s 			page 31

