ARM GAS  /tmp/ccaqGoGC.s 			page 1


   1              		.cpu cortex-m7
   2              		.eabi_attribute 28, 1
   3              		.eabi_attribute 20, 1
   4              		.eabi_attribute 21, 1
   5              		.eabi_attribute 23, 3
   6              		.eabi_attribute 24, 1
   7              		.eabi_attribute 25, 1
   8              		.eabi_attribute 26, 1
   9              		.eabi_attribute 30, 2
  10              		.eabi_attribute 34, 1
  11              		.eabi_attribute 18, 4
  12              		.file	"string.cpp"
  13              		.text
  14              	.Ltext0:
  15              		.cfi_sections	.debug_frame
  16              		.section	.text._ZN7daisysp10OscillatorD2Ev,"axG",%progbits,_ZN7daisysp10OscillatorD5Ev,comdat
  17              		.align	1
  18              		.p2align 2,,3
  19              		.weak	_ZN7daisysp10OscillatorD2Ev
  20              		.arch armv7e-m
  21              		.syntax unified
  22              		.thumb
  23              		.thumb_func
  24              		.fpu fpv5-d16
  26              	_ZN7daisysp10OscillatorD2Ev:
  27              	.LVL0:
  28              	.LFB2797:
  29              		.file 1 "../../DaisySP/Source/Synthesis/oscillator.h"
   1:../../DaisySP/Source/Synthesis/oscillator.h **** #pragma once
   2:../../DaisySP/Source/Synthesis/oscillator.h **** #ifndef DSY_OSCILLATOR_H
   3:../../DaisySP/Source/Synthesis/oscillator.h **** #define DSY_OSCILLATOR_H
   4:../../DaisySP/Source/Synthesis/oscillator.h **** #include <stdint.h>
   5:../../DaisySP/Source/Synthesis/oscillator.h **** #include "Utility/dsp.h"
   6:../../DaisySP/Source/Synthesis/oscillator.h **** #ifdef __cplusplus
   7:../../DaisySP/Source/Synthesis/oscillator.h **** 
   8:../../DaisySP/Source/Synthesis/oscillator.h **** namespace daisysp
   9:../../DaisySP/Source/Synthesis/oscillator.h **** {
  10:../../DaisySP/Source/Synthesis/oscillator.h **** /** Synthesis of several waveforms, including polyBLEP bandlimited waveforms.
  11:../../DaisySP/Source/Synthesis/oscillator.h **** */
  12:../../DaisySP/Source/Synthesis/oscillator.h **** class Oscillator
  13:../../DaisySP/Source/Synthesis/oscillator.h **** {
  14:../../DaisySP/Source/Synthesis/oscillator.h ****   public:
  15:../../DaisySP/Source/Synthesis/oscillator.h ****     Oscillator() {}
  16:../../DaisySP/Source/Synthesis/oscillator.h ****     ~Oscillator() {}
  30              		.loc 1 16 5 view -0
  31              		.cfi_startproc
  32              		@ args = 0, pretend = 0, frame = 0
  33              		@ frame_needed = 0, uses_anonymous_args = 0
  34              		@ link register save eliminated.
  35              		.loc 1 16 20 is_stmt 0 view .LVU1
  36 0000 7047     		bx	lr
  37              		.cfi_endproc
  38              	.LFE2797:
  40              		.weak	_ZN7daisysp10OscillatorD1Ev
  41              		.thumb_set _ZN7daisysp10OscillatorD1Ev,_ZN7daisysp10OscillatorD2Ev
  42 0002 00BF     		.section	.text._ZN7daisysp6StringD2Ev,"axG",%progbits,_ZN7daisysp6StringD5Ev,comdat
  43              		.align	1
ARM GAS  /tmp/ccaqGoGC.s 			page 2


  44              		.p2align 2,,3
  45              		.weak	_ZN7daisysp6StringD2Ev
  46              		.syntax unified
  47              		.thumb
  48              		.thumb_func
  49              		.fpu fpv5-d16
  51              	_ZN7daisysp6StringD2Ev:
  52              	.LVL1:
  53              	.LFB3245:
  54              		.file 2 "../../DaisySP/Source/PhysicalModeling/KarplusString.h"
   1:../../DaisySP/Source/PhysicalModeling/KarplusString.h **** #pragma once
   2:../../DaisySP/Source/PhysicalModeling/KarplusString.h **** #ifndef DSY_STRING_H
   3:../../DaisySP/Source/PhysicalModeling/KarplusString.h **** #define DSY_STRING_H
   4:../../DaisySP/Source/PhysicalModeling/KarplusString.h **** 
   5:../../DaisySP/Source/PhysicalModeling/KarplusString.h **** #include <stdint.h>
   6:../../DaisySP/Source/PhysicalModeling/KarplusString.h **** 
   7:../../DaisySP/Source/PhysicalModeling/KarplusString.h **** #include "Dynamics/crossfade.h"
   8:../../DaisySP/Source/PhysicalModeling/KarplusString.h **** #include "Utility/dcblock.h"
   9:../../DaisySP/Source/PhysicalModeling/KarplusString.h **** #include "Utility/delayline.h"
  10:../../DaisySP/Source/PhysicalModeling/KarplusString.h **** #include "Filters/svf.h"
  11:../../DaisySP/Source/PhysicalModeling/KarplusString.h **** #include "Filters/tone.h"
  12:../../DaisySP/Source/PhysicalModeling/KarplusString.h **** 
  13:../../DaisySP/Source/PhysicalModeling/KarplusString.h **** #ifdef __cplusplus
  14:../../DaisySP/Source/PhysicalModeling/KarplusString.h **** 
  15:../../DaisySP/Source/PhysicalModeling/KarplusString.h **** /** @file KarplusString.h */
  16:../../DaisySP/Source/PhysicalModeling/KarplusString.h **** 
  17:../../DaisySP/Source/PhysicalModeling/KarplusString.h **** namespace daisysp
  18:../../DaisySP/Source/PhysicalModeling/KarplusString.h **** {
  19:../../DaisySP/Source/PhysicalModeling/KarplusString.h **** /**  
  20:../../DaisySP/Source/PhysicalModeling/KarplusString.h ****        @brief Comb filter / KS string.
  21:../../DaisySP/Source/PhysicalModeling/KarplusString.h ****        @author Ben Sergentanis
  22:../../DaisySP/Source/PhysicalModeling/KarplusString.h ****        @date Jan 2021 
  23:../../DaisySP/Source/PhysicalModeling/KarplusString.h ****        "Lite" version of the implementation used in Rings \n \n 
  24:../../DaisySP/Source/PhysicalModeling/KarplusString.h ****        Ported from pichenettes/eurorack/plaits/dsp/oscillator/formant_oscillator.h \n
  25:../../DaisySP/Source/PhysicalModeling/KarplusString.h ****        to an independent module. \n
  26:../../DaisySP/Source/PhysicalModeling/KarplusString.h ****        Original code written by Emilie Gillet in 2016. \n
  27:../../DaisySP/Source/PhysicalModeling/KarplusString.h **** */
  28:../../DaisySP/Source/PhysicalModeling/KarplusString.h **** class String
  29:../../DaisySP/Source/PhysicalModeling/KarplusString.h **** {
  30:../../DaisySP/Source/PhysicalModeling/KarplusString.h ****   public:
  31:../../DaisySP/Source/PhysicalModeling/KarplusString.h ****     String() {}
  32:../../DaisySP/Source/PhysicalModeling/KarplusString.h ****     ~String() {}
  55              		.loc 2 32 5 is_stmt 1 view -0
  56              		.cfi_startproc
  57              		@ args = 0, pretend = 0, frame = 0
  58              		@ frame_needed = 0, uses_anonymous_args = 0
  59              		@ link register save eliminated.
  60              	.LBB124:
  61              	.LBI124:
  62              		.file 3 "../../DaisySP/Source/Dynamics/crossfade.h"
   1:../../DaisySP/Source/Dynamics/crossfade.h **** #pragma once
   2:../../DaisySP/Source/Dynamics/crossfade.h **** #ifndef DSY_CROSSFADE_H
   3:../../DaisySP/Source/Dynamics/crossfade.h **** #define DSY_CROSSFADE_H
   4:../../DaisySP/Source/Dynamics/crossfade.h **** #include <stdint.h>
   5:../../DaisySP/Source/Dynamics/crossfade.h **** #ifdef __cplusplus
   6:../../DaisySP/Source/Dynamics/crossfade.h **** 
   7:../../DaisySP/Source/Dynamics/crossfade.h **** namespace daisysp
ARM GAS  /tmp/ccaqGoGC.s 			page 3


   8:../../DaisySP/Source/Dynamics/crossfade.h **** {
   9:../../DaisySP/Source/Dynamics/crossfade.h **** /** Curve applied to the CrossFade
  10:../../DaisySP/Source/Dynamics/crossfade.h **** - LIN = linear
  11:../../DaisySP/Source/Dynamics/crossfade.h **** - CPOW = constant power
  12:../../DaisySP/Source/Dynamics/crossfade.h **** - LOG = logarithmic
  13:../../DaisySP/Source/Dynamics/crossfade.h **** - EXP  exponential
  14:../../DaisySP/Source/Dynamics/crossfade.h **** - LAST = end of enum (used for array indexing)
  15:../../DaisySP/Source/Dynamics/crossfade.h **** */
  16:../../DaisySP/Source/Dynamics/crossfade.h **** enum
  17:../../DaisySP/Source/Dynamics/crossfade.h **** {
  18:../../DaisySP/Source/Dynamics/crossfade.h ****     CROSSFADE_LIN,
  19:../../DaisySP/Source/Dynamics/crossfade.h ****     CROSSFADE_CPOW,
  20:../../DaisySP/Source/Dynamics/crossfade.h ****     CROSSFADE_LOG,
  21:../../DaisySP/Source/Dynamics/crossfade.h ****     CROSSFADE_EXP,
  22:../../DaisySP/Source/Dynamics/crossfade.h ****     CROSSFADE_LAST,
  23:../../DaisySP/Source/Dynamics/crossfade.h **** };
  24:../../DaisySP/Source/Dynamics/crossfade.h **** 
  25:../../DaisySP/Source/Dynamics/crossfade.h **** /** Performs a CrossFade between two signals
  26:../../DaisySP/Source/Dynamics/crossfade.h **** 
  27:../../DaisySP/Source/Dynamics/crossfade.h ****     Original author: Paul Batchelor
  28:../../DaisySP/Source/Dynamics/crossfade.h **** 
  29:../../DaisySP/Source/Dynamics/crossfade.h ****     Ported from Soundpipe by Andrew Ikenberry
  30:../../DaisySP/Source/Dynamics/crossfade.h **** 
  31:../../DaisySP/Source/Dynamics/crossfade.h ****     added curve option for constant power, etc.
  32:../../DaisySP/Source/Dynamics/crossfade.h **** */
  33:../../DaisySP/Source/Dynamics/crossfade.h **** class CrossFade
  34:../../DaisySP/Source/Dynamics/crossfade.h **** {
  35:../../DaisySP/Source/Dynamics/crossfade.h ****   public:
  36:../../DaisySP/Source/Dynamics/crossfade.h ****     CrossFade() {}
  37:../../DaisySP/Source/Dynamics/crossfade.h ****     ~CrossFade() {}
  63              		.loc 3 37 5 view .LVU3
  64              		.loc 3 37 5 is_stmt 0 view .LVU4
  65              	.LBE124:
  66              	.LBB125:
  67              	.LBI125:
  68              		.file 4 "../../DaisySP/Source/Utility/dcblock.h"
   1:../../DaisySP/Source/Utility/dcblock.h **** 
   2:../../DaisySP/Source/Utility/dcblock.h **** #pragma once
   3:../../DaisySP/Source/Utility/dcblock.h **** #ifndef DSY_DCBLOCK_H
   4:../../DaisySP/Source/Utility/dcblock.h **** #define DSY_DCBLOCK_H
   5:../../DaisySP/Source/Utility/dcblock.h **** #ifdef __cplusplus
   6:../../DaisySP/Source/Utility/dcblock.h **** 
   7:../../DaisySP/Source/Utility/dcblock.h **** namespace daisysp
   8:../../DaisySP/Source/Utility/dcblock.h **** {
   9:../../DaisySP/Source/Utility/dcblock.h **** /** Removes DC component of a signal
  10:../../DaisySP/Source/Utility/dcblock.h ****     */
  11:../../DaisySP/Source/Utility/dcblock.h **** class DcBlock
  12:../../DaisySP/Source/Utility/dcblock.h **** {
  13:../../DaisySP/Source/Utility/dcblock.h ****   public:
  14:../../DaisySP/Source/Utility/dcblock.h ****     DcBlock(){};
  15:../../DaisySP/Source/Utility/dcblock.h ****     ~DcBlock(){};
  69              		.loc 4 15 5 is_stmt 1 view .LVU5
  70              		.loc 4 15 5 is_stmt 0 view .LVU6
  71              	.LBE125:
  72              	.LBB126:
  73              	.LBI126:
  74              		.file 5 "../../DaisySP/Source/Filters/tone.h"
ARM GAS  /tmp/ccaqGoGC.s 			page 4


   1:../../DaisySP/Source/Filters/tone.h **** #pragma once
   2:../../DaisySP/Source/Filters/tone.h **** #ifndef DSY_TONE_H
   3:../../DaisySP/Source/Filters/tone.h **** #define DSY_TONE_H
   4:../../DaisySP/Source/Filters/tone.h **** 
   5:../../DaisySP/Source/Filters/tone.h **** #include <stdint.h>
   6:../../DaisySP/Source/Filters/tone.h **** #ifdef __cplusplus
   7:../../DaisySP/Source/Filters/tone.h **** 
   8:../../DaisySP/Source/Filters/tone.h **** namespace daisysp
   9:../../DaisySP/Source/Filters/tone.h **** {
  10:../../DaisySP/Source/Filters/tone.h **** /** A first-order recursive low-pass filter with variable frequency response.
  11:../../DaisySP/Source/Filters/tone.h **** */
  12:../../DaisySP/Source/Filters/tone.h **** class Tone
  13:../../DaisySP/Source/Filters/tone.h **** {
  14:../../DaisySP/Source/Filters/tone.h ****   public:
  15:../../DaisySP/Source/Filters/tone.h ****     Tone() {}
  16:../../DaisySP/Source/Filters/tone.h ****     ~Tone() {}
  75              		.loc 5 16 5 is_stmt 1 view .LVU7
  76              		.loc 5 16 5 is_stmt 0 view .LVU8
  77              	.LBE126:
  78              	.LBB127:
  79              	.LBI127:
  80              		.file 6 "../../DaisySP/Source/Utility/delayline.h"
   1:../../DaisySP/Source/Utility/delayline.h **** #pragma once
   2:../../DaisySP/Source/Utility/delayline.h **** #ifndef DSY_DELAY_H
   3:../../DaisySP/Source/Utility/delayline.h **** #define DSY_DELAY_H
   4:../../DaisySP/Source/Utility/delayline.h **** #include <stdlib.h>
   5:../../DaisySP/Source/Utility/delayline.h **** #include <stdint.h>
   6:../../DaisySP/Source/Utility/delayline.h **** namespace daisysp
   7:../../DaisySP/Source/Utility/delayline.h **** {
   8:../../DaisySP/Source/Utility/delayline.h **** /** Simple Delay line.
   9:../../DaisySP/Source/Utility/delayline.h **** November 2019
  10:../../DaisySP/Source/Utility/delayline.h **** 
  11:../../DaisySP/Source/Utility/delayline.h **** Converted to Template December 2019
  12:../../DaisySP/Source/Utility/delayline.h **** 
  13:../../DaisySP/Source/Utility/delayline.h **** declaration example: (1 second of floats)
  14:../../DaisySP/Source/Utility/delayline.h **** 
  15:../../DaisySP/Source/Utility/delayline.h **** DelayLine<float, SAMPLE_RATE> del;
  16:../../DaisySP/Source/Utility/delayline.h **** 
  17:../../DaisySP/Source/Utility/delayline.h **** By: shensley
  18:../../DaisySP/Source/Utility/delayline.h **** */
  19:../../DaisySP/Source/Utility/delayline.h **** template <typename T, size_t max_size>
  20:../../DaisySP/Source/Utility/delayline.h **** class DelayLine
  21:../../DaisySP/Source/Utility/delayline.h **** {
  22:../../DaisySP/Source/Utility/delayline.h ****   public:
  23:../../DaisySP/Source/Utility/delayline.h ****     DelayLine() {}
  24:../../DaisySP/Source/Utility/delayline.h ****     ~DelayLine() {}
  81              		.loc 6 24 5 is_stmt 1 view .LVU9
  82              		.loc 6 24 5 is_stmt 0 view .LVU10
  83              	.LBE127:
  84              	.LBB128:
  85              	.LBI128:
  86              		.loc 6 24 5 is_stmt 1 view .LVU11
  87              		.loc 6 24 5 is_stmt 0 view .LVU12
  88              	.LBE128:
  89              		.loc 2 32 16 view .LVU13
  90 0000 7047     		bx	lr
  91              		.cfi_endproc
ARM GAS  /tmp/ccaqGoGC.s 			page 5


  92              	.LFE3245:
  94              		.weak	_ZN7daisysp6StringD1Ev
  95              		.thumb_set _ZN7daisysp6StringD1Ev,_ZN7daisysp6StringD2Ev
  96 0002 00BF     		.section	.text._ZN7daisysp5MetroD2Ev,"axG",%progbits,_ZN7daisysp5MetroD5Ev,comdat
  97              		.align	1
  98              		.p2align 2,,3
  99              		.weak	_ZN7daisysp5MetroD2Ev
 100              		.syntax unified
 101              		.thumb
 102              		.thumb_func
 103              		.fpu fpv5-d16
 105              	_ZN7daisysp5MetroD2Ev:
 106              	.LVL2:
 107              	.LFB3332:
 108              		.file 7 "../../DaisySP/Source/Utility/metro.h"
   1:../../DaisySP/Source/Utility/metro.h **** #pragma once
   2:../../DaisySP/Source/Utility/metro.h **** #ifndef DSY_METRO_H
   3:../../DaisySP/Source/Utility/metro.h **** #define DSY_METRO_H
   4:../../DaisySP/Source/Utility/metro.h **** #include <stdint.h>
   5:../../DaisySP/Source/Utility/metro.h **** #ifdef __cplusplus
   6:../../DaisySP/Source/Utility/metro.h **** 
   7:../../DaisySP/Source/Utility/metro.h **** namespace daisysp
   8:../../DaisySP/Source/Utility/metro.h **** {
   9:../../DaisySP/Source/Utility/metro.h **** /** Creates a clock signal at a specific frequency.
  10:../../DaisySP/Source/Utility/metro.h **** */
  11:../../DaisySP/Source/Utility/metro.h **** class Metro
  12:../../DaisySP/Source/Utility/metro.h **** {
  13:../../DaisySP/Source/Utility/metro.h ****   public:
  14:../../DaisySP/Source/Utility/metro.h ****     Metro() {}
  15:../../DaisySP/Source/Utility/metro.h ****     ~Metro() {}
 109              		.loc 7 15 5 is_stmt 1 view -0
 110              		.cfi_startproc
 111              		@ args = 0, pretend = 0, frame = 0
 112              		@ frame_needed = 0, uses_anonymous_args = 0
 113              		@ link register save eliminated.
 114              		.loc 7 15 15 is_stmt 0 view .LVU15
 115 0000 7047     		bx	lr
 116              		.cfi_endproc
 117              	.LFE3332:
 119              		.weak	_ZN7daisysp5MetroD1Ev
 120              		.thumb_set _ZN7daisysp5MetroD1Ev,_ZN7daisysp5MetroD2Ev
 121 0002 00BF     		.section	.text._ZN5daisy9DaisySeedD2Ev,"axG",%progbits,_ZN5daisy9DaisySeedD5Ev,comdat
 122              		.align	1
 123              		.p2align 2,,3
 124              		.weak	_ZN5daisy9DaisySeedD2Ev
 125              		.syntax unified
 126              		.thumb
 127              		.thumb_func
 128              		.fpu fpv5-d16
 130              	_ZN5daisy9DaisySeedD2Ev:
 131              	.LVL3:
 132              	.LFB4207:
 133              		.file 8 "../../libdaisy/src/daisy_seed.h"
   1:../../libdaisy/src/daisy_seed.h **** #pragma once
   2:../../libdaisy/src/daisy_seed.h **** #ifndef DSY_SEED_H
   3:../../libdaisy/src/daisy_seed.h **** #define DSY_SEED_H
   4:../../libdaisy/src/daisy_seed.h **** 
ARM GAS  /tmp/ccaqGoGC.s 			page 6


   5:../../libdaisy/src/daisy_seed.h **** #include "daisy.h"
   6:../../libdaisy/src/daisy_seed.h **** 
   7:../../libdaisy/src/daisy_seed.h **** //Uncomment this out if you're still using the rev2 hardware
   8:../../libdaisy/src/daisy_seed.h **** //#define SEED_REV2
   9:../../libdaisy/src/daisy_seed.h **** 
  10:../../libdaisy/src/daisy_seed.h **** namespace daisy
  11:../../libdaisy/src/daisy_seed.h **** {
  12:../../libdaisy/src/daisy_seed.h **** /**
  13:../../libdaisy/src/daisy_seed.h ****    @brief This is the higher-level interface for the Daisy board. \n 
  14:../../libdaisy/src/daisy_seed.h ****     All basic peripheral configuration/initialization is setup here. \n
  15:../../libdaisy/src/daisy_seed.h **** 
  16:../../libdaisy/src/daisy_seed.h ****    @ingroup boards
  17:../../libdaisy/src/daisy_seed.h **** */
  18:../../libdaisy/src/daisy_seed.h **** class DaisySeed
  19:../../libdaisy/src/daisy_seed.h **** {
  20:../../libdaisy/src/daisy_seed.h ****   public:
  21:../../libdaisy/src/daisy_seed.h ****     DaisySeed() {}
  22:../../libdaisy/src/daisy_seed.h ****     ~DaisySeed() {}
 134              		.loc 8 22 5 is_stmt 1 view -0
 135              		.cfi_startproc
 136              		@ args = 0, pretend = 0, frame = 0
 137              		@ frame_needed = 0, uses_anonymous_args = 0
 138              		@ link register save eliminated.
 139              	.LBB129:
 140              	.LBI129:
 141              		.file 9 "../../libdaisy/src/sys/system.h"
   1:../../libdaisy/src/sys/system.h **** #ifndef DSY_SYSTEM_H
   2:../../libdaisy/src/sys/system.h **** #define DSY_SYSTEM_H
   3:../../libdaisy/src/sys/system.h **** 
   4:../../libdaisy/src/sys/system.h **** #ifndef UNIT_TEST // for unit tests, a dummy implementation is provided below
   5:../../libdaisy/src/sys/system.h **** 
   6:../../libdaisy/src/sys/system.h **** #include <cstdint>
   7:../../libdaisy/src/sys/system.h **** #include "per/tim.h"
   8:../../libdaisy/src/sys/system.h **** 
   9:../../libdaisy/src/sys/system.h **** namespace daisy
  10:../../libdaisy/src/sys/system.h **** {
  11:../../libdaisy/src/sys/system.h **** /** A handle for interacting with the Core System. 
  12:../../libdaisy/src/sys/system.h ****  ** This includes the Clock tree, MPU, global DMA initialization,
  13:../../libdaisy/src/sys/system.h ****  ** cache handling, and any other necessary global initiailzation
  14:../../libdaisy/src/sys/system.h ****  **
  15:../../libdaisy/src/sys/system.h ****  ** @author shensley
  16:../../libdaisy/src/sys/system.h ****  ** @addtogroup system
  17:../../libdaisy/src/sys/system.h ****  */
  18:../../libdaisy/src/sys/system.h **** class System
  19:../../libdaisy/src/sys/system.h **** {
  20:../../libdaisy/src/sys/system.h ****   public:
  21:../../libdaisy/src/sys/system.h ****     /** Contains settings for initializing the System */
  22:../../libdaisy/src/sys/system.h ****     struct Config
  23:../../libdaisy/src/sys/system.h ****     {
  24:../../libdaisy/src/sys/system.h ****         /** Specifies the system clock frequency that feeds APB/AHB clocks, etc. */
  25:../../libdaisy/src/sys/system.h ****         enum class SysClkFreq
  26:../../libdaisy/src/sys/system.h ****         {
  27:../../libdaisy/src/sys/system.h ****             FREQ_400MHZ,
  28:../../libdaisy/src/sys/system.h ****             FREQ_480MHZ,
  29:../../libdaisy/src/sys/system.h ****         };
  30:../../libdaisy/src/sys/system.h **** 
  31:../../libdaisy/src/sys/system.h ****         /** Method to call on the struct to set to defaults
ARM GAS  /tmp/ccaqGoGC.s 			page 7


  32:../../libdaisy/src/sys/system.h ****          ** CPU Freq set to 400MHz
  33:../../libdaisy/src/sys/system.h ****          ** Cache Enabled 
  34:../../libdaisy/src/sys/system.h ****          ** */
  35:../../libdaisy/src/sys/system.h ****         void Defaults()
  36:../../libdaisy/src/sys/system.h ****         {
  37:../../libdaisy/src/sys/system.h ****             cpu_freq   = SysClkFreq::FREQ_400MHZ;
  38:../../libdaisy/src/sys/system.h ****             use_dcache = true;
  39:../../libdaisy/src/sys/system.h ****             use_icache = true;
  40:../../libdaisy/src/sys/system.h ****         }
  41:../../libdaisy/src/sys/system.h **** 
  42:../../libdaisy/src/sys/system.h ****         /** Method to call on the struct to set to boost mode:
  43:../../libdaisy/src/sys/system.h ****          ** CPU Freq set to 480MHz
  44:../../libdaisy/src/sys/system.h ****          ** Cache Enabled 
  45:../../libdaisy/src/sys/system.h ****          ** */
  46:../../libdaisy/src/sys/system.h ****         void Boost()
  47:../../libdaisy/src/sys/system.h ****         {
  48:../../libdaisy/src/sys/system.h ****             cpu_freq   = SysClkFreq::FREQ_480MHZ;
  49:../../libdaisy/src/sys/system.h ****             use_dcache = true;
  50:../../libdaisy/src/sys/system.h ****             use_icache = true;
  51:../../libdaisy/src/sys/system.h ****         }
  52:../../libdaisy/src/sys/system.h **** 
  53:../../libdaisy/src/sys/system.h ****         SysClkFreq cpu_freq;
  54:../../libdaisy/src/sys/system.h ****         bool       use_dcache;
  55:../../libdaisy/src/sys/system.h ****         bool       use_icache;
  56:../../libdaisy/src/sys/system.h ****     };
  57:../../libdaisy/src/sys/system.h **** 
  58:../../libdaisy/src/sys/system.h ****     System() {}
  59:../../libdaisy/src/sys/system.h ****     ~System() {}
 142              		.loc 9 59 5 view .LVU17
 143              		.loc 9 59 5 is_stmt 0 view .LVU18
 144              	.LBE129:
 145              	.LBB130:
 146              	.LBI130:
 147              		.file 10 "../../libdaisy/src/hid/usb.h"
   1:../../libdaisy/src/hid/usb.h **** #pragma once
   2:../../libdaisy/src/hid/usb.h **** #ifndef DSY_HID_USB_H
   3:../../libdaisy/src/hid/usb.h **** #define DSY_HID_USB_H
   4:../../libdaisy/src/hid/usb.h **** #include <stdint.h>
   5:../../libdaisy/src/hid/usb.h **** #include <stdlib.h>
   6:../../libdaisy/src/hid/usb.h **** 
   7:../../libdaisy/src/hid/usb.h **** namespace daisy
   8:../../libdaisy/src/hid/usb.h **** /** @addtogroup externals
   9:../../libdaisy/src/hid/usb.h ****     @{
  10:../../libdaisy/src/hid/usb.h **** */
  11:../../libdaisy/src/hid/usb.h **** 
  12:../../libdaisy/src/hid/usb.h **** {
  13:../../libdaisy/src/hid/usb.h **** /** 
  14:../../libdaisy/src/hid/usb.h ****     @brief Interface for initializing and using the USB Peripherals on the daisy
  15:../../libdaisy/src/hid/usb.h ****     @author Stephen Hensley
  16:../../libdaisy/src/hid/usb.h ****     @date December 2019
  17:../../libdaisy/src/hid/usb.h **** */
  18:../../libdaisy/src/hid/usb.h **** class UsbHandle
  19:../../libdaisy/src/hid/usb.h **** {
  20:../../libdaisy/src/hid/usb.h ****   public:
  21:../../libdaisy/src/hid/usb.h ****     /** Return values for USBHandle Functions */
  22:../../libdaisy/src/hid/usb.h ****     enum class Result
  23:../../libdaisy/src/hid/usb.h ****     {
ARM GAS  /tmp/ccaqGoGC.s 			page 8


  24:../../libdaisy/src/hid/usb.h ****         OK,
  25:../../libdaisy/src/hid/usb.h ****         ERR,
  26:../../libdaisy/src/hid/usb.h ****     };
  27:../../libdaisy/src/hid/usb.h **** 
  28:../../libdaisy/src/hid/usb.h ****     /** Specified which of the two USB Peripherals to initialize. */
  29:../../libdaisy/src/hid/usb.h ****     enum UsbPeriph
  30:../../libdaisy/src/hid/usb.h ****     {
  31:../../libdaisy/src/hid/usb.h ****         FS_INTERNAL, /**< Internal pin */
  32:../../libdaisy/src/hid/usb.h ****         FS_EXTERNAL, /**< FS External D+ pin is Pin 38 (GPIO32). FS External D- pin is Pin 37 (GPIO
  33:../../libdaisy/src/hid/usb.h ****         FS_BOTH,     /**< Both */
  34:../../libdaisy/src/hid/usb.h ****     };
  35:../../libdaisy/src/hid/usb.h **** 
  36:../../libdaisy/src/hid/usb.h **** 
  37:../../libdaisy/src/hid/usb.h ****     /** Function called upon reception of a buffer */
  38:../../libdaisy/src/hid/usb.h ****     typedef void (*ReceiveCallback)(uint8_t* buff, uint32_t* len);
  39:../../libdaisy/src/hid/usb.h **** 
  40:../../libdaisy/src/hid/usb.h ****     UsbHandle() {}
  41:../../libdaisy/src/hid/usb.h **** 
  42:../../libdaisy/src/hid/usb.h ****     ~UsbHandle() {}
 148              		.loc 10 42 5 is_stmt 1 view .LVU19
 149              		.loc 10 42 5 is_stmt 0 view .LVU20
 150              	.LBE130:
 151              	.LBB131:
 152              	.LBI131:
 153              		.file 11 "../../libdaisy/src/per/adc.h"
   1:../../libdaisy/src/per/adc.h **** #pragma once
   2:../../libdaisy/src/per/adc.h **** #ifndef DSY_ADC_H
   3:../../libdaisy/src/per/adc.h **** #define DSY_ADC_H /**< Macro */
   4:../../libdaisy/src/per/adc.h **** #include <stdint.h>
   5:../../libdaisy/src/per/adc.h **** #include <stdlib.h>
   6:../../libdaisy/src/per/adc.h **** #include "daisy_core.h"
   7:../../libdaisy/src/per/adc.h **** #include "per/gpio.h"
   8:../../libdaisy/src/per/adc.h **** 
   9:../../libdaisy/src/per/adc.h **** #define DSY_ADC_MAX_CHANNELS 14 /**< Maximum number of ADC channels */
  10:../../libdaisy/src/per/adc.h **** 
  11:../../libdaisy/src/per/adc.h **** namespace daisy
  12:../../libdaisy/src/per/adc.h **** {
  13:../../libdaisy/src/per/adc.h **** /** @addtogroup analog_digital_conversion
  14:../../libdaisy/src/per/adc.h ****     @{
  15:../../libdaisy/src/per/adc.h **** */
  16:../../libdaisy/src/per/adc.h **** 
  17:../../libdaisy/src/per/adc.h **** /* While there may not be many configuration options here,
  18:../../libdaisy/src/per/adc.h **** using a struct like this allows us to add more configuration
  19:../../libdaisy/src/per/adc.h **** later without breaking existing functionality.
  20:../../libdaisy/src/per/adc.h **** */
  21:../../libdaisy/src/per/adc.h **** 
  22:../../libdaisy/src/per/adc.h **** /** Configuration Structure for a given channel */
  23:../../libdaisy/src/per/adc.h **** struct AdcChannelConfig
  24:../../libdaisy/src/per/adc.h **** {
  25:../../libdaisy/src/per/adc.h ****     /** Which pin to use for multiplexing */
  26:../../libdaisy/src/per/adc.h ****     enum MuxPin
  27:../../libdaisy/src/per/adc.h ****     {
  28:../../libdaisy/src/per/adc.h ****         MUX_SEL_0,    /**< & */
  29:../../libdaisy/src/per/adc.h ****         MUX_SEL_1,    /**< & */
  30:../../libdaisy/src/per/adc.h ****         MUX_SEL_2,    /**< & */
  31:../../libdaisy/src/per/adc.h ****         MUX_SEL_LAST, /**< & */
  32:../../libdaisy/src/per/adc.h ****     };
ARM GAS  /tmp/ccaqGoGC.s 			page 9


  33:../../libdaisy/src/per/adc.h **** 
  34:../../libdaisy/src/per/adc.h ****     /** Initializes a single ADC pin as an ADC. 
  35:../../libdaisy/src/per/adc.h ****     \param pin Pin to init.
  36:../../libdaisy/src/per/adc.h ****      */
  37:../../libdaisy/src/per/adc.h ****     void InitSingle(dsy_gpio_pin pin);
  38:../../libdaisy/src/per/adc.h **** 
  39:../../libdaisy/src/per/adc.h ****     /** 
  40:../../libdaisy/src/per/adc.h ****     Initializes a single ADC pin as a Multiplexed ADC.
  41:../../libdaisy/src/per/adc.h ****     Requires a CD405X Multiplexer connected to the pin.
  42:../../libdaisy/src/per/adc.h ****     You only need to supply the mux pins that are required,
  43:../../libdaisy/src/per/adc.h ****     e.g. a 4052 mux would only require mux_0 and mux_1.
  44:../../libdaisy/src/per/adc.h ****     Internal Callbacks handle the pin addressing.
  45:../../libdaisy/src/per/adc.h ****     \param mux_channels must be 1-8
  46:../../libdaisy/src/per/adc.h ****     \param mux_0 First mux pin
  47:../../libdaisy/src/per/adc.h ****     \param mux_1 Second mux pin
  48:../../libdaisy/src/per/adc.h ****     \param mux_2 Third mux pin
  49:../../libdaisy/src/per/adc.h ****     \param adc_pin &
  50:../../libdaisy/src/per/adc.h ****     */
  51:../../libdaisy/src/per/adc.h ****     void InitMux(dsy_gpio_pin adc_pin,
  52:../../libdaisy/src/per/adc.h ****                  size_t       mux_channels,
  53:../../libdaisy/src/per/adc.h ****                  dsy_gpio_pin mux_0,
  54:../../libdaisy/src/per/adc.h ****                  dsy_gpio_pin mux_1 = {DSY_GPIOX, 0},
  55:../../libdaisy/src/per/adc.h ****                  dsy_gpio_pin mux_2 = {DSY_GPIOX, 0});
  56:../../libdaisy/src/per/adc.h **** 
  57:../../libdaisy/src/per/adc.h ****     dsy_gpio pin_;                   /**< & */
  58:../../libdaisy/src/per/adc.h ****     dsy_gpio mux_pin_[MUX_SEL_LAST]; /**< & */
  59:../../libdaisy/src/per/adc.h ****     uint8_t  mux_channels_;          /**< & */
  60:../../libdaisy/src/per/adc.h **** };
  61:../../libdaisy/src/per/adc.h **** 
  62:../../libdaisy/src/per/adc.h **** /**
  63:../../libdaisy/src/per/adc.h ****    Handler for analog to digital conversion
  64:../../libdaisy/src/per/adc.h **** */
  65:../../libdaisy/src/per/adc.h **** class AdcHandle
  66:../../libdaisy/src/per/adc.h **** {
  67:../../libdaisy/src/per/adc.h ****   public:
  68:../../libdaisy/src/per/adc.h ****     /** Supported oversampling amounts */
  69:../../libdaisy/src/per/adc.h ****     enum OverSampling
  70:../../libdaisy/src/per/adc.h ****     {
  71:../../libdaisy/src/per/adc.h ****         OVS_NONE, /**< & */
  72:../../libdaisy/src/per/adc.h ****         OVS_4,    /**< & */
  73:../../libdaisy/src/per/adc.h ****         OVS_8,    /**< & */
  74:../../libdaisy/src/per/adc.h ****         OVS_16,   /**< & */
  75:../../libdaisy/src/per/adc.h ****         OVS_32,   /**< & */
  76:../../libdaisy/src/per/adc.h ****         OVS_64,   /**< & */
  77:../../libdaisy/src/per/adc.h ****         OVS_128,  /**< & */
  78:../../libdaisy/src/per/adc.h ****         OVS_256,  /**< & */
  79:../../libdaisy/src/per/adc.h ****         OVS_512,  /**< & */
  80:../../libdaisy/src/per/adc.h ****         OVS_1024, /**< & */
  81:../../libdaisy/src/per/adc.h ****         OVS_LAST, /**< & */
  82:../../libdaisy/src/per/adc.h ****     };
  83:../../libdaisy/src/per/adc.h **** 
  84:../../libdaisy/src/per/adc.h ****     AdcHandle() {}
  85:../../libdaisy/src/per/adc.h ****     ~AdcHandle() {}
 154              		.loc 11 85 5 is_stmt 1 view .LVU21
 155              		.loc 11 85 5 is_stmt 0 view .LVU22
 156              	.LBE131:
 157              	.LBB132:
ARM GAS  /tmp/ccaqGoGC.s 			page 10


 158              	.LBI132:
 159              		.file 12 "../../libdaisy/src/hid/audio.h"
   1:../../libdaisy/src/hid/audio.h **** #ifndef DSY_AUDIO_H
   2:../../libdaisy/src/hid/audio.h **** #define DSY_AUDIO_H /**< & */
   3:../../libdaisy/src/hid/audio.h **** 
   4:../../libdaisy/src/hid/audio.h **** #include "per/sai.h"
   5:../../libdaisy/src/hid/audio.h **** 
   6:../../libdaisy/src/hid/audio.h **** namespace daisy
   7:../../libdaisy/src/hid/audio.h **** {
   8:../../libdaisy/src/hid/audio.h **** class AudioHandle
   9:../../libdaisy/src/hid/audio.h **** {
  10:../../libdaisy/src/hid/audio.h ****   public:
  11:../../libdaisy/src/hid/audio.h ****     /** Manually configurable details about the Audio Engine */
  12:../../libdaisy/src/hid/audio.h ****     /** TODO: Figure out how to get samplerate in here. */
  13:../../libdaisy/src/hid/audio.h ****     struct Config
  14:../../libdaisy/src/hid/audio.h ****     {
  15:../../libdaisy/src/hid/audio.h ****         size_t                        blocksize;
  16:../../libdaisy/src/hid/audio.h ****         SaiHandle::Config::SampleRate samplerate;
  17:../../libdaisy/src/hid/audio.h ****         float                         postgain;
  18:../../libdaisy/src/hid/audio.h ****     };
  19:../../libdaisy/src/hid/audio.h **** 
  20:../../libdaisy/src/hid/audio.h ****     enum class Result
  21:../../libdaisy/src/hid/audio.h ****     {
  22:../../libdaisy/src/hid/audio.h ****         OK,
  23:../../libdaisy/src/hid/audio.h ****         ERR,
  24:../../libdaisy/src/hid/audio.h ****     };
  25:../../libdaisy/src/hid/audio.h **** 
  26:../../libdaisy/src/hid/audio.h ****     /** Non-Interleaving input buffer
  27:../../libdaisy/src/hid/audio.h ****      * Buffer arranged by float[chn][sample] 
  28:../../libdaisy/src/hid/audio.h ****      * const so that the user can't modify the input
  29:../../libdaisy/src/hid/audio.h ****     */
  30:../../libdaisy/src/hid/audio.h ****     typedef const float* const* InputBuffer;
  31:../../libdaisy/src/hid/audio.h **** 
  32:../../libdaisy/src/hid/audio.h ****     /** Non-Interleaving output buffer
  33:../../libdaisy/src/hid/audio.h ****      * Arranged by float[chn][sample] 
  34:../../libdaisy/src/hid/audio.h ****     */
  35:../../libdaisy/src/hid/audio.h ****     typedef float** OutputBuffer;
  36:../../libdaisy/src/hid/audio.h **** 
  37:../../libdaisy/src/hid/audio.h ****     /** Type for a Non-Interleaving audio callback 
  38:../../libdaisy/src/hid/audio.h ****    * Non-Interleaving audio callbacks in daisy will be of this type
  39:../../libdaisy/src/hid/audio.h ****   */
  40:../../libdaisy/src/hid/audio.h ****     typedef void (*AudioCallback)(InputBuffer  in,
  41:../../libdaisy/src/hid/audio.h ****                                   OutputBuffer out,
  42:../../libdaisy/src/hid/audio.h ****                                   size_t       size);
  43:../../libdaisy/src/hid/audio.h **** 
  44:../../libdaisy/src/hid/audio.h ****     /** Interleaving Input buffer
  45:../../libdaisy/src/hid/audio.h ****      ** audio is prepared as { L0, R0, L1, R1, . . . LN, RN }]
  46:../../libdaisy/src/hid/audio.h ****      ** this is const, as the user shouldn't modify it
  47:../../libdaisy/src/hid/audio.h ****     */
  48:../../libdaisy/src/hid/audio.h ****     typedef const float* InterleavingInputBuffer;
  49:../../libdaisy/src/hid/audio.h **** 
  50:../../libdaisy/src/hid/audio.h ****     /** Interleaving Output buffer 
  51:../../libdaisy/src/hid/audio.h ****      ** audio is prepared as { L0, R0, L1, R1, . . . LN, RN }
  52:../../libdaisy/src/hid/audio.h ****     */
  53:../../libdaisy/src/hid/audio.h ****     typedef float* InterleavingOutputBuffer;
  54:../../libdaisy/src/hid/audio.h **** 
  55:../../libdaisy/src/hid/audio.h ****     /** Interleaving Audio Callback 
ARM GAS  /tmp/ccaqGoGC.s 			page 11


  56:../../libdaisy/src/hid/audio.h ****    * Interleaving audio callbacks in daisy must be of this type
  57:../../libdaisy/src/hid/audio.h ****   */
  58:../../libdaisy/src/hid/audio.h ****     typedef void (*InterleavingAudioCallback)(InterleavingInputBuffer  in,
  59:../../libdaisy/src/hid/audio.h ****                                               InterleavingOutputBuffer out,
  60:../../libdaisy/src/hid/audio.h ****                                               size_t                   size);
  61:../../libdaisy/src/hid/audio.h **** 
  62:../../libdaisy/src/hid/audio.h ****     AudioHandle() : pimpl_(nullptr) {}
  63:../../libdaisy/src/hid/audio.h ****     ~AudioHandle() {}
 160              		.loc 12 63 5 is_stmt 1 view .LVU23
 161              		.loc 12 63 5 is_stmt 0 view .LVU24
 162              	.LBE132:
 163              		.loc 8 22 19 view .LVU25
 164 0000 7047     		bx	lr
 165              		.cfi_endproc
 166              	.LFE4207:
 168              		.weak	_ZN5daisy9DaisySeedD1Ev
 169              		.thumb_set _ZN5daisy9DaisySeedD1Ev,_ZN5daisy9DaisySeedD2Ev
 170 0002 00BF     		.section	.text._ZL13AudioCallbackPKPKfPPfj,"ax",%progbits
 171              		.align	1
 172              		.p2align 2,,3
 173              		.syntax unified
 174              		.thumb
 175              		.thumb_func
 176              		.fpu fpv5-d16
 178              	_ZL13AudioCallbackPKPKfPPfj:
 179              	.LVL4:
 180              	.LFB4212:
 181              		.file 13 "string.cpp"
   1:string.cpp    **** #include "daisysp.h"
   2:string.cpp    **** #include "daisy_seed.h"
   3:string.cpp    **** #include <algorithm>
   4:string.cpp    **** 
   5:string.cpp    **** using namespace daisysp;
   6:string.cpp    **** using namespace daisy;
   7:string.cpp    **** 
   8:string.cpp    **** static DaisySeed seed;
   9:string.cpp    **** 
  10:string.cpp    **** // Helper Modules
  11:string.cpp    **** static Metro      tick;
  12:string.cpp    **** static String     str;
  13:string.cpp    **** static Oscillator lfo;
  14:string.cpp    **** 
  15:string.cpp    **** // MIDI note numbers for a major triad
  16:string.cpp    **** const float kArpeggio[3] = {48.0f, 52.0f, 55.0f};
  17:string.cpp    **** uint8_t     arp_idx;
  18:string.cpp    **** 
  19:string.cpp    **** static void AudioCallback(AudioHandle::InputBuffer  in,
  20:string.cpp    ****                           AudioHandle::OutputBuffer out,
  21:string.cpp    ****                           size_t                    size)
  22:string.cpp    **** {
 182              		.loc 13 22 1 is_stmt 1 view -0
 183              		.cfi_startproc
 184              		@ args = 0, pretend = 0, frame = 0
 185              		@ frame_needed = 0, uses_anonymous_args = 0
  23:string.cpp    ****     for(size_t i = 0; i < size; i++)
 186              		.loc 13 23 5 view .LVU27
 187              	.LBB133:
ARM GAS  /tmp/ccaqGoGC.s 			page 12


 188              		.loc 13 23 25 view .LVU28
 189 0000 002A     		cmp	r2, #0
 190 0002 6AD0     		beq	.L18
 191              	.LBE133:
  22:string.cpp    ****     for(size_t i = 0; i < size; i++)
 192              		.loc 13 22 1 is_stmt 0 view .LVU29
 193 0004 2DE9F843 		push	{r3, r4, r5, r6, r7, r8, r9, lr}
 194              		.cfi_def_cfa_offset 32
 195              		.cfi_offset 3, -32
 196              		.cfi_offset 4, -28
 197              		.cfi_offset 5, -24
 198              		.cfi_offset 6, -20
 199              		.cfi_offset 7, -16
 200              		.cfi_offset 8, -12
 201              		.cfi_offset 9, -8
 202              		.cfi_offset 14, -4
 203 0008 0E46     		mov	r6, r1
 204 000a 1746     		mov	r7, r2
 205              	.LBB152:
 206              		.loc 13 23 16 view .LVU30
 207 000c 0024     		movs	r4, #0
 208              	.LBE152:
  22:string.cpp    ****     for(size_t i = 0; i < size; i++)
 209              		.loc 13 22 1 view .LVU31
 210 000e 2DED028B 		vpush.64	{d8}
 211              		.cfi_def_cfa_offset 40
 212              		.cfi_offset 80, -40
 213              		.cfi_offset 81, -36
 214 0012 2AE0     		b	.L9
 215              	.LVL5:
 216              	.L8:
 217              	.LBB153:
 218              	.LBB134:
  24:string.cpp    ****     {
  25:string.cpp    ****         // When the Metro ticks:
  26:string.cpp    ****         // advance the kArpeggio, and trigger the String.
  27:string.cpp    ****         bool trig = tick.Process();
  28:string.cpp    ****         if(trig)
  29:string.cpp    ****         {
  30:string.cpp    ****             // convert midi nn to frequency.
  31:string.cpp    ****             float freq = mtof(kArpeggio[arp_idx]);
  32:string.cpp    **** 
  33:string.cpp    ****             // advance the kArpeggio, wrapping at the end.
  34:string.cpp    ****             arp_idx = (arp_idx + 1) % 3;
  35:string.cpp    ****             str.SetFreq(freq);
  36:string.cpp    ****         }
  37:string.cpp    **** 
  38:string.cpp    ****         //modulate the string parameters using the lfo
  39:string.cpp    ****         float sig = lfo.Process();
 219              		.loc 13 39 9 is_stmt 1 discriminator 2 view .LVU32
 220              		.loc 13 39 32 is_stmt 0 discriminator 2 view .LVU33
 221 0014 3148     		ldr	r0, .L22
 222 0016 FFF7FEFF 		bl	_ZN7daisysp10Oscillator7ProcessEv
 223              	.LVL6:
  40:string.cpp    **** 
  41:string.cpp    ****         str.SetBrightness(fabsf(sig));
 224              		.loc 13 41 26 discriminator 2 view .LVU34
ARM GAS  /tmp/ccaqGoGC.s 			page 13


 225 001a F0EEC08A 		vabs.f32	s17, s0
  39:string.cpp    **** 
 226              		.loc 13 39 32 discriminator 2 view .LVU35
 227 001e B0EE408A 		vmov.f32	s16, s0
 228              	.LVL7:
 229              		.loc 13 41 9 is_stmt 1 discriminator 2 view .LVU36
 230              		.loc 13 41 26 is_stmt 0 discriminator 2 view .LVU37
 231 0022 2F48     		ldr	r0, .L22+4
 232 0024 B0EE680A 		vmov.f32	s0, s17
 233              	.LVL8:
 234              		.loc 13 41 26 discriminator 2 view .LVU38
 235 0028 FFF7FEFF 		bl	_ZN7daisysp6String13SetBrightnessEf
 236              	.LVL9:
  42:string.cpp    ****         str.SetDamping(fabsf(sig) + .2f);
 237              		.loc 13 42 9 is_stmt 1 discriminator 2 view .LVU39
 238              		.loc 13 42 23 is_stmt 0 discriminator 2 view .LVU40
 239 002c 9FED2D0A 		vldr.32	s0, .L22+8
 240 0030 2B48     		ldr	r0, .L22+4
 241 0032 38EE800A 		vadd.f32	s0, s17, s0
 242 0036 FFF7FEFF 		bl	_ZN7daisysp6String10SetDampingEf
 243              	.LVL10:
  43:string.cpp    ****         str.SetNonLinearity(sig);
 244              		.loc 13 43 9 is_stmt 1 discriminator 2 view .LVU41
 245              		.loc 13 43 28 is_stmt 0 discriminator 2 view .LVU42
 246 003a B0EE480A 		vmov.f32	s0, s16
 247 003e 2848     		ldr	r0, .L22+4
 248 0040 FFF7FEFF 		bl	_ZN7daisysp6String15SetNonLinearityEf
 249              	.LVL11:
  44:string.cpp    **** 
  45:string.cpp    ****         //output the sample
  46:string.cpp    ****         out[0][i] = out[1][i] = str.Process(trig);
 250              		.loc 13 46 9 is_stmt 1 discriminator 2 view .LVU43
 251              		.loc 13 46 44 is_stmt 0 discriminator 2 view .LVU44
 252 0044 07EE905A 		vmov	s15, r5	@ int
 253              		.loc 13 46 29 discriminator 2 view .LVU45
 254 0048 7368     		ldr	r3, [r6, #4]
 255              		.loc 13 46 44 discriminator 2 view .LVU46
 256 004a B8EE670A 		vcvt.f32.u32	s0, s15
 257 004e 2448     		ldr	r0, .L22+4
 258              		.loc 13 46 29 discriminator 2 view .LVU47
 259 0050 03EB8405 		add	r5, r3, r4, lsl #2
 260              	.LVL12:
 261              		.loc 13 46 29 discriminator 2 view .LVU48
 262              	.LBE134:
  23:string.cpp    ****     {
 263              		.loc 13 23 5 discriminator 2 view .LVU49
 264 0054 0134     		adds	r4, r4, #1
 265              	.LVL13:
 266              	.LBB149:
 267              		.loc 13 46 44 discriminator 2 view .LVU50
 268 0056 FFF7FEFF 		bl	_ZN7daisysp6String7ProcessEf
 269              	.LVL14:
 270              		.loc 13 46 19 discriminator 2 view .LVU51
 271 005a 3368     		ldr	r3, [r6]
 272              	.LBE149:
  23:string.cpp    ****     {
 273              		.loc 13 23 25 discriminator 2 view .LVU52
ARM GAS  /tmp/ccaqGoGC.s 			page 14


 274 005c A742     		cmp	r7, r4
 275              	.LBB150:
 276              		.loc 13 46 31 discriminator 2 view .LVU53
 277 005e 85ED000A 		vstr.32	s0, [r5]
 278              		.loc 13 46 19 discriminator 2 view .LVU54
 279 0062 4344     		add	r3, r3, r8
 280 0064 83ED000A 		vstr.32	s0, [r3]
 281              	.LBE150:
  23:string.cpp    ****     {
 282              		.loc 13 23 5 is_stmt 1 discriminator 2 view .LVU55
 283              	.LVL15:
  23:string.cpp    ****     {
 284              		.loc 13 23 25 discriminator 2 view .LVU56
 285 0068 33D0     		beq	.L21
 286              	.LVL16:
 287              	.L9:
 288              	.LBB151:
  27:string.cpp    ****         if(trig)
 289              		.loc 13 27 9 view .LVU57
  27:string.cpp    ****         if(trig)
 290              		.loc 13 27 33 is_stmt 0 view .LVU58
 291 006a 1F48     		ldr	r0, .L22+12
 292 006c 4FEA8408 		lsl	r8, r4, #2
 293 0070 FFF7FEFF 		bl	_ZN7daisysp5Metro7ProcessEv
 294              	.LVL17:
  27:string.cpp    ****         if(trig)
 295              		.loc 13 27 34 view .LVU59
 296 0074 0028     		cmp	r0, #0
 297 0076 14BF     		ite	ne
 298 0078 0125     		movne	r5, #1
 299 007a 0025     		moveq	r5, #0
 300              	.LVL18:
  28:string.cpp    ****         {
 301              		.loc 13 28 9 is_stmt 1 view .LVU60
 302              	.LBB135:
 303 007c CAD0     		beq	.L8
 304              	.LBB136:
  31:string.cpp    **** 
 305              		.loc 13 31 13 view .LVU61
 306              	.LVL19:
 307              	.LBB137:
 308              	.LBI137:
 309              		.file 14 "../../DaisySP/Source/Utility/dsp.h"
   1:../../DaisySP/Source/Utility/dsp.h **** /** Helpful defines, functions, and other utilities for use in/with daisysp modules.
   2:../../DaisySP/Source/Utility/dsp.h **** */
   3:../../DaisySP/Source/Utility/dsp.h **** #pragma once
   4:../../DaisySP/Source/Utility/dsp.h **** #ifndef DSY_CORE_DSP
   5:../../DaisySP/Source/Utility/dsp.h **** #define DSY_CORE_DSP
   6:../../DaisySP/Source/Utility/dsp.h **** #include <cassert>
   7:../../DaisySP/Source/Utility/dsp.h **** #include <cstdint>
   8:../../DaisySP/Source/Utility/dsp.h **** #include <random>
   9:../../DaisySP/Source/Utility/dsp.h **** #include <cmath>
  10:../../DaisySP/Source/Utility/dsp.h **** 
  11:../../DaisySP/Source/Utility/dsp.h **** /** PIs
  12:../../DaisySP/Source/Utility/dsp.h **** */
  13:../../DaisySP/Source/Utility/dsp.h **** #define PI_F 3.1415927410125732421875f
  14:../../DaisySP/Source/Utility/dsp.h **** #define TWOPI_F (2.0f * PI_F)
ARM GAS  /tmp/ccaqGoGC.s 			page 15


  15:../../DaisySP/Source/Utility/dsp.h **** #define HALFPI_F (PI_F * 0.5f)
  16:../../DaisySP/Source/Utility/dsp.h **** #define DSY_MIN(in, mn) (in < mn ? in : mn)
  17:../../DaisySP/Source/Utility/dsp.h **** #define DSY_MAX(in, mx) (in > mx ? in : mx)
  18:../../DaisySP/Source/Utility/dsp.h **** #define DSY_CLAMP(in, mn, mx) (DSY_MIN(DSY_MAX(in, mn), mx))
  19:../../DaisySP/Source/Utility/dsp.h **** #define DSY_COUNTOF(_arr) (sizeof(_arr) / sizeof(_arr[0]))
  20:../../DaisySP/Source/Utility/dsp.h **** 
  21:../../DaisySP/Source/Utility/dsp.h **** namespace daisysp
  22:../../DaisySP/Source/Utility/dsp.h **** {
  23:../../DaisySP/Source/Utility/dsp.h **** //Avoids division for random floats. e.g. rand() * kRandFrac
  24:../../DaisySP/Source/Utility/dsp.h **** static constexpr float kRandFrac = 1.f / (float)RAND_MAX;
  25:../../DaisySP/Source/Utility/dsp.h **** 
  26:../../DaisySP/Source/Utility/dsp.h **** //Convert from semitones to other units. e.g. 2 ^ (kOneTwelfth * x)
  27:../../DaisySP/Source/Utility/dsp.h **** static constexpr float kOneTwelfth = 1.f / 12.f;
  28:../../DaisySP/Source/Utility/dsp.h **** 
  29:../../DaisySP/Source/Utility/dsp.h **** /** efficient floating point min/max
  30:../../DaisySP/Source/Utility/dsp.h **** c/o stephen mccaul
  31:../../DaisySP/Source/Utility/dsp.h **** */
  32:../../DaisySP/Source/Utility/dsp.h **** inline float fmax(float a, float b)
  33:../../DaisySP/Source/Utility/dsp.h **** {
  34:../../DaisySP/Source/Utility/dsp.h ****     float r;
  35:../../DaisySP/Source/Utility/dsp.h **** #ifdef __arm__
  36:../../DaisySP/Source/Utility/dsp.h ****     asm("vmaxnm.f32 %[d], %[n], %[m]" : [d] "=t"(r) : [n] "t"(a), [m] "t"(b) :);
  37:../../DaisySP/Source/Utility/dsp.h **** #else
  38:../../DaisySP/Source/Utility/dsp.h ****     r = (a > b) ? a : b;
  39:../../DaisySP/Source/Utility/dsp.h **** #endif // __arm__
  40:../../DaisySP/Source/Utility/dsp.h ****     return r;
  41:../../DaisySP/Source/Utility/dsp.h **** }
  42:../../DaisySP/Source/Utility/dsp.h **** 
  43:../../DaisySP/Source/Utility/dsp.h **** inline float fmin(float a, float b)
  44:../../DaisySP/Source/Utility/dsp.h **** {
  45:../../DaisySP/Source/Utility/dsp.h ****     float r;
  46:../../DaisySP/Source/Utility/dsp.h **** #ifdef __arm__
  47:../../DaisySP/Source/Utility/dsp.h ****     asm("vminnm.f32 %[d], %[n], %[m]" : [d] "=t"(r) : [n] "t"(a), [m] "t"(b) :);
  48:../../DaisySP/Source/Utility/dsp.h **** #else
  49:../../DaisySP/Source/Utility/dsp.h ****     r = (a < b) ? a : b;
  50:../../DaisySP/Source/Utility/dsp.h **** #endif // __arm__
  51:../../DaisySP/Source/Utility/dsp.h ****     return r;
  52:../../DaisySP/Source/Utility/dsp.h **** }
  53:../../DaisySP/Source/Utility/dsp.h **** 
  54:../../DaisySP/Source/Utility/dsp.h **** /** quick fp clamp
  55:../../DaisySP/Source/Utility/dsp.h **** */
  56:../../DaisySP/Source/Utility/dsp.h **** inline float fclamp(float in, float min, float max)
  57:../../DaisySP/Source/Utility/dsp.h **** {
  58:../../DaisySP/Source/Utility/dsp.h ****     return fmin(fmax(in, min), max);
  59:../../DaisySP/Source/Utility/dsp.h **** }
  60:../../DaisySP/Source/Utility/dsp.h **** 
  61:../../DaisySP/Source/Utility/dsp.h **** /** From Musicdsp.org "Fast power and root estimates for 32bit floats)
  62:../../DaisySP/Source/Utility/dsp.h **** Original code by Stefan Stenzel
  63:../../DaisySP/Source/Utility/dsp.h **** These are approximations
  64:../../DaisySP/Source/Utility/dsp.h **** */
  65:../../DaisySP/Source/Utility/dsp.h **** inline float fastpower(float f, int n)
  66:../../DaisySP/Source/Utility/dsp.h **** {
  67:../../DaisySP/Source/Utility/dsp.h ****     long *lp, l;
  68:../../DaisySP/Source/Utility/dsp.h ****     lp = (long *)(&f);
  69:../../DaisySP/Source/Utility/dsp.h ****     l  = *lp;
  70:../../DaisySP/Source/Utility/dsp.h ****     l -= 0x3F800000;
  71:../../DaisySP/Source/Utility/dsp.h ****     l <<= (n - 1);
ARM GAS  /tmp/ccaqGoGC.s 			page 16


  72:../../DaisySP/Source/Utility/dsp.h ****     l += 0x3F800000;
  73:../../DaisySP/Source/Utility/dsp.h ****     *lp = l;
  74:../../DaisySP/Source/Utility/dsp.h ****     return f;
  75:../../DaisySP/Source/Utility/dsp.h **** }
  76:../../DaisySP/Source/Utility/dsp.h **** 
  77:../../DaisySP/Source/Utility/dsp.h **** inline float fastroot(float f, int n)
  78:../../DaisySP/Source/Utility/dsp.h **** {
  79:../../DaisySP/Source/Utility/dsp.h ****     long *lp, l;
  80:../../DaisySP/Source/Utility/dsp.h ****     lp = (long *)(&f);
  81:../../DaisySP/Source/Utility/dsp.h ****     l  = *lp;
  82:../../DaisySP/Source/Utility/dsp.h ****     l -= 0x3F800000;
  83:../../DaisySP/Source/Utility/dsp.h ****     l >>= (n = 1);
  84:../../DaisySP/Source/Utility/dsp.h ****     l += 0x3F800000;
  85:../../DaisySP/Source/Utility/dsp.h ****     *lp = l;
  86:../../DaisySP/Source/Utility/dsp.h ****     return f;
  87:../../DaisySP/Source/Utility/dsp.h **** }
  88:../../DaisySP/Source/Utility/dsp.h **** 
  89:../../DaisySP/Source/Utility/dsp.h **** /** From http://openaudio.blogspot.com/2017/02/faster-log10-and-pow.html
  90:../../DaisySP/Source/Utility/dsp.h **** No approximation, pow10f(x) gives a 90% speed increase over powf(10.f, x)
  91:../../DaisySP/Source/Utility/dsp.h **** */
  92:../../DaisySP/Source/Utility/dsp.h **** inline float pow10f(float f)
  93:../../DaisySP/Source/Utility/dsp.h **** {
  94:../../DaisySP/Source/Utility/dsp.h ****     return expf(2.302585092994046f * f);
  95:../../DaisySP/Source/Utility/dsp.h **** }
  96:../../DaisySP/Source/Utility/dsp.h **** 
  97:../../DaisySP/Source/Utility/dsp.h **** /* Original code for fastlog2f by Dr. Paul Beckmann from the ARM community forum, adapted from the 
  98:../../DaisySP/Source/Utility/dsp.h **** About 25% performance increase over std::log10f
  99:../../DaisySP/Source/Utility/dsp.h **** */
 100:../../DaisySP/Source/Utility/dsp.h **** inline float fastlog2f(float f)
 101:../../DaisySP/Source/Utility/dsp.h **** {
 102:../../DaisySP/Source/Utility/dsp.h ****     float frac;
 103:../../DaisySP/Source/Utility/dsp.h ****     int   exp;
 104:../../DaisySP/Source/Utility/dsp.h ****     frac = frexpf(fabsf(f), &exp);
 105:../../DaisySP/Source/Utility/dsp.h ****     f    = 1.23149591368684f;
 106:../../DaisySP/Source/Utility/dsp.h ****     f *= frac;
 107:../../DaisySP/Source/Utility/dsp.h ****     f += -4.11852516267426f;
 108:../../DaisySP/Source/Utility/dsp.h ****     f *= frac;
 109:../../DaisySP/Source/Utility/dsp.h ****     f += 6.02197014179219f;
 110:../../DaisySP/Source/Utility/dsp.h ****     f *= frac;
 111:../../DaisySP/Source/Utility/dsp.h ****     f += -3.13396450166353f;
 112:../../DaisySP/Source/Utility/dsp.h ****     f += exp;
 113:../../DaisySP/Source/Utility/dsp.h ****     return (f);
 114:../../DaisySP/Source/Utility/dsp.h **** }
 115:../../DaisySP/Source/Utility/dsp.h **** 
 116:../../DaisySP/Source/Utility/dsp.h **** inline float fastlog10f(float f)
 117:../../DaisySP/Source/Utility/dsp.h **** {
 118:../../DaisySP/Source/Utility/dsp.h ****     return fastlog2f(f) * 0.3010299956639812f;
 119:../../DaisySP/Source/Utility/dsp.h **** }
 120:../../DaisySP/Source/Utility/dsp.h **** 
 121:../../DaisySP/Source/Utility/dsp.h **** /** Midi to frequency helper
 122:../../DaisySP/Source/Utility/dsp.h **** */
 123:../../DaisySP/Source/Utility/dsp.h **** inline float mtof(float m)
 310              		.loc 14 123 14 view .LVU62
 311              	.LBB138:
 124:../../DaisySP/Source/Utility/dsp.h **** {
 125:../../DaisySP/Source/Utility/dsp.h ****     return powf(2, (m - 69.0f) / 12.0f) * 440.0f;
 312              		.loc 14 125 5 view .LVU63
ARM GAS  /tmp/ccaqGoGC.s 			page 17


 313              	.LBE138:
 314              	.LBE137:
  31:string.cpp    **** 
 315              		.loc 13 31 41 is_stmt 0 view .LVU64
 316 007e DFF87C90 		ldr	r9, .L22+32
 317              	.LBB144:
 318              	.LBB139:
 319              		.loc 14 125 16 view .LVU65
 320 0082 F2EE080A 		vmov.f32	s1, #1.2e+1
 321              	.LBE139:
 322              	.LBE144:
  31:string.cpp    **** 
 323              		.loc 13 31 48 view .LVU66
 324 0086 194B     		ldr	r3, .L22+16
 325              	.LBB145:
 326              	.LBB140:
 327              		.loc 14 125 16 view .LVU67
 328 0088 B0EE000A 		vmov.f32	s0, #2.0e+0
 329              	.LBE140:
 330              	.LBE145:
  31:string.cpp    **** 
 331              		.loc 13 31 41 view .LVU68
 332 008c 99F80020 		ldrb	r2, [r9]	@ zero_extendqisi2
 333              	.LBB146:
 334              	.LBB141:
 335              		.loc 14 125 23 view .LVU69
 336 0090 9FED177A 		vldr.32	s14, .L22+20
 337              	.LBE141:
 338              	.LBE146:
  31:string.cpp    **** 
 339              		.loc 13 31 48 view .LVU70
 340 0094 03EB8203 		add	r3, r3, r2, lsl #2
 341              	.LBB147:
 342              	.LBB142:
 343              		.loc 14 125 23 view .LVU71
 344 0098 D3ED007A 		vldr.32	s15, [r3]
 345 009c 77EEC77A 		vsub.f32	s15, s15, s14
 346              		.loc 14 125 16 view .LVU72
 347 00a0 C7EEA00A 		vdiv.f32	s1, s15, s1
 348 00a4 FFF7FEFF 		bl	powf
 349              	.LVL20:
 350              		.loc 14 125 16 view .LVU73
 351              	.LBE142:
 352              	.LBE147:
  34:string.cpp    ****             str.SetFreq(freq);
 353              		.loc 13 34 13 is_stmt 1 view .LVU74
  34:string.cpp    ****             str.SetFreq(freq);
 354              		.loc 13 34 24 is_stmt 0 view .LVU75
 355 00a8 99F80030 		ldrb	r3, [r9]	@ zero_extendqisi2
  34:string.cpp    ****             str.SetFreq(freq);
 356              		.loc 13 34 37 view .LVU76
 357 00ac 114A     		ldr	r2, .L22+24
  34:string.cpp    ****             str.SetFreq(freq);
 358              		.loc 13 34 32 view .LVU77
 359 00ae 0133     		adds	r3, r3, #1
 360              	.LBB148:
 361              	.LBB143:
ARM GAS  /tmp/ccaqGoGC.s 			page 18


 362              		.loc 14 125 43 view .LVU78
 363 00b0 DFED117A 		vldr.32	s15, .L22+28
 364              	.LBE143:
 365              	.LBE148:
  35:string.cpp    ****         }
 366              		.loc 13 35 24 view .LVU79
 367 00b4 0A48     		ldr	r0, .L22+4
  34:string.cpp    ****             str.SetFreq(freq);
 368              		.loc 13 34 37 view .LVU80
 369 00b6 A2FB0312 		umull	r1, r2, r2, r3
  35:string.cpp    ****         }
 370              		.loc 13 35 24 view .LVU81
 371 00ba 20EE270A 		vmul.f32	s0, s0, s15
 372              	.LVL21:
  34:string.cpp    ****             str.SetFreq(freq);
 373              		.loc 13 34 37 view .LVU82
 374 00be 02F4FF71 		and	r1, r2, #510
 375 00c2 01EB5202 		add	r2, r1, r2, lsr #1
 376 00c6 9B1A     		subs	r3, r3, r2
  34:string.cpp    ****             str.SetFreq(freq);
 377              		.loc 13 34 21 view .LVU83
 378 00c8 89F80030 		strb	r3, [r9]
  35:string.cpp    ****         }
 379              		.loc 13 35 13 is_stmt 1 view .LVU84
  35:string.cpp    ****         }
 380              		.loc 13 35 24 is_stmt 0 view .LVU85
 381 00cc FFF7FEFF 		bl	_ZN7daisysp6String7SetFreqEf
 382              	.LVL22:
  35:string.cpp    ****         }
 383              		.loc 13 35 24 view .LVU86
 384              	.LBE136:
 385 00d0 A0E7     		b	.L8
 386              	.LVL23:
 387              	.L21:
  35:string.cpp    ****         }
 388              		.loc 13 35 24 view .LVU87
 389              	.LBE135:
 390              	.LBE151:
 391              	.LBE153:
  47:string.cpp    ****     }
  48:string.cpp    **** }
 392              		.loc 13 48 1 view .LVU88
 393 00d2 BDEC028B 		vldm	sp!, {d8}
 394              		.cfi_restore 80
 395              		.cfi_restore 81
 396              		.cfi_def_cfa_offset 32
 397              	.LVL24:
 398              		.loc 13 48 1 view .LVU89
 399 00d6 BDE8F883 		pop	{r3, r4, r5, r6, r7, r8, r9, pc}
 400              	.LVL25:
 401              	.L18:
 402              		.cfi_def_cfa_offset 0
 403              		.cfi_restore 3
 404              		.cfi_restore 4
 405              		.cfi_restore 5
 406              		.cfi_restore 6
 407              		.cfi_restore 7
ARM GAS  /tmp/ccaqGoGC.s 			page 19


 408              		.cfi_restore 8
 409              		.cfi_restore 9
 410              		.cfi_restore 14
 411              		.loc 13 48 1 view .LVU90
 412 00da 7047     		bx	lr
 413              	.L23:
 414              		.align	2
 415              	.L22:
 416 00dc 00000000 		.word	.LANCHOR3
 417 00e0 00000000 		.word	_ZL3str
 418 00e4 CDCC4C3E 		.word	1045220557
 419 00e8 00000000 		.word	.LANCHOR0
 420 00ec 00000000 		.word	.LANCHOR1
 421 00f0 00008A42 		.word	1116340224
 422 00f4 ABAAAAAA 		.word	-1431655765
 423 00f8 0000DC43 		.word	1138491392
 424 00fc 00000000 		.word	.LANCHOR2
 425              		.cfi_endproc
 426              	.LFE4212:
 428              		.section	.text.startup.main,"ax",%progbits
 429              		.align	1
 430              		.p2align 2,,3
 431              		.global	main
 432              		.syntax unified
 433              		.thumb
 434              		.thumb_func
 435              		.fpu fpv5-d16
 437              	main:
 438              	.LFB4213:
  49:string.cpp    **** 
  50:string.cpp    **** int main(void)
  51:string.cpp    **** {
 439              		.loc 13 51 1 is_stmt 1 view -0
 440              		.cfi_startproc
 441              		@ args = 0, pretend = 0, frame = 0
 442              		@ frame_needed = 0, uses_anonymous_args = 0
  52:string.cpp    ****     // initialize seed hardware and daisysp modules
  53:string.cpp    ****     float sample_rate;
 443              		.loc 13 53 5 view .LVU92
  54:string.cpp    ****     seed.Configure();
 444              		.loc 13 54 5 view .LVU93
  51:string.cpp    ****     // initialize seed hardware and daisysp modules
 445              		.loc 13 51 1 is_stmt 0 view .LVU94
 446 0000 38B5     		push	{r3, r4, r5, lr}
 447              		.cfi_def_cfa_offset 16
 448              		.cfi_offset 3, -16
 449              		.cfi_offset 4, -12
 450              		.cfi_offset 5, -8
 451              		.cfi_offset 14, -4
 452              		.loc 13 54 19 view .LVU95
 453 0002 2D48     		ldr	r0, .L27
 454              	.LBB154:
 455              	.LBB155:
  17:../../DaisySP/Source/Synthesis/oscillator.h ****     /** Choices for output waveforms, POLYBLEP are appropriately labeled. Others are naive forms.
  18:../../DaisySP/Source/Synthesis/oscillator.h ****     */
  19:../../DaisySP/Source/Synthesis/oscillator.h ****     enum
  20:../../DaisySP/Source/Synthesis/oscillator.h ****     {
ARM GAS  /tmp/ccaqGoGC.s 			page 20


  21:../../DaisySP/Source/Synthesis/oscillator.h ****         WAVE_SIN,
  22:../../DaisySP/Source/Synthesis/oscillator.h ****         WAVE_TRI,
  23:../../DaisySP/Source/Synthesis/oscillator.h ****         WAVE_SAW,
  24:../../DaisySP/Source/Synthesis/oscillator.h ****         WAVE_RAMP,
  25:../../DaisySP/Source/Synthesis/oscillator.h ****         WAVE_SQUARE,
  26:../../DaisySP/Source/Synthesis/oscillator.h ****         WAVE_POLYBLEP_TRI,
  27:../../DaisySP/Source/Synthesis/oscillator.h ****         WAVE_POLYBLEP_SAW,
  28:../../DaisySP/Source/Synthesis/oscillator.h ****         WAVE_POLYBLEP_SQUARE,
  29:../../DaisySP/Source/Synthesis/oscillator.h ****         WAVE_LAST,
  30:../../DaisySP/Source/Synthesis/oscillator.h ****     };
  31:../../DaisySP/Source/Synthesis/oscillator.h **** 
  32:../../DaisySP/Source/Synthesis/oscillator.h **** 
  33:../../DaisySP/Source/Synthesis/oscillator.h ****     /** Initializes the Oscillator
  34:../../DaisySP/Source/Synthesis/oscillator.h **** 
  35:../../DaisySP/Source/Synthesis/oscillator.h ****         \param sample_rate - sample rate of the audio engine being run, and the frequency that the 
  36:../../DaisySP/Source/Synthesis/oscillator.h **** 
  37:../../DaisySP/Source/Synthesis/oscillator.h ****         Defaults:
  38:../../DaisySP/Source/Synthesis/oscillator.h ****         - freq_ = 100 Hz
  39:../../DaisySP/Source/Synthesis/oscillator.h ****         - amp_ = 0.5
  40:../../DaisySP/Source/Synthesis/oscillator.h ****         - waveform_ = sine wave.
  41:../../DaisySP/Source/Synthesis/oscillator.h ****     */
  42:../../DaisySP/Source/Synthesis/oscillator.h ****     void Init(float sample_rate)
  43:../../DaisySP/Source/Synthesis/oscillator.h ****     {
  44:../../DaisySP/Source/Synthesis/oscillator.h ****         sr_        = sample_rate;
 456              		.loc 1 44 20 view .LVU96
 457 0004 2D4C     		ldr	r4, .L27+4
 458              	.LBE155:
 459              	.LBE154:
  51:string.cpp    ****     // initialize seed hardware and daisysp modules
 460              		.loc 13 51 1 view .LVU97
 461 0006 2DED048B 		vpush.64	{d8, d9}
 462              		.cfi_def_cfa_offset 32
 463              		.cfi_offset 80, -32
 464              		.cfi_offset 81, -28
 465              		.cfi_offset 82, -24
 466              		.cfi_offset 83, -20
 467              		.loc 13 54 19 view .LVU98
 468 000a FFF7FEFF 		bl	_ZN5daisy9DaisySeed9ConfigureEv
 469              	.LVL26:
  55:string.cpp    ****     seed.Init();
 470              		.loc 13 55 5 is_stmt 1 view .LVU99
 471              		.loc 13 55 14 is_stmt 0 view .LVU100
 472 000e 0021     		movs	r1, #0
 473 0010 2948     		ldr	r0, .L27
 474              	.LBB160:
 475              	.LBB156:
  45:../../DaisySP/Source/Synthesis/oscillator.h ****         sr_recip_  = 1.0f / sample_rate;
 476              		.loc 1 45 27 view .LVU101
 477 0012 B7EE009A 		vmov.f32	s18, #1.0e+0
  46:../../DaisySP/Source/Synthesis/oscillator.h ****         freq_      = 100.0f;
  47:../../DaisySP/Source/Synthesis/oscillator.h ****         amp_       = 0.5f;
  48:../../DaisySP/Source/Synthesis/oscillator.h ****         phase_     = 0.0f;
  49:../../DaisySP/Source/Synthesis/oscillator.h ****         phase_inc_ = CalcPhaseInc(freq_);
  50:../../DaisySP/Source/Synthesis/oscillator.h ****         waveform_  = WAVE_SIN;
 478              		.loc 1 50 20 view .LVU102
 479 0016 0D46     		mov	r5, r1
 480              	.LBE156:
ARM GAS  /tmp/ccaqGoGC.s 			page 21


 481              	.LBE160:
 482              		.loc 13 55 14 view .LVU103
 483 0018 FFF7FEFF 		bl	_ZN5daisy9DaisySeed4InitEb
 484              	.LVL27:
  56:string.cpp    ****     sample_rate = seed.AudioSampleRate();
 485              		.loc 13 56 5 is_stmt 1 view .LVU104
 486              		.loc 13 56 39 is_stmt 0 view .LVU105
 487 001c 2648     		ldr	r0, .L27
 488 001e FFF7FEFF 		bl	_ZN5daisy9DaisySeed15AudioSampleRateEv
 489              	.LVL28:
 490 0022 B0EE408A 		vmov.f32	s16, s0
  57:string.cpp    **** 
  58:string.cpp    ****     // Set up Metro to pulse every second
  59:string.cpp    ****     tick.Init(2.0f, sample_rate);
 491              		.loc 13 59 14 view .LVU106
 492 0026 2648     		ldr	r0, .L27+8
 493 0028 B0EE000A 		vmov.f32	s0, #2.0e+0
 494              	.LVL29:
 495              		.loc 13 59 5 is_stmt 1 view .LVU107
  60:string.cpp    **** 
  61:string.cpp    ****     // Set up String algo
  62:string.cpp    ****     str.Init(sample_rate);
  63:string.cpp    ****     str.SetDamping(.8f);
  64:string.cpp    ****     str.SetNonLinearity(.1f);
 496              		.loc 13 64 24 is_stmt 0 view .LVU108
 497 002c DFED258A 		vldr.32	s17, .L27+12
  59:string.cpp    **** 
 498              		.loc 13 59 14 view .LVU109
 499 0030 F0EE480A 		vmov.f32	s1, s16
 500 0034 FFF7FEFF 		bl	_ZN7daisysp5Metro4InitEff
 501              	.LVL30:
  62:string.cpp    ****     str.SetDamping(.8f);
 502              		.loc 13 62 5 is_stmt 1 view .LVU110
  62:string.cpp    ****     str.SetDamping(.8f);
 503              		.loc 13 62 13 is_stmt 0 view .LVU111
 504 0038 B0EE480A 		vmov.f32	s0, s16
 505 003c 2248     		ldr	r0, .L27+16
 506 003e FFF7FEFF 		bl	_ZN7daisysp6String4InitEf
 507              	.LVL31:
  63:string.cpp    ****     str.SetNonLinearity(.1f);
 508              		.loc 13 63 5 is_stmt 1 view .LVU112
  63:string.cpp    ****     str.SetNonLinearity(.1f);
 509              		.loc 13 63 19 is_stmt 0 view .LVU113
 510 0042 9FED220A 		vldr.32	s0, .L27+20
 511 0046 2048     		ldr	r0, .L27+16
 512 0048 FFF7FEFF 		bl	_ZN7daisysp6String10SetDampingEf
 513              	.LVL32:
 514              		.loc 13 64 5 is_stmt 1 view .LVU114
 515              		.loc 13 64 24 is_stmt 0 view .LVU115
 516 004c B0EE680A 		vmov.f32	s0, s17
 517 0050 1D48     		ldr	r0, .L27+16
 518 0052 FFF7FEFF 		bl	_ZN7daisysp6String15SetNonLinearityEf
 519              	.LVL33:
  65:string.cpp    ****     str.SetBrightness(.5f);
 520              		.loc 13 65 5 is_stmt 1 view .LVU116
 521              		.loc 13 65 22 is_stmt 0 view .LVU117
 522 0056 B6EE000A 		vmov.f32	s0, #5.0e-1
ARM GAS  /tmp/ccaqGoGC.s 			page 22


 523 005a 1B48     		ldr	r0, .L27+16
 524 005c FFF7FEFF 		bl	_ZN7daisysp6String13SetBrightnessEf
 525              	.LVL34:
  66:string.cpp    **** 
  67:string.cpp    ****     //setup lfo at .25Hz
  68:string.cpp    ****     lfo.Init(sample_rate);
 526              		.loc 13 68 5 is_stmt 1 view .LVU118
 527              	.LBB161:
 528              	.LBI154:
  42:../../DaisySP/Source/Synthesis/oscillator.h ****     {
 529              		.loc 1 42 10 view .LVU119
 530              	.LBB157:
  44:../../DaisySP/Source/Synthesis/oscillator.h ****         sr_recip_  = 1.0f / sample_rate;
 531              		.loc 1 44 9 view .LVU120
  45:../../DaisySP/Source/Synthesis/oscillator.h ****         freq_      = 100.0f;
 532              		.loc 1 45 27 is_stmt 0 view .LVU121
 533 0060 C9EE087A 		vdiv.f32	s15, s18, s16
  48:../../DaisySP/Source/Synthesis/oscillator.h ****         phase_inc_ = CalcPhaseInc(freq_);
 534              		.loc 1 48 20 view .LVU122
 535 0064 0022     		movs	r2, #0
  47:../../DaisySP/Source/Synthesis/oscillator.h ****         phase_     = 0.0f;
 536              		.loc 1 47 20 view .LVU123
 537 0066 4FF07C53 		mov	r3, #1056964608
  46:../../DaisySP/Source/Synthesis/oscillator.h ****         amp_       = 0.5f;
 538              		.loc 1 46 20 view .LVU124
 539 006a 9FED190A 		vldr.32	s0, .L27+24
  49:../../DaisySP/Source/Synthesis/oscillator.h ****         waveform_  = WAVE_SIN;
 540              		.loc 1 49 34 view .LVU125
 541 006e 2046     		mov	r0, r4
  48:../../DaisySP/Source/Synthesis/oscillator.h ****         phase_inc_ = CalcPhaseInc(freq_);
 542              		.loc 1 48 20 view .LVU126
 543 0070 6261     		str	r2, [r4, #20]	@ float
  47:../../DaisySP/Source/Synthesis/oscillator.h ****         phase_     = 0.0f;
 544              		.loc 1 47 20 view .LVU127
 545 0072 6360     		str	r3, [r4, #4]	@ float
  44:../../DaisySP/Source/Synthesis/oscillator.h ****         sr_recip_  = 1.0f / sample_rate;
 546              		.loc 1 44 20 view .LVU128
 547 0074 84ED038A 		vstr.32	s16, [r4, #12]
  45:../../DaisySP/Source/Synthesis/oscillator.h ****         freq_      = 100.0f;
 548              		.loc 1 45 9 is_stmt 1 view .LVU129
  46:../../DaisySP/Source/Synthesis/oscillator.h ****         amp_       = 0.5f;
 549              		.loc 1 46 20 is_stmt 0 view .LVU130
 550 0078 84ED020A 		vstr.32	s0, [r4, #8]
  45:../../DaisySP/Source/Synthesis/oscillator.h ****         freq_      = 100.0f;
 551              		.loc 1 45 20 view .LVU131
 552 007c C4ED047A 		vstr.32	s15, [r4, #16]
  46:../../DaisySP/Source/Synthesis/oscillator.h ****         amp_       = 0.5f;
 553              		.loc 1 46 9 is_stmt 1 view .LVU132
  47:../../DaisySP/Source/Synthesis/oscillator.h ****         phase_     = 0.0f;
 554              		.loc 1 47 9 view .LVU133
  48:../../DaisySP/Source/Synthesis/oscillator.h ****         phase_inc_ = CalcPhaseInc(freq_);
 555              		.loc 1 48 9 view .LVU134
  49:../../DaisySP/Source/Synthesis/oscillator.h ****         waveform_  = WAVE_SIN;
 556              		.loc 1 49 9 view .LVU135
  49:../../DaisySP/Source/Synthesis/oscillator.h ****         waveform_  = WAVE_SIN;
 557              		.loc 1 49 34 is_stmt 0 view .LVU136
 558 0080 FFF7FEFF 		bl	_ZN7daisysp10Oscillator12CalcPhaseIncEf
ARM GAS  /tmp/ccaqGoGC.s 			page 23


 559              	.LVL35:
 560 0084 F0EE407A 		vmov.f32	s15, s0
  51:../../DaisySP/Source/Synthesis/oscillator.h ****         eoc_       = true;
  52:../../DaisySP/Source/Synthesis/oscillator.h ****         eor_       = true;
 561              		.loc 1 52 20 view .LVU137
 562 0088 40F20113 		movw	r3, #257
 563              	.LBE157:
 564              	.LBE161:
 565              	.LBB162:
 566              	.LBB163:
  53:../../DaisySP/Source/Synthesis/oscillator.h ****     }
  54:../../DaisySP/Source/Synthesis/oscillator.h **** 
  55:../../DaisySP/Source/Synthesis/oscillator.h **** 
  56:../../DaisySP/Source/Synthesis/oscillator.h ****     /** Changes the frequency of the Oscillator, and recalculates phase increment.
  57:../../DaisySP/Source/Synthesis/oscillator.h ****     */
  58:../../DaisySP/Source/Synthesis/oscillator.h ****     inline void SetFreq(const float f)
  59:../../DaisySP/Source/Synthesis/oscillator.h ****     {
  60:../../DaisySP/Source/Synthesis/oscillator.h ****         freq_      = f;
  61:../../DaisySP/Source/Synthesis/oscillator.h ****         phase_inc_ = CalcPhaseInc(f);
 567              		.loc 1 61 34 view .LVU138
 568 008c 2046     		mov	r0, r4
 569 008e B0EE680A 		vmov.f32	s0, s17
 570              	.LBE163:
 571              	.LBE162:
 572              	.LBB167:
 573              	.LBB158:
  52:../../DaisySP/Source/Synthesis/oscillator.h ****     }
 574              		.loc 1 52 20 view .LVU139
 575 0092 A384     		strh	r3, [r4, #36]	@ movhi
 576              	.LBE158:
 577              	.LBE167:
 578              	.LBB168:
 579              	.LBB169:
  62:../../DaisySP/Source/Synthesis/oscillator.h ****     }
  63:../../DaisySP/Source/Synthesis/oscillator.h **** 
  64:../../DaisySP/Source/Synthesis/oscillator.h **** 
  65:../../DaisySP/Source/Synthesis/oscillator.h ****     /** Sets the amplitude of the waveform.
  66:../../DaisySP/Source/Synthesis/oscillator.h ****     */
  67:../../DaisySP/Source/Synthesis/oscillator.h ****     inline void SetAmp(const float a) { amp_ = a; }
 580              		.loc 1 67 46 view .LVU140
 581 0094 84ED019A 		vstr.32	s18, [r4, #4]
 582              	.LBE169:
 583              	.LBE168:
 584              	.LBB171:
 585              	.LBB164:
  60:../../DaisySP/Source/Synthesis/oscillator.h ****         phase_inc_ = CalcPhaseInc(f);
 586              		.loc 1 60 20 view .LVU141
 587 0098 C4ED028A 		vstr.32	s17, [r4, #8]
 588              	.LBE164:
 589              	.LBE171:
 590              	.LBB172:
 591              	.LBB159:
  49:../../DaisySP/Source/Synthesis/oscillator.h ****         waveform_  = WAVE_SIN;
 592              		.loc 1 49 20 view .LVU142
 593 009c C4ED067A 		vstr.32	s15, [r4, #24]
  50:../../DaisySP/Source/Synthesis/oscillator.h ****         eoc_       = true;
 594              		.loc 1 50 9 is_stmt 1 view .LVU143
ARM GAS  /tmp/ccaqGoGC.s 			page 24


  50:../../DaisySP/Source/Synthesis/oscillator.h ****         eoc_       = true;
 595              		.loc 1 50 20 is_stmt 0 view .LVU144
 596 00a0 2570     		strb	r5, [r4]
  51:../../DaisySP/Source/Synthesis/oscillator.h ****         eor_       = true;
 597              		.loc 1 51 9 is_stmt 1 view .LVU145
  52:../../DaisySP/Source/Synthesis/oscillator.h ****     }
 598              		.loc 1 52 9 view .LVU146
 599              	.LVL36:
  52:../../DaisySP/Source/Synthesis/oscillator.h ****     }
 600              		.loc 1 52 9 is_stmt 0 view .LVU147
 601              	.LBE159:
 602              	.LBE172:
  69:string.cpp    ****     lfo.SetAmp(1.f);
 603              		.loc 13 69 5 is_stmt 1 view .LVU148
 604              	.LBB173:
 605              	.LBI168:
 606              		.loc 1 67 17 view .LVU149
 607              	.LBB170:
 608              		.loc 1 67 41 view .LVU150
 609              		.loc 1 67 41 is_stmt 0 view .LVU151
 610              	.LBE170:
 611              	.LBE173:
  70:string.cpp    ****     lfo.SetFreq(.1f);
 612              		.loc 13 70 5 is_stmt 1 view .LVU152
 613              	.LBB174:
 614              	.LBI162:
  58:../../DaisySP/Source/Synthesis/oscillator.h ****     {
 615              		.loc 1 58 17 view .LVU153
 616              	.LBB165:
  60:../../DaisySP/Source/Synthesis/oscillator.h ****         phase_inc_ = CalcPhaseInc(f);
 617              		.loc 1 60 9 view .LVU154
  61:../../DaisySP/Source/Synthesis/oscillator.h ****     }
 618              		.loc 1 61 9 view .LVU155
  61:../../DaisySP/Source/Synthesis/oscillator.h ****     }
 619              		.loc 1 61 34 is_stmt 0 view .LVU156
 620 00a2 FFF7FEFF 		bl	_ZN7daisysp10Oscillator12CalcPhaseIncEf
 621              	.LVL37:
 622              	.LBE165:
 623              	.LBE174:
  71:string.cpp    **** 
  72:string.cpp    ****     arp_idx = 0;
 624              		.loc 13 72 13 view .LVU157
 625 00a6 0B4B     		ldr	r3, .L27+28
  73:string.cpp    **** 
  74:string.cpp    ****     // start callback
  75:string.cpp    ****     seed.StartAudio(AudioCallback);
 626              		.loc 13 75 20 view .LVU158
 627 00a8 0B49     		ldr	r1, .L27+32
 628 00aa 0348     		ldr	r0, .L27
 629              	.LBB175:
 630              	.LBB166:
  61:../../DaisySP/Source/Synthesis/oscillator.h ****     }
 631              		.loc 1 61 20 view .LVU159
 632 00ac 84ED060A 		vstr.32	s0, [r4, #24]
 633              	.LVL38:
  61:../../DaisySP/Source/Synthesis/oscillator.h ****     }
 634              		.loc 1 61 20 view .LVU160
ARM GAS  /tmp/ccaqGoGC.s 			page 25


 635              	.LBE166:
 636              	.LBE175:
  72:string.cpp    **** 
 637              		.loc 13 72 5 is_stmt 1 view .LVU161
  72:string.cpp    **** 
 638              		.loc 13 72 13 is_stmt 0 view .LVU162
 639 00b0 1D70     		strb	r5, [r3]
 640              		.loc 13 75 5 is_stmt 1 view .LVU163
 641              		.loc 13 75 20 is_stmt 0 view .LVU164
 642 00b2 FFF7FEFF 		bl	_ZN5daisy9DaisySeed10StartAudioEPFvPKPKfPPfjE
 643              	.LVL39:
 644              	.L25:
  76:string.cpp    **** 
  77:string.cpp    **** 
  78:string.cpp    ****     while(1) {}
 645              		.loc 13 78 5 is_stmt 1 discriminator 1 view .LVU165
 646              		.loc 13 78 5 discriminator 1 view .LVU166
 647              		.loc 13 78 5 discriminator 1 view .LVU167
 648              		.loc 13 78 5 discriminator 1 view .LVU168
 649 00b6 FEE7     		b	.L25
 650              	.L28:
 651              		.align	2
 652              	.L27:
 653 00b8 00000000 		.word	.LANCHOR4
 654 00bc 00000000 		.word	.LANCHOR3
 655 00c0 00000000 		.word	.LANCHOR0
 656 00c4 CDCCCC3D 		.word	1036831949
 657 00c8 00000000 		.word	_ZL3str
 658 00cc CDCC4C3F 		.word	1061997773
 659 00d0 0000C842 		.word	1120403456
 660 00d4 00000000 		.word	.LANCHOR2
 661 00d8 00000000 		.word	_ZL13AudioCallbackPKPKfPPfj
 662              		.cfi_endproc
 663              	.LFE4213:
 665              		.section	.text.startup._GLOBAL__sub_I_arp_idx,"ax",%progbits
 666              		.align	1
 667              		.p2align 2,,3
 668              		.syntax unified
 669              		.thumb
 670              		.thumb_func
 671              		.fpu fpv5-d16
 673              	_GLOBAL__sub_I_arp_idx:
 674              	.LFB4759:
  79:string.cpp    **** }
 675              		.loc 13 79 1 view -0
 676              		.cfi_startproc
 677              		@ args = 0, pretend = 0, frame = 0
 678              		@ frame_needed = 0, uses_anonymous_args = 0
 679              	.LBB207:
 680              	.LBI207:
 681              		.loc 13 79 1 view .LVU170
 682              	.LVL40:
 683              	.LBB208:
 684              	.LBB209:
 685              	.LBI209:
  21:../../libdaisy/src/daisy_seed.h ****     ~DaisySeed() {}
 686              		.loc 8 21 5 view .LVU171
ARM GAS  /tmp/ccaqGoGC.s 			page 26


 687              	.LBB210:
 688              	.LBB211:
 689              	.LBI211:
  62:../../libdaisy/src/hid/audio.h ****     ~AudioHandle() {}
 690              		.loc 12 62 5 view .LVU172
 691              	.LBE211:
 692              	.LBE210:
 693              	.LBE209:
 694              	.LBE208:
 695              	.LBE207:
 696              		.loc 13 79 1 is_stmt 0 view .LVU173
 697 0000 08B5     		push	{r3, lr}
 698              		.cfi_def_cfa_offset 8
 699              		.cfi_offset 3, -8
 700              		.cfi_offset 14, -4
 701              	.LBB239:
 702              	.LBB237:
 703              	.LBB226:
 704              	.LBB224:
 705              	.LBB216:
 706              	.LBB212:
 707              	.LBB213:
  62:../../libdaisy/src/hid/audio.h ****     ~AudioHandle() {}
 708              		.loc 12 62 35 view .LVU174
 709 0002 0C48     		ldr	r0, .L31
 710 0004 0023     		movs	r3, #0
 711              	.LBE213:
 712              	.LBE212:
 713              	.LBE216:
 714              	.LBE224:
 715              	.LBE226:
   8:string.cpp    **** 
 716              		.loc 13 8 18 view .LVU175
 717 0006 0C4A     		ldr	r2, .L31+4
 718              	.LBB227:
 719              	.LBB225:
 720              	.LBB217:
 721              	.LBB215:
 722              	.LBB214:
  62:../../libdaisy/src/hid/audio.h ****     ~AudioHandle() {}
 723              		.loc 12 62 35 view .LVU176
 724 0008 4361     		str	r3, [r0, #20]
 725              	.LVL41:
  62:../../libdaisy/src/hid/audio.h ****     ~AudioHandle() {}
 726              		.loc 12 62 35 view .LVU177
 727              	.LBE214:
 728              	.LBE215:
 729              	.LBE217:
 730              	.LBB218:
 731              	.LBI218:
  84:../../libdaisy/src/per/adc.h ****     ~AdcHandle() {}
 732              		.loc 11 84 5 is_stmt 1 view .LVU178
  84:../../libdaisy/src/per/adc.h ****     ~AdcHandle() {}
 733              		.loc 11 84 5 is_stmt 0 view .LVU179
 734              	.LBE218:
 735              	.LBB219:
 736              	.LBI219:
ARM GAS  /tmp/ccaqGoGC.s 			page 27


 737              		.file 15 "../../libdaisy/src/per/dac.h"
   1:../../libdaisy/src/per/dac.h **** #pragma once
   2:../../libdaisy/src/per/dac.h **** #ifndef DSY_DAC_H
   3:../../libdaisy/src/per/dac.h **** #define DSY_DAC_H
   4:../../libdaisy/src/per/dac.h **** 
   5:../../libdaisy/src/per/dac.h **** #include "daisy_core.h"
   6:../../libdaisy/src/per/dac.h **** 
   7:../../libdaisy/src/per/dac.h **** namespace daisy
   8:../../libdaisy/src/per/dac.h **** {
   9:../../libdaisy/src/per/dac.h **** /** DAC handle for Built-in DAC Peripheral 
  10:../../libdaisy/src/per/dac.h ****  ** 
  11:../../libdaisy/src/per/dac.h ****  ** For now only Normal Mode is supported,
  12:../../libdaisy/src/per/dac.h ****  ** Sample and hold mode provides reduced power consumption, but requires a bit more setup.
  13:../../libdaisy/src/per/dac.h ****  **
  14:../../libdaisy/src/per/dac.h ****  ** For now connecting the DAC through other internal periphearls is also not supported.
  15:../../libdaisy/src/per/dac.h ****  **
  16:../../libdaisy/src/per/dac.h ****  ** Since the DAC channels have dedicated pins we don't need to pass in a pin config like with
  17:../../libdaisy/src/per/dac.h ****  ** other modules. However, it is still important to not try to use the DAC pins for anything else.
  18:../../libdaisy/src/per/dac.h ****  ** DAC Channel 1 is on PA4, and DAC Channel 2 is on PA5
  19:../../libdaisy/src/per/dac.h ****  ***/
  20:../../libdaisy/src/per/dac.h **** class DacHandle
  21:../../libdaisy/src/per/dac.h **** {
  22:../../libdaisy/src/per/dac.h ****   public:
  23:../../libdaisy/src/per/dac.h ****     /** Return Values for the DacHandle class */
  24:../../libdaisy/src/per/dac.h ****     enum class Result
  25:../../libdaisy/src/per/dac.h ****     {
  26:../../libdaisy/src/per/dac.h ****         OK,
  27:../../libdaisy/src/per/dac.h ****         ERR,
  28:../../libdaisy/src/per/dac.h ****     };
  29:../../libdaisy/src/per/dac.h **** 
  30:../../libdaisy/src/per/dac.h ****     /** Selects which channel(s) will be configured for use. */
  31:../../libdaisy/src/per/dac.h ****     enum class Channel
  32:../../libdaisy/src/per/dac.h ****     {
  33:../../libdaisy/src/per/dac.h ****         ONE,
  34:../../libdaisy/src/per/dac.h ****         TWO,
  35:../../libdaisy/src/per/dac.h ****         BOTH,
  36:../../libdaisy/src/per/dac.h ****     };
  37:../../libdaisy/src/per/dac.h **** 
  38:../../libdaisy/src/per/dac.h ****     /** Sets the Mode for the DAC channels.
  39:../../libdaisy/src/per/dac.h ****      **
  40:../../libdaisy/src/per/dac.h ****      ** Polling mode uses the blocking mode to transmit a single value at a time.
  41:../../libdaisy/src/per/dac.h ****      **
  42:../../libdaisy/src/per/dac.h ****      ** DMA mode uses a buffer, and periodically transmits it triggering a 
  43:../../libdaisy/src/per/dac.h ****      ** callback to fill the buffer when it is ready for more samples.
  44:../../libdaisy/src/per/dac.h ****      ***/
  45:../../libdaisy/src/per/dac.h ****     enum class Mode
  46:../../libdaisy/src/per/dac.h ****     {
  47:../../libdaisy/src/per/dac.h ****         POLLING,
  48:../../libdaisy/src/per/dac.h ****         DMA,
  49:../../libdaisy/src/per/dac.h ****     };
  50:../../libdaisy/src/per/dac.h **** 
  51:../../libdaisy/src/per/dac.h ****     /** Sets the number of bits per sample transmitted out of the DAC.
  52:../../libdaisy/src/per/dac.h ****      ** The output range will be: 0V - VDDA
  53:../../libdaisy/src/per/dac.h ****      ** The resolution will be roughly: bitdepth / (VDDA - 0V) 
  54:../../libdaisy/src/per/dac.h ****      ***/
  55:../../libdaisy/src/per/dac.h ****     enum class BitDepth
  56:../../libdaisy/src/per/dac.h ****     {
ARM GAS  /tmp/ccaqGoGC.s 			page 28


  57:../../libdaisy/src/per/dac.h ****         BITS_8,
  58:../../libdaisy/src/per/dac.h ****         BITS_12
  59:../../libdaisy/src/per/dac.h ****     };
  60:../../libdaisy/src/per/dac.h **** 
  61:../../libdaisy/src/per/dac.h ****     /** Sets whether the DAC output is buffered for higher drive ability. */
  62:../../libdaisy/src/per/dac.h ****     enum class BufferState
  63:../../libdaisy/src/per/dac.h ****     {
  64:../../libdaisy/src/per/dac.h ****         ENABLED,
  65:../../libdaisy/src/per/dac.h ****         DISABLED,
  66:../../libdaisy/src/per/dac.h ****     };
  67:../../libdaisy/src/per/dac.h **** 
  68:../../libdaisy/src/per/dac.h ****     /** Configuration structure for initializing the DAC structure. */
  69:../../libdaisy/src/per/dac.h ****     struct Config
  70:../../libdaisy/src/per/dac.h ****     {
  71:../../libdaisy/src/per/dac.h ****         /** Target Samplerate in Hz used to configure the internal 
  72:../../libdaisy/src/per/dac.h ****          ** timebase for DMA mode. Does nothing in POLLING mode.
  73:../../libdaisy/src/per/dac.h ****          ** If the value is 0 at Init time this will default to 48000Hz 
  74:../../libdaisy/src/per/dac.h ****          ** otherwise the driver will attempt meet the target.*/
  75:../../libdaisy/src/per/dac.h ****         uint32_t target_samplerate;
  76:../../libdaisy/src/per/dac.h **** 
  77:../../libdaisy/src/per/dac.h ****         Channel     chn;
  78:../../libdaisy/src/per/dac.h ****         Mode        mode;
  79:../../libdaisy/src/per/dac.h ****         BitDepth    bitdepth;
  80:../../libdaisy/src/per/dac.h ****         BufferState buff_state;
  81:../../libdaisy/src/per/dac.h ****     };
  82:../../libdaisy/src/per/dac.h **** 
  83:../../libdaisy/src/per/dac.h ****     DacHandle() : pimpl_(nullptr) {}
 738              		.loc 15 83 5 is_stmt 1 view .LVU180
 739              	.LBB220:
 740              	.LBB221:
 741              		.loc 15 83 33 is_stmt 0 view .LVU181
 742 000a 0362     		str	r3, [r0, #32]
 743              	.LVL42:
 744              		.loc 15 83 33 view .LVU182
 745              	.LBE221:
 746              	.LBE220:
 747              	.LBE219:
 748              	.LBB222:
 749              	.LBI222:
  40:../../libdaisy/src/hid/usb.h **** 
 750              		.loc 10 40 5 is_stmt 1 view .LVU183
  40:../../libdaisy/src/hid/usb.h **** 
 751              		.loc 10 40 5 is_stmt 0 view .LVU184
 752              	.LBE222:
 753              	.LBB223:
 754              	.LBI223:
  58:../../libdaisy/src/sys/system.h ****     ~System() {}
 755              		.loc 9 58 5 is_stmt 1 view .LVU185
  58:../../libdaisy/src/sys/system.h ****     ~System() {}
 756              		.loc 9 58 5 is_stmt 0 view .LVU186
 757              	.LBE223:
 758              	.LBE225:
 759              	.LBE227:
   8:string.cpp    **** 
 760              		.loc 13 8 18 view .LVU187
 761 000c 0B49     		ldr	r1, .L31+8
 762 000e FFF7FEFF 		bl	__aeabi_atexit
ARM GAS  /tmp/ccaqGoGC.s 			page 29


 763              	.LVL43:
 764              	.LBB228:
 765              	.LBI228:
  14:../../DaisySP/Source/Utility/metro.h ****     ~Metro() {}
 766              		.loc 7 14 5 is_stmt 1 view .LVU188
  14:../../DaisySP/Source/Utility/metro.h ****     ~Metro() {}
 767              		.loc 7 14 5 is_stmt 0 view .LVU189
 768              	.LBE228:
  11:string.cpp    **** static String     str;
 769              		.loc 13 11 19 view .LVU190
 770 0012 094A     		ldr	r2, .L31+4
 771 0014 0A49     		ldr	r1, .L31+12
 772 0016 0B48     		ldr	r0, .L31+16
 773 0018 FFF7FEFF 		bl	__aeabi_atexit
 774              	.LVL44:
 775              	.LBB229:
 776              	.LBI229:
  31:../../DaisySP/Source/PhysicalModeling/KarplusString.h ****     ~String() {}
 777              		.loc 2 31 5 is_stmt 1 view .LVU191
 778              	.LBB230:
 779              	.LBB231:
 780              	.LBI231:
  23:../../DaisySP/Source/Utility/delayline.h ****     ~DelayLine() {}
 781              		.loc 6 23 5 view .LVU192
  23:../../DaisySP/Source/Utility/delayline.h ****     ~DelayLine() {}
 782              		.loc 6 23 5 is_stmt 0 view .LVU193
 783              	.LBE231:
 784              	.LBB232:
 785              	.LBI232:
  23:../../DaisySP/Source/Utility/delayline.h ****     ~DelayLine() {}
 786              		.loc 6 23 5 is_stmt 1 view .LVU194
  23:../../DaisySP/Source/Utility/delayline.h ****     ~DelayLine() {}
 787              		.loc 6 23 5 is_stmt 0 view .LVU195
 788              	.LBE232:
 789              	.LBB233:
 790              	.LBI233:
  15:../../DaisySP/Source/Filters/tone.h ****     ~Tone() {}
 791              		.loc 5 15 5 is_stmt 1 view .LVU196
  15:../../DaisySP/Source/Filters/tone.h ****     ~Tone() {}
 792              		.loc 5 15 5 is_stmt 0 view .LVU197
 793              	.LBE233:
 794              	.LBB234:
 795              	.LBI234:
  14:../../DaisySP/Source/Utility/dcblock.h ****     ~DcBlock(){};
 796              		.loc 4 14 5 is_stmt 1 view .LVU198
  14:../../DaisySP/Source/Utility/dcblock.h ****     ~DcBlock(){};
 797              		.loc 4 14 5 is_stmt 0 view .LVU199
 798              	.LBE234:
 799              	.LBB235:
 800              	.LBI235:
  36:../../DaisySP/Source/Dynamics/crossfade.h ****     ~CrossFade() {}
 801              		.loc 3 36 5 is_stmt 1 view .LVU200
  36:../../DaisySP/Source/Dynamics/crossfade.h ****     ~CrossFade() {}
 802              		.loc 3 36 5 is_stmt 0 view .LVU201
 803              	.LBE235:
 804              	.LBE230:
 805              	.LBE229:
ARM GAS  /tmp/ccaqGoGC.s 			page 30


  12:string.cpp    **** static Oscillator lfo;
 806              		.loc 13 12 19 view .LVU202
 807 001c 064A     		ldr	r2, .L31+4
 808 001e 0A49     		ldr	r1, .L31+20
 809 0020 0A48     		ldr	r0, .L31+24
 810 0022 FFF7FEFF 		bl	__aeabi_atexit
 811              	.LVL45:
 812              	.LBB236:
 813              	.LBI236:
  15:../../DaisySP/Source/Synthesis/oscillator.h ****     ~Oscillator() {}
 814              		.loc 1 15 5 is_stmt 1 view .LVU203
  15:../../DaisySP/Source/Synthesis/oscillator.h ****     ~Oscillator() {}
 815              		.loc 1 15 5 is_stmt 0 view .LVU204
 816              	.LBE236:
  13:string.cpp    **** 
 817              		.loc 13 13 19 view .LVU205
 818 0026 044A     		ldr	r2, .L31+4
 819 0028 0949     		ldr	r1, .L31+28
 820 002a 0A48     		ldr	r0, .L31+32
 821              	.LBE237:
 822              	.LBE239:
 823              		.loc 13 79 1 view .LVU206
 824 002c BDE80840 		pop	{r3, lr}
 825              		.cfi_restore 14
 826              		.cfi_restore 3
 827              		.cfi_def_cfa_offset 0
 828              	.LBB240:
 829              	.LBB238:
  13:string.cpp    **** 
 830              		.loc 13 13 19 view .LVU207
 831 0030 FFF7FEBF 		b	__aeabi_atexit
 832              	.LVL46:
 833              	.L32:
 834              		.align	2
 835              	.L31:
 836 0034 00000000 		.word	.LANCHOR4
 837 0038 00000000 		.word	__dso_handle
 838 003c 00000000 		.word	_ZN5daisy9DaisySeedD1Ev
 839 0040 00000000 		.word	_ZN7daisysp5MetroD1Ev
 840 0044 00000000 		.word	.LANCHOR0
 841 0048 00000000 		.word	_ZN7daisysp6StringD1Ev
 842 004c 00000000 		.word	_ZL3str
 843 0050 00000000 		.word	_ZN7daisysp10OscillatorD1Ev
 844 0054 00000000 		.word	.LANCHOR3
 845              	.LBE238:
 846              	.LBE240:
 847              		.cfi_endproc
 848              	.LFE4759:
 850              		.section	.init_array,"aw",%init_array
 851              		.align	2
 852 0000 00000000 		.word	_GLOBAL__sub_I_arp_idx(target1)
 853              		.global	arp_idx
 854              		.section	.bss._ZL3lfo,"aw",%nobits
 855              		.align	2
 856              		.set	.LANCHOR3,. + 0
 859              	_ZL3lfo:
 860 0000 00000000 		.space	40
ARM GAS  /tmp/ccaqGoGC.s 			page 31


 860      00000000 
 860      00000000 
 860      00000000 
 860      00000000 
 861              		.section	.bss._ZL3str,"aw",%nobits
 862              		.align	2
 865              	_ZL3str:
 866 0000 00000000 		.space	5232
 866      00000000 
 866      00000000 
 866      00000000 
 866      00000000 
 867              		.section	.bss._ZL4seed,"aw",%nobits
 868              		.align	2
 869              		.set	.LANCHOR4,. + 0
 872              	_ZL4seed:
 873 0000 00000000 		.space	60
 873      00000000 
 873      00000000 
 873      00000000 
 873      00000000 
 874              		.section	.bss._ZL4tick,"aw",%nobits
 875              		.align	2
 876              		.set	.LANCHOR0,. + 0
 879              	_ZL4tick:
 880 0000 00000000 		.space	16
 880      00000000 
 880      00000000 
 880      00000000 
 881              		.section	.bss.arp_idx,"aw",%nobits
 882              		.set	.LANCHOR2,. + 0
 885              	arp_idx:
 886 0000 00       		.space	1
 887              		.section	.rodata._ZL9kArpeggio,"a"
 888              		.align	2
 889              		.set	.LANCHOR1,. + 0
 892              	_ZL9kArpeggio:
 893 0000 00004042 		.word	1111490560
 894 0004 00005042 		.word	1112539136
 895 0008 00005C42 		.word	1113325568
 896              		.text
 897              	.Letext0:
 898              		.file 16 "/usr/lib/gcc/arm-none-eabi/9.2.1/include/stdint.h"
 899              		.file 17 "../../libdaisy/Drivers/CMSIS/Include/core_cm7.h"
 900              		.file 18 "../../libdaisy/Drivers/CMSIS/Device/ST/STM32H7xx/Include/system_stm32h7xx.h"
 901              		.file 19 "/usr/lib/gcc/arm-none-eabi/9.2.1/include/stddef.h"
 902              		.file 20 "/usr/include/newlib/c++/9.2.1/cmath"
 903              		.file 21 "/usr/include/newlib/c++/9.2.1/bits/std_abs.h"
 904              		.file 22 "/usr/include/newlib/c++/9.2.1/cstdint"
 905              		.file 23 "/usr/include/newlib/c++/9.2.1/cstdlib"
 906              		.file 24 "/usr/include/newlib/c++/9.2.1/type_traits"
 907              		.file 25 "/usr/include/newlib/c++/9.2.1/arm-none-eabi/thumb/v7e-m+dp/hard/bits/c++config.h"
 908              		.file 26 "/usr/include/newlib/c++/9.2.1/bits/stl_pair.h"
 909              		.file 27 "/usr/include/newlib/c++/9.2.1/debug/debug.h"
 910              		.file 28 "/usr/include/newlib/c++/9.2.1/cwchar"
 911              		.file 29 "/usr/include/newlib/c++/9.2.1/bits/exception_ptr.h"
 912              		.file 30 "/usr/include/newlib/c++/9.2.1/new"
ARM GAS  /tmp/ccaqGoGC.s 			page 32


 913              		.file 31 "/usr/include/newlib/c++/9.2.1/clocale"
 914              		.file 32 "/usr/include/newlib/c++/9.2.1/cstdio"
 915              		.file 33 "/usr/include/newlib/c++/9.2.1/bits/basic_string.h"
 916              		.file 34 "/usr/include/newlib/c++/9.2.1/bits/uniform_int_dist.h"
 917              		.file 35 "/usr/include/newlib/c++/9.2.1/bits/random.h"
 918              		.file 36 "/usr/include/newlib/c++/9.2.1/cstring"
 919              		.file 37 "/usr/include/newlib/c++/9.2.1/bits/algorithmfwd.h"
 920              		.file 38 "/usr/include/newlib/c++/9.2.1/cstdarg"
 921              		.file 39 "/usr/include/newlib/c++/9.2.1/bits/predefined_ops.h"
 922              		.file 40 "/usr/include/newlib/c++/9.2.1/ext/new_allocator.h"
 923              		.file 41 "/usr/include/newlib/c++/9.2.1/ext/numeric_traits.h"
 924              		.file 42 "/usr/include/newlib/sys/_types.h"
 925              		.file 43 "<built-in>"
 926              		.file 44 "/usr/include/newlib/sys/reent.h"
 927              		.file 45 "/usr/include/newlib/sys/lock.h"
 928              		.file 46 "/usr/include/newlib/math.h"
 929              		.file 47 "/usr/include/newlib/stdlib.h"
 930              		.file 48 "/usr/include/newlib/c++/9.2.1/math.h"
 931              		.file 49 "../../libdaisy/Drivers/STM32H7xx_HAL_Driver/Inc/stm32h7xx_hal_def.h"
 932              		.file 50 "../../libdaisy/Drivers/STM32H7xx_HAL_Driver/Inc/stm32h7xx_hal_flash.h"
 933              		.file 51 "../../DaisySP/Source/Control/adenv.h"
 934              		.file 52 "/usr/lib/gcc/arm-none-eabi/9.2.1/include/stdarg.h"
 935              		.file 53 "/usr/include/newlib/wchar.h"
 936              		.file 54 "/usr/include/newlib/locale.h"
 937              		.file 55 "/usr/include/newlib/ctype.h"
 938              		.file 56 "/usr/include/newlib/stdio.h"
 939              		.file 57 "/usr/include/newlib/sys/errno.h"
 940              		.file 58 "/usr/include/newlib/c++/9.2.1/stdlib.h"
 941              		.file 59 "/usr/include/newlib/string.h"
 942              		.file 60 "../../libdaisy/src/daisy_core.h"
 943              		.file 61 "../../libdaisy/src/per/tim.h"
 944              		.file 62 "../../libdaisy/src/per/sai.h"
 945              		.file 63 "../../libdaisy/src/util/wav_format.h"
 946              		.file 64 "../../libdaisy/src/per/qspi.h"
 947              		.file 65 "../../libdaisy/src/per/gpio.h"
 948              		.file 66 "../../libdaisy/src/dev/sdram.h"
 949              		.file 67 "/usr/include/newlib/sys/unistd.h"
 950              		.file 68 "../../libdaisy/src/util/oled_fonts.h"
 951              		.file 69 "../../libdaisy/Middlewares/Third_Party/FatFs/src/integer.h"
 952              		.file 70 "../../libdaisy/Middlewares/Third_Party/FatFs/src/ff.h"
 953              		.file 71 "../../libdaisy/Middlewares/Third_Party/FatFs/src/diskio.h"
 954              		.file 72 "../../libdaisy/Middlewares/Third_Party/FatFs/src/ff_gen_drv.h"
 955              		.file 73 "../../libdaisy/src/util/sd_diskio.h"
 956              		.file 74 "../../libdaisy/src/sys/fatfs.h"
 957              		.file 75 "../../libdaisy/src/dev/sr_595.h"
ARM GAS  /tmp/ccaqGoGC.s 			page 33

