ARM GAS  /tmp/ccoWCKC9.s 			page 1


   1              		.cpu cortex-m7
   2              		.eabi_attribute 28, 1
   3              		.eabi_attribute 20, 1
   4              		.eabi_attribute 21, 1
   5              		.eabi_attribute 23, 3
   6              		.eabi_attribute 24, 1
   7              		.eabi_attribute 25, 1
   8              		.eabi_attribute 26, 1
   9              		.eabi_attribute 30, 2
  10              		.eabi_attribute 34, 1
  11              		.eabi_attribute 18, 4
  12              		.file	"balance.cpp"
  13              		.text
  14              	.Ltext0:
  15              		.cfi_sections	.debug_frame
  16              		.section	.text._ZN7daisysp10OscillatorD2Ev,"axG",%progbits,_ZN7daisysp10OscillatorD5Ev,comdat
  17              		.align	1
  18              		.p2align 2,,3
  19              		.weak	_ZN7daisysp10OscillatorD2Ev
  20              		.arch armv7e-m
  21              		.syntax unified
  22              		.thumb
  23              		.thumb_func
  24              		.fpu fpv5-d16
  26              	_ZN7daisysp10OscillatorD2Ev:
  27              	.LVL0:
  28              	.LFB2797:
  29              		.file 1 "../../DaisySP/Source/Synthesis/oscillator.h"
   1:../../DaisySP/Source/Synthesis/oscillator.h **** #pragma once
   2:../../DaisySP/Source/Synthesis/oscillator.h **** #ifndef DSY_OSCILLATOR_H
   3:../../DaisySP/Source/Synthesis/oscillator.h **** #define DSY_OSCILLATOR_H
   4:../../DaisySP/Source/Synthesis/oscillator.h **** #include <stdint.h>
   5:../../DaisySP/Source/Synthesis/oscillator.h **** #include "Utility/dsp.h"
   6:../../DaisySP/Source/Synthesis/oscillator.h **** #ifdef __cplusplus
   7:../../DaisySP/Source/Synthesis/oscillator.h **** 
   8:../../DaisySP/Source/Synthesis/oscillator.h **** namespace daisysp
   9:../../DaisySP/Source/Synthesis/oscillator.h **** {
  10:../../DaisySP/Source/Synthesis/oscillator.h **** /** Synthesis of several waveforms, including polyBLEP bandlimited waveforms.
  11:../../DaisySP/Source/Synthesis/oscillator.h **** */
  12:../../DaisySP/Source/Synthesis/oscillator.h **** class Oscillator
  13:../../DaisySP/Source/Synthesis/oscillator.h **** {
  14:../../DaisySP/Source/Synthesis/oscillator.h ****   public:
  15:../../DaisySP/Source/Synthesis/oscillator.h ****     Oscillator() {}
  16:../../DaisySP/Source/Synthesis/oscillator.h ****     ~Oscillator() {}
  30              		.loc 1 16 5 view -0
  31              		.cfi_startproc
  32              		@ args = 0, pretend = 0, frame = 0
  33              		@ frame_needed = 0, uses_anonymous_args = 0
  34              		@ link register save eliminated.
  35              		.loc 1 16 20 is_stmt 0 view .LVU1
  36 0000 7047     		bx	lr
  37              		.cfi_endproc
  38              	.LFE2797:
  40              		.weak	_ZN7daisysp10OscillatorD1Ev
  41              		.thumb_set _ZN7daisysp10OscillatorD1Ev,_ZN7daisysp10OscillatorD2Ev
  42 0002 00BF     		.section	.text._ZN7daisysp7BalanceD2Ev,"axG",%progbits,_ZN7daisysp7BalanceD5Ev,comdat
  43              		.align	1
ARM GAS  /tmp/ccoWCKC9.s 			page 2


  44              		.p2align 2,,3
  45              		.weak	_ZN7daisysp7BalanceD2Ev
  46              		.syntax unified
  47              		.thumb
  48              		.thumb_func
  49              		.fpu fpv5-d16
  51              	_ZN7daisysp7BalanceD2Ev:
  52              	.LVL1:
  53              	.LFB2886:
  54              		.file 2 "../../DaisySP/Source/Dynamics/balance.h"
   1:../../DaisySP/Source/Dynamics/balance.h **** 
   2:../../DaisySP/Source/Dynamics/balance.h **** #pragma once
   3:../../DaisySP/Source/Dynamics/balance.h **** #ifndef DSY_BALANCE_H
   4:../../DaisySP/Source/Dynamics/balance.h **** #define DSY_BALANCE_H
   5:../../DaisySP/Source/Dynamics/balance.h **** 
   6:../../DaisySP/Source/Dynamics/balance.h **** #include <stdint.h>
   7:../../DaisySP/Source/Dynamics/balance.h **** #ifdef __cplusplus
   8:../../DaisySP/Source/Dynamics/balance.h **** 
   9:../../DaisySP/Source/Dynamics/balance.h **** namespace daisysp
  10:../../DaisySP/Source/Dynamics/balance.h **** {
  11:../../DaisySP/Source/Dynamics/balance.h **** /** Balances two sound sources. Sig is boosted to the level of comp.
  12:../../DaisySP/Source/Dynamics/balance.h **** 
  13:../../DaisySP/Source/Dynamics/balance.h ****     *Original author(s) : Barry Vercoe, john ffitch, Gabriel Maldonado
  14:../../DaisySP/Source/Dynamics/balance.h **** 
  15:../../DaisySP/Source/Dynamics/balance.h ****     *Year: 1991
  16:../../DaisySP/Source/Dynamics/balance.h **** 
  17:../../DaisySP/Source/Dynamics/balance.h ****     *Ported from soundpipe by Ben Sergentanis, May 2020
  18:../../DaisySP/Source/Dynamics/balance.h **** */
  19:../../DaisySP/Source/Dynamics/balance.h **** class Balance
  20:../../DaisySP/Source/Dynamics/balance.h **** {
  21:../../DaisySP/Source/Dynamics/balance.h ****   public:
  22:../../DaisySP/Source/Dynamics/balance.h ****     Balance() {}
  23:../../DaisySP/Source/Dynamics/balance.h ****     ~Balance() {}
  55              		.loc 2 23 5 is_stmt 1 view -0
  56              		.cfi_startproc
  57              		@ args = 0, pretend = 0, frame = 0
  58              		@ frame_needed = 0, uses_anonymous_args = 0
  59              		@ link register save eliminated.
  60              		.loc 2 23 17 is_stmt 0 view .LVU3
  61 0000 7047     		bx	lr
  62              		.cfi_endproc
  63              	.LFE2886:
  65              		.weak	_ZN7daisysp7BalanceD1Ev
  66              		.thumb_set _ZN7daisysp7BalanceD1Ev,_ZN7daisysp7BalanceD2Ev
  67 0002 00BF     		.section	.text._ZN5daisy9DaisySeedD2Ev,"axG",%progbits,_ZN5daisy9DaisySeedD5Ev,comdat
  68              		.align	1
  69              		.p2align 2,,3
  70              		.weak	_ZN5daisy9DaisySeedD2Ev
  71              		.syntax unified
  72              		.thumb
  73              		.thumb_func
  74              		.fpu fpv5-d16
  76              	_ZN5daisy9DaisySeedD2Ev:
  77              	.LVL2:
  78              	.LFB4207:
  79              		.file 3 "../../libdaisy/src/daisy_seed.h"
   1:../../libdaisy/src/daisy_seed.h **** #pragma once
ARM GAS  /tmp/ccoWCKC9.s 			page 3


   2:../../libdaisy/src/daisy_seed.h **** #ifndef DSY_SEED_H
   3:../../libdaisy/src/daisy_seed.h **** #define DSY_SEED_H
   4:../../libdaisy/src/daisy_seed.h **** 
   5:../../libdaisy/src/daisy_seed.h **** #include "daisy.h"
   6:../../libdaisy/src/daisy_seed.h **** 
   7:../../libdaisy/src/daisy_seed.h **** //Uncomment this out if you're still using the rev2 hardware
   8:../../libdaisy/src/daisy_seed.h **** //#define SEED_REV2
   9:../../libdaisy/src/daisy_seed.h **** 
  10:../../libdaisy/src/daisy_seed.h **** namespace daisy
  11:../../libdaisy/src/daisy_seed.h **** {
  12:../../libdaisy/src/daisy_seed.h **** /**
  13:../../libdaisy/src/daisy_seed.h ****    @brief This is the higher-level interface for the Daisy board. \n 
  14:../../libdaisy/src/daisy_seed.h ****     All basic peripheral configuration/initialization is setup here. \n
  15:../../libdaisy/src/daisy_seed.h **** 
  16:../../libdaisy/src/daisy_seed.h ****    @ingroup boards
  17:../../libdaisy/src/daisy_seed.h **** */
  18:../../libdaisy/src/daisy_seed.h **** class DaisySeed
  19:../../libdaisy/src/daisy_seed.h **** {
  20:../../libdaisy/src/daisy_seed.h ****   public:
  21:../../libdaisy/src/daisy_seed.h ****     DaisySeed() {}
  22:../../libdaisy/src/daisy_seed.h ****     ~DaisySeed() {}
  80              		.loc 3 22 5 is_stmt 1 view -0
  81              		.cfi_startproc
  82              		@ args = 0, pretend = 0, frame = 0
  83              		@ frame_needed = 0, uses_anonymous_args = 0
  84              		@ link register save eliminated.
  85              	.LBB93:
  86              	.LBI93:
  87              		.file 4 "../../libdaisy/src/sys/system.h"
   1:../../libdaisy/src/sys/system.h **** #ifndef DSY_SYSTEM_H
   2:../../libdaisy/src/sys/system.h **** #define DSY_SYSTEM_H
   3:../../libdaisy/src/sys/system.h **** 
   4:../../libdaisy/src/sys/system.h **** #ifndef UNIT_TEST // for unit tests, a dummy implementation is provided below
   5:../../libdaisy/src/sys/system.h **** 
   6:../../libdaisy/src/sys/system.h **** #include <cstdint>
   7:../../libdaisy/src/sys/system.h **** #include "per/tim.h"
   8:../../libdaisy/src/sys/system.h **** 
   9:../../libdaisy/src/sys/system.h **** namespace daisy
  10:../../libdaisy/src/sys/system.h **** {
  11:../../libdaisy/src/sys/system.h **** /** A handle for interacting with the Core System. 
  12:../../libdaisy/src/sys/system.h ****  ** This includes the Clock tree, MPU, global DMA initialization,
  13:../../libdaisy/src/sys/system.h ****  ** cache handling, and any other necessary global initiailzation
  14:../../libdaisy/src/sys/system.h ****  **
  15:../../libdaisy/src/sys/system.h ****  ** @author shensley
  16:../../libdaisy/src/sys/system.h ****  ** @addtogroup system
  17:../../libdaisy/src/sys/system.h ****  */
  18:../../libdaisy/src/sys/system.h **** class System
  19:../../libdaisy/src/sys/system.h **** {
  20:../../libdaisy/src/sys/system.h ****   public:
  21:../../libdaisy/src/sys/system.h ****     /** Contains settings for initializing the System */
  22:../../libdaisy/src/sys/system.h ****     struct Config
  23:../../libdaisy/src/sys/system.h ****     {
  24:../../libdaisy/src/sys/system.h ****         /** Specifies the system clock frequency that feeds APB/AHB clocks, etc. */
  25:../../libdaisy/src/sys/system.h ****         enum class SysClkFreq
  26:../../libdaisy/src/sys/system.h ****         {
  27:../../libdaisy/src/sys/system.h ****             FREQ_400MHZ,
  28:../../libdaisy/src/sys/system.h ****             FREQ_480MHZ,
ARM GAS  /tmp/ccoWCKC9.s 			page 4


  29:../../libdaisy/src/sys/system.h ****         };
  30:../../libdaisy/src/sys/system.h **** 
  31:../../libdaisy/src/sys/system.h ****         /** Method to call on the struct to set to defaults
  32:../../libdaisy/src/sys/system.h ****          ** CPU Freq set to 400MHz
  33:../../libdaisy/src/sys/system.h ****          ** Cache Enabled 
  34:../../libdaisy/src/sys/system.h ****          ** */
  35:../../libdaisy/src/sys/system.h ****         void Defaults()
  36:../../libdaisy/src/sys/system.h ****         {
  37:../../libdaisy/src/sys/system.h ****             cpu_freq   = SysClkFreq::FREQ_400MHZ;
  38:../../libdaisy/src/sys/system.h ****             use_dcache = true;
  39:../../libdaisy/src/sys/system.h ****             use_icache = true;
  40:../../libdaisy/src/sys/system.h ****         }
  41:../../libdaisy/src/sys/system.h **** 
  42:../../libdaisy/src/sys/system.h ****         /** Method to call on the struct to set to boost mode:
  43:../../libdaisy/src/sys/system.h ****          ** CPU Freq set to 480MHz
  44:../../libdaisy/src/sys/system.h ****          ** Cache Enabled 
  45:../../libdaisy/src/sys/system.h ****          ** */
  46:../../libdaisy/src/sys/system.h ****         void Boost()
  47:../../libdaisy/src/sys/system.h ****         {
  48:../../libdaisy/src/sys/system.h ****             cpu_freq   = SysClkFreq::FREQ_480MHZ;
  49:../../libdaisy/src/sys/system.h ****             use_dcache = true;
  50:../../libdaisy/src/sys/system.h ****             use_icache = true;
  51:../../libdaisy/src/sys/system.h ****         }
  52:../../libdaisy/src/sys/system.h **** 
  53:../../libdaisy/src/sys/system.h ****         SysClkFreq cpu_freq;
  54:../../libdaisy/src/sys/system.h ****         bool       use_dcache;
  55:../../libdaisy/src/sys/system.h ****         bool       use_icache;
  56:../../libdaisy/src/sys/system.h ****     };
  57:../../libdaisy/src/sys/system.h **** 
  58:../../libdaisy/src/sys/system.h ****     System() {}
  59:../../libdaisy/src/sys/system.h ****     ~System() {}
  88              		.loc 4 59 5 view .LVU5
  89              		.loc 4 59 5 is_stmt 0 view .LVU6
  90              	.LBE93:
  91              	.LBB94:
  92              	.LBI94:
  93              		.file 5 "../../libdaisy/src/hid/usb.h"
   1:../../libdaisy/src/hid/usb.h **** #pragma once
   2:../../libdaisy/src/hid/usb.h **** #ifndef DSY_HID_USB_H
   3:../../libdaisy/src/hid/usb.h **** #define DSY_HID_USB_H
   4:../../libdaisy/src/hid/usb.h **** #include <stdint.h>
   5:../../libdaisy/src/hid/usb.h **** #include <stdlib.h>
   6:../../libdaisy/src/hid/usb.h **** 
   7:../../libdaisy/src/hid/usb.h **** namespace daisy
   8:../../libdaisy/src/hid/usb.h **** /** @addtogroup externals
   9:../../libdaisy/src/hid/usb.h ****     @{
  10:../../libdaisy/src/hid/usb.h **** */
  11:../../libdaisy/src/hid/usb.h **** 
  12:../../libdaisy/src/hid/usb.h **** {
  13:../../libdaisy/src/hid/usb.h **** /** 
  14:../../libdaisy/src/hid/usb.h ****     @brief Interface for initializing and using the USB Peripherals on the daisy
  15:../../libdaisy/src/hid/usb.h ****     @author Stephen Hensley
  16:../../libdaisy/src/hid/usb.h ****     @date December 2019
  17:../../libdaisy/src/hid/usb.h **** */
  18:../../libdaisy/src/hid/usb.h **** class UsbHandle
  19:../../libdaisy/src/hid/usb.h **** {
  20:../../libdaisy/src/hid/usb.h ****   public:
ARM GAS  /tmp/ccoWCKC9.s 			page 5


  21:../../libdaisy/src/hid/usb.h ****     /** Return values for USBHandle Functions */
  22:../../libdaisy/src/hid/usb.h ****     enum class Result
  23:../../libdaisy/src/hid/usb.h ****     {
  24:../../libdaisy/src/hid/usb.h ****         OK,
  25:../../libdaisy/src/hid/usb.h ****         ERR,
  26:../../libdaisy/src/hid/usb.h ****     };
  27:../../libdaisy/src/hid/usb.h **** 
  28:../../libdaisy/src/hid/usb.h ****     /** Specified which of the two USB Peripherals to initialize. */
  29:../../libdaisy/src/hid/usb.h ****     enum UsbPeriph
  30:../../libdaisy/src/hid/usb.h ****     {
  31:../../libdaisy/src/hid/usb.h ****         FS_INTERNAL, /**< Internal pin */
  32:../../libdaisy/src/hid/usb.h ****         FS_EXTERNAL, /**< FS External D+ pin is Pin 38 (GPIO32). FS External D- pin is Pin 37 (GPIO
  33:../../libdaisy/src/hid/usb.h ****         FS_BOTH,     /**< Both */
  34:../../libdaisy/src/hid/usb.h ****     };
  35:../../libdaisy/src/hid/usb.h **** 
  36:../../libdaisy/src/hid/usb.h **** 
  37:../../libdaisy/src/hid/usb.h ****     /** Function called upon reception of a buffer */
  38:../../libdaisy/src/hid/usb.h ****     typedef void (*ReceiveCallback)(uint8_t* buff, uint32_t* len);
  39:../../libdaisy/src/hid/usb.h **** 
  40:../../libdaisy/src/hid/usb.h ****     UsbHandle() {}
  41:../../libdaisy/src/hid/usb.h **** 
  42:../../libdaisy/src/hid/usb.h ****     ~UsbHandle() {}
  94              		.loc 5 42 5 is_stmt 1 view .LVU7
  95              		.loc 5 42 5 is_stmt 0 view .LVU8
  96              	.LBE94:
  97              	.LBB95:
  98              	.LBI95:
  99              		.file 6 "../../libdaisy/src/per/adc.h"
   1:../../libdaisy/src/per/adc.h **** #pragma once
   2:../../libdaisy/src/per/adc.h **** #ifndef DSY_ADC_H
   3:../../libdaisy/src/per/adc.h **** #define DSY_ADC_H /**< Macro */
   4:../../libdaisy/src/per/adc.h **** #include <stdint.h>
   5:../../libdaisy/src/per/adc.h **** #include <stdlib.h>
   6:../../libdaisy/src/per/adc.h **** #include "daisy_core.h"
   7:../../libdaisy/src/per/adc.h **** #include "per/gpio.h"
   8:../../libdaisy/src/per/adc.h **** 
   9:../../libdaisy/src/per/adc.h **** #define DSY_ADC_MAX_CHANNELS 14 /**< Maximum number of ADC channels */
  10:../../libdaisy/src/per/adc.h **** 
  11:../../libdaisy/src/per/adc.h **** namespace daisy
  12:../../libdaisy/src/per/adc.h **** {
  13:../../libdaisy/src/per/adc.h **** /** @addtogroup analog_digital_conversion
  14:../../libdaisy/src/per/adc.h ****     @{
  15:../../libdaisy/src/per/adc.h **** */
  16:../../libdaisy/src/per/adc.h **** 
  17:../../libdaisy/src/per/adc.h **** /* While there may not be many configuration options here,
  18:../../libdaisy/src/per/adc.h **** using a struct like this allows us to add more configuration
  19:../../libdaisy/src/per/adc.h **** later without breaking existing functionality.
  20:../../libdaisy/src/per/adc.h **** */
  21:../../libdaisy/src/per/adc.h **** 
  22:../../libdaisy/src/per/adc.h **** /** Configuration Structure for a given channel */
  23:../../libdaisy/src/per/adc.h **** struct AdcChannelConfig
  24:../../libdaisy/src/per/adc.h **** {
  25:../../libdaisy/src/per/adc.h ****     /** Which pin to use for multiplexing */
  26:../../libdaisy/src/per/adc.h ****     enum MuxPin
  27:../../libdaisy/src/per/adc.h ****     {
  28:../../libdaisy/src/per/adc.h ****         MUX_SEL_0,    /**< & */
  29:../../libdaisy/src/per/adc.h ****         MUX_SEL_1,    /**< & */
ARM GAS  /tmp/ccoWCKC9.s 			page 6


  30:../../libdaisy/src/per/adc.h ****         MUX_SEL_2,    /**< & */
  31:../../libdaisy/src/per/adc.h ****         MUX_SEL_LAST, /**< & */
  32:../../libdaisy/src/per/adc.h ****     };
  33:../../libdaisy/src/per/adc.h **** 
  34:../../libdaisy/src/per/adc.h ****     /** Initializes a single ADC pin as an ADC. 
  35:../../libdaisy/src/per/adc.h ****     \param pin Pin to init.
  36:../../libdaisy/src/per/adc.h ****      */
  37:../../libdaisy/src/per/adc.h ****     void InitSingle(dsy_gpio_pin pin);
  38:../../libdaisy/src/per/adc.h **** 
  39:../../libdaisy/src/per/adc.h ****     /** 
  40:../../libdaisy/src/per/adc.h ****     Initializes a single ADC pin as a Multiplexed ADC.
  41:../../libdaisy/src/per/adc.h ****     Requires a CD405X Multiplexer connected to the pin.
  42:../../libdaisy/src/per/adc.h ****     You only need to supply the mux pins that are required,
  43:../../libdaisy/src/per/adc.h ****     e.g. a 4052 mux would only require mux_0 and mux_1.
  44:../../libdaisy/src/per/adc.h ****     Internal Callbacks handle the pin addressing.
  45:../../libdaisy/src/per/adc.h ****     \param mux_channels must be 1-8
  46:../../libdaisy/src/per/adc.h ****     \param mux_0 First mux pin
  47:../../libdaisy/src/per/adc.h ****     \param mux_1 Second mux pin
  48:../../libdaisy/src/per/adc.h ****     \param mux_2 Third mux pin
  49:../../libdaisy/src/per/adc.h ****     \param adc_pin &
  50:../../libdaisy/src/per/adc.h ****     */
  51:../../libdaisy/src/per/adc.h ****     void InitMux(dsy_gpio_pin adc_pin,
  52:../../libdaisy/src/per/adc.h ****                  size_t       mux_channels,
  53:../../libdaisy/src/per/adc.h ****                  dsy_gpio_pin mux_0,
  54:../../libdaisy/src/per/adc.h ****                  dsy_gpio_pin mux_1 = {DSY_GPIOX, 0},
  55:../../libdaisy/src/per/adc.h ****                  dsy_gpio_pin mux_2 = {DSY_GPIOX, 0});
  56:../../libdaisy/src/per/adc.h **** 
  57:../../libdaisy/src/per/adc.h ****     dsy_gpio pin_;                   /**< & */
  58:../../libdaisy/src/per/adc.h ****     dsy_gpio mux_pin_[MUX_SEL_LAST]; /**< & */
  59:../../libdaisy/src/per/adc.h ****     uint8_t  mux_channels_;          /**< & */
  60:../../libdaisy/src/per/adc.h **** };
  61:../../libdaisy/src/per/adc.h **** 
  62:../../libdaisy/src/per/adc.h **** /**
  63:../../libdaisy/src/per/adc.h ****    Handler for analog to digital conversion
  64:../../libdaisy/src/per/adc.h **** */
  65:../../libdaisy/src/per/adc.h **** class AdcHandle
  66:../../libdaisy/src/per/adc.h **** {
  67:../../libdaisy/src/per/adc.h ****   public:
  68:../../libdaisy/src/per/adc.h ****     /** Supported oversampling amounts */
  69:../../libdaisy/src/per/adc.h ****     enum OverSampling
  70:../../libdaisy/src/per/adc.h ****     {
  71:../../libdaisy/src/per/adc.h ****         OVS_NONE, /**< & */
  72:../../libdaisy/src/per/adc.h ****         OVS_4,    /**< & */
  73:../../libdaisy/src/per/adc.h ****         OVS_8,    /**< & */
  74:../../libdaisy/src/per/adc.h ****         OVS_16,   /**< & */
  75:../../libdaisy/src/per/adc.h ****         OVS_32,   /**< & */
  76:../../libdaisy/src/per/adc.h ****         OVS_64,   /**< & */
  77:../../libdaisy/src/per/adc.h ****         OVS_128,  /**< & */
  78:../../libdaisy/src/per/adc.h ****         OVS_256,  /**< & */
  79:../../libdaisy/src/per/adc.h ****         OVS_512,  /**< & */
  80:../../libdaisy/src/per/adc.h ****         OVS_1024, /**< & */
  81:../../libdaisy/src/per/adc.h ****         OVS_LAST, /**< & */
  82:../../libdaisy/src/per/adc.h ****     };
  83:../../libdaisy/src/per/adc.h **** 
  84:../../libdaisy/src/per/adc.h ****     AdcHandle() {}
  85:../../libdaisy/src/per/adc.h ****     ~AdcHandle() {}
 100              		.loc 6 85 5 is_stmt 1 view .LVU9
ARM GAS  /tmp/ccoWCKC9.s 			page 7


 101              		.loc 6 85 5 is_stmt 0 view .LVU10
 102              	.LBE95:
 103              	.LBB96:
 104              	.LBI96:
 105              		.file 7 "../../libdaisy/src/hid/audio.h"
   1:../../libdaisy/src/hid/audio.h **** #ifndef DSY_AUDIO_H
   2:../../libdaisy/src/hid/audio.h **** #define DSY_AUDIO_H /**< & */
   3:../../libdaisy/src/hid/audio.h **** 
   4:../../libdaisy/src/hid/audio.h **** #include "per/sai.h"
   5:../../libdaisy/src/hid/audio.h **** 
   6:../../libdaisy/src/hid/audio.h **** namespace daisy
   7:../../libdaisy/src/hid/audio.h **** {
   8:../../libdaisy/src/hid/audio.h **** class AudioHandle
   9:../../libdaisy/src/hid/audio.h **** {
  10:../../libdaisy/src/hid/audio.h ****   public:
  11:../../libdaisy/src/hid/audio.h ****     /** Manually configurable details about the Audio Engine */
  12:../../libdaisy/src/hid/audio.h ****     /** TODO: Figure out how to get samplerate in here. */
  13:../../libdaisy/src/hid/audio.h ****     struct Config
  14:../../libdaisy/src/hid/audio.h ****     {
  15:../../libdaisy/src/hid/audio.h ****         size_t                        blocksize;
  16:../../libdaisy/src/hid/audio.h ****         SaiHandle::Config::SampleRate samplerate;
  17:../../libdaisy/src/hid/audio.h ****         float                         postgain;
  18:../../libdaisy/src/hid/audio.h ****     };
  19:../../libdaisy/src/hid/audio.h **** 
  20:../../libdaisy/src/hid/audio.h ****     enum class Result
  21:../../libdaisy/src/hid/audio.h ****     {
  22:../../libdaisy/src/hid/audio.h ****         OK,
  23:../../libdaisy/src/hid/audio.h ****         ERR,
  24:../../libdaisy/src/hid/audio.h ****     };
  25:../../libdaisy/src/hid/audio.h **** 
  26:../../libdaisy/src/hid/audio.h ****     /** Non-Interleaving input buffer
  27:../../libdaisy/src/hid/audio.h ****      * Buffer arranged by float[chn][sample] 
  28:../../libdaisy/src/hid/audio.h ****      * const so that the user can't modify the input
  29:../../libdaisy/src/hid/audio.h ****     */
  30:../../libdaisy/src/hid/audio.h ****     typedef const float* const* InputBuffer;
  31:../../libdaisy/src/hid/audio.h **** 
  32:../../libdaisy/src/hid/audio.h ****     /** Non-Interleaving output buffer
  33:../../libdaisy/src/hid/audio.h ****      * Arranged by float[chn][sample] 
  34:../../libdaisy/src/hid/audio.h ****     */
  35:../../libdaisy/src/hid/audio.h ****     typedef float** OutputBuffer;
  36:../../libdaisy/src/hid/audio.h **** 
  37:../../libdaisy/src/hid/audio.h ****     /** Type for a Non-Interleaving audio callback 
  38:../../libdaisy/src/hid/audio.h ****    * Non-Interleaving audio callbacks in daisy will be of this type
  39:../../libdaisy/src/hid/audio.h ****   */
  40:../../libdaisy/src/hid/audio.h ****     typedef void (*AudioCallback)(InputBuffer  in,
  41:../../libdaisy/src/hid/audio.h ****                                   OutputBuffer out,
  42:../../libdaisy/src/hid/audio.h ****                                   size_t       size);
  43:../../libdaisy/src/hid/audio.h **** 
  44:../../libdaisy/src/hid/audio.h ****     /** Interleaving Input buffer
  45:../../libdaisy/src/hid/audio.h ****      ** audio is prepared as { L0, R0, L1, R1, . . . LN, RN }]
  46:../../libdaisy/src/hid/audio.h ****      ** this is const, as the user shouldn't modify it
  47:../../libdaisy/src/hid/audio.h ****     */
  48:../../libdaisy/src/hid/audio.h ****     typedef const float* InterleavingInputBuffer;
  49:../../libdaisy/src/hid/audio.h **** 
  50:../../libdaisy/src/hid/audio.h ****     /** Interleaving Output buffer 
  51:../../libdaisy/src/hid/audio.h ****      ** audio is prepared as { L0, R0, L1, R1, . . . LN, RN }
  52:../../libdaisy/src/hid/audio.h ****     */
ARM GAS  /tmp/ccoWCKC9.s 			page 8


  53:../../libdaisy/src/hid/audio.h ****     typedef float* InterleavingOutputBuffer;
  54:../../libdaisy/src/hid/audio.h **** 
  55:../../libdaisy/src/hid/audio.h ****     /** Interleaving Audio Callback 
  56:../../libdaisy/src/hid/audio.h ****    * Interleaving audio callbacks in daisy must be of this type
  57:../../libdaisy/src/hid/audio.h ****   */
  58:../../libdaisy/src/hid/audio.h ****     typedef void (*InterleavingAudioCallback)(InterleavingInputBuffer  in,
  59:../../libdaisy/src/hid/audio.h ****                                               InterleavingOutputBuffer out,
  60:../../libdaisy/src/hid/audio.h ****                                               size_t                   size);
  61:../../libdaisy/src/hid/audio.h **** 
  62:../../libdaisy/src/hid/audio.h ****     AudioHandle() : pimpl_(nullptr) {}
  63:../../libdaisy/src/hid/audio.h ****     ~AudioHandle() {}
 106              		.loc 7 63 5 is_stmt 1 view .LVU11
 107              		.loc 7 63 5 is_stmt 0 view .LVU12
 108              	.LBE96:
 109              		.loc 3 22 19 view .LVU13
 110 0000 7047     		bx	lr
 111              		.cfi_endproc
 112              	.LFE4207:
 114              		.weak	_ZN5daisy9DaisySeedD1Ev
 115              		.thumb_set _ZN5daisy9DaisySeedD1Ev,_ZN5daisy9DaisySeedD2Ev
 116 0002 00BF     		.section	.text._ZL13AudioCallbackPKfPfj,"ax",%progbits
 117              		.align	1
 118              		.p2align 2,,3
 119              		.syntax unified
 120              		.thumb
 121              		.thumb_func
 122              		.fpu fpv5-d16
 124              	_ZL13AudioCallbackPKfPfj:
 125              	.LVL3:
 126              	.LFB4212:
 127              		.file 8 "balance.cpp"
   1:balance.cpp   **** #include "daisysp.h"
   2:balance.cpp   **** #include "daisy_seed.h"
   3:balance.cpp   **** 
   4:balance.cpp   **** using namespace daisysp;
   5:balance.cpp   **** using namespace daisy;
   6:balance.cpp   **** 
   7:balance.cpp   **** static DaisySeed  seed;
   8:balance.cpp   **** static Oscillator osc1, osc2, lfo;
   9:balance.cpp   **** static Balance    bal;
  10:balance.cpp   **** 
  11:balance.cpp   **** static void AudioCallback(AudioHandle::InterleavingInputBuffer  in,
  12:balance.cpp   ****                           AudioHandle::InterleavingOutputBuffer out,
  13:balance.cpp   ****                           size_t                                size)
  14:balance.cpp   **** {
 128              		.loc 8 14 1 is_stmt 1 view -0
 129              		.cfi_startproc
 130              		@ args = 0, pretend = 0, frame = 0
 131              		@ frame_needed = 0, uses_anonymous_args = 0
  15:balance.cpp   ****     float sig1, sig2, sig3;
 132              		.loc 8 15 5 view .LVU15
  16:balance.cpp   ****     for(size_t i = 0; i < size; i += 2)
 133              		.loc 8 16 5 view .LVU16
 134              	.LBB97:
 135              		.loc 8 16 25 view .LVU17
 136 0000 4AB3     		cbz	r2, .L13
 137 0002 013A     		subs	r2, r2, #1
ARM GAS  /tmp/ccoWCKC9.s 			page 9


 138              	.LVL4:
 139              		.loc 8 16 25 is_stmt 0 view .LVU18
 140              	.LBE97:
  14:balance.cpp   ****     float sig1, sig2, sig3;
 141              		.loc 8 14 1 view .LVU19
 142 0004 70B5     		push	{r4, r5, r6, lr}
 143              		.cfi_def_cfa_offset 16
 144              		.cfi_offset 4, -16
 145              		.cfi_offset 5, -12
 146              		.cfi_offset 6, -8
 147              		.cfi_offset 14, -4
 148 0006 0C46     		mov	r4, r1
 149              	.LBB98:
 150              		.loc 8 16 16 view .LVU20
 151 0008 0025     		movs	r5, #0
 152 000a 22F00106 		bic	r6, r2, #1
 153              	.LBE98:
  14:balance.cpp   ****     float sig1, sig2, sig3;
 154              		.loc 8 14 1 view .LVU21
 155 000e 2DED028B 		vpush.64	{d8}
 156              		.cfi_def_cfa_offset 24
 157              		.cfi_offset 80, -24
 158              		.cfi_offset 81, -20
 159              	.LVL5:
 160              	.L7:
 161              	.LBB99:
  17:balance.cpp   ****     {
  18:balance.cpp   ****         sig1 = osc1.Process();
 162              		.loc 8 18 9 is_stmt 1 discriminator 2 view .LVU22
 163              		.loc 8 18 28 is_stmt 0 discriminator 2 view .LVU23
 164 0012 1148     		ldr	r0, .L16
 165 0014 0834     		adds	r4, r4, #8
 166 0016 FFF7FEFF 		bl	_ZN7daisysp10Oscillator7ProcessEv
 167              	.LVL6:
  19:balance.cpp   ****         sig2 = osc2.Process();
 168              		.loc 8 19 28 discriminator 2 view .LVU24
 169 001a 1048     		ldr	r0, .L16+4
  18:balance.cpp   ****         sig2 = osc2.Process();
 170              		.loc 8 18 28 discriminator 2 view .LVU25
 171 001c F0EE408A 		vmov.f32	s17, s0
 172              	.LVL7:
 173              		.loc 8 19 9 is_stmt 1 discriminator 2 view .LVU26
 174              		.loc 8 19 28 is_stmt 0 discriminator 2 view .LVU27
 175 0020 FFF7FEFF 		bl	_ZN7daisysp10Oscillator7ProcessEv
 176              	.LVL8:
  20:balance.cpp   ****         sig3 = lfo.Process();
 177              		.loc 8 20 27 discriminator 2 view .LVU28
 178 0024 0E48     		ldr	r0, .L16+8
  19:balance.cpp   ****         sig2 = osc2.Process();
 179              		.loc 8 19 28 discriminator 2 view .LVU29
 180 0026 B0EE408A 		vmov.f32	s16, s0
 181              	.LVL9:
 182              		.loc 8 20 9 is_stmt 1 discriminator 2 view .LVU30
 183              		.loc 8 20 27 is_stmt 0 discriminator 2 view .LVU31
 184 002a FFF7FEFF 		bl	_ZN7daisysp10Oscillator7ProcessEv
 185              	.LVL10:
 186              		.loc 8 20 27 discriminator 2 view .LVU32
ARM GAS  /tmp/ccoWCKC9.s 			page 10


 187 002e F0EE400A 		vmov.f32	s1, s0
 188              	.LVL11:
  21:balance.cpp   ****         sig2 *= sig3;
 189              		.loc 8 21 9 is_stmt 1 discriminator 2 view .LVU33
  22:balance.cpp   ****         sig1 = bal.Process(sig1, sig2);
 190              		.loc 8 22 9 discriminator 2 view .LVU34
 191              		.loc 8 22 27 is_stmt 0 discriminator 2 view .LVU35
 192 0032 0C48     		ldr	r0, .L16+12
 193 0034 B0EE680A 		vmov.f32	s0, s17
 194              	.LVL12:
 195              		.loc 8 22 27 discriminator 2 view .LVU36
 196 0038 68EE200A 		vmul.f32	s1, s16, s1
 197              	.LVL13:
 198              		.loc 8 22 27 discriminator 2 view .LVU37
 199 003c FFF7FEFF 		bl	_ZN7daisysp7Balance7ProcessEff
 200              	.LVL14:
  23:balance.cpp   **** 
  24:balance.cpp   ****         // left out
  25:balance.cpp   ****         out[i] = sig1;
 201              		.loc 8 25 9 is_stmt 1 discriminator 2 view .LVU38
  16:balance.cpp   ****     {
 202              		.loc 8 16 25 is_stmt 0 discriminator 2 view .LVU39
 203 0040 B542     		cmp	r5, r6
 204              		.loc 8 25 16 discriminator 2 view .LVU40
 205 0042 04ED020A 		vstr.32	s0, [r4, #-8]
  26:balance.cpp   **** 
  27:balance.cpp   ****         // right out
  28:balance.cpp   ****         out[i + 1] = sig1;
 206              		.loc 8 28 9 is_stmt 1 discriminator 2 view .LVU41
  16:balance.cpp   ****     {
 207              		.loc 8 16 25 is_stmt 0 discriminator 2 view .LVU42
 208 0046 05F10205 		add	r5, r5, #2
 209              	.LVL15:
 210              		.loc 8 28 20 discriminator 2 view .LVU43
 211 004a 04ED010A 		vstr.32	s0, [r4, #-4]
  16:balance.cpp   ****     {
 212              		.loc 8 16 5 is_stmt 1 discriminator 2 view .LVU44
 213              	.LVL16:
  16:balance.cpp   ****     {
 214              		.loc 8 16 25 discriminator 2 view .LVU45
 215 004e E0D1     		bne	.L7
 216              	.LBE99:
  29:balance.cpp   ****     }
  30:balance.cpp   **** }
 217              		.loc 8 30 1 is_stmt 0 view .LVU46
 218 0050 BDEC028B 		vldm	sp!, {d8}
 219              		.cfi_restore 80
 220              		.cfi_restore 81
 221              		.cfi_def_cfa_offset 16
 222              		.loc 8 30 1 view .LVU47
 223 0054 70BD     		pop	{r4, r5, r6, pc}
 224              	.LVL17:
 225              	.L13:
 226              		.cfi_def_cfa_offset 0
 227              		.cfi_restore 4
 228              		.cfi_restore 5
 229              		.cfi_restore 6
ARM GAS  /tmp/ccoWCKC9.s 			page 11


 230              		.cfi_restore 14
 231              		.loc 8 30 1 view .LVU48
 232 0056 7047     		bx	lr
 233              	.L17:
 234              		.align	2
 235              	.L16:
 236 0058 00000000 		.word	.LANCHOR0
 237 005c 00000000 		.word	.LANCHOR1
 238 0060 00000000 		.word	.LANCHOR2
 239 0064 00000000 		.word	.LANCHOR3
 240              		.cfi_endproc
 241              	.LFE4212:
 243              		.section	.text.startup.main,"ax",%progbits
 244              		.align	1
 245              		.p2align 2,,3
 246              		.global	main
 247              		.syntax unified
 248              		.thumb
 249              		.thumb_func
 250              		.fpu fpv5-d16
 252              	main:
 253              	.LFB4213:
  31:balance.cpp   **** 
  32:balance.cpp   **** int main(void)
  33:balance.cpp   **** {
 254              		.loc 8 33 1 is_stmt 1 view -0
 255              		.cfi_startproc
 256              		@ args = 0, pretend = 0, frame = 0
 257              		@ frame_needed = 0, uses_anonymous_args = 0
  34:balance.cpp   ****     // initialize seed hardware and oscillator daisysp module
  35:balance.cpp   ****     float sample_rate;
 258              		.loc 8 35 5 view .LVU50
  36:balance.cpp   ****     seed.Configure();
 259              		.loc 8 36 5 view .LVU51
  33:balance.cpp   ****     // initialize seed hardware and oscillator daisysp module
 260              		.loc 8 33 1 is_stmt 0 view .LVU52
 261 0000 2DE9F047 		push	{r4, r5, r6, r7, r8, r9, r10, lr}
 262              		.cfi_def_cfa_offset 32
 263              		.cfi_offset 4, -32
 264              		.cfi_offset 5, -28
 265              		.cfi_offset 6, -24
 266              		.cfi_offset 7, -20
 267              		.cfi_offset 8, -16
 268              		.cfi_offset 9, -12
 269              		.cfi_offset 10, -8
 270              		.cfi_offset 14, -4
 271              		.loc 8 36 19 view .LVU53
 272 0004 4948     		ldr	r0, .L21
 273              	.LBB100:
 274              	.LBB101:
  17:../../DaisySP/Source/Synthesis/oscillator.h ****     /** Choices for output waveforms, POLYBLEP are appropriately labeled. Others are naive forms.
  18:../../DaisySP/Source/Synthesis/oscillator.h ****     */
  19:../../DaisySP/Source/Synthesis/oscillator.h ****     enum
  20:../../DaisySP/Source/Synthesis/oscillator.h ****     {
  21:../../DaisySP/Source/Synthesis/oscillator.h ****         WAVE_SIN,
  22:../../DaisySP/Source/Synthesis/oscillator.h ****         WAVE_TRI,
  23:../../DaisySP/Source/Synthesis/oscillator.h ****         WAVE_SAW,
ARM GAS  /tmp/ccoWCKC9.s 			page 12


  24:../../DaisySP/Source/Synthesis/oscillator.h ****         WAVE_RAMP,
  25:../../DaisySP/Source/Synthesis/oscillator.h ****         WAVE_SQUARE,
  26:../../DaisySP/Source/Synthesis/oscillator.h ****         WAVE_POLYBLEP_TRI,
  27:../../DaisySP/Source/Synthesis/oscillator.h ****         WAVE_POLYBLEP_SAW,
  28:../../DaisySP/Source/Synthesis/oscillator.h ****         WAVE_POLYBLEP_SQUARE,
  29:../../DaisySP/Source/Synthesis/oscillator.h ****         WAVE_LAST,
  30:../../DaisySP/Source/Synthesis/oscillator.h ****     };
  31:../../DaisySP/Source/Synthesis/oscillator.h **** 
  32:../../DaisySP/Source/Synthesis/oscillator.h **** 
  33:../../DaisySP/Source/Synthesis/oscillator.h ****     /** Initializes the Oscillator
  34:../../DaisySP/Source/Synthesis/oscillator.h **** 
  35:../../DaisySP/Source/Synthesis/oscillator.h ****         \param sample_rate - sample rate of the audio engine being run, and the frequency that the 
  36:../../DaisySP/Source/Synthesis/oscillator.h **** 
  37:../../DaisySP/Source/Synthesis/oscillator.h ****         Defaults:
  38:../../DaisySP/Source/Synthesis/oscillator.h ****         - freq_ = 100 Hz
  39:../../DaisySP/Source/Synthesis/oscillator.h ****         - amp_ = 0.5
  40:../../DaisySP/Source/Synthesis/oscillator.h ****         - waveform_ = sine wave.
  41:../../DaisySP/Source/Synthesis/oscillator.h ****     */
  42:../../DaisySP/Source/Synthesis/oscillator.h ****     void Init(float sample_rate)
  43:../../DaisySP/Source/Synthesis/oscillator.h ****     {
  44:../../DaisySP/Source/Synthesis/oscillator.h ****         sr_        = sample_rate;
  45:../../DaisySP/Source/Synthesis/oscillator.h ****         sr_recip_  = 1.0f / sample_rate;
  46:../../DaisySP/Source/Synthesis/oscillator.h ****         freq_      = 100.0f;
  47:../../DaisySP/Source/Synthesis/oscillator.h ****         amp_       = 0.5f;
 275              		.loc 1 47 20 view .LVU54
 276 0006 4FF07C57 		mov	r7, #1056964608
  44:../../DaisySP/Source/Synthesis/oscillator.h ****         sr_recip_  = 1.0f / sample_rate;
 277              		.loc 1 44 20 view .LVU55
 278 000a 494E     		ldr	r6, .L21+4
  48:../../DaisySP/Source/Synthesis/oscillator.h ****         phase_     = 0.0f;
 279              		.loc 1 48 20 view .LVU56
 280 000c 4FF0000A 		mov	r10, #0
 281              	.LBE101:
 282              	.LBE100:
 283              	.LBB108:
 284              	.LBB109:
  44:../../DaisySP/Source/Synthesis/oscillator.h ****         sr_recip_  = 1.0f / sample_rate;
 285              		.loc 1 44 20 view .LVU57
 286 0010 484D     		ldr	r5, .L21+8
 287              	.LBE109:
 288              	.LBE108:
 289              	.LBB114:
 290              	.LBB102:
  49:../../DaisySP/Source/Synthesis/oscillator.h ****         phase_inc_ = CalcPhaseInc(freq_);
  50:../../DaisySP/Source/Synthesis/oscillator.h ****         waveform_  = WAVE_SIN;
  51:../../DaisySP/Source/Synthesis/oscillator.h ****         eoc_       = true;
  52:../../DaisySP/Source/Synthesis/oscillator.h ****         eor_       = true;
 291              		.loc 1 52 20 view .LVU58
 292 0012 40F20119 		movw	r9, #257
 293              	.LBE102:
 294              	.LBE114:
 295              	.LBB115:
 296              	.LBB116:
  44:../../DaisySP/Source/Synthesis/oscillator.h ****         sr_recip_  = 1.0f / sample_rate;
 297              		.loc 1 44 20 view .LVU59
 298 0016 484C     		ldr	r4, .L21+12
 299              	.LBE116:
ARM GAS  /tmp/ccoWCKC9.s 			page 13


 300              	.LBE115:
  33:balance.cpp   ****     // initialize seed hardware and oscillator daisysp module
 301              		.loc 8 33 1 view .LVU60
 302 0018 2DED048B 		vpush.64	{d8, d9}
 303              		.cfi_def_cfa_offset 48
 304              		.cfi_offset 80, -48
 305              		.cfi_offset 81, -44
 306              		.cfi_offset 82, -40
 307              		.cfi_offset 83, -36
 308              		.loc 8 36 19 view .LVU61
 309 001c FFF7FEFF 		bl	_ZN5daisy9DaisySeed9ConfigureEv
 310              	.LVL18:
  37:balance.cpp   ****     seed.Init();
 311              		.loc 8 37 5 is_stmt 1 view .LVU62
 312              		.loc 8 37 14 is_stmt 0 view .LVU63
 313 0020 0021     		movs	r1, #0
 314 0022 4248     		ldr	r0, .L21
 315              	.LBB120:
 316              	.LBB103:
  50:../../DaisySP/Source/Synthesis/oscillator.h ****         eoc_       = true;
 317              		.loc 1 50 20 view .LVU64
 318 0024 8846     		mov	r8, r1
 319              	.LBE103:
 320              	.LBE120:
 321              		.loc 8 37 14 view .LVU65
 322 0026 FFF7FEFF 		bl	_ZN5daisy9DaisySeed4InitEb
 323              	.LVL19:
  38:balance.cpp   ****     sample_rate = seed.AudioSampleRate();
 324              		.loc 8 38 5 is_stmt 1 view .LVU66
 325              		.loc 8 38 39 is_stmt 0 view .LVU67
 326 002a 4048     		ldr	r0, .L21
 327 002c FFF7FEFF 		bl	_ZN5daisy9DaisySeed15AudioSampleRateEv
 328              	.LVL20:
 329              	.LBB121:
 330              	.LBB104:
  45:../../DaisySP/Source/Synthesis/oscillator.h ****         freq_      = 100.0f;
 331              		.loc 1 45 27 view .LVU68
 332 0030 F7EE007A 		vmov.f32	s15, #1.0e+0
  46:../../DaisySP/Source/Synthesis/oscillator.h ****         amp_       = 0.5f;
 333              		.loc 1 46 20 view .LVU69
 334 0034 DFED418A 		vldr.32	s17, .L21+16
 335              	.LBE104:
 336              	.LBE121:
 337              		.loc 8 38 39 view .LVU70
 338 0038 B0EE408A 		vmov.f32	s16, s0
 339              	.LVL21:
  39:balance.cpp   ****     osc1.Init(sample_rate);
 340              		.loc 8 39 5 is_stmt 1 view .LVU71
 341              	.LBB122:
 342              	.LBI100:
  42:../../DaisySP/Source/Synthesis/oscillator.h ****     {
 343              		.loc 1 42 10 view .LVU72
 344              	.LBB105:
  44:../../DaisySP/Source/Synthesis/oscillator.h ****         sr_recip_  = 1.0f / sample_rate;
 345              		.loc 1 44 9 view .LVU73
  49:../../DaisySP/Source/Synthesis/oscillator.h ****         waveform_  = WAVE_SIN;
 346              		.loc 1 49 34 is_stmt 0 view .LVU74
ARM GAS  /tmp/ccoWCKC9.s 			page 14


 347 003c 3046     		mov	r0, r6
  47:../../DaisySP/Source/Synthesis/oscillator.h ****         phase_     = 0.0f;
 348              		.loc 1 47 20 view .LVU75
 349 003e 7760     		str	r7, [r6, #4]	@ float
  45:../../DaisySP/Source/Synthesis/oscillator.h ****         freq_      = 100.0f;
 350              		.loc 1 45 27 view .LVU76
 351 0040 87EE809A 		vdiv.f32	s18, s15, s0
  46:../../DaisySP/Source/Synthesis/oscillator.h ****         amp_       = 0.5f;
 352              		.loc 1 46 20 view .LVU77
 353 0044 C6ED028A 		vstr.32	s17, [r6, #8]
  44:../../DaisySP/Source/Synthesis/oscillator.h ****         sr_recip_  = 1.0f / sample_rate;
 354              		.loc 1 44 20 view .LVU78
 355 0048 86ED038A 		vstr.32	s16, [r6, #12]
  45:../../DaisySP/Source/Synthesis/oscillator.h ****         freq_      = 100.0f;
 356              		.loc 1 45 9 is_stmt 1 view .LVU79
  48:../../DaisySP/Source/Synthesis/oscillator.h ****         phase_inc_ = CalcPhaseInc(freq_);
 357              		.loc 1 48 20 is_stmt 0 view .LVU80
 358 004c C6F814A0 		str	r10, [r6, #20]	@ float
  49:../../DaisySP/Source/Synthesis/oscillator.h ****         waveform_  = WAVE_SIN;
 359              		.loc 1 49 34 view .LVU81
 360 0050 B0EE680A 		vmov.f32	s0, s17
 361              	.LVL22:
  45:../../DaisySP/Source/Synthesis/oscillator.h ****         freq_      = 100.0f;
 362              		.loc 1 45 20 view .LVU82
 363 0054 86ED049A 		vstr.32	s18, [r6, #16]
  46:../../DaisySP/Source/Synthesis/oscillator.h ****         amp_       = 0.5f;
 364              		.loc 1 46 9 is_stmt 1 view .LVU83
  47:../../DaisySP/Source/Synthesis/oscillator.h ****         phase_     = 0.0f;
 365              		.loc 1 47 9 view .LVU84
  48:../../DaisySP/Source/Synthesis/oscillator.h ****         phase_inc_ = CalcPhaseInc(freq_);
 366              		.loc 1 48 9 view .LVU85
  49:../../DaisySP/Source/Synthesis/oscillator.h ****         waveform_  = WAVE_SIN;
 367              		.loc 1 49 9 view .LVU86
  49:../../DaisySP/Source/Synthesis/oscillator.h ****         waveform_  = WAVE_SIN;
 368              		.loc 1 49 34 is_stmt 0 view .LVU87
 369 0058 FFF7FEFF 		bl	_ZN7daisysp10Oscillator12CalcPhaseIncEf
 370              	.LVL23:
 371 005c F0EE407A 		vmov.f32	s15, s0
 372              	.LBE105:
 373              	.LBE122:
 374              	.LBB123:
 375              	.LBB110:
 376 0060 2846     		mov	r0, r5
 377 0062 B0EE680A 		vmov.f32	s0, s17
  45:../../DaisySP/Source/Synthesis/oscillator.h ****         freq_      = 100.0f;
 378              		.loc 1 45 20 view .LVU88
 379 0066 85ED049A 		vstr.32	s18, [r5, #16]
  44:../../DaisySP/Source/Synthesis/oscillator.h ****         sr_recip_  = 1.0f / sample_rate;
 380              		.loc 1 44 20 view .LVU89
 381 006a 85ED038A 		vstr.32	s16, [r5, #12]
 382              	.LBE110:
 383              	.LBE123:
 384              	.LBB124:
 385              	.LBB106:
  49:../../DaisySP/Source/Synthesis/oscillator.h ****         waveform_  = WAVE_SIN;
 386              		.loc 1 49 20 view .LVU90
 387 006e C6ED067A 		vstr.32	s15, [r6, #24]
ARM GAS  /tmp/ccoWCKC9.s 			page 15


  50:../../DaisySP/Source/Synthesis/oscillator.h ****         eoc_       = true;
 388              		.loc 1 50 9 is_stmt 1 view .LVU91
 389              	.LBE106:
 390              	.LBE124:
 391              	.LBB125:
 392              	.LBB111:
  46:../../DaisySP/Source/Synthesis/oscillator.h ****         amp_       = 0.5f;
 393              		.loc 1 46 20 is_stmt 0 view .LVU92
 394 0072 C5ED028A 		vstr.32	s17, [r5, #8]
  47:../../DaisySP/Source/Synthesis/oscillator.h ****         phase_     = 0.0f;
 395              		.loc 1 47 20 view .LVU93
 396 0076 6F60     		str	r7, [r5, #4]	@ float
  48:../../DaisySP/Source/Synthesis/oscillator.h ****         phase_inc_ = CalcPhaseInc(freq_);
 397              		.loc 1 48 20 view .LVU94
 398 0078 C5F814A0 		str	r10, [r5, #20]	@ float
 399              	.LBE111:
 400              	.LBE125:
 401              	.LBB126:
 402              	.LBB107:
  50:../../DaisySP/Source/Synthesis/oscillator.h ****         eoc_       = true;
 403              		.loc 1 50 20 view .LVU95
 404 007c 86F80080 		strb	r8, [r6]
  51:../../DaisySP/Source/Synthesis/oscillator.h ****         eor_       = true;
 405              		.loc 1 51 9 is_stmt 1 view .LVU96
 406              		.loc 1 52 9 view .LVU97
 407              		.loc 1 52 20 is_stmt 0 view .LVU98
 408 0080 A6F82490 		strh	r9, [r6, #36]	@ movhi
 409              	.LVL24:
 410              		.loc 1 52 20 view .LVU99
 411              	.LBE107:
 412              	.LBE126:
  40:balance.cpp   ****     osc2.Init(sample_rate);
 413              		.loc 8 40 5 is_stmt 1 view .LVU100
 414              	.LBB127:
 415              	.LBI108:
  42:../../DaisySP/Source/Synthesis/oscillator.h ****     {
 416              		.loc 1 42 10 view .LVU101
 417              	.LBB112:
  44:../../DaisySP/Source/Synthesis/oscillator.h ****         sr_recip_  = 1.0f / sample_rate;
 418              		.loc 1 44 9 view .LVU102
  45:../../DaisySP/Source/Synthesis/oscillator.h ****         freq_      = 100.0f;
 419              		.loc 1 45 9 view .LVU103
  46:../../DaisySP/Source/Synthesis/oscillator.h ****         amp_       = 0.5f;
 420              		.loc 1 46 9 view .LVU104
  47:../../DaisySP/Source/Synthesis/oscillator.h ****         phase_     = 0.0f;
 421              		.loc 1 47 9 view .LVU105
  48:../../DaisySP/Source/Synthesis/oscillator.h ****         phase_inc_ = CalcPhaseInc(freq_);
 422              		.loc 1 48 9 view .LVU106
  49:../../DaisySP/Source/Synthesis/oscillator.h ****         waveform_  = WAVE_SIN;
 423              		.loc 1 49 9 view .LVU107
  49:../../DaisySP/Source/Synthesis/oscillator.h ****         waveform_  = WAVE_SIN;
 424              		.loc 1 49 34 is_stmt 0 view .LVU108
 425 0084 FFF7FEFF 		bl	_ZN7daisysp10Oscillator12CalcPhaseIncEf
 426              	.LVL25:
 427 0088 F0EE407A 		vmov.f32	s15, s0
 428              	.LBE112:
 429              	.LBE127:
ARM GAS  /tmp/ccoWCKC9.s 			page 16


 430              	.LBB128:
 431              	.LBB117:
 432 008c 2046     		mov	r0, r4
 433 008e B0EE680A 		vmov.f32	s0, s17
 434              	.LBE117:
 435              	.LBE128:
 436              	.LBB129:
 437              	.LBB113:
  50:../../DaisySP/Source/Synthesis/oscillator.h ****         eoc_       = true;
 438              		.loc 1 50 20 view .LVU109
 439 0092 85F80080 		strb	r8, [r5]
 440              		.loc 1 52 20 view .LVU110
 441 0096 A5F82490 		strh	r9, [r5, #36]	@ movhi
  49:../../DaisySP/Source/Synthesis/oscillator.h ****         waveform_  = WAVE_SIN;
 442              		.loc 1 49 20 view .LVU111
 443 009a C5ED067A 		vstr.32	s15, [r5, #24]
  50:../../DaisySP/Source/Synthesis/oscillator.h ****         eoc_       = true;
 444              		.loc 1 50 9 is_stmt 1 view .LVU112
  51:../../DaisySP/Source/Synthesis/oscillator.h ****         eor_       = true;
 445              		.loc 1 51 9 view .LVU113
 446              		.loc 1 52 9 view .LVU114
 447              	.LVL26:
 448              		.loc 1 52 9 is_stmt 0 view .LVU115
 449              	.LBE113:
 450              	.LBE129:
  41:balance.cpp   ****     lfo.Init(sample_rate);
 451              		.loc 8 41 5 is_stmt 1 view .LVU116
 452              	.LBB130:
 453              	.LBI115:
  42:../../DaisySP/Source/Synthesis/oscillator.h ****     {
 454              		.loc 1 42 10 view .LVU117
 455              	.LBB118:
  44:../../DaisySP/Source/Synthesis/oscillator.h ****         sr_recip_  = 1.0f / sample_rate;
 456              		.loc 1 44 9 view .LVU118
  45:../../DaisySP/Source/Synthesis/oscillator.h ****         freq_      = 100.0f;
 457              		.loc 1 45 9 view .LVU119
  46:../../DaisySP/Source/Synthesis/oscillator.h ****         amp_       = 0.5f;
 458              		.loc 1 46 9 view .LVU120
  47:../../DaisySP/Source/Synthesis/oscillator.h ****         phase_     = 0.0f;
 459              		.loc 1 47 9 view .LVU121
  48:../../DaisySP/Source/Synthesis/oscillator.h ****         phase_inc_ = CalcPhaseInc(freq_);
 460              		.loc 1 48 9 view .LVU122
  49:../../DaisySP/Source/Synthesis/oscillator.h ****         waveform_  = WAVE_SIN;
 461              		.loc 1 49 9 view .LVU123
  45:../../DaisySP/Source/Synthesis/oscillator.h ****         freq_      = 100.0f;
 462              		.loc 1 45 20 is_stmt 0 view .LVU124
 463 009e 84ED049A 		vstr.32	s18, [r4, #16]
  44:../../DaisySP/Source/Synthesis/oscillator.h ****         sr_recip_  = 1.0f / sample_rate;
 464              		.loc 1 44 20 view .LVU125
 465 00a2 84ED038A 		vstr.32	s16, [r4, #12]
  46:../../DaisySP/Source/Synthesis/oscillator.h ****         amp_       = 0.5f;
 466              		.loc 1 46 20 view .LVU126
 467 00a6 C4ED028A 		vstr.32	s17, [r4, #8]
  47:../../DaisySP/Source/Synthesis/oscillator.h ****         phase_     = 0.0f;
 468              		.loc 1 47 20 view .LVU127
 469 00aa 6760     		str	r7, [r4, #4]	@ float
  48:../../DaisySP/Source/Synthesis/oscillator.h ****         phase_inc_ = CalcPhaseInc(freq_);
ARM GAS  /tmp/ccoWCKC9.s 			page 17


 470              		.loc 1 48 20 view .LVU128
 471 00ac C4F814A0 		str	r10, [r4, #20]	@ float
  49:../../DaisySP/Source/Synthesis/oscillator.h ****         waveform_  = WAVE_SIN;
 472              		.loc 1 49 34 view .LVU129
 473 00b0 FFF7FEFF 		bl	_ZN7daisysp10Oscillator12CalcPhaseIncEf
 474              	.LVL27:
 475 00b4 F0EE407A 		vmov.f32	s15, s0
 476              	.LBE118:
 477              	.LBE130:
  42:balance.cpp   ****     bal.Init(sample_rate);
 478              		.loc 8 42 13 view .LVU130
 479 00b8 2148     		ldr	r0, .L21+20
 480 00ba B0EE480A 		vmov.f32	s0, s16
 481              	.LBB131:
 482              	.LBB119:
  50:../../DaisySP/Source/Synthesis/oscillator.h ****         eoc_       = true;
 483              		.loc 1 50 20 view .LVU131
 484 00be 84F80080 		strb	r8, [r4]
 485              		.loc 1 52 20 view .LVU132
 486 00c2 A4F82490 		strh	r9, [r4, #36]	@ movhi
  49:../../DaisySP/Source/Synthesis/oscillator.h ****         waveform_  = WAVE_SIN;
 487              		.loc 1 49 20 view .LVU133
 488 00c6 C4ED067A 		vstr.32	s15, [r4, #24]
  50:../../DaisySP/Source/Synthesis/oscillator.h ****         eoc_       = true;
 489              		.loc 1 50 9 is_stmt 1 view .LVU134
  51:../../DaisySP/Source/Synthesis/oscillator.h ****         eor_       = true;
 490              		.loc 1 51 9 view .LVU135
 491              		.loc 1 52 9 view .LVU136
 492              	.LVL28:
 493              		.loc 1 52 9 is_stmt 0 view .LVU137
 494              	.LBE119:
 495              	.LBE131:
 496              		.loc 8 42 5 is_stmt 1 view .LVU138
 497              		.loc 8 42 13 is_stmt 0 view .LVU139
 498 00ca FFF7FEFF 		bl	_ZN7daisysp7Balance4InitEf
 499              	.LVL29:
  43:balance.cpp   **** 
  44:balance.cpp   **** 
  45:balance.cpp   ****     // Set parameters for oscillator one
  46:balance.cpp   ****     osc1.SetWaveform(osc1.WAVE_SIN);
 500              		.loc 8 46 5 is_stmt 1 view .LVU140
 501              	.LBB132:
 502              	.LBI132:
  53:../../DaisySP/Source/Synthesis/oscillator.h ****     }
  54:../../DaisySP/Source/Synthesis/oscillator.h **** 
  55:../../DaisySP/Source/Synthesis/oscillator.h **** 
  56:../../DaisySP/Source/Synthesis/oscillator.h ****     /** Changes the frequency of the Oscillator, and recalculates phase increment.
  57:../../DaisySP/Source/Synthesis/oscillator.h ****     */
  58:../../DaisySP/Source/Synthesis/oscillator.h ****     inline void SetFreq(const float f)
  59:../../DaisySP/Source/Synthesis/oscillator.h ****     {
  60:../../DaisySP/Source/Synthesis/oscillator.h ****         freq_      = f;
  61:../../DaisySP/Source/Synthesis/oscillator.h ****         phase_inc_ = CalcPhaseInc(f);
  62:../../DaisySP/Source/Synthesis/oscillator.h ****     }
  63:../../DaisySP/Source/Synthesis/oscillator.h **** 
  64:../../DaisySP/Source/Synthesis/oscillator.h **** 
  65:../../DaisySP/Source/Synthesis/oscillator.h ****     /** Sets the amplitude of the waveform.
  66:../../DaisySP/Source/Synthesis/oscillator.h ****     */
ARM GAS  /tmp/ccoWCKC9.s 			page 18


  67:../../DaisySP/Source/Synthesis/oscillator.h ****     inline void SetAmp(const float a) { amp_ = a; }
  68:../../DaisySP/Source/Synthesis/oscillator.h ****     /** Sets the waveform to be synthesized by the Process() function.
  69:../../DaisySP/Source/Synthesis/oscillator.h ****     */
  70:../../DaisySP/Source/Synthesis/oscillator.h ****     inline void SetWaveform(const uint8_t wf)
 503              		.loc 1 70 17 view .LVU141
 504              	.LBB133:
  71:../../DaisySP/Source/Synthesis/oscillator.h ****     {
  72:../../DaisySP/Source/Synthesis/oscillator.h ****         waveform_ = wf < WAVE_LAST ? wf : WAVE_SIN;
 505              		.loc 1 72 9 view .LVU142
 506              	.LBE133:
 507              	.LBE132:
 508              	.LBB135:
 509              	.LBB136:
  60:../../DaisySP/Source/Synthesis/oscillator.h ****         phase_inc_ = CalcPhaseInc(f);
 510              		.loc 1 60 20 is_stmt 0 view .LVU143
 511 00ce 9FED1D0A 		vldr.32	s0, .L21+24
  61:../../DaisySP/Source/Synthesis/oscillator.h ****     }
 512              		.loc 1 61 34 view .LVU144
 513 00d2 3046     		mov	r0, r6
 514              	.LBE136:
 515              	.LBE135:
 516              	.LBB139:
 517              	.LBB134:
 518              		.loc 1 72 19 view .LVU145
 519 00d4 86F80080 		strb	r8, [r6]
 520              	.LVL30:
 521              		.loc 1 72 19 view .LVU146
 522              	.LBE134:
 523              	.LBE139:
  47:balance.cpp   ****     osc1.SetFreq(440);
 524              		.loc 8 47 5 is_stmt 1 view .LVU147
 525              	.LBB140:
 526              	.LBI135:
  58:../../DaisySP/Source/Synthesis/oscillator.h ****     {
 527              		.loc 1 58 17 view .LVU148
 528              	.LBB137:
  60:../../DaisySP/Source/Synthesis/oscillator.h ****         phase_inc_ = CalcPhaseInc(f);
 529              		.loc 1 60 9 view .LVU149
  60:../../DaisySP/Source/Synthesis/oscillator.h ****         phase_inc_ = CalcPhaseInc(f);
 530              		.loc 1 60 20 is_stmt 0 view .LVU150
 531 00d8 86ED020A 		vstr.32	s0, [r6, #8]
  61:../../DaisySP/Source/Synthesis/oscillator.h ****     }
 532              		.loc 1 61 9 is_stmt 1 view .LVU151
  61:../../DaisySP/Source/Synthesis/oscillator.h ****     }
 533              		.loc 1 61 34 is_stmt 0 view .LVU152
 534 00dc FFF7FEFF 		bl	_ZN7daisysp10Oscillator12CalcPhaseIncEf
 535              	.LVL31:
 536 00e0 F0EE407A 		vmov.f32	s15, s0
 537              	.LBE137:
 538              	.LBE140:
 539              	.LBB141:
 540              	.LBB142:
  67:../../DaisySP/Source/Synthesis/oscillator.h ****     /** Sets the waveform to be synthesized by the Process() function.
 541              		.loc 1 67 46 view .LVU153
 542 00e4 184B     		ldr	r3, .L21+28
 543              	.LBE142:
 544              	.LBE141:
ARM GAS  /tmp/ccoWCKC9.s 			page 19


 545              	.LBB145:
 546              	.LBB146:
  60:../../DaisySP/Source/Synthesis/oscillator.h ****         phase_inc_ = CalcPhaseInc(f);
 547              		.loc 1 60 20 view .LVU154
 548 00e6 9FED190A 		vldr.32	s0, .L21+32
  61:../../DaisySP/Source/Synthesis/oscillator.h ****     }
 549              		.loc 1 61 34 view .LVU155
 550 00ea 2846     		mov	r0, r5
 551              	.LBE146:
 552              	.LBE145:
 553              	.LBB150:
 554              	.LBB143:
  67:../../DaisySP/Source/Synthesis/oscillator.h ****     /** Sets the waveform to be synthesized by the Process() function.
 555              		.loc 1 67 46 view .LVU156
 556 00ec 7360     		str	r3, [r6, #4]	@ float
 557              	.LBE143:
 558              	.LBE150:
 559              	.LBB151:
 560              	.LBB138:
  61:../../DaisySP/Source/Synthesis/oscillator.h ****     }
 561              		.loc 1 61 20 view .LVU157
 562 00ee C6ED067A 		vstr.32	s15, [r6, #24]
 563              	.LVL32:
  61:../../DaisySP/Source/Synthesis/oscillator.h ****     }
 564              		.loc 1 61 20 view .LVU158
 565              	.LBE138:
 566              	.LBE151:
  48:balance.cpp   ****     osc1.SetAmp(0.1);
 567              		.loc 8 48 5 is_stmt 1 view .LVU159
 568              	.LBB152:
 569              	.LBI141:
  67:../../DaisySP/Source/Synthesis/oscillator.h ****     /** Sets the waveform to be synthesized by the Process() function.
 570              		.loc 1 67 17 view .LVU160
 571              	.LBB144:
  67:../../DaisySP/Source/Synthesis/oscillator.h ****     /** Sets the waveform to be synthesized by the Process() function.
 572              		.loc 1 67 41 view .LVU161
  67:../../DaisySP/Source/Synthesis/oscillator.h ****     /** Sets the waveform to be synthesized by the Process() function.
 573              		.loc 1 67 41 is_stmt 0 view .LVU162
 574              	.LBE144:
 575              	.LBE152:
  49:balance.cpp   **** 
  50:balance.cpp   ****     // Set parameters for oscillator two
  51:balance.cpp   ****     osc2.SetWaveform(osc2.WAVE_SIN);
 576              		.loc 8 51 5 is_stmt 1 view .LVU163
 577              	.LBB153:
 578              	.LBI153:
  70:../../DaisySP/Source/Synthesis/oscillator.h ****     {
 579              		.loc 1 70 17 view .LVU164
 580              	.LBB154:
 581              		.loc 1 72 9 view .LVU165
 582              		.loc 1 72 9 is_stmt 0 view .LVU166
 583              	.LBE154:
 584              	.LBE153:
  52:balance.cpp   ****     osc2.SetFreq(220);
 585              		.loc 8 52 5 is_stmt 1 view .LVU167
 586              	.LBB156:
 587              	.LBI145:
ARM GAS  /tmp/ccoWCKC9.s 			page 20


  58:../../DaisySP/Source/Synthesis/oscillator.h ****     {
 588              		.loc 1 58 17 view .LVU168
 589              	.LBB147:
  60:../../DaisySP/Source/Synthesis/oscillator.h ****         phase_inc_ = CalcPhaseInc(f);
 590              		.loc 1 60 9 view .LVU169
 591              	.LBE147:
 592              	.LBE156:
 593              	.LBB157:
 594              	.LBB155:
 595              		.loc 1 72 19 is_stmt 0 view .LVU170
 596 00f2 85F80080 		strb	r8, [r5]
 597              	.LBE155:
 598              	.LBE157:
 599              	.LBB158:
 600              	.LBB148:
  60:../../DaisySP/Source/Synthesis/oscillator.h ****         phase_inc_ = CalcPhaseInc(f);
 601              		.loc 1 60 20 view .LVU171
 602 00f6 85ED020A 		vstr.32	s0, [r5, #8]
  61:../../DaisySP/Source/Synthesis/oscillator.h ****     }
 603              		.loc 1 61 9 is_stmt 1 view .LVU172
  61:../../DaisySP/Source/Synthesis/oscillator.h ****     }
 604              		.loc 1 61 34 is_stmt 0 view .LVU173
 605 00fa FFF7FEFF 		bl	_ZN7daisysp10Oscillator12CalcPhaseIncEf
 606              	.LVL33:
 607 00fe F0EE407A 		vmov.f32	s15, s0
 608              	.LBE148:
 609              	.LBE158:
 610              	.LBB159:
 611              	.LBB160:
 612              		.loc 1 72 19 view .LVU174
 613 0102 0123     		movs	r3, #1
 614              	.LBE160:
 615              	.LBE159:
 616              	.LBB162:
 617              	.LBB163:
  60:../../DaisySP/Source/Synthesis/oscillator.h ****         phase_inc_ = CalcPhaseInc(f);
 618              		.loc 1 60 20 view .LVU175
 619 0104 9FED120A 		vldr.32	s0, .L21+36
  61:../../DaisySP/Source/Synthesis/oscillator.h ****     }
 620              		.loc 1 61 34 view .LVU176
 621 0108 2046     		mov	r0, r4
 622              	.LBE163:
 623              	.LBE162:
 624              	.LBB166:
 625              	.LBB167:
  67:../../DaisySP/Source/Synthesis/oscillator.h ****     /** Sets the waveform to be synthesized by the Process() function.
 626              		.loc 1 67 46 view .LVU177
 627 010a 6F60     		str	r7, [r5, #4]	@ float
 628              	.LBE167:
 629              	.LBE166:
 630              	.LBB169:
 631              	.LBB149:
  61:../../DaisySP/Source/Synthesis/oscillator.h ****     }
 632              		.loc 1 61 20 view .LVU178
 633 010c C5ED067A 		vstr.32	s15, [r5, #24]
 634              	.LVL34:
  61:../../DaisySP/Source/Synthesis/oscillator.h ****     }
ARM GAS  /tmp/ccoWCKC9.s 			page 21


 635              		.loc 1 61 20 view .LVU179
 636              	.LBE149:
 637              	.LBE169:
  53:balance.cpp   ****     osc2.SetAmp(0.5);
 638              		.loc 8 53 5 is_stmt 1 view .LVU180
 639              	.LBB170:
 640              	.LBI166:
  67:../../DaisySP/Source/Synthesis/oscillator.h ****     /** Sets the waveform to be synthesized by the Process() function.
 641              		.loc 1 67 17 view .LVU181
 642              	.LBB168:
  67:../../DaisySP/Source/Synthesis/oscillator.h ****     /** Sets the waveform to be synthesized by the Process() function.
 643              		.loc 1 67 41 view .LVU182
  67:../../DaisySP/Source/Synthesis/oscillator.h ****     /** Sets the waveform to be synthesized by the Process() function.
 644              		.loc 1 67 41 is_stmt 0 view .LVU183
 645              	.LBE168:
 646              	.LBE170:
  54:balance.cpp   **** 
  55:balance.cpp   ****     //Set parameters for lfo
  56:balance.cpp   ****     lfo.SetWaveform(lfo.WAVE_TRI);
 647              		.loc 8 56 5 is_stmt 1 view .LVU184
 648              	.LBB171:
 649              	.LBI159:
  70:../../DaisySP/Source/Synthesis/oscillator.h ****     {
 650              		.loc 1 70 17 view .LVU185
 651              	.LBB161:
 652              		.loc 1 72 9 view .LVU186
 653              		.loc 1 72 19 is_stmt 0 view .LVU187
 654 0110 2370     		strb	r3, [r4]
 655              	.LVL35:
 656              		.loc 1 72 19 view .LVU188
 657              	.LBE161:
 658              	.LBE171:
  57:balance.cpp   ****     lfo.SetFreq(0.4);
 659              		.loc 8 57 5 is_stmt 1 view .LVU189
 660              	.LBB172:
 661              	.LBI162:
  58:../../DaisySP/Source/Synthesis/oscillator.h ****     {
 662              		.loc 1 58 17 view .LVU190
 663              	.LBB164:
  60:../../DaisySP/Source/Synthesis/oscillator.h ****         phase_inc_ = CalcPhaseInc(f);
 664              		.loc 1 60 9 view .LVU191
  60:../../DaisySP/Source/Synthesis/oscillator.h ****         phase_inc_ = CalcPhaseInc(f);
 665              		.loc 1 60 20 is_stmt 0 view .LVU192
 666 0112 84ED020A 		vstr.32	s0, [r4, #8]
  61:../../DaisySP/Source/Synthesis/oscillator.h ****     }
 667              		.loc 1 61 9 is_stmt 1 view .LVU193
  61:../../DaisySP/Source/Synthesis/oscillator.h ****     }
 668              		.loc 1 61 34 is_stmt 0 view .LVU194
 669 0116 FFF7FEFF 		bl	_ZN7daisysp10Oscillator12CalcPhaseIncEf
 670              	.LVL36:
 671              	.LBE164:
 672              	.LBE172:
  58:balance.cpp   ****     lfo.SetAmp(0.5);
  59:balance.cpp   **** 
  60:balance.cpp   **** 
  61:balance.cpp   ****     // start callback
  62:balance.cpp   ****     seed.StartAudio(AudioCallback);
ARM GAS  /tmp/ccoWCKC9.s 			page 22


 673              		.loc 8 62 20 view .LVU195
 674 011a 0E49     		ldr	r1, .L21+40
 675 011c 0348     		ldr	r0, .L21
 676              	.LBB173:
 677              	.LBB174:
  67:../../DaisySP/Source/Synthesis/oscillator.h ****     /** Sets the waveform to be synthesized by the Process() function.
 678              		.loc 1 67 46 view .LVU196
 679 011e 6760     		str	r7, [r4, #4]	@ float
 680              	.LBE174:
 681              	.LBE173:
 682              	.LBB176:
 683              	.LBB165:
  61:../../DaisySP/Source/Synthesis/oscillator.h ****     }
 684              		.loc 1 61 20 view .LVU197
 685 0120 84ED060A 		vstr.32	s0, [r4, #24]
 686              	.LVL37:
  61:../../DaisySP/Source/Synthesis/oscillator.h ****     }
 687              		.loc 1 61 20 view .LVU198
 688              	.LBE165:
 689              	.LBE176:
  58:balance.cpp   ****     lfo.SetAmp(0.5);
 690              		.loc 8 58 5 is_stmt 1 view .LVU199
 691              	.LBB177:
 692              	.LBI173:
  67:../../DaisySP/Source/Synthesis/oscillator.h ****     /** Sets the waveform to be synthesized by the Process() function.
 693              		.loc 1 67 17 view .LVU200
 694              	.LBB175:
  67:../../DaisySP/Source/Synthesis/oscillator.h ****     /** Sets the waveform to be synthesized by the Process() function.
 695              		.loc 1 67 41 view .LVU201
  67:../../DaisySP/Source/Synthesis/oscillator.h ****     /** Sets the waveform to be synthesized by the Process() function.
 696              		.loc 1 67 41 is_stmt 0 view .LVU202
 697              	.LBE175:
 698              	.LBE177:
 699              		.loc 8 62 5 is_stmt 1 view .LVU203
 700              		.loc 8 62 20 is_stmt 0 view .LVU204
 701 0124 FFF7FEFF 		bl	_ZN5daisy9DaisySeed10StartAudioEPFvPKfPfjE
 702              	.LVL38:
 703              	.L19:
  63:balance.cpp   **** 
  64:balance.cpp   **** 
  65:balance.cpp   ****     while(1) {}
 704              		.loc 8 65 5 is_stmt 1 discriminator 1 view .LVU205
 705              		.loc 8 65 5 discriminator 1 view .LVU206
 706              		.loc 8 65 5 discriminator 1 view .LVU207
 707              		.loc 8 65 5 discriminator 1 view .LVU208
 708 0128 FEE7     		b	.L19
 709              	.L22:
 710 012a 00BF     		.align	2
 711              	.L21:
 712 012c 00000000 		.word	.LANCHOR4
 713 0130 00000000 		.word	.LANCHOR0
 714 0134 00000000 		.word	.LANCHOR1
 715 0138 00000000 		.word	.LANCHOR2
 716 013c 0000C842 		.word	1120403456
 717 0140 00000000 		.word	.LANCHOR3
 718 0144 0000DC43 		.word	1138491392
 719 0148 CDCCCC3D 		.word	1036831949
ARM GAS  /tmp/ccoWCKC9.s 			page 23


 720 014c 00005C43 		.word	1130102784
 721 0150 CDCCCC3E 		.word	1053609165
 722 0154 00000000 		.word	_ZL13AudioCallbackPKfPfj
 723              		.cfi_endproc
 724              	.LFE4213:
 726              		.section	.text.startup._GLOBAL__sub_I_main,"ax",%progbits
 727              		.align	1
 728              		.p2align 2,,3
 729              		.syntax unified
 730              		.thumb
 731              		.thumb_func
 732              		.fpu fpv5-d16
 734              	_GLOBAL__sub_I_main:
 735              	.LFB4759:
  66:balance.cpp   **** }
 736              		.loc 8 66 1 view -0
 737              		.cfi_startproc
 738              		@ args = 0, pretend = 0, frame = 0
 739              		@ frame_needed = 0, uses_anonymous_args = 0
 740              	.LBB201:
 741              	.LBI201:
 742              		.loc 8 66 1 view .LVU210
 743              	.LVL39:
 744              	.LBB202:
 745              	.LBB203:
 746              	.LBI203:
  21:../../libdaisy/src/daisy_seed.h ****     ~DaisySeed() {}
 747              		.loc 3 21 5 view .LVU211
 748              	.LBB204:
 749              	.LBB205:
 750              	.LBI205:
  62:../../libdaisy/src/hid/audio.h ****     ~AudioHandle() {}
 751              		.loc 7 62 5 view .LVU212
 752              	.LBB206:
 753              	.LBB207:
  62:../../libdaisy/src/hid/audio.h ****     ~AudioHandle() {}
 754              		.loc 7 62 35 is_stmt 0 view .LVU213
 755 0000 0023     		movs	r3, #0
 756 0002 0F48     		ldr	r0, .L25
 757              	.LBE207:
 758              	.LBE206:
 759              	.LBE205:
 760              	.LBE204:
 761              	.LBE203:
   7:balance.cpp   **** static Oscillator osc1, osc2, lfo;
 762              		.loc 8 7 19 view .LVU214
 763 0004 0F4A     		ldr	r2, .L25+4
 764 0006 1049     		ldr	r1, .L25+8
 765              	.LBE202:
 766              	.LBE201:
 767              		.loc 8 66 1 view .LVU215
 768 0008 10B5     		push	{r4, lr}
 769              		.cfi_def_cfa_offset 8
 770              		.cfi_offset 4, -8
 771              		.cfi_offset 14, -4
 772              	.LBB225:
 773              	.LBB223:
ARM GAS  /tmp/ccoWCKC9.s 			page 24


   8:balance.cpp   **** static Balance    bal;
 774              		.loc 8 8 19 view .LVU216
 775 000a 104C     		ldr	r4, .L25+12
 776              	.LBB218:
 777              	.LBB217:
 778              	.LBB210:
 779              	.LBB209:
 780              	.LBB208:
  62:../../libdaisy/src/hid/audio.h ****     ~AudioHandle() {}
 781              		.loc 7 62 35 view .LVU217
 782 000c 4361     		str	r3, [r0, #20]
 783              	.LVL40:
  62:../../libdaisy/src/hid/audio.h ****     ~AudioHandle() {}
 784              		.loc 7 62 35 view .LVU218
 785              	.LBE208:
 786              	.LBE209:
 787              	.LBE210:
 788              	.LBB211:
 789              	.LBI211:
  84:../../libdaisy/src/per/adc.h ****     ~AdcHandle() {}
 790              		.loc 6 84 5 is_stmt 1 view .LVU219
  84:../../libdaisy/src/per/adc.h ****     ~AdcHandle() {}
 791              		.loc 6 84 5 is_stmt 0 view .LVU220
 792              	.LBE211:
 793              	.LBB212:
 794              	.LBI212:
 795              		.file 9 "../../libdaisy/src/per/dac.h"
   1:../../libdaisy/src/per/dac.h **** #pragma once
   2:../../libdaisy/src/per/dac.h **** #ifndef DSY_DAC_H
   3:../../libdaisy/src/per/dac.h **** #define DSY_DAC_H
   4:../../libdaisy/src/per/dac.h **** 
   5:../../libdaisy/src/per/dac.h **** #include "daisy_core.h"
   6:../../libdaisy/src/per/dac.h **** 
   7:../../libdaisy/src/per/dac.h **** namespace daisy
   8:../../libdaisy/src/per/dac.h **** {
   9:../../libdaisy/src/per/dac.h **** /** DAC handle for Built-in DAC Peripheral 
  10:../../libdaisy/src/per/dac.h ****  ** 
  11:../../libdaisy/src/per/dac.h ****  ** For now only Normal Mode is supported,
  12:../../libdaisy/src/per/dac.h ****  ** Sample and hold mode provides reduced power consumption, but requires a bit more setup.
  13:../../libdaisy/src/per/dac.h ****  **
  14:../../libdaisy/src/per/dac.h ****  ** For now connecting the DAC through other internal periphearls is also not supported.
  15:../../libdaisy/src/per/dac.h ****  **
  16:../../libdaisy/src/per/dac.h ****  ** Since the DAC channels have dedicated pins we don't need to pass in a pin config like with
  17:../../libdaisy/src/per/dac.h ****  ** other modules. However, it is still important to not try to use the DAC pins for anything else.
  18:../../libdaisy/src/per/dac.h ****  ** DAC Channel 1 is on PA4, and DAC Channel 2 is on PA5
  19:../../libdaisy/src/per/dac.h ****  ***/
  20:../../libdaisy/src/per/dac.h **** class DacHandle
  21:../../libdaisy/src/per/dac.h **** {
  22:../../libdaisy/src/per/dac.h ****   public:
  23:../../libdaisy/src/per/dac.h ****     /** Return Values for the DacHandle class */
  24:../../libdaisy/src/per/dac.h ****     enum class Result
  25:../../libdaisy/src/per/dac.h ****     {
  26:../../libdaisy/src/per/dac.h ****         OK,
  27:../../libdaisy/src/per/dac.h ****         ERR,
  28:../../libdaisy/src/per/dac.h ****     };
  29:../../libdaisy/src/per/dac.h **** 
  30:../../libdaisy/src/per/dac.h ****     /** Selects which channel(s) will be configured for use. */
ARM GAS  /tmp/ccoWCKC9.s 			page 25


  31:../../libdaisy/src/per/dac.h ****     enum class Channel
  32:../../libdaisy/src/per/dac.h ****     {
  33:../../libdaisy/src/per/dac.h ****         ONE,
  34:../../libdaisy/src/per/dac.h ****         TWO,
  35:../../libdaisy/src/per/dac.h ****         BOTH,
  36:../../libdaisy/src/per/dac.h ****     };
  37:../../libdaisy/src/per/dac.h **** 
  38:../../libdaisy/src/per/dac.h ****     /** Sets the Mode for the DAC channels.
  39:../../libdaisy/src/per/dac.h ****      **
  40:../../libdaisy/src/per/dac.h ****      ** Polling mode uses the blocking mode to transmit a single value at a time.
  41:../../libdaisy/src/per/dac.h ****      **
  42:../../libdaisy/src/per/dac.h ****      ** DMA mode uses a buffer, and periodically transmits it triggering a 
  43:../../libdaisy/src/per/dac.h ****      ** callback to fill the buffer when it is ready for more samples.
  44:../../libdaisy/src/per/dac.h ****      ***/
  45:../../libdaisy/src/per/dac.h ****     enum class Mode
  46:../../libdaisy/src/per/dac.h ****     {
  47:../../libdaisy/src/per/dac.h ****         POLLING,
  48:../../libdaisy/src/per/dac.h ****         DMA,
  49:../../libdaisy/src/per/dac.h ****     };
  50:../../libdaisy/src/per/dac.h **** 
  51:../../libdaisy/src/per/dac.h ****     /** Sets the number of bits per sample transmitted out of the DAC.
  52:../../libdaisy/src/per/dac.h ****      ** The output range will be: 0V - VDDA
  53:../../libdaisy/src/per/dac.h ****      ** The resolution will be roughly: bitdepth / (VDDA - 0V) 
  54:../../libdaisy/src/per/dac.h ****      ***/
  55:../../libdaisy/src/per/dac.h ****     enum class BitDepth
  56:../../libdaisy/src/per/dac.h ****     {
  57:../../libdaisy/src/per/dac.h ****         BITS_8,
  58:../../libdaisy/src/per/dac.h ****         BITS_12
  59:../../libdaisy/src/per/dac.h ****     };
  60:../../libdaisy/src/per/dac.h **** 
  61:../../libdaisy/src/per/dac.h ****     /** Sets whether the DAC output is buffered for higher drive ability. */
  62:../../libdaisy/src/per/dac.h ****     enum class BufferState
  63:../../libdaisy/src/per/dac.h ****     {
  64:../../libdaisy/src/per/dac.h ****         ENABLED,
  65:../../libdaisy/src/per/dac.h ****         DISABLED,
  66:../../libdaisy/src/per/dac.h ****     };
  67:../../libdaisy/src/per/dac.h **** 
  68:../../libdaisy/src/per/dac.h ****     /** Configuration structure for initializing the DAC structure. */
  69:../../libdaisy/src/per/dac.h ****     struct Config
  70:../../libdaisy/src/per/dac.h ****     {
  71:../../libdaisy/src/per/dac.h ****         /** Target Samplerate in Hz used to configure the internal 
  72:../../libdaisy/src/per/dac.h ****          ** timebase for DMA mode. Does nothing in POLLING mode.
  73:../../libdaisy/src/per/dac.h ****          ** If the value is 0 at Init time this will default to 48000Hz 
  74:../../libdaisy/src/per/dac.h ****          ** otherwise the driver will attempt meet the target.*/
  75:../../libdaisy/src/per/dac.h ****         uint32_t target_samplerate;
  76:../../libdaisy/src/per/dac.h **** 
  77:../../libdaisy/src/per/dac.h ****         Channel     chn;
  78:../../libdaisy/src/per/dac.h ****         Mode        mode;
  79:../../libdaisy/src/per/dac.h ****         BitDepth    bitdepth;
  80:../../libdaisy/src/per/dac.h ****         BufferState buff_state;
  81:../../libdaisy/src/per/dac.h ****     };
  82:../../libdaisy/src/per/dac.h **** 
  83:../../libdaisy/src/per/dac.h ****     DacHandle() : pimpl_(nullptr) {}
 796              		.loc 9 83 5 is_stmt 1 view .LVU221
 797              	.LBB213:
 798              	.LBB214:
 799              		.loc 9 83 33 is_stmt 0 view .LVU222
ARM GAS  /tmp/ccoWCKC9.s 			page 26


 800 000e 0362     		str	r3, [r0, #32]
 801              	.LVL41:
 802              		.loc 9 83 33 view .LVU223
 803              	.LBE214:
 804              	.LBE213:
 805              	.LBE212:
 806              	.LBB215:
 807              	.LBI215:
  40:../../libdaisy/src/hid/usb.h **** 
 808              		.loc 5 40 5 is_stmt 1 view .LVU224
  40:../../libdaisy/src/hid/usb.h **** 
 809              		.loc 5 40 5 is_stmt 0 view .LVU225
 810              	.LBE215:
 811              	.LBB216:
 812              	.LBI216:
  58:../../libdaisy/src/sys/system.h ****     ~System() {}
 813              		.loc 4 58 5 is_stmt 1 view .LVU226
  58:../../libdaisy/src/sys/system.h ****     ~System() {}
 814              		.loc 4 58 5 is_stmt 0 view .LVU227
 815              	.LBE216:
 816              	.LBE217:
 817              	.LBE218:
   7:balance.cpp   **** static Oscillator osc1, osc2, lfo;
 818              		.loc 8 7 19 view .LVU228
 819 0010 FFF7FEFF 		bl	__aeabi_atexit
 820              	.LVL42:
 821              	.LBB219:
 822              	.LBI219:
  15:../../DaisySP/Source/Synthesis/oscillator.h ****     ~Oscillator() {}
 823              		.loc 1 15 5 is_stmt 1 view .LVU229
  15:../../DaisySP/Source/Synthesis/oscillator.h ****     ~Oscillator() {}
 824              		.loc 1 15 5 is_stmt 0 view .LVU230
 825              	.LBE219:
   8:balance.cpp   **** static Balance    bal;
 826              		.loc 8 8 19 view .LVU231
 827 0014 2146     		mov	r1, r4
 828 0016 0B4A     		ldr	r2, .L25+4
 829 0018 0D48     		ldr	r0, .L25+16
 830 001a FFF7FEFF 		bl	__aeabi_atexit
 831              	.LVL43:
 832              	.LBB220:
 833              	.LBI220:
  15:../../DaisySP/Source/Synthesis/oscillator.h ****     ~Oscillator() {}
 834              		.loc 1 15 5 is_stmt 1 view .LVU232
  15:../../DaisySP/Source/Synthesis/oscillator.h ****     ~Oscillator() {}
 835              		.loc 1 15 5 is_stmt 0 view .LVU233
 836              	.LBE220:
   8:balance.cpp   **** static Balance    bal;
 837              		.loc 8 8 25 view .LVU234
 838 001e 2146     		mov	r1, r4
 839 0020 084A     		ldr	r2, .L25+4
 840 0022 0C48     		ldr	r0, .L25+20
 841 0024 FFF7FEFF 		bl	__aeabi_atexit
 842              	.LVL44:
 843              	.LBB221:
 844              	.LBI221:
  15:../../DaisySP/Source/Synthesis/oscillator.h ****     ~Oscillator() {}
ARM GAS  /tmp/ccoWCKC9.s 			page 27


 845              		.loc 1 15 5 is_stmt 1 view .LVU235
  15:../../DaisySP/Source/Synthesis/oscillator.h ****     ~Oscillator() {}
 846              		.loc 1 15 5 is_stmt 0 view .LVU236
 847              	.LBE221:
   8:balance.cpp   **** static Balance    bal;
 848              		.loc 8 8 31 view .LVU237
 849 0028 2146     		mov	r1, r4
 850 002a 064A     		ldr	r2, .L25+4
 851 002c 0A48     		ldr	r0, .L25+24
 852 002e FFF7FEFF 		bl	__aeabi_atexit
 853              	.LVL45:
 854              	.LBB222:
 855              	.LBI222:
  22:../../DaisySP/Source/Dynamics/balance.h ****     ~Balance() {}
 856              		.loc 2 22 5 is_stmt 1 view .LVU238
  22:../../DaisySP/Source/Dynamics/balance.h ****     ~Balance() {}
 857              		.loc 2 22 5 is_stmt 0 view .LVU239
 858              	.LBE222:
   9:balance.cpp   **** 
 859              		.loc 8 9 19 view .LVU240
 860 0032 044A     		ldr	r2, .L25+4
 861 0034 0949     		ldr	r1, .L25+28
 862 0036 0A48     		ldr	r0, .L25+32
 863              	.LBE223:
 864              	.LBE225:
 865              		.loc 8 66 1 view .LVU241
 866 0038 BDE81040 		pop	{r4, lr}
 867              		.cfi_restore 14
 868              		.cfi_restore 4
 869              		.cfi_def_cfa_offset 0
 870              	.LBB226:
 871              	.LBB224:
   9:balance.cpp   **** 
 872              		.loc 8 9 19 view .LVU242
 873 003c FFF7FEBF 		b	__aeabi_atexit
 874              	.LVL46:
 875              	.L26:
 876              		.align	2
 877              	.L25:
 878 0040 00000000 		.word	.LANCHOR4
 879 0044 00000000 		.word	__dso_handle
 880 0048 00000000 		.word	_ZN5daisy9DaisySeedD1Ev
 881 004c 00000000 		.word	_ZN7daisysp10OscillatorD1Ev
 882 0050 00000000 		.word	.LANCHOR0
 883 0054 00000000 		.word	.LANCHOR1
 884 0058 00000000 		.word	.LANCHOR2
 885 005c 00000000 		.word	_ZN7daisysp7BalanceD1Ev
 886 0060 00000000 		.word	.LANCHOR3
 887              	.LBE224:
 888              	.LBE226:
 889              		.cfi_endproc
 890              	.LFE4759:
 892              		.section	.init_array,"aw",%init_array
 893              		.align	2
 894 0000 00000000 		.word	_GLOBAL__sub_I_main(target1)
 895              		.section	.bss._ZL3bal,"aw",%nobits
 896              		.align	2
ARM GAS  /tmp/ccoWCKC9.s 			page 28


 897              		.set	.LANCHOR3,. + 0
 900              	_ZL3bal:
 901 0000 00000000 		.space	28
 901      00000000 
 901      00000000 
 901      00000000 
 901      00000000 
 902              		.section	.bss._ZL3lfo,"aw",%nobits
 903              		.align	2
 904              		.set	.LANCHOR2,. + 0
 907              	_ZL3lfo:
 908 0000 00000000 		.space	40
 908      00000000 
 908      00000000 
 908      00000000 
 908      00000000 
 909              		.section	.bss._ZL4osc1,"aw",%nobits
 910              		.align	2
 911              		.set	.LANCHOR0,. + 0
 914              	_ZL4osc1:
 915 0000 00000000 		.space	40
 915      00000000 
 915      00000000 
 915      00000000 
 915      00000000 
 916              		.section	.bss._ZL4osc2,"aw",%nobits
 917              		.align	2
 918              		.set	.LANCHOR1,. + 0
 921              	_ZL4osc2:
 922 0000 00000000 		.space	40
 922      00000000 
 922      00000000 
 922      00000000 
 922      00000000 
 923              		.section	.bss._ZL4seed,"aw",%nobits
 924              		.align	2
 925              		.set	.LANCHOR4,. + 0
 928              	_ZL4seed:
 929 0000 00000000 		.space	60
 929      00000000 
 929      00000000 
 929      00000000 
 929      00000000 
 930              		.text
 931              	.Letext0:
 932              		.file 10 "/usr/lib/gcc/arm-none-eabi/9.2.1/include/stdint.h"
 933              		.file 11 "../../libdaisy/Drivers/CMSIS/Include/core_cm7.h"
 934              		.file 12 "../../libdaisy/Drivers/CMSIS/Device/ST/STM32H7xx/Include/system_stm32h7xx.h"
 935              		.file 13 "/usr/lib/gcc/arm-none-eabi/9.2.1/include/stddef.h"
 936              		.file 14 "/usr/include/newlib/c++/9.2.1/cmath"
 937              		.file 15 "/usr/include/newlib/c++/9.2.1/bits/std_abs.h"
 938              		.file 16 "/usr/include/newlib/c++/9.2.1/cstdint"
 939              		.file 17 "/usr/include/newlib/c++/9.2.1/cstdlib"
 940              		.file 18 "/usr/include/newlib/c++/9.2.1/type_traits"
 941              		.file 19 "/usr/include/newlib/c++/9.2.1/arm-none-eabi/thumb/v7e-m+dp/hard/bits/c++config.h"
 942              		.file 20 "/usr/include/newlib/c++/9.2.1/bits/stl_pair.h"
 943              		.file 21 "/usr/include/newlib/c++/9.2.1/debug/debug.h"
ARM GAS  /tmp/ccoWCKC9.s 			page 29


 944              		.file 22 "/usr/include/newlib/c++/9.2.1/cwchar"
 945              		.file 23 "/usr/include/newlib/c++/9.2.1/bits/exception_ptr.h"
 946              		.file 24 "/usr/include/newlib/c++/9.2.1/new"
 947              		.file 25 "/usr/include/newlib/c++/9.2.1/clocale"
 948              		.file 26 "/usr/include/newlib/c++/9.2.1/cstdio"
 949              		.file 27 "/usr/include/newlib/c++/9.2.1/bits/basic_string.h"
 950              		.file 28 "/usr/include/newlib/c++/9.2.1/bits/uniform_int_dist.h"
 951              		.file 29 "/usr/include/newlib/c++/9.2.1/bits/random.h"
 952              		.file 30 "/usr/include/newlib/c++/9.2.1/cstring"
 953              		.file 31 "/usr/include/newlib/c++/9.2.1/bits/algorithmfwd.h"
 954              		.file 32 "/usr/include/newlib/c++/9.2.1/cstdarg"
 955              		.file 33 "/usr/include/newlib/c++/9.2.1/bits/predefined_ops.h"
 956              		.file 34 "/usr/include/newlib/c++/9.2.1/ext/new_allocator.h"
 957              		.file 35 "/usr/include/newlib/c++/9.2.1/ext/numeric_traits.h"
 958              		.file 36 "/usr/include/newlib/sys/_types.h"
 959              		.file 37 "<built-in>"
 960              		.file 38 "/usr/include/newlib/sys/reent.h"
 961              		.file 39 "/usr/include/newlib/sys/lock.h"
 962              		.file 40 "/usr/include/newlib/math.h"
 963              		.file 41 "/usr/include/newlib/stdlib.h"
 964              		.file 42 "/usr/include/newlib/c++/9.2.1/math.h"
 965              		.file 43 "../../libdaisy/Drivers/STM32H7xx_HAL_Driver/Inc/stm32h7xx_hal_def.h"
 966              		.file 44 "../../libdaisy/Drivers/STM32H7xx_HAL_Driver/Inc/stm32h7xx_hal_flash.h"
 967              		.file 45 "../../DaisySP/Source/Control/adenv.h"
 968              		.file 46 "../../DaisySP/Source/Utility/dsp.h"
 969              		.file 47 "/usr/lib/gcc/arm-none-eabi/9.2.1/include/stdarg.h"
 970              		.file 48 "/usr/include/newlib/wchar.h"
 971              		.file 49 "/usr/include/newlib/locale.h"
 972              		.file 50 "/usr/include/newlib/ctype.h"
 973              		.file 51 "/usr/include/newlib/stdio.h"
 974              		.file 52 "/usr/include/newlib/sys/errno.h"
 975              		.file 53 "/usr/include/newlib/c++/9.2.1/stdlib.h"
 976              		.file 54 "/usr/include/newlib/string.h"
 977              		.file 55 "../../libdaisy/src/daisy_core.h"
 978              		.file 56 "../../libdaisy/src/per/tim.h"
 979              		.file 57 "../../libdaisy/src/per/sai.h"
 980              		.file 58 "../../libdaisy/src/util/wav_format.h"
 981              		.file 59 "../../libdaisy/src/per/qspi.h"
 982              		.file 60 "../../libdaisy/src/per/gpio.h"
 983              		.file 61 "../../libdaisy/src/dev/sdram.h"
 984              		.file 62 "/usr/include/newlib/sys/unistd.h"
 985              		.file 63 "../../libdaisy/src/util/oled_fonts.h"
 986              		.file 64 "../../libdaisy/Middlewares/Third_Party/FatFs/src/integer.h"
 987              		.file 65 "../../libdaisy/Middlewares/Third_Party/FatFs/src/ff.h"
 988              		.file 66 "../../libdaisy/Middlewares/Third_Party/FatFs/src/diskio.h"
 989              		.file 67 "../../libdaisy/Middlewares/Third_Party/FatFs/src/ff_gen_drv.h"
 990              		.file 68 "../../libdaisy/src/util/sd_diskio.h"
 991              		.file 69 "../../libdaisy/src/sys/fatfs.h"
 992              		.file 70 "../../libdaisy/src/dev/sr_595.h"
ARM GAS  /tmp/ccoWCKC9.s 			page 30

