ARM GAS  /tmp/ccQDZuDA.s 			page 1


   1              		.cpu cortex-m7
   2              		.eabi_attribute 28, 1
   3              		.eabi_attribute 20, 1
   4              		.eabi_attribute 21, 1
   5              		.eabi_attribute 23, 3
   6              		.eabi_attribute 24, 1
   7              		.eabi_attribute 25, 1
   8              		.eabi_attribute 26, 1
   9              		.eabi_attribute 30, 2
  10              		.eabi_attribute 34, 1
  11              		.eabi_attribute 18, 4
  12              		.file	"main.cpp"
  13              		.text
  14              	.Ltext0:
  15              		.cfi_sections	.debug_frame
  16              		.section	.text._ZN5daisy8DaisyPodD2Ev,"axG",%progbits,_ZN5daisy8DaisyPodD5Ev,comdat
  17              		.align	1
  18              		.p2align 2,,3
  19              		.weak	_ZN5daisy8DaisyPodD2Ev
  20              		.arch armv7e-m
  21              		.syntax unified
  22              		.thumb
  23              		.thumb_func
  24              		.fpu fpv5-d16
  26              	_ZN5daisy8DaisyPodD2Ev:
  27              	.LVL0:
  28              	.LFB2046:
  29              		.file 1 "../../libdaisy/src/daisy_pod.h"
   1:../../libdaisy/src/daisy_pod.h **** #pragma once
   2:../../libdaisy/src/daisy_pod.h **** #ifndef DSY_POD_BSP_H
   3:../../libdaisy/src/daisy_pod.h **** #define DSY_POD_BSP_H
   4:../../libdaisy/src/daisy_pod.h **** 
   5:../../libdaisy/src/daisy_pod.h **** #include "daisy_seed.h"
   6:../../libdaisy/src/daisy_pod.h **** 
   7:../../libdaisy/src/daisy_pod.h **** namespace daisy
   8:../../libdaisy/src/daisy_pod.h **** {
   9:../../libdaisy/src/daisy_pod.h **** /**
  10:../../libdaisy/src/daisy_pod.h ****     @brief Class that handles initializing all of the hardware specific to the Daisy Patch Board. \
  11:../../libdaisy/src/daisy_pod.h ****     Helper funtions are also in place to provide easy access to built-in controls and peripherals.
  12:../../libdaisy/src/daisy_pod.h ****     @author Stephen Hensley
  13:../../libdaisy/src/daisy_pod.h ****     @date November 2019
  14:../../libdaisy/src/daisy_pod.h ****     @ingroup boards
  15:../../libdaisy/src/daisy_pod.h **** */
  16:../../libdaisy/src/daisy_pod.h **** class DaisyPod
  17:../../libdaisy/src/daisy_pod.h **** {
  18:../../libdaisy/src/daisy_pod.h ****   public:
  19:../../libdaisy/src/daisy_pod.h ****     /** Switches */
  20:../../libdaisy/src/daisy_pod.h ****     enum Sw
  21:../../libdaisy/src/daisy_pod.h ****     {
  22:../../libdaisy/src/daisy_pod.h ****         BUTTON_1,    /** & */
  23:../../libdaisy/src/daisy_pod.h ****         BUTTON_2,    /** & */
  24:../../libdaisy/src/daisy_pod.h ****         BUTTON_LAST, /** &  */
  25:../../libdaisy/src/daisy_pod.h ****     };
  26:../../libdaisy/src/daisy_pod.h **** 
  27:../../libdaisy/src/daisy_pod.h ****     /** Knobs */
  28:../../libdaisy/src/daisy_pod.h ****     enum Knob
  29:../../libdaisy/src/daisy_pod.h ****     {
ARM GAS  /tmp/ccQDZuDA.s 			page 2


  30:../../libdaisy/src/daisy_pod.h ****         KNOB_1,    /** &  */
  31:../../libdaisy/src/daisy_pod.h ****         KNOB_2,    /** & */
  32:../../libdaisy/src/daisy_pod.h ****         KNOB_LAST, /** & */
  33:../../libdaisy/src/daisy_pod.h ****     };
  34:../../libdaisy/src/daisy_pod.h **** 
  35:../../libdaisy/src/daisy_pod.h ****     DaisyPod() {}
  36:../../libdaisy/src/daisy_pod.h ****     ~DaisyPod() {}
  30              		.loc 1 36 5 view -0
  31              		.cfi_startproc
  32              		@ args = 0, pretend = 0, frame = 0
  33              		@ frame_needed = 0, uses_anonymous_args = 0
  34              		@ link register save eliminated.
  35              	.LBB315:
  36              	.LBI315:
  37              		.file 2 "../../libdaisy/src/hid/midi.h"
   1:../../libdaisy/src/hid/midi.h **** #pragma once
   2:../../libdaisy/src/hid/midi.h **** #ifndef DSY_MIDI_H
   3:../../libdaisy/src/hid/midi.h **** #define DSY_MIDI_H
   4:../../libdaisy/src/hid/midi.h **** 
   5:../../libdaisy/src/hid/midi.h **** // TODO: make this adjustable
   6:../../libdaisy/src/hid/midi.h **** #define SYSEX_BUFFER_LEN 128
   7:../../libdaisy/src/hid/midi.h **** 
   8:../../libdaisy/src/hid/midi.h **** #include <stdint.h>
   9:../../libdaisy/src/hid/midi.h **** #include <stdlib.h>
  10:../../libdaisy/src/hid/midi.h **** #include "per/uart.h"
  11:../../libdaisy/src/hid/midi.h **** #include "util/ringbuffer.h"
  12:../../libdaisy/src/hid/midi.h **** #include "hid/MidiEvent.h"
  13:../../libdaisy/src/hid/midi.h **** #include "sys/system.h"
  14:../../libdaisy/src/hid/midi.h **** 
  15:../../libdaisy/src/hid/midi.h **** namespace daisy
  16:../../libdaisy/src/hid/midi.h **** {
  17:../../libdaisy/src/hid/midi.h **** /** @addtogroup external 
  18:../../libdaisy/src/hid/midi.h ****     @{ 
  19:../../libdaisy/src/hid/midi.h **** */
  20:../../libdaisy/src/hid/midi.h **** 
  21:../../libdaisy/src/hid/midi.h **** class MidiUartTransport
  22:../../libdaisy/src/hid/midi.h **** {
  23:../../libdaisy/src/hid/midi.h ****   public:
  24:../../libdaisy/src/hid/midi.h ****     MidiUartTransport() {}
  25:../../libdaisy/src/hid/midi.h ****     ~MidiUartTransport() {}
  26:../../libdaisy/src/hid/midi.h **** 
  27:../../libdaisy/src/hid/midi.h ****     struct Config
  28:../../libdaisy/src/hid/midi.h ****     {
  29:../../libdaisy/src/hid/midi.h ****         UartHandler::Config::Peripheral periph;
  30:../../libdaisy/src/hid/midi.h ****         dsy_gpio_pin                    rx;
  31:../../libdaisy/src/hid/midi.h ****         dsy_gpio_pin                    tx;
  32:../../libdaisy/src/hid/midi.h **** 
  33:../../libdaisy/src/hid/midi.h ****         Config()
  34:../../libdaisy/src/hid/midi.h ****         {
  35:../../libdaisy/src/hid/midi.h ****             periph = UartHandler::Config::Peripheral::USART_1;
  36:../../libdaisy/src/hid/midi.h ****             rx     = {DSY_GPIOB, 7};
  37:../../libdaisy/src/hid/midi.h ****             tx     = {DSY_GPIOB, 6};
  38:../../libdaisy/src/hid/midi.h ****         }
  39:../../libdaisy/src/hid/midi.h ****     };
  40:../../libdaisy/src/hid/midi.h **** 
  41:../../libdaisy/src/hid/midi.h ****     inline void Init(Config config)
  42:../../libdaisy/src/hid/midi.h ****     {
ARM GAS  /tmp/ccQDZuDA.s 			page 3


  43:../../libdaisy/src/hid/midi.h ****         UartHandler::Config uart_config;
  44:../../libdaisy/src/hid/midi.h **** 
  45:../../libdaisy/src/hid/midi.h ****         //defaults
  46:../../libdaisy/src/hid/midi.h ****         uart_config.baudrate   = 31250;
  47:../../libdaisy/src/hid/midi.h ****         uart_config.stopbits   = UartHandler::Config::StopBits::BITS_1;
  48:../../libdaisy/src/hid/midi.h ****         uart_config.parity     = UartHandler::Config::Parity::NONE;
  49:../../libdaisy/src/hid/midi.h ****         uart_config.mode       = UartHandler::Config::Mode::TX_RX;
  50:../../libdaisy/src/hid/midi.h ****         uart_config.wordlength = UartHandler::Config::WordLength::BITS_8;
  51:../../libdaisy/src/hid/midi.h **** 
  52:../../libdaisy/src/hid/midi.h ****         //user settings
  53:../../libdaisy/src/hid/midi.h ****         uart_config.periph        = config.periph;
  54:../../libdaisy/src/hid/midi.h ****         uart_config.pin_config.rx = config.rx;
  55:../../libdaisy/src/hid/midi.h ****         uart_config.pin_config.tx = config.tx;
  56:../../libdaisy/src/hid/midi.h **** 
  57:../../libdaisy/src/hid/midi.h ****         uart_.Init(uart_config);
  58:../../libdaisy/src/hid/midi.h ****     }
  59:../../libdaisy/src/hid/midi.h **** 
  60:../../libdaisy/src/hid/midi.h ****     inline void    StartRx() { uart_.StartRx(); }
  61:../../libdaisy/src/hid/midi.h ****     inline size_t  Readable() { return uart_.Readable(); }
  62:../../libdaisy/src/hid/midi.h ****     inline uint8_t Rx() { return uart_.PopRx(); }
  63:../../libdaisy/src/hid/midi.h ****     inline bool    RxActive() { return uart_.RxActive(); }
  64:../../libdaisy/src/hid/midi.h ****     inline void    FlushRx() { uart_.FlushRx(); }
  65:../../libdaisy/src/hid/midi.h ****     inline void    Tx(uint8_t* buff, size_t size) { uart_.PollTx(buff, size); }
  66:../../libdaisy/src/hid/midi.h **** 
  67:../../libdaisy/src/hid/midi.h ****   private:
  68:../../libdaisy/src/hid/midi.h ****     UartHandler uart_;
  69:../../libdaisy/src/hid/midi.h **** };
  70:../../libdaisy/src/hid/midi.h **** 
  71:../../libdaisy/src/hid/midi.h **** /** 
  72:../../libdaisy/src/hid/midi.h ****     @brief Simple MIDI Handler \n 
  73:../../libdaisy/src/hid/midi.h ****     Parses bytes from an input into valid MidiEvents. \n 
  74:../../libdaisy/src/hid/midi.h ****     The MidiEvents fill a FIFO queue that the user can pop messages from.
  75:../../libdaisy/src/hid/midi.h ****     @author shensley
  76:../../libdaisy/src/hid/midi.h ****     @date March 2020
  77:../../libdaisy/src/hid/midi.h **** */
  78:../../libdaisy/src/hid/midi.h **** template <typename Transport>
  79:../../libdaisy/src/hid/midi.h **** class MidiHandler
  80:../../libdaisy/src/hid/midi.h **** {
  81:../../libdaisy/src/hid/midi.h ****   public:
  82:../../libdaisy/src/hid/midi.h ****     MidiHandler() {}
  83:../../libdaisy/src/hid/midi.h ****     ~MidiHandler() {}
  38              		.loc 2 83 5 view .LVU1
  39              	.LBB316:
  40              	.LBI316:
  25:../../libdaisy/src/hid/midi.h **** 
  41              		.loc 2 25 5 view .LVU2
  25:../../libdaisy/src/hid/midi.h **** 
  42              		.loc 2 25 5 is_stmt 0 view .LVU3
  43              	.LBE316:
  44              	.LBE315:
  45              	.LBB317:
  46              	.LBI317:
  47              		.file 3 "../../libdaisy/src/hid/rgb_led.h"
   1:../../libdaisy/src/hid/rgb_led.h **** #pragma once
   2:../../libdaisy/src/hid/rgb_led.h **** #ifndef DSY_RGB_LED_H
   3:../../libdaisy/src/hid/rgb_led.h **** #define DSY_RGB_LED_H
   4:../../libdaisy/src/hid/rgb_led.h **** #include "hid/led.h"
ARM GAS  /tmp/ccQDZuDA.s 			page 4


   5:../../libdaisy/src/hid/rgb_led.h **** #include "util/color.h"
   6:../../libdaisy/src/hid/rgb_led.h **** 
   7:../../libdaisy/src/hid/rgb_led.h **** namespace daisy
   8:../../libdaisy/src/hid/rgb_led.h **** {
   9:../../libdaisy/src/hid/rgb_led.h **** /** @addtogroup feedback
  10:../../libdaisy/src/hid/rgb_led.h ****     @{
  11:../../libdaisy/src/hid/rgb_led.h **** */
  12:../../libdaisy/src/hid/rgb_led.h **** 
  13:../../libdaisy/src/hid/rgb_led.h **** /** 3x LEDs configured as an RGB for ease of use. */
  14:../../libdaisy/src/hid/rgb_led.h **** class RgbLed
  15:../../libdaisy/src/hid/rgb_led.h **** {
  16:../../libdaisy/src/hid/rgb_led.h ****   public:
  17:../../libdaisy/src/hid/rgb_led.h ****     RgbLed() {}
  18:../../libdaisy/src/hid/rgb_led.h ****     ~RgbLed() {}
  48              		.loc 3 18 5 is_stmt 1 view .LVU4
  49              	.LBB318:
  50              	.LBI318:
  51              		.file 4 "../../libdaisy/src/hid/led.h"
   1:../../libdaisy/src/hid/led.h **** 
   2:../../libdaisy/src/hid/led.h **** #pragma once
   3:../../libdaisy/src/hid/led.h **** #ifndef DSY_LED_H
   4:../../libdaisy/src/hid/led.h **** #define DSY_LED_H
   5:../../libdaisy/src/hid/led.h **** #include "daisy_core.h"
   6:../../libdaisy/src/hid/led.h **** #include "per/gpio.h"
   7:../../libdaisy/src/hid/led.h **** 
   8:../../libdaisy/src/hid/led.h **** /* TODO - Get this set up to work with the dev_leddriver stuff as well
   9:../../libdaisy/src/hid/led.h **** - Setup Hardware PWM for pins that have it
  10:../../libdaisy/src/hid/led.h **** */
  11:../../libdaisy/src/hid/led.h **** 
  12:../../libdaisy/src/hid/led.h **** namespace daisy
  13:../../libdaisy/src/hid/led.h **** {
  14:../../libdaisy/src/hid/led.h **** /**
  15:../../libdaisy/src/hid/led.h ****     @brief LED Class providing simple Software PWM ability, etc \n 
  16:../../libdaisy/src/hid/led.h ****     Eventually this will work with hardware PWM, and external LED Driver devices as well.
  17:../../libdaisy/src/hid/led.h ****     @author shensley
  18:../../libdaisy/src/hid/led.h ****     @date March 2020
  19:../../libdaisy/src/hid/led.h ****     @ingroup feedback
  20:../../libdaisy/src/hid/led.h **** */
  21:../../libdaisy/src/hid/led.h **** class Led
  22:../../libdaisy/src/hid/led.h **** {
  23:../../libdaisy/src/hid/led.h ****   public:
  24:../../libdaisy/src/hid/led.h ****     Led() {}
  25:../../libdaisy/src/hid/led.h ****     ~Led() {}
  52              		.loc 4 25 5 view .LVU5
  53              		.loc 4 25 5 is_stmt 0 view .LVU6
  54              	.LBE318:
  55              	.LBB319:
  56              	.LBI319:
  57              		.loc 4 25 5 is_stmt 1 view .LVU7
  58              		.loc 4 25 5 is_stmt 0 view .LVU8
  59              	.LBE319:
  60              	.LBB320:
  61              	.LBI320:
  62              		.loc 4 25 5 is_stmt 1 view .LVU9
  63              		.loc 4 25 5 is_stmt 0 view .LVU10
  64              	.LBE320:
  65              	.LBE317:
ARM GAS  /tmp/ccQDZuDA.s 			page 5


  66              	.LBB321:
  67              	.LBI321:
  68              		.loc 3 18 5 is_stmt 1 view .LVU11
  69              	.LBB322:
  70              	.LBI322:
  71              		.loc 4 25 5 view .LVU12
  72              		.loc 4 25 5 is_stmt 0 view .LVU13
  73              	.LBE322:
  74              	.LBB323:
  75              	.LBI323:
  76              		.loc 4 25 5 is_stmt 1 view .LVU14
  77              		.loc 4 25 5 is_stmt 0 view .LVU15
  78              	.LBE323:
  79              	.LBB324:
  80              	.LBI324:
  81              		.loc 4 25 5 is_stmt 1 view .LVU16
  82              		.loc 4 25 5 is_stmt 0 view .LVU17
  83              	.LBE324:
  84              	.LBE321:
  85              	.LBB325:
  86              	.LBI325:
  87              		.file 5 "../../libdaisy/src/hid/switch.h"
   1:../../libdaisy/src/hid/switch.h **** #pragma once
   2:../../libdaisy/src/hid/switch.h **** #ifndef DSY_SWITCH_H
   3:../../libdaisy/src/hid/switch.h **** #define DSY_SWITCH_H
   4:../../libdaisy/src/hid/switch.h **** #include "daisy_core.h"
   5:../../libdaisy/src/hid/switch.h **** #include "per/gpio.h"
   6:../../libdaisy/src/hid/switch.h **** 
   7:../../libdaisy/src/hid/switch.h **** namespace daisy
   8:../../libdaisy/src/hid/switch.h **** {
   9:../../libdaisy/src/hid/switch.h **** /** 
  10:../../libdaisy/src/hid/switch.h ****     Generic Class for handling momentary/latching switches \n 
  11:../../libdaisy/src/hid/switch.h ****     Inspired/influenced by Mutable Instruments (pichenettes) Switch classes
  12:../../libdaisy/src/hid/switch.h ****     @author Stephen Hensley
  13:../../libdaisy/src/hid/switch.h ****     @date December 2019
  14:../../libdaisy/src/hid/switch.h ****     @ingroup controls
  15:../../libdaisy/src/hid/switch.h **** */
  16:../../libdaisy/src/hid/switch.h **** class Switch
  17:../../libdaisy/src/hid/switch.h **** {
  18:../../libdaisy/src/hid/switch.h ****   public:
  19:../../libdaisy/src/hid/switch.h ****     /** Specifies the expected behavior of the switch */
  20:../../libdaisy/src/hid/switch.h ****     enum Type
  21:../../libdaisy/src/hid/switch.h ****     {
  22:../../libdaisy/src/hid/switch.h ****         TYPE_TOGGLE,    /**< & */
  23:../../libdaisy/src/hid/switch.h ****         TYPE_MOMENTARY, /**< & */
  24:../../libdaisy/src/hid/switch.h ****     };
  25:../../libdaisy/src/hid/switch.h ****     /** Specifies whether the pressed is HIGH or LOW. */
  26:../../libdaisy/src/hid/switch.h ****     enum Polarity
  27:../../libdaisy/src/hid/switch.h ****     {
  28:../../libdaisy/src/hid/switch.h ****         POLARITY_NORMAL,   /**< & */
  29:../../libdaisy/src/hid/switch.h ****         POLARITY_INVERTED, /**< & */
  30:../../libdaisy/src/hid/switch.h ****     };
  31:../../libdaisy/src/hid/switch.h **** 
  32:../../libdaisy/src/hid/switch.h ****     /** Specifies whether to use built-in Pull Up/Down resistors to hold button at a given state wh
  33:../../libdaisy/src/hid/switch.h ****     enum Pull
  34:../../libdaisy/src/hid/switch.h ****     {
  35:../../libdaisy/src/hid/switch.h ****         PULL_UP,   /**< & */
ARM GAS  /tmp/ccQDZuDA.s 			page 6


  36:../../libdaisy/src/hid/switch.h ****         PULL_DOWN, /**< & */
  37:../../libdaisy/src/hid/switch.h ****         PULL_NONE, /**< & */
  38:../../libdaisy/src/hid/switch.h ****     };
  39:../../libdaisy/src/hid/switch.h **** 
  40:../../libdaisy/src/hid/switch.h ****     Switch() {}
  41:../../libdaisy/src/hid/switch.h ****     ~Switch() {}
  88              		.loc 5 41 5 is_stmt 1 view .LVU18
  89              		.loc 5 41 5 is_stmt 0 view .LVU19
  90              	.LBE325:
  91              	.LBB326:
  92              	.LBI326:
  93              		.loc 5 41 5 is_stmt 1 view .LVU20
  94              		.loc 5 41 5 is_stmt 0 view .LVU21
  95              	.LBE326:
  96              	.LBB327:
  97              	.LBI327:
  98              		.file 6 "../../libdaisy/src/hid/ctrl.h"
   1:../../libdaisy/src/hid/ctrl.h **** #pragma once
   2:../../libdaisy/src/hid/ctrl.h **** #ifndef DSY_KNOB_H
   3:../../libdaisy/src/hid/ctrl.h **** #define DSY_KNOB_H /**< & */
   4:../../libdaisy/src/hid/ctrl.h **** #include <stdint.h>
   5:../../libdaisy/src/hid/ctrl.h **** 
   6:../../libdaisy/src/hid/ctrl.h **** #ifdef __cplusplus
   7:../../libdaisy/src/hid/ctrl.h **** namespace daisy
   8:../../libdaisy/src/hid/ctrl.h **** {
   9:../../libdaisy/src/hid/ctrl.h **** /**
  10:../../libdaisy/src/hid/ctrl.h ****     @brief Hardware Interface for control inputs \n 
  11:../../libdaisy/src/hid/ctrl.h ****     Primarily designed for ADC input controls such as \n 
  12:../../libdaisy/src/hid/ctrl.h ****     potentiometers, and control voltage. \n 
  13:../../libdaisy/src/hid/ctrl.h ****     @author Stephen Hensley
  14:../../libdaisy/src/hid/ctrl.h ****     @date November 2019
  15:../../libdaisy/src/hid/ctrl.h ****     @ingroup controls
  16:../../libdaisy/src/hid/ctrl.h **** */
  17:../../libdaisy/src/hid/ctrl.h **** class AnalogControl
  18:../../libdaisy/src/hid/ctrl.h **** {
  19:../../libdaisy/src/hid/ctrl.h ****   public:
  20:../../libdaisy/src/hid/ctrl.h ****     /** Constructor */
  21:../../libdaisy/src/hid/ctrl.h ****     AnalogControl() {}
  22:../../libdaisy/src/hid/ctrl.h ****     /** destructor */
  23:../../libdaisy/src/hid/ctrl.h ****     ~AnalogControl() {}
  99              		.loc 6 23 5 is_stmt 1 view .LVU22
 100              		.loc 6 23 5 is_stmt 0 view .LVU23
 101              	.LBE327:
 102              	.LBB328:
 103              	.LBI328:
 104              		.loc 6 23 5 is_stmt 1 view .LVU24
 105              		.loc 6 23 5 is_stmt 0 view .LVU25
 106              	.LBE328:
 107              	.LBB329:
 108              	.LBI329:
 109              		.file 7 "../../libdaisy/src/hid/encoder.h"
   1:../../libdaisy/src/hid/encoder.h **** #pragma once
   2:../../libdaisy/src/hid/encoder.h **** #ifndef DSY_ENCODER_H
   3:../../libdaisy/src/hid/encoder.h **** #define DSY_ENCODER_H
   4:../../libdaisy/src/hid/encoder.h **** #include "daisy_core.h"
   5:../../libdaisy/src/hid/encoder.h **** #include "per/gpio.h"
   6:../../libdaisy/src/hid/encoder.h **** #include "hid/switch.h"
ARM GAS  /tmp/ccQDZuDA.s 			page 7


   7:../../libdaisy/src/hid/encoder.h **** 
   8:../../libdaisy/src/hid/encoder.h **** namespace daisy
   9:../../libdaisy/src/hid/encoder.h **** {
  10:../../libdaisy/src/hid/encoder.h **** /** 
  11:../../libdaisy/src/hid/encoder.h ****     @brief Generic Class for handling Quadrature Encoders \n 
  12:../../libdaisy/src/hid/encoder.h ****     Inspired/influenced by Mutable Instruments (pichenettes) Encoder classes
  13:../../libdaisy/src/hid/encoder.h ****     @author Stephen Hensley
  14:../../libdaisy/src/hid/encoder.h ****     @date December 2019
  15:../../libdaisy/src/hid/encoder.h ****     @ingroup controls
  16:../../libdaisy/src/hid/encoder.h **** */
  17:../../libdaisy/src/hid/encoder.h **** class Encoder
  18:../../libdaisy/src/hid/encoder.h **** {
  19:../../libdaisy/src/hid/encoder.h ****   public:
  20:../../libdaisy/src/hid/encoder.h ****     Encoder() {}
  21:../../libdaisy/src/hid/encoder.h ****     ~Encoder() {}
 110              		.loc 7 21 5 is_stmt 1 view .LVU26
 111              	.LBB330:
 112              	.LBI330:
 113              		.loc 5 41 5 view .LVU27
 114              		.loc 5 41 5 is_stmt 0 view .LVU28
 115              	.LBE330:
 116              	.LBE329:
 117              	.LBB331:
 118              	.LBI331:
 119              		.file 8 "../../libdaisy/src/daisy_seed.h"
   1:../../libdaisy/src/daisy_seed.h **** #pragma once
   2:../../libdaisy/src/daisy_seed.h **** #ifndef DSY_SEED_H
   3:../../libdaisy/src/daisy_seed.h **** #define DSY_SEED_H
   4:../../libdaisy/src/daisy_seed.h **** 
   5:../../libdaisy/src/daisy_seed.h **** #include "daisy.h"
   6:../../libdaisy/src/daisy_seed.h **** 
   7:../../libdaisy/src/daisy_seed.h **** //Uncomment this out if you're still using the rev2 hardware
   8:../../libdaisy/src/daisy_seed.h **** //#define SEED_REV2
   9:../../libdaisy/src/daisy_seed.h **** 
  10:../../libdaisy/src/daisy_seed.h **** namespace daisy
  11:../../libdaisy/src/daisy_seed.h **** {
  12:../../libdaisy/src/daisy_seed.h **** /**
  13:../../libdaisy/src/daisy_seed.h ****    @brief This is the higher-level interface for the Daisy board. \n 
  14:../../libdaisy/src/daisy_seed.h ****     All basic peripheral configuration/initialization is setup here. \n
  15:../../libdaisy/src/daisy_seed.h **** 
  16:../../libdaisy/src/daisy_seed.h ****    @ingroup boards
  17:../../libdaisy/src/daisy_seed.h **** */
  18:../../libdaisy/src/daisy_seed.h **** class DaisySeed
  19:../../libdaisy/src/daisy_seed.h **** {
  20:../../libdaisy/src/daisy_seed.h ****   public:
  21:../../libdaisy/src/daisy_seed.h ****     DaisySeed() {}
  22:../../libdaisy/src/daisy_seed.h ****     ~DaisySeed() {}
 120              		.loc 8 22 5 is_stmt 1 view .LVU29
 121              	.LBB332:
 122              	.LBI332:
 123              		.file 9 "../../libdaisy/src/sys/system.h"
   1:../../libdaisy/src/sys/system.h **** #ifndef DSY_SYSTEM_H
   2:../../libdaisy/src/sys/system.h **** #define DSY_SYSTEM_H
   3:../../libdaisy/src/sys/system.h **** 
   4:../../libdaisy/src/sys/system.h **** #ifndef UNIT_TEST // for unit tests, a dummy implementation is provided below
   5:../../libdaisy/src/sys/system.h **** 
   6:../../libdaisy/src/sys/system.h **** #include <cstdint>
ARM GAS  /tmp/ccQDZuDA.s 			page 8


   7:../../libdaisy/src/sys/system.h **** #include "per/tim.h"
   8:../../libdaisy/src/sys/system.h **** 
   9:../../libdaisy/src/sys/system.h **** namespace daisy
  10:../../libdaisy/src/sys/system.h **** {
  11:../../libdaisy/src/sys/system.h **** /** A handle for interacting with the Core System. 
  12:../../libdaisy/src/sys/system.h ****  ** This includes the Clock tree, MPU, global DMA initialization,
  13:../../libdaisy/src/sys/system.h ****  ** cache handling, and any other necessary global initiailzation
  14:../../libdaisy/src/sys/system.h ****  **
  15:../../libdaisy/src/sys/system.h ****  ** @author shensley
  16:../../libdaisy/src/sys/system.h ****  ** @addtogroup system
  17:../../libdaisy/src/sys/system.h ****  */
  18:../../libdaisy/src/sys/system.h **** class System
  19:../../libdaisy/src/sys/system.h **** {
  20:../../libdaisy/src/sys/system.h ****   public:
  21:../../libdaisy/src/sys/system.h ****     /** Contains settings for initializing the System */
  22:../../libdaisy/src/sys/system.h ****     struct Config
  23:../../libdaisy/src/sys/system.h ****     {
  24:../../libdaisy/src/sys/system.h ****         /** Specifies the system clock frequency that feeds APB/AHB clocks, etc. */
  25:../../libdaisy/src/sys/system.h ****         enum class SysClkFreq
  26:../../libdaisy/src/sys/system.h ****         {
  27:../../libdaisy/src/sys/system.h ****             FREQ_400MHZ,
  28:../../libdaisy/src/sys/system.h ****             FREQ_480MHZ,
  29:../../libdaisy/src/sys/system.h ****         };
  30:../../libdaisy/src/sys/system.h **** 
  31:../../libdaisy/src/sys/system.h ****         /** Method to call on the struct to set to defaults
  32:../../libdaisy/src/sys/system.h ****          ** CPU Freq set to 400MHz
  33:../../libdaisy/src/sys/system.h ****          ** Cache Enabled 
  34:../../libdaisy/src/sys/system.h ****          ** */
  35:../../libdaisy/src/sys/system.h ****         void Defaults()
  36:../../libdaisy/src/sys/system.h ****         {
  37:../../libdaisy/src/sys/system.h ****             cpu_freq   = SysClkFreq::FREQ_400MHZ;
  38:../../libdaisy/src/sys/system.h ****             use_dcache = true;
  39:../../libdaisy/src/sys/system.h ****             use_icache = true;
  40:../../libdaisy/src/sys/system.h ****         }
  41:../../libdaisy/src/sys/system.h **** 
  42:../../libdaisy/src/sys/system.h ****         /** Method to call on the struct to set to boost mode:
  43:../../libdaisy/src/sys/system.h ****          ** CPU Freq set to 480MHz
  44:../../libdaisy/src/sys/system.h ****          ** Cache Enabled 
  45:../../libdaisy/src/sys/system.h ****          ** */
  46:../../libdaisy/src/sys/system.h ****         void Boost()
  47:../../libdaisy/src/sys/system.h ****         {
  48:../../libdaisy/src/sys/system.h ****             cpu_freq   = SysClkFreq::FREQ_480MHZ;
  49:../../libdaisy/src/sys/system.h ****             use_dcache = true;
  50:../../libdaisy/src/sys/system.h ****             use_icache = true;
  51:../../libdaisy/src/sys/system.h ****         }
  52:../../libdaisy/src/sys/system.h **** 
  53:../../libdaisy/src/sys/system.h ****         SysClkFreq cpu_freq;
  54:../../libdaisy/src/sys/system.h ****         bool       use_dcache;
  55:../../libdaisy/src/sys/system.h ****         bool       use_icache;
  56:../../libdaisy/src/sys/system.h ****     };
  57:../../libdaisy/src/sys/system.h **** 
  58:../../libdaisy/src/sys/system.h ****     System() {}
  59:../../libdaisy/src/sys/system.h ****     ~System() {}
 124              		.loc 9 59 5 view .LVU30
 125              		.loc 9 59 5 is_stmt 0 view .LVU31
 126              	.LBE332:
 127              	.LBB333:
ARM GAS  /tmp/ccQDZuDA.s 			page 9


 128              	.LBI333:
 129              		.file 10 "../../libdaisy/src/hid/usb.h"
   1:../../libdaisy/src/hid/usb.h **** #pragma once
   2:../../libdaisy/src/hid/usb.h **** #ifndef DSY_HID_USB_H
   3:../../libdaisy/src/hid/usb.h **** #define DSY_HID_USB_H
   4:../../libdaisy/src/hid/usb.h **** #include <stdint.h>
   5:../../libdaisy/src/hid/usb.h **** #include <stdlib.h>
   6:../../libdaisy/src/hid/usb.h **** 
   7:../../libdaisy/src/hid/usb.h **** namespace daisy
   8:../../libdaisy/src/hid/usb.h **** /** @addtogroup externals
   9:../../libdaisy/src/hid/usb.h ****     @{
  10:../../libdaisy/src/hid/usb.h **** */
  11:../../libdaisy/src/hid/usb.h **** 
  12:../../libdaisy/src/hid/usb.h **** {
  13:../../libdaisy/src/hid/usb.h **** /** 
  14:../../libdaisy/src/hid/usb.h ****     @brief Interface for initializing and using the USB Peripherals on the daisy
  15:../../libdaisy/src/hid/usb.h ****     @author Stephen Hensley
  16:../../libdaisy/src/hid/usb.h ****     @date December 2019
  17:../../libdaisy/src/hid/usb.h **** */
  18:../../libdaisy/src/hid/usb.h **** class UsbHandle
  19:../../libdaisy/src/hid/usb.h **** {
  20:../../libdaisy/src/hid/usb.h ****   public:
  21:../../libdaisy/src/hid/usb.h ****     /** Return values for USBHandle Functions */
  22:../../libdaisy/src/hid/usb.h ****     enum class Result
  23:../../libdaisy/src/hid/usb.h ****     {
  24:../../libdaisy/src/hid/usb.h ****         OK,
  25:../../libdaisy/src/hid/usb.h ****         ERR,
  26:../../libdaisy/src/hid/usb.h ****     };
  27:../../libdaisy/src/hid/usb.h **** 
  28:../../libdaisy/src/hid/usb.h ****     /** Specified which of the two USB Peripherals to initialize. */
  29:../../libdaisy/src/hid/usb.h ****     enum UsbPeriph
  30:../../libdaisy/src/hid/usb.h ****     {
  31:../../libdaisy/src/hid/usb.h ****         FS_INTERNAL, /**< Internal pin */
  32:../../libdaisy/src/hid/usb.h ****         FS_EXTERNAL, /**< FS External D+ pin is Pin 38 (GPIO32). FS External D- pin is Pin 37 (GPIO
  33:../../libdaisy/src/hid/usb.h ****         FS_BOTH,     /**< Both */
  34:../../libdaisy/src/hid/usb.h ****     };
  35:../../libdaisy/src/hid/usb.h **** 
  36:../../libdaisy/src/hid/usb.h **** 
  37:../../libdaisy/src/hid/usb.h ****     /** Function called upon reception of a buffer */
  38:../../libdaisy/src/hid/usb.h ****     typedef void (*ReceiveCallback)(uint8_t* buff, uint32_t* len);
  39:../../libdaisy/src/hid/usb.h **** 
  40:../../libdaisy/src/hid/usb.h ****     UsbHandle() {}
  41:../../libdaisy/src/hid/usb.h **** 
  42:../../libdaisy/src/hid/usb.h ****     ~UsbHandle() {}
 130              		.loc 10 42 5 is_stmt 1 view .LVU32
 131              		.loc 10 42 5 is_stmt 0 view .LVU33
 132              	.LBE333:
 133              	.LBB334:
 134              	.LBI334:
 135              		.file 11 "../../libdaisy/src/per/adc.h"
   1:../../libdaisy/src/per/adc.h **** #pragma once
   2:../../libdaisy/src/per/adc.h **** #ifndef DSY_ADC_H
   3:../../libdaisy/src/per/adc.h **** #define DSY_ADC_H /**< Macro */
   4:../../libdaisy/src/per/adc.h **** #include <stdint.h>
   5:../../libdaisy/src/per/adc.h **** #include <stdlib.h>
   6:../../libdaisy/src/per/adc.h **** #include "daisy_core.h"
   7:../../libdaisy/src/per/adc.h **** #include "per/gpio.h"
ARM GAS  /tmp/ccQDZuDA.s 			page 10


   8:../../libdaisy/src/per/adc.h **** 
   9:../../libdaisy/src/per/adc.h **** #define DSY_ADC_MAX_CHANNELS 14 /**< Maximum number of ADC channels */
  10:../../libdaisy/src/per/adc.h **** 
  11:../../libdaisy/src/per/adc.h **** namespace daisy
  12:../../libdaisy/src/per/adc.h **** {
  13:../../libdaisy/src/per/adc.h **** /** @addtogroup analog_digital_conversion
  14:../../libdaisy/src/per/adc.h ****     @{
  15:../../libdaisy/src/per/adc.h **** */
  16:../../libdaisy/src/per/adc.h **** 
  17:../../libdaisy/src/per/adc.h **** /* While there may not be many configuration options here,
  18:../../libdaisy/src/per/adc.h **** using a struct like this allows us to add more configuration
  19:../../libdaisy/src/per/adc.h **** later without breaking existing functionality.
  20:../../libdaisy/src/per/adc.h **** */
  21:../../libdaisy/src/per/adc.h **** 
  22:../../libdaisy/src/per/adc.h **** /** Configuration Structure for a given channel */
  23:../../libdaisy/src/per/adc.h **** struct AdcChannelConfig
  24:../../libdaisy/src/per/adc.h **** {
  25:../../libdaisy/src/per/adc.h ****     /** Which pin to use for multiplexing */
  26:../../libdaisy/src/per/adc.h ****     enum MuxPin
  27:../../libdaisy/src/per/adc.h ****     {
  28:../../libdaisy/src/per/adc.h ****         MUX_SEL_0,    /**< & */
  29:../../libdaisy/src/per/adc.h ****         MUX_SEL_1,    /**< & */
  30:../../libdaisy/src/per/adc.h ****         MUX_SEL_2,    /**< & */
  31:../../libdaisy/src/per/adc.h ****         MUX_SEL_LAST, /**< & */
  32:../../libdaisy/src/per/adc.h ****     };
  33:../../libdaisy/src/per/adc.h **** 
  34:../../libdaisy/src/per/adc.h ****     /** Initializes a single ADC pin as an ADC. 
  35:../../libdaisy/src/per/adc.h ****     \param pin Pin to init.
  36:../../libdaisy/src/per/adc.h ****      */
  37:../../libdaisy/src/per/adc.h ****     void InitSingle(dsy_gpio_pin pin);
  38:../../libdaisy/src/per/adc.h **** 
  39:../../libdaisy/src/per/adc.h ****     /** 
  40:../../libdaisy/src/per/adc.h ****     Initializes a single ADC pin as a Multiplexed ADC.
  41:../../libdaisy/src/per/adc.h ****     Requires a CD405X Multiplexer connected to the pin.
  42:../../libdaisy/src/per/adc.h ****     You only need to supply the mux pins that are required,
  43:../../libdaisy/src/per/adc.h ****     e.g. a 4052 mux would only require mux_0 and mux_1.
  44:../../libdaisy/src/per/adc.h ****     Internal Callbacks handle the pin addressing.
  45:../../libdaisy/src/per/adc.h ****     \param mux_channels must be 1-8
  46:../../libdaisy/src/per/adc.h ****     \param mux_0 First mux pin
  47:../../libdaisy/src/per/adc.h ****     \param mux_1 Second mux pin
  48:../../libdaisy/src/per/adc.h ****     \param mux_2 Third mux pin
  49:../../libdaisy/src/per/adc.h ****     \param adc_pin &
  50:../../libdaisy/src/per/adc.h ****     */
  51:../../libdaisy/src/per/adc.h ****     void InitMux(dsy_gpio_pin adc_pin,
  52:../../libdaisy/src/per/adc.h ****                  size_t       mux_channels,
  53:../../libdaisy/src/per/adc.h ****                  dsy_gpio_pin mux_0,
  54:../../libdaisy/src/per/adc.h ****                  dsy_gpio_pin mux_1 = {DSY_GPIOX, 0},
  55:../../libdaisy/src/per/adc.h ****                  dsy_gpio_pin mux_2 = {DSY_GPIOX, 0});
  56:../../libdaisy/src/per/adc.h **** 
  57:../../libdaisy/src/per/adc.h ****     dsy_gpio pin_;                   /**< & */
  58:../../libdaisy/src/per/adc.h ****     dsy_gpio mux_pin_[MUX_SEL_LAST]; /**< & */
  59:../../libdaisy/src/per/adc.h ****     uint8_t  mux_channels_;          /**< & */
  60:../../libdaisy/src/per/adc.h **** };
  61:../../libdaisy/src/per/adc.h **** 
  62:../../libdaisy/src/per/adc.h **** /**
  63:../../libdaisy/src/per/adc.h ****    Handler for analog to digital conversion
  64:../../libdaisy/src/per/adc.h **** */
ARM GAS  /tmp/ccQDZuDA.s 			page 11


  65:../../libdaisy/src/per/adc.h **** class AdcHandle
  66:../../libdaisy/src/per/adc.h **** {
  67:../../libdaisy/src/per/adc.h ****   public:
  68:../../libdaisy/src/per/adc.h ****     /** Supported oversampling amounts */
  69:../../libdaisy/src/per/adc.h ****     enum OverSampling
  70:../../libdaisy/src/per/adc.h ****     {
  71:../../libdaisy/src/per/adc.h ****         OVS_NONE, /**< & */
  72:../../libdaisy/src/per/adc.h ****         OVS_4,    /**< & */
  73:../../libdaisy/src/per/adc.h ****         OVS_8,    /**< & */
  74:../../libdaisy/src/per/adc.h ****         OVS_16,   /**< & */
  75:../../libdaisy/src/per/adc.h ****         OVS_32,   /**< & */
  76:../../libdaisy/src/per/adc.h ****         OVS_64,   /**< & */
  77:../../libdaisy/src/per/adc.h ****         OVS_128,  /**< & */
  78:../../libdaisy/src/per/adc.h ****         OVS_256,  /**< & */
  79:../../libdaisy/src/per/adc.h ****         OVS_512,  /**< & */
  80:../../libdaisy/src/per/adc.h ****         OVS_1024, /**< & */
  81:../../libdaisy/src/per/adc.h ****         OVS_LAST, /**< & */
  82:../../libdaisy/src/per/adc.h ****     };
  83:../../libdaisy/src/per/adc.h **** 
  84:../../libdaisy/src/per/adc.h ****     AdcHandle() {}
  85:../../libdaisy/src/per/adc.h ****     ~AdcHandle() {}
 136              		.loc 11 85 5 is_stmt 1 view .LVU34
 137              		.loc 11 85 5 is_stmt 0 view .LVU35
 138              	.LBE334:
 139              	.LBB335:
 140              	.LBI335:
 141              		.file 12 "../../libdaisy/src/hid/audio.h"
   1:../../libdaisy/src/hid/audio.h **** #ifndef DSY_AUDIO_H
   2:../../libdaisy/src/hid/audio.h **** #define DSY_AUDIO_H /**< & */
   3:../../libdaisy/src/hid/audio.h **** 
   4:../../libdaisy/src/hid/audio.h **** #include "per/sai.h"
   5:../../libdaisy/src/hid/audio.h **** 
   6:../../libdaisy/src/hid/audio.h **** namespace daisy
   7:../../libdaisy/src/hid/audio.h **** {
   8:../../libdaisy/src/hid/audio.h **** class AudioHandle
   9:../../libdaisy/src/hid/audio.h **** {
  10:../../libdaisy/src/hid/audio.h ****   public:
  11:../../libdaisy/src/hid/audio.h ****     /** Manually configurable details about the Audio Engine */
  12:../../libdaisy/src/hid/audio.h ****     /** TODO: Figure out how to get samplerate in here. */
  13:../../libdaisy/src/hid/audio.h ****     struct Config
  14:../../libdaisy/src/hid/audio.h ****     {
  15:../../libdaisy/src/hid/audio.h ****         size_t                        blocksize;
  16:../../libdaisy/src/hid/audio.h ****         SaiHandle::Config::SampleRate samplerate;
  17:../../libdaisy/src/hid/audio.h ****         float                         postgain;
  18:../../libdaisy/src/hid/audio.h ****     };
  19:../../libdaisy/src/hid/audio.h **** 
  20:../../libdaisy/src/hid/audio.h ****     enum class Result
  21:../../libdaisy/src/hid/audio.h ****     {
  22:../../libdaisy/src/hid/audio.h ****         OK,
  23:../../libdaisy/src/hid/audio.h ****         ERR,
  24:../../libdaisy/src/hid/audio.h ****     };
  25:../../libdaisy/src/hid/audio.h **** 
  26:../../libdaisy/src/hid/audio.h ****     /** Non-Interleaving input buffer
  27:../../libdaisy/src/hid/audio.h ****      * Buffer arranged by float[chn][sample] 
  28:../../libdaisy/src/hid/audio.h ****      * const so that the user can't modify the input
  29:../../libdaisy/src/hid/audio.h ****     */
  30:../../libdaisy/src/hid/audio.h ****     typedef const float* const* InputBuffer;
ARM GAS  /tmp/ccQDZuDA.s 			page 12


  31:../../libdaisy/src/hid/audio.h **** 
  32:../../libdaisy/src/hid/audio.h ****     /** Non-Interleaving output buffer
  33:../../libdaisy/src/hid/audio.h ****      * Arranged by float[chn][sample] 
  34:../../libdaisy/src/hid/audio.h ****     */
  35:../../libdaisy/src/hid/audio.h ****     typedef float** OutputBuffer;
  36:../../libdaisy/src/hid/audio.h **** 
  37:../../libdaisy/src/hid/audio.h ****     /** Type for a Non-Interleaving audio callback 
  38:../../libdaisy/src/hid/audio.h ****    * Non-Interleaving audio callbacks in daisy will be of this type
  39:../../libdaisy/src/hid/audio.h ****   */
  40:../../libdaisy/src/hid/audio.h ****     typedef void (*AudioCallback)(InputBuffer  in,
  41:../../libdaisy/src/hid/audio.h ****                                   OutputBuffer out,
  42:../../libdaisy/src/hid/audio.h ****                                   size_t       size);
  43:../../libdaisy/src/hid/audio.h **** 
  44:../../libdaisy/src/hid/audio.h ****     /** Interleaving Input buffer
  45:../../libdaisy/src/hid/audio.h ****      ** audio is prepared as { L0, R0, L1, R1, . . . LN, RN }]
  46:../../libdaisy/src/hid/audio.h ****      ** this is const, as the user shouldn't modify it
  47:../../libdaisy/src/hid/audio.h ****     */
  48:../../libdaisy/src/hid/audio.h ****     typedef const float* InterleavingInputBuffer;
  49:../../libdaisy/src/hid/audio.h **** 
  50:../../libdaisy/src/hid/audio.h ****     /** Interleaving Output buffer 
  51:../../libdaisy/src/hid/audio.h ****      ** audio is prepared as { L0, R0, L1, R1, . . . LN, RN }
  52:../../libdaisy/src/hid/audio.h ****     */
  53:../../libdaisy/src/hid/audio.h ****     typedef float* InterleavingOutputBuffer;
  54:../../libdaisy/src/hid/audio.h **** 
  55:../../libdaisy/src/hid/audio.h ****     /** Interleaving Audio Callback 
  56:../../libdaisy/src/hid/audio.h ****    * Interleaving audio callbacks in daisy must be of this type
  57:../../libdaisy/src/hid/audio.h ****   */
  58:../../libdaisy/src/hid/audio.h ****     typedef void (*InterleavingAudioCallback)(InterleavingInputBuffer  in,
  59:../../libdaisy/src/hid/audio.h ****                                               InterleavingOutputBuffer out,
  60:../../libdaisy/src/hid/audio.h ****                                               size_t                   size);
  61:../../libdaisy/src/hid/audio.h **** 
  62:../../libdaisy/src/hid/audio.h ****     AudioHandle() : pimpl_(nullptr) {}
  63:../../libdaisy/src/hid/audio.h ****     ~AudioHandle() {}
 142              		.loc 12 63 5 is_stmt 1 view .LVU36
 143              		.loc 12 63 5 is_stmt 0 view .LVU37
 144              	.LBE335:
 145              	.LBE331:
 146              		.loc 1 36 18 view .LVU38
 147 0000 7047     		bx	lr
 148              		.cfi_endproc
 149              	.LFE2046:
 151              		.weak	_ZN5daisy8DaisyPodD1Ev
 152              		.thumb_set _ZN5daisy8DaisyPodD1Ev,_ZN5daisy8DaisyPodD2Ev
 153 0002 00BF     		.section	.text.__tcf_0,"ax",%progbits
 154              		.align	1
 155              		.p2align 2,,3
 156              		.syntax unified
 157              		.thumb
 158              		.thumb_func
 159              		.fpu fpv5-d16
 161              	__tcf_0:
 162              	.LFB2078:
 163              		.file 13 "main.cpp"
   1:main.cpp      **** #include "daisy_pod.h"
   2:main.cpp      **** 
   3:main.cpp      **** using namespace daisy;
   4:main.cpp      **** 
ARM GAS  /tmp/ccQDZuDA.s 			page 13


   5:main.cpp      **** static DaisyPod hw;
   6:main.cpp      **** static uint8_t  led_sel;
   7:main.cpp      **** static int32_t  inc;
   8:main.cpp      **** 
   9:main.cpp      **** #define NUM_COLORS 5
  10:main.cpp      **** 
  11:main.cpp      **** Color my_colors[5];
 164              		.loc 13 11 7 is_stmt 1 view -0
 165              		.cfi_startproc
 166              		@ args = 0, pretend = 0, frame = 0
 167              		@ frame_needed = 0, uses_anonymous_args = 0
 168              		@ link register save eliminated.
 169              		.loc 13 11 7 is_stmt 0 view .LVU40
 170 0000 7047     		bx	lr
 171              		.cfi_endproc
 172              	.LFE2078:
 174 0002 00BF     		.section	.text._ZL8callbackPKfPfj,"ax",%progbits
 175              		.align	1
 176              		.p2align 2,,3
 177              		.syntax unified
 178              		.thumb
 179              		.thumb_func
 180              		.fpu fpv5-d16
 182              	_ZL8callbackPKfPfj:
 183              	.LVL1:
 184              	.LFB2049:
  12:main.cpp      **** 
  13:main.cpp      **** static void callback(AudioHandle::InterleavingInputBuffer  in,
  14:main.cpp      ****                      AudioHandle::InterleavingOutputBuffer out,
  15:main.cpp      ****                      size_t                                size)
  16:main.cpp      **** {
 185              		.loc 13 16 1 is_stmt 1 view -0
 186              		.cfi_startproc
 187              		@ args = 0, pretend = 0, frame = 16
 188              		@ frame_needed = 0, uses_anonymous_args = 0
  17:main.cpp      ****     // Debounce the Encoder at a steady, fixed rate.
  18:main.cpp      ****     hw.encoder.Debounce();
 189              		.loc 13 18 5 view .LVU42
  16:main.cpp      ****     // Debounce the Encoder at a steady, fixed rate.
 190              		.loc 13 16 1 is_stmt 0 view .LVU43
 191 0000 70B5     		push	{r4, r5, r6, lr}
 192              		.cfi_def_cfa_offset 16
 193              		.cfi_offset 4, -16
 194              		.cfi_offset 5, -12
 195              		.cfi_offset 6, -8
 196              		.cfi_offset 14, -4
 197              		.loc 13 18 24 view .LVU44
 198 0002 2248     		ldr	r0, .L15
 199              	.LVL2:
  16:main.cpp      ****     // Debounce the Encoder at a steady, fixed rate.
 200              		.loc 13 16 1 view .LVU45
 201 0004 84B0     		sub	sp, sp, #16
 202              		.cfi_def_cfa_offset 32
 203              		.loc 13 18 24 view .LVU46
 204 0006 FFF7FEFF 		bl	_ZN5daisy7Encoder8DebounceEv
 205              	.LVL3:
  19:main.cpp      ****     inc = hw.encoder.Increment();
ARM GAS  /tmp/ccQDZuDA.s 			page 14


 206              		.loc 13 19 5 is_stmt 1 view .LVU47
 207              		.loc 13 19 31 is_stmt 0 view .LVU48
 208 000a 214A     		ldr	r2, .L15+4
  20:main.cpp      ****     // Change the selected LED based on the increment.
  21:main.cpp      ****     if(inc > 0)
  22:main.cpp      ****     {
  23:main.cpp      ****         led_sel += 1;
 209              		.loc 13 23 17 view .LVU49
 210 000c 214E     		ldr	r6, .L15+8
  19:main.cpp      ****     inc = hw.encoder.Increment();
 211              		.loc 13 19 31 view .LVU50
 212 000e 936D     		ldr	r3, [r2, #88]
 213              	.LVL4:
  22:../../libdaisy/src/hid/encoder.h **** 
  23:../../libdaisy/src/hid/encoder.h ****     /** Initializes the encoder with the specified hardware pins.
  24:../../libdaisy/src/hid/encoder.h **** */
  25:../../libdaisy/src/hid/encoder.h ****     //
  26:../../libdaisy/src/hid/encoder.h ****     /** Update rate should be the rate at which Debounce() gets called
  27:../../libdaisy/src/hid/encoder.h **** in Hertz.
  28:../../libdaisy/src/hid/encoder.h **** */
  29:../../libdaisy/src/hid/encoder.h ****     //
  30:../../libdaisy/src/hid/encoder.h ****     void
  31:../../libdaisy/src/hid/encoder.h ****     Init(dsy_gpio_pin a, dsy_gpio_pin b, dsy_gpio_pin click, float update_rate);
  32:../../libdaisy/src/hid/encoder.h ****     /** Called at update_rate to debounce and handle timing for the switch.
  33:../../libdaisy/src/hid/encoder.h **** */
  34:../../libdaisy/src/hid/encoder.h ****     //
  35:../../libdaisy/src/hid/encoder.h ****     /** In order for events not to be missed, its important that the Edge/Pressed checks
  36:../../libdaisy/src/hid/encoder.h **** be made at the same rate as the debounce function is being called.
  37:../../libdaisy/src/hid/encoder.h **** */
  38:../../libdaisy/src/hid/encoder.h ****     void Debounce();
  39:../../libdaisy/src/hid/encoder.h ****     /** Returns +1 if the encoder was turned clockwise, -1 if it was turned counter-clockwise, or 0
  40:../../libdaisy/src/hid/encoder.h **** */
  41:../../libdaisy/src/hid/encoder.h ****     inline int32_t Increment() const { return inc_; }
 214              		.loc 7 41 40 is_stmt 1 view .LVU51
  21:main.cpp      ****     {
 215              		.loc 13 21 5 view .LVU52
 216 0010 002B     		cmp	r3, #0
 217 0012 32DD     		ble	.L5
 218              		.loc 13 23 9 view .LVU53
 219              		.loc 13 23 17 is_stmt 0 view .LVU54
 220 0014 3378     		ldrb	r3, [r6]	@ zero_extendqisi2
 221 0016 0133     		adds	r3, r3, #1
 222 0018 DBB2     		uxtb	r3, r3
  24:main.cpp      ****         // Wrap around
  25:main.cpp      ****         if(led_sel > NUM_COLORS - 1)
 223              		.loc 13 25 9 is_stmt 1 view .LVU55
 224 001a 042B     		cmp	r3, #4
 225 001c 2AD8     		bhi	.L6
 226              	.L14:
  26:main.cpp      ****         {
  27:main.cpp      ****             led_sel = 0;
  28:main.cpp      ****         }
  29:main.cpp      ****     }
  30:main.cpp      ****     else if(inc < 0)
  31:main.cpp      ****     {
  32:main.cpp      ****         // Wrap around
  33:main.cpp      ****         if(led_sel == 0)
ARM GAS  /tmp/ccQDZuDA.s 			page 15


  34:main.cpp      ****         {
  35:main.cpp      ****             led_sel = NUM_COLORS - 1;
  36:main.cpp      ****         }
  37:main.cpp      ****         else
  38:main.cpp      ****         {
  39:main.cpp      ****             led_sel -= 1;
 227              		.loc 13 39 21 is_stmt 0 view .LVU56
 228 001e 3370     		strb	r3, [r6]
 229              	.L7:
  40:main.cpp      ****         }
  41:main.cpp      ****     }
  42:main.cpp      ****     if(hw.encoder.RisingEdge())
 230              		.loc 13 42 5 is_stmt 1 view .LVU57
 231              	.LVL5:
 232              	.LBB336:
 233              	.LBI336:
  42:../../libdaisy/src/hid/encoder.h ****     /** Returns true if the encoder was just pressed.
  43:../../libdaisy/src/hid/encoder.h **** */
  44:../../libdaisy/src/hid/encoder.h ****     inline bool RisingEdge() const { return sw_.RisingEdge(); }
 234              		.loc 7 44 17 view .LVU58
 235              	.LBB337:
 236              		.loc 7 44 38 view .LVU59
 237              		.loc 7 44 38 is_stmt 0 view .LVU60
 238              	.LBE337:
 239              	.LBE336:
  42:../../libdaisy/src/hid/switch.h **** 
  43:../../libdaisy/src/hid/switch.h ****     /** 
  44:../../libdaisy/src/hid/switch.h ****     Initializes the switch object with a given port/pin combo.
  45:../../libdaisy/src/hid/switch.h ****     \param pin port/pin object to tell the switch which hardware pin to use.
  46:../../libdaisy/src/hid/switch.h ****     \param update_rate the rate at which the Debounce() function will be called. (used for timing).
  47:../../libdaisy/src/hid/switch.h ****     \param t switch type -- Default: TYPE_MOMENTARY
  48:../../libdaisy/src/hid/switch.h ****     \param pol switch polarity -- Default: POLARITY_INVERTED
  49:../../libdaisy/src/hid/switch.h ****     \param pu switch pull up/down -- Default: PULL_UP
  50:../../libdaisy/src/hid/switch.h ****     */
  51:../../libdaisy/src/hid/switch.h ****     void
  52:../../libdaisy/src/hid/switch.h ****     Init(dsy_gpio_pin pin, float update_rate, Type t, Polarity pol, Pull pu);
  53:../../libdaisy/src/hid/switch.h **** 
  54:../../libdaisy/src/hid/switch.h ****     /**
  55:../../libdaisy/src/hid/switch.h ****        Simplified Init.
  56:../../libdaisy/src/hid/switch.h ****        \param pin port/pin object to tell the switch which hardware pin to use.
  57:../../libdaisy/src/hid/switch.h ****        \param update_rate the rate at which the Debounce() function will be called. (used for timin
  58:../../libdaisy/src/hid/switch.h ****     */
  59:../../libdaisy/src/hid/switch.h ****     void Init(dsy_gpio_pin pin, float update_rate);
  60:../../libdaisy/src/hid/switch.h **** 
  61:../../libdaisy/src/hid/switch.h ****     /** 
  62:../../libdaisy/src/hid/switch.h ****     Called at update_rate to debounce and handle timing for the switch.
  63:../../libdaisy/src/hid/switch.h ****     In order for events not to be missed, its important that the Edge/Pressed checks
  64:../../libdaisy/src/hid/switch.h ****     be made at the same rate as the debounce function is being called.
  65:../../libdaisy/src/hid/switch.h ****     */
  66:../../libdaisy/src/hid/switch.h ****     void Debounce();
  67:../../libdaisy/src/hid/switch.h **** 
  68:../../libdaisy/src/hid/switch.h ****     /** \return true if a button was just pressed. */
  69:../../libdaisy/src/hid/switch.h ****     inline bool RisingEdge() const { return state_ == 0x7f; }
 240              		.loc 5 69 38 is_stmt 1 view .LVU61
 241              		.loc 13 42 5 is_stmt 0 view .LVU62
 242 0020 92F84130 		ldrb	r3, [r2, #65]	@ zero_extendqisi2
 243 0024 7F2B     		cmp	r3, #127
ARM GAS  /tmp/ccQDZuDA.s 			page 16


 244 0026 01D1     		bne	.L10
  43:main.cpp      ****     {
  44:main.cpp      ****         led_sel = 4;
 245              		.loc 13 44 9 is_stmt 1 view .LVU63
 246              		.loc 13 44 17 is_stmt 0 view .LVU64
 247 0028 0423     		movs	r3, #4
 248 002a 3370     		strb	r3, [r6]
 249              	.L10:
  45:main.cpp      ****     }
  46:main.cpp      ****     hw.ClearLeds();
 250              		.loc 13 46 5 is_stmt 1 view .LVU65
 251              		.loc 13 46 17 is_stmt 0 view .LVU66
 252 002c 1848     		ldr	r0, .L15+4
  47:main.cpp      ****     hw.led1.SetColor(my_colors[led_sel]);
 253              		.loc 13 47 39 view .LVU67
 254 002e 01AC     		add	r4, sp, #4
  46:main.cpp      ****     hw.led1.SetColor(my_colors[led_sel]);
 255              		.loc 13 46 17 view .LVU68
 256 0030 FFF7FEFF 		bl	_ZN5daisy8DaisyPod9ClearLedsEv
 257              	.LVL6:
 258              		.loc 13 47 5 is_stmt 1 view .LVU69
 259              		.loc 13 47 32 is_stmt 0 view .LVU70
 260 0034 3378     		ldrb	r3, [r6]	@ zero_extendqisi2
 261              		.loc 13 47 39 view .LVU71
 262 0036 184D     		ldr	r5, .L15+12
 263 0038 03EB4303 		add	r3, r3, r3, lsl #1
 264 003c 05EB8303 		add	r3, r5, r3, lsl #2
 265 0040 93E80700 		ldm	r3, {r0, r1, r2}
 266 0044 84E80700 		stm	r4, {r0, r1, r2}
 267              		.loc 13 47 21 view .LVU72
 268 0048 2146     		mov	r1, r4
 269 004a 1448     		ldr	r0, .L15+16
 270 004c FFF7FEFF 		bl	_ZN5daisy6RgbLed8SetColorENS_5ColorE
 271              	.LVL7:
 272              	.LBB338:
 273              	.LBI338:
 274              		.file 14 "../../libdaisy/src/util/color.h"
   1:../../libdaisy/src/util/color.h **** /* 
   2:../../libdaisy/src/util/color.h **** TODO:
   3:../../libdaisy/src/util/color.h **** - Add Blend(), Scale(), etc.
   4:../../libdaisy/src/util/color.h **** - I'd also like to change the way the Color names are accessed.
   5:../../libdaisy/src/util/color.h **** */
   6:../../libdaisy/src/util/color.h **** /**        I'd like for it to be easy and not `Color::PresetColor::Foo`
   7:../../libdaisy/src/util/color.h **** */
   8:../../libdaisy/src/util/color.h **** /** - There's no way to change a color once its been created (without unintuitively reiniting it).
   9:../../libdaisy/src/util/color.h **** */
  10:../../libdaisy/src/util/color.h **** #pragma once
  11:../../libdaisy/src/util/color.h **** #ifndef DSY_COLOR_H
  12:../../libdaisy/src/util/color.h **** #define DSY_COLOR_H
  13:../../libdaisy/src/util/color.h **** #include <stdint.h>
  14:../../libdaisy/src/util/color.h **** 
  15:../../libdaisy/src/util/color.h **** 
  16:../../libdaisy/src/util/color.h **** namespace daisy
  17:../../libdaisy/src/util/color.h **** {
  18:../../libdaisy/src/util/color.h **** /** @addtogroup utility
  19:../../libdaisy/src/util/color.h ****     @{
  20:../../libdaisy/src/util/color.h **** */
ARM GAS  /tmp/ccQDZuDA.s 			page 17


  21:../../libdaisy/src/util/color.h **** 
  22:../../libdaisy/src/util/color.h **** /** Class for handling simple colors */
  23:../../libdaisy/src/util/color.h **** class Color
  24:../../libdaisy/src/util/color.h **** {
  25:../../libdaisy/src/util/color.h ****   public:
  26:../../libdaisy/src/util/color.h ****     Color() {}
  27:../../libdaisy/src/util/color.h ****     ~Color() {}
 275              		.loc 14 27 5 is_stmt 1 view .LVU73
 276              		.loc 14 27 5 is_stmt 0 view .LVU74
 277              	.LBE338:
  48:main.cpp      ****     hw.led2.SetColor(my_colors[led_sel]);
 278              		.loc 13 48 5 is_stmt 1 view .LVU75
 279              		.loc 13 48 32 is_stmt 0 view .LVU76
 280 0050 3378     		ldrb	r3, [r6]	@ zero_extendqisi2
 281              		.loc 13 48 39 view .LVU77
 282 0052 03EB4303 		add	r3, r3, r3, lsl #1
 283 0056 05EB8303 		add	r3, r5, r3, lsl #2
 284 005a 93E80700 		ldm	r3, {r0, r1, r2}
 285 005e 84E80700 		stm	r4, {r0, r1, r2}
 286              		.loc 13 48 21 view .LVU78
 287 0062 2146     		mov	r1, r4
 288 0064 0E48     		ldr	r0, .L15+20
 289 0066 FFF7FEFF 		bl	_ZN5daisy6RgbLed8SetColorENS_5ColorE
 290              	.LVL8:
 291              	.LBB339:
 292              	.LBI339:
 293              		.loc 14 27 5 is_stmt 1 view .LVU79
 294              		.loc 14 27 5 is_stmt 0 view .LVU80
 295              	.LBE339:
  49:main.cpp      ****     hw.UpdateLeds();
 296              		.loc 13 49 5 is_stmt 1 view .LVU81
 297              		.loc 13 49 18 is_stmt 0 view .LVU82
 298 006a 0948     		ldr	r0, .L15+4
 299 006c FFF7FEFF 		bl	_ZN5daisy8DaisyPod10UpdateLedsEv
 300              	.LVL9:
  50:main.cpp      **** }
 301              		.loc 13 50 1 view .LVU83
 302 0070 04B0     		add	sp, sp, #16
 303              		.cfi_remember_state
 304              		.cfi_def_cfa_offset 16
 305              		@ sp needed
 306 0072 70BD     		pop	{r4, r5, r6, pc}
 307              	.LVL10:
 308              	.L6:
 309              		.cfi_restore_state
  27:main.cpp      ****         }
 310              		.loc 13 27 13 is_stmt 1 view .LVU84
  27:main.cpp      ****         }
 311              		.loc 13 27 21 is_stmt 0 view .LVU85
 312 0074 0023     		movs	r3, #0
 313 0076 3370     		strb	r3, [r6]
 314 0078 D2E7     		b	.L7
 315              	.L5:
  30:main.cpp      ****     {
 316              		.loc 13 30 10 is_stmt 1 view .LVU86
 317 007a D1D0     		beq	.L7
  33:main.cpp      ****         {
ARM GAS  /tmp/ccQDZuDA.s 			page 18


 318              		.loc 13 33 9 view .LVU87
  33:main.cpp      ****         {
 319              		.loc 13 33 20 is_stmt 0 view .LVU88
 320 007c 3378     		ldrb	r3, [r6]	@ zero_extendqisi2
  33:main.cpp      ****         {
 321              		.loc 13 33 9 view .LVU89
 322 007e 13B9     		cbnz	r3, .L9
  35:main.cpp      ****         }
 323              		.loc 13 35 13 is_stmt 1 view .LVU90
  35:main.cpp      ****         }
 324              		.loc 13 35 21 is_stmt 0 view .LVU91
 325 0080 0423     		movs	r3, #4
 326 0082 3370     		strb	r3, [r6]
 327 0084 CCE7     		b	.L7
 328              	.L9:
  39:main.cpp      ****         }
 329              		.loc 13 39 13 is_stmt 1 view .LVU92
  39:main.cpp      ****         }
 330              		.loc 13 39 21 is_stmt 0 view .LVU93
 331 0086 013B     		subs	r3, r3, #1
 332 0088 C9E7     		b	.L14
 333              	.L16:
 334 008a 00BF     		.align	2
 335              	.L15:
 336 008c 3C000000 		.word	_ZL2hw+60
 337 0090 00000000 		.word	_ZL2hw
 338 0094 00000000 		.word	.LANCHOR0
 339 0098 00000000 		.word	.LANCHOR1
 340 009c CC000000 		.word	_ZL2hw+204
 341 00a0 20010000 		.word	_ZL2hw+288
 342              		.cfi_endproc
 343              	.LFE2049:
 345              		.section	.text.startup.main,"ax",%progbits
 346              		.align	1
 347              		.p2align 2,,3
 348              		.global	main
 349              		.syntax unified
 350              		.thumb
 351              		.thumb_func
 352              		.fpu fpv5-d16
 354              	main:
 355              	.LFB2050:
  51:main.cpp      **** 
  52:main.cpp      **** int main(void)
  53:main.cpp      **** {
 356              		.loc 13 53 1 is_stmt 1 view -0
 357              		.cfi_startproc
 358              		@ Volatile: function does not return.
 359              		@ args = 0, pretend = 0, frame = 0
 360              		@ frame_needed = 0, uses_anonymous_args = 0
  54:main.cpp      ****     hw.Init();
 361              		.loc 13 54 5 view .LVU95
  53:main.cpp      ****     hw.Init();
 362              		.loc 13 53 1 is_stmt 0 view .LVU96
 363 0000 08B5     		push	{r3, lr}
 364              		.cfi_def_cfa_offset 8
 365              		.cfi_offset 3, -8
ARM GAS  /tmp/ccQDZuDA.s 			page 19


 366              		.cfi_offset 14, -4
 367              		.loc 13 54 12 view .LVU97
 368 0002 0021     		movs	r1, #0
 369 0004 0E48     		ldr	r0, .L20
 370 0006 FFF7FEFF 		bl	_ZN5daisy8DaisyPod4InitEb
 371              	.LVL11:
  55:main.cpp      ****     led_sel = 0;
 372              		.loc 13 55 5 is_stmt 1 view .LVU98
 373              		.loc 13 55 13 is_stmt 0 view .LVU99
 374 000a 0E4B     		ldr	r3, .L20+4
 375 000c 0021     		movs	r1, #0
  56:main.cpp      ****     inc     = 0;
  57:main.cpp      ****     my_colors[0].Init(Color::PresetColor::RED);
 376              		.loc 13 57 22 view .LVU100
 377 000e 0E48     		ldr	r0, .L20+8
  55:main.cpp      ****     led_sel = 0;
 378              		.loc 13 55 13 view .LVU101
 379 0010 1970     		strb	r1, [r3]
  56:main.cpp      ****     inc     = 0;
 380              		.loc 13 56 5 is_stmt 1 view .LVU102
 381              		.loc 13 57 5 view .LVU103
 382              		.loc 13 57 22 is_stmt 0 view .LVU104
 383 0012 FFF7FEFF 		bl	_ZN5daisy5Color4InitENS0_11PresetColorE
 384              	.LVL12:
  58:main.cpp      ****     my_colors[1].Init(Color::PresetColor::GREEN);
 385              		.loc 13 58 5 is_stmt 1 view .LVU105
 386              		.loc 13 58 22 is_stmt 0 view .LVU106
 387 0016 0121     		movs	r1, #1
 388 0018 0C48     		ldr	r0, .L20+12
 389 001a FFF7FEFF 		bl	_ZN5daisy5Color4InitENS0_11PresetColorE
 390              	.LVL13:
  59:main.cpp      ****     my_colors[2].Init(Color::PresetColor::BLUE);
 391              		.loc 13 59 5 is_stmt 1 view .LVU107
 392              		.loc 13 59 22 is_stmt 0 view .LVU108
 393 001e 0221     		movs	r1, #2
 394 0020 0B48     		ldr	r0, .L20+16
 395 0022 FFF7FEFF 		bl	_ZN5daisy5Color4InitENS0_11PresetColorE
 396              	.LVL14:
  60:main.cpp      ****     my_colors[3].Init(Color::PresetColor::WHITE);
 397              		.loc 13 60 5 is_stmt 1 view .LVU109
 398              		.loc 13 60 22 is_stmt 0 view .LVU110
 399 0026 0321     		movs	r1, #3
 400 0028 0A48     		ldr	r0, .L20+20
 401 002a FFF7FEFF 		bl	_ZN5daisy5Color4InitENS0_11PresetColorE
 402              	.LVL15:
  61:main.cpp      ****     my_colors[4].Init(Color::PresetColor::OFF);
 403              		.loc 13 61 5 is_stmt 1 view .LVU111
 404              		.loc 13 61 22 is_stmt 0 view .LVU112
 405 002e 0721     		movs	r1, #7
 406 0030 0948     		ldr	r0, .L20+24
 407 0032 FFF7FEFF 		bl	_ZN5daisy5Color4InitENS0_11PresetColorE
 408              	.LVL16:
  62:main.cpp      ****     // until we have fixed timer callbacks we'll use the audio callback
  63:main.cpp      ****     hw.StartAudio(callback);
 409              		.loc 13 63 5 is_stmt 1 view .LVU113
 410              		.loc 13 63 18 is_stmt 0 view .LVU114
 411 0036 0949     		ldr	r1, .L20+28
ARM GAS  /tmp/ccQDZuDA.s 			page 20


 412 0038 0148     		ldr	r0, .L20
 413 003a FFF7FEFF 		bl	_ZN5daisy8DaisyPod10StartAudioEPFvPKfPfjE
 414              	.LVL17:
 415              	.L18:
  64:main.cpp      ****     while(1)
 416              		.loc 13 64 5 is_stmt 1 discriminator 1 view .LVU115
 417              		.loc 13 64 5 discriminator 1 view .LVU116
 418              		.loc 13 64 5 discriminator 1 view .LVU117
 419              		.loc 13 64 5 discriminator 1 view .LVU118
 420 003e FEE7     		b	.L18
 421              	.L21:
 422              		.align	2
 423              	.L20:
 424 0040 00000000 		.word	_ZL2hw
 425 0044 00000000 		.word	.LANCHOR0
 426 0048 00000000 		.word	.LANCHOR1
 427 004c 0C000000 		.word	.LANCHOR1+12
 428 0050 18000000 		.word	.LANCHOR1+24
 429 0054 24000000 		.word	.LANCHOR1+36
 430 0058 30000000 		.word	.LANCHOR1+48
 431 005c 00000000 		.word	_ZL8callbackPKfPfj
 432              		.cfi_endproc
 433              	.LFE2050:
 435              		.section	.text.startup._GLOBAL__sub_I_my_colors,"ax",%progbits
 436              		.align	1
 437              		.p2align 2,,3
 438              		.syntax unified
 439              		.thumb
 440              		.thumb_func
 441              		.fpu fpv5-d16
 443              	_GLOBAL__sub_I_my_colors:
 444              	.LFB2079:
  65:main.cpp      ****     {
  66:main.cpp      ****         //hw.ClearLeds();
  67:main.cpp      ****         //hw.SetLed(static_cast<DaisyPod::Led>(led_sel), 1);
  68:main.cpp      ****     }
  69:main.cpp      **** }
 445              		.loc 13 69 1 view -0
 446              		.cfi_startproc
 447              		@ args = 0, pretend = 0, frame = 0
 448              		@ frame_needed = 0, uses_anonymous_args = 0
 449              	.LBB402:
 450              	.LBI402:
 451              		.loc 13 69 1 view .LVU120
 452              	.LVL18:
 453              	.LBB403:
 454              	.LBB404:
 455              	.LBI404:
  35:../../libdaisy/src/daisy_pod.h ****     ~DaisyPod() {}
 456              		.loc 1 35 5 view .LVU121
 457              	.LBB405:
 458              	.LBB406:
 459              	.LBI406:
  21:../../libdaisy/src/daisy_seed.h ****     ~DaisySeed() {}
 460              		.loc 8 21 5 view .LVU122
 461              	.LBB407:
 462              	.LBB408:
ARM GAS  /tmp/ccQDZuDA.s 			page 21


 463              	.LBI408:
  62:../../libdaisy/src/hid/audio.h ****     ~AudioHandle() {}
 464              		.loc 12 62 5 view .LVU123
 465              	.LBE408:
 466              	.LBE407:
 467              	.LBE406:
 468              	.LBE405:
 469              	.LBE404:
 470              	.LBE403:
 471              	.LBE402:
 472              		.loc 13 69 1 is_stmt 0 view .LVU124
 473 0000 F8B5     		push	{r3, r4, r5, r6, r7, lr}
 474              		.cfi_def_cfa_offset 24
 475              		.cfi_offset 3, -24
 476              		.cfi_offset 4, -20
 477              		.cfi_offset 5, -16
 478              		.cfi_offset 6, -12
 479              		.cfi_offset 7, -8
 480              		.cfi_offset 14, -4
 481              	.LBB502:
 482              	.LBB500:
 483              	.LBB497:
 484              	.LBB494:
 485              	.LBB425:
 486              	.LBB426:
 487              	.LBB427:
 488              	.LBB428:
 489              	.LBB429:
 490              	.LBB430:
 491              	.LBB431:
  36:../../libdaisy/src/hid/midi.h ****             tx     = {DSY_GPIOB, 6};
 492              		.loc 2 36 20 view .LVU125
 493 0002 164B     		ldr	r3, .L24
 494 0004 49F22025 		movw	r5, #37408
 495              	.LBE431:
 496              	.LBE430:
 497              	.LBE429:
 498              	.LBE428:
 499              	.LBE427:
 500              	.LBE426:
 501              	.LBE425:
 502              	.LBB469:
 503              	.LBB422:
 504              	.LBB413:
 505              	.LBB409:
 506              	.LBB410:
  62:../../libdaisy/src/hid/audio.h ****     ~AudioHandle() {}
 507              		.loc 12 62 35 view .LVU126
 508 0008 1548     		ldr	r0, .L24+4
 509 000a 0024     		movs	r4, #0
 510              	.LBE410:
 511              	.LBE409:
 512              	.LBE413:
 513              	.LBE422:
 514              	.LBE469:
 515              	.LBB470:
 516              	.LBB464:
ARM GAS  /tmp/ccQDZuDA.s 			page 22


 517              	.LBB459:
 518              	.LBB441:
 519              	.LBB438:
 520              	.LBB435:
 521              	.LBB432:
  36:../../libdaisy/src/hid/midi.h ****             tx     = {DSY_GPIOB, 6};
 522              		.loc 2 36 20 view .LVU127
 523 000c 1E88     		ldrh	r6, [r3]
  37:../../libdaisy/src/hid/midi.h ****         }
 524              		.loc 2 37 20 view .LVU128
 525 000e 49F22221 		movw	r1, #37410
 526 0012 9B88     		ldrh	r3, [r3, #4]
  35:../../libdaisy/src/hid/midi.h ****             rx     = {DSY_GPIOB, 7};
 527              		.loc 2 35 20 view .LVU129
 528 0014 49F21C27 		movw	r7, #37404
  36:../../libdaisy/src/hid/midi.h ****             tx     = {DSY_GPIOB, 6};
 529              		.loc 2 36 20 view .LVU130
 530 0018 4653     		strh	r6, [r0, r5]	@ movhi
 531              	.LBE432:
 532              	.LBE435:
 533              	.LBE438:
 534              	.LBE441:
 535              	.LBB442:
 536              	.LBB443:
 537              	.LBB444:
 538              	.LBB445:
 539              		.file 15 "../../libdaisy/src/per/uart.h"
   1:../../libdaisy/src/per/uart.h **** /* 
   2:../../libdaisy/src/per/uart.h **** TODO
   3:../../libdaisy/src/per/uart.h **** - UART1 defaults to DMA, add flexible config for DMA on all periphs
   4:../../libdaisy/src/per/uart.h **** - Transmit function improvements.
   5:../../libdaisy/src/per/uart.h **** - Overflow handling, etc. for Rx Queue.
   6:../../libdaisy/src/per/uart.h **** */
   7:../../libdaisy/src/per/uart.h **** 
   8:../../libdaisy/src/per/uart.h **** #pragma once
   9:../../libdaisy/src/per/uart.h **** #ifndef DSY_UART_H
  10:../../libdaisy/src/per/uart.h **** #define DSY_UART_H /**< macro */
  11:../../libdaisy/src/per/uart.h **** #include "daisy_core.h"
  12:../../libdaisy/src/per/uart.h **** 
  13:../../libdaisy/src/per/uart.h **** 
  14:../../libdaisy/src/per/uart.h **** namespace daisy
  15:../../libdaisy/src/per/uart.h **** {
  16:../../libdaisy/src/per/uart.h **** /** @addtogroup serial
  17:../../libdaisy/src/per/uart.h ****     @{
  18:../../libdaisy/src/per/uart.h ****     */
  19:../../libdaisy/src/per/uart.h **** 
  20:../../libdaisy/src/per/uart.h **** /** 
  21:../../libdaisy/src/per/uart.h ****     Uart Peripheral
  22:../../libdaisy/src/per/uart.h ****     @author shensley
  23:../../libdaisy/src/per/uart.h ****     @date March 2020
  24:../../libdaisy/src/per/uart.h ****     */
  25:../../libdaisy/src/per/uart.h **** class UartHandler
  26:../../libdaisy/src/per/uart.h **** {
  27:../../libdaisy/src/per/uart.h ****   public:
  28:../../libdaisy/src/per/uart.h ****     struct Config
  29:../../libdaisy/src/per/uart.h ****     {
  30:../../libdaisy/src/per/uart.h ****         enum class Peripheral
ARM GAS  /tmp/ccQDZuDA.s 			page 23


  31:../../libdaisy/src/per/uart.h ****         {
  32:../../libdaisy/src/per/uart.h ****             USART_1,
  33:../../libdaisy/src/per/uart.h ****             USART_2,
  34:../../libdaisy/src/per/uart.h ****             USART_3,
  35:../../libdaisy/src/per/uart.h ****             UART_4,
  36:../../libdaisy/src/per/uart.h ****             UART_5,
  37:../../libdaisy/src/per/uart.h ****             USART_6,
  38:../../libdaisy/src/per/uart.h ****             UART_7,
  39:../../libdaisy/src/per/uart.h ****             UART_8,
  40:../../libdaisy/src/per/uart.h ****             LPUART_1,
  41:../../libdaisy/src/per/uart.h ****         };
  42:../../libdaisy/src/per/uart.h **** 
  43:../../libdaisy/src/per/uart.h ****         enum class StopBits
  44:../../libdaisy/src/per/uart.h ****         {
  45:../../libdaisy/src/per/uart.h ****             BITS_0_5,
  46:../../libdaisy/src/per/uart.h ****             BITS_1,
  47:../../libdaisy/src/per/uart.h ****             BITS_1_5,
  48:../../libdaisy/src/per/uart.h ****             BITS_2,
  49:../../libdaisy/src/per/uart.h ****         };
  50:../../libdaisy/src/per/uart.h **** 
  51:../../libdaisy/src/per/uart.h ****         enum class Parity
  52:../../libdaisy/src/per/uart.h ****         {
  53:../../libdaisy/src/per/uart.h ****             NONE,
  54:../../libdaisy/src/per/uart.h ****             EVEN,
  55:../../libdaisy/src/per/uart.h ****             ODD,
  56:../../libdaisy/src/per/uart.h ****         };
  57:../../libdaisy/src/per/uart.h **** 
  58:../../libdaisy/src/per/uart.h ****         enum class Mode
  59:../../libdaisy/src/per/uart.h ****         {
  60:../../libdaisy/src/per/uart.h ****             RX,
  61:../../libdaisy/src/per/uart.h ****             TX,
  62:../../libdaisy/src/per/uart.h ****             TX_RX,
  63:../../libdaisy/src/per/uart.h ****         };
  64:../../libdaisy/src/per/uart.h **** 
  65:../../libdaisy/src/per/uart.h ****         enum class WordLength
  66:../../libdaisy/src/per/uart.h ****         {
  67:../../libdaisy/src/per/uart.h ****             BITS_7,
  68:../../libdaisy/src/per/uart.h ****             BITS_8,
  69:../../libdaisy/src/per/uart.h ****             BITS_9,
  70:../../libdaisy/src/per/uart.h ****         };
  71:../../libdaisy/src/per/uart.h **** 
  72:../../libdaisy/src/per/uart.h ****         struct
  73:../../libdaisy/src/per/uart.h ****         {
  74:../../libdaisy/src/per/uart.h ****             dsy_gpio_pin tx; /**< & */
  75:../../libdaisy/src/per/uart.h ****             dsy_gpio_pin rx; /**< & */
  76:../../libdaisy/src/per/uart.h ****         } pin_config;        /**< & */
  77:../../libdaisy/src/per/uart.h **** 
  78:../../libdaisy/src/per/uart.h ****         Peripheral periph;
  79:../../libdaisy/src/per/uart.h ****         StopBits   stopbits;
  80:../../libdaisy/src/per/uart.h ****         Parity     parity;
  81:../../libdaisy/src/per/uart.h ****         Mode       mode;
  82:../../libdaisy/src/per/uart.h ****         WordLength wordlength;
  83:../../libdaisy/src/per/uart.h ****         uint32_t   baudrate;
  84:../../libdaisy/src/per/uart.h ****     };
  85:../../libdaisy/src/per/uart.h **** 
  86:../../libdaisy/src/per/uart.h **** 
  87:../../libdaisy/src/per/uart.h ****     UartHandler() : pimpl_(nullptr) {}
ARM GAS  /tmp/ccQDZuDA.s 			page 24


 540              		.loc 15 87 35 view .LVU131
 541 001a 49F22425 		movw	r5, #37412
 542              	.LBE445:
 543              	.LBE444:
 544              	.LBE443:
 545              	.LBE442:
 546              	.LBB450:
 547              	.LBB439:
 548              	.LBB436:
 549              	.LBB433:
  37:../../libdaisy/src/hid/midi.h ****         }
 550              		.loc 2 37 20 view .LVU132
 551 001e 4352     		strh	r3, [r0, r1]	@ movhi
 552              	.LBE433:
 553              	.LBE436:
 554              	.LBE439:
 555              	.LBE450:
  82:../../libdaisy/src/hid/midi.h ****     ~MidiHandler() {}
 556              		.loc 2 82 19 view .LVU133
 557 0020 4FF60F06 		movw	r6, #63503
 558              	.LBB451:
 559              	.LBB448:
 560              	.LBB447:
 561              	.LBB446:
 562              		.loc 15 87 35 view .LVU134
 563 0024 4451     		str	r4, [r0, r5]
 564              	.LBE446:
 565              	.LBE447:
 566              	.LBE448:
 567              	.LBE451:
  82:../../libdaisy/src/hid/midi.h ****     ~MidiHandler() {}
 568              		.loc 2 82 19 view .LVU135
 569 0026 49F22821 		movw	r1, #37416
 570 002a 49F22C23 		movw	r3, #37420
 571 002e 0D4D     		ldr	r5, .L24+8
 572              	.LBE459:
 573              	.LBE464:
 574              	.LBE470:
 575              	.LBE494:
 576              	.LBE497:
   5:main.cpp      **** static uint8_t  led_sel;
 577              		.loc 13 5 17 view .LVU136
 578 0030 0D4A     		ldr	r2, .L24+12
 579              	.LBB498:
 580              	.LBB495:
 581              	.LBB471:
 582              	.LBB465:
 583              	.LBB460:
  82:../../libdaisy/src/hid/midi.h ****     ~MidiHandler() {}
 584              		.loc 2 82 19 view .LVU137
 585 0032 C652     		strh	r6, [r0, r3]	@ movhi
 586 0034 49F22E23 		movw	r3, #37422
 587 0038 4550     		str	r5, [r0, r1]
 588 003a 0721     		movs	r1, #7
 589              	.LBE460:
 590              	.LBE465:
 591              	.LBE471:
ARM GAS  /tmp/ccQDZuDA.s 			page 25


 592              	.LBB472:
 593              	.LBB423:
 594              	.LBB414:
 595              	.LBB412:
 596              	.LBB411:
  62:../../libdaisy/src/hid/audio.h ****     ~AudioHandle() {}
 597              		.loc 12 62 35 view .LVU138
 598 003c 4461     		str	r4, [r0, #20]
 599              	.LVL19:
  62:../../libdaisy/src/hid/audio.h ****     ~AudioHandle() {}
 600              		.loc 12 62 35 view .LVU139
 601              	.LBE411:
 602              	.LBE412:
 603              	.LBE414:
 604              	.LBB415:
 605              	.LBI415:
  84:../../libdaisy/src/per/adc.h ****     ~AdcHandle() {}
 606              		.loc 11 84 5 is_stmt 1 view .LVU140
  84:../../libdaisy/src/per/adc.h ****     ~AdcHandle() {}
 607              		.loc 11 84 5 is_stmt 0 view .LVU141
 608              	.LBE415:
 609              	.LBB416:
 610              	.LBI416:
 611              		.file 16 "../../libdaisy/src/per/dac.h"
   1:../../libdaisy/src/per/dac.h **** #pragma once
   2:../../libdaisy/src/per/dac.h **** #ifndef DSY_DAC_H
   3:../../libdaisy/src/per/dac.h **** #define DSY_DAC_H
   4:../../libdaisy/src/per/dac.h **** 
   5:../../libdaisy/src/per/dac.h **** #include "daisy_core.h"
   6:../../libdaisy/src/per/dac.h **** 
   7:../../libdaisy/src/per/dac.h **** namespace daisy
   8:../../libdaisy/src/per/dac.h **** {
   9:../../libdaisy/src/per/dac.h **** /** DAC handle for Built-in DAC Peripheral 
  10:../../libdaisy/src/per/dac.h ****  ** 
  11:../../libdaisy/src/per/dac.h ****  ** For now only Normal Mode is supported,
  12:../../libdaisy/src/per/dac.h ****  ** Sample and hold mode provides reduced power consumption, but requires a bit more setup.
  13:../../libdaisy/src/per/dac.h ****  **
  14:../../libdaisy/src/per/dac.h ****  ** For now connecting the DAC through other internal periphearls is also not supported.
  15:../../libdaisy/src/per/dac.h ****  **
  16:../../libdaisy/src/per/dac.h ****  ** Since the DAC channels have dedicated pins we don't need to pass in a pin config like with
  17:../../libdaisy/src/per/dac.h ****  ** other modules. However, it is still important to not try to use the DAC pins for anything else.
  18:../../libdaisy/src/per/dac.h ****  ** DAC Channel 1 is on PA4, and DAC Channel 2 is on PA5
  19:../../libdaisy/src/per/dac.h ****  ***/
  20:../../libdaisy/src/per/dac.h **** class DacHandle
  21:../../libdaisy/src/per/dac.h **** {
  22:../../libdaisy/src/per/dac.h ****   public:
  23:../../libdaisy/src/per/dac.h ****     /** Return Values for the DacHandle class */
  24:../../libdaisy/src/per/dac.h ****     enum class Result
  25:../../libdaisy/src/per/dac.h ****     {
  26:../../libdaisy/src/per/dac.h ****         OK,
  27:../../libdaisy/src/per/dac.h ****         ERR,
  28:../../libdaisy/src/per/dac.h ****     };
  29:../../libdaisy/src/per/dac.h **** 
  30:../../libdaisy/src/per/dac.h ****     /** Selects which channel(s) will be configured for use. */
  31:../../libdaisy/src/per/dac.h ****     enum class Channel
  32:../../libdaisy/src/per/dac.h ****     {
  33:../../libdaisy/src/per/dac.h ****         ONE,
ARM GAS  /tmp/ccQDZuDA.s 			page 26


  34:../../libdaisy/src/per/dac.h ****         TWO,
  35:../../libdaisy/src/per/dac.h ****         BOTH,
  36:../../libdaisy/src/per/dac.h ****     };
  37:../../libdaisy/src/per/dac.h **** 
  38:../../libdaisy/src/per/dac.h ****     /** Sets the Mode for the DAC channels.
  39:../../libdaisy/src/per/dac.h ****      **
  40:../../libdaisy/src/per/dac.h ****      ** Polling mode uses the blocking mode to transmit a single value at a time.
  41:../../libdaisy/src/per/dac.h ****      **
  42:../../libdaisy/src/per/dac.h ****      ** DMA mode uses a buffer, and periodically transmits it triggering a 
  43:../../libdaisy/src/per/dac.h ****      ** callback to fill the buffer when it is ready for more samples.
  44:../../libdaisy/src/per/dac.h ****      ***/
  45:../../libdaisy/src/per/dac.h ****     enum class Mode
  46:../../libdaisy/src/per/dac.h ****     {
  47:../../libdaisy/src/per/dac.h ****         POLLING,
  48:../../libdaisy/src/per/dac.h ****         DMA,
  49:../../libdaisy/src/per/dac.h ****     };
  50:../../libdaisy/src/per/dac.h **** 
  51:../../libdaisy/src/per/dac.h ****     /** Sets the number of bits per sample transmitted out of the DAC.
  52:../../libdaisy/src/per/dac.h ****      ** The output range will be: 0V - VDDA
  53:../../libdaisy/src/per/dac.h ****      ** The resolution will be roughly: bitdepth / (VDDA - 0V) 
  54:../../libdaisy/src/per/dac.h ****      ***/
  55:../../libdaisy/src/per/dac.h ****     enum class BitDepth
  56:../../libdaisy/src/per/dac.h ****     {
  57:../../libdaisy/src/per/dac.h ****         BITS_8,
  58:../../libdaisy/src/per/dac.h ****         BITS_12
  59:../../libdaisy/src/per/dac.h ****     };
  60:../../libdaisy/src/per/dac.h **** 
  61:../../libdaisy/src/per/dac.h ****     /** Sets whether the DAC output is buffered for higher drive ability. */
  62:../../libdaisy/src/per/dac.h ****     enum class BufferState
  63:../../libdaisy/src/per/dac.h ****     {
  64:../../libdaisy/src/per/dac.h ****         ENABLED,
  65:../../libdaisy/src/per/dac.h ****         DISABLED,
  66:../../libdaisy/src/per/dac.h ****     };
  67:../../libdaisy/src/per/dac.h **** 
  68:../../libdaisy/src/per/dac.h ****     /** Configuration structure for initializing the DAC structure. */
  69:../../libdaisy/src/per/dac.h ****     struct Config
  70:../../libdaisy/src/per/dac.h ****     {
  71:../../libdaisy/src/per/dac.h ****         /** Target Samplerate in Hz used to configure the internal 
  72:../../libdaisy/src/per/dac.h ****          ** timebase for DMA mode. Does nothing in POLLING mode.
  73:../../libdaisy/src/per/dac.h ****          ** If the value is 0 at Init time this will default to 48000Hz 
  74:../../libdaisy/src/per/dac.h ****          ** otherwise the driver will attempt meet the target.*/
  75:../../libdaisy/src/per/dac.h ****         uint32_t target_samplerate;
  76:../../libdaisy/src/per/dac.h **** 
  77:../../libdaisy/src/per/dac.h ****         Channel     chn;
  78:../../libdaisy/src/per/dac.h ****         Mode        mode;
  79:../../libdaisy/src/per/dac.h ****         BitDepth    bitdepth;
  80:../../libdaisy/src/per/dac.h ****         BufferState buff_state;
  81:../../libdaisy/src/per/dac.h ****     };
  82:../../libdaisy/src/per/dac.h **** 
  83:../../libdaisy/src/per/dac.h ****     DacHandle() : pimpl_(nullptr) {}
 612              		.loc 16 83 5 is_stmt 1 view .LVU142
 613              	.LBE416:
 614              	.LBE423:
 615              	.LBE472:
 616              	.LBB473:
 617              	.LBB466:
 618              	.LBB461:
ARM GAS  /tmp/ccQDZuDA.s 			page 27


  82:../../libdaisy/src/hid/midi.h ****     ~MidiHandler() {}
 619              		.loc 2 82 19 is_stmt 0 view .LVU143
 620 003e C154     		strb	r1, [r0, r3]
 621              	.LBE461:
 622              	.LBE466:
 623              	.LBE473:
 624              	.LBB474:
 625              	.LBB424:
 626              	.LBB419:
 627              	.LBB417:
 628              	.LBB418:
 629              		.loc 16 83 33 view .LVU144
 630 0040 0462     		str	r4, [r0, #32]
 631              	.LVL20:
 632              		.loc 16 83 33 view .LVU145
 633              	.LBE418:
 634              	.LBE417:
 635              	.LBE419:
 636              	.LBB420:
 637              	.LBI420:
  40:../../libdaisy/src/hid/usb.h **** 
 638              		.loc 10 40 5 is_stmt 1 view .LVU146
  40:../../libdaisy/src/hid/usb.h **** 
 639              		.loc 10 40 5 is_stmt 0 view .LVU147
 640              	.LBE420:
 641              	.LBB421:
 642              	.LBI421:
  58:../../libdaisy/src/sys/system.h ****     ~System() {}
 643              		.loc 9 58 5 is_stmt 1 view .LVU148
  58:../../libdaisy/src/sys/system.h ****     ~System() {}
 644              		.loc 9 58 5 is_stmt 0 view .LVU149
 645              	.LBE421:
 646              	.LBE424:
 647              	.LBE474:
 648              	.LBB475:
 649              	.LBI475:
  20:../../libdaisy/src/hid/encoder.h ****     ~Encoder() {}
 650              		.loc 7 20 5 is_stmt 1 view .LVU150
 651              	.LBB476:
 652              	.LBB477:
 653              	.LBI477:
  40:../../libdaisy/src/hid/switch.h ****     ~Switch() {}
 654              		.loc 5 40 5 view .LVU151
  40:../../libdaisy/src/hid/switch.h ****     ~Switch() {}
 655              		.loc 5 40 5 is_stmt 0 view .LVU152
 656              	.LBE477:
 657              	.LBE476:
 658              	.LBE475:
 659              	.LBB478:
 660              	.LBI478:
  21:../../libdaisy/src/hid/ctrl.h ****     /** destructor */
 661              		.loc 6 21 5 is_stmt 1 view .LVU153
  21:../../libdaisy/src/hid/ctrl.h ****     /** destructor */
 662              		.loc 6 21 5 is_stmt 0 view .LVU154
 663              	.LBE478:
 664              	.LBB479:
 665              	.LBI479:
ARM GAS  /tmp/ccQDZuDA.s 			page 28


  21:../../libdaisy/src/hid/ctrl.h ****     /** destructor */
 666              		.loc 6 21 5 is_stmt 1 view .LVU155
  21:../../libdaisy/src/hid/ctrl.h ****     /** destructor */
 667              		.loc 6 21 5 is_stmt 0 view .LVU156
 668              	.LBE479:
 669              	.LBB480:
 670              	.LBI480:
  40:../../libdaisy/src/hid/switch.h ****     ~Switch() {}
 671              		.loc 5 40 5 is_stmt 1 view .LVU157
  40:../../libdaisy/src/hid/switch.h ****     ~Switch() {}
 672              		.loc 5 40 5 is_stmt 0 view .LVU158
 673              	.LBE480:
 674              	.LBB481:
 675              	.LBI481:
  40:../../libdaisy/src/hid/switch.h ****     ~Switch() {}
 676              		.loc 5 40 5 is_stmt 1 view .LVU159
  40:../../libdaisy/src/hid/switch.h ****     ~Switch() {}
 677              		.loc 5 40 5 is_stmt 0 view .LVU160
 678              	.LBE481:
 679              	.LBB482:
 680              	.LBI482:
  17:../../libdaisy/src/hid/rgb_led.h ****     ~RgbLed() {}
 681              		.loc 3 17 5 is_stmt 1 view .LVU161
 682              	.LBB483:
 683              	.LBB484:
 684              	.LBI484:
  24:../../libdaisy/src/hid/led.h ****     ~Led() {}
 685              		.loc 4 24 5 view .LVU162
  24:../../libdaisy/src/hid/led.h ****     ~Led() {}
 686              		.loc 4 24 5 is_stmt 0 view .LVU163
 687              	.LBE484:
 688              	.LBB485:
 689              	.LBI485:
  24:../../libdaisy/src/hid/led.h ****     ~Led() {}
 690              		.loc 4 24 5 is_stmt 1 view .LVU164
  24:../../libdaisy/src/hid/led.h ****     ~Led() {}
 691              		.loc 4 24 5 is_stmt 0 view .LVU165
 692              	.LBE485:
 693              	.LBB486:
 694              	.LBI486:
  24:../../libdaisy/src/hid/led.h ****     ~Led() {}
 695              		.loc 4 24 5 is_stmt 1 view .LVU166
  24:../../libdaisy/src/hid/led.h ****     ~Led() {}
 696              		.loc 4 24 5 is_stmt 0 view .LVU167
 697              	.LBE486:
 698              	.LBE483:
 699              	.LBE482:
 700              	.LBB487:
 701              	.LBI487:
  17:../../libdaisy/src/hid/rgb_led.h ****     ~RgbLed() {}
 702              		.loc 3 17 5 is_stmt 1 view .LVU168
 703              	.LBB488:
 704              	.LBB489:
 705              	.LBI489:
  24:../../libdaisy/src/hid/led.h ****     ~Led() {}
 706              		.loc 4 24 5 view .LVU169
  24:../../libdaisy/src/hid/led.h ****     ~Led() {}
ARM GAS  /tmp/ccQDZuDA.s 			page 29


 707              		.loc 4 24 5 is_stmt 0 view .LVU170
 708              	.LBE489:
 709              	.LBB490:
 710              	.LBI490:
  24:../../libdaisy/src/hid/led.h ****     ~Led() {}
 711              		.loc 4 24 5 is_stmt 1 view .LVU171
  24:../../libdaisy/src/hid/led.h ****     ~Led() {}
 712              		.loc 4 24 5 is_stmt 0 view .LVU172
 713              	.LBE490:
 714              	.LBB491:
 715              	.LBI491:
  24:../../libdaisy/src/hid/led.h ****     ~Led() {}
 716              		.loc 4 24 5 is_stmt 1 view .LVU173
  24:../../libdaisy/src/hid/led.h ****     ~Led() {}
 717              		.loc 4 24 5 is_stmt 0 view .LVU174
 718              	.LBE491:
 719              	.LBE488:
 720              	.LBE487:
 721              	.LBB492:
 722              	.LBI425:
  82:../../libdaisy/src/hid/midi.h ****     ~MidiHandler() {}
 723              		.loc 2 82 5 is_stmt 1 view .LVU175
 724              	.LBB467:
 725              	.LBB462:
 726              	.LBB452:
 727              	.LBI452:
 728              		.loc 15 87 5 view .LVU176
 729              	.LBE452:
 730              	.LBE462:
 731              	.LBE467:
 732              	.LBE492:
 733              	.LBE495:
 734              	.LBE498:
   5:main.cpp      **** static uint8_t  led_sel;
 735              		.loc 13 5 17 is_stmt 0 view .LVU177
 736 0042 0A49     		ldr	r1, .L24+16
 737              	.LBB499:
 738              	.LBB496:
 739              	.LBB493:
 740              	.LBB468:
 741              	.LBB463:
 742              	.LBB455:
 743              	.LBB453:
 744              	.LBB454:
 745              		.loc 15 87 35 view .LVU178
 746 0044 C0F87441 		str	r4, [r0, #372]
 747              	.LVL21:
 748              		.loc 15 87 35 view .LVU179
 749              	.LBE454:
 750              	.LBE453:
 751              	.LBE455:
 752              	.LBB456:
 753              	.LBI456:
 754              		.file 17 "../../libdaisy/src/util/ringbuffer.h"
   1:../../libdaisy/src/util/ringbuffer.h **** #pragma once
   2:../../libdaisy/src/util/ringbuffer.h **** #ifndef DSY_RINGBUFFER_H
   3:../../libdaisy/src/util/ringbuffer.h **** #define DSY_RINGBUFFER_H
ARM GAS  /tmp/ccQDZuDA.s 			page 30


   4:../../libdaisy/src/util/ringbuffer.h **** 
   5:../../libdaisy/src/util/ringbuffer.h **** #include <algorithm>
   6:../../libdaisy/src/util/ringbuffer.h **** 
   7:../../libdaisy/src/util/ringbuffer.h **** namespace daisy
   8:../../libdaisy/src/util/ringbuffer.h **** {
   9:../../libdaisy/src/util/ringbuffer.h **** /** @addtogroup utility
  10:../../libdaisy/src/util/ringbuffer.h ****     @{
  11:../../libdaisy/src/util/ringbuffer.h **** */
  12:../../libdaisy/src/util/ringbuffer.h **** 
  13:../../libdaisy/src/util/ringbuffer.h **** /**
  14:../../libdaisy/src/util/ringbuffer.h **** Utility Ring Buffer \n 
  15:../../libdaisy/src/util/ringbuffer.h **** imported from pichenettes/stmlib
  16:../../libdaisy/src/util/ringbuffer.h **** */
  17:../../libdaisy/src/util/ringbuffer.h **** template <typename T, size_t size>
  18:../../libdaisy/src/util/ringbuffer.h **** class RingBuffer
  19:../../libdaisy/src/util/ringbuffer.h **** {
  20:../../libdaisy/src/util/ringbuffer.h ****   public:
  21:../../libdaisy/src/util/ringbuffer.h ****     RingBuffer() {}
 755              		.loc 17 21 5 is_stmt 1 view .LVU180
 756              		.loc 17 21 5 is_stmt 0 view .LVU181
 757              	.LBE456:
 758              	.LBB457:
 759              	.LBI428:
  84:../../libdaisy/src/hid/midi.h **** 
  85:../../libdaisy/src/hid/midi.h ****     struct Config
 760              		.loc 2 85 12 is_stmt 1 view .LVU182
 761              	.LBB440:
 762              	.LBI429:
  33:../../libdaisy/src/hid/midi.h ****         {
 763              		.loc 2 33 9 view .LVU183
 764              	.LBB437:
 765              	.LBB434:
  35:../../libdaisy/src/hid/midi.h ****             rx     = {DSY_GPIOB, 7};
 766              		.loc 2 35 13 view .LVU184
  35:../../libdaisy/src/hid/midi.h ****             rx     = {DSY_GPIOB, 7};
 767              		.loc 2 35 20 is_stmt 0 view .LVU185
 768 0048 C451     		str	r4, [r0, r7]
  36:../../libdaisy/src/hid/midi.h ****             tx     = {DSY_GPIOB, 6};
 769              		.loc 2 36 13 is_stmt 1 view .LVU186
  37:../../libdaisy/src/hid/midi.h ****         }
 770              		.loc 2 37 13 view .LVU187
 771              	.LVL22:
  37:../../libdaisy/src/hid/midi.h ****         }
 772              		.loc 2 37 13 is_stmt 0 view .LVU188
 773              	.LBE434:
 774              	.LBE437:
 775              	.LBE440:
 776              	.LBE457:
 777              	.LBB458:
 778              	.LBI442:
  24:../../libdaisy/src/hid/midi.h ****     ~MidiUartTransport() {}
 779              		.loc 2 24 5 is_stmt 1 view .LVU189
 780              	.LBB449:
 781              	.LBI443:
 782              		.loc 15 87 5 view .LVU190
 783              		.loc 15 87 5 is_stmt 0 view .LVU191
 784              	.LBE449:
ARM GAS  /tmp/ccQDZuDA.s 			page 31


 785              	.LBE458:
 786              	.LBE463:
 787              	.LBE468:
 788              	.LBE493:
 789              	.LBE496:
 790              	.LBE499:
   5:main.cpp      **** static uint8_t  led_sel;
 791              		.loc 13 5 17 view .LVU192
 792 004a FFF7FEFF 		bl	__aeabi_atexit
 793              	.LVL23:
  11:main.cpp      **** 
 794              		.loc 13 11 18 is_stmt 1 view .LVU193
  11:main.cpp      **** 
 795              		.loc 13 11 7 is_stmt 0 view .LVU194
 796 004e 2046     		mov	r0, r4
 797 0050 054A     		ldr	r2, .L24+12
 798 0052 0749     		ldr	r1, .L24+20
 799              	.LBE500:
 800              	.LBE502:
 801              		.loc 13 69 1 view .LVU195
 802 0054 BDE8F840 		pop	{r3, r4, r5, r6, r7, lr}
 803              		.cfi_restore 14
 804              		.cfi_restore 7
 805              		.cfi_restore 6
 806              		.cfi_restore 5
 807              		.cfi_restore 4
 808              		.cfi_restore 3
 809              		.cfi_def_cfa_offset 0
 810              	.LBB503:
 811              	.LBB501:
  11:main.cpp      **** 
 812              		.loc 13 11 7 view .LVU196
 813 0058 FFF7FEBF 		b	__aeabi_atexit
 814              	.LVL24:
 815              	.L25:
 816              		.align	2
 817              	.L24:
 818 005c 00000000 		.word	.LANCHOR2
 819 0060 00000000 		.word	_ZL2hw
 820 0064 80707FF0 		.word	-260083584
 821 0068 00000000 		.word	__dso_handle
 822 006c 00000000 		.word	_ZN5daisy8DaisyPodD1Ev
 823 0070 00000000 		.word	__tcf_0
 824              	.LBE501:
 825              	.LBE503:
 826              		.cfi_endproc
 827              	.LFE2079:
 829              		.section	.init_array,"aw",%init_array
 830              		.align	2
 831 0000 00000000 		.word	_GLOBAL__sub_I_my_colors(target1)
 832              		.global	my_colors
 833              		.section	.rodata
 834              		.align	2
 835              		.set	.LANCHOR2,. + 0
 836              	.LC0:
 837 0000 01       		.byte	1
 838 0001 07       		.byte	7
ARM GAS  /tmp/ccQDZuDA.s 			page 32


 839 0002 0000     		.space	2
 840              	.LC1:
 841 0004 01       		.byte	1
 842 0005 06       		.byte	6
 843              		.section	.bss._ZL2hw,"aw",%nobits
 844              		.align	2
 847              	_ZL2hw:
 848 0000 00000000 		.space	37424
 848      00000000 
 848      00000000 
 848      00000000 
 848      00000000 
 849              		.section	.bss._ZL7led_sel,"aw",%nobits
 850              		.set	.LANCHOR0,. + 0
 853              	_ZL7led_sel:
 854 0000 00       		.space	1
 855              		.section	.bss.my_colors,"aw",%nobits
 856              		.align	2
 857              		.set	.LANCHOR1,. + 0
 860              	my_colors:
 861 0000 00000000 		.space	60
 861      00000000 
 861      00000000 
 861      00000000 
 861      00000000 
 862              		.text
 863              	.Letext0:
 864              		.file 18 "/usr/lib/gcc/arm-none-eabi/9.2.1/include/stdint.h"
 865              		.file 19 "../../libdaisy/Drivers/CMSIS/Include/core_cm7.h"
 866              		.file 20 "../../libdaisy/Drivers/CMSIS/Device/ST/STM32H7xx/Include/system_stm32h7xx.h"
 867              		.file 21 "/usr/lib/gcc/arm-none-eabi/9.2.1/include/stddef.h"
 868              		.file 22 "/usr/include/newlib/c++/9.2.1/cmath"
 869              		.file 23 "/usr/include/newlib/c++/9.2.1/bits/std_abs.h"
 870              		.file 24 "/usr/include/newlib/c++/9.2.1/cstdlib"
 871              		.file 25 "/usr/include/newlib/c++/9.2.1/cstdint"
 872              		.file 26 "/usr/include/newlib/c++/9.2.1/type_traits"
 873              		.file 27 "/usr/include/newlib/c++/9.2.1/bits/stl_pair.h"
 874              		.file 28 "/usr/include/newlib/c++/9.2.1/debug/debug.h"
 875              		.file 29 "/usr/include/newlib/c++/9.2.1/arm-none-eabi/thumb/v7e-m+dp/hard/bits/c++config.h"
 876              		.file 30 "/usr/include/newlib/c++/9.2.1/bits/algorithmfwd.h"
 877              		.file 31 "/usr/include/newlib/c++/9.2.1/bits/exception_ptr.h"
 878              		.file 32 "/usr/include/newlib/c++/9.2.1/new"
 879              		.file 33 "/usr/include/newlib/c++/9.2.1/cstdarg"
 880              		.file 34 "/usr/include/newlib/c++/9.2.1/cstdio"
 881              		.file 35 "/usr/include/newlib/c++/9.2.1/bits/predefined_ops.h"
 882              		.file 36 "/usr/include/newlib/c++/9.2.1/ext/numeric_traits.h"
 883              		.file 37 "/usr/include/newlib/sys/_types.h"
 884              		.file 38 "<built-in>"
 885              		.file 39 "/usr/include/newlib/sys/reent.h"
 886              		.file 40 "/usr/include/newlib/sys/lock.h"
 887              		.file 41 "/usr/include/newlib/math.h"
 888              		.file 42 "/usr/include/newlib/stdlib.h"
 889              		.file 43 "/usr/include/newlib/c++/9.2.1/math.h"
 890              		.file 44 "../../libdaisy/Drivers/STM32H7xx_HAL_Driver/Inc/stm32h7xx_hal_def.h"
 891              		.file 45 "../../libdaisy/Drivers/STM32H7xx_HAL_Driver/Inc/stm32h7xx_hal_flash.h"
 892              		.file 46 "/usr/include/newlib/c++/9.2.1/stdlib.h"
 893              		.file 47 "../../libdaisy/src/daisy_core.h"
ARM GAS  /tmp/ccQDZuDA.s 			page 33


 894              		.file 48 "../../libdaisy/src/per/tim.h"
 895              		.file 49 "../../libdaisy/src/per/sai.h"
 896              		.file 50 "../../libdaisy/src/hid/MidiEvent.h"
 897              		.file 51 "../../libdaisy/src/util/wav_format.h"
 898              		.file 52 "../../libdaisy/src/per/qspi.h"
 899              		.file 53 "../../libdaisy/src/per/gpio.h"
 900              		.file 54 "../../libdaisy/src/dev/sdram.h"
 901              		.file 55 "/usr/lib/gcc/arm-none-eabi/9.2.1/include/stdarg.h"
 902              		.file 56 "/usr/include/newlib/stdio.h"
 903              		.file 57 "/usr/include/newlib/sys/unistd.h"
 904              		.file 58 "../../libdaisy/src/util/oled_fonts.h"
 905              		.file 59 "../../libdaisy/Middlewares/Third_Party/FatFs/src/integer.h"
 906              		.file 60 "../../libdaisy/Middlewares/Third_Party/FatFs/src/ff.h"
 907              		.file 61 "../../libdaisy/Middlewares/Third_Party/FatFs/src/diskio.h"
 908              		.file 62 "../../libdaisy/Middlewares/Third_Party/FatFs/src/ff_gen_drv.h"
 909              		.file 63 "../../libdaisy/src/util/sd_diskio.h"
 910              		.file 64 "../../libdaisy/src/sys/fatfs.h"
 911              		.file 65 "../../libdaisy/src/dev/sr_595.h"
ARM GAS  /tmp/ccQDZuDA.s 			page 34

