ARM GAS  /tmp/ccm862Rg.s 			page 1


   1              		.cpu cortex-m7
   2              		.eabi_attribute 28, 1
   3              		.eabi_attribute 20, 1
   4              		.eabi_attribute 21, 1
   5              		.eabi_attribute 23, 3
   6              		.eabi_attribute 24, 1
   7              		.eabi_attribute 25, 1
   8              		.eabi_attribute 26, 1
   9              		.eabi_attribute 30, 2
  10              		.eabi_attribute 34, 1
  11              		.eabi_attribute 18, 4
  12              		.file	"chorus.cpp"
  13              		.text
  14              	.Ltext0:
  15              		.cfi_sections	.debug_frame
  16              		.section	.text._ZN5daisy9DaisySeedD2Ev,"axG",%progbits,_ZN5daisy9DaisySeedD5Ev,comdat
  17              		.align	1
  18              		.p2align 2,,3
  19              		.weak	_ZN5daisy9DaisySeedD2Ev
  20              		.arch armv7e-m
  21              		.syntax unified
  22              		.thumb
  23              		.thumb_func
  24              		.fpu fpv5-d16
  26              	_ZN5daisy9DaisySeedD2Ev:
  27              	.LVL0:
  28              	.LFB2037:
  29              		.file 1 "../../libdaisy/src/daisy_seed.h"
   1:../../libdaisy/src/daisy_seed.h **** #pragma once
   2:../../libdaisy/src/daisy_seed.h **** #ifndef DSY_SEED_H
   3:../../libdaisy/src/daisy_seed.h **** #define DSY_SEED_H
   4:../../libdaisy/src/daisy_seed.h **** 
   5:../../libdaisy/src/daisy_seed.h **** #include "daisy.h"
   6:../../libdaisy/src/daisy_seed.h **** 
   7:../../libdaisy/src/daisy_seed.h **** //Uncomment this out if you're still using the rev2 hardware
   8:../../libdaisy/src/daisy_seed.h **** //#define SEED_REV2
   9:../../libdaisy/src/daisy_seed.h **** 
  10:../../libdaisy/src/daisy_seed.h **** namespace daisy
  11:../../libdaisy/src/daisy_seed.h **** {
  12:../../libdaisy/src/daisy_seed.h **** /**
  13:../../libdaisy/src/daisy_seed.h ****    @brief This is the higher-level interface for the Daisy board. \n 
  14:../../libdaisy/src/daisy_seed.h ****     All basic peripheral configuration/initialization is setup here. \n
  15:../../libdaisy/src/daisy_seed.h **** 
  16:../../libdaisy/src/daisy_seed.h ****    @ingroup boards
  17:../../libdaisy/src/daisy_seed.h **** */
  18:../../libdaisy/src/daisy_seed.h **** class DaisySeed
  19:../../libdaisy/src/daisy_seed.h **** {
  20:../../libdaisy/src/daisy_seed.h ****   public:
  21:../../libdaisy/src/daisy_seed.h ****     DaisySeed() {}
  22:../../libdaisy/src/daisy_seed.h ****     ~DaisySeed() {}
  30              		.loc 1 22 5 view -0
  31              		.cfi_startproc
  32              		@ args = 0, pretend = 0, frame = 0
  33              		@ frame_needed = 0, uses_anonymous_args = 0
  34              		@ link register save eliminated.
  35              	.LBB254:
  36              	.LBI254:
ARM GAS  /tmp/ccm862Rg.s 			page 2


  37              		.file 2 "../../libdaisy/src/sys/system.h"
   1:../../libdaisy/src/sys/system.h **** #ifndef DSY_SYSTEM_H
   2:../../libdaisy/src/sys/system.h **** #define DSY_SYSTEM_H
   3:../../libdaisy/src/sys/system.h **** 
   4:../../libdaisy/src/sys/system.h **** #ifndef UNIT_TEST // for unit tests, a dummy implementation is provided below
   5:../../libdaisy/src/sys/system.h **** 
   6:../../libdaisy/src/sys/system.h **** #include <cstdint>
   7:../../libdaisy/src/sys/system.h **** #include "per/tim.h"
   8:../../libdaisy/src/sys/system.h **** 
   9:../../libdaisy/src/sys/system.h **** namespace daisy
  10:../../libdaisy/src/sys/system.h **** {
  11:../../libdaisy/src/sys/system.h **** /** A handle for interacting with the Core System. 
  12:../../libdaisy/src/sys/system.h ****  ** This includes the Clock tree, MPU, global DMA initialization,
  13:../../libdaisy/src/sys/system.h ****  ** cache handling, and any other necessary global initiailzation
  14:../../libdaisy/src/sys/system.h ****  **
  15:../../libdaisy/src/sys/system.h ****  ** @author shensley
  16:../../libdaisy/src/sys/system.h ****  ** @addtogroup system
  17:../../libdaisy/src/sys/system.h ****  */
  18:../../libdaisy/src/sys/system.h **** class System
  19:../../libdaisy/src/sys/system.h **** {
  20:../../libdaisy/src/sys/system.h ****   public:
  21:../../libdaisy/src/sys/system.h ****     /** Contains settings for initializing the System */
  22:../../libdaisy/src/sys/system.h ****     struct Config
  23:../../libdaisy/src/sys/system.h ****     {
  24:../../libdaisy/src/sys/system.h ****         /** Specifies the system clock frequency that feeds APB/AHB clocks, etc. */
  25:../../libdaisy/src/sys/system.h ****         enum class SysClkFreq
  26:../../libdaisy/src/sys/system.h ****         {
  27:../../libdaisy/src/sys/system.h ****             FREQ_400MHZ,
  28:../../libdaisy/src/sys/system.h ****             FREQ_480MHZ,
  29:../../libdaisy/src/sys/system.h ****         };
  30:../../libdaisy/src/sys/system.h **** 
  31:../../libdaisy/src/sys/system.h ****         /** Method to call on the struct to set to defaults
  32:../../libdaisy/src/sys/system.h ****          ** CPU Freq set to 400MHz
  33:../../libdaisy/src/sys/system.h ****          ** Cache Enabled 
  34:../../libdaisy/src/sys/system.h ****          ** */
  35:../../libdaisy/src/sys/system.h ****         void Defaults()
  36:../../libdaisy/src/sys/system.h ****         {
  37:../../libdaisy/src/sys/system.h ****             cpu_freq   = SysClkFreq::FREQ_400MHZ;
  38:../../libdaisy/src/sys/system.h ****             use_dcache = true;
  39:../../libdaisy/src/sys/system.h ****             use_icache = true;
  40:../../libdaisy/src/sys/system.h ****         }
  41:../../libdaisy/src/sys/system.h **** 
  42:../../libdaisy/src/sys/system.h ****         /** Method to call on the struct to set to boost mode:
  43:../../libdaisy/src/sys/system.h ****          ** CPU Freq set to 480MHz
  44:../../libdaisy/src/sys/system.h ****          ** Cache Enabled 
  45:../../libdaisy/src/sys/system.h ****          ** */
  46:../../libdaisy/src/sys/system.h ****         void Boost()
  47:../../libdaisy/src/sys/system.h ****         {
  48:../../libdaisy/src/sys/system.h ****             cpu_freq   = SysClkFreq::FREQ_480MHZ;
  49:../../libdaisy/src/sys/system.h ****             use_dcache = true;
  50:../../libdaisy/src/sys/system.h ****             use_icache = true;
  51:../../libdaisy/src/sys/system.h ****         }
  52:../../libdaisy/src/sys/system.h **** 
  53:../../libdaisy/src/sys/system.h ****         SysClkFreq cpu_freq;
  54:../../libdaisy/src/sys/system.h ****         bool       use_dcache;
  55:../../libdaisy/src/sys/system.h ****         bool       use_icache;
  56:../../libdaisy/src/sys/system.h ****     };
ARM GAS  /tmp/ccm862Rg.s 			page 3


  57:../../libdaisy/src/sys/system.h **** 
  58:../../libdaisy/src/sys/system.h ****     System() {}
  59:../../libdaisy/src/sys/system.h ****     ~System() {}
  38              		.loc 2 59 5 view .LVU1
  39              		.loc 2 59 5 is_stmt 0 view .LVU2
  40              	.LBE254:
  41              	.LBB255:
  42              	.LBI255:
  43              		.file 3 "../../libdaisy/src/hid/usb.h"
   1:../../libdaisy/src/hid/usb.h **** #pragma once
   2:../../libdaisy/src/hid/usb.h **** #ifndef DSY_HID_USB_H
   3:../../libdaisy/src/hid/usb.h **** #define DSY_HID_USB_H
   4:../../libdaisy/src/hid/usb.h **** #include <stdint.h>
   5:../../libdaisy/src/hid/usb.h **** #include <stdlib.h>
   6:../../libdaisy/src/hid/usb.h **** 
   7:../../libdaisy/src/hid/usb.h **** namespace daisy
   8:../../libdaisy/src/hid/usb.h **** /** @addtogroup externals
   9:../../libdaisy/src/hid/usb.h ****     @{
  10:../../libdaisy/src/hid/usb.h **** */
  11:../../libdaisy/src/hid/usb.h **** 
  12:../../libdaisy/src/hid/usb.h **** {
  13:../../libdaisy/src/hid/usb.h **** /** 
  14:../../libdaisy/src/hid/usb.h ****     @brief Interface for initializing and using the USB Peripherals on the daisy
  15:../../libdaisy/src/hid/usb.h ****     @author Stephen Hensley
  16:../../libdaisy/src/hid/usb.h ****     @date December 2019
  17:../../libdaisy/src/hid/usb.h **** */
  18:../../libdaisy/src/hid/usb.h **** class UsbHandle
  19:../../libdaisy/src/hid/usb.h **** {
  20:../../libdaisy/src/hid/usb.h ****   public:
  21:../../libdaisy/src/hid/usb.h ****     /** Return values for USBHandle Functions */
  22:../../libdaisy/src/hid/usb.h ****     enum class Result
  23:../../libdaisy/src/hid/usb.h ****     {
  24:../../libdaisy/src/hid/usb.h ****         OK,
  25:../../libdaisy/src/hid/usb.h ****         ERR,
  26:../../libdaisy/src/hid/usb.h ****     };
  27:../../libdaisy/src/hid/usb.h **** 
  28:../../libdaisy/src/hid/usb.h ****     /** Specified which of the two USB Peripherals to initialize. */
  29:../../libdaisy/src/hid/usb.h ****     enum UsbPeriph
  30:../../libdaisy/src/hid/usb.h ****     {
  31:../../libdaisy/src/hid/usb.h ****         FS_INTERNAL, /**< Internal pin */
  32:../../libdaisy/src/hid/usb.h ****         FS_EXTERNAL, /**< FS External D+ pin is Pin 38 (GPIO32). FS External D- pin is Pin 37 (GPIO
  33:../../libdaisy/src/hid/usb.h ****         FS_BOTH,     /**< Both */
  34:../../libdaisy/src/hid/usb.h ****     };
  35:../../libdaisy/src/hid/usb.h **** 
  36:../../libdaisy/src/hid/usb.h **** 
  37:../../libdaisy/src/hid/usb.h ****     /** Function called upon reception of a buffer */
  38:../../libdaisy/src/hid/usb.h ****     typedef void (*ReceiveCallback)(uint8_t* buff, uint32_t* len);
  39:../../libdaisy/src/hid/usb.h **** 
  40:../../libdaisy/src/hid/usb.h ****     UsbHandle() {}
  41:../../libdaisy/src/hid/usb.h **** 
  42:../../libdaisy/src/hid/usb.h ****     ~UsbHandle() {}
  44              		.loc 3 42 5 is_stmt 1 view .LVU3
  45              		.loc 3 42 5 is_stmt 0 view .LVU4
  46              	.LBE255:
  47              	.LBB256:
  48              	.LBI256:
  49              		.file 4 "../../libdaisy/src/per/adc.h"
ARM GAS  /tmp/ccm862Rg.s 			page 4


   1:../../libdaisy/src/per/adc.h **** #pragma once
   2:../../libdaisy/src/per/adc.h **** #ifndef DSY_ADC_H
   3:../../libdaisy/src/per/adc.h **** #define DSY_ADC_H /**< Macro */
   4:../../libdaisy/src/per/adc.h **** #include <stdint.h>
   5:../../libdaisy/src/per/adc.h **** #include <stdlib.h>
   6:../../libdaisy/src/per/adc.h **** #include "daisy_core.h"
   7:../../libdaisy/src/per/adc.h **** #include "per/gpio.h"
   8:../../libdaisy/src/per/adc.h **** 
   9:../../libdaisy/src/per/adc.h **** #define DSY_ADC_MAX_CHANNELS 14 /**< Maximum number of ADC channels */
  10:../../libdaisy/src/per/adc.h **** 
  11:../../libdaisy/src/per/adc.h **** namespace daisy
  12:../../libdaisy/src/per/adc.h **** {
  13:../../libdaisy/src/per/adc.h **** /** @addtogroup analog_digital_conversion
  14:../../libdaisy/src/per/adc.h ****     @{
  15:../../libdaisy/src/per/adc.h **** */
  16:../../libdaisy/src/per/adc.h **** 
  17:../../libdaisy/src/per/adc.h **** /* While there may not be many configuration options here,
  18:../../libdaisy/src/per/adc.h **** using a struct like this allows us to add more configuration
  19:../../libdaisy/src/per/adc.h **** later without breaking existing functionality.
  20:../../libdaisy/src/per/adc.h **** */
  21:../../libdaisy/src/per/adc.h **** 
  22:../../libdaisy/src/per/adc.h **** /** Configuration Structure for a given channel */
  23:../../libdaisy/src/per/adc.h **** struct AdcChannelConfig
  24:../../libdaisy/src/per/adc.h **** {
  25:../../libdaisy/src/per/adc.h ****     /** Which pin to use for multiplexing */
  26:../../libdaisy/src/per/adc.h ****     enum MuxPin
  27:../../libdaisy/src/per/adc.h ****     {
  28:../../libdaisy/src/per/adc.h ****         MUX_SEL_0,    /**< & */
  29:../../libdaisy/src/per/adc.h ****         MUX_SEL_1,    /**< & */
  30:../../libdaisy/src/per/adc.h ****         MUX_SEL_2,    /**< & */
  31:../../libdaisy/src/per/adc.h ****         MUX_SEL_LAST, /**< & */
  32:../../libdaisy/src/per/adc.h ****     };
  33:../../libdaisy/src/per/adc.h **** 
  34:../../libdaisy/src/per/adc.h ****     /** Initializes a single ADC pin as an ADC. 
  35:../../libdaisy/src/per/adc.h ****     \param pin Pin to init.
  36:../../libdaisy/src/per/adc.h ****      */
  37:../../libdaisy/src/per/adc.h ****     void InitSingle(dsy_gpio_pin pin);
  38:../../libdaisy/src/per/adc.h **** 
  39:../../libdaisy/src/per/adc.h ****     /** 
  40:../../libdaisy/src/per/adc.h ****     Initializes a single ADC pin as a Multiplexed ADC.
  41:../../libdaisy/src/per/adc.h ****     Requires a CD405X Multiplexer connected to the pin.
  42:../../libdaisy/src/per/adc.h ****     You only need to supply the mux pins that are required,
  43:../../libdaisy/src/per/adc.h ****     e.g. a 4052 mux would only require mux_0 and mux_1.
  44:../../libdaisy/src/per/adc.h ****     Internal Callbacks handle the pin addressing.
  45:../../libdaisy/src/per/adc.h ****     \param mux_channels must be 1-8
  46:../../libdaisy/src/per/adc.h ****     \param mux_0 First mux pin
  47:../../libdaisy/src/per/adc.h ****     \param mux_1 Second mux pin
  48:../../libdaisy/src/per/adc.h ****     \param mux_2 Third mux pin
  49:../../libdaisy/src/per/adc.h ****     \param adc_pin &
  50:../../libdaisy/src/per/adc.h ****     */
  51:../../libdaisy/src/per/adc.h ****     void InitMux(dsy_gpio_pin adc_pin,
  52:../../libdaisy/src/per/adc.h ****                  size_t       mux_channels,
  53:../../libdaisy/src/per/adc.h ****                  dsy_gpio_pin mux_0,
  54:../../libdaisy/src/per/adc.h ****                  dsy_gpio_pin mux_1 = {DSY_GPIOX, 0},
  55:../../libdaisy/src/per/adc.h ****                  dsy_gpio_pin mux_2 = {DSY_GPIOX, 0});
  56:../../libdaisy/src/per/adc.h **** 
  57:../../libdaisy/src/per/adc.h ****     dsy_gpio pin_;                   /**< & */
ARM GAS  /tmp/ccm862Rg.s 			page 5


  58:../../libdaisy/src/per/adc.h ****     dsy_gpio mux_pin_[MUX_SEL_LAST]; /**< & */
  59:../../libdaisy/src/per/adc.h ****     uint8_t  mux_channels_;          /**< & */
  60:../../libdaisy/src/per/adc.h **** };
  61:../../libdaisy/src/per/adc.h **** 
  62:../../libdaisy/src/per/adc.h **** /**
  63:../../libdaisy/src/per/adc.h ****    Handler for analog to digital conversion
  64:../../libdaisy/src/per/adc.h **** */
  65:../../libdaisy/src/per/adc.h **** class AdcHandle
  66:../../libdaisy/src/per/adc.h **** {
  67:../../libdaisy/src/per/adc.h ****   public:
  68:../../libdaisy/src/per/adc.h ****     /** Supported oversampling amounts */
  69:../../libdaisy/src/per/adc.h ****     enum OverSampling
  70:../../libdaisy/src/per/adc.h ****     {
  71:../../libdaisy/src/per/adc.h ****         OVS_NONE, /**< & */
  72:../../libdaisy/src/per/adc.h ****         OVS_4,    /**< & */
  73:../../libdaisy/src/per/adc.h ****         OVS_8,    /**< & */
  74:../../libdaisy/src/per/adc.h ****         OVS_16,   /**< & */
  75:../../libdaisy/src/per/adc.h ****         OVS_32,   /**< & */
  76:../../libdaisy/src/per/adc.h ****         OVS_64,   /**< & */
  77:../../libdaisy/src/per/adc.h ****         OVS_128,  /**< & */
  78:../../libdaisy/src/per/adc.h ****         OVS_256,  /**< & */
  79:../../libdaisy/src/per/adc.h ****         OVS_512,  /**< & */
  80:../../libdaisy/src/per/adc.h ****         OVS_1024, /**< & */
  81:../../libdaisy/src/per/adc.h ****         OVS_LAST, /**< & */
  82:../../libdaisy/src/per/adc.h ****     };
  83:../../libdaisy/src/per/adc.h **** 
  84:../../libdaisy/src/per/adc.h ****     AdcHandle() {}
  85:../../libdaisy/src/per/adc.h ****     ~AdcHandle() {}
  50              		.loc 4 85 5 is_stmt 1 view .LVU5
  51              		.loc 4 85 5 is_stmt 0 view .LVU6
  52              	.LBE256:
  53              	.LBB257:
  54              	.LBI257:
  55              		.file 5 "../../libdaisy/src/hid/audio.h"
   1:../../libdaisy/src/hid/audio.h **** #ifndef DSY_AUDIO_H
   2:../../libdaisy/src/hid/audio.h **** #define DSY_AUDIO_H /**< & */
   3:../../libdaisy/src/hid/audio.h **** 
   4:../../libdaisy/src/hid/audio.h **** #include "per/sai.h"
   5:../../libdaisy/src/hid/audio.h **** 
   6:../../libdaisy/src/hid/audio.h **** namespace daisy
   7:../../libdaisy/src/hid/audio.h **** {
   8:../../libdaisy/src/hid/audio.h **** class AudioHandle
   9:../../libdaisy/src/hid/audio.h **** {
  10:../../libdaisy/src/hid/audio.h ****   public:
  11:../../libdaisy/src/hid/audio.h ****     /** Manually configurable details about the Audio Engine */
  12:../../libdaisy/src/hid/audio.h ****     /** TODO: Figure out how to get samplerate in here. */
  13:../../libdaisy/src/hid/audio.h ****     struct Config
  14:../../libdaisy/src/hid/audio.h ****     {
  15:../../libdaisy/src/hid/audio.h ****         size_t                        blocksize;
  16:../../libdaisy/src/hid/audio.h ****         SaiHandle::Config::SampleRate samplerate;
  17:../../libdaisy/src/hid/audio.h ****         float                         postgain;
  18:../../libdaisy/src/hid/audio.h ****     };
  19:../../libdaisy/src/hid/audio.h **** 
  20:../../libdaisy/src/hid/audio.h ****     enum class Result
  21:../../libdaisy/src/hid/audio.h ****     {
  22:../../libdaisy/src/hid/audio.h ****         OK,
  23:../../libdaisy/src/hid/audio.h ****         ERR,
ARM GAS  /tmp/ccm862Rg.s 			page 6


  24:../../libdaisy/src/hid/audio.h ****     };
  25:../../libdaisy/src/hid/audio.h **** 
  26:../../libdaisy/src/hid/audio.h ****     /** Non-Interleaving input buffer
  27:../../libdaisy/src/hid/audio.h ****      * Buffer arranged by float[chn][sample] 
  28:../../libdaisy/src/hid/audio.h ****      * const so that the user can't modify the input
  29:../../libdaisy/src/hid/audio.h ****     */
  30:../../libdaisy/src/hid/audio.h ****     typedef const float* const* InputBuffer;
  31:../../libdaisy/src/hid/audio.h **** 
  32:../../libdaisy/src/hid/audio.h ****     /** Non-Interleaving output buffer
  33:../../libdaisy/src/hid/audio.h ****      * Arranged by float[chn][sample] 
  34:../../libdaisy/src/hid/audio.h ****     */
  35:../../libdaisy/src/hid/audio.h ****     typedef float** OutputBuffer;
  36:../../libdaisy/src/hid/audio.h **** 
  37:../../libdaisy/src/hid/audio.h ****     /** Type for a Non-Interleaving audio callback 
  38:../../libdaisy/src/hid/audio.h ****    * Non-Interleaving audio callbacks in daisy will be of this type
  39:../../libdaisy/src/hid/audio.h ****   */
  40:../../libdaisy/src/hid/audio.h ****     typedef void (*AudioCallback)(InputBuffer  in,
  41:../../libdaisy/src/hid/audio.h ****                                   OutputBuffer out,
  42:../../libdaisy/src/hid/audio.h ****                                   size_t       size);
  43:../../libdaisy/src/hid/audio.h **** 
  44:../../libdaisy/src/hid/audio.h ****     /** Interleaving Input buffer
  45:../../libdaisy/src/hid/audio.h ****      ** audio is prepared as { L0, R0, L1, R1, . . . LN, RN }]
  46:../../libdaisy/src/hid/audio.h ****      ** this is const, as the user shouldn't modify it
  47:../../libdaisy/src/hid/audio.h ****     */
  48:../../libdaisy/src/hid/audio.h ****     typedef const float* InterleavingInputBuffer;
  49:../../libdaisy/src/hid/audio.h **** 
  50:../../libdaisy/src/hid/audio.h ****     /** Interleaving Output buffer 
  51:../../libdaisy/src/hid/audio.h ****      ** audio is prepared as { L0, R0, L1, R1, . . . LN, RN }
  52:../../libdaisy/src/hid/audio.h ****     */
  53:../../libdaisy/src/hid/audio.h ****     typedef float* InterleavingOutputBuffer;
  54:../../libdaisy/src/hid/audio.h **** 
  55:../../libdaisy/src/hid/audio.h ****     /** Interleaving Audio Callback 
  56:../../libdaisy/src/hid/audio.h ****    * Interleaving audio callbacks in daisy must be of this type
  57:../../libdaisy/src/hid/audio.h ****   */
  58:../../libdaisy/src/hid/audio.h ****     typedef void (*InterleavingAudioCallback)(InterleavingInputBuffer  in,
  59:../../libdaisy/src/hid/audio.h ****                                               InterleavingOutputBuffer out,
  60:../../libdaisy/src/hid/audio.h ****                                               size_t                   size);
  61:../../libdaisy/src/hid/audio.h **** 
  62:../../libdaisy/src/hid/audio.h ****     AudioHandle() : pimpl_(nullptr) {}
  63:../../libdaisy/src/hid/audio.h ****     ~AudioHandle() {}
  56              		.loc 5 63 5 is_stmt 1 view .LVU7
  57              		.loc 5 63 5 is_stmt 0 view .LVU8
  58              	.LBE257:
  59              		.loc 1 22 19 view .LVU9
  60 0000 7047     		bx	lr
  61              		.cfi_endproc
  62              	.LFE2037:
  64              		.weak	_ZN5daisy9DaisySeedD1Ev
  65              		.thumb_set _ZN5daisy9DaisySeedD1Ev,_ZN5daisy9DaisySeedD2Ev
  66 0002 00BF     		.section	.text._ZN7daisysp14AnalogBassDrumD2Ev,"axG",%progbits,_ZN7daisysp14AnalogBassDrumD5Ev,com
  67              		.align	1
  68              		.p2align 2,,3
  69              		.weak	_ZN7daisysp14AnalogBassDrumD2Ev
  70              		.syntax unified
  71              		.thumb
  72              		.thumb_func
  73              		.fpu fpv5-d16
ARM GAS  /tmp/ccm862Rg.s 			page 7


  75              	_ZN7daisysp14AnalogBassDrumD2Ev:
  76              	.LVL1:
  77              	.LFB3701:
  78              		.file 6 "../../DaisySP/Source/Drums/analogbassdrum.h"
   1:../../DaisySP/Source/Drums/analogbassdrum.h **** #pragma once
   2:../../DaisySP/Source/Drums/analogbassdrum.h **** #ifndef DSY_ANALOG_BD_H
   3:../../DaisySP/Source/Drums/analogbassdrum.h **** #define DSY_ANALOG_BD_H
   4:../../DaisySP/Source/Drums/analogbassdrum.h **** 
   5:../../DaisySP/Source/Drums/analogbassdrum.h **** #include <stdint.h>
   6:../../DaisySP/Source/Drums/analogbassdrum.h **** #ifdef __cplusplus
   7:../../DaisySP/Source/Drums/analogbassdrum.h **** 
   8:../../DaisySP/Source/Drums/analogbassdrum.h **** #include "Synthesis/oscillator.h"
   9:../../DaisySP/Source/Drums/analogbassdrum.h **** #include "Filters/svf.h"
  10:../../DaisySP/Source/Drums/analogbassdrum.h **** 
  11:../../DaisySP/Source/Drums/analogbassdrum.h **** /** @file analogbassdrum.h */
  12:../../DaisySP/Source/Drums/analogbassdrum.h **** 
  13:../../DaisySP/Source/Drums/analogbassdrum.h **** namespace daisysp
  14:../../DaisySP/Source/Drums/analogbassdrum.h **** {
  15:../../DaisySP/Source/Drums/analogbassdrum.h **** /**  
  16:../../DaisySP/Source/Drums/analogbassdrum.h ****        @brief 808 bass drum model, revisited.
  17:../../DaisySP/Source/Drums/analogbassdrum.h ****        @author Ben Sergentanis
  18:../../DaisySP/Source/Drums/analogbassdrum.h ****        @date Jan 2021 
  19:../../DaisySP/Source/Drums/analogbassdrum.h ****        Ported from pichenettes/eurorack/plaits/dsp/drums/analog_bass_drum.h \n
  20:../../DaisySP/Source/Drums/analogbassdrum.h ****        to an independent module. \n
  21:../../DaisySP/Source/Drums/analogbassdrum.h ****        Original code written by Emilie Gillet in 2016. \n
  22:../../DaisySP/Source/Drums/analogbassdrum.h **** */
  23:../../DaisySP/Source/Drums/analogbassdrum.h **** class AnalogBassDrum
  24:../../DaisySP/Source/Drums/analogbassdrum.h **** {
  25:../../DaisySP/Source/Drums/analogbassdrum.h ****   public:
  26:../../DaisySP/Source/Drums/analogbassdrum.h ****     AnalogBassDrum() {}
  27:../../DaisySP/Source/Drums/analogbassdrum.h ****     ~AnalogBassDrum() {}
  79              		.loc 6 27 5 is_stmt 1 view -0
  80              		.cfi_startproc
  81              		@ args = 0, pretend = 0, frame = 0
  82              		@ frame_needed = 0, uses_anonymous_args = 0
  83              		@ link register save eliminated.
  84              	.LBB258:
  85              	.LBI258:
  86              		.file 7 "../../DaisySP/Source/Filters/svf.h"
   1:../../DaisySP/Source/Filters/svf.h **** #pragma once
   2:../../DaisySP/Source/Filters/svf.h **** #ifndef DSY_SVF_H
   3:../../DaisySP/Source/Filters/svf.h **** #define DSY_SVF_H
   4:../../DaisySP/Source/Filters/svf.h **** 
   5:../../DaisySP/Source/Filters/svf.h **** namespace daisysp
   6:../../DaisySP/Source/Filters/svf.h **** {
   7:../../DaisySP/Source/Filters/svf.h **** /**      Double Sampled, Stable State Variable Filter
   8:../../DaisySP/Source/Filters/svf.h **** 
   9:../../DaisySP/Source/Filters/svf.h **** Credit to Andrew Simper from musicdsp.org
  10:../../DaisySP/Source/Filters/svf.h **** 
  11:../../DaisySP/Source/Filters/svf.h **** This is his "State Variable Filter (Double Sampled, Stable)"
  12:../../DaisySP/Source/Filters/svf.h **** 
  13:../../DaisySP/Source/Filters/svf.h **** Additional thanks to Laurent de Soras for stability limit, and 
  14:../../DaisySP/Source/Filters/svf.h **** Stefan Diedrichsen for the correct notch output
  15:../../DaisySP/Source/Filters/svf.h **** 
  16:../../DaisySP/Source/Filters/svf.h **** Ported by: Stephen Hensley
  17:../../DaisySP/Source/Filters/svf.h **** */
  18:../../DaisySP/Source/Filters/svf.h **** class Svf
ARM GAS  /tmp/ccm862Rg.s 			page 8


  19:../../DaisySP/Source/Filters/svf.h **** {
  20:../../DaisySP/Source/Filters/svf.h ****   public:
  21:../../DaisySP/Source/Filters/svf.h ****     Svf() {}
  22:../../DaisySP/Source/Filters/svf.h ****     ~Svf() {}
  87              		.loc 7 22 5 view .LVU11
  88              		.loc 7 22 5 is_stmt 0 view .LVU12
  89              	.LBE258:
  90              		.loc 6 27 24 view .LVU13
  91 0000 7047     		bx	lr
  92              		.cfi_endproc
  93              	.LFE3701:
  95              		.weak	_ZN7daisysp14AnalogBassDrumD1Ev
  96              		.thumb_set _ZN7daisysp14AnalogBassDrumD1Ev,_ZN7daisysp14AnalogBassDrumD2Ev
  97 0002 00BF     		.section	.text._ZN7daisysp6ChorusD2Ev,"axG",%progbits,_ZN7daisysp6ChorusD5Ev,comdat
  98              		.align	1
  99              		.p2align 2,,3
 100              		.weak	_ZN7daisysp6ChorusD2Ev
 101              		.syntax unified
 102              		.thumb
 103              		.thumb_func
 104              		.fpu fpv5-d16
 106              	_ZN7daisysp6ChorusD2Ev:
 107              	.LVL2:
 108              	.LFB3847:
 109              		.file 8 "../../DaisySP/Source/Effects/chorus.h"
   1:../../DaisySP/Source/Effects/chorus.h **** #pragma once
   2:../../DaisySP/Source/Effects/chorus.h **** #ifndef DSY_CHORUS_H
   3:../../DaisySP/Source/Effects/chorus.h **** #define DSY_CHORUS_H
   4:../../DaisySP/Source/Effects/chorus.h **** #ifdef __cplusplus
   5:../../DaisySP/Source/Effects/chorus.h **** 
   6:../../DaisySP/Source/Effects/chorus.h **** #include <stdint.h>
   7:../../DaisySP/Source/Effects/chorus.h **** #include "Utility/delayline.h"
   8:../../DaisySP/Source/Effects/chorus.h **** 
   9:../../DaisySP/Source/Effects/chorus.h **** /** @file chorus.h */
  10:../../DaisySP/Source/Effects/chorus.h **** 
  11:../../DaisySP/Source/Effects/chorus.h **** namespace daisysp
  12:../../DaisySP/Source/Effects/chorus.h **** {
  13:../../DaisySP/Source/Effects/chorus.h **** /**  
  14:../../DaisySP/Source/Effects/chorus.h ****     @brief Single Chorus engine. Used in Chorus.
  15:../../DaisySP/Source/Effects/chorus.h ****     @author Ben Sergentanis
  16:../../DaisySP/Source/Effects/chorus.h **** */
  17:../../DaisySP/Source/Effects/chorus.h **** class ChorusEngine
  18:../../DaisySP/Source/Effects/chorus.h **** {
  19:../../DaisySP/Source/Effects/chorus.h ****   public:
  20:../../DaisySP/Source/Effects/chorus.h ****     ChorusEngine() {}
  21:../../DaisySP/Source/Effects/chorus.h ****     ~ChorusEngine() {}
  22:../../DaisySP/Source/Effects/chorus.h **** 
  23:../../DaisySP/Source/Effects/chorus.h ****     /** Initialize the module
  24:../../DaisySP/Source/Effects/chorus.h ****         \param sample_rate Audio engine sample rate.
  25:../../DaisySP/Source/Effects/chorus.h ****     */
  26:../../DaisySP/Source/Effects/chorus.h ****     void Init(float sample_rate);
  27:../../DaisySP/Source/Effects/chorus.h **** 
  28:../../DaisySP/Source/Effects/chorus.h ****     /** Get the next sample
  29:../../DaisySP/Source/Effects/chorus.h ****         \param in Sample to process
  30:../../DaisySP/Source/Effects/chorus.h ****     */
  31:../../DaisySP/Source/Effects/chorus.h ****     float Process(float in);
  32:../../DaisySP/Source/Effects/chorus.h **** 
ARM GAS  /tmp/ccm862Rg.s 			page 9


  33:../../DaisySP/Source/Effects/chorus.h ****     /** How much to modulate the delay by.
  34:../../DaisySP/Source/Effects/chorus.h ****         \param depth Works 0-1.
  35:../../DaisySP/Source/Effects/chorus.h ****     */
  36:../../DaisySP/Source/Effects/chorus.h ****     void SetLfoDepth(float depth);
  37:../../DaisySP/Source/Effects/chorus.h **** 
  38:../../DaisySP/Source/Effects/chorus.h ****     /** Set lfo frequency.
  39:../../DaisySP/Source/Effects/chorus.h ****         \param freq Frequency in Hz
  40:../../DaisySP/Source/Effects/chorus.h ****     */
  41:../../DaisySP/Source/Effects/chorus.h ****     void SetLfoFreq(float freq);
  42:../../DaisySP/Source/Effects/chorus.h **** 
  43:../../DaisySP/Source/Effects/chorus.h ****     /** Set the internal delay rate. 
  44:../../DaisySP/Source/Effects/chorus.h ****         \param delay Tuned for 0-1. Maps to .1 to 50 ms.
  45:../../DaisySP/Source/Effects/chorus.h ****     */
  46:../../DaisySP/Source/Effects/chorus.h ****     void SetDelay(float delay);
  47:../../DaisySP/Source/Effects/chorus.h **** 
  48:../../DaisySP/Source/Effects/chorus.h ****     /** Set the delay time in ms.
  49:../../DaisySP/Source/Effects/chorus.h ****         \param ms Delay time in ms.
  50:../../DaisySP/Source/Effects/chorus.h ****     */
  51:../../DaisySP/Source/Effects/chorus.h ****     void SetDelayMs(float ms);
  52:../../DaisySP/Source/Effects/chorus.h **** 
  53:../../DaisySP/Source/Effects/chorus.h ****     /** Set the feedback amount.
  54:../../DaisySP/Source/Effects/chorus.h ****         \param feedback Amount from 0-1.
  55:../../DaisySP/Source/Effects/chorus.h ****     */
  56:../../DaisySP/Source/Effects/chorus.h ****     void SetFeedback(float feedback);
  57:../../DaisySP/Source/Effects/chorus.h **** 
  58:../../DaisySP/Source/Effects/chorus.h ****   private:
  59:../../DaisySP/Source/Effects/chorus.h ****     float                    sample_rate_;
  60:../../DaisySP/Source/Effects/chorus.h ****     static constexpr int32_t kDelayLength
  61:../../DaisySP/Source/Effects/chorus.h ****         = 2400; // 50 ms at 48kHz = .05 * 48000
  62:../../DaisySP/Source/Effects/chorus.h **** 
  63:../../DaisySP/Source/Effects/chorus.h ****     //triangle lfos
  64:../../DaisySP/Source/Effects/chorus.h ****     float lfo_phase_;
  65:../../DaisySP/Source/Effects/chorus.h ****     float lfo_freq_;
  66:../../DaisySP/Source/Effects/chorus.h ****     float lfo_amp_;
  67:../../DaisySP/Source/Effects/chorus.h **** 
  68:../../DaisySP/Source/Effects/chorus.h ****     float feedback_;
  69:../../DaisySP/Source/Effects/chorus.h **** 
  70:../../DaisySP/Source/Effects/chorus.h ****     float delay_;
  71:../../DaisySP/Source/Effects/chorus.h **** 
  72:../../DaisySP/Source/Effects/chorus.h ****     DelayLine<float, kDelayLength> del_;
  73:../../DaisySP/Source/Effects/chorus.h **** 
  74:../../DaisySP/Source/Effects/chorus.h ****     float ProcessLfo();
  75:../../DaisySP/Source/Effects/chorus.h **** };
  76:../../DaisySP/Source/Effects/chorus.h **** 
  77:../../DaisySP/Source/Effects/chorus.h **** //wraps up all of the chorus engines
  78:../../DaisySP/Source/Effects/chorus.h **** /**  
  79:../../DaisySP/Source/Effects/chorus.h ****     @brief Chorus Effect.
  80:../../DaisySP/Source/Effects/chorus.h ****     @author Ben Sergentanis
  81:../../DaisySP/Source/Effects/chorus.h ****     @date Jan 2021
  82:../../DaisySP/Source/Effects/chorus.h ****     Based on https://www.izotope.com/en/learn/understanding-chorus-flangers-and-phasers-in-audio-pr
  83:../../DaisySP/Source/Effects/chorus.h ****     and https://www.researchgate.net/publication/236629475_Implementing_Professional_Audio_Effects_
  84:../../DaisySP/Source/Effects/chorus.h **** */
  85:../../DaisySP/Source/Effects/chorus.h **** class Chorus
  86:../../DaisySP/Source/Effects/chorus.h **** {
  87:../../DaisySP/Source/Effects/chorus.h ****   public:
  88:../../DaisySP/Source/Effects/chorus.h ****     Chorus() {}
  89:../../DaisySP/Source/Effects/chorus.h ****     ~Chorus() {}
ARM GAS  /tmp/ccm862Rg.s 			page 10


 110              		.loc 8 89 5 is_stmt 1 view -0
 111              		.cfi_startproc
 112              		@ args = 0, pretend = 0, frame = 0
 113              		@ frame_needed = 0, uses_anonymous_args = 0
 114              		@ link register save eliminated.
 115              		.loc 8 89 16 is_stmt 0 view .LVU15
 116 0000 7047     		bx	lr
 117              		.cfi_endproc
 118              	.LFE3847:
 120              		.weak	_ZN7daisysp6ChorusD1Ev
 121              		.thumb_set _ZN7daisysp6ChorusD1Ev,_ZN7daisysp6ChorusD2Ev
 122 0002 00BF     		.section	.text._ZN7daisysp21VariableSawOscillatorD2Ev,"axG",%progbits,_ZN7daisysp21VariableSawOsci
 123              		.align	1
 124              		.p2align 2,,3
 125              		.weak	_ZN7daisysp21VariableSawOscillatorD2Ev
 126              		.syntax unified
 127              		.thumb
 128              		.thumb_func
 129              		.fpu fpv5-d16
 131              	_ZN7daisysp21VariableSawOscillatorD2Ev:
 132              	.LVL3:
 133              	.LFB4146:
 134              		.file 9 "../../DaisySP/Source/Synthesis/variablesawosc.h"
   1:../../DaisySP/Source/Synthesis/variablesawosc.h **** #pragma once
   2:../../DaisySP/Source/Synthesis/variablesawosc.h **** #ifndef DSY_VARISAWOSCILLATOR_H
   3:../../DaisySP/Source/Synthesis/variablesawosc.h **** #define DSY_VARISAWOSCILLATOR_H
   4:../../DaisySP/Source/Synthesis/variablesawosc.h **** 
   5:../../DaisySP/Source/Synthesis/variablesawosc.h **** #include <stdint.h>
   6:../../DaisySP/Source/Synthesis/variablesawosc.h **** #ifdef __cplusplus
   7:../../DaisySP/Source/Synthesis/variablesawosc.h **** 
   8:../../DaisySP/Source/Synthesis/variablesawosc.h **** /** @file variablesawosc.h */
   9:../../DaisySP/Source/Synthesis/variablesawosc.h **** namespace daisysp
  10:../../DaisySP/Source/Synthesis/variablesawosc.h **** {
  11:../../DaisySP/Source/Synthesis/variablesawosc.h **** /**  
  12:../../DaisySP/Source/Synthesis/variablesawosc.h ****        @brief Variable Saw Oscillator. 
  13:../../DaisySP/Source/Synthesis/variablesawosc.h ****        @author Ben Sergentanis
  14:../../DaisySP/Source/Synthesis/variablesawosc.h ****        @date Dec 2020 
  15:../../DaisySP/Source/Synthesis/variablesawosc.h ****        Saw with variable slope or notch. \n \n
  16:../../DaisySP/Source/Synthesis/variablesawosc.h ****        Ported from pichenettes/eurorack/plaits/dsp/oscillator/variable_saw_oscillator.h \n 
  17:../../DaisySP/Source/Synthesis/variablesawosc.h ****        \n to an independent module. \n
  18:../../DaisySP/Source/Synthesis/variablesawosc.h ****        Original code written by Emilie Gillet in 2016. \n
  19:../../DaisySP/Source/Synthesis/variablesawosc.h **** */
  20:../../DaisySP/Source/Synthesis/variablesawosc.h **** class VariableSawOscillator
  21:../../DaisySP/Source/Synthesis/variablesawosc.h **** {
  22:../../DaisySP/Source/Synthesis/variablesawosc.h ****   public:
  23:../../DaisySP/Source/Synthesis/variablesawosc.h ****     VariableSawOscillator() {}
  24:../../DaisySP/Source/Synthesis/variablesawosc.h ****     ~VariableSawOscillator() {}
 135              		.loc 9 24 5 is_stmt 1 view -0
 136              		.cfi_startproc
 137              		@ args = 0, pretend = 0, frame = 0
 138              		@ frame_needed = 0, uses_anonymous_args = 0
 139              		@ link register save eliminated.
 140              		.loc 9 24 31 is_stmt 0 view .LVU17
 141 0000 7047     		bx	lr
 142              		.cfi_endproc
 143              	.LFE4146:
 145              		.weak	_ZN7daisysp21VariableSawOscillatorD1Ev
ARM GAS  /tmp/ccm862Rg.s 			page 11


 146              		.thumb_set _ZN7daisysp21VariableSawOscillatorD1Ev,_ZN7daisysp21VariableSawOscillatorD2Ev
 147 0002 00BF     		.section	.text._ZN7daisysp5MetroD2Ev,"axG",%progbits,_ZN7daisysp5MetroD5Ev,comdat
 148              		.align	1
 149              		.p2align 2,,3
 150              		.weak	_ZN7daisysp5MetroD2Ev
 151              		.syntax unified
 152              		.thumb
 153              		.thumb_func
 154              		.fpu fpv5-d16
 156              	_ZN7daisysp5MetroD2Ev:
 157              	.LVL4:
 158              	.LFB4183:
 159              		.file 10 "../../DaisySP/Source/Utility/metro.h"
   1:../../DaisySP/Source/Utility/metro.h **** #pragma once
   2:../../DaisySP/Source/Utility/metro.h **** #ifndef DSY_METRO_H
   3:../../DaisySP/Source/Utility/metro.h **** #define DSY_METRO_H
   4:../../DaisySP/Source/Utility/metro.h **** #include <stdint.h>
   5:../../DaisySP/Source/Utility/metro.h **** #ifdef __cplusplus
   6:../../DaisySP/Source/Utility/metro.h **** 
   7:../../DaisySP/Source/Utility/metro.h **** namespace daisysp
   8:../../DaisySP/Source/Utility/metro.h **** {
   9:../../DaisySP/Source/Utility/metro.h **** /** Creates a clock signal at a specific frequency.
  10:../../DaisySP/Source/Utility/metro.h **** */
  11:../../DaisySP/Source/Utility/metro.h **** class Metro
  12:../../DaisySP/Source/Utility/metro.h **** {
  13:../../DaisySP/Source/Utility/metro.h ****   public:
  14:../../DaisySP/Source/Utility/metro.h ****     Metro() {}
  15:../../DaisySP/Source/Utility/metro.h ****     ~Metro() {}
 160              		.loc 10 15 5 is_stmt 1 view -0
 161              		.cfi_startproc
 162              		@ args = 0, pretend = 0, frame = 0
 163              		@ frame_needed = 0, uses_anonymous_args = 0
 164              		@ link register save eliminated.
 165              		.loc 10 15 15 is_stmt 0 view .LVU19
 166 0000 7047     		bx	lr
 167              		.cfi_endproc
 168              	.LFE4183:
 170              		.weak	_ZN7daisysp5MetroD1Ev
 171              		.thumb_set _ZN7daisysp5MetroD1Ev,_ZN7daisysp5MetroD2Ev
 172 0002 00BF     		.section	.text._ZN7daisysp5HiHatINS_11SquareNoiseENS_9LinearVCAELb1EED2Ev,"axG",%progbits,_ZN7dais
 173              		.align	1
 174              		.p2align 2,,3
 175              		.weak	_ZN7daisysp5HiHatINS_11SquareNoiseENS_9LinearVCAELb1EED2Ev
 176              		.syntax unified
 177              		.thumb
 178              		.thumb_func
 179              		.fpu fpv5-d16
 181              	_ZN7daisysp5HiHatINS_11SquareNoiseENS_9LinearVCAELb1EED2Ev:
 182              	.LVL5:
 183              	.LFB4773:
 184              		.file 11 "../../DaisySP/Source/Drums/hihat.h"
   1:../../DaisySP/Source/Drums/hihat.h **** #pragma once
   2:../../DaisySP/Source/Drums/hihat.h **** #ifndef DSY_HIHAT_H
   3:../../DaisySP/Source/Drums/hihat.h **** #define DSY_HIHAT_H
   4:../../DaisySP/Source/Drums/hihat.h **** 
   5:../../DaisySP/Source/Drums/hihat.h **** #include "Filters/svf.h"
   6:../../DaisySP/Source/Drums/hihat.h **** #include "Synthesis/oscillator.h"
ARM GAS  /tmp/ccm862Rg.s 			page 12


   7:../../DaisySP/Source/Drums/hihat.h **** 
   8:../../DaisySP/Source/Drums/hihat.h **** #include <stdint.h>
   9:../../DaisySP/Source/Drums/hihat.h **** #include <stdlib.h>
  10:../../DaisySP/Source/Drums/hihat.h **** #ifdef __cplusplus
  11:../../DaisySP/Source/Drums/hihat.h **** 
  12:../../DaisySP/Source/Drums/hihat.h **** /** @file hihat.h */
  13:../../DaisySP/Source/Drums/hihat.h **** 
  14:../../DaisySP/Source/Drums/hihat.h **** namespace daisysp
  15:../../DaisySP/Source/Drums/hihat.h **** {
  16:../../DaisySP/Source/Drums/hihat.h **** /**  
  17:../../DaisySP/Source/Drums/hihat.h ****        @brief 808 style "metallic noise" with 6 square oscillators.
  18:../../DaisySP/Source/Drums/hihat.h ****        @author Ben Sergentanis
  19:../../DaisySP/Source/Drums/hihat.h ****        @date Jan 2021
  20:../../DaisySP/Source/Drums/hihat.h ****        Ported from pichenettes/eurorack/plaits/dsp/drums/hihat.h \n
  21:../../DaisySP/Source/Drums/hihat.h ****        to an independent module. \n
  22:../../DaisySP/Source/Drums/hihat.h ****        Original code written by Emilie Gillet in 2016. \n
  23:../../DaisySP/Source/Drums/hihat.h **** */
  24:../../DaisySP/Source/Drums/hihat.h **** class SquareNoise
  25:../../DaisySP/Source/Drums/hihat.h **** {
  26:../../DaisySP/Source/Drums/hihat.h ****   public:
  27:../../DaisySP/Source/Drums/hihat.h ****     SquareNoise() {}
  28:../../DaisySP/Source/Drums/hihat.h ****     ~SquareNoise() {}
  29:../../DaisySP/Source/Drums/hihat.h **** 
  30:../../DaisySP/Source/Drums/hihat.h ****     void Init(float sample_rate);
  31:../../DaisySP/Source/Drums/hihat.h **** 
  32:../../DaisySP/Source/Drums/hihat.h ****     float Process(float f0);
  33:../../DaisySP/Source/Drums/hihat.h **** 
  34:../../DaisySP/Source/Drums/hihat.h ****   private:
  35:../../DaisySP/Source/Drums/hihat.h ****     uint32_t phase_[6];
  36:../../DaisySP/Source/Drums/hihat.h **** };
  37:../../DaisySP/Source/Drums/hihat.h **** 
  38:../../DaisySP/Source/Drums/hihat.h **** /**  
  39:../../DaisySP/Source/Drums/hihat.h ****        @brief Ring mod style metallic noise generator.
  40:../../DaisySP/Source/Drums/hihat.h ****        @author Ben Sergentanis
  41:../../DaisySP/Source/Drums/hihat.h ****        @date Jan 2021
  42:../../DaisySP/Source/Drums/hihat.h ****        Ported from pichenettes/eurorack/plaits/dsp/drums/hihat.h \n
  43:../../DaisySP/Source/Drums/hihat.h ****        to an independent module. \n
  44:../../DaisySP/Source/Drums/hihat.h ****        Original code written by Emilie Gillet in 2016. \n
  45:../../DaisySP/Source/Drums/hihat.h **** */
  46:../../DaisySP/Source/Drums/hihat.h **** class RingModNoise
  47:../../DaisySP/Source/Drums/hihat.h **** {
  48:../../DaisySP/Source/Drums/hihat.h ****   public:
  49:../../DaisySP/Source/Drums/hihat.h ****     RingModNoise() {}
  50:../../DaisySP/Source/Drums/hihat.h ****     ~RingModNoise() {}
  51:../../DaisySP/Source/Drums/hihat.h **** 
  52:../../DaisySP/Source/Drums/hihat.h ****     void Init(float sample_rate);
  53:../../DaisySP/Source/Drums/hihat.h **** 
  54:../../DaisySP/Source/Drums/hihat.h ****     float Process(float f0);
  55:../../DaisySP/Source/Drums/hihat.h **** 
  56:../../DaisySP/Source/Drums/hihat.h ****   private:
  57:../../DaisySP/Source/Drums/hihat.h ****     float      ProcessPair(Oscillator* osc, float f1, float f2);
  58:../../DaisySP/Source/Drums/hihat.h ****     Oscillator oscillator_[6];
  59:../../DaisySP/Source/Drums/hihat.h **** 
  60:../../DaisySP/Source/Drums/hihat.h ****     float sample_rate_;
  61:../../DaisySP/Source/Drums/hihat.h **** };
  62:../../DaisySP/Source/Drums/hihat.h **** 
  63:../../DaisySP/Source/Drums/hihat.h **** /**  
ARM GAS  /tmp/ccm862Rg.s 			page 13


  64:../../DaisySP/Source/Drums/hihat.h ****        @brief Swing type VCA
  65:../../DaisySP/Source/Drums/hihat.h ****        @author Ben Sergentanis
  66:../../DaisySP/Source/Drums/hihat.h ****        @date Jan 2021
  67:../../DaisySP/Source/Drums/hihat.h ****        Ported from pichenettes/eurorack/plaits/dsp/drums/hihat.h \n
  68:../../DaisySP/Source/Drums/hihat.h ****        to an independent module. \n
  69:../../DaisySP/Source/Drums/hihat.h ****        Original code written by Emilie Gillet in 2016. \n
  70:../../DaisySP/Source/Drums/hihat.h **** */
  71:../../DaisySP/Source/Drums/hihat.h **** class SwingVCA
  72:../../DaisySP/Source/Drums/hihat.h **** {
  73:../../DaisySP/Source/Drums/hihat.h ****   public:
  74:../../DaisySP/Source/Drums/hihat.h ****     float operator()(float s, float gain)
  75:../../DaisySP/Source/Drums/hihat.h ****     {
  76:../../DaisySP/Source/Drums/hihat.h ****         s *= s > 0.0f ? 10.0f : 0.1f;
  77:../../DaisySP/Source/Drums/hihat.h ****         s = s / (1.0f + fabsf(s));
  78:../../DaisySP/Source/Drums/hihat.h ****         return (s + 1.0f) * gain;
  79:../../DaisySP/Source/Drums/hihat.h ****     }
  80:../../DaisySP/Source/Drums/hihat.h **** };
  81:../../DaisySP/Source/Drums/hihat.h **** 
  82:../../DaisySP/Source/Drums/hihat.h **** /**  
  83:../../DaisySP/Source/Drums/hihat.h ****        @brief Linear type VCA
  84:../../DaisySP/Source/Drums/hihat.h ****        @author Ben Sergentanis
  85:../../DaisySP/Source/Drums/hihat.h ****        @date Jan 2021
  86:../../DaisySP/Source/Drums/hihat.h ****        Ported from pichenettes/eurorack/plaits/dsp/drums/hihat.h \n
  87:../../DaisySP/Source/Drums/hihat.h ****        to an independent module. \n
  88:../../DaisySP/Source/Drums/hihat.h ****        Original code written by Emilie Gillet in 2016. \n
  89:../../DaisySP/Source/Drums/hihat.h **** */
  90:../../DaisySP/Source/Drums/hihat.h **** class LinearVCA
  91:../../DaisySP/Source/Drums/hihat.h **** {
  92:../../DaisySP/Source/Drums/hihat.h ****   public:
  93:../../DaisySP/Source/Drums/hihat.h ****     float operator()(float s, float gain) { return s * gain; }
  94:../../DaisySP/Source/Drums/hihat.h **** };
  95:../../DaisySP/Source/Drums/hihat.h **** 
  96:../../DaisySP/Source/Drums/hihat.h **** /**  
  97:../../DaisySP/Source/Drums/hihat.h ****        @brief 808 HH, with a few extra parameters to push things to the CY territory...
  98:../../DaisySP/Source/Drums/hihat.h ****        @author Ben Sergentanis
  99:../../DaisySP/Source/Drums/hihat.h ****        @date Jan 2021
 100:../../DaisySP/Source/Drums/hihat.h ****        The template parameter MetallicNoiseSource allows another kind of "metallic \n
 101:../../DaisySP/Source/Drums/hihat.h ****        noise" to be used, for results which are more similar to KR-55 or FM hi-hats. \n \n 
 102:../../DaisySP/Source/Drums/hihat.h ****        Ported from pichenettes/eurorack/plaits/dsp/drums/hihat.h \n
 103:../../DaisySP/Source/Drums/hihat.h ****        to an independent module. \n
 104:../../DaisySP/Source/Drums/hihat.h ****        Original code written by Emilie Gillet in 2016. \n
 105:../../DaisySP/Source/Drums/hihat.h **** */
 106:../../DaisySP/Source/Drums/hihat.h **** template <typename MetallicNoiseSource = SquareNoise,
 107:../../DaisySP/Source/Drums/hihat.h ****           typename VCA                 = LinearVCA,
 108:../../DaisySP/Source/Drums/hihat.h ****           bool resonance               = true>
 109:../../DaisySP/Source/Drums/hihat.h **** class HiHat
 110:../../DaisySP/Source/Drums/hihat.h **** {
 111:../../DaisySP/Source/Drums/hihat.h ****   public:
 112:../../DaisySP/Source/Drums/hihat.h ****     HiHat() {}
 113:../../DaisySP/Source/Drums/hihat.h ****     ~HiHat() {}
 185              		.loc 11 113 5 is_stmt 1 view -0
 186              		.cfi_startproc
 187              		@ args = 0, pretend = 0, frame = 0
 188              		@ frame_needed = 0, uses_anonymous_args = 0
 189              		@ link register save eliminated.
 190              	.LBB259:
 191              	.LBI259:
ARM GAS  /tmp/ccm862Rg.s 			page 14


 192              		.loc 7 22 5 view .LVU21
 193              		.loc 7 22 5 is_stmt 0 view .LVU22
 194              	.LBE259:
 195              	.LBB260:
 196              	.LBI260:
 197              		.loc 7 22 5 is_stmt 1 view .LVU23
 198              		.loc 7 22 5 is_stmt 0 view .LVU24
 199              	.LBE260:
 200              	.LBB261:
 201              	.LBI261:
  28:../../DaisySP/Source/Drums/hihat.h **** 
 202              		.loc 11 28 5 is_stmt 1 view .LVU25
  28:../../DaisySP/Source/Drums/hihat.h **** 
 203              		.loc 11 28 5 is_stmt 0 view .LVU26
 204              	.LBE261:
 205              		.loc 11 113 15 view .LVU27
 206 0000 7047     		bx	lr
 207              		.cfi_endproc
 208              	.LFE4773:
 210              		.weak	_ZN7daisysp5HiHatINS_11SquareNoiseENS_9LinearVCAELb1EED1Ev
 211              		.thumb_set _ZN7daisysp5HiHatINS_11SquareNoiseENS_9LinearVCAELb1EED1Ev,_ZN7daisysp5HiHatINS_11Squar
 212 0002 00BF     		.section	.text._Z12ProcessDrumsv,"ax",%progbits
 213              		.align	1
 214              		.p2align 2,,3
 215              		.global	_Z12ProcessDrumsv
 216              		.syntax unified
 217              		.thumb
 218              		.thumb_func
 219              		.fpu fpv5-d16
 221              	_Z12ProcessDrumsv:
 222              	.LFB4212:
 223              		.file 12 "chorus.cpp"
   1:chorus.cpp    **** #include "daisy_seed.h"
   2:chorus.cpp    **** #include "daisysp.h"
   3:chorus.cpp    **** 
   4:chorus.cpp    **** using namespace daisy;
   5:chorus.cpp    **** using namespace daisysp;
   6:chorus.cpp    **** 
   7:chorus.cpp    **** DaisySeed hw;
   8:chorus.cpp    **** 
   9:chorus.cpp    **** Chorus                chorus;
  10:chorus.cpp    **** VariableSawOscillator osc;
  11:chorus.cpp    **** HiHat<>               hat;
  12:chorus.cpp    **** AnalogBassDrum        kick;
  13:chorus.cpp    **** 
  14:chorus.cpp    **** 
  15:chorus.cpp    **** Metro tick;
  16:chorus.cpp    **** 
  17:chorus.cpp    **** uint8_t h_patt = 0B11111111;
  18:chorus.cpp    **** uint8_t k_patt = 0B10001000;
  19:chorus.cpp    **** uint8_t pos    = 0B10000000;
  20:chorus.cpp    **** 
  21:chorus.cpp    **** bool bass_note; // Toggles between root/fifth
  22:chorus.cpp    **** 
  23:chorus.cpp    **** float ProcessDrums()
  24:chorus.cpp    **** {
 224              		.loc 12 24 1 is_stmt 1 view -0
ARM GAS  /tmp/ccm862Rg.s 			page 15


 225              		.cfi_startproc
 226              		@ args = 0, pretend = 0, frame = 0
 227              		@ frame_needed = 0, uses_anonymous_args = 0
  25:chorus.cpp    ****     bool t = tick.Process();
 228              		.loc 12 25 5 view .LVU29
  24:chorus.cpp    ****     bool t = tick.Process();
 229              		.loc 12 24 1 is_stmt 0 view .LVU30
 230 0000 70B5     		push	{r4, r5, r6, lr}
 231              		.cfi_def_cfa_offset 16
 232              		.cfi_offset 4, -16
 233              		.cfi_offset 5, -12
 234              		.cfi_offset 6, -8
 235              		.cfi_offset 14, -4
 236              		.loc 12 25 26 view .LVU31
 237 0002 BA48     		ldr	r0, .L29
  26:chorus.cpp    ****     pos    = pos >> t;
 238              		.loc 12 26 14 view .LVU32
 239 0004 BA4E     		ldr	r6, .L29+4
  24:chorus.cpp    ****     bool t = tick.Process();
 240              		.loc 12 24 1 view .LVU33
 241 0006 2DED068B 		vpush.64	{d8, d9, d10}
 242              		.cfi_def_cfa_offset 40
 243              		.cfi_offset 80, -40
 244              		.cfi_offset 81, -36
 245              		.cfi_offset 82, -32
 246              		.cfi_offset 83, -28
 247              		.cfi_offset 84, -24
 248              		.cfi_offset 85, -20
  25:chorus.cpp    ****     bool t = tick.Process();
 249              		.loc 12 25 26 view .LVU34
 250 000a FFF7FEFF 		bl	_ZN7daisysp5Metro7ProcessEv
 251              	.LVL6:
 252              		.loc 12 26 5 is_stmt 1 view .LVU35
  25:chorus.cpp    ****     bool t = tick.Process();
 253              		.loc 12 25 27 is_stmt 0 view .LVU36
 254 000e 021E     		subs	r2, r0, #0
 255              		.loc 12 26 14 view .LVU37
 256 0010 3378     		ldrb	r3, [r6]	@ zero_extendqisi2
  25:chorus.cpp    ****     bool t = tick.Process();
 257              		.loc 12 25 27 view .LVU38
 258 0012 0546     		mov	r5, r0
 259 0014 18BF     		it	ne
 260 0016 0122     		movne	r2, #1
 261              		.loc 12 26 18 view .LVU39
 262 0018 1341     		asrs	r3, r3, r2
 263              		.loc 12 26 12 view .LVU40
 264 001a DAB2     		uxtb	r2, r3
 265 001c 3270     		strb	r2, [r6]
  27:chorus.cpp    **** 
  28:chorus.cpp    ****     if(pos == 0 && t)
 266              		.loc 12 28 5 is_stmt 1 view .LVU41
 267 001e 002B     		cmp	r3, #0
 268 0020 40F01C81 		bne	.L9
 269              		.loc 12 28 17 is_stmt 0 discriminator 1 view .LVU42
 270 0024 0028     		cmp	r0, #0
 271 0026 00F01C81 		beq	.L15
  29:chorus.cpp    ****     {
ARM GAS  /tmp/ccm862Rg.s 			page 16


  30:chorus.cpp    ****         pos       = 0B10000000;
 272              		.loc 12 30 9 is_stmt 1 view .LVU43
  31:chorus.cpp    ****         bass_note = !bass_note;
 273              		.loc 12 31 21 is_stmt 0 view .LVU44
 274 002a B24A     		ldr	r2, .L29+8
  32:chorus.cpp    ****         osc.SetFreq(mtof(bass_note ? 31.f : 24.f));
 275              		.loc 12 32 20 view .LVU45
 276 002c F8EE0E7A 		vmov.f32	s15, #-3.75e+0
 277 0030 DFEDB10A 		vldr.32	s1, .L29+12
  30:chorus.cpp    ****         bass_note = !bass_note;
 278              		.loc 12 30 19 view .LVU46
 279 0034 8021     		movs	r1, #128
  31:chorus.cpp    ****         bass_note = !bass_note;
 280              		.loc 12 31 21 view .LVU47
 281 0036 1378     		ldrb	r3, [r2]	@ zero_extendqisi2
 282              	.LBB284:
 283              	.LBB285:
 284              		.file 13 "../../DaisySP/Source/Utility/dsp.h"
   1:../../DaisySP/Source/Utility/dsp.h **** /** Helpful defines, functions, and other utilities for use in/with daisysp modules.
   2:../../DaisySP/Source/Utility/dsp.h **** */
   3:../../DaisySP/Source/Utility/dsp.h **** #pragma once
   4:../../DaisySP/Source/Utility/dsp.h **** #ifndef DSY_CORE_DSP
   5:../../DaisySP/Source/Utility/dsp.h **** #define DSY_CORE_DSP
   6:../../DaisySP/Source/Utility/dsp.h **** #include <cassert>
   7:../../DaisySP/Source/Utility/dsp.h **** #include <cstdint>
   8:../../DaisySP/Source/Utility/dsp.h **** #include <random>
   9:../../DaisySP/Source/Utility/dsp.h **** #include <cmath>
  10:../../DaisySP/Source/Utility/dsp.h **** 
  11:../../DaisySP/Source/Utility/dsp.h **** /** PIs
  12:../../DaisySP/Source/Utility/dsp.h **** */
  13:../../DaisySP/Source/Utility/dsp.h **** #define PI_F 3.1415927410125732421875f
  14:../../DaisySP/Source/Utility/dsp.h **** #define TWOPI_F (2.0f * PI_F)
  15:../../DaisySP/Source/Utility/dsp.h **** #define HALFPI_F (PI_F * 0.5f)
  16:../../DaisySP/Source/Utility/dsp.h **** #define DSY_MIN(in, mn) (in < mn ? in : mn)
  17:../../DaisySP/Source/Utility/dsp.h **** #define DSY_MAX(in, mx) (in > mx ? in : mx)
  18:../../DaisySP/Source/Utility/dsp.h **** #define DSY_CLAMP(in, mn, mx) (DSY_MIN(DSY_MAX(in, mn), mx))
  19:../../DaisySP/Source/Utility/dsp.h **** #define DSY_COUNTOF(_arr) (sizeof(_arr) / sizeof(_arr[0]))
  20:../../DaisySP/Source/Utility/dsp.h **** 
  21:../../DaisySP/Source/Utility/dsp.h **** namespace daisysp
  22:../../DaisySP/Source/Utility/dsp.h **** {
  23:../../DaisySP/Source/Utility/dsp.h **** //Avoids division for random floats. e.g. rand() * kRandFrac
  24:../../DaisySP/Source/Utility/dsp.h **** static constexpr float kRandFrac = 1.f / (float)RAND_MAX;
  25:../../DaisySP/Source/Utility/dsp.h **** 
  26:../../DaisySP/Source/Utility/dsp.h **** //Convert from semitones to other units. e.g. 2 ^ (kOneTwelfth * x)
  27:../../DaisySP/Source/Utility/dsp.h **** static constexpr float kOneTwelfth = 1.f / 12.f;
  28:../../DaisySP/Source/Utility/dsp.h **** 
  29:../../DaisySP/Source/Utility/dsp.h **** /** efficient floating point min/max
  30:../../DaisySP/Source/Utility/dsp.h **** c/o stephen mccaul
  31:../../DaisySP/Source/Utility/dsp.h **** */
  32:../../DaisySP/Source/Utility/dsp.h **** inline float fmax(float a, float b)
  33:../../DaisySP/Source/Utility/dsp.h **** {
  34:../../DaisySP/Source/Utility/dsp.h ****     float r;
  35:../../DaisySP/Source/Utility/dsp.h **** #ifdef __arm__
  36:../../DaisySP/Source/Utility/dsp.h ****     asm("vmaxnm.f32 %[d], %[n], %[m]" : [d] "=t"(r) : [n] "t"(a), [m] "t"(b) :);
  37:../../DaisySP/Source/Utility/dsp.h **** #else
  38:../../DaisySP/Source/Utility/dsp.h ****     r = (a > b) ? a : b;
  39:../../DaisySP/Source/Utility/dsp.h **** #endif // __arm__
ARM GAS  /tmp/ccm862Rg.s 			page 17


  40:../../DaisySP/Source/Utility/dsp.h ****     return r;
  41:../../DaisySP/Source/Utility/dsp.h **** }
  42:../../DaisySP/Source/Utility/dsp.h **** 
  43:../../DaisySP/Source/Utility/dsp.h **** inline float fmin(float a, float b)
  44:../../DaisySP/Source/Utility/dsp.h **** {
  45:../../DaisySP/Source/Utility/dsp.h ****     float r;
  46:../../DaisySP/Source/Utility/dsp.h **** #ifdef __arm__
  47:../../DaisySP/Source/Utility/dsp.h ****     asm("vminnm.f32 %[d], %[n], %[m]" : [d] "=t"(r) : [n] "t"(a), [m] "t"(b) :);
  48:../../DaisySP/Source/Utility/dsp.h **** #else
  49:../../DaisySP/Source/Utility/dsp.h ****     r = (a < b) ? a : b;
  50:../../DaisySP/Source/Utility/dsp.h **** #endif // __arm__
  51:../../DaisySP/Source/Utility/dsp.h ****     return r;
  52:../../DaisySP/Source/Utility/dsp.h **** }
  53:../../DaisySP/Source/Utility/dsp.h **** 
  54:../../DaisySP/Source/Utility/dsp.h **** /** quick fp clamp
  55:../../DaisySP/Source/Utility/dsp.h **** */
  56:../../DaisySP/Source/Utility/dsp.h **** inline float fclamp(float in, float min, float max)
  57:../../DaisySP/Source/Utility/dsp.h **** {
  58:../../DaisySP/Source/Utility/dsp.h ****     return fmin(fmax(in, min), max);
  59:../../DaisySP/Source/Utility/dsp.h **** }
  60:../../DaisySP/Source/Utility/dsp.h **** 
  61:../../DaisySP/Source/Utility/dsp.h **** /** From Musicdsp.org "Fast power and root estimates for 32bit floats)
  62:../../DaisySP/Source/Utility/dsp.h **** Original code by Stefan Stenzel
  63:../../DaisySP/Source/Utility/dsp.h **** These are approximations
  64:../../DaisySP/Source/Utility/dsp.h **** */
  65:../../DaisySP/Source/Utility/dsp.h **** inline float fastpower(float f, int n)
  66:../../DaisySP/Source/Utility/dsp.h **** {
  67:../../DaisySP/Source/Utility/dsp.h ****     long *lp, l;
  68:../../DaisySP/Source/Utility/dsp.h ****     lp = (long *)(&f);
  69:../../DaisySP/Source/Utility/dsp.h ****     l  = *lp;
  70:../../DaisySP/Source/Utility/dsp.h ****     l -= 0x3F800000;
  71:../../DaisySP/Source/Utility/dsp.h ****     l <<= (n - 1);
  72:../../DaisySP/Source/Utility/dsp.h ****     l += 0x3F800000;
  73:../../DaisySP/Source/Utility/dsp.h ****     *lp = l;
  74:../../DaisySP/Source/Utility/dsp.h ****     return f;
  75:../../DaisySP/Source/Utility/dsp.h **** }
  76:../../DaisySP/Source/Utility/dsp.h **** 
  77:../../DaisySP/Source/Utility/dsp.h **** inline float fastroot(float f, int n)
  78:../../DaisySP/Source/Utility/dsp.h **** {
  79:../../DaisySP/Source/Utility/dsp.h ****     long *lp, l;
  80:../../DaisySP/Source/Utility/dsp.h ****     lp = (long *)(&f);
  81:../../DaisySP/Source/Utility/dsp.h ****     l  = *lp;
  82:../../DaisySP/Source/Utility/dsp.h ****     l -= 0x3F800000;
  83:../../DaisySP/Source/Utility/dsp.h ****     l >>= (n = 1);
  84:../../DaisySP/Source/Utility/dsp.h ****     l += 0x3F800000;
  85:../../DaisySP/Source/Utility/dsp.h ****     *lp = l;
  86:../../DaisySP/Source/Utility/dsp.h ****     return f;
  87:../../DaisySP/Source/Utility/dsp.h **** }
  88:../../DaisySP/Source/Utility/dsp.h **** 
  89:../../DaisySP/Source/Utility/dsp.h **** /** From http://openaudio.blogspot.com/2017/02/faster-log10-and-pow.html
  90:../../DaisySP/Source/Utility/dsp.h **** No approximation, pow10f(x) gives a 90% speed increase over powf(10.f, x)
  91:../../DaisySP/Source/Utility/dsp.h **** */
  92:../../DaisySP/Source/Utility/dsp.h **** inline float pow10f(float f)
  93:../../DaisySP/Source/Utility/dsp.h **** {
  94:../../DaisySP/Source/Utility/dsp.h ****     return expf(2.302585092994046f * f);
  95:../../DaisySP/Source/Utility/dsp.h **** }
  96:../../DaisySP/Source/Utility/dsp.h **** 
ARM GAS  /tmp/ccm862Rg.s 			page 18


  97:../../DaisySP/Source/Utility/dsp.h **** /* Original code for fastlog2f by Dr. Paul Beckmann from the ARM community forum, adapted from the 
  98:../../DaisySP/Source/Utility/dsp.h **** About 25% performance increase over std::log10f
  99:../../DaisySP/Source/Utility/dsp.h **** */
 100:../../DaisySP/Source/Utility/dsp.h **** inline float fastlog2f(float f)
 101:../../DaisySP/Source/Utility/dsp.h **** {
 102:../../DaisySP/Source/Utility/dsp.h ****     float frac;
 103:../../DaisySP/Source/Utility/dsp.h ****     int   exp;
 104:../../DaisySP/Source/Utility/dsp.h ****     frac = frexpf(fabsf(f), &exp);
 105:../../DaisySP/Source/Utility/dsp.h ****     f    = 1.23149591368684f;
 106:../../DaisySP/Source/Utility/dsp.h ****     f *= frac;
 107:../../DaisySP/Source/Utility/dsp.h ****     f += -4.11852516267426f;
 108:../../DaisySP/Source/Utility/dsp.h ****     f *= frac;
 109:../../DaisySP/Source/Utility/dsp.h ****     f += 6.02197014179219f;
 110:../../DaisySP/Source/Utility/dsp.h ****     f *= frac;
 111:../../DaisySP/Source/Utility/dsp.h ****     f += -3.13396450166353f;
 112:../../DaisySP/Source/Utility/dsp.h ****     f += exp;
 113:../../DaisySP/Source/Utility/dsp.h ****     return (f);
 114:../../DaisySP/Source/Utility/dsp.h **** }
 115:../../DaisySP/Source/Utility/dsp.h **** 
 116:../../DaisySP/Source/Utility/dsp.h **** inline float fastlog10f(float f)
 117:../../DaisySP/Source/Utility/dsp.h **** {
 118:../../DaisySP/Source/Utility/dsp.h ****     return fastlog2f(f) * 0.3010299956639812f;
 119:../../DaisySP/Source/Utility/dsp.h **** }
 120:../../DaisySP/Source/Utility/dsp.h **** 
 121:../../DaisySP/Source/Utility/dsp.h **** /** Midi to frequency helper
 122:../../DaisySP/Source/Utility/dsp.h **** */
 123:../../DaisySP/Source/Utility/dsp.h **** inline float mtof(float m)
 124:../../DaisySP/Source/Utility/dsp.h **** {
 125:../../DaisySP/Source/Utility/dsp.h ****     return powf(2, (m - 69.0f) / 12.0f) * 440.0f;
 285              		.loc 13 125 16 view .LVU48
 286 0038 B0EE000A 		vmov.f32	s0, #2.0e+0
 287              	.LBE285:
 288              	.LBE284:
  30:chorus.cpp    ****         bass_note = !bass_note;
 289              		.loc 12 30 19 view .LVU49
 290 003c 3170     		strb	r1, [r6]
  31:chorus.cpp    ****         osc.SetFreq(mtof(bass_note ? 31.f : 24.f));
 291              		.loc 12 31 9 is_stmt 1 view .LVU50
  31:chorus.cpp    ****         osc.SetFreq(mtof(bass_note ? 31.f : 24.f));
 292              		.loc 12 31 21 is_stmt 0 view .LVU51
 293 003e 83F00103 		eor	r3, r3, #1
 294              		.loc 12 32 20 view .LVU52
 295 0042 002B     		cmp	r3, #0
  31:chorus.cpp    ****         osc.SetFreq(mtof(bass_note ? 31.f : 24.f));
 296              		.loc 12 31 19 view .LVU53
 297 0044 1370     		strb	r3, [r2]
 298              		.loc 12 32 9 is_stmt 1 view .LVU54
 299              	.LBB287:
 300              	.LBI284:
 123:../../DaisySP/Source/Utility/dsp.h **** {
 301              		.loc 13 123 14 view .LVU55
 302              	.LBB286:
 303              		.loc 13 125 5 view .LVU56
 304              		.loc 13 125 16 is_stmt 0 view .LVU57
 305 0046 47FEA00A 		vseleq.f32	s1, s15, s1
 306 004a FFF7FEFF 		bl	powf
 307              	.LVL7:
ARM GAS  /tmp/ccm862Rg.s 			page 19


 308              		.loc 13 125 43 view .LVU58
 309 004e DFEDAB7A 		vldr.32	s15, .L29+16
 310              	.LBE286:
 311              	.LBE287:
 312              		.loc 12 32 20 view .LVU59
 313 0052 AB48     		ldr	r0, .L29+20
 314 0054 20EE270A 		vmul.f32	s0, s0, s15
 315 0058 FFF7FEFF 		bl	_ZN7daisysp21VariableSawOscillator7SetFreqEf
 316              	.LVL8:
  33:chorus.cpp    ****     }
  34:chorus.cpp    **** 
  35:chorus.cpp    ****     float sig = (hat.Process(t && pos & (h_patt)) * .5f);
 317              		.loc 12 35 5 is_stmt 1 view .LVU60
 318 005c 3278     		ldrb	r2, [r6]	@ zero_extendqisi2
 319              	.L14:
 320              		.loc 12 35 39 is_stmt 0 discriminator 1 view .LVU61
 321 005e A94B     		ldr	r3, .L29+24
 322 0060 1B78     		ldrb	r3, [r3]	@ zero_extendqisi2
 323              		.loc 12 35 29 discriminator 1 view .LVU62
 324 0062 1A42     		tst	r2, r3
 325 0064 00F0FD80 		beq	.L15
 326              	.LVL9:
 327              	.LBB288:
 328              	.LBI288:
 114:../../DaisySP/Source/Drums/hihat.h **** 
 115:../../DaisySP/Source/Drums/hihat.h ****     /** Initialize the module
 116:../../DaisySP/Source/Drums/hihat.h ****         \param sample_rate Audio engine sample rate
 117:../../DaisySP/Source/Drums/hihat.h ****     */
 118:../../DaisySP/Source/Drums/hihat.h ****     void Init(float sample_rate)
 119:../../DaisySP/Source/Drums/hihat.h ****     {
 120:../../DaisySP/Source/Drums/hihat.h ****         sample_rate_ = sample_rate;
 121:../../DaisySP/Source/Drums/hihat.h **** 
 122:../../DaisySP/Source/Drums/hihat.h ****         trig_ = false;
 123:../../DaisySP/Source/Drums/hihat.h **** 
 124:../../DaisySP/Source/Drums/hihat.h ****         envelope_     = 0.0f;
 125:../../DaisySP/Source/Drums/hihat.h ****         noise_clock_  = 0.0f;
 126:../../DaisySP/Source/Drums/hihat.h ****         noise_sample_ = 0.0f;
 127:../../DaisySP/Source/Drums/hihat.h ****         sustain_gain_ = 0.0f;
 128:../../DaisySP/Source/Drums/hihat.h **** 
 129:../../DaisySP/Source/Drums/hihat.h ****         SetFreq(3000.f);
 130:../../DaisySP/Source/Drums/hihat.h ****         SetTone(.5f);
 131:../../DaisySP/Source/Drums/hihat.h ****         SetDecay(.2f);
 132:../../DaisySP/Source/Drums/hihat.h ****         SetNoisiness(.8f);
 133:../../DaisySP/Source/Drums/hihat.h ****         SetAccent(.8f);
 134:../../DaisySP/Source/Drums/hihat.h ****         SetSustain(false);
 135:../../DaisySP/Source/Drums/hihat.h **** 
 136:../../DaisySP/Source/Drums/hihat.h ****         metallic_noise_.Init(sample_rate_);
 137:../../DaisySP/Source/Drums/hihat.h ****         noise_coloration_svf_.Init(sample_rate_);
 138:../../DaisySP/Source/Drums/hihat.h ****         hpf_.Init(sample_rate_);
 139:../../DaisySP/Source/Drums/hihat.h ****     }
 140:../../DaisySP/Source/Drums/hihat.h **** 
 141:../../DaisySP/Source/Drums/hihat.h ****     /** Get the next sample
 142:../../DaisySP/Source/Drums/hihat.h ****         \param trigger Hit the hihat with true. Defaults to false.
 143:../../DaisySP/Source/Drums/hihat.h ****     */
 144:../../DaisySP/Source/Drums/hihat.h ****     float Process(bool trigger = false)
 329              		.loc 11 144 11 is_stmt 1 view .LVU63
 330              	.LBB289:
ARM GAS  /tmp/ccm862Rg.s 			page 20


 331              	.LBB290:
 332              	.LBI290:
 145:../../DaisySP/Source/Drums/hihat.h ****     {
 146:../../DaisySP/Source/Drums/hihat.h ****         const float envelope_decay
 147:../../DaisySP/Source/Drums/hihat.h ****             = 1.0f - 0.003f * SemitonesToRatio(-decay_ * 84.0f);
 148:../../DaisySP/Source/Drums/hihat.h ****         const float cut_decay
 149:../../DaisySP/Source/Drums/hihat.h ****             = 1.0f - 0.0025f * SemitonesToRatio(-decay_ * 36.0f);
 150:../../DaisySP/Source/Drums/hihat.h **** 
 151:../../DaisySP/Source/Drums/hihat.h ****         if(trigger || trig_)
 152:../../DaisySP/Source/Drums/hihat.h ****         {
 153:../../DaisySP/Source/Drums/hihat.h ****             trig_ = false;
 154:../../DaisySP/Source/Drums/hihat.h **** 
 155:../../DaisySP/Source/Drums/hihat.h ****             envelope_
 156:../../DaisySP/Source/Drums/hihat.h ****                 = (1.5f + 0.5f * (1.0f - decay_)) * (0.3f + 0.7f * accent_);
 157:../../DaisySP/Source/Drums/hihat.h ****         }
 158:../../DaisySP/Source/Drums/hihat.h **** 
 159:../../DaisySP/Source/Drums/hihat.h ****         // Process the metallic noise.
 160:../../DaisySP/Source/Drums/hihat.h ****         float out = metallic_noise_.Process(2.0f * f0_);
 161:../../DaisySP/Source/Drums/hihat.h **** 
 162:../../DaisySP/Source/Drums/hihat.h ****         // Apply BPF on the metallic noise.
 163:../../DaisySP/Source/Drums/hihat.h ****         float cutoff = 150.0f / sample_rate_ * SemitonesToRatio(tone_ * 72.0f);
 164:../../DaisySP/Source/Drums/hihat.h **** 
 165:../../DaisySP/Source/Drums/hihat.h ****         cutoff = fclamp(cutoff, 0.0f, 16000.0f / sample_rate_);
 166:../../DaisySP/Source/Drums/hihat.h **** 
 167:../../DaisySP/Source/Drums/hihat.h **** 
 168:../../DaisySP/Source/Drums/hihat.h ****         noise_coloration_svf_.SetFreq(cutoff * sample_rate_);
 169:../../DaisySP/Source/Drums/hihat.h ****         noise_coloration_svf_.SetRes(resonance ? 3.0f + 6.0f * tone_ : 1.0f);
 170:../../DaisySP/Source/Drums/hihat.h **** 
 171:../../DaisySP/Source/Drums/hihat.h ****         noise_coloration_svf_.Process(out);
 172:../../DaisySP/Source/Drums/hihat.h ****         out = noise_coloration_svf_.Band();
 173:../../DaisySP/Source/Drums/hihat.h **** 
 174:../../DaisySP/Source/Drums/hihat.h ****         // This is not at all part of the 808 circuit! But to add more variety, we
 175:../../DaisySP/Source/Drums/hihat.h ****         // add a variable amount of clocked noise to the output of the 6 schmitt
 176:../../DaisySP/Source/Drums/hihat.h ****         // trigger oscillators.
 177:../../DaisySP/Source/Drums/hihat.h ****         float noise_f = f0_ * (16.0f + 16.0f * (1.0f - noisiness_));
 178:../../DaisySP/Source/Drums/hihat.h ****         noise_f       = fclamp(noise_f, 0.0f, 0.5f);
 179:../../DaisySP/Source/Drums/hihat.h **** 
 180:../../DaisySP/Source/Drums/hihat.h ****         noise_clock_ += noise_f;
 181:../../DaisySP/Source/Drums/hihat.h ****         if(noise_clock_ >= 1.0f)
 182:../../DaisySP/Source/Drums/hihat.h ****         {
 183:../../DaisySP/Source/Drums/hihat.h ****             noise_clock_ -= 1.0f;
 184:../../DaisySP/Source/Drums/hihat.h ****             noise_sample_ = rand() * kRandFrac - 0.5f;
 185:../../DaisySP/Source/Drums/hihat.h ****         }
 186:../../DaisySP/Source/Drums/hihat.h ****         out += noisiness_ * (noise_sample_ - out);
 187:../../DaisySP/Source/Drums/hihat.h **** 
 188:../../DaisySP/Source/Drums/hihat.h ****         // Apply VCA.
 189:../../DaisySP/Source/Drums/hihat.h ****         sustain_gain_ = accent_ * decay_;
 190:../../DaisySP/Source/Drums/hihat.h ****         VCA vca;
 191:../../DaisySP/Source/Drums/hihat.h ****         envelope_ *= envelope_ > 0.5f ? envelope_decay : cut_decay;
 192:../../DaisySP/Source/Drums/hihat.h ****         out = vca(out, sustain_ ? sustain_gain_ : envelope_);
 193:../../DaisySP/Source/Drums/hihat.h **** 
 194:../../DaisySP/Source/Drums/hihat.h ****         hpf_.SetFreq(cutoff * sample_rate_);
 195:../../DaisySP/Source/Drums/hihat.h ****         hpf_.SetRes(.5f);
 196:../../DaisySP/Source/Drums/hihat.h ****         hpf_.Process(out);
 197:../../DaisySP/Source/Drums/hihat.h ****         out = hpf_.High();
 198:../../DaisySP/Source/Drums/hihat.h **** 
 199:../../DaisySP/Source/Drums/hihat.h ****         return out;
ARM GAS  /tmp/ccm862Rg.s 			page 21


 200:../../DaisySP/Source/Drums/hihat.h ****     }
 201:../../DaisySP/Source/Drums/hihat.h **** 
 202:../../DaisySP/Source/Drums/hihat.h ****     /** Trigger the hihat */
 203:../../DaisySP/Source/Drums/hihat.h ****     void Trig() { trig_ = true; }
 204:../../DaisySP/Source/Drums/hihat.h **** 
 205:../../DaisySP/Source/Drums/hihat.h ****     /** Make the hihat ring out infinitely.
 206:../../DaisySP/Source/Drums/hihat.h ****         \param sustain True = infinite sustain.
 207:../../DaisySP/Source/Drums/hihat.h ****     */
 208:../../DaisySP/Source/Drums/hihat.h ****     void SetSustain(bool sustain) { sustain_ = sustain; }
 209:../../DaisySP/Source/Drums/hihat.h **** 
 210:../../DaisySP/Source/Drums/hihat.h ****     /** Set how much accent to use
 211:../../DaisySP/Source/Drums/hihat.h ****         \param accent Works 0-1.
 212:../../DaisySP/Source/Drums/hihat.h ****     */
 213:../../DaisySP/Source/Drums/hihat.h ****     void SetAccent(float accent) { accent_ = fclamp(accent, 0.f, 1.f); }
 214:../../DaisySP/Source/Drums/hihat.h **** 
 215:../../DaisySP/Source/Drums/hihat.h ****     /** Set the hihat tone's root frequency
 216:../../DaisySP/Source/Drums/hihat.h ****         \param f0 Freq in Hz
 217:../../DaisySP/Source/Drums/hihat.h ****     */
 218:../../DaisySP/Source/Drums/hihat.h ****     void SetFreq(float f0)
 219:../../DaisySP/Source/Drums/hihat.h ****     {
 220:../../DaisySP/Source/Drums/hihat.h ****         f0 /= sample_rate_;
 221:../../DaisySP/Source/Drums/hihat.h ****         f0_ = fclamp(f0, 0.f, 1.f);
 222:../../DaisySP/Source/Drums/hihat.h ****     }
 223:../../DaisySP/Source/Drums/hihat.h **** 
 224:../../DaisySP/Source/Drums/hihat.h ****     /** Set the overall brightness / darkness of the hihat.
 225:../../DaisySP/Source/Drums/hihat.h ****         \param tone Works from 0-1.
 226:../../DaisySP/Source/Drums/hihat.h ****     */
 227:../../DaisySP/Source/Drums/hihat.h ****     void SetTone(float tone) { tone_ = fclamp(tone, 0.f, 1.f); }
 228:../../DaisySP/Source/Drums/hihat.h **** 
 229:../../DaisySP/Source/Drums/hihat.h ****     /** Set the length of the hihat decay
 230:../../DaisySP/Source/Drums/hihat.h ****         \param decay Works > 0. Tuned for 0-1.
 231:../../DaisySP/Source/Drums/hihat.h ****     */
 232:../../DaisySP/Source/Drums/hihat.h ****     void SetDecay(float decay)
 233:../../DaisySP/Source/Drums/hihat.h ****     {
 234:../../DaisySP/Source/Drums/hihat.h ****         decay_ = fmax(decay, 0.f);
 235:../../DaisySP/Source/Drums/hihat.h ****         decay_ *= 1.7;
 236:../../DaisySP/Source/Drums/hihat.h ****         decay_ -= 1.2;
 237:../../DaisySP/Source/Drums/hihat.h ****     }
 238:../../DaisySP/Source/Drums/hihat.h **** 
 239:../../DaisySP/Source/Drums/hihat.h ****     /** Sets the mix between tone and noise
 240:../../DaisySP/Source/Drums/hihat.h ****         \param snappy 1 = just noise. 0 = just tone.
 241:../../DaisySP/Source/Drums/hihat.h ****     */
 242:../../DaisySP/Source/Drums/hihat.h ****     void SetNoisiness(float noisiness)
 243:../../DaisySP/Source/Drums/hihat.h ****     {
 244:../../DaisySP/Source/Drums/hihat.h ****         noisiness_ = fclamp(noisiness, 0.f, 1.f);
 245:../../DaisySP/Source/Drums/hihat.h ****         noisiness_ *= noisiness_;
 246:../../DaisySP/Source/Drums/hihat.h ****     }
 247:../../DaisySP/Source/Drums/hihat.h **** 
 248:../../DaisySP/Source/Drums/hihat.h **** 
 249:../../DaisySP/Source/Drums/hihat.h ****   private:
 250:../../DaisySP/Source/Drums/hihat.h ****     float sample_rate_;
 251:../../DaisySP/Source/Drums/hihat.h **** 
 252:../../DaisySP/Source/Drums/hihat.h ****     float accent_, f0_, tone_, decay_, noisiness_;
 253:../../DaisySP/Source/Drums/hihat.h ****     bool  sustain_;
 254:../../DaisySP/Source/Drums/hihat.h ****     bool  trig_;
 255:../../DaisySP/Source/Drums/hihat.h **** 
 256:../../DaisySP/Source/Drums/hihat.h ****     float SemitonesToRatio(float in) { return powf(2.f, in * kOneTwelfth); }
ARM GAS  /tmp/ccm862Rg.s 			page 22


 333              		.loc 11 256 11 view .LVU64
 334              		.loc 11 256 11 is_stmt 0 view .LVU65
 335              	.LBE290:
 147:../../DaisySP/Source/Drums/hihat.h ****         const float cut_decay
 336              		.loc 11 147 49 view .LVU66
 337 0068 A74C     		ldr	r4, .L29+28
 338              	.LBB299:
 339              	.LBB291:
 340              		.loc 11 256 51 view .LVU67
 341 006a B0EE000A 		vmov.f32	s0, #2.0e+0
 342              	.LBE291:
 343              	.LBE299:
 147:../../DaisySP/Source/Drums/hihat.h ****         const float cut_decay
 344              		.loc 11 147 29 view .LVU68
 345 006e DFEDA77A 		vldr.32	s15, .L29+32
 146:../../DaisySP/Source/Drums/hihat.h ****             = 1.0f - 0.003f * SemitonesToRatio(-decay_ * 84.0f);
 346              		.loc 11 146 21 view .LVU69
 347 0072 F7EE009A 		vmov.f32	s19, #1.0e+0
 147:../../DaisySP/Source/Drums/hihat.h ****         const float cut_decay
 348              		.loc 11 147 29 view .LVU70
 349 0076 D4ED040A 		vldr.32	s1, [r4, #16]
 350              	.LBB300:
 351              	.LBB292:
 352              		.loc 11 256 51 view .LVU71
 353 007a 9FEDA58A 		vldr.32	s16, .L29+36
 354              	.LBE292:
 355              	.LBE300:
 147:../../DaisySP/Source/Drums/hihat.h ****         const float cut_decay
 356              		.loc 11 147 29 view .LVU72
 357 007e 60EEE70A 		vnmul.f32	s1, s1, s15
 146:../../DaisySP/Source/Drums/hihat.h ****             = 1.0f - 0.003f * SemitonesToRatio(-decay_ * 84.0f);
 358              		.loc 11 146 21 view .LVU73
 359 0082 B0EE69AA 		vmov.f32	s20, s19
 360              	.LBB301:
 361              	.LBB293:
 362              		.loc 11 256 51 view .LVU74
 363 0086 60EE880A 		vmul.f32	s1, s1, s16
 364 008a FFF7FEFF 		bl	powf
 365              	.LVL10:
 366              		.loc 11 256 51 view .LVU75
 367              	.LBE293:
 368              	.LBE301:
 149:../../DaisySP/Source/Drums/hihat.h **** 
 369              		.loc 11 149 30 view .LVU76
 370 008e D4ED040A 		vldr.32	s1, [r4, #16]
 371 0092 DFEDA06A 		vldr.32	s13, .L29+40
 372              	.LBB302:
 373              	.LBB294:
 374              		.loc 11 256 51 view .LVU77
 375 0096 B0EE407A 		vmov.f32	s14, s0
 376              	.LBE294:
 377              	.LBE302:
 146:../../DaisySP/Source/Drums/hihat.h ****             = 1.0f - 0.003f * SemitonesToRatio(-decay_ * 84.0f);
 378              		.loc 11 146 21 view .LVU78
 379 009a DFED9F7A 		vldr.32	s15, .L29+44
 380              	.LBB303:
 381              	.LBB304:
ARM GAS  /tmp/ccm862Rg.s 			page 23


 382              		.loc 11 256 51 view .LVU79
 383 009e B0EE000A 		vmov.f32	s0, #2.0e+0
 384              	.LBE304:
 385              	.LBE303:
 149:../../DaisySP/Source/Drums/hihat.h **** 
 386              		.loc 11 149 30 view .LVU80
 387 00a2 60EEE60A 		vnmul.f32	s1, s1, s13
 146:../../DaisySP/Source/Drums/hihat.h ****             = 1.0f - 0.003f * SemitonesToRatio(-decay_ * 84.0f);
 388              		.loc 11 146 21 view .LVU81
 389 00a6 A7EE67AA 		vfms.f32	s20, s14, s15
 390              	.LVL11:
 391              	.LBB308:
 392              	.LBI303:
 393              		.loc 11 256 11 is_stmt 1 view .LVU82
 394              	.LBB305:
 395              		.loc 11 256 51 is_stmt 0 view .LVU83
 396 00aa 60EE880A 		vmul.f32	s1, s1, s16
 397 00ae FFF7FEFF 		bl	powf
 398              	.LVL12:
 399              		.loc 11 256 51 view .LVU84
 400              	.LBE305:
 401              	.LBE308:
 148:../../DaisySP/Source/Drums/hihat.h ****             = 1.0f - 0.0025f * SemitonesToRatio(-decay_ * 36.0f);
 402              		.loc 11 148 21 view .LVU85
 403 00b2 DFED9A7A 		vldr.32	s15, .L29+48
 404 00b6 E0EE679A 		vfms.f32	s19, s0, s15
 405              	.LVL13:
 406              	.L11:
 156:../../DaisySP/Source/Drums/hihat.h ****         }
 407              		.loc 11 156 40 view .LVU86
 408 00ba F7EE006A 		vmov.f32	s13, #1.0e+0
 409 00be 94ED047A 		vldr.32	s14, [r4, #16]
 156:../../DaisySP/Source/Drums/hihat.h ****         }
 410              		.loc 11 156 25 view .LVU87
 411 00c2 B6EE006A 		vmov.f32	s12, #5.0e-1
 156:../../DaisySP/Source/Drums/hihat.h ****         }
 412              		.loc 11 156 59 view .LVU88
 413 00c6 94ED015A 		vldr.32	s10, [r4, #4]
 156:../../DaisySP/Source/Drums/hihat.h ****         }
 414              		.loc 11 156 25 view .LVU89
 415 00ca F7EE087A 		vmov.f32	s15, #1.5e+0
 156:../../DaisySP/Source/Drums/hihat.h ****         }
 416              		.loc 11 156 59 view .LVU90
 417 00ce DFED945A 		vldr.32	s11, .L29+52
 156:../../DaisySP/Source/Drums/hihat.h ****         }
 418              		.loc 11 156 40 view .LVU91
 419 00d2 76EEC76A 		vsub.f32	s13, s13, s14
 156:../../DaisySP/Source/Drums/hihat.h ****         }
 420              		.loc 11 156 59 view .LVU92
 421 00d6 9FED937A 		vldr.32	s14, .L29+56
 153:../../DaisySP/Source/Drums/hihat.h **** 
 422              		.loc 11 153 13 view .LVU93
 423 00da 0023     		movs	r3, #0
 156:../../DaisySP/Source/Drums/hihat.h ****         }
 424              		.loc 11 156 59 view .LVU94
 425 00dc A5EE257A 		vfma.f32	s14, s10, s11
 156:../../DaisySP/Source/Drums/hihat.h ****         }
ARM GAS  /tmp/ccm862Rg.s 			page 24


 426              		.loc 11 156 25 view .LVU95
 427 00e0 E6EE867A 		vfma.f32	s15, s13, s12
 153:../../DaisySP/Source/Drums/hihat.h **** 
 428              		.loc 11 153 13 view .LVU96
 429 00e4 6376     		strb	r3, [r4, #25]
 156:../../DaisySP/Source/Drums/hihat.h ****         }
 430              		.loc 11 156 51 view .LVU97
 431 00e6 67EE877A 		vmul.f32	s15, s15, s14
 155:../../DaisySP/Source/Drums/hihat.h ****                 = (1.5f + 0.5f * (1.0f - decay_)) * (0.3f + 0.7f * accent_);
 432              		.loc 11 155 13 view .LVU98
 433 00ea C4ED077A 		vstr.32	s15, [r4, #28]
 434              	.L12:
 160:../../DaisySP/Source/Drums/hihat.h **** 
 435              		.loc 11 160 15 view .LVU99
 436 00ee 94ED020A 		vldr.32	s0, [r4, #8]
 437 00f2 8D48     		ldr	r0, .L29+60
 438 00f4 30EE000A 		vadd.f32	s0, s0, s0
 439              	.LBB309:
 440              	.LBB310:
 441              	.LBB311:
  36:../../DaisySP/Source/Utility/dsp.h **** #else
 442              		.loc 13 36 80 view .LVU100
 443 00f8 DFED8CAA 		vldr.32	s21, .L29+64
 444              	.LBE311:
 445              	.LBE310:
 446              	.LBE309:
 160:../../DaisySP/Source/Drums/hihat.h **** 
 447              		.loc 11 160 15 view .LVU101
 448 00fc FFF7FEFF 		bl	_ZN7daisysp11SquareNoise7ProcessEf
 449              	.LVL14:
 163:../../DaisySP/Source/Drums/hihat.h **** 
 450              		.loc 11 163 31 view .LVU102
 451 0100 DFED8B6A 		vldr.32	s13, .L29+68
 452 0104 94ED007A 		vldr.32	s14, [r4]
 160:../../DaisySP/Source/Drums/hihat.h **** 
 453              		.loc 11 160 15 view .LVU103
 454 0108 B0EE409A 		vmov.f32	s18, s0
 455              	.LVL15:
 163:../../DaisySP/Source/Drums/hihat.h **** 
 456              		.loc 11 163 46 view .LVU104
 457 010c D4ED037A 		vldr.32	s15, [r4, #12]
 458              	.LBB318:
 459              	.LBB319:
 460              		.loc 11 256 51 view .LVU105
 461 0110 B0EE000A 		vmov.f32	s0, #2.0e+0
 462              	.LVL16:
 463              		.loc 11 256 51 view .LVU106
 464              	.LBE319:
 465              	.LBE318:
 163:../../DaisySP/Source/Drums/hihat.h **** 
 466              		.loc 11 163 31 view .LVU107
 467 0114 C6EE878A 		vdiv.f32	s17, s13, s14
 468              	.LVL17:
 469              	.LBB322:
 470              	.LBI318:
 471              		.loc 11 256 11 is_stmt 1 view .LVU108
 472              		.loc 11 256 11 is_stmt 0 view .LVU109
ARM GAS  /tmp/ccm862Rg.s 			page 25


 473              	.LBE322:
 163:../../DaisySP/Source/Drums/hihat.h **** 
 474              		.loc 11 163 46 view .LVU110
 475 0118 9FED867A 		vldr.32	s14, .L29+72
 476              	.LBB323:
 477              	.LBB320:
 478              		.loc 11 256 51 view .LVU111
 479 011c DFED7C0A 		vldr.32	s1, .L29+36
 480              	.LBE320:
 481              	.LBE323:
 163:../../DaisySP/Source/Drums/hihat.h **** 
 482              		.loc 11 163 46 view .LVU112
 483 0120 67EE877A 		vmul.f32	s15, s15, s14
 484              	.LVL18:
 485              	.LBB324:
 486              	.LBB321:
 487              		.loc 11 256 51 view .LVU113
 488 0124 67EEA00A 		vmul.f32	s1, s15, s1
 489 0128 FFF7FEFF 		bl	powf
 490              	.LVL19:
 491              		.loc 11 256 51 view .LVU114
 492              	.LBE321:
 493              	.LBE324:
 165:../../DaisySP/Source/Drums/hihat.h **** 
 494              		.loc 11 165 24 view .LVU115
 495 012c DFED826A 		vldr.32	s13, .L29+76
 165:../../DaisySP/Source/Drums/hihat.h **** 
 496              		.loc 11 165 50 view .LVU116
 497 0130 D4ED007A 		vldr.32	s15, [r4]
 498              	.LVL20:
 499              	.LBB325:
 500              	.LBI309:
  56:../../DaisySP/Source/Utility/dsp.h **** {
 501              		.loc 13 56 14 is_stmt 1 view .LVU117
 502              	.LBE325:
 503              	.LBE289:
 504              	.LBE288:
  58:../../DaisySP/Source/Utility/dsp.h **** }
 505              		.loc 13 58 5 view .LVU118
 506              	.LBB354:
 507              	.LBB349:
 508              	.LBB326:
 509              	.LBB314:
 510              	.LBI310:
  32:../../DaisySP/Source/Utility/dsp.h **** {
 511              		.loc 13 32 14 view .LVU119
 512              	.LBB312:
  34:../../DaisySP/Source/Utility/dsp.h **** #ifdef __arm__
 513              		.loc 13 34 5 view .LVU120
  36:../../DaisySP/Source/Utility/dsp.h **** #else
 514              		.loc 13 36 5 view .LVU121
 515              	.LBE312:
 516              	.LBE314:
 517              	.LBE326:
 168:../../DaisySP/Source/Drums/hihat.h ****         noise_coloration_svf_.SetRes(resonance ? 3.0f + 6.0f * tone_ : 1.0f);
 518              		.loc 11 168 38 is_stmt 0 view .LVU122
 519 0134 8148     		ldr	r0, .L29+80
ARM GAS  /tmp/ccm862Rg.s 			page 26


 165:../../DaisySP/Source/Drums/hihat.h **** 
 520              		.loc 11 165 24 view .LVU123
 521 0136 86EEA77A 		vdiv.f32	s14, s13, s15
 522              	.LVL21:
 163:../../DaisySP/Source/Drums/hihat.h **** 
 523              		.loc 11 163 15 view .LVU124
 524 013a 68EE808A 		vmul.f32	s17, s17, s0
 525              	.LVL22:
 526              	.LBB327:
 527              	.LBB315:
 528              	.LBB313:
  36:../../DaisySP/Source/Utility/dsp.h **** #else
 529              		.loc 13 36 80 view .LVU125
 530              		.syntax unified
 531              	@ 36 "../../DaisySP/Source/Utility/dsp.h" 1
 532 013e C8FEAA8A 		vmaxnm.f32 s17, s17, s21
 533              	@ 0 "" 2
 534              	.LVL23:
  40:../../DaisySP/Source/Utility/dsp.h **** }
 535              		.loc 13 40 5 is_stmt 1 view .LVU126
  40:../../DaisySP/Source/Utility/dsp.h **** }
 536              		.loc 13 40 5 is_stmt 0 view .LVU127
 537              		.thumb
 538              		.syntax unified
 539              	.LBE313:
 540              	.LBE315:
 541              	.LBB316:
 542              	.LBI316:
  43:../../DaisySP/Source/Utility/dsp.h **** {
 543              		.loc 13 43 14 is_stmt 1 view .LVU128
 544              	.LBB317:
  45:../../DaisySP/Source/Utility/dsp.h **** #ifdef __arm__
 545              		.loc 13 45 5 view .LVU129
  47:../../DaisySP/Source/Utility/dsp.h **** #else
 546              		.loc 13 47 5 view .LVU130
  47:../../DaisySP/Source/Utility/dsp.h **** #else
 547              		.loc 13 47 80 is_stmt 0 view .LVU131
 548              		.syntax unified
 549              	@ 47 "../../DaisySP/Source/Utility/dsp.h" 1
 550 0142 C8FEC78A 		vminnm.f32 s17, s17, s14
 551              	@ 0 "" 2
 552              	.LVL24:
  51:../../DaisySP/Source/Utility/dsp.h **** }
 553              		.loc 13 51 5 is_stmt 1 view .LVU132
  51:../../DaisySP/Source/Utility/dsp.h **** }
 554              		.loc 13 51 5 is_stmt 0 view .LVU133
 555              		.thumb
 556              		.syntax unified
 557              	.LBE317:
 558              	.LBE316:
 559              	.LBE327:
 168:../../DaisySP/Source/Drums/hihat.h ****         noise_coloration_svf_.SetRes(resonance ? 3.0f + 6.0f * tone_ : 1.0f);
 560              		.loc 11 168 38 view .LVU134
 561 0146 27EEA80A 		vmul.f32	s0, s15, s17
 562 014a FFF7FEFF 		bl	_ZN7daisysp3Svf7SetFreqEf
 563              	.LVL25:
 169:../../DaisySP/Source/Drums/hihat.h **** 
ARM GAS  /tmp/ccm862Rg.s 			page 27


 564              		.loc 11 169 37 view .LVU135
 565 014e F1EE087A 		vmov.f32	s15, #6.0e+0
 566 0152 B0EE080A 		vmov.f32	s0, #3.0e+0
 567 0156 94ED037A 		vldr.32	s14, [r4, #12]
 568 015a 7848     		ldr	r0, .L29+80
 569 015c A7EE270A 		vfma.f32	s0, s14, s15
 570 0160 FFF7FEFF 		bl	_ZN7daisysp3Svf6SetResEf
 571              	.LVL26:
 171:../../DaisySP/Source/Drums/hihat.h ****         out = noise_coloration_svf_.Band();
 572              		.loc 11 171 38 view .LVU136
 573 0164 B0EE490A 		vmov.f32	s0, s18
 574 0168 7448     		ldr	r0, .L29+80
 575 016a FFF7FEFF 		bl	_ZN7daisysp3Svf7ProcessEf
 576              	.LVL27:
 177:../../DaisySP/Source/Drums/hihat.h ****         noise_f       = fclamp(noise_f, 0.0f, 0.5f);
 577              		.loc 11 177 54 view .LVU137
 578 016e F7EE006A 		vmov.f32	s13, #1.0e+0
 177:../../DaisySP/Source/Drums/hihat.h ****         noise_f       = fclamp(noise_f, 0.0f, 0.5f);
 579              		.loc 11 177 56 view .LVU138
 580 0172 94ED056A 		vldr.32	s12, [r4, #20]
 177:../../DaisySP/Source/Drums/hihat.h ****         noise_f       = fclamp(noise_f, 0.0f, 0.5f);
 581              		.loc 11 177 38 view .LVU139
 582 0176 F3EE007A 		vmov.f32	s15, #1.6e+1
 180:../../DaisySP/Source/Drums/hihat.h ****         if(noise_clock_ >= 1.0f)
 583              		.loc 11 180 22 view .LVU140
 584 017a D4ED085A 		vldr.32	s11, [r4, #32]
 585              	.LBB328:
 586              	.LBB329:
 587              	.LBB330:
  47:../../DaisySP/Source/Utility/dsp.h **** #else
 588              		.loc 13 47 80 view .LVU141
 589 017e B6EE005A 		vmov.f32	s10, #5.0e-1
 590              	.LBE330:
 591              	.LBE329:
 592              	.LBE328:
 177:../../DaisySP/Source/Drums/hihat.h ****         noise_f       = fclamp(noise_f, 0.0f, 0.5f);
 593              		.loc 11 177 54 view .LVU142
 594 0182 76EEC64A 		vsub.f32	s9, s13, s12
 177:../../DaisySP/Source/Drums/hihat.h ****         noise_f       = fclamp(noise_f, 0.0f, 0.5f);
 595              		.loc 11 177 25 view .LVU143
 596 0186 94ED027A 		vldr.32	s14, [r4, #8]
 172:../../DaisySP/Source/Drums/hihat.h **** 
 597              		.loc 11 172 41 view .LVU144
 598 018a 94ED1F9A 		vldr.32	s18, [r4, #124]
 599              	.LVL28:
 172:../../DaisySP/Source/Drums/hihat.h **** 
 600              		.loc 11 172 41 view .LVU145
 601              	.LBE349:
 602              	.LBE354:
  23:../../DaisySP/Source/Filters/svf.h ****     /** Initializes the filter
  24:../../DaisySP/Source/Filters/svf.h ****         float sample_rate - sample rate of the audio engine being run, and the frequency that the P
  25:../../DaisySP/Source/Filters/svf.h ****     */
  26:../../DaisySP/Source/Filters/svf.h ****     void Init(float sample_rate);
  27:../../DaisySP/Source/Filters/svf.h **** 
  28:../../DaisySP/Source/Filters/svf.h **** 
  29:../../DaisySP/Source/Filters/svf.h ****     /** 
  30:../../DaisySP/Source/Filters/svf.h ****         Process the input signal, updating all of the outputs.
ARM GAS  /tmp/ccm862Rg.s 			page 28


  31:../../DaisySP/Source/Filters/svf.h ****     */
  32:../../DaisySP/Source/Filters/svf.h ****     void Process(float in);
  33:../../DaisySP/Source/Filters/svf.h **** 
  34:../../DaisySP/Source/Filters/svf.h **** 
  35:../../DaisySP/Source/Filters/svf.h ****     /** sets the frequency of the cutoff frequency. 
  36:../../DaisySP/Source/Filters/svf.h ****         f must be between 0.0 and sample_rate / 3
  37:../../DaisySP/Source/Filters/svf.h ****     */
  38:../../DaisySP/Source/Filters/svf.h ****     void SetFreq(float f);
  39:../../DaisySP/Source/Filters/svf.h **** 
  40:../../DaisySP/Source/Filters/svf.h ****     /** sets the resonance of the filter.
  41:../../DaisySP/Source/Filters/svf.h ****         Must be between 0.0 and 1.0 to ensure stability.
  42:../../DaisySP/Source/Filters/svf.h ****     */
  43:../../DaisySP/Source/Filters/svf.h ****     void SetRes(float r);
  44:../../DaisySP/Source/Filters/svf.h **** 
  45:../../DaisySP/Source/Filters/svf.h ****     /** sets the drive of the filter 
  46:../../DaisySP/Source/Filters/svf.h ****         affects the response of the resonance of the filter
  47:../../DaisySP/Source/Filters/svf.h ****     */
  48:../../DaisySP/Source/Filters/svf.h ****     void SetDrive(float d);
  49:../../DaisySP/Source/Filters/svf.h ****     /** lowpass output
  50:../../DaisySP/Source/Filters/svf.h ****         \return low pass output of the filter
  51:../../DaisySP/Source/Filters/svf.h ****     */
  52:../../DaisySP/Source/Filters/svf.h ****     inline float Low() { return out_low_; }
  53:../../DaisySP/Source/Filters/svf.h ****     /** highpass output
  54:../../DaisySP/Source/Filters/svf.h ****         \return high pass output of the filter
  55:../../DaisySP/Source/Filters/svf.h ****     */
  56:../../DaisySP/Source/Filters/svf.h ****     inline float High() { return out_high_; }
  57:../../DaisySP/Source/Filters/svf.h ****     /** bandpass output
  58:../../DaisySP/Source/Filters/svf.h ****         \return band pass output of the filter
  59:../../DaisySP/Source/Filters/svf.h ****     */
  60:../../DaisySP/Source/Filters/svf.h ****     inline float Band() { return out_band_; }
 603              		.loc 7 60 27 is_stmt 1 view .LVU146
 604              	.LBB355:
 605              	.LBB350:
 177:../../DaisySP/Source/Drums/hihat.h ****         noise_f       = fclamp(noise_f, 0.0f, 0.5f);
 606              		.loc 11 177 38 is_stmt 0 view .LVU147
 607 018e E4EEA77A 		vfma.f32	s15, s9, s15
 608              	.LVL29:
 609              	.LBB337:
 610              	.LBI328:
  56:../../DaisySP/Source/Utility/dsp.h **** {
 611              		.loc 13 56 14 is_stmt 1 view .LVU148
 612              	.LBE337:
 613              	.LBE350:
 614              	.LBE355:
  58:../../DaisySP/Source/Utility/dsp.h **** }
 615              		.loc 13 58 5 view .LVU149
 616              	.LBB356:
 617              	.LBB351:
 618              	.LBB338:
 619              	.LBB332:
 620              	.LBI332:
  32:../../DaisySP/Source/Utility/dsp.h **** {
 621              		.loc 13 32 14 view .LVU150
 622              	.LBB333:
  34:../../DaisySP/Source/Utility/dsp.h **** #ifdef __arm__
 623              		.loc 13 34 5 view .LVU151
  36:../../DaisySP/Source/Utility/dsp.h **** #else
ARM GAS  /tmp/ccm862Rg.s 			page 29


 624              		.loc 13 36 5 view .LVU152
 625              	.LBE333:
 626              	.LBE332:
 627              	.LBE338:
 177:../../DaisySP/Source/Drums/hihat.h ****         noise_f       = fclamp(noise_f, 0.0f, 0.5f);
 628              		.loc 11 177 15 is_stmt 0 view .LVU153
 629 0192 67EE277A 		vmul.f32	s15, s14, s15
 630              	.LVL30:
 631              	.LBB339:
 632              	.LBB335:
 633              	.LBB334:
  36:../../DaisySP/Source/Utility/dsp.h **** #else
 634              		.loc 13 36 80 view .LVU154
 635              		.syntax unified
 636              	@ 36 "../../DaisySP/Source/Utility/dsp.h" 1
 637 0196 C7FEAA7A 		vmaxnm.f32 s15, s15, s21
 638              	@ 0 "" 2
 639              	.LVL31:
  40:../../DaisySP/Source/Utility/dsp.h **** }
 640              		.loc 13 40 5 is_stmt 1 view .LVU155
  40:../../DaisySP/Source/Utility/dsp.h **** }
 641              		.loc 13 40 5 is_stmt 0 view .LVU156
 642              		.thumb
 643              		.syntax unified
 644              	.LBE334:
 645              	.LBE335:
 646              	.LBB336:
 647              	.LBI329:
  43:../../DaisySP/Source/Utility/dsp.h **** {
 648              		.loc 13 43 14 is_stmt 1 view .LVU157
 649              	.LBB331:
  45:../../DaisySP/Source/Utility/dsp.h **** #ifdef __arm__
 650              		.loc 13 45 5 view .LVU158
  47:../../DaisySP/Source/Utility/dsp.h **** #else
 651              		.loc 13 47 5 view .LVU159
  47:../../DaisySP/Source/Utility/dsp.h **** #else
 652              		.loc 13 47 80 is_stmt 0 view .LVU160
 653              		.syntax unified
 654              	@ 47 "../../DaisySP/Source/Utility/dsp.h" 1
 655 019a C7FEC57A 		vminnm.f32 s15, s15, s10
 656              	@ 0 "" 2
 657              	.LVL32:
  51:../../DaisySP/Source/Utility/dsp.h **** }
 658              		.loc 13 51 5 is_stmt 1 view .LVU161
  51:../../DaisySP/Source/Utility/dsp.h **** }
 659              		.loc 13 51 5 is_stmt 0 view .LVU162
 660              		.thumb
 661              		.syntax unified
 662              	.LBE331:
 663              	.LBE336:
 664              	.LBE339:
 180:../../DaisySP/Source/Drums/hihat.h ****         if(noise_clock_ >= 1.0f)
 665              		.loc 11 180 22 view .LVU163
 666 019e 77EEA57A 		vadd.f32	s15, s15, s11
 667              	.LVL33:
 181:../../DaisySP/Source/Drums/hihat.h ****         {
 668              		.loc 11 181 9 view .LVU164
ARM GAS  /tmp/ccm862Rg.s 			page 30


 669 01a2 F4EEE67A 		vcmpe.f32	s15, s13
 180:../../DaisySP/Source/Drums/hihat.h ****         if(noise_clock_ >= 1.0f)
 670              		.loc 11 180 9 view .LVU165
 671 01a6 C4ED087A 		vstr.32	s15, [r4, #32]
 181:../../DaisySP/Source/Drums/hihat.h ****         {
 672              		.loc 11 181 9 view .LVU166
 673 01aa F1EE10FA 		vmrs	APSR_nzcv, FPSCR
 674 01ae 80F28880 		bge	.L17
 675 01b2 D4ED097A 		vldr.32	s15, [r4, #36]
 676              	.L18:
 191:../../DaisySP/Source/Drums/hihat.h ****         out = vca(out, sustain_ ? sustain_gain_ : envelope_);
 677              		.loc 11 191 19 view .LVU167
 678 01b6 F6EE00AA 		vmov.f32	s21, #5.0e-1
 679 01ba 94ED077A 		vldr.32	s14, [r4, #28]
 186:../../DaisySP/Source/Drums/hihat.h **** 
 680              		.loc 11 186 44 view .LVU168
 681 01be 77EEC96A 		vsub.f32	s13, s15, s18
 189:../../DaisySP/Source/Drums/hihat.h ****         VCA vca;
 682              		.loc 11 189 33 view .LVU169
 683 01c2 D4ED045A 		vldr.32	s11, [r4, #16]
 684 01c6 D4ED017A 		vldr.32	s15, [r4, #4]
 191:../../DaisySP/Source/Drums/hihat.h ****         out = vca(out, sustain_ ? sustain_gain_ : envelope_);
 685              		.loc 11 191 19 view .LVU170
 686 01ca B4EEEA7A 		vcmpe.f32	s14, s21
 192:../../DaisySP/Source/Drums/hihat.h **** 
 687              		.loc 11 192 18 view .LVU171
 688 01ce 237E     		ldrb	r3, [r4, #24]	@ zero_extendqisi2
 186:../../DaisySP/Source/Drums/hihat.h **** 
 689              		.loc 11 186 9 view .LVU172
 690 01d0 A6EE869A 		vfma.f32	s18, s13, s12
 691              	.LVL34:
 194:../../DaisySP/Source/Drums/hihat.h ****         hpf_.SetRes(.5f);
 692              		.loc 11 194 21 view .LVU173
 693 01d4 94ED000A 		vldr.32	s0, [r4]
 189:../../DaisySP/Source/Drums/hihat.h ****         VCA vca;
 694              		.loc 11 189 33 view .LVU174
 695 01d8 67EEA57A 		vmul.f32	s15, s15, s11
 194:../../DaisySP/Source/Drums/hihat.h ****         hpf_.SetRes(.5f);
 696              		.loc 11 194 21 view .LVU175
 697 01dc 5848     		ldr	r0, .L29+84
 191:../../DaisySP/Source/Drums/hihat.h ****         out = vca(out, sustain_ ? sustain_gain_ : envelope_);
 698              		.loc 11 191 19 view .LVU176
 699 01de F1EE10FA 		vmrs	APSR_nzcv, FPSCR
 194:../../DaisySP/Source/Drums/hihat.h ****         hpf_.SetRes(.5f);
 700              		.loc 11 194 21 view .LVU177
 701 01e2 28EE800A 		vmul.f32	s0, s17, s0
 189:../../DaisySP/Source/Drums/hihat.h ****         VCA vca;
 702              		.loc 11 189 9 view .LVU178
 703 01e6 C4ED0A7A 		vstr.32	s15, [r4, #40]
 191:../../DaisySP/Source/Drums/hihat.h ****         out = vca(out, sustain_ ? sustain_gain_ : envelope_);
 704              		.loc 11 191 19 view .LVU179
 705 01ea 3AFE29AA 		vselgt.f32	s20, s20, s19
 706              	.LVL35:
 191:../../DaisySP/Source/Drums/hihat.h ****         out = vca(out, sustain_ ? sustain_gain_ : envelope_);
 707              		.loc 11 191 19 view .LVU180
 708 01ee 27EE0A7A 		vmul.f32	s14, s14, s20
 192:../../DaisySP/Source/Drums/hihat.h **** 
ARM GAS  /tmp/ccm862Rg.s 			page 31


 709              		.loc 11 192 18 view .LVU181
 710 01f2 002B     		cmp	r3, #0
 711 01f4 47FE277A 		vseleq.f32	s15, s14, s15
 712              	.LVL36:
 713              	.LBB340:
 714              	.LBI340:
  93:../../DaisySP/Source/Drums/hihat.h **** };
 715              		.loc 11 93 11 is_stmt 1 view .LVU182
 716              	.LBB341:
  93:../../DaisySP/Source/Drums/hihat.h **** };
 717              		.loc 11 93 45 view .LVU183
  93:../../DaisySP/Source/Drums/hihat.h **** };
 718              		.loc 11 93 56 is_stmt 0 view .LVU184
 719 01f8 29EE279A 		vmul.f32	s18, s18, s15
 720              	.LVL37:
  93:../../DaisySP/Source/Drums/hihat.h **** };
 721              		.loc 11 93 56 view .LVU185
 722              	.LBE341:
 723              	.LBE340:
 191:../../DaisySP/Source/Drums/hihat.h ****         out = vca(out, sustain_ ? sustain_gain_ : envelope_);
 724              		.loc 11 191 9 view .LVU186
 725 01fc 84ED077A 		vstr.32	s14, [r4, #28]
 194:../../DaisySP/Source/Drums/hihat.h ****         hpf_.SetRes(.5f);
 726              		.loc 11 194 21 view .LVU187
 727 0200 FFF7FEFF 		bl	_ZN7daisysp3Svf7SetFreqEf
 728              	.LVL38:
 195:../../DaisySP/Source/Drums/hihat.h ****         hpf_.Process(out);
 729              		.loc 11 195 20 view .LVU188
 730 0204 B0EE6A0A 		vmov.f32	s0, s21
 731 0208 4D48     		ldr	r0, .L29+84
 732 020a FFF7FEFF 		bl	_ZN7daisysp3Svf6SetResEf
 733              	.LVL39:
 196:../../DaisySP/Source/Drums/hihat.h ****         out = hpf_.High();
 734              		.loc 11 196 21 view .LVU189
 735 020e B0EE490A 		vmov.f32	s0, s18
 736 0212 4B48     		ldr	r0, .L29+84
 737 0214 FFF7FEFF 		bl	_ZN7daisysp3Svf7ProcessEf
 738              	.LVL40:
 196:../../DaisySP/Source/Drums/hihat.h ****         out = hpf_.High();
 739              		.loc 11 196 21 view .LVU190
 740              	.LBE351:
 741              	.LBE356:
  56:../../DaisySP/Source/Filters/svf.h ****     /** bandpass output
 742              		.loc 7 56 27 is_stmt 1 view .LVU191
 743              		.loc 12 35 56 is_stmt 0 view .LVU192
 744 0218 94ED318A 		vldr.32	s16, [r4, #196]
 745 021c 28EE2A8A 		vmul.f32	s16, s16, s21
 746              	.LVL41:
  36:chorus.cpp    ****     sig += (kick.Process(t && pos & (k_patt)) * 12.4f);
 747              		.loc 12 36 5 is_stmt 1 view .LVU193
 748              		.loc 12 36 25 is_stmt 0 view .LVU194
 749 0220 002D     		cmp	r5, #0
 750 0222 4CD0     		beq	.L23
 751              		.loc 12 36 35 discriminator 1 view .LVU195
 752 0224 474B     		ldr	r3, .L29+88
 753 0226 3278     		ldrb	r2, [r6]	@ zero_extendqisi2
 754 0228 1B78     		ldrb	r3, [r3]	@ zero_extendqisi2
ARM GAS  /tmp/ccm862Rg.s 			page 32


 755              		.loc 12 36 25 discriminator 1 view .LVU196
 756 022a 1A42     		tst	r2, r3
 757 022c 14BF     		ite	ne
 758 022e 0121     		movne	r1, #1
 759 0230 0021     		moveq	r1, #0
 760              	.L21:
 761              		.loc 12 36 25 discriminator 6 view .LVU197
 762 0232 4548     		ldr	r0, .L29+92
 763 0234 FFF7FEFF 		bl	_ZN7daisysp14AnalogBassDrum7ProcessEb
 764              	.LVL42:
 765              		.loc 12 36 9 discriminator 6 view .LVU198
 766 0238 DFED447A 		vldr.32	s15, .L29+96
  37:chorus.cpp    ****     sig += (osc.Process() * 0.05f);
 767              		.loc 12 37 24 discriminator 6 view .LVU199
 768 023c 3048     		ldr	r0, .L29+20
  36:chorus.cpp    ****     sig += (kick.Process(t && pos & (k_patt)) * 12.4f);
 769              		.loc 12 36 9 discriminator 6 view .LVU200
 770 023e A0EE278A 		vfma.f32	s16, s0, s15
 771              	.LVL43:
 772              		.loc 12 37 5 is_stmt 1 discriminator 6 view .LVU201
 773              		.loc 12 37 24 is_stmt 0 discriminator 6 view .LVU202
 774 0242 FFF7FEFF 		bl	_ZN7daisysp21VariableSawOscillator7ProcessEv
 775              	.LVL44:
 776              		.loc 12 37 9 discriminator 6 view .LVU203
 777 0246 9FED427A 		vldr.32	s14, .L29+100
  38:chorus.cpp    **** 
  39:chorus.cpp    ****     return sig * 8.f;
 778              		.loc 12 39 18 discriminator 6 view .LVU204
 779 024a F2EE007A 		vmov.f32	s15, #8.0e+0
  37:chorus.cpp    ****     sig += (osc.Process() * 0.05f);
 780              		.loc 12 37 9 discriminator 6 view .LVU205
 781 024e A0EE078A 		vfma.f32	s16, s0, s14
 782              	.LVL45:
 783              		.loc 12 39 5 is_stmt 1 discriminator 6 view .LVU206
 784              		.loc 12 39 18 is_stmt 0 discriminator 6 view .LVU207
 785 0252 28EE270A 		vmul.f32	s0, s16, s15
  40:chorus.cpp    **** }
 786              		.loc 12 40 1 discriminator 6 view .LVU208
 787 0256 BDEC068B 		vldm	sp!, {d8-d10}
 788              		.cfi_remember_state
 789              		.cfi_restore 84
 790              		.cfi_restore 85
 791              		.cfi_restore 82
 792              		.cfi_restore 83
 793              		.cfi_restore 80
 794              		.cfi_restore 81
 795              		.cfi_def_cfa_offset 16
 796              	.LVL46:
 797              		.loc 12 40 1 discriminator 6 view .LVU209
 798 025a 70BD     		pop	{r4, r5, r6, pc}
 799              	.LVL47:
 800              	.L9:
 801              		.cfi_restore_state
  35:chorus.cpp    ****     sig += (kick.Process(t && pos & (k_patt)) * 12.4f);
 802              		.loc 12 35 5 is_stmt 1 view .LVU210
  35:chorus.cpp    ****     sig += (kick.Process(t && pos & (k_patt)) * 12.4f);
 803              		.loc 12 35 29 is_stmt 0 view .LVU211
ARM GAS  /tmp/ccm862Rg.s 			page 33


 804 025c 0028     		cmp	r0, #0
 805 025e 7FF4FEAE 		bne	.L14
 806              	.LVL48:
 807              	.L15:
 808              	.LBB357:
 144:../../DaisySP/Source/Drums/hihat.h ****     {
 809              		.loc 11 144 11 is_stmt 1 view .LVU212
 810              	.LBB352:
 811              	.LBB342:
 812              		.loc 11 256 11 view .LVU213
 813              		.loc 11 256 11 is_stmt 0 view .LVU214
 814              	.LBE342:
 147:../../DaisySP/Source/Drums/hihat.h ****         const float cut_decay
 815              		.loc 11 147 49 view .LVU215
 816 0262 294C     		ldr	r4, .L29+28
 817              	.LBB343:
 818              	.LBB295:
 819              		.loc 11 256 51 view .LVU216
 820 0264 B0EE000A 		vmov.f32	s0, #2.0e+0
 821              	.LBE295:
 822              	.LBE343:
 147:../../DaisySP/Source/Drums/hihat.h ****         const float cut_decay
 823              		.loc 11 147 29 view .LVU217
 824 0268 DFED287A 		vldr.32	s15, .L29+32
 146:../../DaisySP/Source/Drums/hihat.h ****             = 1.0f - 0.003f * SemitonesToRatio(-decay_ * 84.0f);
 825              		.loc 11 146 21 view .LVU218
 826 026c F7EE009A 		vmov.f32	s19, #1.0e+0
 147:../../DaisySP/Source/Drums/hihat.h ****         const float cut_decay
 827              		.loc 11 147 29 view .LVU219
 828 0270 D4ED040A 		vldr.32	s1, [r4, #16]
 829              	.LBB344:
 830              	.LBB296:
 831              		.loc 11 256 51 view .LVU220
 832 0274 9FED268A 		vldr.32	s16, .L29+36
 833              	.LBE296:
 834              	.LBE344:
 147:../../DaisySP/Source/Drums/hihat.h ****         const float cut_decay
 835              		.loc 11 147 29 view .LVU221
 836 0278 60EEE70A 		vnmul.f32	s1, s1, s15
 146:../../DaisySP/Source/Drums/hihat.h ****             = 1.0f - 0.003f * SemitonesToRatio(-decay_ * 84.0f);
 837              		.loc 11 146 21 view .LVU222
 838 027c B0EE69AA 		vmov.f32	s20, s19
 839              	.LBB345:
 840              	.LBB297:
 841              		.loc 11 256 51 view .LVU223
 842 0280 60EE880A 		vmul.f32	s1, s1, s16
 843 0284 FFF7FEFF 		bl	powf
 844              	.LVL49:
 845              		.loc 11 256 51 view .LVU224
 846              	.LBE297:
 847              	.LBE345:
 149:../../DaisySP/Source/Drums/hihat.h **** 
 848              		.loc 11 149 30 view .LVU225
 849 0288 D4ED040A 		vldr.32	s1, [r4, #16]
 850 028c DFED216A 		vldr.32	s13, .L29+40
 851              	.LBB346:
 852              	.LBB298:
ARM GAS  /tmp/ccm862Rg.s 			page 34


 853              		.loc 11 256 51 view .LVU226
 854 0290 B0EE407A 		vmov.f32	s14, s0
 855              	.LBE298:
 856              	.LBE346:
 146:../../DaisySP/Source/Drums/hihat.h ****             = 1.0f - 0.003f * SemitonesToRatio(-decay_ * 84.0f);
 857              		.loc 11 146 21 view .LVU227
 858 0294 DFED207A 		vldr.32	s15, .L29+44
 859              	.LBB347:
 860              	.LBB306:
 861              		.loc 11 256 51 view .LVU228
 862 0298 B0EE000A 		vmov.f32	s0, #2.0e+0
 863              	.LBE306:
 864              	.LBE347:
 149:../../DaisySP/Source/Drums/hihat.h **** 
 865              		.loc 11 149 30 view .LVU229
 866 029c 60EEE60A 		vnmul.f32	s1, s1, s13
 146:../../DaisySP/Source/Drums/hihat.h ****             = 1.0f - 0.003f * SemitonesToRatio(-decay_ * 84.0f);
 867              		.loc 11 146 21 view .LVU230
 868 02a0 A7EE67AA 		vfms.f32	s20, s14, s15
 869              	.LVL50:
 870              	.LBB348:
 871              		.loc 11 256 11 is_stmt 1 view .LVU231
 872              	.LBB307:
 873              		.loc 11 256 51 is_stmt 0 view .LVU232
 874 02a4 60EE880A 		vmul.f32	s1, s1, s16
 875 02a8 FFF7FEFF 		bl	powf
 876              	.LVL51:
 877              		.loc 11 256 51 view .LVU233
 878              	.LBE307:
 879              	.LBE348:
 148:../../DaisySP/Source/Drums/hihat.h ****             = 1.0f - 0.0025f * SemitonesToRatio(-decay_ * 36.0f);
 880              		.loc 11 148 21 view .LVU234
 881 02ac DFED1B7A 		vldr.32	s15, .L29+48
 151:../../DaisySP/Source/Drums/hihat.h ****         {
 882              		.loc 11 151 20 view .LVU235
 883 02b0 637E     		ldrb	r3, [r4, #25]	@ zero_extendqisi2
 148:../../DaisySP/Source/Drums/hihat.h ****             = 1.0f - 0.0025f * SemitonesToRatio(-decay_ * 36.0f);
 884              		.loc 11 148 21 view .LVU236
 885 02b2 E0EE679A 		vfms.f32	s19, s0, s15
 886              	.LVL52:
 151:../../DaisySP/Source/Drums/hihat.h ****         {
 887              		.loc 11 151 20 view .LVU237
 888 02b6 002B     		cmp	r3, #0
 889 02b8 7FF4FFAE 		bne	.L11
 890 02bc 17E7     		b	.L12
 891              	.LVL53:
 892              	.L23:
 151:../../DaisySP/Source/Drums/hihat.h ****         {
 893              		.loc 11 151 20 view .LVU238
 894              	.LBE352:
 895              	.LBE357:
  36:chorus.cpp    ****     sig += (osc.Process() * 0.05f);
 896              		.loc 12 36 25 view .LVU239
 897 02be 2946     		mov	r1, r5
 898 02c0 B7E7     		b	.L21
 899              	.LVL54:
 900              	.L17:
ARM GAS  /tmp/ccm862Rg.s 			page 35


 901              	.LBB358:
 902              	.LBB353:
 183:../../DaisySP/Source/Drums/hihat.h ****             noise_sample_ = rand() * kRandFrac - 0.5f;
 903              		.loc 11 183 26 view .LVU240
 904 02c2 77EEE67A 		vsub.f32	s15, s15, s13
 183:../../DaisySP/Source/Drums/hihat.h ****             noise_sample_ = rand() * kRandFrac - 0.5f;
 905              		.loc 11 183 13 view .LVU241
 906 02c6 C4ED087A 		vstr.32	s15, [r4, #32]
 184:../../DaisySP/Source/Drums/hihat.h ****         }
 907              		.loc 11 184 33 view .LVU242
 908 02ca FFF7FEFF 		bl	rand
 909              	.LVL55:
 184:../../DaisySP/Source/Drums/hihat.h ****         }
 910              		.loc 11 184 36 view .LVU243
 911 02ce 07EE100A 		vmov	s14, r0	@ int
 184:../../DaisySP/Source/Drums/hihat.h ****         }
 912              		.loc 11 184 48 view .LVU244
 913 02d2 FEEE007A 		vmov.f32	s15, #-5.0e-1
 914 02d6 DFED1F6A 		vldr.32	s13, .L29+104
 184:../../DaisySP/Source/Drums/hihat.h ****         }
 915              		.loc 11 184 36 view .LVU245
 916 02da B8EEC77A 		vcvt.f32.s32	s14, s14
 917 02de 94ED056A 		vldr.32	s12, [r4, #20]
 184:../../DaisySP/Source/Drums/hihat.h ****         }
 918              		.loc 11 184 48 view .LVU246
 919 02e2 E7EE267A 		vfma.f32	s15, s14, s13
 184:../../DaisySP/Source/Drums/hihat.h ****         }
 920              		.loc 11 184 13 view .LVU247
 921 02e6 C4ED097A 		vstr.32	s15, [r4, #36]
 922 02ea 64E7     		b	.L18
 923              	.L30:
 924              		.align	2
 925              	.L29:
 926 02ec 00000000 		.word	.LANCHOR0
 927 02f0 00000000 		.word	.LANCHOR1
 928 02f4 00000000 		.word	.LANCHOR3
 929 02f8 ABAA4AC0 		.word	3226118827
 930 02fc 0000DC43 		.word	1138491392
 931 0300 00000000 		.word	.LANCHOR4
 932 0304 00000000 		.word	.LANCHOR5
 933 0308 00000000 		.word	.LANCHOR2
 934 030c 0000A842 		.word	1118306304
 935 0310 ABAAAA3D 		.word	1034594987
 936 0314 00001042 		.word	1108344832
 937 0318 A69B443B 		.word	994352038
 938 031c 0AD7233B 		.word	992204554
 939 0320 3333333F 		.word	1060320051
 940 0324 9A99993E 		.word	1050253722
 941 0328 2C000000 		.word	.LANCHOR2+44
 942 032c 00000000 		.word	0
 943 0330 00001643 		.word	1125515264
 944 0334 00009042 		.word	1116733440
 945 0338 00007A46 		.word	1182400512
 946 033c 44000000 		.word	.LANCHOR2+68
 947 0340 90000000 		.word	.LANCHOR2+144
 948 0344 00000000 		.word	.LANCHOR6
 949 0348 00000000 		.word	.LANCHOR7
ARM GAS  /tmp/ccm862Rg.s 			page 36


 950 034c 66664641 		.word	1095132774
 951 0350 CDCC4C3D 		.word	1028443341
 952 0354 00000030 		.word	805306368
 953              	.LBE353:
 954              	.LBE358:
 955              		.cfi_endproc
 956              	.LFE4212:
 958              		.section	.text._Z13AudioCallbackPKPKfPPfj,"ax",%progbits
 959              		.align	1
 960              		.p2align 2,,3
 961              		.global	_Z13AudioCallbackPKPKfPPfj
 962              		.syntax unified
 963              		.thumb
 964              		.thumb_func
 965              		.fpu fpv5-d16
 967              	_Z13AudioCallbackPKPKfPPfj:
 968              	.LVL56:
 969              	.LFB4213:
  41:chorus.cpp    **** 
  42:chorus.cpp    **** void AudioCallback(AudioHandle::InputBuffer  in,
  43:chorus.cpp    ****                    AudioHandle::OutputBuffer out,
  44:chorus.cpp    ****                    size_t                    size)
  45:chorus.cpp    **** {
 970              		.loc 12 45 1 is_stmt 1 view -0
 971              		.cfi_startproc
 972              		@ args = 0, pretend = 0, frame = 0
 973              		@ frame_needed = 0, uses_anonymous_args = 0
  46:chorus.cpp    ****     for(size_t i = 0; i < size; i++)
 974              		.loc 12 46 5 view .LVU249
 975              	.LBB359:
 976              		.loc 12 46 25 view .LVU250
 977 0000 FAB1     		cbz	r2, .L39
 978              	.LBE359:
  45:chorus.cpp    ****     for(size_t i = 0; i < size; i++)
 979              		.loc 12 45 1 is_stmt 0 view .LVU251
 980 0002 2DE9F843 		push	{r3, r4, r5, r6, r7, r8, r9, lr}
 981              		.cfi_def_cfa_offset 32
 982              		.cfi_offset 3, -32
 983              		.cfi_offset 4, -28
 984              		.cfi_offset 5, -24
 985              		.cfi_offset 6, -20
 986              		.cfi_offset 7, -16
 987              		.cfi_offset 8, -12
 988              		.cfi_offset 9, -8
 989              		.cfi_offset 14, -4
 990 0006 0F46     		mov	r7, r1
 991 0008 9146     		mov	r9, r2
 992              	.LBB360:
 993              		.loc 12 46 16 view .LVU252
 994 000a 0024     		movs	r4, #0
 995              	.LVL57:
 996              	.L33:
  47:chorus.cpp    ****     {
  48:chorus.cpp    ****         chorus.Process(ProcessDrums());
 997              		.loc 12 48 9 is_stmt 1 discriminator 2 view .LVU253
 998              		.loc 12 48 23 is_stmt 0 discriminator 2 view .LVU254
 999 000c FFF7FEFF 		bl	_Z12ProcessDrumsv
ARM GAS  /tmp/ccm862Rg.s 			page 37


 1000              	.LVL58:
 1001 0010 0C48     		ldr	r0, .L42
 1002 0012 FFF7FEFF 		bl	_ZN7daisysp6Chorus7ProcessEf
 1003              	.LVL59:
  49:chorus.cpp    ****         out[0][i] = chorus.GetLeft();
 1004              		.loc 12 49 9 is_stmt 1 discriminator 2 view .LVU255
 1005              		.loc 12 49 17 is_stmt 0 discriminator 2 view .LVU256
 1006 0016 3B68     		ldr	r3, [r7]
 1007              		.loc 12 49 35 discriminator 2 view .LVU257
 1008 0018 0A48     		ldr	r0, .L42
 1009 001a 4FEA8408 		lsl	r8, r4, #2
 1010              		.loc 12 49 17 discriminator 2 view .LVU258
 1011 001e 03EB8406 		add	r6, r3, r4, lsl #2
  46:chorus.cpp    ****     {
 1012              		.loc 12 46 5 discriminator 2 view .LVU259
 1013 0022 0134     		adds	r4, r4, #1
 1014              	.LVL60:
 1015              		.loc 12 49 35 discriminator 2 view .LVU260
 1016 0024 FFF7FEFF 		bl	_ZN7daisysp6Chorus7GetLeftEv
 1017              	.LVL61:
  50:chorus.cpp    ****         out[1][i] = chorus.GetRight();
 1018              		.loc 12 50 17 discriminator 2 view .LVU261
 1019 0028 7D68     		ldr	r5, [r7, #4]
 1020              		.loc 12 50 36 discriminator 2 view .LVU262
 1021 002a 0648     		ldr	r0, .L42
  49:chorus.cpp    ****         out[0][i] = chorus.GetLeft();
 1022              		.loc 12 49 19 discriminator 2 view .LVU263
 1023 002c 86ED000A 		vstr.32	s0, [r6]
 1024              		.loc 12 50 9 is_stmt 1 discriminator 2 view .LVU264
 1025              		.loc 12 50 17 is_stmt 0 discriminator 2 view .LVU265
 1026 0030 4544     		add	r5, r5, r8
 1027              		.loc 12 50 36 discriminator 2 view .LVU266
 1028 0032 FFF7FEFF 		bl	_ZN7daisysp6Chorus8GetRightEv
 1029              	.LVL62:
  46:chorus.cpp    ****     {
 1030              		.loc 12 46 25 discriminator 2 view .LVU267
 1031 0036 A145     		cmp	r9, r4
 1032              		.loc 12 50 19 discriminator 2 view .LVU268
 1033 0038 85ED000A 		vstr.32	s0, [r5]
  46:chorus.cpp    ****     {
 1034              		.loc 12 46 5 is_stmt 1 discriminator 2 view .LVU269
 1035              	.LVL63:
  46:chorus.cpp    ****     {
 1036              		.loc 12 46 25 discriminator 2 view .LVU270
 1037 003c E6D1     		bne	.L33
 1038              	.LBE360:
  51:chorus.cpp    ****     }
  52:chorus.cpp    **** }
 1039              		.loc 12 52 1 is_stmt 0 view .LVU271
 1040 003e BDE8F883 		pop	{r3, r4, r5, r6, r7, r8, r9, pc}
 1041              	.LVL64:
 1042              	.L39:
 1043              		.cfi_def_cfa_offset 0
 1044              		.cfi_restore 3
 1045              		.cfi_restore 4
 1046              		.cfi_restore 5
 1047              		.cfi_restore 6
ARM GAS  /tmp/ccm862Rg.s 			page 38


 1048              		.cfi_restore 7
 1049              		.cfi_restore 8
 1050              		.cfi_restore 9
 1051              		.cfi_restore 14
 1052              		.loc 12 52 1 view .LVU272
 1053 0042 7047     		bx	lr
 1054              	.L43:
 1055              		.align	2
 1056              	.L42:
 1057 0044 00000000 		.word	chorus
 1058              		.cfi_endproc
 1059              	.LFE4213:
 1061              		.section	.text.startup.main,"ax",%progbits
 1062              		.align	1
 1063              		.p2align 2,,3
 1064              		.global	main
 1065              		.syntax unified
 1066              		.thumb
 1067              		.thumb_func
 1068              		.fpu fpv5-d16
 1070              	main:
 1071              	.LFB4214:
  53:chorus.cpp    **** 
  54:chorus.cpp    **** int main(void)
  55:chorus.cpp    **** {
 1072              		.loc 12 55 1 is_stmt 1 view -0
 1073              		.cfi_startproc
 1074              		@ args = 0, pretend = 0, frame = 0
 1075              		@ frame_needed = 0, uses_anonymous_args = 0
  56:chorus.cpp    ****     hw.Configure();
 1076              		.loc 12 56 5 view .LVU274
  55:chorus.cpp    ****     hw.Configure();
 1077              		.loc 12 55 1 is_stmt 0 view .LVU275
 1078 0000 70B5     		push	{r4, r5, r6, lr}
 1079              		.cfi_def_cfa_offset 16
 1080              		.cfi_offset 4, -16
 1081              		.cfi_offset 5, -12
 1082              		.cfi_offset 6, -8
 1083              		.cfi_offset 14, -4
 1084              	.LBB403:
 1085              	.LBB404:
 1086              	.LBB405:
 1087              	.LBB406:
 208:../../DaisySP/Source/Drums/hihat.h **** 
 1088              		.loc 11 208 37 view .LVU276
 1089 0002 0026     		movs	r6, #0
 1090              	.LBE406:
 1091              	.LBE405:
 1092              	.LBE404:
 1093              	.LBE403:
 1094              		.loc 12 56 17 view .LVU277
 1095 0004 6A48     		ldr	r0, .L49+16
 1096              	.LBB526:
 1097              	.LBB519:
 120:../../DaisySP/Source/Drums/hihat.h **** 
 1098              		.loc 11 120 9 view .LVU278
 1099 0006 6B4C     		ldr	r4, .L49+20
ARM GAS  /tmp/ccm862Rg.s 			page 39


 1100              	.LBE519:
 1101              	.LBE526:
  57:chorus.cpp    ****     hw.Init();
  58:chorus.cpp    ****     float sample_rate = hw.AudioSampleRate();
  59:chorus.cpp    **** 
  60:chorus.cpp    ****     chorus.Init(sample_rate);
  61:chorus.cpp    ****     chorus.SetLfoFreq(.33f, .2f);
  62:chorus.cpp    ****     chorus.SetLfoDepth(1.f, 1.f);
  63:chorus.cpp    ****     chorus.SetDelay(.75f, .9f);
  64:chorus.cpp    **** 
  65:chorus.cpp    ****     tick.Init(8.f, sample_rate);
  66:chorus.cpp    **** 
  67:chorus.cpp    ****     hat.Init(sample_rate);
  68:chorus.cpp    ****     hat.SetDecay(.6f);
  69:chorus.cpp    **** 
  70:chorus.cpp    ****     kick.Init(sample_rate);
  71:chorus.cpp    **** 
  72:chorus.cpp    ****     bass_note = false;
 1102              		.loc 12 72 15 view .LVU279
 1103 0008 6B4D     		ldr	r5, .L49+24
  55:chorus.cpp    ****     hw.Configure();
 1104              		.loc 12 55 1 view .LVU280
 1105 000a 2DED068B 		vpush.64	{d8, d9, d10}
 1106              		.cfi_def_cfa_offset 40
 1107              		.cfi_offset 80, -40
 1108              		.cfi_offset 81, -36
 1109              		.cfi_offset 82, -32
 1110              		.cfi_offset 83, -28
 1111              		.cfi_offset 84, -24
 1112              		.cfi_offset 85, -20
  56:chorus.cpp    ****     hw.Init();
 1113              		.loc 12 56 17 view .LVU281
 1114 000e FFF7FEFF 		bl	_ZN5daisy9DaisySeed9ConfigureEv
 1115              	.LVL65:
  57:chorus.cpp    ****     hw.Init();
 1116              		.loc 12 57 5 is_stmt 1 view .LVU282
  57:chorus.cpp    ****     hw.Init();
 1117              		.loc 12 57 12 is_stmt 0 view .LVU283
 1118 0012 3146     		mov	r1, r6
 1119 0014 6648     		ldr	r0, .L49+16
 1120 0016 FFF7FEFF 		bl	_ZN5daisy9DaisySeed4InitEb
 1121              	.LVL66:
  58:chorus.cpp    **** 
 1122              		.loc 12 58 5 is_stmt 1 view .LVU284
  61:chorus.cpp    ****     chorus.SetLfoDepth(1.f, 1.f);
 1123              		.loc 12 61 22 is_stmt 0 view .LVU285
 1124 001a 9FED688A 		vldr.32	s16, .L49+28
  58:chorus.cpp    **** 
 1125              		.loc 12 58 43 view .LVU286
 1126 001e 6448     		ldr	r0, .L49+16
 1127 0020 FFF7FEFF 		bl	_ZN5daisy9DaisySeed15AudioSampleRateEv
 1128              	.LVL67:
  60:chorus.cpp    ****     chorus.SetLfoFreq(.33f, .2f);
 1129              		.loc 12 60 16 view .LVU287
 1130 0024 6648     		ldr	r0, .L49+32
  58:chorus.cpp    **** 
 1131              		.loc 12 58 43 view .LVU288
ARM GAS  /tmp/ccm862Rg.s 			page 40


 1132 0026 F0EE40AA 		vmov.f32	s21, s0
 1133              	.LVL68:
  60:chorus.cpp    ****     chorus.SetLfoFreq(.33f, .2f);
 1134              		.loc 12 60 5 is_stmt 1 view .LVU289
  60:chorus.cpp    ****     chorus.SetLfoFreq(.33f, .2f);
 1135              		.loc 12 60 16 is_stmt 0 view .LVU290
 1136 002a FFF7FEFF 		bl	_ZN7daisysp6Chorus4InitEf
 1137              	.LVL69:
  61:chorus.cpp    ****     chorus.SetLfoDepth(1.f, 1.f);
 1138              		.loc 12 61 5 is_stmt 1 view .LVU291
  61:chorus.cpp    ****     chorus.SetLfoDepth(1.f, 1.f);
 1139              		.loc 12 61 22 is_stmt 0 view .LVU292
 1140 002e F0EE480A 		vmov.f32	s1, s16
 1141 0032 9FED640A 		vldr.32	s0, .L49+36
 1142 0036 6248     		ldr	r0, .L49+32
 1143 0038 FFF7FEFF 		bl	_ZN7daisysp6Chorus10SetLfoFreqEff
 1144              	.LVL70:
  62:chorus.cpp    ****     chorus.SetDelay(.75f, .9f);
 1145              		.loc 12 62 5 is_stmt 1 view .LVU293
  62:chorus.cpp    ****     chorus.SetDelay(.75f, .9f);
 1146              		.loc 12 62 23 is_stmt 0 view .LVU294
 1147 003c F7EE000A 		vmov.f32	s1, #1.0e+0
 1148 0040 5F48     		ldr	r0, .L49+32
 1149              	.LBB527:
 1150              	.LBB520:
 124:../../DaisySP/Source/Drums/hihat.h ****         noise_clock_  = 0.0f;
 1151              		.loc 11 124 9 view .LVU295
 1152 0042 9FED61AA 		vldr.32	s20, .L49+40
 1153              	.LBE520:
 1154              	.LBE527:
  62:chorus.cpp    ****     chorus.SetDelay(.75f, .9f);
 1155              		.loc 12 62 23 view .LVU296
 1156 0046 B0EE600A 		vmov.f32	s0, s1
 1157 004a FFF7FEFF 		bl	_ZN7daisysp6Chorus11SetLfoDepthEff
 1158              	.LVL71:
  63:chorus.cpp    **** 
 1159              		.loc 12 63 5 is_stmt 1 view .LVU297
  63:chorus.cpp    **** 
 1160              		.loc 12 63 20 is_stmt 0 view .LVU298
 1161 004e B6EE080A 		vmov.f32	s0, #7.5e-1
 1162 0052 DFED5E0A 		vldr.32	s1, .L49+44
 1163 0056 5A48     		ldr	r0, .L49+32
 1164 0058 FFF7FEFF 		bl	_ZN7daisysp6Chorus8SetDelayEff
 1165              	.LVL72:
  65:chorus.cpp    **** 
 1166              		.loc 12 65 5 is_stmt 1 view .LVU299
  65:chorus.cpp    **** 
 1167              		.loc 12 65 14 is_stmt 0 view .LVU300
 1168 005c F0EE6A0A 		vmov.f32	s1, s21
 1169 0060 B2EE000A 		vmov.f32	s0, #8.0e+0
 1170 0064 5A48     		ldr	r0, .L49+48
 1171 0066 FFF7FEFF 		bl	_ZN7daisysp5Metro4InitEff
 1172              	.LVL73:
  67:chorus.cpp    ****     hat.SetDecay(.6f);
 1173              		.loc 12 67 5 is_stmt 1 view .LVU301
 1174              	.LBB528:
 1175              	.LBI403:
ARM GAS  /tmp/ccm862Rg.s 			page 41


 118:../../DaisySP/Source/Drums/hihat.h ****     {
 1176              		.loc 11 118 10 view .LVU302
 1177              	.LBB521:
 1178              	.LBB408:
 1179              	.LBB409:
 220:../../DaisySP/Source/Drums/hihat.h ****         f0_ = fclamp(f0, 0.f, 1.f);
 1180              		.loc 11 220 9 is_stmt 0 view .LVU303
 1181 006a DFED5A4A 		vldr.32	s9, .L49+52
 1182              	.LBE409:
 1183              	.LBE408:
 1184              	.LBB432:
 1185              	.LBB433:
 1186              	.LBB434:
 1187              	.LBB435:
  36:../../DaisySP/Source/Utility/dsp.h **** #else
 1188              		.loc 13 36 80 view .LVU304
 1189              		.syntax unified
 1190              	@ 36 "../../DaisySP/Source/Utility/dsp.h" 1
 1191 006e 88FE0A7A 		vmaxnm.f32 s14, s16, s20
 1192              	@ 0 "" 2
 1193              		.thumb
 1194              		.syntax unified
 1195              	.LBE435:
 1196              	.LBE434:
 235:../../DaisySP/Source/Drums/hihat.h ****         decay_ -= 1.2;
 1197              		.loc 11 235 16 view .LVU305
 1198 0072 9FED4B9B 		vldr.64	d9, .L49
 1199 0076 B7EEC77A 		vcvt.f64.f32	d7, s14
 1200              	.LBE433:
 1201              	.LBE432:
 1202              	.LBB444:
 1203              	.LBB445:
 1204              	.LBB446:
 1205              	.LBB447:
 1206              	.LBB448:
  36:../../DaisySP/Source/Utility/dsp.h **** #else
 1207              		.loc 13 36 80 view .LVU306
 1208 007a DFED576A 		vldr.32	s13, .L49+56
 1209              	.LBE448:
 1210              	.LBE447:
 1211              	.LBE446:
 1212              	.LBE445:
 1213              	.LBE444:
 1214              	.LBB465:
 1215              	.LBB425:
 1216              	.LBB410:
 1217              	.LBB411:
 1218              	.LBB412:
  47:../../DaisySP/Source/Utility/dsp.h **** #else
 1219              		.loc 13 47 80 view .LVU307
 1220 007e F7EE005A 		vmov.f32	s11, #1.0e+0
 1221              	.LBE412:
 1222              	.LBE411:
 1223              	.LBE410:
 1224              	.LBE425:
 1225              	.LBE465:
 136:../../DaisySP/Source/Drums/hihat.h ****         noise_coloration_svf_.Init(sample_rate_);
ARM GAS  /tmp/ccm862Rg.s 			page 42


 1226              		.loc 11 136 9 view .LVU308
 1227 0082 04F12C00 		add	r0, r4, #44
 1228              	.LBB466:
 1229              	.LBB426:
 220:../../DaisySP/Source/Drums/hihat.h ****         f0_ = fclamp(f0, 0.f, 1.f);
 1230              		.loc 11 220 9 view .LVU309
 1231 0086 84EEAA6A 		vdiv.f32	s12, s9, s21
 1232              	.LBE426:
 1233              	.LBE466:
 120:../../DaisySP/Source/Drums/hihat.h **** 
 1234              		.loc 11 120 9 view .LVU310
 1235 008a C4ED00AA 		vstr.32	s21, [r4]
 1236              	.LBB467:
 1237              	.LBB427:
 1238              	.LBB421:
 1239              	.LBB415:
 1240              	.LBB416:
  36:../../DaisySP/Source/Utility/dsp.h **** #else
 1241              		.loc 13 36 80 view .LVU311
 1242              		.syntax unified
 1243              	@ 36 "../../DaisySP/Source/Utility/dsp.h" 1
 1244 008e 86FE0A6A 		vmaxnm.f32 s12, s12, s20
 1245              	@ 0 "" 2
 1246              		.thumb
 1247              		.syntax unified
 1248              	.LBE416:
 1249              	.LBE415:
 1250              	.LBE421:
 1251              	.LBE427:
 1252              	.LBE467:
 1253              	.LBB468:
 1254              	.LBB460:
 1255              	.LBB457:
 1256              	.LBB451:
 1257              	.LBB449:
 1258              		.syntax unified
 1259              	@ 36 "../../DaisySP/Source/Utility/dsp.h" 1
 1260 0092 C6FE8A6A 		vmaxnm.f32 s13, s13, s20
 1261              	@ 0 "" 2
 1262              		.thumb
 1263              		.syntax unified
 1264              	.LBE449:
 1265              	.LBE451:
 1266              	.LBB452:
 1267              	.LBB453:
  47:../../DaisySP/Source/Utility/dsp.h **** #else
 1268              		.loc 13 47 80 view .LVU312
 1269              		.syntax unified
 1270              	@ 47 "../../DaisySP/Source/Utility/dsp.h" 1
 1271 0096 C6FEE56A 		vminnm.f32 s13, s13, s11
 1272              	@ 0 "" 2
 1273              		.thumb
 1274              		.syntax unified
 1275              	.LBE453:
 1276              	.LBE452:
 1277              	.LBE457:
 1278              	.LBE460:
ARM GAS  /tmp/ccm862Rg.s 			page 43


 1279              	.LBE468:
 124:../../DaisySP/Source/Drums/hihat.h ****         noise_clock_  = 0.0f;
 1280              		.loc 11 124 9 view .LVU313
 1281 009a 84ED07AA 		vstr.32	s20, [r4, #28]
 1282              	.LBB469:
 1283              	.LBB438:
 235:../../DaisySP/Source/Drums/hihat.h ****         decay_ -= 1.2;
 1284              		.loc 11 235 16 view .LVU314
 1285 009e 27EE097B 		vmul.f64	d7, d7, d9
 1286              	.LBE438:
 1287              	.LBE469:
 1288              	.LBB470:
 1289              	.LBB471:
 213:../../DaisySP/Source/Drums/hihat.h **** 
 1290              		.loc 11 213 36 view .LVU315
 1291 00a2 C4ED016A 		vstr.32	s13, [r4, #4]
 1292              	.LBE471:
 1293              	.LBE470:
 125:../../DaisySP/Source/Drums/hihat.h ****         noise_sample_ = 0.0f;
 1294              		.loc 11 125 9 view .LVU316
 1295 00a6 84ED08AA 		vstr.32	s20, [r4, #32]
 126:../../DaisySP/Source/Drums/hihat.h ****         sustain_gain_ = 0.0f;
 1296              		.loc 11 126 9 view .LVU317
 1297 00aa 84ED09AA 		vstr.32	s20, [r4, #36]
 1298              	.LBB480:
 1299              	.LBB461:
 245:../../DaisySP/Source/Drums/hihat.h ****     }
 1300              		.loc 11 245 20 view .LVU318
 1301 00ae 26EEA65A 		vmul.f32	s10, s13, s13
 1302              	.LBE461:
 1303              	.LBE480:
 127:../../DaisySP/Source/Drums/hihat.h **** 
 1304              		.loc 11 127 9 view .LVU319
 1305 00b2 84ED0AAA 		vstr.32	s20, [r4, #40]
 1306              	.LVL74:
 1307              	.LBB481:
 1308              	.LBI408:
 218:../../DaisySP/Source/Drums/hihat.h ****     {
 1309              		.loc 11 218 10 is_stmt 1 view .LVU320
 1310              	.LBB428:
 1311              	.LBB422:
 1312              	.LBI410:
  56:../../DaisySP/Source/Utility/dsp.h **** {
 1313              		.loc 13 56 14 view .LVU321
 1314              	.LBE422:
 1315              	.LBE428:
 1316              	.LBE481:
 1317              	.LBE521:
 1318              	.LBE528:
  58:../../DaisySP/Source/Utility/dsp.h **** }
 1319              		.loc 13 58 5 view .LVU322
 1320              	.LBB529:
 1321              	.LBB522:
 1322              	.LBB482:
 1323              	.LBB429:
 1324              	.LBB423:
 1325              	.LBB418:
ARM GAS  /tmp/ccm862Rg.s 			page 44


 1326              	.LBI415:
  32:../../DaisySP/Source/Utility/dsp.h **** {
 1327              		.loc 13 32 14 view .LVU323
 1328              	.LBB417:
  34:../../DaisySP/Source/Utility/dsp.h **** #ifdef __arm__
 1329              		.loc 13 34 5 view .LVU324
  36:../../DaisySP/Source/Utility/dsp.h **** #else
 1330              		.loc 13 36 5 view .LVU325
  40:../../DaisySP/Source/Utility/dsp.h **** }
 1331              		.loc 13 40 5 view .LVU326
  40:../../DaisySP/Source/Utility/dsp.h **** }
 1332              		.loc 13 40 5 is_stmt 0 view .LVU327
 1333              	.LBE417:
 1334              	.LBE418:
 1335              	.LBB419:
 1336              	.LBI411:
  43:../../DaisySP/Source/Utility/dsp.h **** {
 1337              		.loc 13 43 14 is_stmt 1 view .LVU328
 1338              	.LBB413:
  45:../../DaisySP/Source/Utility/dsp.h **** #ifdef __arm__
 1339              		.loc 13 45 5 view .LVU329
  47:../../DaisySP/Source/Utility/dsp.h **** #else
 1340              		.loc 13 47 5 view .LVU330
 1341              	.LBE413:
 1342              	.LBE419:
 1343              	.LBE423:
 1344              	.LBE429:
 1345              	.LBE482:
 136:../../DaisySP/Source/Drums/hihat.h ****         noise_coloration_svf_.Init(sample_rate_);
 1346              		.loc 11 136 9 is_stmt 0 view .LVU331
 1347 00b6 B0EE6A0A 		vmov.f32	s0, s21
 1348              	.LBB483:
 1349              	.LBB407:
 208:../../DaisySP/Source/Drums/hihat.h **** 
 1350              		.loc 11 208 37 view .LVU332
 1351 00ba 2683     		strh	r6, [r4, #24]	@ movhi
 1352              	.LBE407:
 1353              	.LBE483:
 1354              	.LBB484:
 1355              	.LBB485:
 1356              	.LBB486:
 1357              	.LBB487:
 1358              	.LBB488:
  36:../../DaisySP/Source/Utility/dsp.h **** #else
 1359              		.loc 13 36 80 view .LVU333
 1360 00bc F6EE006A 		vmov.f32	s13, #5.0e-1
 1361              	.LBE488:
 1362              	.LBE487:
 1363              	.LBE486:
 1364              	.LBE485:
 1365              	.LBE484:
 1366              	.LBB502:
 1367              	.LBB439:
 235:../../DaisySP/Source/Drums/hihat.h ****         decay_ -= 1.2;
 1368              		.loc 11 235 16 view .LVU334
 1369 00c0 B7EEC77B 		vcvt.f32.f64	s14, d7
 1370              	.LBE439:
ARM GAS  /tmp/ccm862Rg.s 			page 45


 1371              	.LBE502:
 1372              	.LBB503:
 1373              	.LBB462:
 245:../../DaisySP/Source/Drums/hihat.h ****     }
 1374              		.loc 11 245 9 view .LVU335
 1375 00c4 84ED055A 		vstr.32	s10, [r4, #20]
 1376              	.LBE462:
 1377              	.LBE503:
 1378              	.LBB504:
 1379              	.LBB430:
 1380              	.LBB424:
 1381              	.LBB420:
 1382              	.LBB414:
  47:../../DaisySP/Source/Utility/dsp.h **** #else
 1383              		.loc 13 47 80 view .LVU336
 1384              		.syntax unified
 1385              	@ 47 "../../DaisySP/Source/Utility/dsp.h" 1
 1386 00c8 C6FE657A 		vminnm.f32 s15, s12, s11
 1387              	@ 0 "" 2
 1388              	.LVL75:
  51:../../DaisySP/Source/Utility/dsp.h **** }
 1389              		.loc 13 51 5 is_stmt 1 view .LVU337
  51:../../DaisySP/Source/Utility/dsp.h **** }
 1390              		.loc 13 51 5 is_stmt 0 view .LVU338
 1391              		.thumb
 1392              		.syntax unified
 1393              	.LBE414:
 1394              	.LBE420:
 1395              	.LBE424:
 1396              	.LBE430:
 1397              	.LBE504:
 1398              	.LBB505:
 1399              	.LBB440:
 236:../../DaisySP/Source/Drums/hihat.h ****     }
 1400              		.loc 11 236 16 view .LVU339
 1401 00cc 9FED368B 		vldr.64	d8, .L49+8
 1402              	.LBE440:
 1403              	.LBE505:
 1404              	.LBB506:
 1405              	.LBB431:
 221:../../DaisySP/Source/Drums/hihat.h ****     }
 1406              		.loc 11 221 9 view .LVU340
 1407 00d0 C4ED027A 		vstr.32	s15, [r4, #8]
 1408              	.LVL76:
 221:../../DaisySP/Source/Drums/hihat.h ****     }
 1409              		.loc 11 221 9 view .LVU341
 1410              	.LBE431:
 1411              	.LBE506:
 1412              	.LBB507:
 1413              	.LBI484:
 227:../../DaisySP/Source/Drums/hihat.h **** 
 1414              		.loc 11 227 10 is_stmt 1 view .LVU342
 1415              	.LBB498:
 1416              	.LBB495:
 1417              	.LBI486:
  56:../../DaisySP/Source/Utility/dsp.h **** {
 1418              		.loc 13 56 14 view .LVU343
ARM GAS  /tmp/ccm862Rg.s 			page 46


 1419              	.LBE495:
 1420              	.LBE498:
 1421              	.LBE507:
 1422              	.LBE522:
 1423              	.LBE529:
  58:../../DaisySP/Source/Utility/dsp.h **** }
 1424              		.loc 13 58 5 view .LVU344
 1425              	.LBB530:
 1426              	.LBB523:
 1427              	.LBB508:
 1428              	.LBB499:
 1429              	.LBB496:
 1430              	.LBB491:
 1431              	.LBI487:
  32:../../DaisySP/Source/Utility/dsp.h **** {
 1432              		.loc 13 32 14 view .LVU345
 1433              	.LBB489:
  34:../../DaisySP/Source/Utility/dsp.h **** #ifdef __arm__
 1434              		.loc 13 34 5 view .LVU346
  36:../../DaisySP/Source/Utility/dsp.h **** #else
 1435              		.loc 13 36 5 view .LVU347
 1436              	.LBE489:
 1437              	.LBE491:
 1438              	.LBE496:
 1439              	.LBE499:
 1440              	.LBE508:
 1441              	.LBB509:
 1442              	.LBB441:
 236:../../DaisySP/Source/Drums/hihat.h ****     }
 1443              		.loc 11 236 16 is_stmt 0 view .LVU348
 1444 00d4 B7EEC77A 		vcvt.f64.f32	d7, s14
 1445              	.LBE441:
 1446              	.LBE509:
 1447              	.LBB510:
 1448              	.LBB500:
 1449              	.LBB497:
 1450              	.LBB492:
 1451              	.LBB490:
  36:../../DaisySP/Source/Utility/dsp.h **** #else
 1452              		.loc 13 36 80 view .LVU349
 1453              		.syntax unified
 1454              	@ 36 "../../DaisySP/Source/Utility/dsp.h" 1
 1455 00d8 C6FE8A6A 		vmaxnm.f32 s13, s13, s20
 1456              	@ 0 "" 2
 1457              	.LVL77:
  40:../../DaisySP/Source/Utility/dsp.h **** }
 1458              		.loc 13 40 5 is_stmt 1 view .LVU350
  40:../../DaisySP/Source/Utility/dsp.h **** }
 1459              		.loc 13 40 5 is_stmt 0 view .LVU351
 1460              		.thumb
 1461              		.syntax unified
 1462              	.LBE490:
 1463              	.LBE492:
 1464              	.LBB493:
 1465              	.LBI493:
  43:../../DaisySP/Source/Utility/dsp.h **** {
 1466              		.loc 13 43 14 is_stmt 1 view .LVU352
ARM GAS  /tmp/ccm862Rg.s 			page 47


 1467              	.LBB494:
  45:../../DaisySP/Source/Utility/dsp.h **** #ifdef __arm__
 1468              		.loc 13 45 5 view .LVU353
  47:../../DaisySP/Source/Utility/dsp.h **** #else
 1469              		.loc 13 47 5 view .LVU354
  47:../../DaisySP/Source/Utility/dsp.h **** #else
 1470              		.loc 13 47 80 is_stmt 0 view .LVU355
 1471              		.syntax unified
 1472              	@ 47 "../../DaisySP/Source/Utility/dsp.h" 1
 1473 00dc C6FEE56A 		vminnm.f32 s13, s13, s11
 1474              	@ 0 "" 2
 1475              	.LVL78:
  51:../../DaisySP/Source/Utility/dsp.h **** }
 1476              		.loc 13 51 5 is_stmt 1 view .LVU356
  51:../../DaisySP/Source/Utility/dsp.h **** }
 1477              		.loc 13 51 5 is_stmt 0 view .LVU357
 1478              		.thumb
 1479              		.syntax unified
 1480              	.LBE494:
 1481              	.LBE493:
 1482              	.LBE497:
 1483              	.LBE500:
 1484              	.LBE510:
 1485              	.LBB511:
 1486              	.LBB442:
 236:../../DaisySP/Source/Drums/hihat.h ****     }
 1487              		.loc 11 236 16 view .LVU358
 1488 00e0 37EE487B 		vsub.f64	d7, d7, d8
 1489              	.LBE442:
 1490              	.LBE511:
 1491              	.LBB512:
 1492              	.LBB501:
 227:../../DaisySP/Source/Drums/hihat.h **** 
 1493              		.loc 11 227 32 view .LVU359
 1494 00e4 C4ED036A 		vstr.32	s13, [r4, #12]
 1495              	.LVL79:
 227:../../DaisySP/Source/Drums/hihat.h **** 
 1496              		.loc 11 227 32 view .LVU360
 1497              	.LBE501:
 1498              	.LBE512:
 1499              	.LBB513:
 1500              	.LBI432:
 232:../../DaisySP/Source/Drums/hihat.h ****     {
 1501              		.loc 11 232 10 is_stmt 1 view .LVU361
 1502              	.LBB443:
 1503              	.LBB437:
 1504              	.LBI434:
  32:../../DaisySP/Source/Utility/dsp.h **** {
 1505              		.loc 13 32 14 view .LVU362
 1506              	.LBB436:
  34:../../DaisySP/Source/Utility/dsp.h **** #ifdef __arm__
 1507              		.loc 13 34 5 view .LVU363
  36:../../DaisySP/Source/Utility/dsp.h **** #else
 1508              		.loc 13 36 5 view .LVU364
  40:../../DaisySP/Source/Utility/dsp.h **** }
 1509              		.loc 13 40 5 view .LVU365
  40:../../DaisySP/Source/Utility/dsp.h **** }
ARM GAS  /tmp/ccm862Rg.s 			page 48


 1510              		.loc 13 40 5 is_stmt 0 view .LVU366
 1511              	.LBE436:
 1512              	.LBE437:
 236:../../DaisySP/Source/Drums/hihat.h ****     }
 1513              		.loc 11 236 16 view .LVU367
 1514 00e8 B7EEC77B 		vcvt.f32.f64	s14, d7
 1515 00ec 84ED047A 		vstr.32	s14, [r4, #16]
 1516              	.LVL80:
 236:../../DaisySP/Source/Drums/hihat.h ****     }
 1517              		.loc 11 236 16 view .LVU368
 1518              	.LBE443:
 1519              	.LBE513:
 1520              	.LBB514:
 1521              	.LBI444:
 242:../../DaisySP/Source/Drums/hihat.h ****     {
 1522              		.loc 11 242 10 is_stmt 1 view .LVU369
 1523              	.LBB463:
 1524              	.LBB458:
 1525              	.LBI446:
  56:../../DaisySP/Source/Utility/dsp.h **** {
 1526              		.loc 13 56 14 view .LVU370
 1527              	.LBE458:
 1528              	.LBE463:
 1529              	.LBE514:
 1530              	.LBE523:
 1531              	.LBE530:
  58:../../DaisySP/Source/Utility/dsp.h **** }
 1532              		.loc 13 58 5 view .LVU371
 1533              	.LBB531:
 1534              	.LBB524:
 1535              	.LBB515:
 1536              	.LBB464:
 1537              	.LBB459:
 1538              	.LBB455:
 1539              	.LBI447:
  32:../../DaisySP/Source/Utility/dsp.h **** {
 1540              		.loc 13 32 14 view .LVU372
 1541              	.LBB450:
  34:../../DaisySP/Source/Utility/dsp.h **** #ifdef __arm__
 1542              		.loc 13 34 5 view .LVU373
  36:../../DaisySP/Source/Utility/dsp.h **** #else
 1543              		.loc 13 36 5 view .LVU374
  40:../../DaisySP/Source/Utility/dsp.h **** }
 1544              		.loc 13 40 5 view .LVU375
  40:../../DaisySP/Source/Utility/dsp.h **** }
 1545              		.loc 13 40 5 is_stmt 0 view .LVU376
 1546              	.LBE450:
 1547              	.LBE455:
 1548              	.LBB456:
 1549              	.LBI452:
  43:../../DaisySP/Source/Utility/dsp.h **** {
 1550              		.loc 13 43 14 is_stmt 1 view .LVU377
 1551              	.LBB454:
  45:../../DaisySP/Source/Utility/dsp.h **** #ifdef __arm__
 1552              		.loc 13 45 5 view .LVU378
  47:../../DaisySP/Source/Utility/dsp.h **** #else
 1553              		.loc 13 47 5 view .LVU379
ARM GAS  /tmp/ccm862Rg.s 			page 49


  51:../../DaisySP/Source/Utility/dsp.h **** }
 1554              		.loc 13 51 5 view .LVU380
  51:../../DaisySP/Source/Utility/dsp.h **** }
 1555              		.loc 13 51 5 is_stmt 0 view .LVU381
 1556              	.LBE454:
 1557              	.LBE456:
 1558              	.LBE459:
 1559              	.LBE464:
 1560              	.LBE515:
 1561              	.LBB516:
 1562              	.LBI470:
 213:../../DaisySP/Source/Drums/hihat.h **** 
 1563              		.loc 11 213 10 is_stmt 1 view .LVU382
 1564              	.LBB478:
 1565              	.LBB472:
 1566              	.LBI472:
  56:../../DaisySP/Source/Utility/dsp.h **** {
 1567              		.loc 13 56 14 view .LVU383
 1568              	.LBE472:
 1569              	.LBE478:
 1570              	.LBE516:
 1571              	.LBE524:
 1572              	.LBE531:
  58:../../DaisySP/Source/Utility/dsp.h **** }
 1573              		.loc 13 58 5 view .LVU384
 1574              	.LBB532:
 1575              	.LBB525:
 1576              	.LBB517:
 1577              	.LBB479:
 1578              	.LBB477:
 1579              	.LBB473:
 1580              	.LBI473:
  32:../../DaisySP/Source/Utility/dsp.h **** {
 1581              		.loc 13 32 14 view .LVU385
 1582              	.LBB474:
  34:../../DaisySP/Source/Utility/dsp.h **** #ifdef __arm__
 1583              		.loc 13 34 5 view .LVU386
  36:../../DaisySP/Source/Utility/dsp.h **** #else
 1584              		.loc 13 36 5 view .LVU387
  40:../../DaisySP/Source/Utility/dsp.h **** }
 1585              		.loc 13 40 5 view .LVU388
  40:../../DaisySP/Source/Utility/dsp.h **** }
 1586              		.loc 13 40 5 is_stmt 0 view .LVU389
 1587              	.LBE474:
 1588              	.LBE473:
 1589              	.LBB475:
 1590              	.LBI475:
  43:../../DaisySP/Source/Utility/dsp.h **** {
 1591              		.loc 13 43 14 is_stmt 1 view .LVU390
 1592              	.LBB476:
  45:../../DaisySP/Source/Utility/dsp.h **** #ifdef __arm__
 1593              		.loc 13 45 5 view .LVU391
  47:../../DaisySP/Source/Utility/dsp.h **** #else
 1594              		.loc 13 47 5 view .LVU392
  51:../../DaisySP/Source/Utility/dsp.h **** }
 1595              		.loc 13 51 5 view .LVU393
  51:../../DaisySP/Source/Utility/dsp.h **** }
ARM GAS  /tmp/ccm862Rg.s 			page 50


 1596              		.loc 13 51 5 is_stmt 0 view .LVU394
 1597              	.LBE476:
 1598              	.LBE475:
 1599              	.LBE477:
 1600              	.LBE479:
 1601              	.LBE517:
 1602              	.LBB518:
 1603              	.LBI405:
 208:../../DaisySP/Source/Drums/hihat.h **** 
 1604              		.loc 11 208 10 is_stmt 1 view .LVU395
 208:../../DaisySP/Source/Drums/hihat.h **** 
 1605              		.loc 11 208 10 is_stmt 0 view .LVU396
 1606              	.LBE518:
 136:../../DaisySP/Source/Drums/hihat.h ****         noise_coloration_svf_.Init(sample_rate_);
 1607              		.loc 11 136 9 view .LVU397
 1608 00f0 FFF7FEFF 		bl	_ZN7daisysp11SquareNoise4InitEf
 1609              	.LVL81:
 137:../../DaisySP/Source/Drums/hihat.h ****         hpf_.Init(sample_rate_);
 1610              		.loc 11 137 35 view .LVU398
 1611 00f4 2046     		mov	r0, r4
 1612 00f6 94ED000A 		vldr.32	s0, [r4]
 1613 00fa 4430     		adds	r0, r0, #68
 1614 00fc FFF7FEFF 		bl	_ZN7daisysp3Svf4InitEf
 1615              	.LVL82:
 138:../../DaisySP/Source/Drums/hihat.h ****     }
 1616              		.loc 11 138 18 view .LVU399
 1617 0100 2046     		mov	r0, r4
 1618 0102 94ED000A 		vldr.32	s0, [r4]
 1619 0106 9030     		adds	r0, r0, #144
 1620 0108 FFF7FEFF 		bl	_ZN7daisysp3Svf4InitEf
 1621              	.LVL83:
 138:../../DaisySP/Source/Drums/hihat.h ****     }
 1622              		.loc 11 138 18 view .LVU400
 1623              	.LBE525:
 1624              	.LBE532:
  68:chorus.cpp    **** 
 1625              		.loc 12 68 5 is_stmt 1 view .LVU401
 1626              	.LBB533:
 1627              	.LBI533:
 232:../../DaisySP/Source/Drums/hihat.h ****     {
 1628              		.loc 11 232 10 view .LVU402
 1629              	.LBB534:
 1630              	.LBB535:
 1631              	.LBI535:
  32:../../DaisySP/Source/Utility/dsp.h **** {
 1632              		.loc 13 32 14 view .LVU403
 1633              	.LBB536:
  34:../../DaisySP/Source/Utility/dsp.h **** #ifdef __arm__
 1634              		.loc 13 34 5 view .LVU404
  36:../../DaisySP/Source/Utility/dsp.h **** #else
 1635              		.loc 13 36 5 view .LVU405
  36:../../DaisySP/Source/Utility/dsp.h **** #else
 1636              		.loc 13 36 80 is_stmt 0 view .LVU406
 1637 010c 9FED337A 		vldr.32	s14, .L49+60
 1638              		.syntax unified
 1639              	@ 36 "../../DaisySP/Source/Utility/dsp.h" 1
 1640 0110 87FE0A7A 		vmaxnm.f32 s14, s14, s20
ARM GAS  /tmp/ccm862Rg.s 			page 51


 1641              	@ 0 "" 2
 1642              	.LVL84:
  40:../../DaisySP/Source/Utility/dsp.h **** }
 1643              		.loc 13 40 5 is_stmt 1 view .LVU407
  40:../../DaisySP/Source/Utility/dsp.h **** }
 1644              		.loc 13 40 5 is_stmt 0 view .LVU408
 1645              		.thumb
 1646              		.syntax unified
 1647              	.LBE536:
 1648              	.LBE535:
 235:../../DaisySP/Source/Drums/hihat.h ****         decay_ -= 1.2;
 1649              		.loc 11 235 16 view .LVU409
 1650 0114 B7EEC77A 		vcvt.f64.f32	d7, s14
 1651              	.LBE534:
 1652              	.LBE533:
  70:chorus.cpp    **** 
 1653              		.loc 12 70 14 view .LVU410
 1654 0118 3148     		ldr	r0, .L49+64
 1655 011a B0EE6A0A 		vmov.f32	s0, s21
 1656              	.LBB538:
 1657              	.LBB537:
 235:../../DaisySP/Source/Drums/hihat.h ****         decay_ -= 1.2;
 1658              		.loc 11 235 16 view .LVU411
 1659 011e 27EE097B 		vmul.f64	d7, d7, d9
 1660 0122 B7EEC77B 		vcvt.f32.f64	s14, d7
 236:../../DaisySP/Source/Drums/hihat.h ****     }
 1661              		.loc 11 236 16 view .LVU412
 1662 0126 B7EEC77A 		vcvt.f64.f32	d7, s14
 1663 012a 37EE487B 		vsub.f64	d7, d7, d8
 1664 012e B7EEC77B 		vcvt.f32.f64	s14, d7
 1665 0132 84ED047A 		vstr.32	s14, [r4, #16]
 1666              	.LVL85:
 236:../../DaisySP/Source/Drums/hihat.h ****     }
 1667              		.loc 11 236 16 view .LVU413
 1668              	.LBE537:
 1669              	.LBE538:
  70:chorus.cpp    **** 
 1670              		.loc 12 70 5 is_stmt 1 view .LVU414
  70:chorus.cpp    **** 
 1671              		.loc 12 70 14 is_stmt 0 view .LVU415
 1672 0136 FFF7FEFF 		bl	_ZN7daisysp14AnalogBassDrum4InitEf
 1673              	.LVL86:
 1674              		.loc 12 72 5 is_stmt 1 view .LVU416
  73:chorus.cpp    ****     osc.Init(sample_rate);
 1675              		.loc 12 73 13 is_stmt 0 view .LVU417
 1676 013a B0EE6A0A 		vmov.f32	s0, s21
 1677 013e 2948     		ldr	r0, .L49+68
  72:chorus.cpp    ****     osc.Init(sample_rate);
 1678              		.loc 12 72 15 view .LVU418
 1679 0140 2E70     		strb	r6, [r5]
 1680              		.loc 12 73 5 is_stmt 1 view .LVU419
 1681              		.loc 12 73 13 is_stmt 0 view .LVU420
 1682 0142 FFF7FEFF 		bl	_ZN7daisysp21VariableSawOscillator4InitEf
 1683              	.LVL87:
  74:chorus.cpp    ****     osc.SetPW(0.25f);
 1684              		.loc 12 74 5 is_stmt 1 view .LVU421
 1685              		.loc 12 74 14 is_stmt 0 view .LVU422
ARM GAS  /tmp/ccm862Rg.s 			page 52


 1686 0146 B5EE000A 		vmov.f32	s0, #2.5e-1
 1687 014a 2648     		ldr	r0, .L49+68
 1688 014c FFF7FEFF 		bl	_ZN7daisysp21VariableSawOscillator5SetPWEf
 1689              	.LVL88:
  75:chorus.cpp    ****     osc.SetWaveshape(0.11f);
 1690              		.loc 12 75 5 is_stmt 1 view .LVU423
 1691              		.loc 12 75 21 is_stmt 0 view .LVU424
 1692 0150 2448     		ldr	r0, .L49+68
 1693 0152 9FED250A 		vldr.32	s0, .L49+72
 1694 0156 FFF7FEFF 		bl	_ZN7daisysp21VariableSawOscillator12SetWaveshapeEf
 1695              	.LVL89:
  76:chorus.cpp    ****     osc.SetFreq(mtof(bass_note ? 31.f : 24.f));
 1696              		.loc 12 76 5 is_stmt 1 view .LVU425
 1697              		.loc 12 76 16 is_stmt 0 view .LVU426
 1698 015a 2B78     		ldrb	r3, [r5]	@ zero_extendqisi2
 1699 015c F3EE086A 		vmov.f32	s13, #2.4e+1
 1700              	.LBB539:
 1701              	.LBB540:
 1702              		.loc 13 125 23 view .LVU427
 1703 0160 9FED227A 		vldr.32	s14, .L49+76
 1704              	.LBE540:
 1705              	.LBE539:
 1706              		.loc 12 76 16 view .LVU428
 1707 0164 F3EE0F7A 		vmov.f32	s15, #3.1e+1
 1708 0168 B342     		cmp	r3, r6
 1709              	.LBB543:
 1710              	.LBB541:
 1711              		.loc 13 125 16 view .LVU429
 1712 016a F2EE080A 		vmov.f32	s1, #1.2e+1
 1713 016e B0EE000A 		vmov.f32	s0, #2.0e+0
 1714              	.LBE541:
 1715              	.LBE543:
 1716              		.loc 12 76 16 view .LVU430
 1717 0172 46FEA77A 		vseleq.f32	s15, s13, s15
 1718              	.LVL90:
 1719              	.LBB544:
 1720              	.LBI539:
 123:../../DaisySP/Source/Utility/dsp.h **** {
 1721              		.loc 13 123 14 is_stmt 1 view .LVU431
 1722              	.LBB542:
 1723              		.loc 13 125 5 view .LVU432
 1724              		.loc 13 125 23 is_stmt 0 view .LVU433
 1725 0176 77EEC77A 		vsub.f32	s15, s15, s14
 1726              	.LVL91:
 1727              		.loc 13 125 16 view .LVU434
 1728 017a C7EEA00A 		vdiv.f32	s1, s15, s1
 1729 017e FFF7FEFF 		bl	powf
 1730              	.LVL92:
 1731              		.loc 13 125 43 view .LVU435
 1732 0182 DFED1B7A 		vldr.32	s15, .L49+80
 1733              	.LBE542:
 1734              	.LBE544:
 1735              		.loc 12 76 16 view .LVU436
 1736 0186 1748     		ldr	r0, .L49+68
 1737 0188 20EE270A 		vmul.f32	s0, s0, s15
 1738 018c FFF7FEFF 		bl	_ZN7daisysp21VariableSawOscillator7SetFreqEf
 1739              	.LVL93:
ARM GAS  /tmp/ccm862Rg.s 			page 53


  77:chorus.cpp    **** 
  78:chorus.cpp    ****     hw.StartAudio(AudioCallback);
 1740              		.loc 12 78 5 is_stmt 1 view .LVU437
 1741              		.loc 12 78 18 is_stmt 0 view .LVU438
 1742 0190 1849     		ldr	r1, .L49+84
 1743 0192 0748     		ldr	r0, .L49+16
 1744 0194 FFF7FEFF 		bl	_ZN5daisy9DaisySeed10StartAudioEPFvPKPKfPPfjE
 1745              	.LVL94:
 1746              	.L46:
  79:chorus.cpp    ****     while(1) {}
 1747              		.loc 12 79 5 is_stmt 1 discriminator 1 view .LVU439
 1748              		.loc 12 79 5 discriminator 1 view .LVU440
 1749              		.loc 12 79 5 discriminator 1 view .LVU441
 1750              		.loc 12 79 5 discriminator 1 view .LVU442
 1751 0198 FEE7     		b	.L46
 1752              	.L50:
 1753 019a 00BFAFF3 		.align	3
 1753      0080
 1754              	.L49:
 1755 01a0 33333333 		.word	858993459
 1756 01a4 3333FB3F 		.word	1073427251
 1757 01a8 33333333 		.word	858993459
 1758 01ac 3333F33F 		.word	1072902963
 1759 01b0 00000000 		.word	.LANCHOR8
 1760 01b4 00000000 		.word	.LANCHOR2
 1761 01b8 00000000 		.word	.LANCHOR3
 1762 01bc CDCC4C3E 		.word	1045220557
 1763 01c0 00000000 		.word	chorus
 1764 01c4 C3F5A83E 		.word	1051260355
 1765 01c8 00000000 		.word	0
 1766 01cc 6666663F 		.word	1063675494
 1767 01d0 00000000 		.word	.LANCHOR0
 1768 01d4 00803B45 		.word	1161527296
 1769 01d8 CDCC4C3F 		.word	1061997773
 1770 01dc 9A99193F 		.word	1058642330
 1771 01e0 00000000 		.word	.LANCHOR7
 1772 01e4 00000000 		.word	.LANCHOR4
 1773 01e8 AE47E13D 		.word	1038174126
 1774 01ec 00008A42 		.word	1116340224
 1775 01f0 0000DC43 		.word	1138491392
 1776 01f4 00000000 		.word	_Z13AudioCallbackPKPKfPPfj
 1777              		.cfi_endproc
 1778              	.LFE4214:
 1780              		.section	.text.startup._GLOBAL__sub_I_hw,"ax",%progbits
 1781              		.align	1
 1782              		.p2align 2,,3
 1783              		.syntax unified
 1784              		.thumb
 1785              		.thumb_func
 1786              		.fpu fpv5-d16
 1788              	_GLOBAL__sub_I_hw:
 1789              	.LFB4775:
  80:chorus.cpp    **** }
 1790              		.loc 12 80 1 view -0
 1791              		.cfi_startproc
 1792              		@ args = 0, pretend = 0, frame = 0
 1793              		@ frame_needed = 0, uses_anonymous_args = 0
ARM GAS  /tmp/ccm862Rg.s 			page 54


 1794              	.LBB581:
 1795              	.LBI581:
 1796              		.loc 12 80 1 view .LVU444
 1797              	.LVL95:
 1798              	.LBB582:
 1799              	.LBB583:
 1800              	.LBI583:
  21:../../libdaisy/src/daisy_seed.h ****     ~DaisySeed() {}
 1801              		.loc 1 21 5 view .LVU445
 1802              	.LBB584:
 1803              	.LBB585:
 1804              	.LBI585:
  62:../../libdaisy/src/hid/audio.h ****     ~AudioHandle() {}
 1805              		.loc 5 62 5 view .LVU446
 1806              	.LBE585:
 1807              	.LBE584:
 1808              	.LBE583:
 1809              	.LBE582:
 1810              	.LBE581:
 1811              		.loc 12 80 1 is_stmt 0 view .LVU447
 1812 0000 08B5     		push	{r3, lr}
 1813              		.cfi_def_cfa_offset 8
 1814              		.cfi_offset 3, -8
 1815              		.cfi_offset 14, -4
 1816              	.LBB621:
 1817              	.LBB618:
 1818              	.LBB600:
 1819              	.LBB598:
 1820              	.LBB590:
 1821              	.LBB586:
 1822              	.LBB587:
  62:../../libdaisy/src/hid/audio.h ****     ~AudioHandle() {}
 1823              		.loc 5 62 35 view .LVU448
 1824 0002 1248     		ldr	r0, .L53
 1825 0004 0023     		movs	r3, #0
 1826              	.LBE587:
 1827              	.LBE586:
 1828              	.LBE590:
 1829              	.LBE598:
 1830              	.LBE600:
   7:chorus.cpp    **** 
 1831              		.loc 12 7 11 view .LVU449
 1832 0006 124A     		ldr	r2, .L53+4
 1833              	.LBB601:
 1834              	.LBB599:
 1835              	.LBB591:
 1836              	.LBB589:
 1837              	.LBB588:
  62:../../libdaisy/src/hid/audio.h ****     ~AudioHandle() {}
 1838              		.loc 5 62 35 view .LVU450
 1839 0008 4361     		str	r3, [r0, #20]
 1840              	.LVL96:
  62:../../libdaisy/src/hid/audio.h ****     ~AudioHandle() {}
 1841              		.loc 5 62 35 view .LVU451
 1842              	.LBE588:
 1843              	.LBE589:
 1844              	.LBE591:
ARM GAS  /tmp/ccm862Rg.s 			page 55


 1845              	.LBB592:
 1846              	.LBI592:
  84:../../libdaisy/src/per/adc.h ****     ~AdcHandle() {}
 1847              		.loc 4 84 5 is_stmt 1 view .LVU452
  84:../../libdaisy/src/per/adc.h ****     ~AdcHandle() {}
 1848              		.loc 4 84 5 is_stmt 0 view .LVU453
 1849              	.LBE592:
 1850              	.LBB593:
 1851              	.LBI593:
 1852              		.file 14 "../../libdaisy/src/per/dac.h"
   1:../../libdaisy/src/per/dac.h **** #pragma once
   2:../../libdaisy/src/per/dac.h **** #ifndef DSY_DAC_H
   3:../../libdaisy/src/per/dac.h **** #define DSY_DAC_H
   4:../../libdaisy/src/per/dac.h **** 
   5:../../libdaisy/src/per/dac.h **** #include "daisy_core.h"
   6:../../libdaisy/src/per/dac.h **** 
   7:../../libdaisy/src/per/dac.h **** namespace daisy
   8:../../libdaisy/src/per/dac.h **** {
   9:../../libdaisy/src/per/dac.h **** /** DAC handle for Built-in DAC Peripheral 
  10:../../libdaisy/src/per/dac.h ****  ** 
  11:../../libdaisy/src/per/dac.h ****  ** For now only Normal Mode is supported,
  12:../../libdaisy/src/per/dac.h ****  ** Sample and hold mode provides reduced power consumption, but requires a bit more setup.
  13:../../libdaisy/src/per/dac.h ****  **
  14:../../libdaisy/src/per/dac.h ****  ** For now connecting the DAC through other internal periphearls is also not supported.
  15:../../libdaisy/src/per/dac.h ****  **
  16:../../libdaisy/src/per/dac.h ****  ** Since the DAC channels have dedicated pins we don't need to pass in a pin config like with
  17:../../libdaisy/src/per/dac.h ****  ** other modules. However, it is still important to not try to use the DAC pins for anything else.
  18:../../libdaisy/src/per/dac.h ****  ** DAC Channel 1 is on PA4, and DAC Channel 2 is on PA5
  19:../../libdaisy/src/per/dac.h ****  ***/
  20:../../libdaisy/src/per/dac.h **** class DacHandle
  21:../../libdaisy/src/per/dac.h **** {
  22:../../libdaisy/src/per/dac.h ****   public:
  23:../../libdaisy/src/per/dac.h ****     /** Return Values for the DacHandle class */
  24:../../libdaisy/src/per/dac.h ****     enum class Result
  25:../../libdaisy/src/per/dac.h ****     {
  26:../../libdaisy/src/per/dac.h ****         OK,
  27:../../libdaisy/src/per/dac.h ****         ERR,
  28:../../libdaisy/src/per/dac.h ****     };
  29:../../libdaisy/src/per/dac.h **** 
  30:../../libdaisy/src/per/dac.h ****     /** Selects which channel(s) will be configured for use. */
  31:../../libdaisy/src/per/dac.h ****     enum class Channel
  32:../../libdaisy/src/per/dac.h ****     {
  33:../../libdaisy/src/per/dac.h ****         ONE,
  34:../../libdaisy/src/per/dac.h ****         TWO,
  35:../../libdaisy/src/per/dac.h ****         BOTH,
  36:../../libdaisy/src/per/dac.h ****     };
  37:../../libdaisy/src/per/dac.h **** 
  38:../../libdaisy/src/per/dac.h ****     /** Sets the Mode for the DAC channels.
  39:../../libdaisy/src/per/dac.h ****      **
  40:../../libdaisy/src/per/dac.h ****      ** Polling mode uses the blocking mode to transmit a single value at a time.
  41:../../libdaisy/src/per/dac.h ****      **
  42:../../libdaisy/src/per/dac.h ****      ** DMA mode uses a buffer, and periodically transmits it triggering a 
  43:../../libdaisy/src/per/dac.h ****      ** callback to fill the buffer when it is ready for more samples.
  44:../../libdaisy/src/per/dac.h ****      ***/
  45:../../libdaisy/src/per/dac.h ****     enum class Mode
  46:../../libdaisy/src/per/dac.h ****     {
  47:../../libdaisy/src/per/dac.h ****         POLLING,
ARM GAS  /tmp/ccm862Rg.s 			page 56


  48:../../libdaisy/src/per/dac.h ****         DMA,
  49:../../libdaisy/src/per/dac.h ****     };
  50:../../libdaisy/src/per/dac.h **** 
  51:../../libdaisy/src/per/dac.h ****     /** Sets the number of bits per sample transmitted out of the DAC.
  52:../../libdaisy/src/per/dac.h ****      ** The output range will be: 0V - VDDA
  53:../../libdaisy/src/per/dac.h ****      ** The resolution will be roughly: bitdepth / (VDDA - 0V) 
  54:../../libdaisy/src/per/dac.h ****      ***/
  55:../../libdaisy/src/per/dac.h ****     enum class BitDepth
  56:../../libdaisy/src/per/dac.h ****     {
  57:../../libdaisy/src/per/dac.h ****         BITS_8,
  58:../../libdaisy/src/per/dac.h ****         BITS_12
  59:../../libdaisy/src/per/dac.h ****     };
  60:../../libdaisy/src/per/dac.h **** 
  61:../../libdaisy/src/per/dac.h ****     /** Sets whether the DAC output is buffered for higher drive ability. */
  62:../../libdaisy/src/per/dac.h ****     enum class BufferState
  63:../../libdaisy/src/per/dac.h ****     {
  64:../../libdaisy/src/per/dac.h ****         ENABLED,
  65:../../libdaisy/src/per/dac.h ****         DISABLED,
  66:../../libdaisy/src/per/dac.h ****     };
  67:../../libdaisy/src/per/dac.h **** 
  68:../../libdaisy/src/per/dac.h ****     /** Configuration structure for initializing the DAC structure. */
  69:../../libdaisy/src/per/dac.h ****     struct Config
  70:../../libdaisy/src/per/dac.h ****     {
  71:../../libdaisy/src/per/dac.h ****         /** Target Samplerate in Hz used to configure the internal 
  72:../../libdaisy/src/per/dac.h ****          ** timebase for DMA mode. Does nothing in POLLING mode.
  73:../../libdaisy/src/per/dac.h ****          ** If the value is 0 at Init time this will default to 48000Hz 
  74:../../libdaisy/src/per/dac.h ****          ** otherwise the driver will attempt meet the target.*/
  75:../../libdaisy/src/per/dac.h ****         uint32_t target_samplerate;
  76:../../libdaisy/src/per/dac.h **** 
  77:../../libdaisy/src/per/dac.h ****         Channel     chn;
  78:../../libdaisy/src/per/dac.h ****         Mode        mode;
  79:../../libdaisy/src/per/dac.h ****         BitDepth    bitdepth;
  80:../../libdaisy/src/per/dac.h ****         BufferState buff_state;
  81:../../libdaisy/src/per/dac.h ****     };
  82:../../libdaisy/src/per/dac.h **** 
  83:../../libdaisy/src/per/dac.h ****     DacHandle() : pimpl_(nullptr) {}
 1853              		.loc 14 83 5 is_stmt 1 view .LVU454
 1854              	.LBB594:
 1855              	.LBB595:
 1856              		.loc 14 83 33 is_stmt 0 view .LVU455
 1857 000a 0362     		str	r3, [r0, #32]
 1858              	.LVL97:
 1859              		.loc 14 83 33 view .LVU456
 1860              	.LBE595:
 1861              	.LBE594:
 1862              	.LBE593:
 1863              	.LBB596:
 1864              	.LBI596:
  40:../../libdaisy/src/hid/usb.h **** 
 1865              		.loc 3 40 5 is_stmt 1 view .LVU457
  40:../../libdaisy/src/hid/usb.h **** 
 1866              		.loc 3 40 5 is_stmt 0 view .LVU458
 1867              	.LBE596:
 1868              	.LBB597:
 1869              	.LBI597:
  58:../../libdaisy/src/sys/system.h ****     ~System() {}
 1870              		.loc 2 58 5 is_stmt 1 view .LVU459
ARM GAS  /tmp/ccm862Rg.s 			page 57


  58:../../libdaisy/src/sys/system.h ****     ~System() {}
 1871              		.loc 2 58 5 is_stmt 0 view .LVU460
 1872              	.LBE597:
 1873              	.LBE599:
 1874              	.LBE601:
   7:chorus.cpp    **** 
 1875              		.loc 12 7 11 view .LVU461
 1876 000c 1149     		ldr	r1, .L53+8
 1877 000e FFF7FEFF 		bl	__aeabi_atexit
 1878              	.LVL98:
 1879              	.LBB602:
 1880              	.LBI602:
  88:../../DaisySP/Source/Effects/chorus.h ****     ~Chorus() {}
 1881              		.loc 8 88 5 is_stmt 1 view .LVU462
 1882              	.LBE602:
 1883              	.LBE618:
 1884              	.LBE621:
  88:../../DaisySP/Source/Effects/chorus.h ****     ~Chorus() {}
 1885              		.loc 8 88 14 view .LVU463
 1886              	.LBB622:
 1887              	.LBB619:
   9:chorus.cpp    **** VariableSawOscillator osc;
 1888              		.loc 12 9 23 is_stmt 0 view .LVU464
 1889 0012 0F4A     		ldr	r2, .L53+4
 1890 0014 1049     		ldr	r1, .L53+12
 1891 0016 1148     		ldr	r0, .L53+16
 1892 0018 FFF7FEFF 		bl	__aeabi_atexit
 1893              	.LVL99:
 1894              	.LBB603:
 1895              	.LBI603:
  23:../../DaisySP/Source/Synthesis/variablesawosc.h ****     ~VariableSawOscillator() {}
 1896              		.loc 9 23 5 is_stmt 1 view .LVU465
 1897              	.LBB604:
 1898              	.LBB605:
  23:../../DaisySP/Source/Synthesis/variablesawosc.h ****     ~VariableSawOscillator() {}
 1899              		.loc 9 23 29 is_stmt 0 view .LVU466
 1900 001c 104B     		ldr	r3, .L53+20
 1901 001e 1148     		ldr	r0, .L53+24
 1902              	.LBE605:
 1903              	.LBE604:
 1904              	.LBE603:
  10:chorus.cpp    **** HiHat<>               hat;
 1905              		.loc 12 10 23 view .LVU467
 1906 0020 0B4A     		ldr	r2, .L53+4
 1907              	.LBB608:
 1908              	.LBB607:
 1909              	.LBB606:
  23:../../DaisySP/Source/Synthesis/variablesawosc.h ****     ~VariableSawOscillator() {}
 1910              		.loc 9 23 29 view .LVU468
 1911 0022 4361     		str	r3, [r0, #20]	@ float
 1912              	.LVL100:
  23:../../DaisySP/Source/Synthesis/variablesawosc.h ****     ~VariableSawOscillator() {}
 1913              		.loc 9 23 29 view .LVU469
 1914              	.LBE606:
 1915              	.LBE607:
 1916              	.LBE608:
  10:chorus.cpp    **** HiHat<>               hat;
ARM GAS  /tmp/ccm862Rg.s 			page 58


 1917              		.loc 12 10 23 view .LVU470
 1918 0024 1049     		ldr	r1, .L53+28
 1919 0026 FFF7FEFF 		bl	__aeabi_atexit
 1920              	.LVL101:
 1921              	.LBB609:
 1922              	.LBI609:
 112:../../DaisySP/Source/Drums/hihat.h ****     ~HiHat() {}
 1923              		.loc 11 112 5 is_stmt 1 view .LVU471
 1924              	.LBB610:
 1925              	.LBB611:
 1926              	.LBI611:
  27:../../DaisySP/Source/Drums/hihat.h ****     ~SquareNoise() {}
 1927              		.loc 11 27 5 view .LVU472
  27:../../DaisySP/Source/Drums/hihat.h ****     ~SquareNoise() {}
 1928              		.loc 11 27 5 is_stmt 0 view .LVU473
 1929              	.LBE611:
 1930              	.LBB612:
 1931              	.LBI612:
  21:../../DaisySP/Source/Filters/svf.h ****     ~Svf() {}
 1932              		.loc 7 21 5 is_stmt 1 view .LVU474
  21:../../DaisySP/Source/Filters/svf.h ****     ~Svf() {}
 1933              		.loc 7 21 5 is_stmt 0 view .LVU475
 1934              	.LBE612:
 1935              	.LBB613:
 1936              	.LBI613:
  21:../../DaisySP/Source/Filters/svf.h ****     ~Svf() {}
 1937              		.loc 7 21 5 is_stmt 1 view .LVU476
  21:../../DaisySP/Source/Filters/svf.h ****     ~Svf() {}
 1938              		.loc 7 21 5 is_stmt 0 view .LVU477
 1939              	.LBE613:
 1940              	.LBE610:
 1941              	.LBE609:
  11:chorus.cpp    **** AnalogBassDrum        kick;
 1942              		.loc 12 11 23 view .LVU478
 1943 002a 094A     		ldr	r2, .L53+4
 1944 002c 0F49     		ldr	r1, .L53+32
 1945 002e 1048     		ldr	r0, .L53+36
 1946 0030 FFF7FEFF 		bl	__aeabi_atexit
 1947              	.LVL102:
 1948              	.LBB614:
 1949              	.LBI614:
  26:../../DaisySP/Source/Drums/analogbassdrum.h ****     ~AnalogBassDrum() {}
 1950              		.loc 6 26 5 is_stmt 1 view .LVU479
 1951              	.LBB615:
 1952              	.LBB616:
 1953              	.LBI616:
  21:../../DaisySP/Source/Filters/svf.h ****     ~Svf() {}
 1954              		.loc 7 21 5 view .LVU480
  21:../../DaisySP/Source/Filters/svf.h ****     ~Svf() {}
 1955              		.loc 7 21 5 is_stmt 0 view .LVU481
 1956              	.LBE616:
 1957              	.LBE615:
 1958              	.LBE614:
  12:chorus.cpp    **** 
 1959              		.loc 12 12 23 view .LVU482
 1960 0034 064A     		ldr	r2, .L53+4
 1961 0036 0F49     		ldr	r1, .L53+40
ARM GAS  /tmp/ccm862Rg.s 			page 59


 1962 0038 0F48     		ldr	r0, .L53+44
 1963 003a FFF7FEFF 		bl	__aeabi_atexit
 1964              	.LVL103:
 1965              	.LBB617:
 1966              	.LBI617:
  14:../../DaisySP/Source/Utility/metro.h ****     ~Metro() {}
 1967              		.loc 10 14 5 is_stmt 1 view .LVU483
  14:../../DaisySP/Source/Utility/metro.h ****     ~Metro() {}
 1968              		.loc 10 14 5 is_stmt 0 view .LVU484
 1969              	.LBE617:
  15:chorus.cpp    **** 
 1970              		.loc 12 15 7 view .LVU485
 1971 003e 044A     		ldr	r2, .L53+4
 1972 0040 0E49     		ldr	r1, .L53+48
 1973 0042 0F48     		ldr	r0, .L53+52
 1974              	.LBE619:
 1975              	.LBE622:
 1976              		.loc 12 80 1 view .LVU486
 1977 0044 BDE80840 		pop	{r3, lr}
 1978              		.cfi_restore 14
 1979              		.cfi_restore 3
 1980              		.cfi_def_cfa_offset 0
 1981              	.LBB623:
 1982              	.LBB620:
  15:chorus.cpp    **** 
 1983              		.loc 12 15 7 view .LVU487
 1984 0048 FFF7FEBF 		b	__aeabi_atexit
 1985              	.LVL104:
 1986              	.L54:
 1987              		.align	2
 1988              	.L53:
 1989 004c 00000000 		.word	.LANCHOR8
 1990 0050 00000000 		.word	__dso_handle
 1991 0054 00000000 		.word	_ZN5daisy9DaisySeedD1Ev
 1992 0058 00000000 		.word	_ZN7daisysp6ChorusD1Ev
 1993 005c 00000000 		.word	chorus
 1994 0060 CDCC4C3E 		.word	1045220557
 1995 0064 00000000 		.word	.LANCHOR4
 1996 0068 00000000 		.word	_ZN7daisysp21VariableSawOscillatorD1Ev
 1997 006c 00000000 		.word	_ZN7daisysp5HiHatINS_11SquareNoiseENS_9LinearVCAELb1EED1Ev
 1998 0070 00000000 		.word	.LANCHOR2
 1999 0074 00000000 		.word	_ZN7daisysp14AnalogBassDrumD1Ev
 2000 0078 00000000 		.word	.LANCHOR7
 2001 007c 00000000 		.word	_ZN7daisysp5MetroD1Ev
 2002 0080 00000000 		.word	.LANCHOR0
 2003              	.LBE620:
 2004              	.LBE623:
 2005              		.cfi_endproc
 2006              	.LFE4775:
 2008              		.section	.init_array,"aw",%init_array
 2009              		.align	2
 2010 0000 00000000 		.word	_GLOBAL__sub_I_hw(target1)
 2011              		.global	bass_note
 2012              		.global	pos
 2013              		.global	k_patt
 2014              		.global	h_patt
 2015              		.global	tick
ARM GAS  /tmp/ccm862Rg.s 			page 60


 2016              		.global	kick
 2017              		.global	hat
 2018              		.global	osc
 2019              		.global	chorus
 2020              		.global	hw
 2021              		.section	.bss.bass_note,"aw",%nobits
 2022              		.set	.LANCHOR3,. + 0
 2025              	bass_note:
 2026 0000 00       		.space	1
 2027              		.section	.bss.chorus,"aw",%nobits
 2028              		.align	2
 2031              	chorus:
 2032 0000 00000000 		.space	19292
 2032      00000000 
 2032      00000000 
 2032      00000000 
 2032      00000000 
 2033              		.section	.bss.hat,"aw",%nobits
 2034              		.align	2
 2035              		.set	.LANCHOR2,. + 0
 2038              	hat:
 2039 0000 00000000 		.space	220
 2039      00000000 
 2039      00000000 
 2039      00000000 
 2039      00000000 
 2040              		.section	.bss.hw,"aw",%nobits
 2041              		.align	2
 2042              		.set	.LANCHOR8,. + 0
 2045              	hw:
 2046 0000 00000000 		.space	60
 2046      00000000 
 2046      00000000 
 2046      00000000 
 2046      00000000 
 2047              		.section	.bss.kick,"aw",%nobits
 2048              		.align	2
 2049              		.set	.LANCHOR7,. + 0
 2052              	kick:
 2053 0000 00000000 		.space	152
 2053      00000000 
 2053      00000000 
 2053      00000000 
 2053      00000000 
 2054              		.section	.bss.osc,"aw",%nobits
 2055              		.align	2
 2056              		.set	.LANCHOR4,. + 0
 2059              	osc:
 2060 0000 00000000 		.space	36
 2060      00000000 
 2060      00000000 
 2060      00000000 
 2060      00000000 
 2061              		.section	.bss.tick,"aw",%nobits
 2062              		.align	2
 2063              		.set	.LANCHOR0,. + 0
 2066              	tick:
ARM GAS  /tmp/ccm862Rg.s 			page 61


 2067 0000 00000000 		.space	16
 2067      00000000 
 2067      00000000 
 2067      00000000 
 2068              		.section	.data.h_patt,"aw"
 2069              		.set	.LANCHOR5,. + 0
 2072              	h_patt:
 2073 0000 FF       		.byte	-1
 2074              		.section	.data.k_patt,"aw"
 2075              		.set	.LANCHOR6,. + 0
 2078              	k_patt:
 2079 0000 88       		.byte	-120
 2080              		.section	.data.pos,"aw"
 2081              		.set	.LANCHOR1,. + 0
 2084              	pos:
 2085 0000 80       		.byte	-128
 2086              		.text
 2087              	.Letext0:
 2088              		.file 15 "/usr/lib/gcc/arm-none-eabi/9.2.1/include/stdint.h"
 2089              		.file 16 "../../libdaisy/Drivers/CMSIS/Include/core_cm7.h"
 2090              		.file 17 "../../libdaisy/Drivers/CMSIS/Device/ST/STM32H7xx/Include/system_stm32h7xx.h"
 2091              		.file 18 "/usr/lib/gcc/arm-none-eabi/9.2.1/include/stddef.h"
 2092              		.file 19 "/usr/include/newlib/c++/9.2.1/cmath"
 2093              		.file 20 "/usr/include/newlib/c++/9.2.1/bits/std_abs.h"
 2094              		.file 21 "/usr/include/newlib/c++/9.2.1/cstdlib"
 2095              		.file 22 "/usr/include/newlib/c++/9.2.1/cstdint"
 2096              		.file 23 "/usr/include/newlib/c++/9.2.1/type_traits"
 2097              		.file 24 "/usr/include/newlib/c++/9.2.1/arm-none-eabi/thumb/v7e-m+dp/hard/bits/c++config.h"
 2098              		.file 25 "/usr/include/newlib/c++/9.2.1/bits/stl_pair.h"
 2099              		.file 26 "/usr/include/newlib/c++/9.2.1/debug/debug.h"
 2100              		.file 27 "/usr/include/newlib/c++/9.2.1/bits/algorithmfwd.h"
 2101              		.file 28 "/usr/include/newlib/c++/9.2.1/bits/exception_ptr.h"
 2102              		.file 29 "/usr/include/newlib/c++/9.2.1/new"
 2103              		.file 30 "/usr/include/newlib/c++/9.2.1/cstdarg"
 2104              		.file 31 "/usr/include/newlib/c++/9.2.1/cstdio"
 2105              		.file 32 "/usr/include/newlib/c++/9.2.1/cwchar"
 2106              		.file 33 "/usr/include/newlib/c++/9.2.1/clocale"
 2107              		.file 34 "/usr/include/newlib/c++/9.2.1/bits/basic_string.h"
 2108              		.file 35 "/usr/include/newlib/c++/9.2.1/bits/uniform_int_dist.h"
 2109              		.file 36 "/usr/include/newlib/c++/9.2.1/bits/random.h"
 2110              		.file 37 "/usr/include/newlib/c++/9.2.1/cstring"
 2111              		.file 38 "/usr/include/newlib/c++/9.2.1/bits/predefined_ops.h"
 2112              		.file 39 "/usr/include/newlib/c++/9.2.1/ext/numeric_traits.h"
 2113              		.file 40 "/usr/include/newlib/c++/9.2.1/ext/new_allocator.h"
 2114              		.file 41 "/usr/include/newlib/sys/_types.h"
 2115              		.file 42 "<built-in>"
 2116              		.file 43 "/usr/include/newlib/sys/reent.h"
 2117              		.file 44 "/usr/include/newlib/sys/lock.h"
 2118              		.file 45 "/usr/include/newlib/math.h"
 2119              		.file 46 "/usr/include/newlib/stdlib.h"
 2120              		.file 47 "/usr/include/newlib/c++/9.2.1/math.h"
 2121              		.file 48 "../../libdaisy/Drivers/STM32H7xx_HAL_Driver/Inc/stm32h7xx_hal_def.h"
 2122              		.file 49 "../../libdaisy/Drivers/STM32H7xx_HAL_Driver/Inc/stm32h7xx_hal_flash.h"
 2123              		.file 50 "/usr/include/newlib/c++/9.2.1/stdlib.h"
 2124              		.file 51 "../../libdaisy/src/daisy_core.h"
 2125              		.file 52 "../../libdaisy/src/per/tim.h"
 2126              		.file 53 "../../libdaisy/src/per/sai.h"
ARM GAS  /tmp/ccm862Rg.s 			page 62


 2127              		.file 54 "../../libdaisy/src/util/wav_format.h"
 2128              		.file 55 "../../libdaisy/src/per/qspi.h"
 2129              		.file 56 "../../libdaisy/src/per/gpio.h"
 2130              		.file 57 "../../libdaisy/src/dev/sdram.h"
 2131              		.file 58 "/usr/lib/gcc/arm-none-eabi/9.2.1/include/stdarg.h"
 2132              		.file 59 "/usr/include/newlib/stdio.h"
 2133              		.file 60 "/usr/include/newlib/sys/unistd.h"
 2134              		.file 61 "../../libdaisy/src/util/oled_fonts.h"
 2135              		.file 62 "../../libdaisy/Middlewares/Third_Party/FatFs/src/integer.h"
 2136              		.file 63 "../../libdaisy/Middlewares/Third_Party/FatFs/src/ff.h"
 2137              		.file 64 "../../libdaisy/Middlewares/Third_Party/FatFs/src/diskio.h"
 2138              		.file 65 "../../libdaisy/Middlewares/Third_Party/FatFs/src/ff_gen_drv.h"
 2139              		.file 66 "../../libdaisy/src/util/sd_diskio.h"
 2140              		.file 67 "../../libdaisy/src/sys/fatfs.h"
 2141              		.file 68 "../../DaisySP/Source/Control/adenv.h"
 2142              		.file 69 "../../DaisySP/Source/Utility/delayline.h"
 2143              		.file 70 "/usr/include/newlib/wchar.h"
 2144              		.file 71 "/usr/include/newlib/locale.h"
 2145              		.file 72 "/usr/include/newlib/ctype.h"
 2146              		.file 73 "/usr/include/newlib/sys/errno.h"
 2147              		.file 74 "/usr/include/newlib/string.h"
 2148              		.file 75 "../../libdaisy/src/dev/sr_595.h"
ARM GAS  /tmp/ccm862Rg.s 			page 63

