ARM GAS  /tmp/ccobg3TQ.s 			page 1


   1              		.cpu cortex-m7
   2              		.eabi_attribute 28, 1
   3              		.eabi_attribute 20, 1
   4              		.eabi_attribute 21, 1
   5              		.eabi_attribute 23, 3
   6              		.eabi_attribute 24, 1
   7              		.eabi_attribute 25, 1
   8              		.eabi_attribute 26, 1
   9              		.eabi_attribute 30, 2
  10              		.eabi_attribute 34, 1
  11              		.eabi_attribute 18, 4
  12              		.file	"SampleAndHold.cpp"
  13              		.text
  14              	.Ltext0:
  15              		.cfi_sections	.debug_frame
  16              		.section	.text._ZN5daisy10DaisyPatchD2Ev,"axG",%progbits,_ZN5daisy10DaisyPatchD5Ev,comdat
  17              		.align	1
  18              		.p2align 2,,3
  19              		.weak	_ZN5daisy10DaisyPatchD2Ev
  20              		.arch armv7e-m
  21              		.syntax unified
  22              		.thumb
  23              		.thumb_func
  24              		.fpu fpv5-d16
  26              	_ZN5daisy10DaisyPatchD2Ev:
  27              	.LVL0:
  28              	.LFB4230:
  29              		.file 1 "../../libdaisy/src/daisy_patch.h"
   1:../../libdaisy/src/daisy_patch.h **** #pragma once
   2:../../libdaisy/src/daisy_patch.h **** #ifndef DSY_PATCH_BSP_H
   3:../../libdaisy/src/daisy_patch.h **** #define DSY_PATCH_BSP_H
   4:../../libdaisy/src/daisy_patch.h **** #include "daisy_seed.h"
   5:../../libdaisy/src/daisy_patch.h **** #include "dev/oled_ssd130x.h"
   6:../../libdaisy/src/daisy_patch.h **** 
   7:../../libdaisy/src/daisy_patch.h **** namespace daisy
   8:../../libdaisy/src/daisy_patch.h **** {
   9:../../libdaisy/src/daisy_patch.h **** /**
  10:../../libdaisy/src/daisy_patch.h ****     @brief Class that handles initializing all of the hardware specific to the Daisy Patch Board. \
  11:../../libdaisy/src/daisy_patch.h ****     Helper funtions are also in place to provide easy access to built-in controls and peripherals.
  12:../../libdaisy/src/daisy_patch.h ****     @author Stephen Hensley
  13:../../libdaisy/src/daisy_patch.h ****     @date November 2019
  14:../../libdaisy/src/daisy_patch.h ****     @ingroup boards
  15:../../libdaisy/src/daisy_patch.h **** */
  16:../../libdaisy/src/daisy_patch.h **** class DaisyPatch
  17:../../libdaisy/src/daisy_patch.h **** {
  18:../../libdaisy/src/daisy_patch.h ****   public:
  19:../../libdaisy/src/daisy_patch.h ****     /** Enum of Ctrls to represent the four CV/Knob combos on the Patch
  20:../../libdaisy/src/daisy_patch.h ****      */
  21:../../libdaisy/src/daisy_patch.h ****     enum Ctrl
  22:../../libdaisy/src/daisy_patch.h ****     {
  23:../../libdaisy/src/daisy_patch.h ****         CTRL_1,    /**< */
  24:../../libdaisy/src/daisy_patch.h ****         CTRL_2,    /**< */
  25:../../libdaisy/src/daisy_patch.h ****         CTRL_3,    /**< */
  26:../../libdaisy/src/daisy_patch.h ****         CTRL_4,    /**< */
  27:../../libdaisy/src/daisy_patch.h ****         CTRL_LAST, /**< */
  28:../../libdaisy/src/daisy_patch.h ****     };
  29:../../libdaisy/src/daisy_patch.h **** 
ARM GAS  /tmp/ccobg3TQ.s 			page 2


  30:../../libdaisy/src/daisy_patch.h ****     /** Daisy patch gate inputs */
  31:../../libdaisy/src/daisy_patch.h ****     enum GateInput
  32:../../libdaisy/src/daisy_patch.h ****     {
  33:../../libdaisy/src/daisy_patch.h ****         GATE_IN_1,    /**< */
  34:../../libdaisy/src/daisy_patch.h ****         GATE_IN_2,    /** <*/
  35:../../libdaisy/src/daisy_patch.h ****         GATE_IN_LAST, /**< */
  36:../../libdaisy/src/daisy_patch.h ****     };
  37:../../libdaisy/src/daisy_patch.h **** 
  38:../../libdaisy/src/daisy_patch.h ****     /** Constructor */
  39:../../libdaisy/src/daisy_patch.h ****     DaisyPatch() {}
  40:../../libdaisy/src/daisy_patch.h ****     /** Destructor */
  41:../../libdaisy/src/daisy_patch.h ****     ~DaisyPatch() {}
  30              		.loc 1 41 5 view -0
  31              		.cfi_startproc
  32              		@ args = 0, pretend = 0, frame = 0
  33              		@ frame_needed = 0, uses_anonymous_args = 0
  34              		@ link register save eliminated.
  35              	.LBB707:
  36              	.LBI707:
  37              		.file 2 "../../libdaisy/src/hid/disp/oled_display.h"
   1:../../libdaisy/src/hid/disp/oled_display.h **** #pragma once
   2:../../libdaisy/src/hid/disp/oled_display.h **** #ifndef DSY_OLED_DISPLAY_H
   3:../../libdaisy/src/hid/disp/oled_display.h **** #define DSY_OLED_DISPLAY_H /**< Macro */
   4:../../libdaisy/src/hid/disp/oled_display.h **** 
   5:../../libdaisy/src/hid/disp/oled_display.h **** #include "display.h"
   6:../../libdaisy/src/hid/disp/oled_display.h **** 
   7:../../libdaisy/src/hid/disp/oled_display.h **** namespace daisy
   8:../../libdaisy/src/hid/disp/oled_display.h **** {
   9:../../libdaisy/src/hid/disp/oled_display.h **** /** 
  10:../../libdaisy/src/hid/disp/oled_display.h ****  * This class is for drawing to a monochrome OLED display. 
  11:../../libdaisy/src/hid/disp/oled_display.h **** */
  12:../../libdaisy/src/hid/disp/oled_display.h **** template <typename DisplayDriver>
  13:../../libdaisy/src/hid/disp/oled_display.h **** class OledDisplay : public OneBitGraphicsDisplayImpl<OledDisplay<DisplayDriver>>
  14:../../libdaisy/src/hid/disp/oled_display.h **** {
  15:../../libdaisy/src/hid/disp/oled_display.h ****   public:
  16:../../libdaisy/src/hid/disp/oled_display.h ****     OledDisplay() {}
  17:../../libdaisy/src/hid/disp/oled_display.h ****     virtual ~OledDisplay() {}
  38              		.loc 2 17 13 view .LVU1
  39              	.LBB708:
  40              	.LBI708:
  41              		.file 3 "../../libdaisy/src/hid/disp/display.h"
   1:../../libdaisy/src/hid/disp/display.h **** #pragma once
   2:../../libdaisy/src/hid/disp/display.h **** #ifndef DSY_DISPLAY_H
   3:../../libdaisy/src/hid/disp/display.h **** #define DSY_DISPLAY_H /**< Macro */
   4:../../libdaisy/src/hid/disp/display.h **** #include <cmath>
   5:../../libdaisy/src/hid/disp/display.h **** #include "util/oled_fonts.h"
   6:../../libdaisy/src/hid/disp/display.h **** #include "daisy_core.h"
   7:../../libdaisy/src/hid/disp/display.h **** #include "graphics_common.h"
   8:../../libdaisy/src/hid/disp/display.h **** 
   9:../../libdaisy/src/hid/disp/display.h **** #ifndef deg2rad
  10:../../libdaisy/src/hid/disp/display.h **** #define deg2rad(deg) ((deg)*3.141592 / 180.0)
  11:../../libdaisy/src/hid/disp/display.h **** #endif
  12:../../libdaisy/src/hid/disp/display.h **** 
  13:../../libdaisy/src/hid/disp/display.h **** namespace daisy
  14:../../libdaisy/src/hid/disp/display.h **** {
  15:../../libdaisy/src/hid/disp/display.h **** /** 
  16:../../libdaisy/src/hid/disp/display.h ****  * This interface is used as a base class for all types of 1bit-per-pixel
ARM GAS  /tmp/ccobg3TQ.s 			page 3


  17:../../libdaisy/src/hid/disp/display.h ****  * graphics displays.
  18:../../libdaisy/src/hid/disp/display.h **** */
  19:../../libdaisy/src/hid/disp/display.h **** class OneBitGraphicsDisplay
  20:../../libdaisy/src/hid/disp/display.h **** {
  21:../../libdaisy/src/hid/disp/display.h ****   public:
  22:../../libdaisy/src/hid/disp/display.h ****     OneBitGraphicsDisplay() {}
  23:../../libdaisy/src/hid/disp/display.h ****     virtual ~OneBitGraphicsDisplay() {}
  24:../../libdaisy/src/hid/disp/display.h **** 
  25:../../libdaisy/src/hid/disp/display.h ****     virtual uint16_t Height() const = 0;
  26:../../libdaisy/src/hid/disp/display.h ****     virtual uint16_t Width() const  = 0;
  27:../../libdaisy/src/hid/disp/display.h **** 
  28:../../libdaisy/src/hid/disp/display.h ****     Rectangle GetBounds() const
  29:../../libdaisy/src/hid/disp/display.h ****     {
  30:../../libdaisy/src/hid/disp/display.h ****         return Rectangle(int16_t(Width()), int16_t(Height()));
  31:../../libdaisy/src/hid/disp/display.h ****     }
  32:../../libdaisy/src/hid/disp/display.h **** 
  33:../../libdaisy/src/hid/disp/display.h **** 
  34:../../libdaisy/src/hid/disp/display.h ****     size_t CurrentX() { return currentX_; };
  35:../../libdaisy/src/hid/disp/display.h ****     size_t CurrentY() { return currentY_; };
  36:../../libdaisy/src/hid/disp/display.h **** 
  37:../../libdaisy/src/hid/disp/display.h ****     /** 
  38:../../libdaisy/src/hid/disp/display.h ****     Fills the entire display with either on/off.
  39:../../libdaisy/src/hid/disp/display.h ****     \param on Sets on or off.
  40:../../libdaisy/src/hid/disp/display.h ****     */
  41:../../libdaisy/src/hid/disp/display.h ****     virtual void Fill(bool on) = 0;
  42:../../libdaisy/src/hid/disp/display.h **** 
  43:../../libdaisy/src/hid/disp/display.h ****     /**
  44:../../libdaisy/src/hid/disp/display.h ****     Sets the pixel at the specified coordinate to be on/off.
  45:../../libdaisy/src/hid/disp/display.h ****     \param x   x Coordinate
  46:../../libdaisy/src/hid/disp/display.h ****     \param y   y coordinate
  47:../../libdaisy/src/hid/disp/display.h ****     \param on  on or off
  48:../../libdaisy/src/hid/disp/display.h ****     */
  49:../../libdaisy/src/hid/disp/display.h ****     virtual void DrawPixel(uint_fast8_t x, uint_fast8_t y, bool on) = 0;
  50:../../libdaisy/src/hid/disp/display.h **** 
  51:../../libdaisy/src/hid/disp/display.h ****     /**
  52:../../libdaisy/src/hid/disp/display.h ****     Draws a line from (x1, y1) to (y1, y2)
  53:../../libdaisy/src/hid/disp/display.h ****     \param x1  x Coordinate of the starting point
  54:../../libdaisy/src/hid/disp/display.h ****     \param y1  y Coordinate of the starting point
  55:../../libdaisy/src/hid/disp/display.h ****     \param x2  x Coordinate of the ending point
  56:../../libdaisy/src/hid/disp/display.h ****     \param y2  y Coordinate of the ending point
  57:../../libdaisy/src/hid/disp/display.h ****     \param on  on or off
  58:../../libdaisy/src/hid/disp/display.h ****     */
  59:../../libdaisy/src/hid/disp/display.h ****     virtual void DrawLine(uint_fast8_t x1,
  60:../../libdaisy/src/hid/disp/display.h ****                           uint_fast8_t y1,
  61:../../libdaisy/src/hid/disp/display.h ****                           uint_fast8_t x2,
  62:../../libdaisy/src/hid/disp/display.h ****                           uint_fast8_t y2,
  63:../../libdaisy/src/hid/disp/display.h ****                           bool         on)
  64:../../libdaisy/src/hid/disp/display.h ****         = 0;
  65:../../libdaisy/src/hid/disp/display.h **** 
  66:../../libdaisy/src/hid/disp/display.h ****     /**
  67:../../libdaisy/src/hid/disp/display.h ****     Draws a rectangle based on two coordinates.
  68:../../libdaisy/src/hid/disp/display.h ****     \param x1 x Coordinate of the first point
  69:../../libdaisy/src/hid/disp/display.h ****     \param y1 y Coordinate of the first point
  70:../../libdaisy/src/hid/disp/display.h ****     \param x2 x Coordinate of the second point
  71:../../libdaisy/src/hid/disp/display.h ****     \param y2 y Coordinate of the second point
  72:../../libdaisy/src/hid/disp/display.h ****     \param on on or off
  73:../../libdaisy/src/hid/disp/display.h ****     \param fill fill the rectangle or draw only the outline
ARM GAS  /tmp/ccobg3TQ.s 			page 4


  74:../../libdaisy/src/hid/disp/display.h ****     */
  75:../../libdaisy/src/hid/disp/display.h ****     virtual void DrawRect(uint_fast8_t x1,
  76:../../libdaisy/src/hid/disp/display.h ****                           uint_fast8_t y1,
  77:../../libdaisy/src/hid/disp/display.h ****                           uint_fast8_t x2,
  78:../../libdaisy/src/hid/disp/display.h ****                           uint_fast8_t y2,
  79:../../libdaisy/src/hid/disp/display.h ****                           bool         on,
  80:../../libdaisy/src/hid/disp/display.h ****                           bool         fill = false)
  81:../../libdaisy/src/hid/disp/display.h ****         = 0;
  82:../../libdaisy/src/hid/disp/display.h **** 
  83:../../libdaisy/src/hid/disp/display.h ****     /**
  84:../../libdaisy/src/hid/disp/display.h ****     Draws a rectangle.
  85:../../libdaisy/src/hid/disp/display.h ****     \param rect the rectangle
  86:../../libdaisy/src/hid/disp/display.h ****     \param on   on or off
  87:../../libdaisy/src/hid/disp/display.h ****     \param fill fill the rectangle or draw only the outline
  88:../../libdaisy/src/hid/disp/display.h ****     */
  89:../../libdaisy/src/hid/disp/display.h ****     void DrawRect(const Rectangle& rect, bool on, bool fill = false)
  90:../../libdaisy/src/hid/disp/display.h ****     {
  91:../../libdaisy/src/hid/disp/display.h ****         DrawRect(rect.GetX(),
  92:../../libdaisy/src/hid/disp/display.h ****                  rect.GetY(),
  93:../../libdaisy/src/hid/disp/display.h ****                  rect.GetRight(),
  94:../../libdaisy/src/hid/disp/display.h ****                  rect.GetBottom(),
  95:../../libdaisy/src/hid/disp/display.h ****                  on,
  96:../../libdaisy/src/hid/disp/display.h ****                  fill);
  97:../../libdaisy/src/hid/disp/display.h ****     }
  98:../../libdaisy/src/hid/disp/display.h **** 
  99:../../libdaisy/src/hid/disp/display.h ****     /**
 100:../../libdaisy/src/hid/disp/display.h ****     Draws an arc around the specified coordinate
 101:../../libdaisy/src/hid/disp/display.h ****     \param x           x Coordinate of the center of the arc
 102:../../libdaisy/src/hid/disp/display.h ****     \param y           y Coordinate of the center of the arc
 103:../../libdaisy/src/hid/disp/display.h ****     \param radius      radius of the arc
 104:../../libdaisy/src/hid/disp/display.h ****     \param start_angle angle where to start the arc
 105:../../libdaisy/src/hid/disp/display.h ****     \param sweep       total angle of the arc
 106:../../libdaisy/src/hid/disp/display.h ****     \param on  on or off
 107:../../libdaisy/src/hid/disp/display.h ****     */
 108:../../libdaisy/src/hid/disp/display.h ****     virtual void DrawArc(uint_fast8_t x,
 109:../../libdaisy/src/hid/disp/display.h ****                          uint_fast8_t y,
 110:../../libdaisy/src/hid/disp/display.h ****                          uint_fast8_t radius,
 111:../../libdaisy/src/hid/disp/display.h ****                          int_fast16_t start_angle,
 112:../../libdaisy/src/hid/disp/display.h ****                          int_fast16_t sweep,
 113:../../libdaisy/src/hid/disp/display.h ****                          bool         on)
 114:../../libdaisy/src/hid/disp/display.h ****         = 0;
 115:../../libdaisy/src/hid/disp/display.h **** 
 116:../../libdaisy/src/hid/disp/display.h ****     /**
 117:../../libdaisy/src/hid/disp/display.h ****     Draws a circle around the specified coordinate
 118:../../libdaisy/src/hid/disp/display.h ****     \param x           x Coordinate of the center of the circle
 119:../../libdaisy/src/hid/disp/display.h ****     \param y           y Coordinate of the center of the circle
 120:../../libdaisy/src/hid/disp/display.h ****     \param radius      radius of the circle
 121:../../libdaisy/src/hid/disp/display.h ****     \param on  on or off
 122:../../libdaisy/src/hid/disp/display.h ****     */
 123:../../libdaisy/src/hid/disp/display.h ****     void
 124:../../libdaisy/src/hid/disp/display.h ****     DrawCircle(uint_fast8_t x, uint_fast8_t y, uint_fast8_t radius, bool on)
 125:../../libdaisy/src/hid/disp/display.h ****     {
 126:../../libdaisy/src/hid/disp/display.h ****         DrawArc(x, y, radius, 0, 360, on);
 127:../../libdaisy/src/hid/disp/display.h ****     };
 128:../../libdaisy/src/hid/disp/display.h **** 
 129:../../libdaisy/src/hid/disp/display.h ****     /** 
 130:../../libdaisy/src/hid/disp/display.h ****     Writes the character with the specific FontDef
ARM GAS  /tmp/ccobg3TQ.s 			page 5


 131:../../libdaisy/src/hid/disp/display.h ****     to the display buffer at the current Cursor position.
 132:../../libdaisy/src/hid/disp/display.h ****     \param ch character to be written
 133:../../libdaisy/src/hid/disp/display.h ****     \param font font to be written in
 134:../../libdaisy/src/hid/disp/display.h ****     \param on    on or off
 135:../../libdaisy/src/hid/disp/display.h ****     \return &
 136:../../libdaisy/src/hid/disp/display.h ****     */
 137:../../libdaisy/src/hid/disp/display.h ****     virtual char WriteChar(char ch, FontDef font, bool on) = 0;
 138:../../libdaisy/src/hid/disp/display.h **** 
 139:../../libdaisy/src/hid/disp/display.h ****     /** 
 140:../../libdaisy/src/hid/disp/display.h ****     Similar to WriteChar, except it will handle an entire String.
 141:../../libdaisy/src/hid/disp/display.h ****     Wrapping does not happen automatically, so the width
 142:../../libdaisy/src/hid/disp/display.h ****     of the string must be kept within the dimensions of the screen.
 143:../../libdaisy/src/hid/disp/display.h ****     \param str string to be written
 144:../../libdaisy/src/hid/disp/display.h ****     \param font font to use
 145:../../libdaisy/src/hid/disp/display.h ****     \param on  on or off
 146:../../libdaisy/src/hid/disp/display.h ****     \return &
 147:../../libdaisy/src/hid/disp/display.h ****     */
 148:../../libdaisy/src/hid/disp/display.h ****     virtual char WriteString(const char* str, FontDef font, bool on) = 0;
 149:../../libdaisy/src/hid/disp/display.h **** 
 150:../../libdaisy/src/hid/disp/display.h ****     /** 
 151:../../libdaisy/src/hid/disp/display.h ****     Similar to WriteString but justified within a bounding box.
 152:../../libdaisy/src/hid/disp/display.h ****     \param str          string to be written
 153:../../libdaisy/src/hid/disp/display.h ****     \param font         font to use
 154:../../libdaisy/src/hid/disp/display.h ****     \param boundingBox  the bounding box to draw the text in
 155:../../libdaisy/src/hid/disp/display.h ****     \param alignment    the alignment to use
 156:../../libdaisy/src/hid/disp/display.h ****     \param on           on or off
 157:../../libdaisy/src/hid/disp/display.h ****     \return The rectangle that was drawn to
 158:../../libdaisy/src/hid/disp/display.h ****     */
 159:../../libdaisy/src/hid/disp/display.h ****     virtual Rectangle WriteStringAligned(const char*    str,
 160:../../libdaisy/src/hid/disp/display.h ****                                          const FontDef& font,
 161:../../libdaisy/src/hid/disp/display.h ****                                          Rectangle      boundingBox,
 162:../../libdaisy/src/hid/disp/display.h ****                                          Alignment      alignment,
 163:../../libdaisy/src/hid/disp/display.h ****                                          bool           on)
 164:../../libdaisy/src/hid/disp/display.h ****         = 0;
 165:../../libdaisy/src/hid/disp/display.h **** 
 166:../../libdaisy/src/hid/disp/display.h ****     /** 
 167:../../libdaisy/src/hid/disp/display.h ****     Moves the 'Cursor' position used for WriteChar, and WriteStr to the specified coordinate.
 168:../../libdaisy/src/hid/disp/display.h ****     \param x x pos
 169:../../libdaisy/src/hid/disp/display.h ****     \param y y pos
 170:../../libdaisy/src/hid/disp/display.h ****     */
 171:../../libdaisy/src/hid/disp/display.h ****     void SetCursor(uint16_t x, uint16_t y)
 172:../../libdaisy/src/hid/disp/display.h ****     {
 173:../../libdaisy/src/hid/disp/display.h ****         currentX_ = (x >= Width()) ? Width() - 1 : x;
 174:../../libdaisy/src/hid/disp/display.h ****         currentY_ = (y >= Height()) ? Height() - 1 : y;
 175:../../libdaisy/src/hid/disp/display.h ****     }
 176:../../libdaisy/src/hid/disp/display.h **** 
 177:../../libdaisy/src/hid/disp/display.h ****     /** 
 178:../../libdaisy/src/hid/disp/display.h ****     Writes the current display buffer to the OLED device using SPI or I2C depending on 
 179:../../libdaisy/src/hid/disp/display.h ****     how the object was initialized.
 180:../../libdaisy/src/hid/disp/display.h ****     */
 181:../../libdaisy/src/hid/disp/display.h ****     virtual void Update() = 0;
 182:../../libdaisy/src/hid/disp/display.h **** 
 183:../../libdaisy/src/hid/disp/display.h ****   protected:
 184:../../libdaisy/src/hid/disp/display.h ****     uint16_t currentX_;
 185:../../libdaisy/src/hid/disp/display.h ****     uint16_t currentY_;
 186:../../libdaisy/src/hid/disp/display.h **** };
 187:../../libdaisy/src/hid/disp/display.h **** 
ARM GAS  /tmp/ccobg3TQ.s 			page 6


 188:../../libdaisy/src/hid/disp/display.h **** /** This class is intended as a intermediary class for your actual implementation of the OneBitGrap
 189:../../libdaisy/src/hid/disp/display.h ****  *  interface. It uses the CRTP design pattern where the template argument is the child class. It p
 190:../../libdaisy/src/hid/disp/display.h ****  *  implementations for most of the functions, except DrawPixel(), Update() and Fill(), which you'l
 191:../../libdaisy/src/hid/disp/display.h ****  *  to provide in your child class.
 192:../../libdaisy/src/hid/disp/display.h ****  *  The main goal of this class is to provide common drawing functions without relying on massive a
 193:../../libdaisy/src/hid/disp/display.h ****  *  virtual function calls that would result in a performance loss. To achieve this, any drawing fu
 194:../../libdaisy/src/hid/disp/display.h ****  *  is implemented here and internally calls other drawing functions (e.g. DrawRect() which interna
 195:../../libdaisy/src/hid/disp/display.h ****  *  DrawPixel() and DrawLine()) makes these calls via the qualified name of these functions to expl
 196:../../libdaisy/src/hid/disp/display.h ****  *  suppress the virtual dispatch mechanism like this:
 197:../../libdaisy/src/hid/disp/display.h ****  * 
 198:../../libdaisy/src/hid/disp/display.h ****  *      ChildType::DrawPixel(...); // no virtual function call; direct call into the child class fu
 199:../../libdaisy/src/hid/disp/display.h ****  *  
 200:../../libdaisy/src/hid/disp/display.h ****  *  To create a custom OneBitGraphicsDisplay implementation, you can 
 201:../../libdaisy/src/hid/disp/display.h ****  *  A) inherit from OneBitGraphicsDisplay directly and provide all the drawing functions yourself
 202:../../libdaisy/src/hid/disp/display.h ****  *  B) Inherit from OneBitGraphicsDisplayImpl and only provide DrawPixel(), Fill() and Update()
 203:../../libdaisy/src/hid/disp/display.h ****  *     like this:
 204:../../libdaisy/src/hid/disp/display.h ****  *  
 205:../../libdaisy/src/hid/disp/display.h ****  *      class MyDisplayClass : public OneBitGraphicsDisplayImpl<MyDisplayClass> 
 206:../../libdaisy/src/hid/disp/display.h ****  *      {
 207:../../libdaisy/src/hid/disp/display.h ****  *      public:
 208:../../libdaisy/src/hid/disp/display.h ****  *          void Fill() override { ... };
 209:../../libdaisy/src/hid/disp/display.h ****  *          void DrawPixel(uint_fast8_t x, uint_fast8_t y, bool on) override { ... };
 210:../../libdaisy/src/hid/disp/display.h ****  *          void Update() override { ... }
 211:../../libdaisy/src/hid/disp/display.h ****  *      };
 212:../../libdaisy/src/hid/disp/display.h ****  *  
 213:../../libdaisy/src/hid/disp/display.h ****  */
 214:../../libdaisy/src/hid/disp/display.h **** template <class ChildType>
 215:../../libdaisy/src/hid/disp/display.h **** class OneBitGraphicsDisplayImpl : public OneBitGraphicsDisplay
 216:../../libdaisy/src/hid/disp/display.h **** {
 217:../../libdaisy/src/hid/disp/display.h ****   public:
 218:../../libdaisy/src/hid/disp/display.h ****     OneBitGraphicsDisplayImpl() {}
 219:../../libdaisy/src/hid/disp/display.h ****     virtual ~OneBitGraphicsDisplayImpl() {}
  42              		.loc 3 219 13 view .LVU2
  43              	.LBB709:
  44              	.LBI709:
  23:../../libdaisy/src/hid/disp/display.h **** 
  45              		.loc 3 23 13 view .LVU3
  23:../../libdaisy/src/hid/disp/display.h **** 
  46              		.loc 3 23 13 is_stmt 0 view .LVU4
  47              	.LBE709:
  48              	.LBE708:
  49              	.LBE707:
  50              	.LBB710:
  51              	.LBI710:
  52              		.file 4 "../../libdaisy/src/hid/midi.h"
   1:../../libdaisy/src/hid/midi.h **** #pragma once
   2:../../libdaisy/src/hid/midi.h **** #ifndef DSY_MIDI_H
   3:../../libdaisy/src/hid/midi.h **** #define DSY_MIDI_H
   4:../../libdaisy/src/hid/midi.h **** 
   5:../../libdaisy/src/hid/midi.h **** // TODO: make this adjustable
   6:../../libdaisy/src/hid/midi.h **** #define SYSEX_BUFFER_LEN 128
   7:../../libdaisy/src/hid/midi.h **** 
   8:../../libdaisy/src/hid/midi.h **** #include <stdint.h>
   9:../../libdaisy/src/hid/midi.h **** #include <stdlib.h>
  10:../../libdaisy/src/hid/midi.h **** #include "per/uart.h"
  11:../../libdaisy/src/hid/midi.h **** #include "util/ringbuffer.h"
  12:../../libdaisy/src/hid/midi.h **** #include "hid/MidiEvent.h"
ARM GAS  /tmp/ccobg3TQ.s 			page 7


  13:../../libdaisy/src/hid/midi.h **** #include "sys/system.h"
  14:../../libdaisy/src/hid/midi.h **** 
  15:../../libdaisy/src/hid/midi.h **** namespace daisy
  16:../../libdaisy/src/hid/midi.h **** {
  17:../../libdaisy/src/hid/midi.h **** /** @addtogroup external 
  18:../../libdaisy/src/hid/midi.h ****     @{ 
  19:../../libdaisy/src/hid/midi.h **** */
  20:../../libdaisy/src/hid/midi.h **** 
  21:../../libdaisy/src/hid/midi.h **** class MidiUartTransport
  22:../../libdaisy/src/hid/midi.h **** {
  23:../../libdaisy/src/hid/midi.h ****   public:
  24:../../libdaisy/src/hid/midi.h ****     MidiUartTransport() {}
  25:../../libdaisy/src/hid/midi.h ****     ~MidiUartTransport() {}
  26:../../libdaisy/src/hid/midi.h **** 
  27:../../libdaisy/src/hid/midi.h ****     struct Config
  28:../../libdaisy/src/hid/midi.h ****     {
  29:../../libdaisy/src/hid/midi.h ****         UartHandler::Config::Peripheral periph;
  30:../../libdaisy/src/hid/midi.h ****         dsy_gpio_pin                    rx;
  31:../../libdaisy/src/hid/midi.h ****         dsy_gpio_pin                    tx;
  32:../../libdaisy/src/hid/midi.h **** 
  33:../../libdaisy/src/hid/midi.h ****         Config()
  34:../../libdaisy/src/hid/midi.h ****         {
  35:../../libdaisy/src/hid/midi.h ****             periph = UartHandler::Config::Peripheral::USART_1;
  36:../../libdaisy/src/hid/midi.h ****             rx     = {DSY_GPIOB, 7};
  37:../../libdaisy/src/hid/midi.h ****             tx     = {DSY_GPIOB, 6};
  38:../../libdaisy/src/hid/midi.h ****         }
  39:../../libdaisy/src/hid/midi.h ****     };
  40:../../libdaisy/src/hid/midi.h **** 
  41:../../libdaisy/src/hid/midi.h ****     inline void Init(Config config)
  42:../../libdaisy/src/hid/midi.h ****     {
  43:../../libdaisy/src/hid/midi.h ****         UartHandler::Config uart_config;
  44:../../libdaisy/src/hid/midi.h **** 
  45:../../libdaisy/src/hid/midi.h ****         //defaults
  46:../../libdaisy/src/hid/midi.h ****         uart_config.baudrate   = 31250;
  47:../../libdaisy/src/hid/midi.h ****         uart_config.stopbits   = UartHandler::Config::StopBits::BITS_1;
  48:../../libdaisy/src/hid/midi.h ****         uart_config.parity     = UartHandler::Config::Parity::NONE;
  49:../../libdaisy/src/hid/midi.h ****         uart_config.mode       = UartHandler::Config::Mode::TX_RX;
  50:../../libdaisy/src/hid/midi.h ****         uart_config.wordlength = UartHandler::Config::WordLength::BITS_8;
  51:../../libdaisy/src/hid/midi.h **** 
  52:../../libdaisy/src/hid/midi.h ****         //user settings
  53:../../libdaisy/src/hid/midi.h ****         uart_config.periph        = config.periph;
  54:../../libdaisy/src/hid/midi.h ****         uart_config.pin_config.rx = config.rx;
  55:../../libdaisy/src/hid/midi.h ****         uart_config.pin_config.tx = config.tx;
  56:../../libdaisy/src/hid/midi.h **** 
  57:../../libdaisy/src/hid/midi.h ****         uart_.Init(uart_config);
  58:../../libdaisy/src/hid/midi.h ****     }
  59:../../libdaisy/src/hid/midi.h **** 
  60:../../libdaisy/src/hid/midi.h ****     inline void    StartRx() { uart_.StartRx(); }
  61:../../libdaisy/src/hid/midi.h ****     inline size_t  Readable() { return uart_.Readable(); }
  62:../../libdaisy/src/hid/midi.h ****     inline uint8_t Rx() { return uart_.PopRx(); }
  63:../../libdaisy/src/hid/midi.h ****     inline bool    RxActive() { return uart_.RxActive(); }
  64:../../libdaisy/src/hid/midi.h ****     inline void    FlushRx() { uart_.FlushRx(); }
  65:../../libdaisy/src/hid/midi.h ****     inline void    Tx(uint8_t* buff, size_t size) { uart_.PollTx(buff, size); }
  66:../../libdaisy/src/hid/midi.h **** 
  67:../../libdaisy/src/hid/midi.h ****   private:
  68:../../libdaisy/src/hid/midi.h ****     UartHandler uart_;
  69:../../libdaisy/src/hid/midi.h **** };
ARM GAS  /tmp/ccobg3TQ.s 			page 8


  70:../../libdaisy/src/hid/midi.h **** 
  71:../../libdaisy/src/hid/midi.h **** /** 
  72:../../libdaisy/src/hid/midi.h ****     @brief Simple MIDI Handler \n 
  73:../../libdaisy/src/hid/midi.h ****     Parses bytes from an input into valid MidiEvents. \n 
  74:../../libdaisy/src/hid/midi.h ****     The MidiEvents fill a FIFO queue that the user can pop messages from.
  75:../../libdaisy/src/hid/midi.h ****     @author shensley
  76:../../libdaisy/src/hid/midi.h ****     @date March 2020
  77:../../libdaisy/src/hid/midi.h **** */
  78:../../libdaisy/src/hid/midi.h **** template <typename Transport>
  79:../../libdaisy/src/hid/midi.h **** class MidiHandler
  80:../../libdaisy/src/hid/midi.h **** {
  81:../../libdaisy/src/hid/midi.h ****   public:
  82:../../libdaisy/src/hid/midi.h ****     MidiHandler() {}
  83:../../libdaisy/src/hid/midi.h ****     ~MidiHandler() {}
  53              		.loc 4 83 5 is_stmt 1 view .LVU5
  54              	.LBB711:
  55              	.LBI711:
  25:../../libdaisy/src/hid/midi.h **** 
  56              		.loc 4 25 5 view .LVU6
  25:../../libdaisy/src/hid/midi.h **** 
  57              		.loc 4 25 5 is_stmt 0 view .LVU7
  58              	.LBE711:
  59              	.LBE710:
  60              	.LBB712:
  61              	.LBI712:
  62              		.file 5 "../../libdaisy/src/hid/encoder.h"
   1:../../libdaisy/src/hid/encoder.h **** #pragma once
   2:../../libdaisy/src/hid/encoder.h **** #ifndef DSY_ENCODER_H
   3:../../libdaisy/src/hid/encoder.h **** #define DSY_ENCODER_H
   4:../../libdaisy/src/hid/encoder.h **** #include "daisy_core.h"
   5:../../libdaisy/src/hid/encoder.h **** #include "per/gpio.h"
   6:../../libdaisy/src/hid/encoder.h **** #include "hid/switch.h"
   7:../../libdaisy/src/hid/encoder.h **** 
   8:../../libdaisy/src/hid/encoder.h **** namespace daisy
   9:../../libdaisy/src/hid/encoder.h **** {
  10:../../libdaisy/src/hid/encoder.h **** /** 
  11:../../libdaisy/src/hid/encoder.h ****     @brief Generic Class for handling Quadrature Encoders \n 
  12:../../libdaisy/src/hid/encoder.h ****     Inspired/influenced by Mutable Instruments (pichenettes) Encoder classes
  13:../../libdaisy/src/hid/encoder.h ****     @author Stephen Hensley
  14:../../libdaisy/src/hid/encoder.h ****     @date December 2019
  15:../../libdaisy/src/hid/encoder.h ****     @ingroup controls
  16:../../libdaisy/src/hid/encoder.h **** */
  17:../../libdaisy/src/hid/encoder.h **** class Encoder
  18:../../libdaisy/src/hid/encoder.h **** {
  19:../../libdaisy/src/hid/encoder.h ****   public:
  20:../../libdaisy/src/hid/encoder.h ****     Encoder() {}
  21:../../libdaisy/src/hid/encoder.h ****     ~Encoder() {}
  63              		.loc 5 21 5 is_stmt 1 view .LVU8
  64              	.LBB713:
  65              	.LBI713:
  66              		.file 6 "../../libdaisy/src/hid/switch.h"
   1:../../libdaisy/src/hid/switch.h **** #pragma once
   2:../../libdaisy/src/hid/switch.h **** #ifndef DSY_SWITCH_H
   3:../../libdaisy/src/hid/switch.h **** #define DSY_SWITCH_H
   4:../../libdaisy/src/hid/switch.h **** #include "daisy_core.h"
   5:../../libdaisy/src/hid/switch.h **** #include "per/gpio.h"
   6:../../libdaisy/src/hid/switch.h **** 
ARM GAS  /tmp/ccobg3TQ.s 			page 9


   7:../../libdaisy/src/hid/switch.h **** namespace daisy
   8:../../libdaisy/src/hid/switch.h **** {
   9:../../libdaisy/src/hid/switch.h **** /** 
  10:../../libdaisy/src/hid/switch.h ****     Generic Class for handling momentary/latching switches \n 
  11:../../libdaisy/src/hid/switch.h ****     Inspired/influenced by Mutable Instruments (pichenettes) Switch classes
  12:../../libdaisy/src/hid/switch.h ****     @author Stephen Hensley
  13:../../libdaisy/src/hid/switch.h ****     @date December 2019
  14:../../libdaisy/src/hid/switch.h ****     @ingroup controls
  15:../../libdaisy/src/hid/switch.h **** */
  16:../../libdaisy/src/hid/switch.h **** class Switch
  17:../../libdaisy/src/hid/switch.h **** {
  18:../../libdaisy/src/hid/switch.h ****   public:
  19:../../libdaisy/src/hid/switch.h ****     /** Specifies the expected behavior of the switch */
  20:../../libdaisy/src/hid/switch.h ****     enum Type
  21:../../libdaisy/src/hid/switch.h ****     {
  22:../../libdaisy/src/hid/switch.h ****         TYPE_TOGGLE,    /**< & */
  23:../../libdaisy/src/hid/switch.h ****         TYPE_MOMENTARY, /**< & */
  24:../../libdaisy/src/hid/switch.h ****     };
  25:../../libdaisy/src/hid/switch.h ****     /** Specifies whether the pressed is HIGH or LOW. */
  26:../../libdaisy/src/hid/switch.h ****     enum Polarity
  27:../../libdaisy/src/hid/switch.h ****     {
  28:../../libdaisy/src/hid/switch.h ****         POLARITY_NORMAL,   /**< & */
  29:../../libdaisy/src/hid/switch.h ****         POLARITY_INVERTED, /**< & */
  30:../../libdaisy/src/hid/switch.h ****     };
  31:../../libdaisy/src/hid/switch.h **** 
  32:../../libdaisy/src/hid/switch.h ****     /** Specifies whether to use built-in Pull Up/Down resistors to hold button at a given state wh
  33:../../libdaisy/src/hid/switch.h ****     enum Pull
  34:../../libdaisy/src/hid/switch.h ****     {
  35:../../libdaisy/src/hid/switch.h ****         PULL_UP,   /**< & */
  36:../../libdaisy/src/hid/switch.h ****         PULL_DOWN, /**< & */
  37:../../libdaisy/src/hid/switch.h ****         PULL_NONE, /**< & */
  38:../../libdaisy/src/hid/switch.h ****     };
  39:../../libdaisy/src/hid/switch.h **** 
  40:../../libdaisy/src/hid/switch.h ****     Switch() {}
  41:../../libdaisy/src/hid/switch.h ****     ~Switch() {}
  67              		.loc 6 41 5 view .LVU9
  68              		.loc 6 41 5 is_stmt 0 view .LVU10
  69              	.LBE713:
  70              	.LBE712:
  71              	.LBB714:
  72              	.LBI714:
  73              		.file 7 "../../libdaisy/src/daisy_seed.h"
   1:../../libdaisy/src/daisy_seed.h **** #pragma once
   2:../../libdaisy/src/daisy_seed.h **** #ifndef DSY_SEED_H
   3:../../libdaisy/src/daisy_seed.h **** #define DSY_SEED_H
   4:../../libdaisy/src/daisy_seed.h **** 
   5:../../libdaisy/src/daisy_seed.h **** #include "daisy.h"
   6:../../libdaisy/src/daisy_seed.h **** 
   7:../../libdaisy/src/daisy_seed.h **** //Uncomment this out if you're still using the rev2 hardware
   8:../../libdaisy/src/daisy_seed.h **** //#define SEED_REV2
   9:../../libdaisy/src/daisy_seed.h **** 
  10:../../libdaisy/src/daisy_seed.h **** namespace daisy
  11:../../libdaisy/src/daisy_seed.h **** {
  12:../../libdaisy/src/daisy_seed.h **** /**
  13:../../libdaisy/src/daisy_seed.h ****    @brief This is the higher-level interface for the Daisy board. \n 
  14:../../libdaisy/src/daisy_seed.h ****     All basic peripheral configuration/initialization is setup here. \n
  15:../../libdaisy/src/daisy_seed.h **** 
ARM GAS  /tmp/ccobg3TQ.s 			page 10


  16:../../libdaisy/src/daisy_seed.h ****    @ingroup boards
  17:../../libdaisy/src/daisy_seed.h **** */
  18:../../libdaisy/src/daisy_seed.h **** class DaisySeed
  19:../../libdaisy/src/daisy_seed.h **** {
  20:../../libdaisy/src/daisy_seed.h ****   public:
  21:../../libdaisy/src/daisy_seed.h ****     DaisySeed() {}
  22:../../libdaisy/src/daisy_seed.h ****     ~DaisySeed() {}
  74              		.loc 7 22 5 is_stmt 1 view .LVU11
  75              	.LBB715:
  76              	.LBI715:
  77              		.file 8 "../../libdaisy/src/sys/system.h"
   1:../../libdaisy/src/sys/system.h **** #ifndef DSY_SYSTEM_H
   2:../../libdaisy/src/sys/system.h **** #define DSY_SYSTEM_H
   3:../../libdaisy/src/sys/system.h **** 
   4:../../libdaisy/src/sys/system.h **** #ifndef UNIT_TEST // for unit tests, a dummy implementation is provided below
   5:../../libdaisy/src/sys/system.h **** 
   6:../../libdaisy/src/sys/system.h **** #include <cstdint>
   7:../../libdaisy/src/sys/system.h **** #include "per/tim.h"
   8:../../libdaisy/src/sys/system.h **** 
   9:../../libdaisy/src/sys/system.h **** namespace daisy
  10:../../libdaisy/src/sys/system.h **** {
  11:../../libdaisy/src/sys/system.h **** /** A handle for interacting with the Core System. 
  12:../../libdaisy/src/sys/system.h ****  ** This includes the Clock tree, MPU, global DMA initialization,
  13:../../libdaisy/src/sys/system.h ****  ** cache handling, and any other necessary global initiailzation
  14:../../libdaisy/src/sys/system.h ****  **
  15:../../libdaisy/src/sys/system.h ****  ** @author shensley
  16:../../libdaisy/src/sys/system.h ****  ** @addtogroup system
  17:../../libdaisy/src/sys/system.h ****  */
  18:../../libdaisy/src/sys/system.h **** class System
  19:../../libdaisy/src/sys/system.h **** {
  20:../../libdaisy/src/sys/system.h ****   public:
  21:../../libdaisy/src/sys/system.h ****     /** Contains settings for initializing the System */
  22:../../libdaisy/src/sys/system.h ****     struct Config
  23:../../libdaisy/src/sys/system.h ****     {
  24:../../libdaisy/src/sys/system.h ****         /** Specifies the system clock frequency that feeds APB/AHB clocks, etc. */
  25:../../libdaisy/src/sys/system.h ****         enum class SysClkFreq
  26:../../libdaisy/src/sys/system.h ****         {
  27:../../libdaisy/src/sys/system.h ****             FREQ_400MHZ,
  28:../../libdaisy/src/sys/system.h ****             FREQ_480MHZ,
  29:../../libdaisy/src/sys/system.h ****         };
  30:../../libdaisy/src/sys/system.h **** 
  31:../../libdaisy/src/sys/system.h ****         /** Method to call on the struct to set to defaults
  32:../../libdaisy/src/sys/system.h ****          ** CPU Freq set to 400MHz
  33:../../libdaisy/src/sys/system.h ****          ** Cache Enabled 
  34:../../libdaisy/src/sys/system.h ****          ** */
  35:../../libdaisy/src/sys/system.h ****         void Defaults()
  36:../../libdaisy/src/sys/system.h ****         {
  37:../../libdaisy/src/sys/system.h ****             cpu_freq   = SysClkFreq::FREQ_400MHZ;
  38:../../libdaisy/src/sys/system.h ****             use_dcache = true;
  39:../../libdaisy/src/sys/system.h ****             use_icache = true;
  40:../../libdaisy/src/sys/system.h ****         }
  41:../../libdaisy/src/sys/system.h **** 
  42:../../libdaisy/src/sys/system.h ****         /** Method to call on the struct to set to boost mode:
  43:../../libdaisy/src/sys/system.h ****          ** CPU Freq set to 480MHz
  44:../../libdaisy/src/sys/system.h ****          ** Cache Enabled 
  45:../../libdaisy/src/sys/system.h ****          ** */
  46:../../libdaisy/src/sys/system.h ****         void Boost()
ARM GAS  /tmp/ccobg3TQ.s 			page 11


  47:../../libdaisy/src/sys/system.h ****         {
  48:../../libdaisy/src/sys/system.h ****             cpu_freq   = SysClkFreq::FREQ_480MHZ;
  49:../../libdaisy/src/sys/system.h ****             use_dcache = true;
  50:../../libdaisy/src/sys/system.h ****             use_icache = true;
  51:../../libdaisy/src/sys/system.h ****         }
  52:../../libdaisy/src/sys/system.h **** 
  53:../../libdaisy/src/sys/system.h ****         SysClkFreq cpu_freq;
  54:../../libdaisy/src/sys/system.h ****         bool       use_dcache;
  55:../../libdaisy/src/sys/system.h ****         bool       use_icache;
  56:../../libdaisy/src/sys/system.h ****     };
  57:../../libdaisy/src/sys/system.h **** 
  58:../../libdaisy/src/sys/system.h ****     System() {}
  59:../../libdaisy/src/sys/system.h ****     ~System() {}
  78              		.loc 8 59 5 view .LVU12
  79              		.loc 8 59 5 is_stmt 0 view .LVU13
  80              	.LBE715:
  81              	.LBB716:
  82              	.LBI716:
  83              		.file 9 "../../libdaisy/src/hid/usb.h"
   1:../../libdaisy/src/hid/usb.h **** #pragma once
   2:../../libdaisy/src/hid/usb.h **** #ifndef DSY_HID_USB_H
   3:../../libdaisy/src/hid/usb.h **** #define DSY_HID_USB_H
   4:../../libdaisy/src/hid/usb.h **** #include <stdint.h>
   5:../../libdaisy/src/hid/usb.h **** #include <stdlib.h>
   6:../../libdaisy/src/hid/usb.h **** 
   7:../../libdaisy/src/hid/usb.h **** namespace daisy
   8:../../libdaisy/src/hid/usb.h **** /** @addtogroup externals
   9:../../libdaisy/src/hid/usb.h ****     @{
  10:../../libdaisy/src/hid/usb.h **** */
  11:../../libdaisy/src/hid/usb.h **** 
  12:../../libdaisy/src/hid/usb.h **** {
  13:../../libdaisy/src/hid/usb.h **** /** 
  14:../../libdaisy/src/hid/usb.h ****     @brief Interface for initializing and using the USB Peripherals on the daisy
  15:../../libdaisy/src/hid/usb.h ****     @author Stephen Hensley
  16:../../libdaisy/src/hid/usb.h ****     @date December 2019
  17:../../libdaisy/src/hid/usb.h **** */
  18:../../libdaisy/src/hid/usb.h **** class UsbHandle
  19:../../libdaisy/src/hid/usb.h **** {
  20:../../libdaisy/src/hid/usb.h ****   public:
  21:../../libdaisy/src/hid/usb.h ****     /** Return values for USBHandle Functions */
  22:../../libdaisy/src/hid/usb.h ****     enum class Result
  23:../../libdaisy/src/hid/usb.h ****     {
  24:../../libdaisy/src/hid/usb.h ****         OK,
  25:../../libdaisy/src/hid/usb.h ****         ERR,
  26:../../libdaisy/src/hid/usb.h ****     };
  27:../../libdaisy/src/hid/usb.h **** 
  28:../../libdaisy/src/hid/usb.h ****     /** Specified which of the two USB Peripherals to initialize. */
  29:../../libdaisy/src/hid/usb.h ****     enum UsbPeriph
  30:../../libdaisy/src/hid/usb.h ****     {
  31:../../libdaisy/src/hid/usb.h ****         FS_INTERNAL, /**< Internal pin */
  32:../../libdaisy/src/hid/usb.h ****         FS_EXTERNAL, /**< FS External D+ pin is Pin 38 (GPIO32). FS External D- pin is Pin 37 (GPIO
  33:../../libdaisy/src/hid/usb.h ****         FS_BOTH,     /**< Both */
  34:../../libdaisy/src/hid/usb.h ****     };
  35:../../libdaisy/src/hid/usb.h **** 
  36:../../libdaisy/src/hid/usb.h **** 
  37:../../libdaisy/src/hid/usb.h ****     /** Function called upon reception of a buffer */
  38:../../libdaisy/src/hid/usb.h ****     typedef void (*ReceiveCallback)(uint8_t* buff, uint32_t* len);
ARM GAS  /tmp/ccobg3TQ.s 			page 12


  39:../../libdaisy/src/hid/usb.h **** 
  40:../../libdaisy/src/hid/usb.h ****     UsbHandle() {}
  41:../../libdaisy/src/hid/usb.h **** 
  42:../../libdaisy/src/hid/usb.h ****     ~UsbHandle() {}
  84              		.loc 9 42 5 is_stmt 1 view .LVU14
  85              		.loc 9 42 5 is_stmt 0 view .LVU15
  86              	.LBE716:
  87              	.LBB717:
  88              	.LBI717:
  89              		.file 10 "../../libdaisy/src/per/adc.h"
   1:../../libdaisy/src/per/adc.h **** #pragma once
   2:../../libdaisy/src/per/adc.h **** #ifndef DSY_ADC_H
   3:../../libdaisy/src/per/adc.h **** #define DSY_ADC_H /**< Macro */
   4:../../libdaisy/src/per/adc.h **** #include <stdint.h>
   5:../../libdaisy/src/per/adc.h **** #include <stdlib.h>
   6:../../libdaisy/src/per/adc.h **** #include "daisy_core.h"
   7:../../libdaisy/src/per/adc.h **** #include "per/gpio.h"
   8:../../libdaisy/src/per/adc.h **** 
   9:../../libdaisy/src/per/adc.h **** #define DSY_ADC_MAX_CHANNELS 14 /**< Maximum number of ADC channels */
  10:../../libdaisy/src/per/adc.h **** 
  11:../../libdaisy/src/per/adc.h **** namespace daisy
  12:../../libdaisy/src/per/adc.h **** {
  13:../../libdaisy/src/per/adc.h **** /** @addtogroup analog_digital_conversion
  14:../../libdaisy/src/per/adc.h ****     @{
  15:../../libdaisy/src/per/adc.h **** */
  16:../../libdaisy/src/per/adc.h **** 
  17:../../libdaisy/src/per/adc.h **** /* While there may not be many configuration options here,
  18:../../libdaisy/src/per/adc.h **** using a struct like this allows us to add more configuration
  19:../../libdaisy/src/per/adc.h **** later without breaking existing functionality.
  20:../../libdaisy/src/per/adc.h **** */
  21:../../libdaisy/src/per/adc.h **** 
  22:../../libdaisy/src/per/adc.h **** /** Configuration Structure for a given channel */
  23:../../libdaisy/src/per/adc.h **** struct AdcChannelConfig
  24:../../libdaisy/src/per/adc.h **** {
  25:../../libdaisy/src/per/adc.h ****     /** Which pin to use for multiplexing */
  26:../../libdaisy/src/per/adc.h ****     enum MuxPin
  27:../../libdaisy/src/per/adc.h ****     {
  28:../../libdaisy/src/per/adc.h ****         MUX_SEL_0,    /**< & */
  29:../../libdaisy/src/per/adc.h ****         MUX_SEL_1,    /**< & */
  30:../../libdaisy/src/per/adc.h ****         MUX_SEL_2,    /**< & */
  31:../../libdaisy/src/per/adc.h ****         MUX_SEL_LAST, /**< & */
  32:../../libdaisy/src/per/adc.h ****     };
  33:../../libdaisy/src/per/adc.h **** 
  34:../../libdaisy/src/per/adc.h ****     /** Initializes a single ADC pin as an ADC. 
  35:../../libdaisy/src/per/adc.h ****     \param pin Pin to init.
  36:../../libdaisy/src/per/adc.h ****      */
  37:../../libdaisy/src/per/adc.h ****     void InitSingle(dsy_gpio_pin pin);
  38:../../libdaisy/src/per/adc.h **** 
  39:../../libdaisy/src/per/adc.h ****     /** 
  40:../../libdaisy/src/per/adc.h ****     Initializes a single ADC pin as a Multiplexed ADC.
  41:../../libdaisy/src/per/adc.h ****     Requires a CD405X Multiplexer connected to the pin.
  42:../../libdaisy/src/per/adc.h ****     You only need to supply the mux pins that are required,
  43:../../libdaisy/src/per/adc.h ****     e.g. a 4052 mux would only require mux_0 and mux_1.
  44:../../libdaisy/src/per/adc.h ****     Internal Callbacks handle the pin addressing.
  45:../../libdaisy/src/per/adc.h ****     \param mux_channels must be 1-8
  46:../../libdaisy/src/per/adc.h ****     \param mux_0 First mux pin
  47:../../libdaisy/src/per/adc.h ****     \param mux_1 Second mux pin
ARM GAS  /tmp/ccobg3TQ.s 			page 13


  48:../../libdaisy/src/per/adc.h ****     \param mux_2 Third mux pin
  49:../../libdaisy/src/per/adc.h ****     \param adc_pin &
  50:../../libdaisy/src/per/adc.h ****     */
  51:../../libdaisy/src/per/adc.h ****     void InitMux(dsy_gpio_pin adc_pin,
  52:../../libdaisy/src/per/adc.h ****                  size_t       mux_channels,
  53:../../libdaisy/src/per/adc.h ****                  dsy_gpio_pin mux_0,
  54:../../libdaisy/src/per/adc.h ****                  dsy_gpio_pin mux_1 = {DSY_GPIOX, 0},
  55:../../libdaisy/src/per/adc.h ****                  dsy_gpio_pin mux_2 = {DSY_GPIOX, 0});
  56:../../libdaisy/src/per/adc.h **** 
  57:../../libdaisy/src/per/adc.h ****     dsy_gpio pin_;                   /**< & */
  58:../../libdaisy/src/per/adc.h ****     dsy_gpio mux_pin_[MUX_SEL_LAST]; /**< & */
  59:../../libdaisy/src/per/adc.h ****     uint8_t  mux_channels_;          /**< & */
  60:../../libdaisy/src/per/adc.h **** };
  61:../../libdaisy/src/per/adc.h **** 
  62:../../libdaisy/src/per/adc.h **** /**
  63:../../libdaisy/src/per/adc.h ****    Handler for analog to digital conversion
  64:../../libdaisy/src/per/adc.h **** */
  65:../../libdaisy/src/per/adc.h **** class AdcHandle
  66:../../libdaisy/src/per/adc.h **** {
  67:../../libdaisy/src/per/adc.h ****   public:
  68:../../libdaisy/src/per/adc.h ****     /** Supported oversampling amounts */
  69:../../libdaisy/src/per/adc.h ****     enum OverSampling
  70:../../libdaisy/src/per/adc.h ****     {
  71:../../libdaisy/src/per/adc.h ****         OVS_NONE, /**< & */
  72:../../libdaisy/src/per/adc.h ****         OVS_4,    /**< & */
  73:../../libdaisy/src/per/adc.h ****         OVS_8,    /**< & */
  74:../../libdaisy/src/per/adc.h ****         OVS_16,   /**< & */
  75:../../libdaisy/src/per/adc.h ****         OVS_32,   /**< & */
  76:../../libdaisy/src/per/adc.h ****         OVS_64,   /**< & */
  77:../../libdaisy/src/per/adc.h ****         OVS_128,  /**< & */
  78:../../libdaisy/src/per/adc.h ****         OVS_256,  /**< & */
  79:../../libdaisy/src/per/adc.h ****         OVS_512,  /**< & */
  80:../../libdaisy/src/per/adc.h ****         OVS_1024, /**< & */
  81:../../libdaisy/src/per/adc.h ****         OVS_LAST, /**< & */
  82:../../libdaisy/src/per/adc.h ****     };
  83:../../libdaisy/src/per/adc.h **** 
  84:../../libdaisy/src/per/adc.h ****     AdcHandle() {}
  85:../../libdaisy/src/per/adc.h ****     ~AdcHandle() {}
  90              		.loc 10 85 5 is_stmt 1 view .LVU16
  91              		.loc 10 85 5 is_stmt 0 view .LVU17
  92              	.LBE717:
  93              	.LBB718:
  94              	.LBI718:
  95              		.file 11 "../../libdaisy/src/hid/audio.h"
   1:../../libdaisy/src/hid/audio.h **** #ifndef DSY_AUDIO_H
   2:../../libdaisy/src/hid/audio.h **** #define DSY_AUDIO_H /**< & */
   3:../../libdaisy/src/hid/audio.h **** 
   4:../../libdaisy/src/hid/audio.h **** #include "per/sai.h"
   5:../../libdaisy/src/hid/audio.h **** 
   6:../../libdaisy/src/hid/audio.h **** namespace daisy
   7:../../libdaisy/src/hid/audio.h **** {
   8:../../libdaisy/src/hid/audio.h **** class AudioHandle
   9:../../libdaisy/src/hid/audio.h **** {
  10:../../libdaisy/src/hid/audio.h ****   public:
  11:../../libdaisy/src/hid/audio.h ****     /** Manually configurable details about the Audio Engine */
  12:../../libdaisy/src/hid/audio.h ****     /** TODO: Figure out how to get samplerate in here. */
  13:../../libdaisy/src/hid/audio.h ****     struct Config
ARM GAS  /tmp/ccobg3TQ.s 			page 14


  14:../../libdaisy/src/hid/audio.h ****     {
  15:../../libdaisy/src/hid/audio.h ****         size_t                        blocksize;
  16:../../libdaisy/src/hid/audio.h ****         SaiHandle::Config::SampleRate samplerate;
  17:../../libdaisy/src/hid/audio.h ****         float                         postgain;
  18:../../libdaisy/src/hid/audio.h ****     };
  19:../../libdaisy/src/hid/audio.h **** 
  20:../../libdaisy/src/hid/audio.h ****     enum class Result
  21:../../libdaisy/src/hid/audio.h ****     {
  22:../../libdaisy/src/hid/audio.h ****         OK,
  23:../../libdaisy/src/hid/audio.h ****         ERR,
  24:../../libdaisy/src/hid/audio.h ****     };
  25:../../libdaisy/src/hid/audio.h **** 
  26:../../libdaisy/src/hid/audio.h ****     /** Non-Interleaving input buffer
  27:../../libdaisy/src/hid/audio.h ****      * Buffer arranged by float[chn][sample] 
  28:../../libdaisy/src/hid/audio.h ****      * const so that the user can't modify the input
  29:../../libdaisy/src/hid/audio.h ****     */
  30:../../libdaisy/src/hid/audio.h ****     typedef const float* const* InputBuffer;
  31:../../libdaisy/src/hid/audio.h **** 
  32:../../libdaisy/src/hid/audio.h ****     /** Non-Interleaving output buffer
  33:../../libdaisy/src/hid/audio.h ****      * Arranged by float[chn][sample] 
  34:../../libdaisy/src/hid/audio.h ****     */
  35:../../libdaisy/src/hid/audio.h ****     typedef float** OutputBuffer;
  36:../../libdaisy/src/hid/audio.h **** 
  37:../../libdaisy/src/hid/audio.h ****     /** Type for a Non-Interleaving audio callback 
  38:../../libdaisy/src/hid/audio.h ****    * Non-Interleaving audio callbacks in daisy will be of this type
  39:../../libdaisy/src/hid/audio.h ****   */
  40:../../libdaisy/src/hid/audio.h ****     typedef void (*AudioCallback)(InputBuffer  in,
  41:../../libdaisy/src/hid/audio.h ****                                   OutputBuffer out,
  42:../../libdaisy/src/hid/audio.h ****                                   size_t       size);
  43:../../libdaisy/src/hid/audio.h **** 
  44:../../libdaisy/src/hid/audio.h ****     /** Interleaving Input buffer
  45:../../libdaisy/src/hid/audio.h ****      ** audio is prepared as { L0, R0, L1, R1, . . . LN, RN }]
  46:../../libdaisy/src/hid/audio.h ****      ** this is const, as the user shouldn't modify it
  47:../../libdaisy/src/hid/audio.h ****     */
  48:../../libdaisy/src/hid/audio.h ****     typedef const float* InterleavingInputBuffer;
  49:../../libdaisy/src/hid/audio.h **** 
  50:../../libdaisy/src/hid/audio.h ****     /** Interleaving Output buffer 
  51:../../libdaisy/src/hid/audio.h ****      ** audio is prepared as { L0, R0, L1, R1, . . . LN, RN }
  52:../../libdaisy/src/hid/audio.h ****     */
  53:../../libdaisy/src/hid/audio.h ****     typedef float* InterleavingOutputBuffer;
  54:../../libdaisy/src/hid/audio.h **** 
  55:../../libdaisy/src/hid/audio.h ****     /** Interleaving Audio Callback 
  56:../../libdaisy/src/hid/audio.h ****    * Interleaving audio callbacks in daisy must be of this type
  57:../../libdaisy/src/hid/audio.h ****   */
  58:../../libdaisy/src/hid/audio.h ****     typedef void (*InterleavingAudioCallback)(InterleavingInputBuffer  in,
  59:../../libdaisy/src/hid/audio.h ****                                               InterleavingOutputBuffer out,
  60:../../libdaisy/src/hid/audio.h ****                                               size_t                   size);
  61:../../libdaisy/src/hid/audio.h **** 
  62:../../libdaisy/src/hid/audio.h ****     AudioHandle() : pimpl_(nullptr) {}
  63:../../libdaisy/src/hid/audio.h ****     ~AudioHandle() {}
  96              		.loc 11 63 5 is_stmt 1 view .LVU18
  97              		.loc 11 63 5 is_stmt 0 view .LVU19
  98              	.LBE718:
  99              	.LBE714:
 100              		.loc 1 41 20 view .LVU20
 101 0000 7047     		bx	lr
 102              		.cfi_endproc
ARM GAS  /tmp/ccobg3TQ.s 			page 15


 103              	.LFE4230:
 105              		.weak	_ZN5daisy10DaisyPatchD1Ev
 106              		.thumb_set _ZN5daisy10DaisyPatchD1Ev,_ZN5daisy10DaisyPatchD2Ev
 107 0002 00BF     		.section	.text._ZN5daisy11OledDisplayINS_13SSD130xDriverILj128ELj64ENS_24SSD130x4WireSpiTransportE
 108              		.align	1
 109              		.p2align 2,,3
 110              		.weak	_ZN5daisy11OledDisplayINS_13SSD130xDriverILj128ELj64ENS_24SSD130x4WireSpiTransportEEEED2Ev
 111              		.syntax unified
 112              		.thumb
 113              		.thumb_func
 114              		.fpu fpv5-d16
 116              	_ZN5daisy11OledDisplayINS_13SSD130xDriverILj128ELj64ENS_24SSD130x4WireSpiTransportEEEED2Ev:
 117              	.LVL1:
 118              	.LFB4555:
 119              		.loc 2 17 13 is_stmt 1 view -0
 120              		.cfi_startproc
 121              		@ args = 0, pretend = 0, frame = 0
 122              		@ frame_needed = 0, uses_anonymous_args = 0
 123              		@ link register save eliminated.
 124              	.LBB719:
 125              	.LBI719:
 126              		.loc 3 219 13 view .LVU22
 127              	.LBB720:
 128              	.LBI720:
  23:../../libdaisy/src/hid/disp/display.h **** 
 129              		.loc 3 23 13 view .LVU23
  23:../../libdaisy/src/hid/disp/display.h **** 
 130              		.loc 3 23 13 is_stmt 0 view .LVU24
 131              	.LBE720:
 132              	.LBE719:
 133              		.loc 2 17 29 view .LVU25
 134 0000 7047     		bx	lr
 135              		.cfi_endproc
 136              	.LFE4555:
 138              		.weak	_ZN5daisy11OledDisplayINS_13SSD130xDriverILj128ELj64ENS_24SSD130x4WireSpiTransportEEEED1Ev
 139              		.thumb_set _ZN5daisy11OledDisplayINS_13SSD130xDriverILj128ELj64ENS_24SSD130x4WireSpiTransportEEEED
 140 0002 00BF     		.section	.text._ZN5daisy11OledDisplayINS_13SSD130xDriverILj128ELj64ENS_24SSD130x4WireSpiTransportE
 141              		.align	1
 142              		.p2align 2,,3
 143              		.weak	_ZN5daisy11OledDisplayINS_13SSD130xDriverILj128ELj64ENS_24SSD130x4WireSpiTransportEEEE4FillE
 144              		.syntax unified
 145              		.thumb
 146              		.thumb_func
 147              		.fpu fpv5-d16
 149              	_ZN5daisy11OledDisplayINS_13SSD130xDriverILj128ELj64ENS_24SSD130x4WireSpiTransportEEEE4FillEb:
 150              	.LVL2:
 151              	.LFB4558:
  18:../../libdaisy/src/hid/disp/oled_display.h **** 
  19:../../libdaisy/src/hid/disp/oled_display.h ****     struct Config
  20:../../libdaisy/src/hid/disp/oled_display.h ****     {
  21:../../libdaisy/src/hid/disp/oled_display.h ****         typename DisplayDriver::Config driver_config;
  22:../../libdaisy/src/hid/disp/oled_display.h ****     };
  23:../../libdaisy/src/hid/disp/oled_display.h **** 
  24:../../libdaisy/src/hid/disp/oled_display.h ****     void Init(Config config) { driver_.Init(config.driver_config); }
  25:../../libdaisy/src/hid/disp/oled_display.h **** 
  26:../../libdaisy/src/hid/disp/oled_display.h ****     uint16_t Height() const override { return driver_.Height(); }
  27:../../libdaisy/src/hid/disp/oled_display.h ****     uint16_t Width() const override { return driver_.Width(); }
ARM GAS  /tmp/ccobg3TQ.s 			page 16


  28:../../libdaisy/src/hid/disp/oled_display.h **** 
  29:../../libdaisy/src/hid/disp/oled_display.h ****     /** 
  30:../../libdaisy/src/hid/disp/oled_display.h ****     Fills the entire display with either on/off.
  31:../../libdaisy/src/hid/disp/oled_display.h ****     \param on Sets on or off.
  32:../../libdaisy/src/hid/disp/oled_display.h ****     */
  33:../../libdaisy/src/hid/disp/oled_display.h ****     void Fill(bool on) override { driver_.Fill(on); }
 152              		.loc 2 33 10 is_stmt 1 view -0
 153              		.cfi_startproc
 154              		@ args = 0, pretend = 0, frame = 0
 155              		@ frame_needed = 0, uses_anonymous_args = 0
 156              		@ link register save eliminated.
 157              	.LBB721:
 158              	.LBI721:
 159              		.file 12 "../../libdaisy/src/dev/oled_ssd130x.h"
   1:../../libdaisy/src/dev/oled_ssd130x.h **** #pragma once
   2:../../libdaisy/src/dev/oled_ssd130x.h **** #ifndef SA_OLED_SSD130X_H
   3:../../libdaisy/src/dev/oled_ssd130x.h **** #define SA_OLED_SSD130X_H /**< & */
   4:../../libdaisy/src/dev/oled_ssd130x.h **** 
   5:../../libdaisy/src/dev/oled_ssd130x.h **** #include "per/i2c.h"
   6:../../libdaisy/src/dev/oled_ssd130x.h **** #include "per/spi.h"
   7:../../libdaisy/src/dev/oled_ssd130x.h **** #include "per/gpio.h"
   8:../../libdaisy/src/dev/oled_ssd130x.h **** #include "sys/system.h"
   9:../../libdaisy/src/dev/oled_ssd130x.h **** 
  10:../../libdaisy/src/dev/oled_ssd130x.h **** namespace daisy
  11:../../libdaisy/src/dev/oled_ssd130x.h **** {
  12:../../libdaisy/src/dev/oled_ssd130x.h **** /**
  13:../../libdaisy/src/dev/oled_ssd130x.h ****  * I2C Transport for SSD1306 / SSD1309 OLED display devices
  14:../../libdaisy/src/dev/oled_ssd130x.h ****  */
  15:../../libdaisy/src/dev/oled_ssd130x.h **** class SSD130xI2CTransport
  16:../../libdaisy/src/dev/oled_ssd130x.h **** {
  17:../../libdaisy/src/dev/oled_ssd130x.h ****   public:
  18:../../libdaisy/src/dev/oled_ssd130x.h ****     struct Config
  19:../../libdaisy/src/dev/oled_ssd130x.h ****     {
  20:../../libdaisy/src/dev/oled_ssd130x.h ****         I2CHandle::Config i2c_config;
  21:../../libdaisy/src/dev/oled_ssd130x.h ****         uint8_t           i2c_address;
  22:../../libdaisy/src/dev/oled_ssd130x.h ****         void              Defaults()
  23:../../libdaisy/src/dev/oled_ssd130x.h ****         {
  24:../../libdaisy/src/dev/oled_ssd130x.h ****             i2c_config.periph         = I2CHandle::Config::Peripheral::I2C_1;
  25:../../libdaisy/src/dev/oled_ssd130x.h ****             i2c_config.speed          = I2CHandle::Config::Speed::I2C_1MHZ;
  26:../../libdaisy/src/dev/oled_ssd130x.h ****             i2c_config.mode           = I2CHandle::Config::Mode::I2C_MASTER;
  27:../../libdaisy/src/dev/oled_ssd130x.h ****             i2c_config.pin_config.scl = {DSY_GPIOB, 8};
  28:../../libdaisy/src/dev/oled_ssd130x.h ****             i2c_config.pin_config.sda = {DSY_GPIOB, 9};
  29:../../libdaisy/src/dev/oled_ssd130x.h ****             i2c_address               = 0x3C;
  30:../../libdaisy/src/dev/oled_ssd130x.h ****         }
  31:../../libdaisy/src/dev/oled_ssd130x.h ****     };
  32:../../libdaisy/src/dev/oled_ssd130x.h ****     void Init(const Config& config)
  33:../../libdaisy/src/dev/oled_ssd130x.h ****     {
  34:../../libdaisy/src/dev/oled_ssd130x.h ****         i2c_address_ = config.i2c_address;
  35:../../libdaisy/src/dev/oled_ssd130x.h ****         i2c_.Init(config.i2c_config);
  36:../../libdaisy/src/dev/oled_ssd130x.h ****     };
  37:../../libdaisy/src/dev/oled_ssd130x.h ****     void SendCommand(uint8_t cmd)
  38:../../libdaisy/src/dev/oled_ssd130x.h ****     {
  39:../../libdaisy/src/dev/oled_ssd130x.h ****         uint8_t buf[2] = {0X00, cmd};
  40:../../libdaisy/src/dev/oled_ssd130x.h ****         i2c_.TransmitBlocking(i2c_address_, buf, 2, 1000);
  41:../../libdaisy/src/dev/oled_ssd130x.h ****     };
  42:../../libdaisy/src/dev/oled_ssd130x.h **** 
  43:../../libdaisy/src/dev/oled_ssd130x.h ****     void SendData(uint8_t* buff, size_t size)
ARM GAS  /tmp/ccobg3TQ.s 			page 17


  44:../../libdaisy/src/dev/oled_ssd130x.h ****     {
  45:../../libdaisy/src/dev/oled_ssd130x.h ****         for(size_t i = 0; i < size; i++)
  46:../../libdaisy/src/dev/oled_ssd130x.h ****         {
  47:../../libdaisy/src/dev/oled_ssd130x.h ****             uint8_t buf[2] = {0X40, buff[i]};
  48:../../libdaisy/src/dev/oled_ssd130x.h ****             i2c_.TransmitBlocking(i2c_address_, buf, 2, 1000);
  49:../../libdaisy/src/dev/oled_ssd130x.h ****         }
  50:../../libdaisy/src/dev/oled_ssd130x.h ****     };
  51:../../libdaisy/src/dev/oled_ssd130x.h **** 
  52:../../libdaisy/src/dev/oled_ssd130x.h ****   private:
  53:../../libdaisy/src/dev/oled_ssd130x.h ****     daisy::I2CHandle i2c_;
  54:../../libdaisy/src/dev/oled_ssd130x.h ****     uint8_t          i2c_address_;
  55:../../libdaisy/src/dev/oled_ssd130x.h **** };
  56:../../libdaisy/src/dev/oled_ssd130x.h **** 
  57:../../libdaisy/src/dev/oled_ssd130x.h **** /**
  58:../../libdaisy/src/dev/oled_ssd130x.h ****  * 4 Wire SPI Transport for SSD1306 / SSD1309 OLED display devices
  59:../../libdaisy/src/dev/oled_ssd130x.h ****  */
  60:../../libdaisy/src/dev/oled_ssd130x.h **** class SSD130x4WireSpiTransport
  61:../../libdaisy/src/dev/oled_ssd130x.h **** {
  62:../../libdaisy/src/dev/oled_ssd130x.h ****   public:
  63:../../libdaisy/src/dev/oled_ssd130x.h ****     struct Config
  64:../../libdaisy/src/dev/oled_ssd130x.h ****     {
  65:../../libdaisy/src/dev/oled_ssd130x.h ****         struct
  66:../../libdaisy/src/dev/oled_ssd130x.h ****         {
  67:../../libdaisy/src/dev/oled_ssd130x.h ****             dsy_gpio_pin dc;    /**< & */
  68:../../libdaisy/src/dev/oled_ssd130x.h ****             dsy_gpio_pin reset; /**< & */
  69:../../libdaisy/src/dev/oled_ssd130x.h ****         } pin_config;
  70:../../libdaisy/src/dev/oled_ssd130x.h ****         void Defaults()
  71:../../libdaisy/src/dev/oled_ssd130x.h ****         {
  72:../../libdaisy/src/dev/oled_ssd130x.h ****             pin_config.dc    = {DSY_GPIOB, 4};
  73:../../libdaisy/src/dev/oled_ssd130x.h ****             pin_config.reset = {DSY_GPIOB, 15};
  74:../../libdaisy/src/dev/oled_ssd130x.h ****         }
  75:../../libdaisy/src/dev/oled_ssd130x.h ****     };
  76:../../libdaisy/src/dev/oled_ssd130x.h ****     void Init(const Config& config)
  77:../../libdaisy/src/dev/oled_ssd130x.h ****     {
  78:../../libdaisy/src/dev/oled_ssd130x.h ****         // Initialize both GPIO
  79:../../libdaisy/src/dev/oled_ssd130x.h ****         pin_dc_.mode = DSY_GPIO_MODE_OUTPUT_PP;
  80:../../libdaisy/src/dev/oled_ssd130x.h ****         pin_dc_.pin  = config.pin_config.dc;
  81:../../libdaisy/src/dev/oled_ssd130x.h ****         dsy_gpio_init(&pin_dc_);
  82:../../libdaisy/src/dev/oled_ssd130x.h ****         pin_reset_.mode = DSY_GPIO_MODE_OUTPUT_PP;
  83:../../libdaisy/src/dev/oled_ssd130x.h ****         pin_reset_.pin  = config.pin_config.reset;
  84:../../libdaisy/src/dev/oled_ssd130x.h ****         dsy_gpio_init(&pin_reset_);
  85:../../libdaisy/src/dev/oled_ssd130x.h ****         // Initialize SPI
  86:../../libdaisy/src/dev/oled_ssd130x.h ****         SpiHandle::Config spi_config;
  87:../../libdaisy/src/dev/oled_ssd130x.h ****         spi_config.periph    = SpiHandle::Config::Peripheral::SPI_1;
  88:../../libdaisy/src/dev/oled_ssd130x.h ****         spi_config.mode      = SpiHandle::Config::Mode::MASTER;
  89:../../libdaisy/src/dev/oled_ssd130x.h ****         spi_config.direction = SpiHandle::Config::Direction::TWO_LINES_TX_ONLY;
  90:../../libdaisy/src/dev/oled_ssd130x.h ****         spi_config.datasize  = 8;
  91:../../libdaisy/src/dev/oled_ssd130x.h ****         spi_config.clock_polarity = SpiHandle::Config::ClockPolarity::LOW;
  92:../../libdaisy/src/dev/oled_ssd130x.h ****         spi_config.clock_phase    = SpiHandle::Config::ClockPhase::ONE_EDGE;
  93:../../libdaisy/src/dev/oled_ssd130x.h ****         spi_config.nss            = SpiHandle::Config::NSS::HARD_OUTPUT;
  94:../../libdaisy/src/dev/oled_ssd130x.h ****         spi_config.baud_prescaler = SpiHandle::Config::BaudPrescaler::PS_8;
  95:../../libdaisy/src/dev/oled_ssd130x.h **** 
  96:../../libdaisy/src/dev/oled_ssd130x.h ****         spi_config.pin_config.sclk = {DSY_GPIOG, 11};
  97:../../libdaisy/src/dev/oled_ssd130x.h ****         spi_config.pin_config.miso = {DSY_GPIOX, 0};
  98:../../libdaisy/src/dev/oled_ssd130x.h ****         spi_config.pin_config.mosi = {DSY_GPIOB, 5};
  99:../../libdaisy/src/dev/oled_ssd130x.h ****         spi_config.pin_config.nss  = {DSY_GPIOG, 10};
 100:../../libdaisy/src/dev/oled_ssd130x.h **** 
ARM GAS  /tmp/ccobg3TQ.s 			page 18


 101:../../libdaisy/src/dev/oled_ssd130x.h ****         spi_.Init(spi_config);
 102:../../libdaisy/src/dev/oled_ssd130x.h **** 
 103:../../libdaisy/src/dev/oled_ssd130x.h ****         // Reset and Configure OLED.
 104:../../libdaisy/src/dev/oled_ssd130x.h ****         dsy_gpio_write(&pin_reset_, 0);
 105:../../libdaisy/src/dev/oled_ssd130x.h ****         System::Delay(10);
 106:../../libdaisy/src/dev/oled_ssd130x.h ****         dsy_gpio_write(&pin_reset_, 1);
 107:../../libdaisy/src/dev/oled_ssd130x.h ****         System::Delay(10);
 108:../../libdaisy/src/dev/oled_ssd130x.h ****     };
 109:../../libdaisy/src/dev/oled_ssd130x.h ****     void SendCommand(uint8_t cmd)
 110:../../libdaisy/src/dev/oled_ssd130x.h ****     {
 111:../../libdaisy/src/dev/oled_ssd130x.h ****         dsy_gpio_write(&pin_dc_, 0);
 112:../../libdaisy/src/dev/oled_ssd130x.h ****         spi_.BlockingTransmit(&cmd, 1);
 113:../../libdaisy/src/dev/oled_ssd130x.h ****     };
 114:../../libdaisy/src/dev/oled_ssd130x.h **** 
 115:../../libdaisy/src/dev/oled_ssd130x.h ****     void SendData(uint8_t* buff, size_t size)
 116:../../libdaisy/src/dev/oled_ssd130x.h ****     {
 117:../../libdaisy/src/dev/oled_ssd130x.h ****         dsy_gpio_write(&pin_dc_, 1);
 118:../../libdaisy/src/dev/oled_ssd130x.h ****         spi_.BlockingTransmit(buff, size);
 119:../../libdaisy/src/dev/oled_ssd130x.h ****     };
 120:../../libdaisy/src/dev/oled_ssd130x.h **** 
 121:../../libdaisy/src/dev/oled_ssd130x.h ****   private:
 122:../../libdaisy/src/dev/oled_ssd130x.h ****     SpiHandle spi_;
 123:../../libdaisy/src/dev/oled_ssd130x.h ****     dsy_gpio  pin_reset_;
 124:../../libdaisy/src/dev/oled_ssd130x.h ****     dsy_gpio  pin_dc_;
 125:../../libdaisy/src/dev/oled_ssd130x.h **** };
 126:../../libdaisy/src/dev/oled_ssd130x.h **** 
 127:../../libdaisy/src/dev/oled_ssd130x.h **** 
 128:../../libdaisy/src/dev/oled_ssd130x.h **** /**
 129:../../libdaisy/src/dev/oled_ssd130x.h ****  * A driver implementation for the SSD1306/SSD1309
 130:../../libdaisy/src/dev/oled_ssd130x.h ****  */
 131:../../libdaisy/src/dev/oled_ssd130x.h **** template <size_t width, size_t height, typename Transport>
 132:../../libdaisy/src/dev/oled_ssd130x.h **** class SSD130xDriver
 133:../../libdaisy/src/dev/oled_ssd130x.h **** {
 134:../../libdaisy/src/dev/oled_ssd130x.h ****   public:
 135:../../libdaisy/src/dev/oled_ssd130x.h ****     struct Config
 136:../../libdaisy/src/dev/oled_ssd130x.h ****     {
 137:../../libdaisy/src/dev/oled_ssd130x.h ****         typename Transport::Config transport_config;
 138:../../libdaisy/src/dev/oled_ssd130x.h ****     };
 139:../../libdaisy/src/dev/oled_ssd130x.h **** 
 140:../../libdaisy/src/dev/oled_ssd130x.h ****     void Init(Config config)
 141:../../libdaisy/src/dev/oled_ssd130x.h ****     {
 142:../../libdaisy/src/dev/oled_ssd130x.h ****         transport_.Init(config.transport_config);
 143:../../libdaisy/src/dev/oled_ssd130x.h **** 
 144:../../libdaisy/src/dev/oled_ssd130x.h ****         // Init routine...
 145:../../libdaisy/src/dev/oled_ssd130x.h **** 
 146:../../libdaisy/src/dev/oled_ssd130x.h ****         // Display Off
 147:../../libdaisy/src/dev/oled_ssd130x.h ****         transport_.SendCommand(0xaE);
 148:../../libdaisy/src/dev/oled_ssd130x.h ****         // Dimension dependent commands...
 149:../../libdaisy/src/dev/oled_ssd130x.h ****         switch(height)
 150:../../libdaisy/src/dev/oled_ssd130x.h ****         {
 151:../../libdaisy/src/dev/oled_ssd130x.h ****             case 16:
 152:../../libdaisy/src/dev/oled_ssd130x.h ****                 // Display Clock Divide Ratio
 153:../../libdaisy/src/dev/oled_ssd130x.h ****                 transport_.SendCommand(0xD5);
 154:../../libdaisy/src/dev/oled_ssd130x.h ****                 transport_.SendCommand(0x60);
 155:../../libdaisy/src/dev/oled_ssd130x.h ****                 // Multiplex Ratio
 156:../../libdaisy/src/dev/oled_ssd130x.h ****                 transport_.SendCommand(0xA8);
 157:../../libdaisy/src/dev/oled_ssd130x.h ****                 transport_.SendCommand(0x0F);
ARM GAS  /tmp/ccobg3TQ.s 			page 19


 158:../../libdaisy/src/dev/oled_ssd130x.h ****                 // COM Pins
 159:../../libdaisy/src/dev/oled_ssd130x.h ****                 transport_.SendCommand(0xDA);
 160:../../libdaisy/src/dev/oled_ssd130x.h ****                 transport_.SendCommand(0x02);
 161:../../libdaisy/src/dev/oled_ssd130x.h ****                 break;
 162:../../libdaisy/src/dev/oled_ssd130x.h ****             case 32:
 163:../../libdaisy/src/dev/oled_ssd130x.h ****                 // Display Clock Divide Ratio
 164:../../libdaisy/src/dev/oled_ssd130x.h ****                 transport_.SendCommand(0xD5);
 165:../../libdaisy/src/dev/oled_ssd130x.h ****                 transport_.SendCommand(0x80);
 166:../../libdaisy/src/dev/oled_ssd130x.h ****                 // Multiplex Ratio
 167:../../libdaisy/src/dev/oled_ssd130x.h ****                 transport_.SendCommand(0xA8);
 168:../../libdaisy/src/dev/oled_ssd130x.h ****                 transport_.SendCommand(0x1F);
 169:../../libdaisy/src/dev/oled_ssd130x.h ****                 // COM Pins
 170:../../libdaisy/src/dev/oled_ssd130x.h ****                 transport_.SendCommand(0xDA);
 171:../../libdaisy/src/dev/oled_ssd130x.h ****                 if(width == 64)
 172:../../libdaisy/src/dev/oled_ssd130x.h ****                 {
 173:../../libdaisy/src/dev/oled_ssd130x.h ****                     transport_.SendCommand(0x12);
 174:../../libdaisy/src/dev/oled_ssd130x.h ****                 }
 175:../../libdaisy/src/dev/oled_ssd130x.h ****                 else
 176:../../libdaisy/src/dev/oled_ssd130x.h ****                 {
 177:../../libdaisy/src/dev/oled_ssd130x.h ****                     transport_.SendCommand(0x02);
 178:../../libdaisy/src/dev/oled_ssd130x.h ****                 }
 179:../../libdaisy/src/dev/oled_ssd130x.h **** 
 180:../../libdaisy/src/dev/oled_ssd130x.h ****                 break;
 181:../../libdaisy/src/dev/oled_ssd130x.h ****             case 48:
 182:../../libdaisy/src/dev/oled_ssd130x.h ****                 // Display Clock Divide Ratio
 183:../../libdaisy/src/dev/oled_ssd130x.h ****                 transport_.SendCommand(0xD5);
 184:../../libdaisy/src/dev/oled_ssd130x.h ****                 transport_.SendCommand(0x80);
 185:../../libdaisy/src/dev/oled_ssd130x.h ****                 // Multiplex Ratio
 186:../../libdaisy/src/dev/oled_ssd130x.h ****                 transport_.SendCommand(0xA8);
 187:../../libdaisy/src/dev/oled_ssd130x.h ****                 transport_.SendCommand(0x2F);
 188:../../libdaisy/src/dev/oled_ssd130x.h ****                 // COM Pins
 189:../../libdaisy/src/dev/oled_ssd130x.h ****                 transport_.SendCommand(0xDA);
 190:../../libdaisy/src/dev/oled_ssd130x.h ****                 transport_.SendCommand(0x12);
 191:../../libdaisy/src/dev/oled_ssd130x.h ****                 break;
 192:../../libdaisy/src/dev/oled_ssd130x.h ****             default: // 128
 193:../../libdaisy/src/dev/oled_ssd130x.h ****                 // Display Clock Divide Ratio
 194:../../libdaisy/src/dev/oled_ssd130x.h ****                 transport_.SendCommand(0xD5);
 195:../../libdaisy/src/dev/oled_ssd130x.h ****                 transport_.SendCommand(0x80);
 196:../../libdaisy/src/dev/oled_ssd130x.h ****                 // Multiplex Ratio
 197:../../libdaisy/src/dev/oled_ssd130x.h ****                 transport_.SendCommand(0xA8);
 198:../../libdaisy/src/dev/oled_ssd130x.h ****                 transport_.SendCommand(0x3F);
 199:../../libdaisy/src/dev/oled_ssd130x.h ****                 // COM Pins
 200:../../libdaisy/src/dev/oled_ssd130x.h ****                 transport_.SendCommand(0xDA);
 201:../../libdaisy/src/dev/oled_ssd130x.h ****                 transport_.SendCommand(0x12);
 202:../../libdaisy/src/dev/oled_ssd130x.h ****                 break;
 203:../../libdaisy/src/dev/oled_ssd130x.h ****         }
 204:../../libdaisy/src/dev/oled_ssd130x.h **** 
 205:../../libdaisy/src/dev/oled_ssd130x.h ****         // Display Offset
 206:../../libdaisy/src/dev/oled_ssd130x.h ****         transport_.SendCommand(0xD3);
 207:../../libdaisy/src/dev/oled_ssd130x.h ****         transport_.SendCommand(0x00);
 208:../../libdaisy/src/dev/oled_ssd130x.h ****         // Start Line Address
 209:../../libdaisy/src/dev/oled_ssd130x.h ****         transport_.SendCommand(0x40);
 210:../../libdaisy/src/dev/oled_ssd130x.h ****         // Normal Display
 211:../../libdaisy/src/dev/oled_ssd130x.h ****         transport_.SendCommand(0xA6);
 212:../../libdaisy/src/dev/oled_ssd130x.h ****         // All On Resume
 213:../../libdaisy/src/dev/oled_ssd130x.h ****         transport_.SendCommand(0xA4);
 214:../../libdaisy/src/dev/oled_ssd130x.h ****         // Charge Pump
ARM GAS  /tmp/ccobg3TQ.s 			page 20


 215:../../libdaisy/src/dev/oled_ssd130x.h ****         transport_.SendCommand(0x8D);
 216:../../libdaisy/src/dev/oled_ssd130x.h ****         transport_.SendCommand(0x14);
 217:../../libdaisy/src/dev/oled_ssd130x.h ****         // Set Segment Remap
 218:../../libdaisy/src/dev/oled_ssd130x.h ****         transport_.SendCommand(0xA1);
 219:../../libdaisy/src/dev/oled_ssd130x.h ****         // COM Output Scan Direction
 220:../../libdaisy/src/dev/oled_ssd130x.h ****         transport_.SendCommand(0xC8);
 221:../../libdaisy/src/dev/oled_ssd130x.h ****         // Contrast Control
 222:../../libdaisy/src/dev/oled_ssd130x.h ****         transport_.SendCommand(0x81);
 223:../../libdaisy/src/dev/oled_ssd130x.h ****         transport_.SendCommand(0x8F);
 224:../../libdaisy/src/dev/oled_ssd130x.h ****         // Pre Charge
 225:../../libdaisy/src/dev/oled_ssd130x.h ****         transport_.SendCommand(0xD9);
 226:../../libdaisy/src/dev/oled_ssd130x.h ****         transport_.SendCommand(0x25);
 227:../../libdaisy/src/dev/oled_ssd130x.h ****         // VCOM Detect
 228:../../libdaisy/src/dev/oled_ssd130x.h ****         transport_.SendCommand(0xDB);
 229:../../libdaisy/src/dev/oled_ssd130x.h ****         transport_.SendCommand(0x34);
 230:../../libdaisy/src/dev/oled_ssd130x.h **** 
 231:../../libdaisy/src/dev/oled_ssd130x.h **** 
 232:../../libdaisy/src/dev/oled_ssd130x.h ****         // Display On
 233:../../libdaisy/src/dev/oled_ssd130x.h ****         transport_.SendCommand(0xAF); //--turn on oled panel
 234:../../libdaisy/src/dev/oled_ssd130x.h ****     };
 235:../../libdaisy/src/dev/oled_ssd130x.h **** 
 236:../../libdaisy/src/dev/oled_ssd130x.h ****     size_t Width() const { return width; };
 237:../../libdaisy/src/dev/oled_ssd130x.h ****     size_t Height() const { return height; };
 238:../../libdaisy/src/dev/oled_ssd130x.h **** 
 239:../../libdaisy/src/dev/oled_ssd130x.h ****     void DrawPixel(uint_fast8_t x, uint_fast8_t y, bool on)
 240:../../libdaisy/src/dev/oled_ssd130x.h ****     {
 241:../../libdaisy/src/dev/oled_ssd130x.h ****         if(x >= width || y >= height)
 242:../../libdaisy/src/dev/oled_ssd130x.h ****             return;
 243:../../libdaisy/src/dev/oled_ssd130x.h ****         if(on)
 244:../../libdaisy/src/dev/oled_ssd130x.h ****             buffer_[x + (y / 8) * width] |= (1 << (y % 8));
 245:../../libdaisy/src/dev/oled_ssd130x.h ****         else
 246:../../libdaisy/src/dev/oled_ssd130x.h ****             buffer_[x + (y / 8) * width] &= ~(1 << (y % 8));
 247:../../libdaisy/src/dev/oled_ssd130x.h ****     }
 248:../../libdaisy/src/dev/oled_ssd130x.h **** 
 249:../../libdaisy/src/dev/oled_ssd130x.h ****     void Fill(bool on)
 160              		.loc 12 249 10 view .LVU27
 161              	.LBB722:
 250:../../libdaisy/src/dev/oled_ssd130x.h ****     {
 251:../../libdaisy/src/dev/oled_ssd130x.h ****         for(size_t i = 0; i < sizeof(buffer_); i++)
 162              		.loc 12 251 29 view .LVU28
 163 0000 4942     		rsbs	r1, r1, #0
 164              	.LVL3:
 165              		.loc 12 251 29 is_stmt 0 view .LVU29
 166 0002 00F11303 		add	r3, r0, #19
 167 0006 00F21342 		addw	r2, r0, #1043
 168 000a C9B2     		uxtb	r1, r1
 169              	.LVL4:
 170              	.L5:
 252:../../libdaisy/src/dev/oled_ssd130x.h ****         {
 253:../../libdaisy/src/dev/oled_ssd130x.h ****             buffer_[i] = on ? 0xff : 0x00;
 171              		.loc 12 253 13 view .LVU30
 172 000c 03F8011F 		strb	r1, [r3, #1]!
 173              	.LVL5:
 251:../../libdaisy/src/dev/oled_ssd130x.h ****         {
 174              		.loc 12 251 9 is_stmt 1 view .LVU31
 251:../../libdaisy/src/dev/oled_ssd130x.h ****         {
 175              		.loc 12 251 29 view .LVU32
ARM GAS  /tmp/ccobg3TQ.s 			page 21


 176 0010 9342     		cmp	r3, r2
 177 0012 FBD1     		bne	.L5
 178              	.LBE722:
 179              	.LBE721:
 180              		.loc 2 33 53 is_stmt 0 view .LVU33
 181 0014 7047     		bx	lr
 182              		.cfi_endproc
 183              	.LFE4558:
 185 0016 00BF     		.section	.text.__tcf_0,"ax",%progbits
 186              		.align	1
 187              		.p2align 2,,3
 188              		.syntax unified
 189              		.thumb
 190              		.thumb_func
 191              		.fpu fpv5-d16
 193              	__tcf_0:
 194              	.LFB4833:
 195              		.file 13 "SampleAndHold.cpp"
   1:SampleAndHold.cpp **** #include "daisysp.h"
   2:SampleAndHold.cpp **** #include "daisy_patch.h"
   3:SampleAndHold.cpp **** #include <string>
   4:SampleAndHold.cpp **** 
   5:SampleAndHold.cpp **** using namespace daisy;
   6:SampleAndHold.cpp **** using namespace daisysp;
   7:SampleAndHold.cpp **** 
   8:SampleAndHold.cpp **** DaisyPatch patch;
   9:SampleAndHold.cpp **** 
  10:SampleAndHold.cpp **** struct sampHoldStruct
  11:SampleAndHold.cpp **** {
  12:SampleAndHold.cpp ****     SampleHold       sampHold;
  13:SampleAndHold.cpp ****     SampleHold::Mode mode;
  14:SampleAndHold.cpp ****     float            output;
  15:SampleAndHold.cpp **** 
  16:SampleAndHold.cpp ****     void Process(bool trigger, float input)
  17:SampleAndHold.cpp ****     {
  18:SampleAndHold.cpp ****         output = sampHold.Process(trigger, input, mode);
  19:SampleAndHold.cpp ****     }
  20:SampleAndHold.cpp **** };
  21:SampleAndHold.cpp **** 
  22:SampleAndHold.cpp **** sampHoldStruct sampHolds[2];
 196              		.loc 13 22 16 is_stmt 1 view -0
 197              		.cfi_startproc
 198              		@ args = 0, pretend = 0, frame = 0
 199              		@ frame_needed = 0, uses_anonymous_args = 0
 200              		@ link register save eliminated.
 201              		.loc 13 22 16 is_stmt 0 view .LVU35
 202 0000 7047     		bx	lr
 203              		.cfi_endproc
 204              	.LFE4833:
 206 0002 00BF     		.section	.text._ZNK5daisy11OledDisplayINS_13SSD130xDriverILj128ELj64ENS_24SSD130x4WireSpiTransport
 207              		.align	1
 208              		.p2align 2,,3
 209              		.weak	_ZNK5daisy11OledDisplayINS_13SSD130xDriverILj128ELj64ENS_24SSD130x4WireSpiTransportEEEE6Heig
 210              		.syntax unified
 211              		.thumb
 212              		.thumb_func
 213              		.fpu fpv5-d16
ARM GAS  /tmp/ccobg3TQ.s 			page 22


 215              	_ZNK5daisy11OledDisplayINS_13SSD130xDriverILj128ELj64ENS_24SSD130x4WireSpiTransportEEEE6HeightEv:
 216              	.LVL6:
 217              	.LFB4834:
  26:../../libdaisy/src/hid/disp/oled_display.h ****     uint16_t Width() const override { return driver_.Width(); }
 218              		.loc 2 26 14 is_stmt 1 view -0
 219              		.cfi_startproc
 220              		@ args = 0, pretend = 0, frame = 0
 221              		@ frame_needed = 0, uses_anonymous_args = 0
 222              		@ link register save eliminated.
  26:../../libdaisy/src/hid/disp/oled_display.h ****     uint16_t Width() const override { return driver_.Width(); }
 223              		.loc 2 26 65 is_stmt 0 view .LVU37
 224 0000 4020     		movs	r0, #64
 225              	.LVL7:
  26:../../libdaisy/src/hid/disp/oled_display.h ****     uint16_t Width() const override { return driver_.Width(); }
 226              		.loc 2 26 65 view .LVU38
 227 0002 7047     		bx	lr
 228              		.cfi_endproc
 229              	.LFE4834:
 231              		.section	.text._ZNK5daisy11OledDisplayINS_13SSD130xDriverILj128ELj64ENS_24SSD130x4WireSpiTransport
 232              		.align	1
 233              		.p2align 2,,3
 234              		.weak	_ZNK5daisy11OledDisplayINS_13SSD130xDriverILj128ELj64ENS_24SSD130x4WireSpiTransportEEEE5Widt
 235              		.syntax unified
 236              		.thumb
 237              		.thumb_func
 238              		.fpu fpv5-d16
 240              	_ZNK5daisy11OledDisplayINS_13SSD130xDriverILj128ELj64ENS_24SSD130x4WireSpiTransportEEEE5WidthEv:
 241              	.LVL8:
 242              	.LFB4835:
  27:../../libdaisy/src/hid/disp/oled_display.h **** 
 243              		.loc 2 27 14 is_stmt 1 view -0
 244              		.cfi_startproc
 245              		@ args = 0, pretend = 0, frame = 0
 246              		@ frame_needed = 0, uses_anonymous_args = 0
 247              		@ link register save eliminated.
  27:../../libdaisy/src/hid/disp/oled_display.h **** 
 248              		.loc 2 27 63 is_stmt 0 view .LVU40
 249 0000 8020     		movs	r0, #128
 250              	.LVL9:
  27:../../libdaisy/src/hid/disp/oled_display.h **** 
 251              		.loc 2 27 63 view .LVU41
 252 0002 7047     		bx	lr
 253              		.cfi_endproc
 254              	.LFE4835:
 256              		.section	.text._ZN5daisy11OledDisplayINS_13SSD130xDriverILj128ELj64ENS_24SSD130x4WireSpiTransportE
 257              		.align	1
 258              		.p2align 2,,3
 259              		.weak	_ZN5daisy11OledDisplayINS_13SSD130xDriverILj128ELj64ENS_24SSD130x4WireSpiTransportEEEED0Ev
 260              		.syntax unified
 261              		.thumb
 262              		.thumb_func
 263              		.fpu fpv5-d16
 265              	_ZN5daisy11OledDisplayINS_13SSD130xDriverILj128ELj64ENS_24SSD130x4WireSpiTransportEEEED0Ev:
 266              	.LVL10:
 267              	.LFB4557:
  17:../../libdaisy/src/hid/disp/oled_display.h **** 
 268              		.loc 2 17 13 is_stmt 1 view -0
ARM GAS  /tmp/ccobg3TQ.s 			page 23


 269              		.cfi_startproc
 270              		@ args = 0, pretend = 0, frame = 0
 271              		@ frame_needed = 0, uses_anonymous_args = 0
  17:../../libdaisy/src/hid/disp/oled_display.h **** 
 272              		.loc 2 17 13 is_stmt 0 view .LVU43
 273 0000 10B5     		push	{r4, lr}
 274              		.cfi_def_cfa_offset 8
 275              		.cfi_offset 4, -8
 276              		.cfi_offset 14, -4
  17:../../libdaisy/src/hid/disp/oled_display.h **** 
 277              		.loc 2 17 13 view .LVU44
 278 0002 0446     		mov	r4, r0
 279              	.LVL11:
 280              	.LBB723:
 281              	.LBI723:
  17:../../libdaisy/src/hid/disp/oled_display.h **** 
 282              		.loc 2 17 13 is_stmt 1 view .LVU45
 283              	.LBB724:
 284              	.LBI724:
 285              		.loc 3 219 13 view .LVU46
 286              	.LBB725:
 287              	.LBI725:
  23:../../libdaisy/src/hid/disp/display.h **** 
 288              		.loc 3 23 13 view .LVU47
  23:../../libdaisy/src/hid/disp/display.h **** 
 289              		.loc 3 23 13 is_stmt 0 view .LVU48
 290              	.LBE725:
 291              	.LBE724:
 292              	.LBE723:
  17:../../libdaisy/src/hid/disp/oled_display.h **** 
 293              		.loc 2 17 29 view .LVU49
 294 0004 40F21441 		movw	r1, #1044
 295 0008 FFF7FEFF 		bl	_ZdlPvj
 296              	.LVL12:
  17:../../libdaisy/src/hid/disp/oled_display.h **** 
 297              		.loc 2 17 29 view .LVU50
 298 000c 2046     		mov	r0, r4
 299 000e 10BD     		pop	{r4, pc}
  17:../../libdaisy/src/hid/disp/oled_display.h **** 
 300              		.loc 2 17 29 view .LVU51
 301              		.cfi_endproc
 302              	.LFE4557:
 304              		.section	.text._ZN5daisy11OledDisplayINS_13SSD130xDriverILj128ELj64ENS_24SSD130x4WireSpiTransportE
 305              		.align	1
 306              		.p2align 2,,3
 307              		.weak	_ZN5daisy11OledDisplayINS_13SSD130xDriverILj128ELj64ENS_24SSD130x4WireSpiTransportEEEE6Updat
 308              		.syntax unified
 309              		.thumb
 310              		.thumb_func
 311              		.fpu fpv5-d16
 313              	_ZN5daisy11OledDisplayINS_13SSD130xDriverILj128ELj64ENS_24SSD130x4WireSpiTransportEEEE6UpdateEv:
 314              	.LVL13:
 315              	.LFB4562:
  34:../../libdaisy/src/hid/disp/oled_display.h **** 
  35:../../libdaisy/src/hid/disp/oled_display.h ****     /**
  36:../../libdaisy/src/hid/disp/oled_display.h ****     Sets the pixel at the specified coordinate to be on/off.
  37:../../libdaisy/src/hid/disp/oled_display.h ****     \param x   x Coordinate
ARM GAS  /tmp/ccobg3TQ.s 			page 24


  38:../../libdaisy/src/hid/disp/oled_display.h ****     \param y   y coordinate
  39:../../libdaisy/src/hid/disp/oled_display.h ****     \param on  on or off
  40:../../libdaisy/src/hid/disp/oled_display.h ****     */
  41:../../libdaisy/src/hid/disp/oled_display.h ****     void DrawPixel(uint_fast8_t x, uint_fast8_t y, bool on) override
  42:../../libdaisy/src/hid/disp/oled_display.h ****     {
  43:../../libdaisy/src/hid/disp/oled_display.h ****         driver_.DrawPixel(x, y, on);
  44:../../libdaisy/src/hid/disp/oled_display.h ****     }
  45:../../libdaisy/src/hid/disp/oled_display.h **** 
  46:../../libdaisy/src/hid/disp/oled_display.h ****     /** 
  47:../../libdaisy/src/hid/disp/oled_display.h ****     Writes the current display buffer to the OLED device using SPI or I2C depending on 
  48:../../libdaisy/src/hid/disp/oled_display.h ****     how the object was initialized.
  49:../../libdaisy/src/hid/disp/oled_display.h ****     */
  50:../../libdaisy/src/hid/disp/oled_display.h ****     void Update() override { driver_.Update(); }
 316              		.loc 2 50 10 is_stmt 1 view -0
 317              		.cfi_startproc
 318              		@ args = 0, pretend = 0, frame = 8
 319              		@ frame_needed = 0, uses_anonymous_args = 0
 320              	.LBB736:
 321              	.LBI736:
 254:../../libdaisy/src/dev/oled_ssd130x.h ****         }
 255:../../libdaisy/src/dev/oled_ssd130x.h ****     };
 256:../../libdaisy/src/dev/oled_ssd130x.h **** 
 257:../../libdaisy/src/dev/oled_ssd130x.h ****     /**
 258:../../libdaisy/src/dev/oled_ssd130x.h ****      * Update the display 
 259:../../libdaisy/src/dev/oled_ssd130x.h ****     */
 260:../../libdaisy/src/dev/oled_ssd130x.h ****     void Update()
 322              		.loc 12 260 10 view .LVU53
 323              	.LBB737:
 261:../../libdaisy/src/dev/oled_ssd130x.h ****     {
 262:../../libdaisy/src/dev/oled_ssd130x.h ****         uint8_t i;
 263:../../libdaisy/src/dev/oled_ssd130x.h ****         uint8_t high_column_addr;
 264:../../libdaisy/src/dev/oled_ssd130x.h ****         switch(height)
 265:../../libdaisy/src/dev/oled_ssd130x.h ****         {
 266:../../libdaisy/src/dev/oled_ssd130x.h ****             case 32: high_column_addr = 0x12; break;
 267:../../libdaisy/src/dev/oled_ssd130x.h **** 
 268:../../libdaisy/src/dev/oled_ssd130x.h ****             default: high_column_addr = 0x10; break;
 269:../../libdaisy/src/dev/oled_ssd130x.h ****         }
 270:../../libdaisy/src/dev/oled_ssd130x.h ****         for(i = 0; i < (height / 8); i++)
 324              		.loc 12 270 22 view .LVU54
 325              	.LBE737:
 326              	.LBE736:
 327              		.loc 2 50 10 is_stmt 0 view .LVU55
 328 0000 2DE9F041 		push	{r4, r5, r6, r7, r8, lr}
 329              		.cfi_def_cfa_offset 24
 330              		.cfi_offset 4, -24
 331              		.cfi_offset 5, -20
 332              		.cfi_offset 6, -16
 333              		.cfi_offset 7, -12
 334              		.cfi_offset 8, -8
 335              		.cfi_offset 14, -4
 336 0004 B025     		movs	r5, #176
 337 0006 82B0     		sub	sp, sp, #8
 338              		.cfi_def_cfa_offset 32
 339 0008 00F10807 		add	r7, r0, #8
 340 000c 00F11006 		add	r6, r0, #16
 341 0010 00F11404 		add	r4, r0, #20
 342              	.LVL14:
ARM GAS  /tmp/ccobg3TQ.s 			page 25


 343              	.L13:
 344              	.LBB750:
 345              	.LBB749:
 346              	.LBB738:
 347              	.LBB739:
 111:../../libdaisy/src/dev/oled_ssd130x.h ****         spi_.BlockingTransmit(&cmd, 1);
 348              		.loc 12 111 23 view .LVU56
 349 0014 0021     		movs	r1, #0
 350 0016 3046     		mov	r0, r6
 351 0018 8DF80750 		strb	r5, [sp, #7]
 352              	.LVL15:
 111:../../libdaisy/src/dev/oled_ssd130x.h ****         spi_.BlockingTransmit(&cmd, 1);
 353              		.loc 12 111 23 view .LVU57
 354              	.LBE739:
 355              	.LBI738:
 109:../../libdaisy/src/dev/oled_ssd130x.h ****     {
 356              		.loc 12 109 10 is_stmt 1 view .LVU58
 357              	.LBB740:
 111:../../libdaisy/src/dev/oled_ssd130x.h ****         spi_.BlockingTransmit(&cmd, 1);
 358              		.loc 12 111 9 view .LVU59
 359 001c 0135     		adds	r5, r5, #1
 360              	.LVL16:
 111:../../libdaisy/src/dev/oled_ssd130x.h ****         spi_.BlockingTransmit(&cmd, 1);
 361              		.loc 12 111 9 is_stmt 0 view .LVU60
 362 001e 8846     		mov	r8, r1
 111:../../libdaisy/src/dev/oled_ssd130x.h ****         spi_.BlockingTransmit(&cmd, 1);
 363              		.loc 12 111 23 view .LVU61
 364 0020 FFF7FEFF 		bl	dsy_gpio_write
 365              	.LVL17:
 112:../../libdaisy/src/dev/oled_ssd130x.h ****     };
 366              		.loc 12 112 9 is_stmt 1 view .LVU62
 112:../../libdaisy/src/dev/oled_ssd130x.h ****     };
 367              		.loc 12 112 30 is_stmt 0 view .LVU63
 368 0024 6423     		movs	r3, #100
 369 0026 0122     		movs	r2, #1
 370 0028 0DF10701 		add	r1, sp, #7
 371 002c 3846     		mov	r0, r7
 372 002e FFF7FEFF 		bl	_ZN5daisy9SpiHandle16BlockingTransmitEPhjm
 373              	.LVL18:
 112:../../libdaisy/src/dev/oled_ssd130x.h ****     };
 374              		.loc 12 112 30 view .LVU64
 375              	.LBE740:
 376              	.LBE738:
 377              	.LBB741:
 378              	.LBB742:
 111:../../libdaisy/src/dev/oled_ssd130x.h ****         spi_.BlockingTransmit(&cmd, 1);
 379              		.loc 12 111 23 view .LVU65
 380 0032 4146     		mov	r1, r8
 381 0034 3046     		mov	r0, r6
 382 0036 8DF80780 		strb	r8, [sp, #7]
 383              	.LVL19:
 111:../../libdaisy/src/dev/oled_ssd130x.h ****         spi_.BlockingTransmit(&cmd, 1);
 384              		.loc 12 111 23 view .LVU66
 385              	.LBE742:
 386              	.LBI741:
 109:../../libdaisy/src/dev/oled_ssd130x.h ****     {
 387              		.loc 12 109 10 is_stmt 1 view .LVU67
ARM GAS  /tmp/ccobg3TQ.s 			page 26


 388              	.LBB743:
 111:../../libdaisy/src/dev/oled_ssd130x.h ****         spi_.BlockingTransmit(&cmd, 1);
 389              		.loc 12 111 9 view .LVU68
 111:../../libdaisy/src/dev/oled_ssd130x.h ****         spi_.BlockingTransmit(&cmd, 1);
 390              		.loc 12 111 23 is_stmt 0 view .LVU69
 391 003a FFF7FEFF 		bl	dsy_gpio_write
 392              	.LVL20:
 112:../../libdaisy/src/dev/oled_ssd130x.h ****     };
 393              		.loc 12 112 9 is_stmt 1 view .LVU70
 112:../../libdaisy/src/dev/oled_ssd130x.h ****     };
 394              		.loc 12 112 30 is_stmt 0 view .LVU71
 395 003e 0122     		movs	r2, #1
 396 0040 6423     		movs	r3, #100
 397 0042 0DF10701 		add	r1, sp, #7
 398 0046 3846     		mov	r0, r7
 399 0048 EDB2     		uxtb	r5, r5
 400 004a FFF7FEFF 		bl	_ZN5daisy9SpiHandle16BlockingTransmitEPhjm
 401              	.LVL21:
 112:../../libdaisy/src/dev/oled_ssd130x.h ****     };
 402              		.loc 12 112 30 view .LVU72
 403 004e 1023     		movs	r3, #16
 404              	.LBE743:
 405              	.LBE741:
 406              	.LBB744:
 407              	.LBB745:
 111:../../libdaisy/src/dev/oled_ssd130x.h ****         spi_.BlockingTransmit(&cmd, 1);
 408              		.loc 12 111 23 view .LVU73
 409 0050 4146     		mov	r1, r8
 410 0052 3046     		mov	r0, r6
 411 0054 8DF80730 		strb	r3, [sp, #7]
 412              	.LVL22:
 111:../../libdaisy/src/dev/oled_ssd130x.h ****         spi_.BlockingTransmit(&cmd, 1);
 413              		.loc 12 111 23 view .LVU74
 414              	.LBE745:
 415              	.LBI744:
 109:../../libdaisy/src/dev/oled_ssd130x.h ****     {
 416              		.loc 12 109 10 is_stmt 1 view .LVU75
 417              	.LBB746:
 111:../../libdaisy/src/dev/oled_ssd130x.h ****         spi_.BlockingTransmit(&cmd, 1);
 418              		.loc 12 111 9 view .LVU76
 111:../../libdaisy/src/dev/oled_ssd130x.h ****         spi_.BlockingTransmit(&cmd, 1);
 419              		.loc 12 111 23 is_stmt 0 view .LVU77
 420 0058 FFF7FEFF 		bl	dsy_gpio_write
 421              	.LVL23:
 112:../../libdaisy/src/dev/oled_ssd130x.h ****     };
 422              		.loc 12 112 9 is_stmt 1 view .LVU78
 112:../../libdaisy/src/dev/oled_ssd130x.h ****     };
 423              		.loc 12 112 30 is_stmt 0 view .LVU79
 424 005c 6423     		movs	r3, #100
 425 005e 0122     		movs	r2, #1
 426 0060 0DF10701 		add	r1, sp, #7
 427 0064 3846     		mov	r0, r7
 428 0066 FFF7FEFF 		bl	_ZN5daisy9SpiHandle16BlockingTransmitEPhjm
 429              	.LVL24:
 112:../../libdaisy/src/dev/oled_ssd130x.h ****     };
 430              		.loc 12 112 30 view .LVU80
 431              	.LBE746:
ARM GAS  /tmp/ccobg3TQ.s 			page 27


 432              	.LBE744:
 433              	.LBB747:
 434              	.LBI747:
 115:../../libdaisy/src/dev/oled_ssd130x.h ****     {
 435              		.loc 12 115 10 is_stmt 1 view .LVU81
 436              	.LBB748:
 117:../../libdaisy/src/dev/oled_ssd130x.h ****         spi_.BlockingTransmit(buff, size);
 437              		.loc 12 117 9 view .LVU82
 117:../../libdaisy/src/dev/oled_ssd130x.h ****         spi_.BlockingTransmit(buff, size);
 438              		.loc 12 117 23 is_stmt 0 view .LVU83
 439 006a 0121     		movs	r1, #1
 440 006c 3046     		mov	r0, r6
 441 006e FFF7FEFF 		bl	dsy_gpio_write
 442              	.LVL25:
 118:../../libdaisy/src/dev/oled_ssd130x.h ****     };
 443              		.loc 12 118 9 is_stmt 1 view .LVU84
 118:../../libdaisy/src/dev/oled_ssd130x.h ****     };
 444              		.loc 12 118 30 is_stmt 0 view .LVU85
 445 0072 8022     		movs	r2, #128
 446 0074 2146     		mov	r1, r4
 447 0076 6423     		movs	r3, #100
 448 0078 3846     		mov	r0, r7
 449 007a 1444     		add	r4, r4, r2
 450              	.LVL26:
 118:../../libdaisy/src/dev/oled_ssd130x.h ****     };
 451              		.loc 12 118 30 view .LVU86
 452 007c FFF7FEFF 		bl	_ZN5daisy9SpiHandle16BlockingTransmitEPhjm
 453              	.LVL27:
 118:../../libdaisy/src/dev/oled_ssd130x.h ****     };
 454              		.loc 12 118 30 view .LVU87
 455              	.LBE748:
 456              	.LBE747:
 457              		.loc 12 270 9 is_stmt 1 view .LVU88
 458              		.loc 12 270 22 view .LVU89
 459 0080 B82D     		cmp	r5, #184
 460 0082 C7D1     		bne	.L13
 461              	.LBE749:
 462              	.LBE750:
 463              		.loc 2 50 48 is_stmt 0 view .LVU90
 464 0084 02B0     		add	sp, sp, #8
 465              		.cfi_def_cfa_offset 24
 466              		@ sp needed
 467 0086 BDE8F081 		pop	{r4, r5, r6, r7, r8, pc}
 468              		.loc 2 50 48 view .LVU91
 469              		.cfi_endproc
 470              	.LFE4562:
 472 008a 00BF     		.section	.text._ZN5daisy25OneBitGraphicsDisplayImplINS_11OledDisplayINS_13SSD130xDriverILj128ELj64
 473              		.align	1
 474              		.p2align 2,,3
 475              		.weak	_ZN5daisy25OneBitGraphicsDisplayImplINS_11OledDisplayINS_13SSD130xDriverILj128ELj64ENS_24SSD
 476              		.syntax unified
 477              		.thumb
 478              		.thumb_func
 479              		.fpu fpv5-d16
 481              	_ZN5daisy25OneBitGraphicsDisplayImplINS_11OledDisplayINS_13SSD130xDriverILj128ELj64ENS_24SSD130x4Wi
 482              	.LVL28:
 483              	.LFB4689:
ARM GAS  /tmp/ccobg3TQ.s 			page 28


 220:../../libdaisy/src/hid/disp/display.h **** 
 221:../../libdaisy/src/hid/disp/display.h ****     void DrawLine(uint_fast8_t x1,
 222:../../libdaisy/src/hid/disp/display.h ****                   uint_fast8_t y1,
 223:../../libdaisy/src/hid/disp/display.h ****                   uint_fast8_t x2,
 224:../../libdaisy/src/hid/disp/display.h ****                   uint_fast8_t y2,
 225:../../libdaisy/src/hid/disp/display.h ****                   bool         on) override
 226:../../libdaisy/src/hid/disp/display.h ****     {
 227:../../libdaisy/src/hid/disp/display.h ****         int_fast16_t deltaX = abs((int_fast16_t)x2 - (int_fast16_t)x1);
 228:../../libdaisy/src/hid/disp/display.h ****         int_fast16_t deltaY = abs((int_fast16_t)y2 - (int_fast16_t)y1);
 229:../../libdaisy/src/hid/disp/display.h ****         int_fast16_t signX  = ((x1 < x2) ? 1 : -1);
 230:../../libdaisy/src/hid/disp/display.h ****         int_fast16_t signY  = ((y1 < y2) ? 1 : -1);
 231:../../libdaisy/src/hid/disp/display.h ****         int_fast16_t error  = deltaX - deltaY;
 232:../../libdaisy/src/hid/disp/display.h ****         int_fast16_t error2;
 233:../../libdaisy/src/hid/disp/display.h **** 
 234:../../libdaisy/src/hid/disp/display.h ****         // If we write "ChildType::DrawPixel(x2, y2, on);", we end up with
 235:../../libdaisy/src/hid/disp/display.h ****         // all sorts of weird compiler errors when the Child class is a template
 236:../../libdaisy/src/hid/disp/display.h ****         // class. The only way around this is to use this very verbose syntax:
 237:../../libdaisy/src/hid/disp/display.h ****         ((ChildType*)(this))->ChildType::DrawPixel(x2, y2, on);
 238:../../libdaisy/src/hid/disp/display.h **** 
 239:../../libdaisy/src/hid/disp/display.h ****         while((x1 != x2) || (y1 != y2))
 240:../../libdaisy/src/hid/disp/display.h ****         {
 241:../../libdaisy/src/hid/disp/display.h ****             ((ChildType*)(this))->ChildType::DrawPixel(x1, y1, on);
 242:../../libdaisy/src/hid/disp/display.h ****             error2 = error * 2;
 243:../../libdaisy/src/hid/disp/display.h ****             if(error2 > -deltaY)
 244:../../libdaisy/src/hid/disp/display.h ****             {
 245:../../libdaisy/src/hid/disp/display.h ****                 error -= deltaY;
 246:../../libdaisy/src/hid/disp/display.h ****                 x1 += signX;
 247:../../libdaisy/src/hid/disp/display.h ****             }
 248:../../libdaisy/src/hid/disp/display.h **** 
 249:../../libdaisy/src/hid/disp/display.h ****             if(error2 < deltaX)
 250:../../libdaisy/src/hid/disp/display.h ****             {
 251:../../libdaisy/src/hid/disp/display.h ****                 error += deltaX;
 252:../../libdaisy/src/hid/disp/display.h ****                 y1 += signY;
 253:../../libdaisy/src/hid/disp/display.h ****             }
 254:../../libdaisy/src/hid/disp/display.h ****         }
 255:../../libdaisy/src/hid/disp/display.h ****     }
 256:../../libdaisy/src/hid/disp/display.h **** 
 257:../../libdaisy/src/hid/disp/display.h ****     void DrawRect(uint_fast8_t x1,
 258:../../libdaisy/src/hid/disp/display.h ****                   uint_fast8_t y1,
 259:../../libdaisy/src/hid/disp/display.h ****                   uint_fast8_t x2,
 260:../../libdaisy/src/hid/disp/display.h ****                   uint_fast8_t y2,
 261:../../libdaisy/src/hid/disp/display.h ****                   bool         on,
 262:../../libdaisy/src/hid/disp/display.h ****                   bool         fill = false) override
 263:../../libdaisy/src/hid/disp/display.h ****     {
 264:../../libdaisy/src/hid/disp/display.h ****         if(fill)
 265:../../libdaisy/src/hid/disp/display.h ****         {
 266:../../libdaisy/src/hid/disp/display.h ****             for(uint_fast8_t x = x1; x <= x2; x++)
 267:../../libdaisy/src/hid/disp/display.h ****             {
 268:../../libdaisy/src/hid/disp/display.h ****                 for(uint_fast8_t y = y1; y <= y2; y++)
 269:../../libdaisy/src/hid/disp/display.h ****                 {
 270:../../libdaisy/src/hid/disp/display.h ****                     ((ChildType*)(this))->ChildType::DrawPixel(x, y, on);
 271:../../libdaisy/src/hid/disp/display.h ****                 }
 272:../../libdaisy/src/hid/disp/display.h ****             }
 273:../../libdaisy/src/hid/disp/display.h ****         }
 274:../../libdaisy/src/hid/disp/display.h ****         else
 275:../../libdaisy/src/hid/disp/display.h ****         {
 276:../../libdaisy/src/hid/disp/display.h ****             ((ChildType*)(this))->ChildType::DrawLine(x1, y1, x2, y1, on);
ARM GAS  /tmp/ccobg3TQ.s 			page 29


 277:../../libdaisy/src/hid/disp/display.h ****             ((ChildType*)(this))->ChildType::DrawLine(x2, y1, x2, y2, on);
 278:../../libdaisy/src/hid/disp/display.h ****             ((ChildType*)(this))->ChildType::DrawLine(x2, y2, x1, y2, on);
 279:../../libdaisy/src/hid/disp/display.h ****             ((ChildType*)(this))->ChildType::DrawLine(x1, y2, x1, y1, on);
 280:../../libdaisy/src/hid/disp/display.h ****         }
 281:../../libdaisy/src/hid/disp/display.h ****     }
 282:../../libdaisy/src/hid/disp/display.h **** 
 283:../../libdaisy/src/hid/disp/display.h ****     void DrawArc(uint_fast8_t x,
 284:../../libdaisy/src/hid/disp/display.h ****                  uint_fast8_t y,
 285:../../libdaisy/src/hid/disp/display.h ****                  uint_fast8_t radius,
 286:../../libdaisy/src/hid/disp/display.h ****                  int_fast16_t start_angle,
 287:../../libdaisy/src/hid/disp/display.h ****                  int_fast16_t sweep,
 288:../../libdaisy/src/hid/disp/display.h ****                  bool         on) override
 289:../../libdaisy/src/hid/disp/display.h ****     {
 290:../../libdaisy/src/hid/disp/display.h ****         // Values to calculate the circle
 291:../../libdaisy/src/hid/disp/display.h ****         int_fast16_t t_x, t_y, err, e2;
 292:../../libdaisy/src/hid/disp/display.h **** 
 293:../../libdaisy/src/hid/disp/display.h ****         // Temporary values to speed up comparisons
 294:../../libdaisy/src/hid/disp/display.h ****         float t_sxy, t_syx, t_sxny, t_synx;
 295:../../libdaisy/src/hid/disp/display.h ****         float t_exy, t_eyx, t_exny, t_eynx;
 296:../../libdaisy/src/hid/disp/display.h **** 
 297:../../libdaisy/src/hid/disp/display.h ****         float start_angle_rad, end_angle_rad;
 298:../../libdaisy/src/hid/disp/display.h ****         float start_x, start_y, end_x, end_y;
 299:../../libdaisy/src/hid/disp/display.h **** 
 300:../../libdaisy/src/hid/disp/display.h ****         bool d1, d2, d3, d4;
 301:../../libdaisy/src/hid/disp/display.h **** 
 302:../../libdaisy/src/hid/disp/display.h ****         d1 = d2 = d3 = d4 = true;
 303:../../libdaisy/src/hid/disp/display.h **** 
 304:../../libdaisy/src/hid/disp/display.h ****         bool circle = false;
 305:../../libdaisy/src/hid/disp/display.h **** 
 306:../../libdaisy/src/hid/disp/display.h ****         if(sweep < 0)
 307:../../libdaisy/src/hid/disp/display.h ****         {
 308:../../libdaisy/src/hid/disp/display.h ****             start_angle += sweep;
 309:../../libdaisy/src/hid/disp/display.h ****             sweep = -sweep;
 310:../../libdaisy/src/hid/disp/display.h ****         }
 311:../../libdaisy/src/hid/disp/display.h **** 
 312:../../libdaisy/src/hid/disp/display.h ****         start_angle_rad = deg2rad(start_angle);
 313:../../libdaisy/src/hid/disp/display.h ****         end_angle_rad   = deg2rad(start_angle + sweep);
 314:../../libdaisy/src/hid/disp/display.h **** 
 315:../../libdaisy/src/hid/disp/display.h ****         start_x = cos(start_angle_rad) * radius;
 316:../../libdaisy/src/hid/disp/display.h ****         start_y = -sin(start_angle_rad) * radius;
 317:../../libdaisy/src/hid/disp/display.h ****         end_x   = cos(end_angle_rad) * radius;
 318:../../libdaisy/src/hid/disp/display.h ****         end_y   = -sin(end_angle_rad) * radius;
 319:../../libdaisy/src/hid/disp/display.h **** 
 320:../../libdaisy/src/hid/disp/display.h ****         // Check if start and endpoint are very near
 321:../../libdaisy/src/hid/disp/display.h ****         if((end_x - start_x) * (end_x - start_x)
 322:../../libdaisy/src/hid/disp/display.h ****                + (end_y - start_y) * (end_y - start_y)
 323:../../libdaisy/src/hid/disp/display.h ****            < 2.0f)
 324:../../libdaisy/src/hid/disp/display.h ****         {
 325:../../libdaisy/src/hid/disp/display.h ****             if(sweep > 180)
 326:../../libdaisy/src/hid/disp/display.h ****                 circle = true;
 327:../../libdaisy/src/hid/disp/display.h ****             else
 328:../../libdaisy/src/hid/disp/display.h ****                 // Nothing to draw
 329:../../libdaisy/src/hid/disp/display.h ****                 return;
 330:../../libdaisy/src/hid/disp/display.h ****         }
 331:../../libdaisy/src/hid/disp/display.h **** 
 332:../../libdaisy/src/hid/disp/display.h ****         t_x = -radius;
 333:../../libdaisy/src/hid/disp/display.h ****         t_y = 0;
ARM GAS  /tmp/ccobg3TQ.s 			page 30


 334:../../libdaisy/src/hid/disp/display.h ****         err = 2 - 2 * radius;
 335:../../libdaisy/src/hid/disp/display.h **** 
 336:../../libdaisy/src/hid/disp/display.h ****         do
 337:../../libdaisy/src/hid/disp/display.h ****         {
 338:../../libdaisy/src/hid/disp/display.h ****             if(!circle)
 339:../../libdaisy/src/hid/disp/display.h ****             {
 340:../../libdaisy/src/hid/disp/display.h ****                 t_sxy  = start_x * t_y;
 341:../../libdaisy/src/hid/disp/display.h ****                 t_syx  = start_y * t_x;
 342:../../libdaisy/src/hid/disp/display.h ****                 t_sxny = start_x * -t_y;
 343:../../libdaisy/src/hid/disp/display.h ****                 t_synx = start_y * -t_x;
 344:../../libdaisy/src/hid/disp/display.h ****                 t_exy  = end_x * t_y;
 345:../../libdaisy/src/hid/disp/display.h ****                 t_eyx  = end_y * t_x;
 346:../../libdaisy/src/hid/disp/display.h ****                 t_exny = end_x * -t_y;
 347:../../libdaisy/src/hid/disp/display.h ****                 t_eynx = end_y * -t_x;
 348:../../libdaisy/src/hid/disp/display.h **** 
 349:../../libdaisy/src/hid/disp/display.h ****                 if(sweep > 180)
 350:../../libdaisy/src/hid/disp/display.h ****                 {
 351:../../libdaisy/src/hid/disp/display.h ****                     d1 = (t_sxy - t_synx < 0 || t_exy - t_eynx > 0);
 352:../../libdaisy/src/hid/disp/display.h ****                     d2 = (t_sxy - t_syx < 0 || t_exy - t_eyx > 0);
 353:../../libdaisy/src/hid/disp/display.h ****                     d3 = (t_sxny - t_syx < 0 || t_exny - t_eyx > 0);
 354:../../libdaisy/src/hid/disp/display.h ****                     d4 = (t_sxny - t_synx < 0 || t_exny - t_eynx > 0);
 355:../../libdaisy/src/hid/disp/display.h ****                 }
 356:../../libdaisy/src/hid/disp/display.h ****                 else
 357:../../libdaisy/src/hid/disp/display.h ****                 {
 358:../../libdaisy/src/hid/disp/display.h ****                     d1 = (t_sxy - t_synx < 0 && t_exy - t_eynx > 0);
 359:../../libdaisy/src/hid/disp/display.h ****                     d2 = (t_sxy - t_syx < 0 && t_exy - t_eyx > 0);
 360:../../libdaisy/src/hid/disp/display.h ****                     d3 = (t_sxny - t_syx < 0 && t_exny - t_eyx > 0);
 361:../../libdaisy/src/hid/disp/display.h ****                     d4 = (t_sxny - t_synx < 0 && t_exny - t_eynx > 0);
 362:../../libdaisy/src/hid/disp/display.h ****                 }
 363:../../libdaisy/src/hid/disp/display.h ****             }
 364:../../libdaisy/src/hid/disp/display.h **** 
 365:../../libdaisy/src/hid/disp/display.h ****             if(d1)
 366:../../libdaisy/src/hid/disp/display.h ****                 ((ChildType*)(this))
 367:../../libdaisy/src/hid/disp/display.h ****                     ->ChildType::DrawPixel(x - t_x, y + t_y, on);
 368:../../libdaisy/src/hid/disp/display.h ****             if(d2)
 369:../../libdaisy/src/hid/disp/display.h ****                 ((ChildType*)(this))
 370:../../libdaisy/src/hid/disp/display.h ****                     ->ChildType::DrawPixel(x + t_x, y + t_y, on);
 371:../../libdaisy/src/hid/disp/display.h ****             if(d3)
 372:../../libdaisy/src/hid/disp/display.h ****                 ((ChildType*)(this))
 373:../../libdaisy/src/hid/disp/display.h ****                     ->ChildType::DrawPixel(x + t_x, y - t_y, on);
 374:../../libdaisy/src/hid/disp/display.h ****             if(d4)
 375:../../libdaisy/src/hid/disp/display.h ****                 ((ChildType*)(this))
 376:../../libdaisy/src/hid/disp/display.h ****                     ->ChildType::DrawPixel(x - t_x, y - t_y, on);
 377:../../libdaisy/src/hid/disp/display.h **** 
 378:../../libdaisy/src/hid/disp/display.h ****             e2 = err;
 379:../../libdaisy/src/hid/disp/display.h ****             if(e2 <= t_y)
 380:../../libdaisy/src/hid/disp/display.h ****             {
 381:../../libdaisy/src/hid/disp/display.h ****                 t_y++;
 382:../../libdaisy/src/hid/disp/display.h ****                 err = err + (t_y * 2 + 1);
 383:../../libdaisy/src/hid/disp/display.h ****                 if(-t_x == t_y && e2 <= t_x)
 384:../../libdaisy/src/hid/disp/display.h ****                 {
 385:../../libdaisy/src/hid/disp/display.h ****                     e2 = 0;
 386:../../libdaisy/src/hid/disp/display.h ****                 }
 387:../../libdaisy/src/hid/disp/display.h ****             }
 388:../../libdaisy/src/hid/disp/display.h ****             if(e2 > t_x)
 389:../../libdaisy/src/hid/disp/display.h ****             {
 390:../../libdaisy/src/hid/disp/display.h ****                 t_x++;
ARM GAS  /tmp/ccobg3TQ.s 			page 31


 391:../../libdaisy/src/hid/disp/display.h ****                 err = err + (t_x * 2 + 1);
 392:../../libdaisy/src/hid/disp/display.h ****             }
 393:../../libdaisy/src/hid/disp/display.h ****         } while(t_x <= 0);
 394:../../libdaisy/src/hid/disp/display.h ****     }
 395:../../libdaisy/src/hid/disp/display.h **** 
 396:../../libdaisy/src/hid/disp/display.h ****     char WriteChar(char ch, FontDef font, bool on) override
 484              		.loc 3 396 10 is_stmt 1 view -0
 485              		.cfi_startproc
 486              		@ args = 4, pretend = 0, frame = 16
 487              		@ frame_needed = 0, uses_anonymous_args = 0
 488              		.loc 3 396 10 is_stmt 0 view .LVU93
 489 0000 2DE9F04F 		push	{r4, r5, r6, r7, r8, r9, r10, fp, lr}
 490              		.cfi_def_cfa_offset 36
 491              		.cfi_offset 4, -36
 492              		.cfi_offset 5, -32
 493              		.cfi_offset 6, -28
 494              		.cfi_offset 7, -24
 495              		.cfi_offset 8, -20
 496              		.cfi_offset 9, -16
 497              		.cfi_offset 10, -12
 498              		.cfi_offset 11, -8
 499              		.cfi_offset 14, -4
 500 0004 85B0     		sub	sp, sp, #20
 501              		.cfi_def_cfa_offset 56
 502              	.LVL29:
 397:../../libdaisy/src/hid/disp/display.h ****     {
 398:../../libdaisy/src/hid/disp/display.h ****         uint32_t i, b, j;
 399:../../libdaisy/src/hid/disp/display.h **** 
 400:../../libdaisy/src/hid/disp/display.h ****         // Check if character is valid
 401:../../libdaisy/src/hid/disp/display.h ****         if(ch < 32 || ch > 126)
 503              		.loc 3 401 20 view .LVU94
 504 0006 A1F12004 		sub	r4, r1, #32
 396:../../libdaisy/src/hid/disp/display.h ****     {
 505              		.loc 3 396 10 view .LVU95
 506 000a 0091     		str	r1, [sp]
 507 000c 04A9     		add	r1, sp, #16
 508              	.LVL30:
 396:../../libdaisy/src/hid/disp/display.h ****     {
 509              		.loc 3 396 10 view .LVU96
 510 000e 9DF83880 		ldrb	r8, [sp, #56]	@ zero_extendqisi2
 511 0012 01E90C00 		stmdb	r1, {r2, r3}
 512              	.LVL31:
 513              		.loc 3 401 9 view .LVU97
 514 0016 E3B2     		uxtb	r3, r4
 515 0018 5E2B     		cmp	r3, #94
 516 001a 00F29480 		bhi	.L20
 402:../../libdaisy/src/hid/disp/display.h ****             return 0;
 403:../../libdaisy/src/hid/disp/display.h **** 
 404:../../libdaisy/src/hid/disp/display.h ****         // Check remaining space on current line
 405:../../libdaisy/src/hid/disp/display.h ****         if(Width() < (currentX_ + font.FontWidth)
 517              		.loc 3 405 17 view .LVU98
 518 001e 0368     		ldr	r3, [r0]
 519 0020 8146     		mov	r9, r0
 520 0022 5C4A     		ldr	r2, .L56
 521 0024 DB68     		ldr	r3, [r3, #12]
 522 0026 9DF80860 		ldrb	r6, [sp, #8]	@ zero_extendqisi2
 523 002a 9342     		cmp	r3, r2
ARM GAS  /tmp/ccobg3TQ.s 			page 32


 524 002c 9DF80950 		ldrb	r5, [sp, #9]	@ zero_extendqisi2
 525 0030 40F09380 		bne	.L47
 526 0034 8020     		movs	r0, #128
 527              	.LVL32:
 528              	.L19:
 529              		.loc 3 405 23 view .LVU99
 530 0036 B9F80430 		ldrh	r3, [r9, #4]
 531              		.loc 3 405 33 view .LVU100
 532 003a 3344     		add	r3, r3, r6
 406:../../libdaisy/src/hid/disp/display.h ****            || Height() < (currentY_ + font.FontHeight))
 533              		.loc 3 406 12 view .LVU101
 534 003c 8342     		cmp	r3, r0
 535 003e 00F38280 		bgt	.L20
 536              		.loc 3 406 21 discriminator 2 view .LVU102
 537 0042 D9F80030 		ldr	r3, [r9]
 538 0046 544A     		ldr	r2, .L56+4
 539 0048 9B68     		ldr	r3, [r3, #8]
 540 004a 9342     		cmp	r3, r2
 541 004c 40F08780 		bne	.L48
 542              		.loc 3 406 21 view .LVU103
 543 0050 4020     		movs	r0, #64
 544              	.L21:
 545              		.loc 3 406 27 discriminator 2 view .LVU104
 546 0052 B9F80610 		ldrh	r1, [r9, #6]
 547              		.loc 3 406 37 discriminator 2 view .LVU105
 548 0056 4B19     		adds	r3, r1, r5
 549              		.loc 3 406 27 discriminator 2 view .LVU106
 550 0058 0191     		str	r1, [sp, #4]
 551              		.loc 3 406 12 discriminator 2 view .LVU107
 552 005a 8342     		cmp	r3, r0
 553 005c 73DC     		bgt	.L20
 554              	.LVL33:
 407:../../libdaisy/src/hid/disp/display.h ****         {
 408:../../libdaisy/src/hid/disp/display.h ****             // Not enough space on current line
 409:../../libdaisy/src/hid/disp/display.h ****             return 0;
 410:../../libdaisy/src/hid/disp/display.h ****         }
 411:../../libdaisy/src/hid/disp/display.h **** 
 412:../../libdaisy/src/hid/disp/display.h ****         // Use the font to write
 413:../../libdaisy/src/hid/disp/display.h ****         for(i = 0; i < font.FontHeight; i++)
 555              		.loc 3 413 22 is_stmt 1 view .LVU108
 556 005e 002D     		cmp	r5, #0
 557 0060 00F08880 		beq	.L22
 414:../../libdaisy/src/hid/disp/display.h ****         {
 415:../../libdaisy/src/hid/disp/display.h ****             b = font.data[(ch - 32) * font.FontHeight + i];
 558              		.loc 3 415 37 is_stmt 0 view .LVU109
 559 0064 05FB04F4 		mul	r4, r5, r4
 560              		.loc 3 415 22 view .LVU110
 561 0068 039A     		ldr	r2, [sp, #12]
 562 006a 6FF00043 		mvn	r3, #-2147483648
 563 006e B9F804A0 		ldrh	r10, [r9, #4]
 564 0072 2544     		add	r5, r5, r4
 565 0074 A2F1020B 		sub	fp, r2, #2
 566 0078 2344     		add	r3, r3, r4
 567 007a 0BEB450B 		add	fp, fp, r5, lsl #1
 568 007e 0D46     		mov	r5, r1
 569 0080 02EB430E 		add	lr, r2, r3, lsl #1
 570              	.LVL34:
ARM GAS  /tmp/ccobg3TQ.s 			page 33


 571              	.L25:
 572              		.loc 3 415 13 view .LVU111
 573 0084 3EF8024F 		ldrh	r4, [lr, #2]!
 574              	.LVL35:
 416:../../libdaisy/src/hid/disp/display.h ****             for(j = 0; j < font.FontWidth; j++)
 575              		.loc 3 416 26 is_stmt 1 view .LVU112
 576 0088 A6B3     		cbz	r6, .L30
 577              	.LBB781:
 578              	.LBB782:
 579              	.LBB783:
 580              	.LBB784:
 581              	.LBB785:
 246:../../libdaisy/src/dev/oled_ssd130x.h ****     }
 582              		.loc 12 246 55 is_stmt 0 view .LVU113
 583 008a 05F00703 		and	r3, r5, #7
 246:../../libdaisy/src/dev/oled_ssd130x.h ****     }
 584              		.loc 12 246 49 view .LVU114
 585 008e 0127     		movs	r7, #1
 246:../../libdaisy/src/dev/oled_ssd130x.h ****     }
 586              		.loc 12 246 28 view .LVU115
 587 0090 E808     		lsrs	r0, r5, #3
 246:../../libdaisy/src/dev/oled_ssd130x.h ****     }
 588              		.loc 12 246 42 view .LVU116
 589 0092 4146     		mov	r1, r8
 246:../../libdaisy/src/dev/oled_ssd130x.h ****     }
 590              		.loc 12 246 49 view .LVU117
 591 0094 9F40     		lsls	r7, r7, r3
 592              	.LBE785:
 593              	.LBE784:
 594              	.LBE783:
 595              	.LBE782:
 596              	.LBE781:
 597              		.loc 3 416 19 view .LVU118
 598 0096 0022     		movs	r2, #0
 599 0098 0AEBC013 		add	r3, r10, r0, lsl #7
 600              	.LBB803:
 601              	.LBB798:
 602              	.LBB793:
 603              	.LBB789:
 604              	.LBB786:
 246:../../libdaisy/src/dev/oled_ssd130x.h ****     }
 605              		.loc 12 246 42 view .LVU119
 606 009c 7FB2     		sxtb	r7, r7
 607 009e 4B44     		add	r3, r3, r9
 608 00a0 09EBC010 		add	r0, r9, r0, lsl #7
 609 00a4 6FEA070C 		mvn	ip, r7
 610 00a8 B846     		mov	r8, r7
 611 00aa 0F46     		mov	r7, r1
 612 00ac 0CE0     		b	.L31
 613              	.LVL36:
 614              	.L50:
 246:../../libdaisy/src/dev/oled_ssd130x.h ****     }
 615              		.loc 12 246 42 view .LVU120
 616              	.LBE786:
 617              	.LBE789:
 618              	.LBE793:
 619              	.LBE798:
ARM GAS  /tmp/ccobg3TQ.s 			page 34


 620              	.LBE803:
 621              	.LBB804:
 622              	.LBI804:
  41:../../libdaisy/src/hid/disp/oled_display.h ****     {
 623              		.loc 2 41 10 is_stmt 1 view .LVU121
 624              	.LBB805:
 625              	.LBI805:
 239:../../libdaisy/src/dev/oled_ssd130x.h ****     {
 626              		.loc 12 239 10 view .LVU122
 627              	.LBB806:
 241:../../libdaisy/src/dev/oled_ssd130x.h ****             return;
 628              		.loc 12 241 9 is_stmt 0 view .LVU123
 629 00ae 7F29     		cmp	r1, #127
 630 00b0 06D8     		bhi	.L27
 631 00b2 3F2D     		cmp	r5, #63
 632 00b4 04D8     		bhi	.L27
 244:../../libdaisy/src/dev/oled_ssd130x.h ****         else
 633              		.loc 12 244 42 view .LVU124
 634 00b6 197D     		ldrb	r1, [r3, #20]	@ zero_extendqisi2
 243:../../libdaisy/src/dev/oled_ssd130x.h ****             buffer_[x + (y / 8) * width] |= (1 << (y % 8));
 635              		.loc 12 243 9 view .LVU125
 636 00b8 A7B1     		cbz	r7, .L29
 637              	.L46:
 243:../../libdaisy/src/dev/oled_ssd130x.h ****             buffer_[x + (y / 8) * width] |= (1 << (y % 8));
 638              		.loc 12 243 9 view .LVU126
 639              	.LBE806:
 640              	.LBE805:
 641              	.LBE804:
 642              	.LBB809:
 643              	.LBB799:
 644              	.LBB794:
 244:../../libdaisy/src/dev/oled_ssd130x.h ****         else
 645              		.loc 12 244 42 view .LVU127
 646 00ba 48EA0101 		orr	r1, r8, r1
 244:../../libdaisy/src/dev/oled_ssd130x.h ****         else
 647              		.loc 12 244 13 view .LVU128
 648 00be 1975     		strb	r1, [r3, #20]
 649              	.L27:
 650              	.LBE794:
 651              	.LBE799:
 652              	.LBE809:
 653              		.loc 3 416 13 is_stmt 1 discriminator 2 view .LVU129
 654 00c0 0132     		adds	r2, r2, #1
 655              	.LVL37:
 656              		.loc 3 416 26 discriminator 2 view .LVU130
 657 00c2 0133     		adds	r3, r3, #1
 658 00c4 9642     		cmp	r6, r2
 659 00c6 14D0     		beq	.L49
 660              	.LVL38:
 661              	.L31:
 417:../../libdaisy/src/hid/disp/display.h ****             {
 418:../../libdaisy/src/hid/disp/display.h ****                 if((b << j) & 0x8000)
 662              		.loc 3 418 23 is_stmt 0 view .LVU131
 663 00c8 04FA02F1 		lsl	r1, r4, r2
 664              		.loc 3 418 17 view .LVU132
 665 00cc 11F4004F 		tst	r1, #32768
 666              	.LBB810:
ARM GAS  /tmp/ccobg3TQ.s 			page 35


 667              	.LBB808:
 668              	.LBB807:
 241:../../libdaisy/src/dev/oled_ssd130x.h ****             return;
 669              		.loc 12 241 14 view .LVU133
 670 00d0 A3EB0001 		sub	r1, r3, r0
 671              	.LBE807:
 672              	.LBE808:
 673              	.LBE810:
 674              		.loc 3 418 17 view .LVU134
 675 00d4 EBD1     		bne	.L50
 676              	.LVL39:
 677              	.LBB811:
 678              	.LBI781:
  41:../../libdaisy/src/hid/disp/oled_display.h ****     {
 679              		.loc 2 41 10 is_stmt 1 view .LVU135
 680              	.LBB800:
 681              	.LBI782:
 239:../../libdaisy/src/dev/oled_ssd130x.h ****     {
 682              		.loc 12 239 10 view .LVU136
 683              	.LBB795:
 241:../../libdaisy/src/dev/oled_ssd130x.h ****             return;
 684              		.loc 12 241 9 is_stmt 0 view .LVU137
 685 00d6 7F29     		cmp	r1, #127
 686 00d8 F2D8     		bhi	.L27
 687 00da 3F2D     		cmp	r5, #63
 688 00dc F0D8     		bhi	.L27
 244:../../libdaisy/src/dev/oled_ssd130x.h ****         else
 689              		.loc 12 244 42 view .LVU138
 690 00de 197D     		ldrb	r1, [r3, #20]	@ zero_extendqisi2
 243:../../libdaisy/src/dev/oled_ssd130x.h ****             buffer_[x + (y / 8) * width] |= (1 << (y % 8));
 691              		.loc 12 243 9 view .LVU139
 692 00e0 002F     		cmp	r7, #0
 693 00e2 EAD0     		beq	.L46
 694              	.L29:
 695              	.LVL40:
 696              	.LBB790:
 697              	.LBI784:
 239:../../libdaisy/src/dev/oled_ssd130x.h ****     {
 698              		.loc 12 239 10 is_stmt 1 view .LVU140
 239:../../libdaisy/src/dev/oled_ssd130x.h ****     {
 699              		.loc 12 239 10 is_stmt 0 view .LVU141
 700              	.LBE790:
 701              	.LBE795:
 702              	.LBE800:
 703              	.LBE811:
 416:../../libdaisy/src/hid/disp/display.h ****             {
 704              		.loc 3 416 13 view .LVU142
 705 00e4 0132     		adds	r2, r2, #1
 706              	.LVL41:
 707              	.LBB812:
 708              	.LBB801:
 709              	.LBB796:
 710              	.LBB791:
 711              	.LBB787:
 246:../../libdaisy/src/dev/oled_ssd130x.h ****     }
 712              		.loc 12 246 42 view .LVU143
 713 00e6 0CEA0101 		and	r1, ip, r1
ARM GAS  /tmp/ccobg3TQ.s 			page 36


 714 00ea 0133     		adds	r3, r3, #1
 715              	.LBE787:
 716              	.LBE791:
 717              	.LBE796:
 718              	.LBE801:
 719              	.LBE812:
 416:../../libdaisy/src/hid/disp/display.h ****             {
 720              		.loc 3 416 26 view .LVU144
 721 00ec 9642     		cmp	r6, r2
 722              	.LBB813:
 723              	.LBB802:
 724              	.LBB797:
 725              	.LBB792:
 726              	.LBB788:
 246:../../libdaisy/src/dev/oled_ssd130x.h ****     }
 727              		.loc 12 246 13 view .LVU145
 728 00ee D974     		strb	r1, [r3, #19]
 246:../../libdaisy/src/dev/oled_ssd130x.h ****     }
 729              		.loc 12 246 13 view .LVU146
 730              	.LBE788:
 731              	.LBE792:
 732              	.LBE797:
 733              	.LBE802:
 734              	.LBE813:
 416:../../libdaisy/src/hid/disp/display.h ****             {
 735              		.loc 3 416 13 is_stmt 1 view .LVU147
 736              	.LVL42:
 416:../../libdaisy/src/hid/disp/display.h ****             {
 737              		.loc 3 416 26 view .LVU148
 738 00f0 EAD1     		bne	.L31
 739              	.L49:
 416:../../libdaisy/src/hid/disp/display.h ****             {
 740              		.loc 3 416 26 is_stmt 0 view .LVU149
 741 00f2 B846     		mov	r8, r7
 742              	.LVL43:
 743              	.L30:
 413:../../libdaisy/src/hid/disp/display.h ****         {
 744              		.loc 3 413 9 is_stmt 1 view .LVU150
 413:../../libdaisy/src/hid/disp/display.h ****         {
 745              		.loc 3 413 22 view .LVU151
 746 00f4 F345     		cmp	fp, lr
 747 00f6 05F10105 		add	r5, r5, #1
 748 00fa C3D1     		bne	.L25
 749              	.LVL44:
 750              	.L24:
 751              	.LBB814:
 752              	.LBB815:
 173:../../libdaisy/src/hid/disp/display.h ****         currentY_ = (y >= Height()) ? Height() - 1 : y;
 753              		.loc 3 173 33 is_stmt 0 view .LVU152
 754 00fc D9F80030 		ldr	r3, [r9]
 755              	.LBE815:
 756              	.LBE814:
 419:../../libdaisy/src/hid/disp/display.h ****                 {
 420:../../libdaisy/src/hid/disp/display.h ****                     ((ChildType*)(this))
 421:../../libdaisy/src/hid/disp/display.h ****                         ->ChildType::DrawPixel(
 422:../../libdaisy/src/hid/disp/display.h ****                             currentX_ + j, (currentY_ + i), on);
 423:../../libdaisy/src/hid/disp/display.h ****                 }
ARM GAS  /tmp/ccobg3TQ.s 			page 37


 424:../../libdaisy/src/hid/disp/display.h ****                 else
 425:../../libdaisy/src/hid/disp/display.h ****                 {
 426:../../libdaisy/src/hid/disp/display.h ****                     ((ChildType*)(this))
 427:../../libdaisy/src/hid/disp/display.h ****                         ->ChildType::DrawPixel(
 428:../../libdaisy/src/hid/disp/display.h ****                             currentX_ + j, (currentY_ + i), !on);
 429:../../libdaisy/src/hid/disp/display.h ****                 }
 430:../../libdaisy/src/hid/disp/display.h ****             }
 431:../../libdaisy/src/hid/disp/display.h ****         }
 432:../../libdaisy/src/hid/disp/display.h **** 
 433:../../libdaisy/src/hid/disp/display.h ****         // The current space is now taken
 434:../../libdaisy/src/hid/disp/display.h ****         SetCursor(currentX_ + font.FontWidth, currentY_);
 757              		.loc 3 434 18 view .LVU153
 758 0100 0AEB0604 		add	r4, r10, r6
 759 0104 2349     		ldr	r1, .L56
 760              	.LBB820:
 761              	.LBB816:
 173:../../libdaisy/src/hid/disp/display.h ****         currentY_ = (y >= Height()) ? Height() - 1 : y;
 762              		.loc 3 173 33 view .LVU154
 763 0106 DA68     		ldr	r2, [r3, #12]
 764              	.LBE816:
 765              	.LBE820:
 766              		.loc 3 434 18 view .LVU155
 767 0108 A4B2     		uxth	r4, r4
 768              	.LVL45:
 769              	.LBB821:
 770              	.LBI814:
 171:../../libdaisy/src/hid/disp/display.h ****     {
 771              		.loc 3 171 10 is_stmt 1 view .LVU156
 772              	.LBB817:
 173:../../libdaisy/src/hid/disp/display.h ****         currentY_ = (y >= Height()) ? Height() - 1 : y;
 773              		.loc 3 173 9 view .LVU157
 774 010a 8A42     		cmp	r2, r1
 775 010c 2DD1     		bne	.L51
 173:../../libdaisy/src/hid/disp/display.h ****         currentY_ = (y >= Height()) ? Height() - 1 : y;
 776              		.loc 3 173 33 is_stmt 0 view .LVU158
 777 010e 8020     		movs	r0, #128
 778              	.L32:
 173:../../libdaisy/src/hid/disp/display.h ****         currentY_ = (y >= Height()) ? Height() - 1 : y;
 779              		.loc 3 173 19 view .LVU159
 780 0110 8442     		cmp	r4, r0
 781 0112 1CD2     		bcs	.L52
 782              	.LVL46:
 783              	.L33:
 174:../../libdaisy/src/hid/disp/display.h ****     }
 784              		.loc 3 174 34 view .LVU160
 785 0114 9B68     		ldr	r3, [r3, #8]
 786 0116 204A     		ldr	r2, .L56+4
 173:../../libdaisy/src/hid/disp/display.h ****         currentY_ = (y >= Height()) ? Height() - 1 : y;
 787              		.loc 3 173 19 view .LVU161
 788 0118 A9F80440 		strh	r4, [r9, #4]	@ movhi
 174:../../libdaisy/src/hid/disp/display.h ****     }
 789              		.loc 3 174 9 is_stmt 1 view .LVU162
 790 011c 9342     		cmp	r3, r2
 791 011e 21D1     		bne	.L53
 174:../../libdaisy/src/hid/disp/display.h ****     }
 792              		.loc 3 174 34 is_stmt 0 view .LVU163
 793 0120 4020     		movs	r0, #64
ARM GAS  /tmp/ccobg3TQ.s 			page 38


 794              	.L35:
 174:../../libdaisy/src/hid/disp/display.h ****     }
 795              		.loc 3 174 19 view .LVU164
 796 0122 019B     		ldr	r3, [sp, #4]
 797 0124 8342     		cmp	r3, r0
 798 0126 07D3     		bcc	.L36
 174:../../libdaisy/src/hid/disp/display.h ****     }
 799              		.loc 3 174 46 view .LVU165
 800 0128 D9F80030 		ldr	r3, [r9]
 801 012c 1A4A     		ldr	r2, .L56+4
 802 012e 9B68     		ldr	r3, [r3, #8]
 803 0130 9342     		cmp	r3, r2
 804 0132 29D1     		bne	.L54
 805 0134 3F23     		movs	r3, #63
 806 0136 0193     		str	r3, [sp, #4]
 807              	.LVL47:
 808              	.L36:
 174:../../libdaisy/src/hid/disp/display.h ****     }
 809              		.loc 3 174 19 view .LVU166
 810 0138 DDE90003 		ldrd	r0, r3, [sp]
 811 013c A9F80630 		strh	r3, [r9, #6]	@ movhi
 812              	.LVL48:
 174:../../libdaisy/src/hid/disp/display.h ****     }
 813              		.loc 3 174 19 view .LVU167
 814              	.LBE817:
 815              	.LBE821:
 435:../../libdaisy/src/hid/disp/display.h **** 
 436:../../libdaisy/src/hid/disp/display.h ****         // Return written char for validation
 437:../../libdaisy/src/hid/disp/display.h ****         return ch;
 438:../../libdaisy/src/hid/disp/display.h ****     }
 816              		.loc 3 438 5 view .LVU168
 817 0140 05B0     		add	sp, sp, #20
 818              		.cfi_remember_state
 819              		.cfi_def_cfa_offset 36
 820              		@ sp needed
 821 0142 BDE8F08F 		pop	{r4, r5, r6, r7, r8, r9, r10, fp, pc}
 822              	.LVL49:
 823              	.L20:
 824              		.cfi_restore_state
 402:../../libdaisy/src/hid/disp/display.h **** 
 825              		.loc 3 402 20 view .LVU169
 826 0146 0020     		movs	r0, #0
 827              		.loc 3 438 5 view .LVU170
 828 0148 05B0     		add	sp, sp, #20
 829              		.cfi_remember_state
 830              		.cfi_def_cfa_offset 36
 831              		@ sp needed
 832 014a BDE8F08F 		pop	{r4, r5, r6, r7, r8, r9, r10, fp, pc}
 833              	.LVL50:
 834              	.L52:
 835              		.cfi_restore_state
 836              	.LBB822:
 837              	.LBB818:
 173:../../libdaisy/src/hid/disp/display.h ****         currentY_ = (y >= Height()) ? Height() - 1 : y;
 838              		.loc 3 173 44 view .LVU171
 839 014e DA68     		ldr	r2, [r3, #12]
 840 0150 1049     		ldr	r1, .L56
ARM GAS  /tmp/ccobg3TQ.s 			page 39


 841 0152 8A42     		cmp	r2, r1
 842 0154 11D1     		bne	.L55
 843 0156 7F24     		movs	r4, #127
 844              	.LVL51:
 173:../../libdaisy/src/hid/disp/display.h ****         currentY_ = (y >= Height()) ? Height() - 1 : y;
 845              		.loc 3 173 44 view .LVU172
 846 0158 DCE7     		b	.L33
 847              	.LVL52:
 848              	.L47:
 173:../../libdaisy/src/hid/disp/display.h ****         currentY_ = (y >= Height()) ? Height() - 1 : y;
 849              		.loc 3 173 44 view .LVU173
 850              	.LBE818:
 851              	.LBE822:
 405:../../libdaisy/src/hid/disp/display.h ****            || Height() < (currentY_ + font.FontHeight))
 852              		.loc 3 405 17 view .LVU174
 853 015a 9847     		blx	r3
 854              	.LVL53:
 405:../../libdaisy/src/hid/disp/display.h ****            || Height() < (currentY_ + font.FontHeight))
 855              		.loc 3 405 17 view .LVU175
 856 015c 6BE7     		b	.L19
 857              	.L48:
 406:../../libdaisy/src/hid/disp/display.h ****         {
 858              		.loc 3 406 21 discriminator 2 view .LVU176
 859 015e 4846     		mov	r0, r9
 860 0160 9847     		blx	r3
 861              	.LVL54:
 862 0162 76E7     		b	.L21
 863              	.LVL55:
 864              	.L53:
 865              	.LBB823:
 866              	.LBB819:
 174:../../libdaisy/src/hid/disp/display.h ****     }
 867              		.loc 3 174 33 view .LVU177
 868 0164 4846     		mov	r0, r9
 869 0166 9847     		blx	r3
 870              	.LVL56:
 871 0168 DBE7     		b	.L35
 872              	.LVL57:
 873              	.L51:
 173:../../libdaisy/src/hid/disp/display.h ****         currentY_ = (y >= Height()) ? Height() - 1 : y;
 874              		.loc 3 173 32 view .LVU178
 875 016a 4846     		mov	r0, r9
 876 016c 9047     		blx	r2
 877              	.LVL58:
 878 016e D9F80030 		ldr	r3, [r9]
 879 0172 CDE7     		b	.L32
 880              	.LVL59:
 881              	.L22:
 173:../../libdaisy/src/hid/disp/display.h ****         currentY_ = (y >= Height()) ? Height() - 1 : y;
 882              		.loc 3 173 32 view .LVU179
 883 0174 B9F804A0 		ldrh	r10, [r9, #4]
 884 0178 C0E7     		b	.L24
 885              	.LVL60:
 886              	.L55:
 173:../../libdaisy/src/hid/disp/display.h ****         currentY_ = (y >= Height()) ? Height() - 1 : y;
 887              		.loc 3 173 43 view .LVU180
 888 017a 4846     		mov	r0, r9
ARM GAS  /tmp/ccobg3TQ.s 			page 40


 889 017c 9047     		blx	r2
 890              	.LVL61:
 891 017e 0138     		subs	r0, r0, #1
 892 0180 D9F80030 		ldr	r3, [r9]
 893 0184 84B2     		uxth	r4, r0
 894              	.LVL62:
 173:../../libdaisy/src/hid/disp/display.h ****         currentY_ = (y >= Height()) ? Height() - 1 : y;
 895              		.loc 3 173 43 view .LVU181
 896 0186 C5E7     		b	.L33
 897              	.L54:
 174:../../libdaisy/src/hid/disp/display.h ****     }
 898              		.loc 3 174 45 view .LVU182
 899 0188 4846     		mov	r0, r9
 900 018a 9847     		blx	r3
 901              	.LVL63:
 902 018c 0138     		subs	r0, r0, #1
 903 018e 83B2     		uxth	r3, r0
 904 0190 0193     		str	r3, [sp, #4]
 905              	.LVL64:
 174:../../libdaisy/src/hid/disp/display.h ****     }
 906              		.loc 3 174 45 view .LVU183
 907 0192 D1E7     		b	.L36
 908              	.L57:
 909              		.align	2
 910              	.L56:
 911 0194 00000000 		.word	_ZNK5daisy11OledDisplayINS_13SSD130xDriverILj128ELj64ENS_24SSD130x4WireSpiTransportEEEE5Widt
 912 0198 00000000 		.word	_ZNK5daisy11OledDisplayINS_13SSD130xDriverILj128ELj64ENS_24SSD130x4WireSpiTransportEEEE6Heig
 913              	.LBE819:
 914              	.LBE823:
 915              		.cfi_endproc
 916              	.LFE4689:
 918              		.section	.text._ZN5daisy11OledDisplayINS_13SSD130xDriverILj128ELj64ENS_24SSD130x4WireSpiTransportE
 919              		.align	1
 920              		.p2align 2,,3
 921              		.weak	_ZN5daisy11OledDisplayINS_13SSD130xDriverILj128ELj64ENS_24SSD130x4WireSpiTransportEEEE9DrawP
 922              		.syntax unified
 923              		.thumb
 924              		.thumb_func
 925              		.fpu fpv5-d16
 927              	_ZN5daisy11OledDisplayINS_13SSD130xDriverILj128ELj64ENS_24SSD130x4WireSpiTransportEEEE9DrawPixelEjj
 928              	.LVL65:
 929              	.LFB4728:
  41:../../libdaisy/src/hid/disp/oled_display.h ****     {
 930              		.loc 2 41 10 is_stmt 1 view -0
 931              		.cfi_startproc
 932              		@ args = 0, pretend = 0, frame = 0
 933              		@ frame_needed = 0, uses_anonymous_args = 0
 934              		@ link register save eliminated.
 935              	.LBB828:
 936              	.LBI828:
 239:../../libdaisy/src/dev/oled_ssd130x.h ****     {
 937              		.loc 12 239 10 view .LVU185
 938              	.LBB829:
 241:../../libdaisy/src/dev/oled_ssd130x.h ****             return;
 939              		.loc 12 241 9 is_stmt 0 view .LVU186
 940 0000 7F29     		cmp	r1, #127
 941 0002 21D8     		bhi	.L62
ARM GAS  /tmp/ccobg3TQ.s 			page 41


 942 0004 3F2A     		cmp	r2, #63
 943 0006 1FD8     		bhi	.L62
 944              	.LBE829:
 945              	.LBE828:
  41:../../libdaisy/src/hid/disp/oled_display.h ****     {
 946              		.loc 2 41 10 view .LVU187
 947 0008 10B4     		push	{r4}
 948              		.cfi_def_cfa_offset 4
 949              		.cfi_offset 4, -4
 950              	.LBB834:
 951              	.LBB832:
 243:../../libdaisy/src/dev/oled_ssd130x.h ****             buffer_[x + (y / 8) * width] |= (1 << (y % 8));
 952              		.loc 12 243 9 view .LVU188
 953 000a 73B9     		cbnz	r3, .L65
 954              	.LVL66:
 955              	.LBB830:
 956              	.LBI830:
 239:../../libdaisy/src/dev/oled_ssd130x.h ****     {
 957              		.loc 12 239 10 is_stmt 1 view .LVU189
 958              	.LBB831:
 246:../../libdaisy/src/dev/oled_ssd130x.h ****     }
 959              		.loc 12 246 28 is_stmt 0 view .LVU190
 960 000c D308     		lsrs	r3, r2, #3
 961              	.LVL67:
 246:../../libdaisy/src/dev/oled_ssd130x.h ****     }
 962              		.loc 12 246 49 view .LVU191
 963 000e 0124     		movs	r4, #1
 246:../../libdaisy/src/dev/oled_ssd130x.h ****     }
 964              		.loc 12 246 55 view .LVU192
 965 0010 02F00702 		and	r2, r2, #7
 966              	.LVL68:
 246:../../libdaisy/src/dev/oled_ssd130x.h ****     }
 967              		.loc 12 246 42 view .LVU193
 968 0014 01EBC313 		add	r3, r1, r3, lsl #7
 246:../../libdaisy/src/dev/oled_ssd130x.h ****     }
 969              		.loc 12 246 49 view .LVU194
 970 0018 9440     		lsls	r4, r4, r2
 246:../../libdaisy/src/dev/oled_ssd130x.h ****     }
 971              		.loc 12 246 13 view .LVU195
 972 001a C118     		adds	r1, r0, r3
 973              	.LVL69:
 246:../../libdaisy/src/dev/oled_ssd130x.h ****     }
 974              		.loc 12 246 42 view .LVU196
 975 001c 0A7D     		ldrb	r2, [r1, #20]	@ zero_extendqisi2
 976 001e 22EA0402 		bic	r2, r2, r4
 246:../../libdaisy/src/dev/oled_ssd130x.h ****     }
 977              		.loc 12 246 13 view .LVU197
 978 0022 0A75     		strb	r2, [r1, #20]
 979              	.LVL70:
 246:../../libdaisy/src/dev/oled_ssd130x.h ****     }
 980              		.loc 12 246 13 view .LVU198
 981              	.LBE831:
 982              	.LBE830:
 983              	.LBE832:
 984              	.LBE834:
  44:../../libdaisy/src/hid/disp/oled_display.h **** 
 985              		.loc 2 44 5 view .LVU199
ARM GAS  /tmp/ccobg3TQ.s 			page 42


 986 0024 5DF8044B 		ldr	r4, [sp], #4
 987              		.cfi_remember_state
 988              		.cfi_restore 4
 989              		.cfi_def_cfa_offset 0
 990 0028 7047     		bx	lr
 991              	.LVL71:
 992              	.L65:
 993              		.cfi_restore_state
 994              	.LBB835:
 995              	.LBB833:
 244:../../libdaisy/src/dev/oled_ssd130x.h ****         else
 996              		.loc 12 244 28 view .LVU200
 997 002a D408     		lsrs	r4, r2, #3
 244:../../libdaisy/src/dev/oled_ssd130x.h ****         else
 998              		.loc 12 244 48 view .LVU201
 999 002c 0123     		movs	r3, #1
 1000              	.LVL72:
 244:../../libdaisy/src/dev/oled_ssd130x.h ****         else
 1001              		.loc 12 244 54 view .LVU202
 1002 002e 02F00702 		and	r2, r2, #7
 1003              	.LVL73:
 244:../../libdaisy/src/dev/oled_ssd130x.h ****         else
 1004              		.loc 12 244 42 view .LVU203
 1005 0032 01EBC414 		add	r4, r1, r4, lsl #7
 244:../../libdaisy/src/dev/oled_ssd130x.h ****         else
 1006              		.loc 12 244 48 view .LVU204
 1007 0036 03FA02F2 		lsl	r2, r3, r2
 244:../../libdaisy/src/dev/oled_ssd130x.h ****         else
 1008              		.loc 12 244 13 view .LVU205
 1009 003a 0119     		adds	r1, r0, r4
 1010              	.LVL74:
 244:../../libdaisy/src/dev/oled_ssd130x.h ****         else
 1011              		.loc 12 244 42 view .LVU206
 1012 003c 0B7D     		ldrb	r3, [r1, #20]	@ zero_extendqisi2
 1013 003e 1A43     		orrs	r2, r2, r3
 244:../../libdaisy/src/dev/oled_ssd130x.h ****         else
 1014              		.loc 12 244 13 view .LVU207
 1015 0040 0A75     		strb	r2, [r1, #20]
 1016              	.LBE833:
 1017              	.LBE835:
  44:../../libdaisy/src/hid/disp/oled_display.h **** 
 1018              		.loc 2 44 5 view .LVU208
 1019 0042 5DF8044B 		ldr	r4, [sp], #4
 1020              		.cfi_restore 4
 1021              		.cfi_def_cfa_offset 0
 1022 0046 7047     		bx	lr
 1023              	.LVL75:
 1024              	.L62:
  44:../../libdaisy/src/hid/disp/oled_display.h **** 
 1025              		.loc 2 44 5 view .LVU209
 1026 0048 7047     		bx	lr
 1027              		.cfi_endproc
 1028              	.LFE4728:
 1030 004a 00BF     		.section	.text._ZN5daisy25OneBitGraphicsDisplayImplINS_11OledDisplayINS_13SSD130xDriverILj128ELj64
 1031              		.align	1
 1032              		.p2align 2,,3
 1033              		.weak	_ZN5daisy25OneBitGraphicsDisplayImplINS_11OledDisplayINS_13SSD130xDriverILj128ELj64ENS_24SSD
ARM GAS  /tmp/ccobg3TQ.s 			page 43


 1034              		.syntax unified
 1035              		.thumb
 1036              		.thumb_func
 1037              		.fpu fpv5-d16
 1039              	_ZN5daisy25OneBitGraphicsDisplayImplINS_11OledDisplayINS_13SSD130xDriverILj128ELj64ENS_24SSD130x4Wi
 1040              	.LVL76:
 1041              	.LFB4836:
 221:../../libdaisy/src/hid/disp/display.h ****                   uint_fast8_t y1,
 1042              		.loc 3 221 10 is_stmt 1 view -0
 1043              		.cfi_startproc
 1044              		@ args = 8, pretend = 0, frame = 8
 1045              		@ frame_needed = 0, uses_anonymous_args = 0
 221:../../libdaisy/src/hid/disp/display.h ****                   uint_fast8_t y1,
 1046              		.loc 3 221 10 is_stmt 0 view .LVU211
 1047 0000 2DE9F04F 		push	{r4, r5, r6, r7, r8, r9, r10, fp, lr}
 1048              		.cfi_def_cfa_offset 36
 1049              		.cfi_offset 4, -36
 1050              		.cfi_offset 5, -32
 1051              		.cfi_offset 6, -28
 1052              		.cfi_offset 7, -24
 1053              		.cfi_offset 8, -20
 1054              		.cfi_offset 9, -16
 1055              		.cfi_offset 10, -12
 1056              		.cfi_offset 11, -8
 1057              		.cfi_offset 14, -4
 1058 0004 83B0     		sub	sp, sp, #12
 1059              		.cfi_def_cfa_offset 48
 227:../../libdaisy/src/hid/disp/display.h ****         int_fast16_t deltaY = abs((int_fast16_t)y2 - (int_fast16_t)y1);
 1060              		.loc 3 227 52 view .LVU212
 1061 0006 5E1A     		subs	r6, r3, r1
 221:../../libdaisy/src/hid/disp/display.h ****                   uint_fast8_t y1,
 1062              		.loc 3 221 10 view .LVU213
 1063 0008 0C9F     		ldr	r7, [sp, #48]
 1064 000a 9DF83480 		ldrb	r8, [sp, #52]	@ zero_extendqisi2
 228:../../libdaisy/src/hid/disp/display.h ****         int_fast16_t signX  = ((x1 < x2) ? 1 : -1);
 1065              		.loc 3 228 52 view .LVU214
 1066 000e A7EB020E 		sub	lr, r7, r2
 228:../../libdaisy/src/hid/disp/display.h ****         int_fast16_t signX  = ((x1 < x2) ? 1 : -1);
 1067              		.loc 3 228 22 view .LVU215
 1068 0012 BEF1000F 		cmp	lr, #0
 1069 0016 B8BF     		it	lt
 1070 0018 CEF1000E 		rsblt	lr, lr, #0
 229:../../libdaisy/src/hid/disp/display.h ****         int_fast16_t signY  = ((y1 < y2) ? 1 : -1);
 1071              		.loc 3 229 22 view .LVU216
 1072 001c 8B42     		cmp	r3, r1
 1073 001e 8CBF     		ite	hi
 1074 0020 4FF00109 		movhi	r9, #1
 1075 0024 4FF0FF39 		movls	r9, #-1
 227:../../libdaisy/src/hid/disp/display.h ****         int_fast16_t deltaY = abs((int_fast16_t)y2 - (int_fast16_t)y1);
 1076              		.loc 3 227 22 view .LVU217
 1077 0028 002E     		cmp	r6, #0
 1078 002a B8BF     		it	lt
 1079 002c 7642     		rsblt	r6, r6, #0
 1080              	.LVL77:
 230:../../libdaisy/src/hid/disp/display.h ****         int_fast16_t error  = deltaX - deltaY;
 1081              		.loc 3 230 22 view .LVU218
 1082 002e 9742     		cmp	r7, r2
ARM GAS  /tmp/ccobg3TQ.s 			page 44


 231:../../libdaisy/src/hid/disp/display.h ****         int_fast16_t error2;
 1083              		.loc 3 231 22 view .LVU219
 1084 0030 A6EB0E04 		sub	r4, r6, lr
 230:../../libdaisy/src/hid/disp/display.h ****         int_fast16_t error  = deltaX - deltaY;
 1085              		.loc 3 230 22 view .LVU220
 1086 0034 4FD8     		bhi	.L68
 1087              	.LVL78:
 1088              	.LBB852:
 1089              	.LBI852:
  41:../../libdaisy/src/hid/disp/oled_display.h ****     {
 1090              		.loc 2 41 10 is_stmt 1 discriminator 4 view .LVU221
 1091              	.LBB853:
 1092              	.LBI853:
 239:../../libdaisy/src/dev/oled_ssd130x.h ****     {
 1093              		.loc 12 239 10 discriminator 4 view .LVU222
 1094              	.LBE853:
 1095              	.LBE852:
 230:../../libdaisy/src/hid/disp/display.h ****         int_fast16_t error  = deltaX - deltaY;
 1096              		.loc 3 230 22 is_stmt 0 discriminator 4 view .LVU223
 1097 0036 4FF0FF35 		mov	r5, #-1
 1098              	.LBB869:
 1099              	.LBB863:
 1100              	.LBB854:
 241:../../libdaisy/src/dev/oled_ssd130x.h ****             return;
 1101              		.loc 12 241 9 discriminator 4 view .LVU224
 1102 003a 7F2B     		cmp	r3, #127
 1103              	.LBE854:
 1104              	.LBE863:
 1105              	.LBE869:
 230:../../libdaisy/src/hid/disp/display.h ****         int_fast16_t error  = deltaX - deltaY;
 1106              		.loc 3 230 22 discriminator 4 view .LVU225
 1107 003c 0195     		str	r5, [sp, #4]
 1108              	.LBB870:
 1109              	.LBB864:
 1110              	.LBB859:
 241:../../libdaisy/src/dev/oled_ssd130x.h ****             return;
 1111              		.loc 12 241 9 discriminator 4 view .LVU226
 1112 003e 14D8     		bhi	.L69
 1113 0040 3F2F     		cmp	r7, #63
 1114 0042 12D8     		bhi	.L69
 1115              	.LVL79:
 1116              	.L80:
 244:../../libdaisy/src/dev/oled_ssd130x.h ****         else
 1117              		.loc 12 244 28 view .LVU227
 1118 0044 FD08     		lsrs	r5, r7, #3
 244:../../libdaisy/src/dev/oled_ssd130x.h ****         else
 1119              		.loc 12 244 54 view .LVU228
 1120 0046 07F0070C 		and	ip, r7, #7
 244:../../libdaisy/src/dev/oled_ssd130x.h ****         else
 1121              		.loc 12 244 48 view .LVU229
 1122 004a 4FF0010A 		mov	r10, #1
 244:../../libdaisy/src/dev/oled_ssd130x.h ****         else
 1123              		.loc 12 244 42 view .LVU230
 1124 004e 03EBC515 		add	r5, r3, r5, lsl #7
 243:../../libdaisy/src/dev/oled_ssd130x.h ****             buffer_[x + (y / 8) * width] |= (1 << (y % 8));
 1125              		.loc 12 243 9 view .LVU231
 1126 0052 B8F1000F 		cmp	r8, #0
ARM GAS  /tmp/ccobg3TQ.s 			page 45


 1127 0056 45D0     		beq	.L70
 244:../../libdaisy/src/dev/oled_ssd130x.h ****         else
 1128              		.loc 12 244 13 view .LVU232
 1129 0058 0544     		add	r5, r5, r0
 244:../../libdaisy/src/dev/oled_ssd130x.h ****         else
 1130              		.loc 12 244 48 view .LVU233
 1131 005a 0AFA0CFC 		lsl	ip, r10, ip
 244:../../libdaisy/src/dev/oled_ssd130x.h ****         else
 1132              		.loc 12 244 42 view .LVU234
 1133 005e 95F814A0 		ldrb	r10, [r5, #20]	@ zero_extendqisi2
 1134 0062 4CEA0A0C 		orr	ip, ip, r10
 244:../../libdaisy/src/dev/oled_ssd130x.h ****         else
 1135              		.loc 12 244 13 view .LVU235
 1136 0066 85F814C0 		strb	ip, [r5, #20]
 1137              	.L69:
 1138              	.LVL80:
 244:../../libdaisy/src/dev/oled_ssd130x.h ****         else
 1139              		.loc 12 244 13 view .LVU236
 1140              	.LBE859:
 1141              	.LBE864:
 1142              	.LBE870:
 239:../../libdaisy/src/hid/disp/display.h ****         {
 1143              		.loc 3 239 26 is_stmt 1 view .LVU237
 1144 006a 9742     		cmp	r7, r2
 1145 006c 01D1     		bne	.L73
 1146              	.L92:
 239:../../libdaisy/src/hid/disp/display.h ****         {
 1147              		.loc 3 239 26 is_stmt 0 view .LVU238
 1148 006e 8B42     		cmp	r3, r1
 1149 0070 29D0     		beq	.L66
 1150              	.L73:
 1151              	.LVL81:
 239:../../libdaisy/src/hid/disp/display.h ****         {
 1152              		.loc 3 239 26 view .LVU239
 1153 0072 CEF1000C 		rsb	ip, lr, #0
 1154              	.L75:
 1155              	.LVL82:
 1156              	.LBB871:
 1157              	.LBI871:
  41:../../libdaisy/src/hid/disp/oled_display.h ****     {
 1158              		.loc 2 41 10 is_stmt 1 view .LVU240
 1159              	.LBB872:
 1160              	.LBI872:
 239:../../libdaisy/src/dev/oled_ssd130x.h ****     {
 1161              		.loc 12 239 10 view .LVU241
 1162              	.LBB873:
 241:../../libdaisy/src/dev/oled_ssd130x.h ****             return;
 1163              		.loc 12 241 9 is_stmt 0 view .LVU242
 1164 0076 7F29     		cmp	r1, #127
 1165 0078 14D8     		bhi	.L76
 1166 007a 3F2A     		cmp	r2, #63
 1167 007c 12D8     		bhi	.L76
 244:../../libdaisy/src/dev/oled_ssd130x.h ****         else
 1168              		.loc 12 244 28 view .LVU243
 1169 007e D508     		lsrs	r5, r2, #3
 244:../../libdaisy/src/dev/oled_ssd130x.h ****         else
 1170              		.loc 12 244 48 view .LVU244
ARM GAS  /tmp/ccobg3TQ.s 			page 46


 1171 0080 4FF0010B 		mov	fp, #1
 244:../../libdaisy/src/dev/oled_ssd130x.h ****         else
 1172              		.loc 12 244 54 view .LVU245
 1173 0084 02F0070A 		and	r10, r2, #7
 244:../../libdaisy/src/dev/oled_ssd130x.h ****         else
 1174              		.loc 12 244 42 view .LVU246
 1175 0088 01EBC515 		add	r5, r1, r5, lsl #7
 244:../../libdaisy/src/dev/oled_ssd130x.h ****         else
 1176              		.loc 12 244 48 view .LVU247
 1177 008c 0BFA0AFA 		lsl	r10, fp, r10
 244:../../libdaisy/src/dev/oled_ssd130x.h ****         else
 1178              		.loc 12 244 13 view .LVU248
 1179 0090 0544     		add	r5, r5, r0
 244:../../libdaisy/src/dev/oled_ssd130x.h ****         else
 1180              		.loc 12 244 42 view .LVU249
 1181 0092 95F814B0 		ldrb	fp, [r5, #20]	@ zero_extendqisi2
 243:../../libdaisy/src/dev/oled_ssd130x.h ****             buffer_[x + (y / 8) * width] |= (1 << (y % 8));
 1182              		.loc 12 243 9 view .LVU250
 1183 0096 B8F1000F 		cmp	r8, #0
 1184 009a 17D0     		beq	.L77
 244:../../libdaisy/src/dev/oled_ssd130x.h ****         else
 1185              		.loc 12 244 42 view .LVU251
 1186 009c 4AEA0B0A 		orr	r10, r10, fp
 244:../../libdaisy/src/dev/oled_ssd130x.h ****         else
 1187              		.loc 12 244 13 view .LVU252
 1188 00a0 85F814A0 		strb	r10, [r5, #20]
 1189              	.L76:
 1190              	.LVL83:
 244:../../libdaisy/src/dev/oled_ssd130x.h ****         else
 1191              		.loc 12 244 13 view .LVU253
 1192              	.LBE873:
 1193              	.LBE872:
 1194              	.LBE871:
 243:../../libdaisy/src/hid/disp/display.h ****             {
 1195              		.loc 3 243 13 view .LVU254
 1196 00a4 BCEB440F 		cmp	ip, r4, lsl #1
 242:../../libdaisy/src/hid/disp/display.h ****             if(error2 > -deltaY)
 1197              		.loc 3 242 13 view .LVU255
 1198 00a8 4FEA4405 		lsl	r5, r4, #1
 1199              	.LVL84:
 243:../../libdaisy/src/hid/disp/display.h ****             {
 1200              		.loc 3 243 13 view .LVU256
 1201 00ac 02DA     		bge	.L78
 245:../../libdaisy/src/hid/disp/display.h ****                 x1 += signX;
 1202              		.loc 3 245 17 view .LVU257
 1203 00ae A4EB0E04 		sub	r4, r4, lr
 1204              	.LVL85:
 246:../../libdaisy/src/hid/disp/display.h ****             }
 1205              		.loc 3 246 17 view .LVU258
 1206 00b2 4944     		add	r1, r1, r9
 1207              	.LVL86:
 1208              	.L78:
 249:../../libdaisy/src/hid/disp/display.h ****             {
 1209              		.loc 3 249 13 view .LVU259
 1210 00b4 AE42     		cmp	r6, r5
 1211 00b6 02DD     		ble	.L79
 252:../../libdaisy/src/hid/disp/display.h ****             }
ARM GAS  /tmp/ccobg3TQ.s 			page 47


 1212              		.loc 3 252 17 view .LVU260
 1213 00b8 019D     		ldr	r5, [sp, #4]
 1214              	.LVL87:
 251:../../libdaisy/src/hid/disp/display.h ****                 y1 += signY;
 1215              		.loc 3 251 17 view .LVU261
 1216 00ba 3444     		add	r4, r4, r6
 1217              	.LVL88:
 252:../../libdaisy/src/hid/disp/display.h ****             }
 1218              		.loc 3 252 17 view .LVU262
 1219 00bc 2A44     		add	r2, r2, r5
 1220              	.LVL89:
 1221              	.L79:
 239:../../libdaisy/src/hid/disp/display.h ****         {
 1222              		.loc 3 239 26 is_stmt 1 view .LVU263
 1223 00be 9942     		cmp	r1, r3
 1224 00c0 D9D1     		bne	.L75
 239:../../libdaisy/src/hid/disp/display.h ****         {
 1225              		.loc 3 239 26 is_stmt 0 view .LVU264
 1226 00c2 9742     		cmp	r7, r2
 1227 00c4 D7D1     		bne	.L75
 1228              	.L66:
 255:../../libdaisy/src/hid/disp/display.h **** 
 1229              		.loc 3 255 5 view .LVU265
 1230 00c6 03B0     		add	sp, sp, #12
 1231              		.cfi_remember_state
 1232              		.cfi_def_cfa_offset 36
 1233              		@ sp needed
 1234 00c8 BDE8F08F 		pop	{r4, r5, r6, r7, r8, r9, r10, fp, pc}
 1235              	.LVL90:
 1236              	.L77:
 1237              		.cfi_restore_state
 1238              	.LBB878:
 1239              	.LBB877:
 1240              	.LBB876:
 1241              	.LBB874:
 1242              	.LBI874:
 239:../../libdaisy/src/dev/oled_ssd130x.h ****     {
 1243              		.loc 12 239 10 is_stmt 1 view .LVU266
 1244              	.LBB875:
 246:../../libdaisy/src/dev/oled_ssd130x.h ****     }
 1245              		.loc 12 246 42 is_stmt 0 view .LVU267
 1246 00cc 2BEA0A0A 		bic	r10, fp, r10
 246:../../libdaisy/src/dev/oled_ssd130x.h ****     }
 1247              		.loc 12 246 13 view .LVU268
 1248 00d0 85F814A0 		strb	r10, [r5, #20]
 1249 00d4 E6E7     		b	.L76
 1250              	.LVL91:
 1251              	.L68:
 246:../../libdaisy/src/dev/oled_ssd130x.h ****     }
 1252              		.loc 12 246 13 view .LVU269
 1253              	.LBE875:
 1254              	.LBE874:
 1255              	.LBE876:
 1256              	.LBE877:
 1257              	.LBE878:
 1258              	.LBB879:
  41:../../libdaisy/src/hid/disp/oled_display.h ****     {
ARM GAS  /tmp/ccobg3TQ.s 			page 48


 1259              		.loc 2 41 10 is_stmt 1 view .LVU270
 1260              	.LBB865:
 239:../../libdaisy/src/dev/oled_ssd130x.h ****     {
 1261              		.loc 12 239 10 view .LVU271
 1262              	.LBE865:
 1263              	.LBE879:
 230:../../libdaisy/src/hid/disp/display.h ****         int_fast16_t error  = deltaX - deltaY;
 1264              		.loc 3 230 22 is_stmt 0 view .LVU272
 1265 00d6 0125     		movs	r5, #1
 1266              	.LBB880:
 1267              	.LBB866:
 1268              	.LBB860:
 241:../../libdaisy/src/dev/oled_ssd130x.h ****             return;
 1269              		.loc 12 241 9 view .LVU273
 1270 00d8 7F2B     		cmp	r3, #127
 1271              	.LBE860:
 1272              	.LBE866:
 1273              	.LBE880:
 230:../../libdaisy/src/hid/disp/display.h ****         int_fast16_t error  = deltaX - deltaY;
 1274              		.loc 3 230 22 view .LVU274
 1275 00da 0195     		str	r5, [sp, #4]
 1276              	.LBB881:
 1277              	.LBB867:
 1278              	.LBB861:
 241:../../libdaisy/src/dev/oled_ssd130x.h ****             return;
 1279              		.loc 12 241 9 view .LVU275
 1280 00dc C9D8     		bhi	.L73
 1281 00de 3F2F     		cmp	r7, #63
 1282 00e0 B0D9     		bls	.L80
 1283 00e2 C6E7     		b	.L73
 1284              	.LVL92:
 1285              	.L70:
 1286              	.LBB855:
 1287              	.LBI855:
 239:../../libdaisy/src/dev/oled_ssd130x.h ****     {
 1288              		.loc 12 239 10 is_stmt 1 view .LVU276
 1289              	.LBB856:
 246:../../libdaisy/src/dev/oled_ssd130x.h ****     }
 1290              		.loc 12 246 13 is_stmt 0 view .LVU277
 1291 00e4 0544     		add	r5, r5, r0
 246:../../libdaisy/src/dev/oled_ssd130x.h ****     }
 1292              		.loc 12 246 49 view .LVU278
 1293 00e6 0AFA0CFA 		lsl	r10, r10, ip
 1294              	.LBE856:
 1295              	.LBE855:
 1296              	.LBE861:
 1297              	.LBE867:
 1298              	.LBE881:
 239:../../libdaisy/src/hid/disp/display.h ****         {
 1299              		.loc 3 239 26 view .LVU279
 1300 00ea 9742     		cmp	r7, r2
 1301              	.LBB882:
 1302              	.LBB868:
 1303              	.LBB862:
 1304              	.LBB858:
 1305              	.LBB857:
 246:../../libdaisy/src/dev/oled_ssd130x.h ****     }
ARM GAS  /tmp/ccobg3TQ.s 			page 49


 1306              		.loc 12 246 42 view .LVU280
 1307 00ec 95F814C0 		ldrb	ip, [r5, #20]	@ zero_extendqisi2
 1308 00f0 2CEA0A0C 		bic	ip, ip, r10
 246:../../libdaisy/src/dev/oled_ssd130x.h ****     }
 1309              		.loc 12 246 13 view .LVU281
 1310 00f4 85F814C0 		strb	ip, [r5, #20]
 1311              	.LVL93:
 246:../../libdaisy/src/dev/oled_ssd130x.h ****     }
 1312              		.loc 12 246 13 view .LVU282
 1313              	.LBE857:
 1314              	.LBE858:
 1315              	.LBE862:
 1316              	.LBE868:
 1317              	.LBE882:
 239:../../libdaisy/src/hid/disp/display.h ****         {
 1318              		.loc 3 239 26 is_stmt 1 view .LVU283
 1319 00f8 B9D0     		beq	.L92
 1320 00fa BAE7     		b	.L73
 1321              		.cfi_endproc
 1322              	.LFE4836:
 1324              		.section	.text._ZN5daisy25OneBitGraphicsDisplayImplINS_11OledDisplayINS_13SSD130xDriverILj128ELj64
 1325              		.align	1
 1326              		.p2align 2,,3
 1327              		.weak	_ZN5daisy25OneBitGraphicsDisplayImplINS_11OledDisplayINS_13SSD130xDriverILj128ELj64ENS_24SSD
 1328              		.syntax unified
 1329              		.thumb
 1330              		.thumb_func
 1331              		.fpu fpv5-d16
 1333              	_ZN5daisy25OneBitGraphicsDisplayImplINS_11OledDisplayINS_13SSD130xDriverILj128ELj64ENS_24SSD130x4Wi
 1334              	.LVL94:
 1335              	.LFB4560:
 439:../../libdaisy/src/hid/disp/display.h **** 
 440:../../libdaisy/src/hid/disp/display.h ****     char WriteString(const char* str, FontDef font, bool on) override
 1336              		.loc 3 440 10 view -0
 1337              		.cfi_startproc
 1338              		@ args = 4, pretend = 0, frame = 32
 1339              		@ frame_needed = 0, uses_anonymous_args = 0
 1340              		.loc 3 440 10 is_stmt 0 view .LVU285
 1341 0000 2DE9F04F 		push	{r4, r5, r6, r7, r8, r9, r10, fp, lr}
 1342              		.cfi_def_cfa_offset 36
 1343              		.cfi_offset 4, -36
 1344              		.cfi_offset 5, -32
 1345              		.cfi_offset 6, -28
 1346              		.cfi_offset 7, -24
 1347              		.cfi_offset 8, -20
 1348              		.cfi_offset 9, -16
 1349              		.cfi_offset 10, -12
 1350              		.cfi_offset 11, -8
 1351              		.cfi_offset 14, -4
 1352 0004 89B0     		sub	sp, sp, #36
 1353              		.cfi_def_cfa_offset 72
 1354              		.loc 3 440 10 view .LVU286
 1355 0006 8B46     		mov	fp, r1
 441:../../libdaisy/src/hid/disp/display.h ****     {
 442:../../libdaisy/src/hid/disp/display.h ****         // Write until null-byte
 443:../../libdaisy/src/hid/disp/display.h ****         while(*str)
 1356              		.loc 3 443 9 is_stmt 1 view .LVU287
ARM GAS  /tmp/ccobg3TQ.s 			page 50


 1357 0008 91F80090 		ldrb	r9, [r1]	@ zero_extendqisi2
 440:../../libdaisy/src/hid/disp/display.h ****     {
 1358              		.loc 3 440 10 is_stmt 0 view .LVU288
 1359 000c 9DF84840 		ldrb	r4, [sp, #72]	@ zero_extendqisi2
 1360 0010 08A9     		add	r1, sp, #32
 1361              	.LVL95:
 440:../../libdaisy/src/hid/disp/display.h ****     {
 1362              		.loc 3 440 10 view .LVU289
 1363 0012 0494     		str	r4, [sp, #16]
 1364 0014 01E90C00 		stmdb	r1, {r2, r3}
 1365              		.loc 3 443 9 view .LVU290
 1366 0018 B9F1000F 		cmp	r9, #0
 1367 001c 00F0B780 		beq	.L117
 1368 0020 9DF81930 		ldrb	r3, [sp, #25]	@ zero_extendqisi2
 1369 0024 8046     		mov	r8, r0
 1370 0026 9DF818A0 		ldrb	r10, [sp, #24]	@ zero_extendqisi2
 1371 002a 4D46     		mov	r5, r9
 1372 002c 0193     		str	r3, [sp, #4]
 1373 002e 079B     		ldr	r3, [sp, #28]
 1374 0030 0593     		str	r3, [sp, #20]
 1375              	.LVL96:
 1376              	.L118:
 1377              	.LBB911:
 1378              	.LBI911:
 396:../../libdaisy/src/hid/disp/display.h ****     {
 1379              		.loc 3 396 10 is_stmt 1 view .LVU291
 1380              	.LBB912:
 401:../../libdaisy/src/hid/disp/display.h ****             return 0;
 1381              		.loc 3 401 20 is_stmt 0 view .LVU292
 1382 0032 A5F12004 		sub	r4, r5, #32
 401:../../libdaisy/src/hid/disp/display.h ****             return 0;
 1383              		.loc 3 401 9 view .LVU293
 1384 0036 E3B2     		uxtb	r3, r4
 1385 0038 5E2B     		cmp	r3, #94
 1386 003a 00F2AC80 		bhi	.L99
 405:../../libdaisy/src/hid/disp/display.h ****            || Height() < (currentY_ + font.FontHeight))
 1387              		.loc 3 405 17 view .LVU294
 1388 003e D8F80030 		ldr	r3, [r8]
 1389 0042 654A     		ldr	r2, .L139
 1390 0044 DB68     		ldr	r3, [r3, #12]
 1391 0046 9342     		cmp	r3, r2
 1392 0048 40F0A780 		bne	.L132
 1393 004c 8020     		movs	r0, #128
 1394              	.L98:
 405:../../libdaisy/src/hid/disp/display.h ****            || Height() < (currentY_ + font.FontHeight))
 1395              		.loc 3 405 23 view .LVU295
 1396 004e B8F80430 		ldrh	r3, [r8, #4]
 405:../../libdaisy/src/hid/disp/display.h ****            || Height() < (currentY_ + font.FontHeight))
 1397              		.loc 3 405 33 view .LVU296
 1398 0052 5344     		add	r3, r3, r10
 406:../../libdaisy/src/hid/disp/display.h ****         {
 1399              		.loc 3 406 12 view .LVU297
 1400 0054 8342     		cmp	r3, r0
 1401 0056 00F39E80 		bgt	.L99
 406:../../libdaisy/src/hid/disp/display.h ****         {
 1402              		.loc 3 406 21 view .LVU298
 1403 005a D8F80030 		ldr	r3, [r8]
ARM GAS  /tmp/ccobg3TQ.s 			page 51


 1404 005e 5F4A     		ldr	r2, .L139+4
 1405 0060 9B68     		ldr	r3, [r3, #8]
 1406 0062 9342     		cmp	r3, r2
 1407 0064 40F09C80 		bne	.L133
 1408 0068 4020     		movs	r0, #64
 1409              	.L100:
 406:../../libdaisy/src/hid/disp/display.h ****         {
 1410              		.loc 3 406 27 view .LVU299
 1411 006a B8F80610 		ldrh	r1, [r8, #6]
 406:../../libdaisy/src/hid/disp/display.h ****         {
 1412              		.loc 3 406 37 view .LVU300
 1413 006e 019A     		ldr	r2, [sp, #4]
 406:../../libdaisy/src/hid/disp/display.h ****         {
 1414              		.loc 3 406 27 view .LVU301
 1415 0070 0091     		str	r1, [sp]
 406:../../libdaisy/src/hid/disp/display.h ****         {
 1416              		.loc 3 406 37 view .LVU302
 1417 0072 8B18     		adds	r3, r1, r2
 406:../../libdaisy/src/hid/disp/display.h ****         {
 1418              		.loc 3 406 12 view .LVU303
 1419 0074 8342     		cmp	r3, r0
 1420 0076 00F38E80 		bgt	.L99
 1421              	.LVL97:
 413:../../libdaisy/src/hid/disp/display.h ****         {
 1422              		.loc 3 413 22 is_stmt 1 view .LVU304
 1423 007a 1046     		mov	r0, r2
 1424 007c 002A     		cmp	r2, #0
 1425 007e 00F09A80 		beq	.L101
 415:../../libdaisy/src/hid/disp/display.h ****             for(j = 0; j < font.FontWidth; j++)
 1426              		.loc 3 415 37 is_stmt 0 view .LVU305
 1427 0082 1346     		mov	r3, r2
 1428 0084 6FF00046 		mvn	r6, #-2147483648
 1429 0088 B8F80470 		ldrh	r7, [r8, #4]
 1430 008c 03FB04F3 		mul	r3, r3, r4
 1431 0090 059C     		ldr	r4, [sp, #20]
 1432 0092 BE46     		mov	lr, r7
 1433 0094 CDF80CB0 		str	fp, [sp, #12]
 1434 0098 1E44     		add	r6, r6, r3
 1435 009a A21E     		subs	r2, r4, #2
 1436 009c 0344     		add	r3, r3, r0
 1437 009e 5746     		mov	r7, r10
 1438 00a0 04EB4606 		add	r6, r4, r6, lsl #1
 1439 00a4 DDF81090 		ldr	r9, [sp, #16]
 1440 00a8 02EB4303 		add	r3, r2, r3, lsl #1
 1441 00ac 0295     		str	r5, [sp, #8]
 1442 00ae 9B46     		mov	fp, r3
 1443              	.LVL98:
 1444              	.L104:
 415:../../libdaisy/src/hid/disp/display.h ****             for(j = 0; j < font.FontWidth; j++)
 1445              		.loc 3 415 13 view .LVU306
 1446 00b0 36F802AF 		ldrh	r10, [r6, #2]!
 1447              	.LVL99:
 416:../../libdaisy/src/hid/disp/display.h ****             {
 1448              		.loc 3 416 26 is_stmt 1 view .LVU307
 1449 00b4 A7B3     		cbz	r7, .L109
 1450              	.LBB913:
 1451              	.LBB914:
ARM GAS  /tmp/ccobg3TQ.s 			page 52


 1452              	.LBB915:
 1453              	.LBB916:
 1454              	.LBB917:
 246:../../libdaisy/src/dev/oled_ssd130x.h ****     }
 1455              		.loc 12 246 49 is_stmt 0 view .LVU308
 1456 00b6 0124     		movs	r4, #1
 246:../../libdaisy/src/dev/oled_ssd130x.h ****     }
 1457              		.loc 12 246 55 view .LVU309
 1458 00b8 01F00702 		and	r2, r1, #7
 246:../../libdaisy/src/dev/oled_ssd130x.h ****     }
 1459              		.loc 12 246 28 view .LVU310
 1460 00bc C808     		lsrs	r0, r1, #3
 1461 00be 0EF11403 		add	r3, lr, #20
 246:../../libdaisy/src/dev/oled_ssd130x.h ****     }
 1462              		.loc 12 246 49 view .LVU311
 1463 00c2 04FA02F2 		lsl	r2, r4, r2
 1464 00c6 7446     		mov	r4, lr
 1465 00c8 03EBC013 		add	r3, r3, r0, lsl #7
 1466              	.LBE917:
 1467              	.LBE916:
 1468              	.LBE915:
 1469              	.LBE914:
 1470              	.LBE913:
 416:../../libdaisy/src/hid/disp/display.h ****             {
 1471              		.loc 3 416 19 view .LVU312
 1472 00cc 0020     		movs	r0, #0
 1473              	.LBB935:
 1474              	.LBB930:
 1475              	.LBB925:
 1476              	.LBB921:
 1477              	.LBB918:
 246:../../libdaisy/src/dev/oled_ssd130x.h ****     }
 1478              		.loc 12 246 42 view .LVU313
 1479 00ce 52B2     		sxtb	r2, r2
 1480 00d0 4344     		add	r3, r3, r8
 1481 00d2 6FEA020C 		mvn	ip, r2
 1482 00d6 0EE0     		b	.L110
 1483              	.LVL100:
 1484              	.L134:
 246:../../libdaisy/src/dev/oled_ssd130x.h ****     }
 1485              		.loc 12 246 42 view .LVU314
 1486              	.LBE918:
 1487              	.LBE921:
 1488              	.LBE925:
 1489              	.LBE930:
 1490              	.LBE935:
 1491              	.LBB936:
 1492              	.LBI936:
  41:../../libdaisy/src/hid/disp/oled_display.h ****     {
 1493              		.loc 2 41 10 is_stmt 1 view .LVU315
 1494              	.LBB937:
 1495              	.LBI937:
 239:../../libdaisy/src/dev/oled_ssd130x.h ****     {
 1496              		.loc 12 239 10 view .LVU316
 1497              	.LBB938:
 241:../../libdaisy/src/dev/oled_ssd130x.h ****             return;
 1498              		.loc 12 241 9 is_stmt 0 view .LVU317
ARM GAS  /tmp/ccobg3TQ.s 			page 53


 1499 00d8 7F2C     		cmp	r4, #127
 1500 00da 07D8     		bhi	.L106
 1501 00dc 3F29     		cmp	r1, #63
 1502 00de 05D8     		bhi	.L106
 244:../../libdaisy/src/dev/oled_ssd130x.h ****         else
 1503              		.loc 12 244 42 view .LVU318
 1504 00e0 1D78     		ldrb	r5, [r3]	@ zero_extendqisi2
 243:../../libdaisy/src/dev/oled_ssd130x.h ****             buffer_[x + (y / 8) * width] |= (1 << (y % 8));
 1505              		.loc 12 243 9 view .LVU319
 1506 00e2 B9F1000F 		cmp	r9, #0
 1507 00e6 12D0     		beq	.L108
 1508              	.L131:
 243:../../libdaisy/src/dev/oled_ssd130x.h ****             buffer_[x + (y / 8) * width] |= (1 << (y % 8));
 1509              		.loc 12 243 9 view .LVU320
 1510              	.LBE938:
 1511              	.LBE937:
 1512              	.LBE936:
 1513              	.LBB939:
 1514              	.LBB931:
 1515              	.LBB926:
 244:../../libdaisy/src/dev/oled_ssd130x.h ****         else
 1516              		.loc 12 244 42 view .LVU321
 1517 00e8 1543     		orrs	r5, r5, r2
 244:../../libdaisy/src/dev/oled_ssd130x.h ****         else
 1518              		.loc 12 244 13 view .LVU322
 1519 00ea 1D70     		strb	r5, [r3]
 1520              	.L106:
 1521              	.LBE926:
 1522              	.LBE931:
 1523              	.LBE939:
 416:../../libdaisy/src/hid/disp/display.h ****             {
 1524              		.loc 3 416 13 is_stmt 1 view .LVU323
 1525 00ec 0130     		adds	r0, r0, #1
 1526              	.LVL101:
 416:../../libdaisy/src/hid/disp/display.h ****             {
 1527              		.loc 3 416 26 view .LVU324
 1528 00ee 0133     		adds	r3, r3, #1
 1529 00f0 0134     		adds	r4, r4, #1
 1530 00f2 B842     		cmp	r0, r7
 1531 00f4 14D0     		beq	.L109
 1532              	.LVL102:
 1533              	.L110:
 418:../../libdaisy/src/hid/disp/display.h ****                 {
 1534              		.loc 3 418 23 is_stmt 0 view .LVU325
 1535 00f6 0AFA00F5 		lsl	r5, r10, r0
 418:../../libdaisy/src/hid/disp/display.h ****                 {
 1536              		.loc 3 418 17 view .LVU326
 1537 00fa 2D04     		lsls	r5, r5, #16
 1538 00fc ECD4     		bmi	.L134
 1539              	.LVL103:
 1540              	.LBB940:
 1541              	.LBI913:
  41:../../libdaisy/src/hid/disp/oled_display.h ****     {
 1542              		.loc 2 41 10 is_stmt 1 view .LVU327
 1543              	.LBB932:
 1544              	.LBI914:
 239:../../libdaisy/src/dev/oled_ssd130x.h ****     {
ARM GAS  /tmp/ccobg3TQ.s 			page 54


 1545              		.loc 12 239 10 view .LVU328
 1546              	.LBB927:
 241:../../libdaisy/src/dev/oled_ssd130x.h ****             return;
 1547              		.loc 12 241 9 is_stmt 0 view .LVU329
 1548 00fe 7F2C     		cmp	r4, #127
 1549 0100 F4D8     		bhi	.L106
 1550 0102 3F29     		cmp	r1, #63
 1551 0104 F2D8     		bhi	.L106
 244:../../libdaisy/src/dev/oled_ssd130x.h ****         else
 1552              		.loc 12 244 42 view .LVU330
 1553 0106 1D78     		ldrb	r5, [r3]	@ zero_extendqisi2
 243:../../libdaisy/src/dev/oled_ssd130x.h ****             buffer_[x + (y / 8) * width] |= (1 << (y % 8));
 1554              		.loc 12 243 9 view .LVU331
 1555 0108 B9F1000F 		cmp	r9, #0
 1556 010c ECD0     		beq	.L131
 1557              	.L108:
 1558              	.LVL104:
 1559              	.LBB922:
 1560              	.LBI916:
 239:../../libdaisy/src/dev/oled_ssd130x.h ****     {
 1561              		.loc 12 239 10 is_stmt 1 view .LVU332
 239:../../libdaisy/src/dev/oled_ssd130x.h ****     {
 1562              		.loc 12 239 10 is_stmt 0 view .LVU333
 1563              	.LBE922:
 1564              	.LBE927:
 1565              	.LBE932:
 1566              	.LBE940:
 416:../../libdaisy/src/hid/disp/display.h ****             {
 1567              		.loc 3 416 13 view .LVU334
 1568 010e 0130     		adds	r0, r0, #1
 1569              	.LVL105:
 1570              	.LBB941:
 1571              	.LBB933:
 1572              	.LBB928:
 1573              	.LBB923:
 1574              	.LBB919:
 246:../../libdaisy/src/dev/oled_ssd130x.h ****     }
 1575              		.loc 12 246 42 view .LVU335
 1576 0110 0CEA0505 		and	r5, ip, r5
 1577 0114 0133     		adds	r3, r3, #1
 1578 0116 0134     		adds	r4, r4, #1
 1579              	.LBE919:
 1580              	.LBE923:
 1581              	.LBE928:
 1582              	.LBE933:
 1583              	.LBE941:
 416:../../libdaisy/src/hid/disp/display.h ****             {
 1584              		.loc 3 416 26 view .LVU336
 1585 0118 B842     		cmp	r0, r7
 1586              	.LBB942:
 1587              	.LBB934:
 1588              	.LBB929:
 1589              	.LBB924:
 1590              	.LBB920:
 246:../../libdaisy/src/dev/oled_ssd130x.h ****     }
 1591              		.loc 12 246 13 view .LVU337
 1592 011a 03F8015C 		strb	r5, [r3, #-1]
ARM GAS  /tmp/ccobg3TQ.s 			page 55


 246:../../libdaisy/src/dev/oled_ssd130x.h ****     }
 1593              		.loc 12 246 13 view .LVU338
 1594              	.LBE920:
 1595              	.LBE924:
 1596              	.LBE929:
 1597              	.LBE934:
 1598              	.LBE942:
 416:../../libdaisy/src/hid/disp/display.h ****             {
 1599              		.loc 3 416 13 is_stmt 1 view .LVU339
 1600              	.LVL106:
 416:../../libdaisy/src/hid/disp/display.h ****             {
 1601              		.loc 3 416 26 view .LVU340
 1602 011e EAD1     		bne	.L110
 1603              	.LVL107:
 1604              	.L109:
 413:../../libdaisy/src/hid/disp/display.h ****         {
 1605              		.loc 3 413 9 view .LVU341
 413:../../libdaisy/src/hid/disp/display.h ****         {
 1606              		.loc 3 413 22 view .LVU342
 1607 0120 5E45     		cmp	r6, fp
 1608 0122 01F10101 		add	r1, r1, #1
 1609 0126 C3D1     		bne	.L104
 1610 0128 BA46     		mov	r10, r7
 1611              	.LVL108:
 413:../../libdaisy/src/hid/disp/display.h ****         {
 1612              		.loc 3 413 22 is_stmt 0 view .LVU343
 1613 012a 029D     		ldr	r5, [sp, #8]
 1614 012c 7746     		mov	r7, lr
 1615 012e DDF80CB0 		ldr	fp, [sp, #12]
 1616              	.L103:
 1617              	.LBB943:
 1618              	.LBB944:
 173:../../libdaisy/src/hid/disp/display.h ****         currentY_ = (y >= Height()) ? Height() - 1 : y;
 1619              		.loc 3 173 33 view .LVU344
 1620 0132 D8F80020 		ldr	r2, [r8]
 1621              	.LBE944:
 1622              	.LBE943:
 434:../../libdaisy/src/hid/disp/display.h **** 
 1623              		.loc 3 434 18 view .LVU345
 1624 0136 5744     		add	r7, r7, r10
 1625 0138 2749     		ldr	r1, .L139
 1626              	.LBB948:
 1627              	.LBB945:
 173:../../libdaisy/src/hid/disp/display.h ****         currentY_ = (y >= Height()) ? Height() - 1 : y;
 1628              		.loc 3 173 33 view .LVU346
 1629 013a D368     		ldr	r3, [r2, #12]
 1630              	.LBE945:
 1631              	.LBE948:
 434:../../libdaisy/src/hid/disp/display.h **** 
 1632              		.loc 3 434 18 view .LVU347
 1633 013c BFB2     		uxth	r7, r7
 1634              	.LVL109:
 1635              	.LBB949:
 1636              	.LBI943:
 171:../../libdaisy/src/hid/disp/display.h ****     {
 1637              		.loc 3 171 10 is_stmt 1 view .LVU348
 1638              	.LBB946:
ARM GAS  /tmp/ccobg3TQ.s 			page 56


 173:../../libdaisy/src/hid/disp/display.h ****         currentY_ = (y >= Height()) ? Height() - 1 : y;
 1639              		.loc 3 173 9 view .LVU349
 1640 013e 8B42     		cmp	r3, r1
 1641 0140 34D1     		bne	.L135
 173:../../libdaisy/src/hid/disp/display.h ****         currentY_ = (y >= Height()) ? Height() - 1 : y;
 1642              		.loc 3 173 33 is_stmt 0 view .LVU350
 1643 0142 8020     		movs	r0, #128
 1644              	.L111:
 173:../../libdaisy/src/hid/disp/display.h ****         currentY_ = (y >= Height()) ? Height() - 1 : y;
 1645              		.loc 3 173 19 view .LVU351
 1646 0144 8742     		cmp	r7, r0
 1647 0146 04D3     		bcc	.L112
 173:../../libdaisy/src/hid/disp/display.h ****         currentY_ = (y >= Height()) ? Height() - 1 : y;
 1648              		.loc 3 173 44 view .LVU352
 1649 0148 D368     		ldr	r3, [r2, #12]
 1650 014a 2349     		ldr	r1, .L139
 1651 014c 8B42     		cmp	r3, r1
 1652 014e 3BD1     		bne	.L136
 1653 0150 7F27     		movs	r7, #127
 1654              	.LVL110:
 1655              	.L112:
 174:../../libdaisy/src/hid/disp/display.h ****     }
 1656              		.loc 3 174 34 view .LVU353
 1657 0152 9368     		ldr	r3, [r2, #8]
 1658 0154 214A     		ldr	r2, .L139+4
 173:../../libdaisy/src/hid/disp/display.h ****         currentY_ = (y >= Height()) ? Height() - 1 : y;
 1659              		.loc 3 173 19 view .LVU354
 1660 0156 A8F80470 		strh	r7, [r8, #4]	@ movhi
 174:../../libdaisy/src/hid/disp/display.h ****     }
 1661              		.loc 3 174 9 is_stmt 1 view .LVU355
 1662 015a 9342     		cmp	r3, r2
 1663 015c 23D1     		bne	.L137
 174:../../libdaisy/src/hid/disp/display.h ****     }
 1664              		.loc 3 174 34 is_stmt 0 view .LVU356
 1665 015e 4020     		movs	r0, #64
 1666              	.L114:
 174:../../libdaisy/src/hid/disp/display.h ****     }
 1667              		.loc 3 174 19 view .LVU357
 1668 0160 009B     		ldr	r3, [sp]
 1669 0162 8342     		cmp	r3, r0
 1670 0164 07D3     		bcc	.L115
 174:../../libdaisy/src/hid/disp/display.h ****     }
 1671              		.loc 3 174 46 view .LVU358
 1672 0166 D8F80030 		ldr	r3, [r8]
 1673 016a 1C4A     		ldr	r2, .L139+4
 1674 016c 9B68     		ldr	r3, [r3, #8]
 1675 016e 9342     		cmp	r3, r2
 1676 0170 24D1     		bne	.L138
 1677 0172 3F23     		movs	r3, #63
 1678 0174 0093     		str	r3, [sp]
 1679              	.LVL111:
 1680              	.L115:
 174:../../libdaisy/src/hid/disp/display.h ****     }
 1681              		.loc 3 174 19 view .LVU359
 1682 0176 009B     		ldr	r3, [sp]
 1683 0178 A8F80630 		strh	r3, [r8, #6]	@ movhi
 1684              	.LVL112:
ARM GAS  /tmp/ccobg3TQ.s 			page 57


 1685              	.L97:
 174:../../libdaisy/src/hid/disp/display.h ****     }
 1686              		.loc 3 174 19 view .LVU360
 1687              	.LBE946:
 1688              	.LBE949:
 1689              	.LBE912:
 1690              	.LBE911:
 444:../../libdaisy/src/hid/disp/display.h ****         {
 445:../../libdaisy/src/hid/disp/display.h ****             if(((ChildType*)(this))->ChildType::WriteChar(*str, font, on)
 446:../../libdaisy/src/hid/disp/display.h ****                != *str)
 1691              		.loc 3 446 16 view .LVU361
 1692 017c 9BF80000 		ldrb	r0, [fp]	@ zero_extendqisi2
 445:../../libdaisy/src/hid/disp/display.h ****                != *str)
 1693              		.loc 3 445 13 view .LVU362
 1694 0180 A842     		cmp	r0, r5
 1695 0182 05D1     		bne	.L95
 1696              	.LVL113:
 443:../../libdaisy/src/hid/disp/display.h ****         {
 1697              		.loc 3 443 9 is_stmt 1 view .LVU363
 1698 0184 1BF8015F 		ldrb	r5, [fp, #1]!	@ zero_extendqisi2
 1699              	.LVL114:
 443:../../libdaisy/src/hid/disp/display.h ****         {
 1700              		.loc 3 443 9 is_stmt 0 view .LVU364
 1701 0188 002D     		cmp	r5, #0
 1702 018a 7FF452AF 		bne	.L118
 1703              	.LVL115:
 1704              	.L117:
 1705              	.LBB953:
 1706              	.LBB951:
 402:../../libdaisy/src/hid/disp/display.h **** 
 1707              		.loc 3 402 20 view .LVU365
 1708 018e 0020     		movs	r0, #0
 1709              	.LVL116:
 1710              	.L95:
 402:../../libdaisy/src/hid/disp/display.h **** 
 1711              		.loc 3 402 20 view .LVU366
 1712              	.LBE951:
 1713              	.LBE953:
 447:../../libdaisy/src/hid/disp/display.h ****             {
 448:../../libdaisy/src/hid/disp/display.h ****                 // Char could not be written
 449:../../libdaisy/src/hid/disp/display.h ****                 return *str;
 450:../../libdaisy/src/hid/disp/display.h ****             }
 451:../../libdaisy/src/hid/disp/display.h **** 
 452:../../libdaisy/src/hid/disp/display.h ****             // Next char
 453:../../libdaisy/src/hid/disp/display.h ****             str++;
 454:../../libdaisy/src/hid/disp/display.h ****         }
 455:../../libdaisy/src/hid/disp/display.h **** 
 456:../../libdaisy/src/hid/disp/display.h ****         // Everything ok
 457:../../libdaisy/src/hid/disp/display.h ****         return *str;
 458:../../libdaisy/src/hid/disp/display.h ****     }
 1714              		.loc 3 458 5 view .LVU367
 1715 0190 09B0     		add	sp, sp, #36
 1716              		.cfi_remember_state
 1717              		.cfi_def_cfa_offset 36
 1718              		@ sp needed
 1719 0192 BDE8F08F 		pop	{r4, r5, r6, r7, r8, r9, r10, fp, pc}
 1720              	.LVL117:
ARM GAS  /tmp/ccobg3TQ.s 			page 58


 1721              	.L99:
 1722              		.cfi_restore_state
 1723              	.LBB954:
 1724              	.LBB952:
 402:../../libdaisy/src/hid/disp/display.h **** 
 1725              		.loc 3 402 20 view .LVU368
 1726 0196 0025     		movs	r5, #0
 1727              	.LVL118:
 402:../../libdaisy/src/hid/disp/display.h **** 
 1728              		.loc 3 402 20 view .LVU369
 1729 0198 F0E7     		b	.L97
 1730              	.LVL119:
 1731              	.L132:
 405:../../libdaisy/src/hid/disp/display.h ****            || Height() < (currentY_ + font.FontHeight))
 1732              		.loc 3 405 17 view .LVU370
 1733 019a 4046     		mov	r0, r8
 1734 019c 9847     		blx	r3
 1735              	.LVL120:
 1736 019e 56E7     		b	.L98
 1737              	.L133:
 406:../../libdaisy/src/hid/disp/display.h ****         {
 1738              		.loc 3 406 21 view .LVU371
 1739 01a0 4046     		mov	r0, r8
 1740 01a2 9847     		blx	r3
 1741              	.LVL121:
 1742 01a4 61E7     		b	.L100
 1743              	.LVL122:
 1744              	.L137:
 1745              	.LBB950:
 1746              	.LBB947:
 174:../../libdaisy/src/hid/disp/display.h ****     }
 1747              		.loc 3 174 33 view .LVU372
 1748 01a6 4046     		mov	r0, r8
 1749 01a8 9847     		blx	r3
 1750              	.LVL123:
 1751 01aa D9E7     		b	.L114
 1752              	.LVL124:
 1753              	.L135:
 173:../../libdaisy/src/hid/disp/display.h ****         currentY_ = (y >= Height()) ? Height() - 1 : y;
 1754              		.loc 3 173 32 view .LVU373
 1755 01ac 4046     		mov	r0, r8
 1756 01ae 9847     		blx	r3
 1757              	.LVL125:
 1758 01b0 D8F80020 		ldr	r2, [r8]
 1759 01b4 C6E7     		b	.L111
 1760              	.LVL126:
 1761              	.L101:
 173:../../libdaisy/src/hid/disp/display.h ****         currentY_ = (y >= Height()) ? Height() - 1 : y;
 1762              		.loc 3 173 32 view .LVU374
 1763 01b6 B8F80470 		ldrh	r7, [r8, #4]
 1764 01ba BAE7     		b	.L103
 1765              	.LVL127:
 1766              	.L138:
 174:../../libdaisy/src/hid/disp/display.h ****     }
 1767              		.loc 3 174 45 view .LVU375
 1768 01bc 4046     		mov	r0, r8
 1769 01be 9847     		blx	r3
ARM GAS  /tmp/ccobg3TQ.s 			page 59


 1770              	.LVL128:
 1771 01c0 0138     		subs	r0, r0, #1
 1772 01c2 83B2     		uxth	r3, r0
 1773 01c4 0093     		str	r3, [sp]
 1774              	.LVL129:
 174:../../libdaisy/src/hid/disp/display.h ****     }
 1775              		.loc 3 174 45 view .LVU376
 1776 01c6 D6E7     		b	.L115
 1777              	.LVL130:
 1778              	.L136:
 173:../../libdaisy/src/hid/disp/display.h ****         currentY_ = (y >= Height()) ? Height() - 1 : y;
 1779              		.loc 3 173 43 view .LVU377
 1780 01c8 4046     		mov	r0, r8
 1781 01ca 9847     		blx	r3
 1782              	.LVL131:
 1783 01cc 0138     		subs	r0, r0, #1
 1784 01ce D8F80020 		ldr	r2, [r8]
 1785 01d2 87B2     		uxth	r7, r0
 1786              	.LVL132:
 173:../../libdaisy/src/hid/disp/display.h ****         currentY_ = (y >= Height()) ? Height() - 1 : y;
 1787              		.loc 3 173 43 view .LVU378
 1788 01d4 BDE7     		b	.L112
 1789              	.L140:
 1790 01d6 00BF     		.align	2
 1791              	.L139:
 1792 01d8 00000000 		.word	_ZNK5daisy11OledDisplayINS_13SSD130xDriverILj128ELj64ENS_24SSD130x4WireSpiTransportEEEE5Widt
 1793 01dc 00000000 		.word	_ZNK5daisy11OledDisplayINS_13SSD130xDriverILj128ELj64ENS_24SSD130x4WireSpiTransportEEEE6Heig
 1794              	.LBE947:
 1795              	.LBE950:
 1796              	.LBE952:
 1797              	.LBE954:
 1798              		.cfi_endproc
 1799              	.LFE4560:
 1801              		.section	.text._ZN5daisy25OneBitGraphicsDisplayImplINS_11OledDisplayINS_13SSD130xDriverILj128ELj64
 1802              		.align	1
 1803              		.p2align 2,,3
 1804              		.weak	_ZN5daisy25OneBitGraphicsDisplayImplINS_11OledDisplayINS_13SSD130xDriverILj128ELj64ENS_24SSD
 1805              		.syntax unified
 1806              		.thumb
 1807              		.thumb_func
 1808              		.fpu fpv5-d16
 1810              	_ZN5daisy25OneBitGraphicsDisplayImplINS_11OledDisplayINS_13SSD130xDriverILj128ELj64ENS_24SSD130x4Wi
 1811              	.LVL133:
 1812              	.LFB4838:
 283:../../libdaisy/src/hid/disp/display.h ****                  uint_fast8_t y,
 1813              		.loc 3 283 10 is_stmt 1 view -0
 1814              		.cfi_startproc
 1815              		@ args = 12, pretend = 0, frame = 16
 1816              		@ frame_needed = 0, uses_anonymous_args = 0
 283:../../libdaisy/src/hid/disp/display.h ****                  uint_fast8_t y,
 1817              		.loc 3 283 10 is_stmt 0 view .LVU380
 1818 0000 2DE9F04F 		push	{r4, r5, r6, r7, r8, r9, r10, fp, lr}
 1819              		.cfi_def_cfa_offset 36
 1820              		.cfi_offset 4, -36
 1821              		.cfi_offset 5, -32
 1822              		.cfi_offset 6, -28
 1823              		.cfi_offset 7, -24
ARM GAS  /tmp/ccobg3TQ.s 			page 60


 1824              		.cfi_offset 8, -20
 1825              		.cfi_offset 9, -16
 1826              		.cfi_offset 10, -12
 1827              		.cfi_offset 11, -8
 1828              		.cfi_offset 14, -4
 1829 0004 2DED068B 		vpush.64	{d8, d9, d10}
 1830              		.cfi_def_cfa_offset 60
 1831              		.cfi_offset 80, -60
 1832              		.cfi_offset 81, -56
 1833              		.cfi_offset 82, -52
 1834              		.cfi_offset 83, -48
 1835              		.cfi_offset 84, -44
 1836              		.cfi_offset 85, -40
 1837 0008 85B0     		sub	sp, sp, #20
 1838              		.cfi_def_cfa_offset 80
 283:../../libdaisy/src/hid/disp/display.h ****                  uint_fast8_t y,
 1839              		.loc 3 283 10 view .LVU381
 1840 000a 1C46     		mov	r4, r3
 1841 000c 0F46     		mov	r7, r1
 1842 000e 9046     		mov	r8, r2
 1843 0010 9DF85830 		ldrb	r3, [sp, #88]	@ zero_extendqisi2
 1844              	.LVL134:
 283:../../libdaisy/src/hid/disp/display.h ****                  uint_fast8_t y,
 1845              		.loc 3 283 10 view .LVU382
 1846 0014 0390     		str	r0, [sp, #12]
 1847 0016 0293     		str	r3, [sp, #8]
 306:../../libdaisy/src/hid/disp/display.h ****         {
 1848              		.loc 3 306 9 view .LVU383
 1849 0018 159B     		ldr	r3, [sp, #84]
 1850 001a 002B     		cmp	r3, #0
 1851 001c C0F2F281 		blt	.L142
 1852 0020 149A     		ldr	r2, [sp, #80]
 1853              	.LVL135:
 306:../../libdaisy/src/hid/disp/display.h ****         {
 1854              		.loc 3 306 9 view .LVU384
 1855 0022 1344     		add	r3, r3, r2
 1856 0024 06EE103A 		vmov	s12, r3	@ int
 1857              	.LVL136:
 1858              	.L143:
 312:../../libdaisy/src/hid/disp/display.h ****         end_angle_rad   = deg2rad(start_angle + sweep);
 1859              		.loc 3 312 27 view .LVU385
 1860 0028 DDED147A 		vldr.32	s15, [sp, #80]	@ int
 313:../../libdaisy/src/hid/disp/display.h **** 
 1861              		.loc 3 313 27 view .LVU386
 1862 002c B8EEC66B 		vcvt.f64.s32	d6, s12
 312:../../libdaisy/src/hid/disp/display.h ****         end_angle_rad   = deg2rad(start_angle + sweep);
 1863              		.loc 3 312 27 view .LVU387
 1864 0030 9FEDD54B 		vldr.64	d4, .L216
 1865 0034 B8EEE77B 		vcvt.f64.s32	d7, s15
 1866 0038 9FEDD55B 		vldr.64	d5, .L216+8
 1867 003c 27EE047B 		vmul.f64	d7, d7, d4
 313:../../libdaisy/src/hid/disp/display.h **** 
 1868              		.loc 3 313 27 view .LVU388
 1869 0040 26EE046B 		vmul.f64	d6, d6, d4
 312:../../libdaisy/src/hid/disp/display.h ****         end_angle_rad   = deg2rad(start_angle + sweep);
 1870              		.loc 3 312 27 view .LVU389
 1871 0044 87EE050B 		vdiv.f64	d0, d7, d5
ARM GAS  /tmp/ccobg3TQ.s 			page 61


 313:../../libdaisy/src/hid/disp/display.h **** 
 1872              		.loc 3 313 27 view .LVU390
 1873 0048 86EE05AB 		vdiv.f64	d10, d6, d5
 312:../../libdaisy/src/hid/disp/display.h ****         end_angle_rad   = deg2rad(start_angle + sweep);
 1874              		.loc 3 312 9 view .LVU391
 1875 004c F7EEC08B 		vcvt.f32.f64	s17, d0
 1876              	.LVL137:
 1877              	.LBB987:
 1878              	.LBB988:
 1879              		.file 14 "/usr/include/newlib/c++/9.2.1/cmath"
   1:/usr/include/newlib/c++/9.2.1/cmath **** // -*- C++ -*- C forwarding header.
   2:/usr/include/newlib/c++/9.2.1/cmath **** 
   3:/usr/include/newlib/c++/9.2.1/cmath **** // Copyright (C) 1997-2019 Free Software Foundation, Inc.
   4:/usr/include/newlib/c++/9.2.1/cmath **** //
   5:/usr/include/newlib/c++/9.2.1/cmath **** // This file is part of the GNU ISO C++ Library.  This library is free
   6:/usr/include/newlib/c++/9.2.1/cmath **** // software; you can redistribute it and/or modify it under the
   7:/usr/include/newlib/c++/9.2.1/cmath **** // terms of the GNU General Public License as published by the
   8:/usr/include/newlib/c++/9.2.1/cmath **** // Free Software Foundation; either version 3, or (at your option)
   9:/usr/include/newlib/c++/9.2.1/cmath **** // any later version.
  10:/usr/include/newlib/c++/9.2.1/cmath **** 
  11:/usr/include/newlib/c++/9.2.1/cmath **** // This library is distributed in the hope that it will be useful,
  12:/usr/include/newlib/c++/9.2.1/cmath **** // but WITHOUT ANY WARRANTY; without even the implied warranty of
  13:/usr/include/newlib/c++/9.2.1/cmath **** // MERCHANTABILITY or FITNESS FOR A PARTICULAR PURPOSE.  See the
  14:/usr/include/newlib/c++/9.2.1/cmath **** // GNU General Public License for more details.
  15:/usr/include/newlib/c++/9.2.1/cmath **** 
  16:/usr/include/newlib/c++/9.2.1/cmath **** // Under Section 7 of GPL version 3, you are granted additional
  17:/usr/include/newlib/c++/9.2.1/cmath **** // permissions described in the GCC Runtime Library Exception, version
  18:/usr/include/newlib/c++/9.2.1/cmath **** // 3.1, as published by the Free Software Foundation.
  19:/usr/include/newlib/c++/9.2.1/cmath **** 
  20:/usr/include/newlib/c++/9.2.1/cmath **** // You should have received a copy of the GNU General Public License and
  21:/usr/include/newlib/c++/9.2.1/cmath **** // a copy of the GCC Runtime Library Exception along with this program;
  22:/usr/include/newlib/c++/9.2.1/cmath **** // see the files COPYING3 and COPYING.RUNTIME respectively.  If not, see
  23:/usr/include/newlib/c++/9.2.1/cmath **** // <http://www.gnu.org/licenses/>.
  24:/usr/include/newlib/c++/9.2.1/cmath **** 
  25:/usr/include/newlib/c++/9.2.1/cmath **** /** @file include/cmath
  26:/usr/include/newlib/c++/9.2.1/cmath ****  *  This is a Standard C++ Library file.  You should @c \#include this file
  27:/usr/include/newlib/c++/9.2.1/cmath ****  *  in your programs, rather than any of the @a *.h implementation files.
  28:/usr/include/newlib/c++/9.2.1/cmath ****  *
  29:/usr/include/newlib/c++/9.2.1/cmath ****  *  This is the C++ version of the Standard C Library header @c math.h,
  30:/usr/include/newlib/c++/9.2.1/cmath ****  *  and its contents are (mostly) the same as that header, but are all
  31:/usr/include/newlib/c++/9.2.1/cmath ****  *  contained in the namespace @c std (except for names which are defined
  32:/usr/include/newlib/c++/9.2.1/cmath ****  *  as macros in C).
  33:/usr/include/newlib/c++/9.2.1/cmath ****  */
  34:/usr/include/newlib/c++/9.2.1/cmath **** 
  35:/usr/include/newlib/c++/9.2.1/cmath **** //
  36:/usr/include/newlib/c++/9.2.1/cmath **** // ISO C++ 14882: 26.5  C library
  37:/usr/include/newlib/c++/9.2.1/cmath **** //
  38:/usr/include/newlib/c++/9.2.1/cmath **** 
  39:/usr/include/newlib/c++/9.2.1/cmath **** #pragma GCC system_header
  40:/usr/include/newlib/c++/9.2.1/cmath **** 
  41:/usr/include/newlib/c++/9.2.1/cmath **** #include <bits/c++config.h>
  42:/usr/include/newlib/c++/9.2.1/cmath **** #include <bits/cpp_type_traits.h>
  43:/usr/include/newlib/c++/9.2.1/cmath **** #include <ext/type_traits.h>
  44:/usr/include/newlib/c++/9.2.1/cmath **** #define _GLIBCXX_INCLUDE_NEXT_C_HEADERS
  45:/usr/include/newlib/c++/9.2.1/cmath **** #include_next <math.h>
  46:/usr/include/newlib/c++/9.2.1/cmath **** #undef _GLIBCXX_INCLUDE_NEXT_C_HEADERS
  47:/usr/include/newlib/c++/9.2.1/cmath **** #include <bits/std_abs.h>
ARM GAS  /tmp/ccobg3TQ.s 			page 62


  48:/usr/include/newlib/c++/9.2.1/cmath **** 
  49:/usr/include/newlib/c++/9.2.1/cmath **** #ifndef _GLIBCXX_CMATH
  50:/usr/include/newlib/c++/9.2.1/cmath **** #define _GLIBCXX_CMATH 1
  51:/usr/include/newlib/c++/9.2.1/cmath **** 
  52:/usr/include/newlib/c++/9.2.1/cmath **** // Get rid of those macros defined in <math.h> in lieu of real functions.
  53:/usr/include/newlib/c++/9.2.1/cmath **** #undef div
  54:/usr/include/newlib/c++/9.2.1/cmath **** #undef acos
  55:/usr/include/newlib/c++/9.2.1/cmath **** #undef asin
  56:/usr/include/newlib/c++/9.2.1/cmath **** #undef atan
  57:/usr/include/newlib/c++/9.2.1/cmath **** #undef atan2
  58:/usr/include/newlib/c++/9.2.1/cmath **** #undef ceil
  59:/usr/include/newlib/c++/9.2.1/cmath **** #undef cos
  60:/usr/include/newlib/c++/9.2.1/cmath **** #undef cosh
  61:/usr/include/newlib/c++/9.2.1/cmath **** #undef exp
  62:/usr/include/newlib/c++/9.2.1/cmath **** #undef fabs
  63:/usr/include/newlib/c++/9.2.1/cmath **** #undef floor
  64:/usr/include/newlib/c++/9.2.1/cmath **** #undef fmod
  65:/usr/include/newlib/c++/9.2.1/cmath **** #undef frexp
  66:/usr/include/newlib/c++/9.2.1/cmath **** #undef ldexp
  67:/usr/include/newlib/c++/9.2.1/cmath **** #undef log
  68:/usr/include/newlib/c++/9.2.1/cmath **** #undef log10
  69:/usr/include/newlib/c++/9.2.1/cmath **** #undef modf
  70:/usr/include/newlib/c++/9.2.1/cmath **** #undef pow
  71:/usr/include/newlib/c++/9.2.1/cmath **** #undef sin
  72:/usr/include/newlib/c++/9.2.1/cmath **** #undef sinh
  73:/usr/include/newlib/c++/9.2.1/cmath **** #undef sqrt
  74:/usr/include/newlib/c++/9.2.1/cmath **** #undef tan
  75:/usr/include/newlib/c++/9.2.1/cmath **** #undef tanh
  76:/usr/include/newlib/c++/9.2.1/cmath **** 
  77:/usr/include/newlib/c++/9.2.1/cmath **** extern "C++"
  78:/usr/include/newlib/c++/9.2.1/cmath **** {
  79:/usr/include/newlib/c++/9.2.1/cmath **** namespace std _GLIBCXX_VISIBILITY(default)
  80:/usr/include/newlib/c++/9.2.1/cmath **** {
  81:/usr/include/newlib/c++/9.2.1/cmath **** _GLIBCXX_BEGIN_NAMESPACE_VERSION
  82:/usr/include/newlib/c++/9.2.1/cmath **** 
  83:/usr/include/newlib/c++/9.2.1/cmath ****   using ::acos;
  84:/usr/include/newlib/c++/9.2.1/cmath **** 
  85:/usr/include/newlib/c++/9.2.1/cmath **** #ifndef __CORRECT_ISO_CPP_MATH_H_PROTO
  86:/usr/include/newlib/c++/9.2.1/cmath ****   inline _GLIBCXX_CONSTEXPR float
  87:/usr/include/newlib/c++/9.2.1/cmath ****   acos(float __x)
  88:/usr/include/newlib/c++/9.2.1/cmath ****   { return __builtin_acosf(__x); }
  89:/usr/include/newlib/c++/9.2.1/cmath **** 
  90:/usr/include/newlib/c++/9.2.1/cmath ****   inline _GLIBCXX_CONSTEXPR long double
  91:/usr/include/newlib/c++/9.2.1/cmath ****   acos(long double __x)
  92:/usr/include/newlib/c++/9.2.1/cmath ****   { return __builtin_acosl(__x); }
  93:/usr/include/newlib/c++/9.2.1/cmath **** #endif
  94:/usr/include/newlib/c++/9.2.1/cmath **** 
  95:/usr/include/newlib/c++/9.2.1/cmath ****   template<typename _Tp>
  96:/usr/include/newlib/c++/9.2.1/cmath ****     inline _GLIBCXX_CONSTEXPR
  97:/usr/include/newlib/c++/9.2.1/cmath ****     typename __gnu_cxx::__enable_if<__is_integer<_Tp>::__value, 
  98:/usr/include/newlib/c++/9.2.1/cmath ****                                     double>::__type
  99:/usr/include/newlib/c++/9.2.1/cmath ****     acos(_Tp __x)
 100:/usr/include/newlib/c++/9.2.1/cmath ****     { return __builtin_acos(__x); }
 101:/usr/include/newlib/c++/9.2.1/cmath **** 
 102:/usr/include/newlib/c++/9.2.1/cmath ****   using ::asin;
 103:/usr/include/newlib/c++/9.2.1/cmath **** 
 104:/usr/include/newlib/c++/9.2.1/cmath **** #ifndef __CORRECT_ISO_CPP_MATH_H_PROTO
ARM GAS  /tmp/ccobg3TQ.s 			page 63


 105:/usr/include/newlib/c++/9.2.1/cmath ****   inline _GLIBCXX_CONSTEXPR float
 106:/usr/include/newlib/c++/9.2.1/cmath ****   asin(float __x)
 107:/usr/include/newlib/c++/9.2.1/cmath ****   { return __builtin_asinf(__x); }
 108:/usr/include/newlib/c++/9.2.1/cmath **** 
 109:/usr/include/newlib/c++/9.2.1/cmath ****   inline _GLIBCXX_CONSTEXPR long double
 110:/usr/include/newlib/c++/9.2.1/cmath ****   asin(long double __x)
 111:/usr/include/newlib/c++/9.2.1/cmath ****   { return __builtin_asinl(__x); }
 112:/usr/include/newlib/c++/9.2.1/cmath **** #endif
 113:/usr/include/newlib/c++/9.2.1/cmath **** 
 114:/usr/include/newlib/c++/9.2.1/cmath ****   template<typename _Tp>
 115:/usr/include/newlib/c++/9.2.1/cmath ****     inline _GLIBCXX_CONSTEXPR
 116:/usr/include/newlib/c++/9.2.1/cmath ****     typename __gnu_cxx::__enable_if<__is_integer<_Tp>::__value,
 117:/usr/include/newlib/c++/9.2.1/cmath ****                                     double>::__type
 118:/usr/include/newlib/c++/9.2.1/cmath ****     asin(_Tp __x)
 119:/usr/include/newlib/c++/9.2.1/cmath ****     { return __builtin_asin(__x); }
 120:/usr/include/newlib/c++/9.2.1/cmath **** 
 121:/usr/include/newlib/c++/9.2.1/cmath ****   using ::atan;
 122:/usr/include/newlib/c++/9.2.1/cmath **** 
 123:/usr/include/newlib/c++/9.2.1/cmath **** #ifndef __CORRECT_ISO_CPP_MATH_H_PROTO
 124:/usr/include/newlib/c++/9.2.1/cmath ****   inline _GLIBCXX_CONSTEXPR float
 125:/usr/include/newlib/c++/9.2.1/cmath ****   atan(float __x)
 126:/usr/include/newlib/c++/9.2.1/cmath ****   { return __builtin_atanf(__x); }
 127:/usr/include/newlib/c++/9.2.1/cmath **** 
 128:/usr/include/newlib/c++/9.2.1/cmath ****   inline _GLIBCXX_CONSTEXPR long double
 129:/usr/include/newlib/c++/9.2.1/cmath ****   atan(long double __x)
 130:/usr/include/newlib/c++/9.2.1/cmath ****   { return __builtin_atanl(__x); }
 131:/usr/include/newlib/c++/9.2.1/cmath **** #endif
 132:/usr/include/newlib/c++/9.2.1/cmath **** 
 133:/usr/include/newlib/c++/9.2.1/cmath ****   template<typename _Tp>
 134:/usr/include/newlib/c++/9.2.1/cmath ****     inline _GLIBCXX_CONSTEXPR
 135:/usr/include/newlib/c++/9.2.1/cmath ****     typename __gnu_cxx::__enable_if<__is_integer<_Tp>::__value,
 136:/usr/include/newlib/c++/9.2.1/cmath ****                                     double>::__type
 137:/usr/include/newlib/c++/9.2.1/cmath ****     atan(_Tp __x)
 138:/usr/include/newlib/c++/9.2.1/cmath ****     { return __builtin_atan(__x); }
 139:/usr/include/newlib/c++/9.2.1/cmath **** 
 140:/usr/include/newlib/c++/9.2.1/cmath ****   using ::atan2;
 141:/usr/include/newlib/c++/9.2.1/cmath **** 
 142:/usr/include/newlib/c++/9.2.1/cmath **** #ifndef __CORRECT_ISO_CPP_MATH_H_PROTO
 143:/usr/include/newlib/c++/9.2.1/cmath ****   inline _GLIBCXX_CONSTEXPR float
 144:/usr/include/newlib/c++/9.2.1/cmath ****   atan2(float __y, float __x)
 145:/usr/include/newlib/c++/9.2.1/cmath ****   { return __builtin_atan2f(__y, __x); }
 146:/usr/include/newlib/c++/9.2.1/cmath **** 
 147:/usr/include/newlib/c++/9.2.1/cmath ****   inline _GLIBCXX_CONSTEXPR long double
 148:/usr/include/newlib/c++/9.2.1/cmath ****   atan2(long double __y, long double __x)
 149:/usr/include/newlib/c++/9.2.1/cmath ****   { return __builtin_atan2l(__y, __x); }
 150:/usr/include/newlib/c++/9.2.1/cmath **** #endif
 151:/usr/include/newlib/c++/9.2.1/cmath **** 
 152:/usr/include/newlib/c++/9.2.1/cmath ****   template<typename _Tp, typename _Up>
 153:/usr/include/newlib/c++/9.2.1/cmath ****     inline _GLIBCXX_CONSTEXPR
 154:/usr/include/newlib/c++/9.2.1/cmath ****     typename __gnu_cxx::__promote_2<_Tp, _Up>::__type
 155:/usr/include/newlib/c++/9.2.1/cmath ****     atan2(_Tp __y, _Up __x)
 156:/usr/include/newlib/c++/9.2.1/cmath ****     {
 157:/usr/include/newlib/c++/9.2.1/cmath ****       typedef typename __gnu_cxx::__promote_2<_Tp, _Up>::__type __type;
 158:/usr/include/newlib/c++/9.2.1/cmath ****       return atan2(__type(__y), __type(__x));
 159:/usr/include/newlib/c++/9.2.1/cmath ****     }
 160:/usr/include/newlib/c++/9.2.1/cmath **** 
 161:/usr/include/newlib/c++/9.2.1/cmath ****   using ::ceil;
ARM GAS  /tmp/ccobg3TQ.s 			page 64


 162:/usr/include/newlib/c++/9.2.1/cmath **** 
 163:/usr/include/newlib/c++/9.2.1/cmath **** #ifndef __CORRECT_ISO_CPP_MATH_H_PROTO
 164:/usr/include/newlib/c++/9.2.1/cmath ****   inline _GLIBCXX_CONSTEXPR float
 165:/usr/include/newlib/c++/9.2.1/cmath ****   ceil(float __x)
 166:/usr/include/newlib/c++/9.2.1/cmath ****   { return __builtin_ceilf(__x); }
 167:/usr/include/newlib/c++/9.2.1/cmath **** 
 168:/usr/include/newlib/c++/9.2.1/cmath ****   inline _GLIBCXX_CONSTEXPR long double
 169:/usr/include/newlib/c++/9.2.1/cmath ****   ceil(long double __x)
 170:/usr/include/newlib/c++/9.2.1/cmath ****   { return __builtin_ceill(__x); }
 171:/usr/include/newlib/c++/9.2.1/cmath **** #endif
 172:/usr/include/newlib/c++/9.2.1/cmath **** 
 173:/usr/include/newlib/c++/9.2.1/cmath ****   template<typename _Tp>
 174:/usr/include/newlib/c++/9.2.1/cmath ****     inline _GLIBCXX_CONSTEXPR
 175:/usr/include/newlib/c++/9.2.1/cmath ****     typename __gnu_cxx::__enable_if<__is_integer<_Tp>::__value, 
 176:/usr/include/newlib/c++/9.2.1/cmath ****                                     double>::__type
 177:/usr/include/newlib/c++/9.2.1/cmath ****     ceil(_Tp __x)
 178:/usr/include/newlib/c++/9.2.1/cmath ****     { return __builtin_ceil(__x); }
 179:/usr/include/newlib/c++/9.2.1/cmath **** 
 180:/usr/include/newlib/c++/9.2.1/cmath ****   using ::cos;
 181:/usr/include/newlib/c++/9.2.1/cmath **** 
 182:/usr/include/newlib/c++/9.2.1/cmath **** #ifndef __CORRECT_ISO_CPP_MATH_H_PROTO
 183:/usr/include/newlib/c++/9.2.1/cmath ****   inline _GLIBCXX_CONSTEXPR float
 184:/usr/include/newlib/c++/9.2.1/cmath ****   cos(float __x)
 185:/usr/include/newlib/c++/9.2.1/cmath ****   { return __builtin_cosf(__x); }
 1880              		.loc 14 185 26 view .LVU392
 1881 0050 B0EE680A 		vmov.f32	s0, s17
 1882 0054 FFF7FEFF 		bl	cosf
 1883              	.LVL138:
 1884              		.loc 14 185 26 view .LVU393
 1885              	.LBE988:
 1886              	.LBE987:
 313:../../libdaisy/src/hid/disp/display.h **** 
 1887              		.loc 3 313 9 view .LVU394
 1888 0058 B7EECAAB 		vcvt.f32.f64	s20, d10
 1889              	.LVL139:
 1890              	.LBB991:
 1891              	.LBI987:
 184:/usr/include/newlib/c++/9.2.1/cmath ****   { return __builtin_cosf(__x); }
 1892              		.loc 14 184 3 is_stmt 1 view .LVU395
 1893              	.LBB989:
 1894              		.loc 14 185 5 view .LVU396
 1895              		.loc 14 185 5 is_stmt 0 view .LVU397
 1896              	.LBE989:
 1897              	.LBE991:
 315:../../libdaisy/src/hid/disp/display.h ****         start_y = -sin(start_angle_rad) * radius;
 1898              		.loc 3 315 9 view .LVU398
 1899 005c 07EE904A 		vmov	s15, r4	@ int
 1900              	.LBB992:
 1901              	.LBB990:
 1902              		.loc 14 185 26 view .LVU399
 1903 0060 B0EE408A 		vmov.f32	s16, s0
 1904              	.LBE990:
 1905              	.LBE992:
 1906              	.LBB993:
 1907              	.LBB994:
 186:/usr/include/newlib/c++/9.2.1/cmath **** 
 187:/usr/include/newlib/c++/9.2.1/cmath ****   inline _GLIBCXX_CONSTEXPR long double
ARM GAS  /tmp/ccobg3TQ.s 			page 65


 188:/usr/include/newlib/c++/9.2.1/cmath ****   cos(long double __x)
 189:/usr/include/newlib/c++/9.2.1/cmath ****   { return __builtin_cosl(__x); }
 190:/usr/include/newlib/c++/9.2.1/cmath **** #endif
 191:/usr/include/newlib/c++/9.2.1/cmath **** 
 192:/usr/include/newlib/c++/9.2.1/cmath ****   template<typename _Tp>
 193:/usr/include/newlib/c++/9.2.1/cmath ****     inline _GLIBCXX_CONSTEXPR
 194:/usr/include/newlib/c++/9.2.1/cmath ****     typename __gnu_cxx::__enable_if<__is_integer<_Tp>::__value,
 195:/usr/include/newlib/c++/9.2.1/cmath ****                                     double>::__type
 196:/usr/include/newlib/c++/9.2.1/cmath ****     cos(_Tp __x)
 197:/usr/include/newlib/c++/9.2.1/cmath ****     { return __builtin_cos(__x); }
 198:/usr/include/newlib/c++/9.2.1/cmath **** 
 199:/usr/include/newlib/c++/9.2.1/cmath ****   using ::cosh;
 200:/usr/include/newlib/c++/9.2.1/cmath **** 
 201:/usr/include/newlib/c++/9.2.1/cmath **** #ifndef __CORRECT_ISO_CPP_MATH_H_PROTO
 202:/usr/include/newlib/c++/9.2.1/cmath ****   inline _GLIBCXX_CONSTEXPR float
 203:/usr/include/newlib/c++/9.2.1/cmath ****   cosh(float __x)
 204:/usr/include/newlib/c++/9.2.1/cmath ****   { return __builtin_coshf(__x); }
 205:/usr/include/newlib/c++/9.2.1/cmath **** 
 206:/usr/include/newlib/c++/9.2.1/cmath ****   inline _GLIBCXX_CONSTEXPR long double
 207:/usr/include/newlib/c++/9.2.1/cmath ****   cosh(long double __x)
 208:/usr/include/newlib/c++/9.2.1/cmath ****   { return __builtin_coshl(__x); }
 209:/usr/include/newlib/c++/9.2.1/cmath **** #endif
 210:/usr/include/newlib/c++/9.2.1/cmath **** 
 211:/usr/include/newlib/c++/9.2.1/cmath ****   template<typename _Tp>
 212:/usr/include/newlib/c++/9.2.1/cmath ****     inline _GLIBCXX_CONSTEXPR
 213:/usr/include/newlib/c++/9.2.1/cmath ****     typename __gnu_cxx::__enable_if<__is_integer<_Tp>::__value,
 214:/usr/include/newlib/c++/9.2.1/cmath ****                                     double>::__type
 215:/usr/include/newlib/c++/9.2.1/cmath ****     cosh(_Tp __x)
 216:/usr/include/newlib/c++/9.2.1/cmath ****     { return __builtin_cosh(__x); }
 217:/usr/include/newlib/c++/9.2.1/cmath **** 
 218:/usr/include/newlib/c++/9.2.1/cmath ****   using ::exp;
 219:/usr/include/newlib/c++/9.2.1/cmath **** 
 220:/usr/include/newlib/c++/9.2.1/cmath **** #ifndef __CORRECT_ISO_CPP_MATH_H_PROTO
 221:/usr/include/newlib/c++/9.2.1/cmath ****   inline _GLIBCXX_CONSTEXPR float
 222:/usr/include/newlib/c++/9.2.1/cmath ****   exp(float __x)
 223:/usr/include/newlib/c++/9.2.1/cmath ****   { return __builtin_expf(__x); }
 224:/usr/include/newlib/c++/9.2.1/cmath **** 
 225:/usr/include/newlib/c++/9.2.1/cmath ****   inline _GLIBCXX_CONSTEXPR long double
 226:/usr/include/newlib/c++/9.2.1/cmath ****   exp(long double __x)
 227:/usr/include/newlib/c++/9.2.1/cmath ****   { return __builtin_expl(__x); }
 228:/usr/include/newlib/c++/9.2.1/cmath **** #endif
 229:/usr/include/newlib/c++/9.2.1/cmath **** 
 230:/usr/include/newlib/c++/9.2.1/cmath ****   template<typename _Tp>
 231:/usr/include/newlib/c++/9.2.1/cmath ****     inline _GLIBCXX_CONSTEXPR
 232:/usr/include/newlib/c++/9.2.1/cmath ****     typename __gnu_cxx::__enable_if<__is_integer<_Tp>::__value,
 233:/usr/include/newlib/c++/9.2.1/cmath ****                                     double>::__type
 234:/usr/include/newlib/c++/9.2.1/cmath ****     exp(_Tp __x)
 235:/usr/include/newlib/c++/9.2.1/cmath ****     { return __builtin_exp(__x); }
 236:/usr/include/newlib/c++/9.2.1/cmath **** 
 237:/usr/include/newlib/c++/9.2.1/cmath ****   using ::fabs;
 238:/usr/include/newlib/c++/9.2.1/cmath **** 
 239:/usr/include/newlib/c++/9.2.1/cmath **** #ifndef __CORRECT_ISO_CPP_MATH_H_PROTO
 240:/usr/include/newlib/c++/9.2.1/cmath ****   inline _GLIBCXX_CONSTEXPR float
 241:/usr/include/newlib/c++/9.2.1/cmath ****   fabs(float __x)
 242:/usr/include/newlib/c++/9.2.1/cmath ****   { return __builtin_fabsf(__x); }
 243:/usr/include/newlib/c++/9.2.1/cmath **** 
 244:/usr/include/newlib/c++/9.2.1/cmath ****   inline _GLIBCXX_CONSTEXPR long double
ARM GAS  /tmp/ccobg3TQ.s 			page 66


 245:/usr/include/newlib/c++/9.2.1/cmath ****   fabs(long double __x)
 246:/usr/include/newlib/c++/9.2.1/cmath ****   { return __builtin_fabsl(__x); }
 247:/usr/include/newlib/c++/9.2.1/cmath **** #endif
 248:/usr/include/newlib/c++/9.2.1/cmath **** 
 249:/usr/include/newlib/c++/9.2.1/cmath ****   template<typename _Tp>
 250:/usr/include/newlib/c++/9.2.1/cmath ****     inline _GLIBCXX_CONSTEXPR
 251:/usr/include/newlib/c++/9.2.1/cmath ****     typename __gnu_cxx::__enable_if<__is_integer<_Tp>::__value,
 252:/usr/include/newlib/c++/9.2.1/cmath ****                                     double>::__type
 253:/usr/include/newlib/c++/9.2.1/cmath ****     fabs(_Tp __x)
 254:/usr/include/newlib/c++/9.2.1/cmath ****     { return __builtin_fabs(__x); }
 255:/usr/include/newlib/c++/9.2.1/cmath **** 
 256:/usr/include/newlib/c++/9.2.1/cmath ****   using ::floor;
 257:/usr/include/newlib/c++/9.2.1/cmath **** 
 258:/usr/include/newlib/c++/9.2.1/cmath **** #ifndef __CORRECT_ISO_CPP_MATH_H_PROTO
 259:/usr/include/newlib/c++/9.2.1/cmath ****   inline _GLIBCXX_CONSTEXPR float
 260:/usr/include/newlib/c++/9.2.1/cmath ****   floor(float __x)
 261:/usr/include/newlib/c++/9.2.1/cmath ****   { return __builtin_floorf(__x); }
 262:/usr/include/newlib/c++/9.2.1/cmath **** 
 263:/usr/include/newlib/c++/9.2.1/cmath ****   inline _GLIBCXX_CONSTEXPR long double
 264:/usr/include/newlib/c++/9.2.1/cmath ****   floor(long double __x)
 265:/usr/include/newlib/c++/9.2.1/cmath ****   { return __builtin_floorl(__x); }
 266:/usr/include/newlib/c++/9.2.1/cmath **** #endif
 267:/usr/include/newlib/c++/9.2.1/cmath **** 
 268:/usr/include/newlib/c++/9.2.1/cmath ****   template<typename _Tp>
 269:/usr/include/newlib/c++/9.2.1/cmath ****     inline _GLIBCXX_CONSTEXPR
 270:/usr/include/newlib/c++/9.2.1/cmath ****     typename __gnu_cxx::__enable_if<__is_integer<_Tp>::__value,
 271:/usr/include/newlib/c++/9.2.1/cmath ****                                     double>::__type
 272:/usr/include/newlib/c++/9.2.1/cmath ****     floor(_Tp __x)
 273:/usr/include/newlib/c++/9.2.1/cmath ****     { return __builtin_floor(__x); }
 274:/usr/include/newlib/c++/9.2.1/cmath **** 
 275:/usr/include/newlib/c++/9.2.1/cmath ****   using ::fmod;
 276:/usr/include/newlib/c++/9.2.1/cmath **** 
 277:/usr/include/newlib/c++/9.2.1/cmath **** #ifndef __CORRECT_ISO_CPP_MATH_H_PROTO
 278:/usr/include/newlib/c++/9.2.1/cmath ****   inline _GLIBCXX_CONSTEXPR float
 279:/usr/include/newlib/c++/9.2.1/cmath ****   fmod(float __x, float __y)
 280:/usr/include/newlib/c++/9.2.1/cmath ****   { return __builtin_fmodf(__x, __y); }
 281:/usr/include/newlib/c++/9.2.1/cmath **** 
 282:/usr/include/newlib/c++/9.2.1/cmath ****   inline _GLIBCXX_CONSTEXPR long double
 283:/usr/include/newlib/c++/9.2.1/cmath ****   fmod(long double __x, long double __y)
 284:/usr/include/newlib/c++/9.2.1/cmath ****   { return __builtin_fmodl(__x, __y); }
 285:/usr/include/newlib/c++/9.2.1/cmath **** #endif
 286:/usr/include/newlib/c++/9.2.1/cmath **** 
 287:/usr/include/newlib/c++/9.2.1/cmath ****   template<typename _Tp, typename _Up>
 288:/usr/include/newlib/c++/9.2.1/cmath ****     inline _GLIBCXX_CONSTEXPR
 289:/usr/include/newlib/c++/9.2.1/cmath ****     typename __gnu_cxx::__promote_2<_Tp, _Up>::__type
 290:/usr/include/newlib/c++/9.2.1/cmath ****     fmod(_Tp __x, _Up __y)
 291:/usr/include/newlib/c++/9.2.1/cmath ****     {
 292:/usr/include/newlib/c++/9.2.1/cmath ****       typedef typename __gnu_cxx::__promote_2<_Tp, _Up>::__type __type;
 293:/usr/include/newlib/c++/9.2.1/cmath ****       return fmod(__type(__x), __type(__y));
 294:/usr/include/newlib/c++/9.2.1/cmath ****     }
 295:/usr/include/newlib/c++/9.2.1/cmath **** 
 296:/usr/include/newlib/c++/9.2.1/cmath ****   using ::frexp;
 297:/usr/include/newlib/c++/9.2.1/cmath **** 
 298:/usr/include/newlib/c++/9.2.1/cmath **** #ifndef __CORRECT_ISO_CPP_MATH_H_PROTO
 299:/usr/include/newlib/c++/9.2.1/cmath ****   inline float
 300:/usr/include/newlib/c++/9.2.1/cmath ****   frexp(float __x, int* __exp)
 301:/usr/include/newlib/c++/9.2.1/cmath ****   { return __builtin_frexpf(__x, __exp); }
ARM GAS  /tmp/ccobg3TQ.s 			page 67


 302:/usr/include/newlib/c++/9.2.1/cmath **** 
 303:/usr/include/newlib/c++/9.2.1/cmath ****   inline long double
 304:/usr/include/newlib/c++/9.2.1/cmath ****   frexp(long double __x, int* __exp)
 305:/usr/include/newlib/c++/9.2.1/cmath ****   { return __builtin_frexpl(__x, __exp); }
 306:/usr/include/newlib/c++/9.2.1/cmath **** #endif
 307:/usr/include/newlib/c++/9.2.1/cmath **** 
 308:/usr/include/newlib/c++/9.2.1/cmath ****   template<typename _Tp>
 309:/usr/include/newlib/c++/9.2.1/cmath ****     inline _GLIBCXX_CONSTEXPR
 310:/usr/include/newlib/c++/9.2.1/cmath ****     typename __gnu_cxx::__enable_if<__is_integer<_Tp>::__value, 
 311:/usr/include/newlib/c++/9.2.1/cmath ****                                     double>::__type
 312:/usr/include/newlib/c++/9.2.1/cmath ****     frexp(_Tp __x, int* __exp)
 313:/usr/include/newlib/c++/9.2.1/cmath ****     { return __builtin_frexp(__x, __exp); }
 314:/usr/include/newlib/c++/9.2.1/cmath **** 
 315:/usr/include/newlib/c++/9.2.1/cmath ****   using ::ldexp;
 316:/usr/include/newlib/c++/9.2.1/cmath **** 
 317:/usr/include/newlib/c++/9.2.1/cmath **** #ifndef __CORRECT_ISO_CPP_MATH_H_PROTO
 318:/usr/include/newlib/c++/9.2.1/cmath ****   inline _GLIBCXX_CONSTEXPR float
 319:/usr/include/newlib/c++/9.2.1/cmath ****   ldexp(float __x, int __exp)
 320:/usr/include/newlib/c++/9.2.1/cmath ****   { return __builtin_ldexpf(__x, __exp); }
 321:/usr/include/newlib/c++/9.2.1/cmath **** 
 322:/usr/include/newlib/c++/9.2.1/cmath ****   inline _GLIBCXX_CONSTEXPR long double
 323:/usr/include/newlib/c++/9.2.1/cmath ****   ldexp(long double __x, int __exp)
 324:/usr/include/newlib/c++/9.2.1/cmath ****   { return __builtin_ldexpl(__x, __exp); }
 325:/usr/include/newlib/c++/9.2.1/cmath **** #endif
 326:/usr/include/newlib/c++/9.2.1/cmath **** 
 327:/usr/include/newlib/c++/9.2.1/cmath ****   template<typename _Tp>
 328:/usr/include/newlib/c++/9.2.1/cmath ****     inline _GLIBCXX_CONSTEXPR
 329:/usr/include/newlib/c++/9.2.1/cmath ****     typename __gnu_cxx::__enable_if<__is_integer<_Tp>::__value, 
 330:/usr/include/newlib/c++/9.2.1/cmath ****                                     double>::__type
 331:/usr/include/newlib/c++/9.2.1/cmath ****     ldexp(_Tp __x, int __exp)
 332:/usr/include/newlib/c++/9.2.1/cmath ****     { return __builtin_ldexp(__x, __exp); }
 333:/usr/include/newlib/c++/9.2.1/cmath **** 
 334:/usr/include/newlib/c++/9.2.1/cmath ****   using ::log;
 335:/usr/include/newlib/c++/9.2.1/cmath **** 
 336:/usr/include/newlib/c++/9.2.1/cmath **** #ifndef __CORRECT_ISO_CPP_MATH_H_PROTO
 337:/usr/include/newlib/c++/9.2.1/cmath ****   inline _GLIBCXX_CONSTEXPR float
 338:/usr/include/newlib/c++/9.2.1/cmath ****   log(float __x)
 339:/usr/include/newlib/c++/9.2.1/cmath ****   { return __builtin_logf(__x); }
 340:/usr/include/newlib/c++/9.2.1/cmath **** 
 341:/usr/include/newlib/c++/9.2.1/cmath ****   inline _GLIBCXX_CONSTEXPR long double
 342:/usr/include/newlib/c++/9.2.1/cmath ****   log(long double __x)
 343:/usr/include/newlib/c++/9.2.1/cmath ****   { return __builtin_logl(__x); }
 344:/usr/include/newlib/c++/9.2.1/cmath **** #endif
 345:/usr/include/newlib/c++/9.2.1/cmath **** 
 346:/usr/include/newlib/c++/9.2.1/cmath ****   template<typename _Tp>
 347:/usr/include/newlib/c++/9.2.1/cmath ****     inline _GLIBCXX_CONSTEXPR
 348:/usr/include/newlib/c++/9.2.1/cmath ****     typename __gnu_cxx::__enable_if<__is_integer<_Tp>::__value, 
 349:/usr/include/newlib/c++/9.2.1/cmath ****                                     double>::__type
 350:/usr/include/newlib/c++/9.2.1/cmath ****     log(_Tp __x)
 351:/usr/include/newlib/c++/9.2.1/cmath ****     { return __builtin_log(__x); }
 352:/usr/include/newlib/c++/9.2.1/cmath **** 
 353:/usr/include/newlib/c++/9.2.1/cmath ****   using ::log10;
 354:/usr/include/newlib/c++/9.2.1/cmath **** 
 355:/usr/include/newlib/c++/9.2.1/cmath **** #ifndef __CORRECT_ISO_CPP_MATH_H_PROTO
 356:/usr/include/newlib/c++/9.2.1/cmath ****   inline _GLIBCXX_CONSTEXPR float
 357:/usr/include/newlib/c++/9.2.1/cmath ****   log10(float __x)
 358:/usr/include/newlib/c++/9.2.1/cmath ****   { return __builtin_log10f(__x); }
ARM GAS  /tmp/ccobg3TQ.s 			page 68


 359:/usr/include/newlib/c++/9.2.1/cmath **** 
 360:/usr/include/newlib/c++/9.2.1/cmath ****   inline _GLIBCXX_CONSTEXPR long double
 361:/usr/include/newlib/c++/9.2.1/cmath ****   log10(long double __x)
 362:/usr/include/newlib/c++/9.2.1/cmath ****   { return __builtin_log10l(__x); }
 363:/usr/include/newlib/c++/9.2.1/cmath **** #endif
 364:/usr/include/newlib/c++/9.2.1/cmath **** 
 365:/usr/include/newlib/c++/9.2.1/cmath ****   template<typename _Tp>
 366:/usr/include/newlib/c++/9.2.1/cmath ****     inline _GLIBCXX_CONSTEXPR
 367:/usr/include/newlib/c++/9.2.1/cmath ****     typename __gnu_cxx::__enable_if<__is_integer<_Tp>::__value,
 368:/usr/include/newlib/c++/9.2.1/cmath ****                                     double>::__type
 369:/usr/include/newlib/c++/9.2.1/cmath ****     log10(_Tp __x)
 370:/usr/include/newlib/c++/9.2.1/cmath ****     { return __builtin_log10(__x); }
 371:/usr/include/newlib/c++/9.2.1/cmath **** 
 372:/usr/include/newlib/c++/9.2.1/cmath ****   using ::modf;
 373:/usr/include/newlib/c++/9.2.1/cmath **** 
 374:/usr/include/newlib/c++/9.2.1/cmath **** #ifndef __CORRECT_ISO_CPP_MATH_H_PROTO
 375:/usr/include/newlib/c++/9.2.1/cmath ****   inline float
 376:/usr/include/newlib/c++/9.2.1/cmath ****   modf(float __x, float* __iptr)
 377:/usr/include/newlib/c++/9.2.1/cmath ****   { return __builtin_modff(__x, __iptr); }
 378:/usr/include/newlib/c++/9.2.1/cmath **** 
 379:/usr/include/newlib/c++/9.2.1/cmath ****   inline long double
 380:/usr/include/newlib/c++/9.2.1/cmath ****   modf(long double __x, long double* __iptr)
 381:/usr/include/newlib/c++/9.2.1/cmath ****   { return __builtin_modfl(__x, __iptr); }
 382:/usr/include/newlib/c++/9.2.1/cmath **** #endif
 383:/usr/include/newlib/c++/9.2.1/cmath **** 
 384:/usr/include/newlib/c++/9.2.1/cmath ****   using ::pow;
 385:/usr/include/newlib/c++/9.2.1/cmath **** 
 386:/usr/include/newlib/c++/9.2.1/cmath **** #ifndef __CORRECT_ISO_CPP_MATH_H_PROTO
 387:/usr/include/newlib/c++/9.2.1/cmath ****   inline _GLIBCXX_CONSTEXPR float
 388:/usr/include/newlib/c++/9.2.1/cmath ****   pow(float __x, float __y)
 389:/usr/include/newlib/c++/9.2.1/cmath ****   { return __builtin_powf(__x, __y); }
 390:/usr/include/newlib/c++/9.2.1/cmath **** 
 391:/usr/include/newlib/c++/9.2.1/cmath ****   inline _GLIBCXX_CONSTEXPR long double
 392:/usr/include/newlib/c++/9.2.1/cmath ****   pow(long double __x, long double __y)
 393:/usr/include/newlib/c++/9.2.1/cmath ****   { return __builtin_powl(__x, __y); }
 394:/usr/include/newlib/c++/9.2.1/cmath **** 
 395:/usr/include/newlib/c++/9.2.1/cmath **** #if __cplusplus < 201103L
 396:/usr/include/newlib/c++/9.2.1/cmath ****   // _GLIBCXX_RESOLVE_LIB_DEFECTS
 397:/usr/include/newlib/c++/9.2.1/cmath ****   // DR 550. What should the return type of pow(float,int) be?
 398:/usr/include/newlib/c++/9.2.1/cmath ****   inline double
 399:/usr/include/newlib/c++/9.2.1/cmath ****   pow(double __x, int __i)
 400:/usr/include/newlib/c++/9.2.1/cmath ****   { return __builtin_powi(__x, __i); }
 401:/usr/include/newlib/c++/9.2.1/cmath **** 
 402:/usr/include/newlib/c++/9.2.1/cmath ****   inline float
 403:/usr/include/newlib/c++/9.2.1/cmath ****   pow(float __x, int __n)
 404:/usr/include/newlib/c++/9.2.1/cmath ****   { return __builtin_powif(__x, __n); }
 405:/usr/include/newlib/c++/9.2.1/cmath **** 
 406:/usr/include/newlib/c++/9.2.1/cmath ****   inline long double
 407:/usr/include/newlib/c++/9.2.1/cmath ****   pow(long double __x, int __n)
 408:/usr/include/newlib/c++/9.2.1/cmath ****   { return __builtin_powil(__x, __n); }
 409:/usr/include/newlib/c++/9.2.1/cmath **** #endif
 410:/usr/include/newlib/c++/9.2.1/cmath **** #endif
 411:/usr/include/newlib/c++/9.2.1/cmath **** 
 412:/usr/include/newlib/c++/9.2.1/cmath ****   template<typename _Tp, typename _Up>
 413:/usr/include/newlib/c++/9.2.1/cmath ****     inline _GLIBCXX_CONSTEXPR
 414:/usr/include/newlib/c++/9.2.1/cmath ****     typename __gnu_cxx::__promote_2<_Tp, _Up>::__type
 415:/usr/include/newlib/c++/9.2.1/cmath ****     pow(_Tp __x, _Up __y)
ARM GAS  /tmp/ccobg3TQ.s 			page 69


 416:/usr/include/newlib/c++/9.2.1/cmath ****     {
 417:/usr/include/newlib/c++/9.2.1/cmath ****       typedef typename __gnu_cxx::__promote_2<_Tp, _Up>::__type __type;
 418:/usr/include/newlib/c++/9.2.1/cmath ****       return pow(__type(__x), __type(__y));
 419:/usr/include/newlib/c++/9.2.1/cmath ****     }
 420:/usr/include/newlib/c++/9.2.1/cmath **** 
 421:/usr/include/newlib/c++/9.2.1/cmath ****   using ::sin;
 422:/usr/include/newlib/c++/9.2.1/cmath **** 
 423:/usr/include/newlib/c++/9.2.1/cmath **** #ifndef __CORRECT_ISO_CPP_MATH_H_PROTO
 424:/usr/include/newlib/c++/9.2.1/cmath ****   inline _GLIBCXX_CONSTEXPR float
 425:/usr/include/newlib/c++/9.2.1/cmath ****   sin(float __x)
 426:/usr/include/newlib/c++/9.2.1/cmath ****   { return __builtin_sinf(__x); }
 1908              		.loc 14 426 26 view .LVU400
 1909 0064 B0EE680A 		vmov.f32	s0, s17
 1910              	.LBE994:
 1911              	.LBE993:
 315:../../libdaisy/src/hid/disp/display.h ****         start_y = -sin(start_angle_rad) * radius;
 1912              		.loc 3 315 9 view .LVU401
 1913 0068 F8EE679A 		vcvt.f32.u32	s19, s15
 1914              	.LBB997:
 1915              	.LBB995:
 1916              		.loc 14 426 26 view .LVU402
 1917 006c FFF7FEFF 		bl	sinf
 1918              	.LVL140:
 1919 0070 F0EE408A 		vmov.f32	s17, s0
 1920              	.LVL141:
 1921              		.loc 14 426 26 view .LVU403
 1922              	.LBE995:
 1923              	.LBE997:
 1924              	.LBB998:
 1925              	.LBB999:
 185:/usr/include/newlib/c++/9.2.1/cmath **** 
 1926              		.loc 14 185 26 view .LVU404
 1927 0074 B0EE4A0A 		vmov.f32	s0, s20
 1928 0078 FFF7FEFF 		bl	cosf
 1929              	.LVL142:
 1930 007c B0EE409A 		vmov.f32	s18, s0
 1931              	.LBE999:
 1932              	.LBE998:
 1933              	.LBB1001:
 1934              	.LBB1002:
 1935              		.loc 14 426 26 view .LVU405
 1936 0080 B0EE4A0A 		vmov.f32	s0, s20
 1937 0084 FFF7FEFF 		bl	sinf
 1938              	.LVL143:
 1939              	.LBE1002:
 1940              	.LBE1001:
 316:../../libdaisy/src/hid/disp/display.h ****         end_x   = cos(end_angle_rad) * radius;
 1941              		.loc 3 316 9 view .LVU406
 1942 0088 68EEE98A 		vnmul.f32	s17, s17, s19
 318:../../libdaisy/src/hid/disp/display.h **** 
 1943              		.loc 3 318 9 view .LVU407
 1944 008c 20EE690A 		vnmul.f32	s0, s0, s19
 315:../../libdaisy/src/hid/disp/display.h ****         start_y = -sin(start_angle_rad) * radius;
 1945              		.loc 3 315 9 view .LVU408
 1946 0090 29EE888A 		vmul.f32	s16, s19, s16
 1947              	.LVL144:
 1948              	.LBB1004:
ARM GAS  /tmp/ccobg3TQ.s 			page 70


 1949              	.LBI993:
 425:/usr/include/newlib/c++/9.2.1/cmath ****   { return __builtin_sinf(__x); }
 1950              		.loc 14 425 3 is_stmt 1 view .LVU409
 1951              	.LBB996:
 1952              		.loc 14 426 5 view .LVU410
 1953              		.loc 14 426 5 is_stmt 0 view .LVU411
 1954              	.LBE996:
 1955              	.LBE1004:
 1956              	.LBB1005:
 1957              	.LBI998:
 184:/usr/include/newlib/c++/9.2.1/cmath ****   { return __builtin_cosf(__x); }
 1958              		.loc 14 184 3 is_stmt 1 view .LVU412
 1959              	.LBB1000:
 185:/usr/include/newlib/c++/9.2.1/cmath **** 
 1960              		.loc 14 185 5 view .LVU413
 185:/usr/include/newlib/c++/9.2.1/cmath **** 
 1961              		.loc 14 185 5 is_stmt 0 view .LVU414
 1962              	.LBE1000:
 1963              	.LBE1005:
 317:../../libdaisy/src/hid/disp/display.h ****         end_y   = -sin(end_angle_rad) * radius;
 1964              		.loc 3 317 9 view .LVU415
 1965 0094 29EE899A 		vmul.f32	s18, s19, s18
 1966              	.LVL145:
 1967              	.LBB1006:
 1968              	.LBI1001:
 425:/usr/include/newlib/c++/9.2.1/cmath ****   { return __builtin_sinf(__x); }
 1969              		.loc 14 425 3 is_stmt 1 view .LVU416
 1970              	.LBB1003:
 1971              		.loc 14 426 5 view .LVU417
 1972              		.loc 14 426 5 is_stmt 0 view .LVU418
 1973              	.LBE1003:
 1974              	.LBE1006:
 322:../../libdaisy/src/hid/disp/display.h ****            < 2.0f)
 1975              		.loc 3 322 25 view .LVU419
 1976 0098 70EE687A 		vsub.f32	s15, s0, s17
 321:../../libdaisy/src/hid/disp/display.h ****                + (end_y - start_y) * (end_y - start_y)
 1977              		.loc 3 321 9 view .LVU420
 1978 009c F0EE006A 		vmov.f32	s13, #2.0e+0
 321:../../libdaisy/src/hid/disp/display.h ****                + (end_y - start_y) * (end_y - start_y)
 1979              		.loc 3 321 19 view .LVU421
 1980 00a0 39EE487A 		vsub.f32	s14, s18, s16
 322:../../libdaisy/src/hid/disp/display.h ****            < 2.0f)
 1981              		.loc 3 322 36 view .LVU422
 1982 00a4 67EEA77A 		vmul.f32	s15, s15, s15
 322:../../libdaisy/src/hid/disp/display.h ****            < 2.0f)
 1983              		.loc 3 322 16 view .LVU423
 1984 00a8 E7EE077A 		vfma.f32	s15, s14, s14
 321:../../libdaisy/src/hid/disp/display.h ****                + (end_y - start_y) * (end_y - start_y)
 1985              		.loc 3 321 9 view .LVU424
 1986 00ac F4EEE67A 		vcmpe.f32	s15, s13
 1987 00b0 F1EE10FA 		vmrs	APSR_nzcv, FPSCR
 1988 00b4 06D5     		bpl	.L200
 325:../../libdaisy/src/hid/disp/display.h ****                 circle = true;
 1989              		.loc 3 325 13 view .LVU425
 1990 00b6 159B     		ldr	r3, [sp, #84]
 1991 00b8 B42B     		cmp	r3, #180
 1992 00ba 40F3EE80 		ble	.L141
ARM GAS  /tmp/ccobg3TQ.s 			page 71


 326:../../libdaisy/src/hid/disp/display.h ****             else
 1993              		.loc 3 326 17 view .LVU426
 1994 00be 4FF0010E 		mov	lr, #1
 1995 00c2 01E0     		b	.L144
 1996              	.L200:
 304:../../libdaisy/src/hid/disp/display.h **** 
 1997              		.loc 3 304 14 view .LVU427
 1998 00c4 4FF0000E 		mov	lr, #0
 1999              	.L144:
 2000              	.LVL146:
 302:../../libdaisy/src/hid/disp/display.h **** 
 2001              		.loc 3 302 9 view .LVU428
 2002 00c8 0126     		movs	r6, #1
 334:../../libdaisy/src/hid/disp/display.h **** 
 2003              		.loc 3 334 17 view .LVU429
 2004 00ca C4F10103 		rsb	r3, r4, #1
 302:../../libdaisy/src/hid/disp/display.h **** 
 2005              		.loc 3 302 9 view .LVU430
 2006 00ce 3A46     		mov	r2, r7
 332:../../libdaisy/src/hid/disp/display.h ****         t_y = 0;
 2007              		.loc 3 332 9 view .LVU431
 2008 00d0 6042     		rsbs	r0, r4, #0
 2009              	.LVL147:
 334:../../libdaisy/src/hid/disp/display.h **** 
 2010              		.loc 3 334 17 view .LVU432
 2011 00d2 B340     		lsls	r3, r3, r6
 2012              	.LVL148:
 333:../../libdaisy/src/hid/disp/display.h ****         err = 2 - 2 * radius;
 2013              		.loc 3 333 9 view .LVU433
 2014 00d4 0024     		movs	r4, #0
 2015              	.LVL149:
 302:../../libdaisy/src/hid/disp/display.h **** 
 2016              		.loc 3 302 9 view .LVU434
 2017 00d6 3146     		mov	r1, r6
 2018 00d8 3746     		mov	r7, r6
 2019              	.LVL150:
 302:../../libdaisy/src/hid/disp/display.h **** 
 2020              		.loc 3 302 9 view .LVU435
 2021 00da 9446     		mov	ip, r2
 2022 00dc 0196     		str	r6, [sp, #4]
 2023              	.LVL151:
 2024              	.L170:
 338:../../libdaisy/src/hid/disp/display.h ****             {
 2025              		.loc 3 338 13 view .LVU436
 2026 00de BEF1000F 		cmp	lr, #0
 2027 00e2 6AD1     		bne	.L146
 343:../../libdaisy/src/hid/disp/display.h ****                 t_exy  = end_x * t_y;
 2028              		.loc 3 343 34 view .LVU437
 2029 00e4 4242     		rsbs	r2, r0, #0
 340:../../libdaisy/src/hid/disp/display.h ****                 t_syx  = start_y * t_x;
 2030              		.loc 3 340 17 view .LVU438
 2031 00e6 06EE904A 		vmov	s13, r4	@ int
 342:../../libdaisy/src/hid/disp/display.h ****                 t_synx = start_y * -t_x;
 2032              		.loc 3 342 34 view .LVU439
 2033 00ea 6142     		rsbs	r1, r4, #0
 2034              	.LVL152:
 343:../../libdaisy/src/hid/disp/display.h ****                 t_exy  = end_x * t_y;
ARM GAS  /tmp/ccobg3TQ.s 			page 72


 2035              		.loc 3 343 34 view .LVU440
 2036 00ec 07EE102A 		vmov	s14, r2	@ int
 340:../../libdaisy/src/hid/disp/display.h ****                 t_syx  = start_y * t_x;
 2037              		.loc 3 340 17 view .LVU441
 2038 00f0 F8EEE66A 		vcvt.f32.s32	s13, s13
 342:../../libdaisy/src/hid/disp/display.h ****                 t_synx = start_y * -t_x;
 2039              		.loc 3 342 34 view .LVU442
 2040 00f4 07EE901A 		vmov	s15, r1	@ int
 349:../../libdaisy/src/hid/disp/display.h ****                 {
 2041              		.loc 3 349 17 view .LVU443
 2042 00f8 159A     		ldr	r2, [sp, #84]
 343:../../libdaisy/src/hid/disp/display.h ****                 t_exy  = end_x * t_y;
 2043              		.loc 3 343 34 view .LVU444
 2044 00fa B8EEC77A 		vcvt.f32.s32	s14, s14
 340:../../libdaisy/src/hid/disp/display.h ****                 t_syx  = start_y * t_x;
 2045              		.loc 3 340 17 view .LVU445
 2046 00fe 66EE884A 		vmul.f32	s9, s13, s16
 2047              	.LVL153:
 349:../../libdaisy/src/hid/disp/display.h ****                 {
 2048              		.loc 3 349 17 view .LVU446
 2049 0102 B42A     		cmp	r2, #180
 344:../../libdaisy/src/hid/disp/display.h ****                 t_eyx  = end_y * t_x;
 2050              		.loc 3 344 17 view .LVU447
 2051 0104 26EE896A 		vmul.f32	s12, s13, s18
 341:../../libdaisy/src/hid/disp/display.h ****                 t_sxny = start_x * -t_y;
 2052              		.loc 3 341 17 view .LVU448
 2053 0108 06EE900A 		vmov	s13, r0	@ int
 343:../../libdaisy/src/hid/disp/display.h ****                 t_exy  = end_x * t_y;
 2054              		.loc 3 343 17 view .LVU449
 2055 010c 27EE284A 		vmul.f32	s8, s14, s17
 342:../../libdaisy/src/hid/disp/display.h ****                 t_synx = start_y * -t_x;
 2056              		.loc 3 342 34 view .LVU450
 2057 0110 F8EEE77A 		vcvt.f32.s32	s15, s15
 341:../../libdaisy/src/hid/disp/display.h ****                 t_sxny = start_x * -t_y;
 2058              		.loc 3 341 17 view .LVU451
 2059 0114 F8EEE66A 		vcvt.f32.s32	s13, s13
 351:../../libdaisy/src/hid/disp/display.h ****                     d2 = (t_sxy - t_syx < 0 || t_exy - t_eyx > 0);
 2060              		.loc 3 351 33 view .LVU452
 2061 0118 74EEC43A 		vsub.f32	s7, s9, s8
 342:../../libdaisy/src/hid/disp/display.h ****                 t_synx = start_y * -t_x;
 2062              		.loc 3 342 17 view .LVU453
 2063 011c 67EE885A 		vmul.f32	s11, s15, s16
 341:../../libdaisy/src/hid/disp/display.h ****                 t_sxny = start_x * -t_y;
 2064              		.loc 3 341 17 view .LVU454
 2065 0120 26EEA85A 		vmul.f32	s10, s13, s17
 2066              	.LVL154:
 346:../../libdaisy/src/hid/disp/display.h ****                 t_eynx = end_y * -t_x;
 2067              		.loc 3 346 17 view .LVU455
 2068 0124 67EE897A 		vmul.f32	s15, s15, s18
 347:../../libdaisy/src/hid/disp/display.h **** 
 2069              		.loc 3 347 17 view .LVU456
 2070 0128 27EE007A 		vmul.f32	s14, s14, s0
 345:../../libdaisy/src/hid/disp/display.h ****                 t_exny = end_x * -t_y;
 2071              		.loc 3 345 17 view .LVU457
 2072 012c 66EE806A 		vmul.f32	s13, s13, s0
 2073              	.LVL155:
 351:../../libdaisy/src/hid/disp/display.h ****                     d2 = (t_sxy - t_syx < 0 || t_exy - t_eyx > 0);
ARM GAS  /tmp/ccobg3TQ.s 			page 73


 2074              		.loc 3 351 46 view .LVU458
 2075 0130 F5EEC03A 		vcmpe.f32	s7, #0
 349:../../libdaisy/src/hid/disp/display.h ****                 {
 2076              		.loc 3 349 17 view .LVU459
 2077 0134 40F3DC80 		ble	.L147
 351:../../libdaisy/src/hid/disp/display.h ****                     d2 = (t_sxy - t_syx < 0 || t_exy - t_eyx > 0);
 2078              		.loc 3 351 46 view .LVU460
 2079 0138 F1EE10FA 		vmrs	APSR_nzcv, FPSCR
 2080 013c 00F14D81 		bmi	.L173
 351:../../libdaisy/src/hid/disp/display.h ****                     d2 = (t_sxy - t_syx < 0 || t_exy - t_eyx > 0);
 2081              		.loc 3 351 55 discriminator 2 view .LVU461
 2082 0140 76EE473A 		vsub.f32	s7, s12, s14
 352:../../libdaisy/src/hid/disp/display.h ****                     d3 = (t_sxny - t_syx < 0 || t_exny - t_eyx > 0);
 2083              		.loc 3 352 33 discriminator 2 view .LVU462
 2084 0144 74EEC54A 		vsub.f32	s9, s9, s10
 2085              	.LVL156:
 351:../../libdaisy/src/hid/disp/display.h ****                     d2 = (t_sxy - t_syx < 0 || t_exy - t_eyx > 0);
 2086              		.loc 3 351 46 discriminator 2 view .LVU463
 2087 0148 F5EEC03A 		vcmpe.f32	s7, #0
 2088 014c F1EE10FA 		vmrs	APSR_nzcv, FPSCR
 352:../../libdaisy/src/hid/disp/display.h ****                     d3 = (t_sxny - t_syx < 0 || t_exny - t_eyx > 0);
 2089              		.loc 3 352 45 discriminator 2 view .LVU464
 2090 0150 F5EEC04A 		vcmpe.f32	s9, #0
 351:../../libdaisy/src/hid/disp/display.h ****                     d2 = (t_sxy - t_syx < 0 || t_exy - t_eyx > 0);
 2091              		.loc 3 351 46 discriminator 2 view .LVU465
 2092 0154 CCBF     		ite	gt
 2093 0156 0122     		movgt	r2, #1
 2094 0158 0022     		movle	r2, #0
 352:../../libdaisy/src/hid/disp/display.h ****                     d3 = (t_sxny - t_syx < 0 || t_exny - t_eyx > 0);
 2095              		.loc 3 352 45 discriminator 2 view .LVU466
 2096 015a F1EE10FA 		vmrs	APSR_nzcv, FPSCR
 351:../../libdaisy/src/hid/disp/display.h ****                     d2 = (t_sxy - t_syx < 0 || t_exy - t_eyx > 0);
 2097              		.loc 3 351 46 discriminator 2 view .LVU467
 2098 015e 0192     		str	r2, [sp, #4]
 2099              	.LVL157:
 352:../../libdaisy/src/hid/disp/display.h ****                     d3 = (t_sxny - t_syx < 0 || t_exny - t_eyx > 0);
 2100              		.loc 3 352 45 discriminator 2 view .LVU468
 2101 0160 00F14581 		bmi	.L174
 2102              	.L214:
 352:../../libdaisy/src/hid/disp/display.h ****                     d3 = (t_sxny - t_syx < 0 || t_exny - t_eyx > 0);
 2103              		.loc 3 352 54 discriminator 2 view .LVU469
 2104 0164 36EE666A 		vsub.f32	s12, s12, s13
 2105              	.LVL158:
 353:../../libdaisy/src/hid/disp/display.h ****                     d4 = (t_sxny - t_synx < 0 || t_exny - t_eynx > 0);
 2106              		.loc 3 353 34 discriminator 2 view .LVU470
 2107 0168 35EEC55A 		vsub.f32	s10, s11, s10
 2108              	.LVL159:
 352:../../libdaisy/src/hid/disp/display.h ****                     d3 = (t_sxny - t_syx < 0 || t_exny - t_eyx > 0);
 2109              		.loc 3 352 45 discriminator 2 view .LVU471
 2110 016c B5EEC06A 		vcmpe.f32	s12, #0
 2111 0170 F1EE10FA 		vmrs	APSR_nzcv, FPSCR
 353:../../libdaisy/src/hid/disp/display.h ****                     d4 = (t_sxny - t_synx < 0 || t_exny - t_eynx > 0);
 2112              		.loc 3 353 46 discriminator 2 view .LVU472
 2113 0174 B5EEC05A 		vcmpe.f32	s10, #0
 352:../../libdaisy/src/hid/disp/display.h ****                     d3 = (t_sxny - t_syx < 0 || t_exny - t_eyx > 0);
 2114              		.loc 3 352 45 discriminator 2 view .LVU473
 2115 0178 CCBF     		ite	gt
ARM GAS  /tmp/ccobg3TQ.s 			page 74


 2116 017a 0121     		movgt	r1, #1
 2117 017c 0021     		movle	r1, #0
 2118              	.LVL160:
 353:../../libdaisy/src/hid/disp/display.h ****                     d4 = (t_sxny - t_synx < 0 || t_exny - t_eynx > 0);
 2119              		.loc 3 353 46 discriminator 2 view .LVU474
 2120 017e F1EE10FA 		vmrs	APSR_nzcv, FPSCR
 2121 0182 00F13D81 		bmi	.L175
 2122              	.L215:
 353:../../libdaisy/src/hid/disp/display.h ****                     d4 = (t_sxny - t_synx < 0 || t_exny - t_eynx > 0);
 2123              		.loc 3 353 56 discriminator 2 view .LVU475
 2124 0186 77EEE66A 		vsub.f32	s13, s15, s13
 2125              	.LVL161:
 353:../../libdaisy/src/hid/disp/display.h ****                     d4 = (t_sxny - t_synx < 0 || t_exny - t_eynx > 0);
 2126              		.loc 3 353 46 discriminator 2 view .LVU476
 2127 018a F5EEC06A 		vcmpe.f32	s13, #0
 2128 018e F1EE10FA 		vmrs	APSR_nzcv, FPSCR
 2129 0192 CCBF     		ite	gt
 2130 0194 0126     		movgt	r6, #1
 2131              	.LVL162:
 353:../../libdaisy/src/hid/disp/display.h ****                     d4 = (t_sxny - t_synx < 0 || t_exny - t_eynx > 0);
 2132              		.loc 3 353 46 discriminator 2 view .LVU477
 2133 0196 0026     		movle	r6, #0
 2134              	.L150:
 2135              	.LVL163:
 354:../../libdaisy/src/hid/disp/display.h ****                 }
 2136              		.loc 3 354 34 discriminator 6 view .LVU478
 2137 0198 75EEC45A 		vsub.f32	s11, s11, s8
 2138              	.LVL164:
 354:../../libdaisy/src/hid/disp/display.h ****                 }
 2139              		.loc 3 354 47 discriminator 6 view .LVU479
 2140 019c F5EEC05A 		vcmpe.f32	s11, #0
 2141 01a0 F1EE10FA 		vmrs	APSR_nzcv, FPSCR
 2142 01a4 00F11781 		bmi	.L176
 2143              	.L206:
 361:../../libdaisy/src/hid/disp/display.h ****                 }
 2144              		.loc 3 361 57 discriminator 1 view .LVU480
 2145 01a8 77EEC77A 		vsub.f32	s15, s15, s14
 2146              	.LVL165:
 361:../../libdaisy/src/hid/disp/display.h ****                 }
 2147              		.loc 3 361 47 discriminator 1 view .LVU481
 2148 01ac F5EEC07A 		vcmpe.f32	s15, #0
 2149 01b0 F1EE10FA 		vmrs	APSR_nzcv, FPSCR
 2150 01b4 CCBF     		ite	gt
 2151 01b6 0127     		movgt	r7, #1
 2152              	.LVL166:
 361:../../libdaisy/src/hid/disp/display.h ****                 }
 2153              		.loc 3 361 47 discriminator 1 view .LVU482
 2154 01b8 0027     		movle	r7, #0
 2155              	.LVL167:
 2156              	.L146:
 365:../../libdaisy/src/hid/disp/display.h ****                 ((ChildType*)(this))
 2157              		.loc 3 365 13 view .LVU483
 2158 01ba 019A     		ldr	r2, [sp, #4]
 2159 01bc F2B1     		cbz	r2, .L158
 366:../../libdaisy/src/hid/disp/display.h ****                     ->ChildType::DrawPixel(x - t_x, y + t_y, on);
 2160              		.loc 3 366 17 view .LVU484
 2161 01be ACEB0009 		sub	r9, ip, r0
ARM GAS  /tmp/ccobg3TQ.s 			page 75


 2162 01c2 04EB0805 		add	r5, r4, r8
 2163              	.LVL168:
 2164              	.LBB1007:
 2165              	.LBI1007:
  41:../../libdaisy/src/hid/disp/oled_display.h ****     {
 2166              		.loc 2 41 10 is_stmt 1 view .LVU485
 2167              	.LBB1008:
 2168              	.LBI1008:
 239:../../libdaisy/src/dev/oled_ssd130x.h ****     {
 2169              		.loc 12 239 10 view .LVU486
 2170              	.LBB1009:
 241:../../libdaisy/src/dev/oled_ssd130x.h ****             return;
 2171              		.loc 12 241 9 is_stmt 0 view .LVU487
 2172 01c6 B9F17F0F 		cmp	r9, #127
 2173 01ca 17D8     		bhi	.L158
 2174 01cc 3F2D     		cmp	r5, #63
 2175 01ce 15D8     		bhi	.L158
 244:../../libdaisy/src/dev/oled_ssd130x.h ****         else
 2176              		.loc 12 244 28 view .LVU488
 2177 01d0 4FEAD50A 		lsr	r10, r5, #3
 244:../../libdaisy/src/dev/oled_ssd130x.h ****         else
 2178              		.loc 12 244 48 view .LVU489
 2179 01d4 4FF0010B 		mov	fp, #1
 244:../../libdaisy/src/dev/oled_ssd130x.h ****         else
 2180              		.loc 12 244 54 view .LVU490
 2181 01d8 05F00705 		and	r5, r5, #7
 2182              	.LVL169:
 243:../../libdaisy/src/dev/oled_ssd130x.h ****             buffer_[x + (y / 8) * width] |= (1 << (y % 8));
 2183              		.loc 12 243 9 view .LVU491
 2184 01dc 029A     		ldr	r2, [sp, #8]
 244:../../libdaisy/src/dev/oled_ssd130x.h ****         else
 2185              		.loc 12 244 42 view .LVU492
 2186 01de 09EBCA19 		add	r9, r9, r10, lsl #7
 2187              	.LVL170:
 244:../../libdaisy/src/dev/oled_ssd130x.h ****         else
 2188              		.loc 12 244 48 view .LVU493
 2189 01e2 0BFA05F5 		lsl	r5, fp, r5
 243:../../libdaisy/src/dev/oled_ssd130x.h ****             buffer_[x + (y / 8) * width] |= (1 << (y % 8));
 2190              		.loc 12 243 9 view .LVU494
 2191 01e6 002A     		cmp	r2, #0
 2192 01e8 00F0C280 		beq	.L159
 244:../../libdaisy/src/dev/oled_ssd130x.h ****         else
 2193              		.loc 12 244 13 view .LVU495
 2194 01ec 039A     		ldr	r2, [sp, #12]
 2195 01ee 9144     		add	r9, r9, r2
 244:../../libdaisy/src/dev/oled_ssd130x.h ****         else
 2196              		.loc 12 244 42 view .LVU496
 2197 01f0 99F814B0 		ldrb	fp, [r9, #20]	@ zero_extendqisi2
 2198 01f4 45EA0B05 		orr	r5, r5, fp
 244:../../libdaisy/src/dev/oled_ssd130x.h ****         else
 2199              		.loc 12 244 13 view .LVU497
 2200 01f8 89F81450 		strb	r5, [r9, #20]
 2201              	.LVL171:
 2202              	.L158:
 244:../../libdaisy/src/dev/oled_ssd130x.h ****         else
 2203              		.loc 12 244 13 view .LVU498
 2204              	.LBE1009:
ARM GAS  /tmp/ccobg3TQ.s 			page 76


 2205              	.LBE1008:
 2206              	.LBE1007:
 368:../../libdaisy/src/hid/disp/display.h ****                 ((ChildType*)(this))
 2207              		.loc 3 368 13 view .LVU499
 2208 01fc F1B1     		cbz	r1, .L160
 2209              	.L213:
 369:../../libdaisy/src/hid/disp/display.h ****                     ->ChildType::DrawPixel(x + t_x, y + t_y, on);
 2210              		.loc 3 369 17 view .LVU500
 2211 01fe 00EB0C09 		add	r9, r0, ip
 2212 0202 04EB0805 		add	r5, r4, r8
 2213              	.LVL172:
 2214              	.LBB1014:
 2215              	.LBI1014:
  41:../../libdaisy/src/hid/disp/oled_display.h ****     {
 2216              		.loc 2 41 10 is_stmt 1 view .LVU501
 2217              	.LBB1015:
 2218              	.LBI1015:
 239:../../libdaisy/src/dev/oled_ssd130x.h ****     {
 2219              		.loc 12 239 10 view .LVU502
 2220              	.LBB1016:
 241:../../libdaisy/src/dev/oled_ssd130x.h ****             return;
 2221              		.loc 12 241 9 is_stmt 0 view .LVU503
 2222 0206 B9F17F0F 		cmp	r9, #127
 2223 020a 17D8     		bhi	.L160
 2224 020c 3F2D     		cmp	r5, #63
 2225 020e 15D8     		bhi	.L160
 244:../../libdaisy/src/dev/oled_ssd130x.h ****         else
 2226              		.loc 12 244 28 view .LVU504
 2227 0210 4FEAD50A 		lsr	r10, r5, #3
 244:../../libdaisy/src/dev/oled_ssd130x.h ****         else
 2228              		.loc 12 244 48 view .LVU505
 2229 0214 4FF0010B 		mov	fp, #1
 244:../../libdaisy/src/dev/oled_ssd130x.h ****         else
 2230              		.loc 12 244 54 view .LVU506
 2231 0218 05F00705 		and	r5, r5, #7
 2232              	.LVL173:
 243:../../libdaisy/src/dev/oled_ssd130x.h ****             buffer_[x + (y / 8) * width] |= (1 << (y % 8));
 2233              		.loc 12 243 9 view .LVU507
 2234 021c 029A     		ldr	r2, [sp, #8]
 244:../../libdaisy/src/dev/oled_ssd130x.h ****         else
 2235              		.loc 12 244 42 view .LVU508
 2236 021e 09EBCA19 		add	r9, r9, r10, lsl #7
 2237              	.LVL174:
 244:../../libdaisy/src/dev/oled_ssd130x.h ****         else
 2238              		.loc 12 244 48 view .LVU509
 2239 0222 0BFA05F5 		lsl	r5, fp, r5
 243:../../libdaisy/src/dev/oled_ssd130x.h ****             buffer_[x + (y / 8) * width] |= (1 << (y % 8));
 2240              		.loc 12 243 9 view .LVU510
 2241 0226 002A     		cmp	r2, #0
 2242 0228 00F08E80 		beq	.L161
 244:../../libdaisy/src/dev/oled_ssd130x.h ****         else
 2243              		.loc 12 244 13 view .LVU511
 2244 022c 039A     		ldr	r2, [sp, #12]
 2245 022e 9144     		add	r9, r9, r2
 244:../../libdaisy/src/dev/oled_ssd130x.h ****         else
 2246              		.loc 12 244 42 view .LVU512
 2247 0230 99F814B0 		ldrb	fp, [r9, #20]	@ zero_extendqisi2
ARM GAS  /tmp/ccobg3TQ.s 			page 77


 2248 0234 45EA0B05 		orr	r5, r5, fp
 244:../../libdaisy/src/dev/oled_ssd130x.h ****         else
 2249              		.loc 12 244 13 view .LVU513
 2250 0238 89F81450 		strb	r5, [r9, #20]
 2251              	.LVL175:
 2252              	.L160:
 244:../../libdaisy/src/dev/oled_ssd130x.h ****         else
 2253              		.loc 12 244 13 view .LVU514
 2254              	.LBE1016:
 2255              	.LBE1015:
 2256              	.LBE1014:
 371:../../libdaisy/src/hid/disp/display.h ****                 ((ChildType*)(this))
 2257              		.loc 3 371 13 view .LVU515
 2258 023c EEB1     		cbz	r6, .L162
 2259              	.L212:
 372:../../libdaisy/src/hid/disp/display.h ****                     ->ChildType::DrawPixel(x + t_x, y - t_y, on);
 2260              		.loc 3 372 17 view .LVU516
 2261 023e 00EB0C09 		add	r9, r0, ip
 2262 0242 A8EB0405 		sub	r5, r8, r4
 2263              	.LVL176:
 2264              	.LBB1021:
 2265              	.LBI1021:
  41:../../libdaisy/src/hid/disp/oled_display.h ****     {
 2266              		.loc 2 41 10 is_stmt 1 view .LVU517
 2267              	.LBB1022:
 2268              	.LBI1022:
 239:../../libdaisy/src/dev/oled_ssd130x.h ****     {
 2269              		.loc 12 239 10 view .LVU518
 2270              	.LBB1023:
 241:../../libdaisy/src/dev/oled_ssd130x.h ****             return;
 2271              		.loc 12 241 9 is_stmt 0 view .LVU519
 2272 0246 B9F17F0F 		cmp	r9, #127
 2273 024a 16D8     		bhi	.L162
 2274 024c 3F2D     		cmp	r5, #63
 2275 024e 14D8     		bhi	.L162
 244:../../libdaisy/src/dev/oled_ssd130x.h ****         else
 2276              		.loc 12 244 28 view .LVU520
 2277 0250 4FEAD50A 		lsr	r10, r5, #3
 244:../../libdaisy/src/dev/oled_ssd130x.h ****         else
 2278              		.loc 12 244 48 view .LVU521
 2279 0254 4FF0010B 		mov	fp, #1
 244:../../libdaisy/src/dev/oled_ssd130x.h ****         else
 2280              		.loc 12 244 54 view .LVU522
 2281 0258 05F00705 		and	r5, r5, #7
 2282              	.LVL177:
 243:../../libdaisy/src/dev/oled_ssd130x.h ****             buffer_[x + (y / 8) * width] |= (1 << (y % 8));
 2283              		.loc 12 243 9 view .LVU523
 2284 025c 029A     		ldr	r2, [sp, #8]
 244:../../libdaisy/src/dev/oled_ssd130x.h ****         else
 2285              		.loc 12 244 42 view .LVU524
 2286 025e 09EBCA19 		add	r9, r9, r10, lsl #7
 2287              	.LVL178:
 244:../../libdaisy/src/dev/oled_ssd130x.h ****         else
 2288              		.loc 12 244 48 view .LVU525
 2289 0262 0BFA05F5 		lsl	r5, fp, r5
 243:../../libdaisy/src/dev/oled_ssd130x.h ****             buffer_[x + (y / 8) * width] |= (1 << (y % 8));
 2290              		.loc 12 243 9 view .LVU526
ARM GAS  /tmp/ccobg3TQ.s 			page 78


 2291 0266 002A     		cmp	r2, #0
 2292 0268 65D0     		beq	.L163
 244:../../libdaisy/src/dev/oled_ssd130x.h ****         else
 2293              		.loc 12 244 13 view .LVU527
 2294 026a 039A     		ldr	r2, [sp, #12]
 2295 026c 9144     		add	r9, r9, r2
 244:../../libdaisy/src/dev/oled_ssd130x.h ****         else
 2296              		.loc 12 244 42 view .LVU528
 2297 026e 99F814B0 		ldrb	fp, [r9, #20]	@ zero_extendqisi2
 2298 0272 45EA0B05 		orr	r5, r5, fp
 244:../../libdaisy/src/dev/oled_ssd130x.h ****         else
 2299              		.loc 12 244 13 view .LVU529
 2300 0276 89F81450 		strb	r5, [r9, #20]
 2301              	.LVL179:
 2302              	.L162:
 244:../../libdaisy/src/dev/oled_ssd130x.h ****         else
 2303              		.loc 12 244 13 view .LVU530
 2304              	.LBE1023:
 2305              	.LBE1022:
 2306              	.LBE1021:
 374:../../libdaisy/src/hid/disp/display.h ****                 ((ChildType*)(this))
 2307              		.loc 3 374 13 view .LVU531
 2308 027a D7B9     		cbnz	r7, .L207
 2309              	.L164:
 2310              	.LVL180:
 379:../../libdaisy/src/hid/disp/display.h ****             {
 2311              		.loc 3 379 13 view .LVU532
 2312 027c 9C42     		cmp	r4, r3
 2313 027e 16DB     		blt	.L181
 381:../../libdaisy/src/hid/disp/display.h ****                 err = err + (t_y * 2 + 1);
 2314              		.loc 3 381 17 view .LVU533
 2315 0280 0134     		adds	r4, r4, #1
 2316              	.LVL181:
 382:../../libdaisy/src/hid/disp/display.h ****                 if(-t_x == t_y && e2 <= t_x)
 2317              		.loc 3 382 38 view .LVU534
 2318 0282 03EB4405 		add	r5, r3, r4, lsl #1
 383:../../libdaisy/src/hid/disp/display.h ****                 {
 2319              		.loc 3 383 17 view .LVU535
 2320 0286 C442     		cmn	r4, r0
 382:../../libdaisy/src/hid/disp/display.h ****                 if(-t_x == t_y && e2 <= t_x)
 2321              		.loc 3 382 17 view .LVU536
 2322 0288 05F10105 		add	r5, r5, #1
 2323              	.LVL182:
 383:../../libdaisy/src/hid/disp/display.h ****                 {
 2324              		.loc 3 383 17 view .LVU537
 2325 028c 4FD0     		beq	.L208
 2326              	.LVL183:
 2327              	.L166:
 388:../../libdaisy/src/hid/disp/display.h ****             {
 2328              		.loc 3 388 13 view .LVU538
 2329 028e 9842     		cmp	r0, r3
 2330 0290 08DB     		blt	.L167
 388:../../libdaisy/src/hid/disp/display.h ****             {
 2331              		.loc 3 388 13 view .LVU539
 2332 0292 2B46     		mov	r3, r5
 2333              	.LVL184:
 2334              	.L168:
ARM GAS  /tmp/ccobg3TQ.s 			page 79


 393:../../libdaisy/src/hid/disp/display.h ****     }
 2335              		.loc 3 393 21 is_stmt 1 view .LVU540
 2336 0294 0028     		cmp	r0, #0
 2337 0296 7FF722AF 		ble	.L170
 2338              	.LVL185:
 2339              	.L141:
 394:../../libdaisy/src/hid/disp/display.h **** 
 2340              		.loc 3 394 5 is_stmt 0 view .LVU541
 2341 029a 05B0     		add	sp, sp, #20
 2342              		.cfi_remember_state
 2343              		.cfi_def_cfa_offset 60
 2344              		@ sp needed
 2345 029c BDEC068B 		vldm	sp!, {d8-d10}
 2346              		.cfi_restore 84
 2347              		.cfi_restore 85
 2348              		.cfi_restore 82
 2349              		.cfi_restore 83
 2350              		.cfi_restore 80
 2351              		.cfi_restore 81
 2352              		.cfi_def_cfa_offset 36
 2353              	.LVL186:
 394:../../libdaisy/src/hid/disp/display.h **** 
 2354              		.loc 3 394 5 view .LVU542
 2355 02a0 BDE8F08F 		pop	{r4, r5, r6, r7, r8, r9, r10, fp, pc}
 2356              	.LVL187:
 2357              	.L167:
 2358              		.cfi_restore_state
 390:../../libdaisy/src/hid/disp/display.h ****                 err = err + (t_x * 2 + 1);
 2359              		.loc 3 390 17 view .LVU543
 2360 02a4 0130     		adds	r0, r0, #1
 2361              	.LVL188:
 391:../../libdaisy/src/hid/disp/display.h ****             }
 2362              		.loc 3 391 38 view .LVU544
 2363 02a6 05EB4003 		add	r3, r5, r0, lsl #1
 391:../../libdaisy/src/hid/disp/display.h ****             }
 2364              		.loc 3 391 17 view .LVU545
 2365 02aa 0133     		adds	r3, r3, #1
 2366              	.LVL189:
 391:../../libdaisy/src/hid/disp/display.h ****             }
 2367              		.loc 3 391 17 view .LVU546
 2368 02ac F2E7     		b	.L168
 2369              	.LVL190:
 2370              	.L181:
 391:../../libdaisy/src/hid/disp/display.h ****             }
 2371              		.loc 3 391 17 view .LVU547
 2372 02ae 1D46     		mov	r5, r3
 2373 02b0 EDE7     		b	.L166
 2374              	.LVL191:
 2375              	.L207:
 375:../../libdaisy/src/hid/disp/display.h ****                     ->ChildType::DrawPixel(x - t_x, y - t_y, on);
 2376              		.loc 3 375 17 view .LVU548
 2377 02b2 ACEB0009 		sub	r9, ip, r0
 2378 02b6 A8EB0405 		sub	r5, r8, r4
 2379              	.LVL192:
 2380              	.LBB1028:
 2381              	.LBI1028:
  41:../../libdaisy/src/hid/disp/oled_display.h ****     {
ARM GAS  /tmp/ccobg3TQ.s 			page 80


 2382              		.loc 2 41 10 is_stmt 1 view .LVU549
 2383              	.LBB1029:
 2384              	.LBI1029:
 239:../../libdaisy/src/dev/oled_ssd130x.h ****     {
 2385              		.loc 12 239 10 view .LVU550
 2386              	.LBB1030:
 241:../../libdaisy/src/dev/oled_ssd130x.h ****             return;
 2387              		.loc 12 241 9 is_stmt 0 view .LVU551
 2388 02ba B9F17F0F 		cmp	r9, #127
 2389 02be DDD8     		bhi	.L164
 2390 02c0 3F2D     		cmp	r5, #63
 2391 02c2 DBD8     		bhi	.L164
 244:../../libdaisy/src/dev/oled_ssd130x.h ****         else
 2392              		.loc 12 244 28 view .LVU552
 2393 02c4 4FEAD50A 		lsr	r10, r5, #3
 244:../../libdaisy/src/dev/oled_ssd130x.h ****         else
 2394              		.loc 12 244 48 view .LVU553
 2395 02c8 4FF0010B 		mov	fp, #1
 244:../../libdaisy/src/dev/oled_ssd130x.h ****         else
 2396              		.loc 12 244 54 view .LVU554
 2397 02cc 05F00705 		and	r5, r5, #7
 2398              	.LVL193:
 243:../../libdaisy/src/dev/oled_ssd130x.h ****             buffer_[x + (y / 8) * width] |= (1 << (y % 8));
 2399              		.loc 12 243 9 view .LVU555
 2400 02d0 029A     		ldr	r2, [sp, #8]
 244:../../libdaisy/src/dev/oled_ssd130x.h ****         else
 2401              		.loc 12 244 42 view .LVU556
 2402 02d2 09EBCA19 		add	r9, r9, r10, lsl #7
 2403              	.LVL194:
 244:../../libdaisy/src/dev/oled_ssd130x.h ****         else
 2404              		.loc 12 244 48 view .LVU557
 2405 02d6 0BFA05F5 		lsl	r5, fp, r5
 243:../../libdaisy/src/dev/oled_ssd130x.h ****             buffer_[x + (y / 8) * width] |= (1 << (y % 8));
 2406              		.loc 12 243 9 view .LVU558
 2407 02da 002A     		cmp	r2, #0
 2408 02dc 3FD0     		beq	.L165
 244:../../libdaisy/src/dev/oled_ssd130x.h ****         else
 2409              		.loc 12 244 13 view .LVU559
 2410 02de 039A     		ldr	r2, [sp, #12]
 2411 02e0 9144     		add	r9, r9, r2
 244:../../libdaisy/src/dev/oled_ssd130x.h ****         else
 2412              		.loc 12 244 42 view .LVU560
 2413 02e2 99F814B0 		ldrb	fp, [r9, #20]	@ zero_extendqisi2
 2414 02e6 45EA0B05 		orr	r5, r5, fp
 244:../../libdaisy/src/dev/oled_ssd130x.h ****         else
 2415              		.loc 12 244 13 view .LVU561
 2416 02ea 89F81450 		strb	r5, [r9, #20]
 2417 02ee C5E7     		b	.L164
 2418              	.LVL195:
 2419              	.L147:
 244:../../libdaisy/src/dev/oled_ssd130x.h ****         else
 2420              		.loc 12 244 13 view .LVU562
 2421              	.LBE1030:
 2422              	.LBE1029:
 2423              	.LBE1028:
 358:../../libdaisy/src/hid/disp/display.h ****                     d2 = (t_sxy - t_syx < 0 && t_exy - t_eyx > 0);
 2424              		.loc 3 358 46 view .LVU563
ARM GAS  /tmp/ccobg3TQ.s 			page 81


 2425 02f0 F1EE10FA 		vmrs	APSR_nzcv, FPSCR
 2426 02f4 64D4     		bmi	.L209
 2427 02f6 CDF804E0 		str	lr, [sp, #4]
 2428              	.LVL196:
 2429              	.L151:
 359:../../libdaisy/src/hid/disp/display.h ****                     d3 = (t_sxny - t_syx < 0 && t_exny - t_eyx > 0);
 2430              		.loc 3 359 33 discriminator 6 view .LVU564
 2431 02fa 74EEC54A 		vsub.f32	s9, s9, s10
 2432              	.LVL197:
 359:../../libdaisy/src/hid/disp/display.h ****                     d3 = (t_sxny - t_syx < 0 && t_exny - t_eyx > 0);
 2433              		.loc 3 359 45 discriminator 6 view .LVU565
 2434 02fe F5EEC04A 		vcmpe.f32	s9, #0
 2435 0302 F1EE10FA 		vmrs	APSR_nzcv, FPSCR
 2436 0306 51D4     		bmi	.L210
 359:../../libdaisy/src/hid/disp/display.h ****                     d3 = (t_sxny - t_syx < 0 && t_exny - t_eyx > 0);
 2437              		.loc 3 359 45 view .LVU566
 2438 0308 0021     		movs	r1, #0
 2439              	.LVL198:
 2440              	.L153:
 360:../../libdaisy/src/hid/disp/display.h ****                     d4 = (t_sxny - t_synx < 0 && t_exny - t_eynx > 0);
 2441              		.loc 3 360 34 discriminator 6 view .LVU567
 2442 030a 35EEC55A 		vsub.f32	s10, s11, s10
 2443              	.LVL199:
 360:../../libdaisy/src/hid/disp/display.h ****                     d4 = (t_sxny - t_synx < 0 && t_exny - t_eynx > 0);
 2444              		.loc 3 360 46 discriminator 6 view .LVU568
 2445 030e B5EEC05A 		vcmpe.f32	s10, #0
 2446 0312 F1EE10FA 		vmrs	APSR_nzcv, FPSCR
 2447 0316 3FD4     		bmi	.L211
 360:../../libdaisy/src/hid/disp/display.h ****                     d4 = (t_sxny - t_synx < 0 && t_exny - t_eynx > 0);
 2448              		.loc 3 360 46 view .LVU569
 2449 0318 0026     		movs	r6, #0
 2450              	.LVL200:
 2451              	.L155:
 361:../../libdaisy/src/hid/disp/display.h ****                 }
 2452              		.loc 3 361 34 discriminator 6 view .LVU570
 2453 031a 75EEC45A 		vsub.f32	s11, s11, s8
 2454              	.LVL201:
 361:../../libdaisy/src/hid/disp/display.h ****                 }
 2455              		.loc 3 361 47 discriminator 6 view .LVU571
 2456 031e F5EEC05A 		vcmpe.f32	s11, #0
 2457 0322 F1EE10FA 		vmrs	APSR_nzcv, FPSCR
 2458 0326 3FF53FAF 		bmi	.L206
 361:../../libdaisy/src/hid/disp/display.h ****                 }
 2459              		.loc 3 361 47 view .LVU572
 2460 032a 0027     		movs	r7, #0
 2461              	.LVL202:
 361:../../libdaisy/src/hid/disp/display.h ****                 }
 2462              		.loc 3 361 47 view .LVU573
 2463 032c 45E7     		b	.L146
 2464              	.LVL203:
 2465              	.L208:
 383:../../libdaisy/src/hid/disp/display.h ****                 {
 2466              		.loc 3 383 32 discriminator 1 view .LVU574
 2467 032e 9842     		cmp	r0, r3
 2468 0330 B8DB     		blt	.L167
 385:../../libdaisy/src/hid/disp/display.h ****                 }
 2469              		.loc 3 385 21 view .LVU575
ARM GAS  /tmp/ccobg3TQ.s 			page 82


 2470 0332 0023     		movs	r3, #0
 2471              	.LVL204:
 385:../../libdaisy/src/hid/disp/display.h ****                 }
 2472              		.loc 3 385 21 view .LVU576
 2473 0334 ABE7     		b	.L166
 2474              	.LVL205:
 2475              	.L163:
 2476              	.LBB1035:
 2477              	.LBB1027:
 2478              	.LBB1026:
 2479              	.LBB1024:
 2480              	.LBI1024:
 239:../../libdaisy/src/dev/oled_ssd130x.h ****     {
 2481              		.loc 12 239 10 is_stmt 1 view .LVU577
 2482              	.LBB1025:
 246:../../libdaisy/src/dev/oled_ssd130x.h ****     }
 2483              		.loc 12 246 13 is_stmt 0 view .LVU578
 2484 0336 039A     		ldr	r2, [sp, #12]
 2485 0338 9144     		add	r9, r9, r2
 2486              	.LVL206:
 246:../../libdaisy/src/dev/oled_ssd130x.h ****     }
 2487              		.loc 12 246 42 view .LVU579
 2488 033a 99F814B0 		ldrb	fp, [r9, #20]	@ zero_extendqisi2
 2489 033e 2BEA0505 		bic	r5, fp, r5
 2490              	.LVL207:
 246:../../libdaisy/src/dev/oled_ssd130x.h ****     }
 2491              		.loc 12 246 13 view .LVU580
 2492 0342 89F81450 		strb	r5, [r9, #20]
 2493 0346 98E7     		b	.L162
 2494              	.LVL208:
 2495              	.L161:
 246:../../libdaisy/src/dev/oled_ssd130x.h ****     }
 2496              		.loc 12 246 13 view .LVU581
 2497              	.LBE1025:
 2498              	.LBE1024:
 2499              	.LBE1026:
 2500              	.LBE1027:
 2501              	.LBE1035:
 2502              	.LBB1036:
 2503              	.LBB1020:
 2504              	.LBB1019:
 2505              	.LBB1017:
 2506              	.LBI1017:
 239:../../libdaisy/src/dev/oled_ssd130x.h ****     {
 2507              		.loc 12 239 10 is_stmt 1 view .LVU582
 2508              	.LBB1018:
 246:../../libdaisy/src/dev/oled_ssd130x.h ****     }
 2509              		.loc 12 246 13 is_stmt 0 view .LVU583
 2510 0348 039A     		ldr	r2, [sp, #12]
 2511 034a 9144     		add	r9, r9, r2
 2512              	.LVL209:
 246:../../libdaisy/src/dev/oled_ssd130x.h ****     }
 2513              		.loc 12 246 42 view .LVU584
 2514 034c 99F814B0 		ldrb	fp, [r9, #20]	@ zero_extendqisi2
 2515 0350 2BEA0505 		bic	r5, fp, r5
 2516              	.LVL210:
 246:../../libdaisy/src/dev/oled_ssd130x.h ****     }
ARM GAS  /tmp/ccobg3TQ.s 			page 83


 2517              		.loc 12 246 13 view .LVU585
 2518 0354 89F81450 		strb	r5, [r9, #20]
 2519              	.LVL211:
 246:../../libdaisy/src/dev/oled_ssd130x.h ****     }
 2520              		.loc 12 246 13 view .LVU586
 2521              	.LBE1018:
 2522              	.LBE1017:
 2523              	.LBE1019:
 2524              	.LBE1020:
 2525              	.LBE1036:
 371:../../libdaisy/src/hid/disp/display.h ****                 ((ChildType*)(this))
 2526              		.loc 3 371 13 view .LVU587
 2527 0358 002E     		cmp	r6, #0
 2528 035a 8ED0     		beq	.L162
 2529 035c 6FE7     		b	.L212
 2530              	.LVL212:
 2531              	.L165:
 2532              	.LBB1037:
 2533              	.LBB1034:
 2534              	.LBB1033:
 2535              	.LBB1031:
 2536              	.LBI1031:
 239:../../libdaisy/src/dev/oled_ssd130x.h ****     {
 2537              		.loc 12 239 10 is_stmt 1 view .LVU588
 2538              	.LBB1032:
 246:../../libdaisy/src/dev/oled_ssd130x.h ****     }
 2539              		.loc 12 246 13 is_stmt 0 view .LVU589
 2540 035e 039A     		ldr	r2, [sp, #12]
 2541 0360 9144     		add	r9, r9, r2
 2542              	.LVL213:
 246:../../libdaisy/src/dev/oled_ssd130x.h ****     }
 2543              		.loc 12 246 42 view .LVU590
 2544 0362 99F814B0 		ldrb	fp, [r9, #20]	@ zero_extendqisi2
 2545 0366 2BEA0505 		bic	r5, fp, r5
 2546              	.LVL214:
 246:../../libdaisy/src/dev/oled_ssd130x.h ****     }
 2547              		.loc 12 246 13 view .LVU591
 2548 036a 89F81450 		strb	r5, [r9, #20]
 2549 036e 85E7     		b	.L164
 2550              	.LVL215:
 2551              	.L159:
 246:../../libdaisy/src/dev/oled_ssd130x.h ****     }
 2552              		.loc 12 246 13 view .LVU592
 2553              	.LBE1032:
 2554              	.LBE1031:
 2555              	.LBE1033:
 2556              	.LBE1034:
 2557              	.LBE1037:
 2558              	.LBB1038:
 2559              	.LBB1013:
 2560              	.LBB1012:
 2561              	.LBB1010:
 2562              	.LBI1010:
 239:../../libdaisy/src/dev/oled_ssd130x.h ****     {
 2563              		.loc 12 239 10 is_stmt 1 view .LVU593
 2564              	.LBB1011:
 246:../../libdaisy/src/dev/oled_ssd130x.h ****     }
ARM GAS  /tmp/ccobg3TQ.s 			page 84


 2565              		.loc 12 246 13 is_stmt 0 view .LVU594
 2566 0370 039A     		ldr	r2, [sp, #12]
 2567 0372 9144     		add	r9, r9, r2
 2568              	.LVL216:
 246:../../libdaisy/src/dev/oled_ssd130x.h ****     }
 2569              		.loc 12 246 42 view .LVU595
 2570 0374 99F814B0 		ldrb	fp, [r9, #20]	@ zero_extendqisi2
 2571 0378 2BEA0505 		bic	r5, fp, r5
 2572              	.LVL217:
 246:../../libdaisy/src/dev/oled_ssd130x.h ****     }
 2573              		.loc 12 246 13 view .LVU596
 2574 037c 89F81450 		strb	r5, [r9, #20]
 2575              	.LVL218:
 246:../../libdaisy/src/dev/oled_ssd130x.h ****     }
 2576              		.loc 12 246 13 view .LVU597
 2577              	.LBE1011:
 2578              	.LBE1010:
 2579              	.LBE1012:
 2580              	.LBE1013:
 2581              	.LBE1038:
 368:../../libdaisy/src/hid/disp/display.h ****                 ((ChildType*)(this))
 2582              		.loc 3 368 13 view .LVU598
 2583 0380 0029     		cmp	r1, #0
 2584 0382 3FF45BAF 		beq	.L160
 2585 0386 3AE7     		b	.L213
 2586              	.L217:
 2587              		.align	3
 2588              	.L216:
 2589 0388 7A008BFC 		.word	4236968058
 2590 038c FA210940 		.word	1074340346
 2591 0390 00000000 		.word	0
 2592 0394 00806640 		.word	1080459264
 2593              	.LVL219:
 2594              	.L211:
 360:../../libdaisy/src/hid/disp/display.h ****                     d4 = (t_sxny - t_synx < 0 && t_exny - t_eynx > 0);
 2595              		.loc 3 360 56 discriminator 1 view .LVU599
 2596 0398 77EEE66A 		vsub.f32	s13, s15, s13
 2597              	.LVL220:
 360:../../libdaisy/src/hid/disp/display.h ****                     d4 = (t_sxny - t_synx < 0 && t_exny - t_eynx > 0);
 2598              		.loc 3 360 46 discriminator 1 view .LVU600
 2599 039c F5EEC06A 		vcmpe.f32	s13, #0
 2600 03a0 F1EE10FA 		vmrs	APSR_nzcv, FPSCR
 2601 03a4 CCBF     		ite	gt
 2602 03a6 0126     		movgt	r6, #1
 2603              	.LVL221:
 360:../../libdaisy/src/hid/disp/display.h ****                     d4 = (t_sxny - t_synx < 0 && t_exny - t_eynx > 0);
 2604              		.loc 3 360 46 discriminator 1 view .LVU601
 2605 03a8 0026     		movle	r6, #0
 2606 03aa B6E7     		b	.L155
 2607              	.LVL222:
 2608              	.L210:
 359:../../libdaisy/src/hid/disp/display.h ****                     d3 = (t_sxny - t_syx < 0 && t_exny - t_eyx > 0);
 2609              		.loc 3 359 54 discriminator 1 view .LVU602
 2610 03ac 36EE666A 		vsub.f32	s12, s12, s13
 2611              	.LVL223:
 359:../../libdaisy/src/hid/disp/display.h ****                     d3 = (t_sxny - t_syx < 0 && t_exny - t_eyx > 0);
 2612              		.loc 3 359 45 discriminator 1 view .LVU603
ARM GAS  /tmp/ccobg3TQ.s 			page 85


 2613 03b0 B5EEC06A 		vcmpe.f32	s12, #0
 2614 03b4 F1EE10FA 		vmrs	APSR_nzcv, FPSCR
 2615 03b8 CCBF     		ite	gt
 2616 03ba 0121     		movgt	r1, #1
 2617 03bc 0021     		movle	r1, #0
 2618 03be A4E7     		b	.L153
 2619              	.LVL224:
 2620              	.L209:
 358:../../libdaisy/src/hid/disp/display.h ****                     d2 = (t_sxy - t_syx < 0 && t_exy - t_eyx > 0);
 2621              		.loc 3 358 55 discriminator 1 view .LVU604
 2622 03c0 76EE473A 		vsub.f32	s7, s12, s14
 358:../../libdaisy/src/hid/disp/display.h ****                     d2 = (t_sxy - t_syx < 0 && t_exy - t_eyx > 0);
 2623              		.loc 3 358 46 discriminator 1 view .LVU605
 2624 03c4 F5EEC03A 		vcmpe.f32	s7, #0
 2625 03c8 F1EE10FA 		vmrs	APSR_nzcv, FPSCR
 2626 03cc CCBF     		ite	gt
 2627 03ce 0122     		movgt	r2, #1
 2628 03d0 0022     		movle	r2, #0
 2629 03d2 0192     		str	r2, [sp, #4]
 2630              	.LVL225:
 358:../../libdaisy/src/hid/disp/display.h ****                     d2 = (t_sxy - t_syx < 0 && t_exy - t_eyx > 0);
 2631              		.loc 3 358 46 discriminator 1 view .LVU606
 2632 03d4 91E7     		b	.L151
 2633              	.LVL226:
 2634              	.L176:
 354:../../libdaisy/src/hid/disp/display.h ****                 }
 2635              		.loc 3 354 47 view .LVU607
 2636 03d6 0127     		movs	r7, #1
 2637              	.LVL227:
 354:../../libdaisy/src/hid/disp/display.h ****                 }
 2638              		.loc 3 354 47 view .LVU608
 2639 03d8 EFE6     		b	.L146
 2640              	.LVL228:
 2641              	.L173:
 352:../../libdaisy/src/hid/disp/display.h ****                     d3 = (t_sxny - t_syx < 0 || t_exny - t_eyx > 0);
 2642              		.loc 3 352 33 view .LVU609
 2643 03da 74EEC54A 		vsub.f32	s9, s9, s10
 2644              	.LVL229:
 351:../../libdaisy/src/hid/disp/display.h ****                     d2 = (t_sxy - t_syx < 0 || t_exy - t_eyx > 0);
 2645              		.loc 3 351 46 view .LVU610
 2646 03de 0122     		movs	r2, #1
 2647 03e0 0192     		str	r2, [sp, #4]
 2648              	.LVL230:
 352:../../libdaisy/src/hid/disp/display.h ****                     d3 = (t_sxny - t_syx < 0 || t_exny - t_eyx > 0);
 2649              		.loc 3 352 45 view .LVU611
 2650 03e2 F5EEC04A 		vcmpe.f32	s9, #0
 2651 03e6 F1EE10FA 		vmrs	APSR_nzcv, FPSCR
 2652 03ea 7FF5BBAE 		bpl	.L214
 2653              	.L174:
 353:../../libdaisy/src/hid/disp/display.h ****                     d4 = (t_sxny - t_synx < 0 || t_exny - t_eynx > 0);
 2654              		.loc 3 353 34 view .LVU612
 2655 03ee 35EEC55A 		vsub.f32	s10, s11, s10
 2656              	.LVL231:
 352:../../libdaisy/src/hid/disp/display.h ****                     d3 = (t_sxny - t_syx < 0 || t_exny - t_eyx > 0);
 2657              		.loc 3 352 45 view .LVU613
 2658 03f2 0121     		movs	r1, #1
 2659              	.LVL232:
ARM GAS  /tmp/ccobg3TQ.s 			page 86


 353:../../libdaisy/src/hid/disp/display.h ****                     d4 = (t_sxny - t_synx < 0 || t_exny - t_eynx > 0);
 2660              		.loc 3 353 46 view .LVU614
 2661 03f4 B5EEC05A 		vcmpe.f32	s10, #0
 2662 03f8 F1EE10FA 		vmrs	APSR_nzcv, FPSCR
 2663 03fc 7FF5C3AE 		bpl	.L215
 2664              	.LVL233:
 2665              	.L175:
 353:../../libdaisy/src/hid/disp/display.h ****                     d4 = (t_sxny - t_synx < 0 || t_exny - t_eynx > 0);
 2666              		.loc 3 353 46 view .LVU615
 2667 0400 0126     		movs	r6, #1
 2668              	.LVL234:
 353:../../libdaisy/src/hid/disp/display.h ****                     d4 = (t_sxny - t_synx < 0 || t_exny - t_eynx > 0);
 2669              		.loc 3 353 46 view .LVU616
 2670 0402 C9E6     		b	.L150
 2671              	.LVL235:
 2672              	.L142:
 308:../../libdaisy/src/hid/disp/display.h ****             sweep = -sweep;
 2673              		.loc 3 308 13 view .LVU617
 2674 0404 DDE91423 		ldrd	r2, r3, [sp, #80]
 2675              	.LVL236:
 308:../../libdaisy/src/hid/disp/display.h ****             sweep = -sweep;
 2676              		.loc 3 308 13 view .LVU618
 2677 0408 1344     		add	r3, r3, r2
 2678              	.LVL237:
 308:../../libdaisy/src/hid/disp/display.h ****             sweep = -sweep;
 2679              		.loc 3 308 13 view .LVU619
 2680 040a 06EE102A 		vmov	s12, r2	@ int
 2681 040e 1493     		str	r3, [sp, #80]
 2682 0410 159B     		ldr	r3, [sp, #84]
 2683              	.LVL238:
 308:../../libdaisy/src/hid/disp/display.h ****             sweep = -sweep;
 2684              		.loc 3 308 13 view .LVU620
 2685 0412 5B42     		rsbs	r3, r3, #0
 2686 0414 1593     		str	r3, [sp, #84]
 2687              	.LVL239:
 308:../../libdaisy/src/hid/disp/display.h ****             sweep = -sweep;
 2688              		.loc 3 308 13 view .LVU621
 2689 0416 07E6     		b	.L143
 2690              		.cfi_endproc
 2691              	.LFE4838:
 2693              		.section	.text._ZN5daisy25OneBitGraphicsDisplayImplINS_11OledDisplayINS_13SSD130xDriverILj128ELj64
 2694              		.align	1
 2695              		.p2align 2,,3
 2696              		.weak	_ZN5daisy25OneBitGraphicsDisplayImplINS_11OledDisplayINS_13SSD130xDriverILj128ELj64ENS_24SSD
 2697              		.syntax unified
 2698              		.thumb
 2699              		.thumb_func
 2700              		.fpu fpv5-d16
 2702              	_ZN5daisy25OneBitGraphicsDisplayImplINS_11OledDisplayINS_13SSD130xDriverILj128ELj64ENS_24SSD130x4Wi
 2703              	.LVL240:
 2704              	.LFB4839:
 459:../../libdaisy/src/hid/disp/display.h **** 
 460:../../libdaisy/src/hid/disp/display.h ****     Rectangle WriteStringAligned(const char*    str,
 2705              		.loc 3 460 15 is_stmt 1 view -0
 2706              		.cfi_startproc
 2707              		@ args = 12, pretend = 0, frame = 40
 2708              		@ frame_needed = 0, uses_anonymous_args = 0
ARM GAS  /tmp/ccobg3TQ.s 			page 87


 2709              		.loc 3 460 15 is_stmt 0 view .LVU623
 2710 0000 2DE9F04F 		push	{r4, r5, r6, r7, r8, r9, r10, fp, lr}
 2711              		.cfi_def_cfa_offset 36
 2712              		.cfi_offset 4, -36
 2713              		.cfi_offset 5, -32
 2714              		.cfi_offset 6, -28
 2715              		.cfi_offset 7, -24
 2716              		.cfi_offset 8, -20
 2717              		.cfi_offset 9, -16
 2718              		.cfi_offset 10, -12
 2719              		.cfi_offset 11, -8
 2720              		.cfi_offset 14, -4
 2721 0004 0C46     		mov	r4, r1
 2722 0006 8BB0     		sub	sp, sp, #44
 2723              		.cfi_def_cfa_offset 80
 2724              	.LBB1173:
 2725              	.LBB1174:
 2726              	.LBB1175:
 2727              	.LBB1176:
 461:../../libdaisy/src/hid/disp/display.h ****                                  const FontDef& font,
 462:../../libdaisy/src/hid/disp/display.h ****                                  Rectangle      boundingBox,
 463:../../libdaisy/src/hid/disp/display.h ****                                  Alignment      alignment,
 464:../../libdaisy/src/hid/disp/display.h ****                                  bool           on) override
 465:../../libdaisy/src/hid/disp/display.h ****     {
 466:../../libdaisy/src/hid/disp/display.h ****         const auto alignedRect
 467:../../libdaisy/src/hid/disp/display.h ****             = GetTextRect(str, font).AlignedWithin(boundingBox, alignment);
 468:../../libdaisy/src/hid/disp/display.h ****         SetCursor(alignedRect.GetX(), alignedRect.GetY());
 469:../../libdaisy/src/hid/disp/display.h ****         ((ChildType*)(this))->ChildType::WriteString(str, font, on);
 470:../../libdaisy/src/hid/disp/display.h ****         return alignedRect;
 471:../../libdaisy/src/hid/disp/display.h ****     }
 472:../../libdaisy/src/hid/disp/display.h **** 
 473:../../libdaisy/src/hid/disp/display.h ****   private:
 474:../../libdaisy/src/hid/disp/display.h ****     uint32_t strlen(const char* string)
 475:../../libdaisy/src/hid/disp/display.h ****     {
 476:../../libdaisy/src/hid/disp/display.h ****         uint32_t result = 0;
 477:../../libdaisy/src/hid/disp/display.h ****         while(*string++ != '\0')
 2728              		.loc 3 477 25 view .LVU624
 2729 0008 1146     		mov	r1, r2
 2730              	.LVL241:
 2731              		.loc 3 477 25 view .LVU625
 2732              	.LBE1176:
 2733              	.LBE1175:
 2734              	.LBE1174:
 2735              	.LBE1173:
 460:../../libdaisy/src/hid/disp/display.h ****                                  const FontDef& font,
 2736              		.loc 3 460 15 view .LVU626
 2737 000a 9046     		mov	r8, r2
 2738 000c 0990     		str	r0, [sp, #36]
 2739 000e 1D46     		mov	r5, r3
 2740              	.LVL242:
 2741              	.LBB1191:
 2742              	.LBI1173:
 478:../../libdaisy/src/hid/disp/display.h ****             result++;
 479:../../libdaisy/src/hid/disp/display.h ****         return result;
 480:../../libdaisy/src/hid/disp/display.h ****     }
 481:../../libdaisy/src/hid/disp/display.h **** 
 482:../../libdaisy/src/hid/disp/display.h ****     Rectangle GetTextRect(const char* text, const FontDef& font)
ARM GAS  /tmp/ccobg3TQ.s 			page 88


 2743              		.loc 3 482 15 is_stmt 1 view .LVU627
 2744              	.LBB1187:
 2745              	.LBB1180:
 2746              	.LBB1177:
 477:../../libdaisy/src/hid/disp/display.h ****             result++;
 2747              		.loc 3 477 25 view .LVU628
 477:../../libdaisy/src/hid/disp/display.h ****             result++;
 2748              		.loc 3 477 25 is_stmt 0 view .LVU629
 2749              	.LBE1177:
 2750              	.LBE1180:
 2751              	.LBE1187:
 2752              	.LBE1191:
 460:../../libdaisy/src/hid/disp/display.h ****                                  const FontDef& font,
 2753              		.loc 3 460 15 view .LVU630
 2754 0010 9DF85800 		ldrb	r0, [sp, #88]	@ zero_extendqisi2
 2755              	.LVL243:
 2756              	.LBB1192:
 2757              	.LBB1188:
 2758              	.LBB1181:
 2759              	.LBB1178:
 477:../../libdaisy/src/hid/disp/display.h ****             result++;
 2760              		.loc 3 477 25 view .LVU631
 2761 0014 11F8012B 		ldrb	r2, [r1], #1	@ zero_extendqisi2
 2762              	.LVL244:
 477:../../libdaisy/src/hid/disp/display.h ****             result++;
 2763              		.loc 3 477 25 view .LVU632
 2764              	.LBE1178:
 2765              	.LBE1181:
 2766              	.LBE1188:
 2767              	.LBE1192:
 460:../../libdaisy/src/hid/disp/display.h ****                                  const FontDef& font,
 2768              		.loc 3 460 15 view .LVU633
 2769 0018 0890     		str	r0, [sp, #32]
 2770 001a DDE91463 		ldrd	r6, r3, [sp, #80]
 2771              	.LVL245:
 2772              	.LBB1193:
 2773              	.LBB1189:
 2774              	.LBB1182:
 2775              	.LBB1179:
 477:../../libdaisy/src/hid/disp/display.h ****             result++;
 2776              		.loc 3 477 25 view .LVU634
 2777 001e 32B1     		cbz	r2, .L219
 476:../../libdaisy/src/hid/disp/display.h ****         while(*string++ != '\0')
 2778              		.loc 3 476 18 view .LVU635
 2779 0020 0022     		movs	r2, #0
 2780              	.LVL246:
 2781              	.L220:
 477:../../libdaisy/src/hid/disp/display.h ****             result++;
 2782              		.loc 3 477 25 view .LVU636
 2783 0022 11F8010B 		ldrb	r0, [r1], #1	@ zero_extendqisi2
 2784              	.LVL247:
 478:../../libdaisy/src/hid/disp/display.h ****             result++;
 2785              		.loc 3 478 13 view .LVU637
 2786 0026 0132     		adds	r2, r2, #1
 2787              	.LVL248:
 477:../../libdaisy/src/hid/disp/display.h ****             result++;
 2788              		.loc 3 477 25 is_stmt 1 view .LVU638
ARM GAS  /tmp/ccobg3TQ.s 			page 89


 2789 0028 0028     		cmp	r0, #0
 2790 002a FAD1     		bne	.L220
 2791 002c 92B2     		uxth	r2, r2
 2792              	.LVL249:
 2793              	.L219:
 477:../../libdaisy/src/hid/disp/display.h ****             result++;
 2794              		.loc 3 477 25 is_stmt 0 view .LVU639
 2795              	.LBE1179:
 2796              	.LBE1182:
 483:../../libdaisy/src/hid/disp/display.h ****     {
 484:../../libdaisy/src/hid/disp/display.h ****         const auto numChars = strlen(text);
 485:../../libdaisy/src/hid/disp/display.h ****         return {int16_t(numChars * font.FontWidth), font.FontHeight};
 2797              		.loc 3 485 68 view .LVU640
 2798 002e 2978     		ldrb	r1, [r5]	@ zero_extendqisi2
 2799              		.loc 3 485 58 view .LVU641
 2800 0030 6878     		ldrb	r0, [r5, #1]	@ zero_extendqisi2
 2801              		.loc 3 485 68 view .LVU642
 2802 0032 11FB02F2 		smulbb	r2, r1, r2
 2803 0036 01B2     		sxth	r1, r0
 2804              	.LVL250:
 2805              	.LBB1183:
 2806              	.LBI1183:
 2807              		.file 15 "../../libdaisy/src/hid/disp/graphics_common.h"
   1:../../libdaisy/src/hid/disp/graphics_common.h **** #pragma once
   2:../../libdaisy/src/hid/disp/graphics_common.h **** 
   3:../../libdaisy/src/hid/disp/graphics_common.h **** #include <cstdint>
   4:../../libdaisy/src/hid/disp/graphics_common.h **** 
   5:../../libdaisy/src/hid/disp/graphics_common.h **** namespace daisy
   6:../../libdaisy/src/hid/disp/graphics_common.h **** {
   7:../../libdaisy/src/hid/disp/graphics_common.h **** /** Justifications */
   8:../../libdaisy/src/hid/disp/graphics_common.h **** enum class Alignment
   9:../../libdaisy/src/hid/disp/graphics_common.h **** {
  10:../../libdaisy/src/hid/disp/graphics_common.h ****     centered,
  11:../../libdaisy/src/hid/disp/graphics_common.h ****     topLeft,
  12:../../libdaisy/src/hid/disp/graphics_common.h ****     topCentered,
  13:../../libdaisy/src/hid/disp/graphics_common.h ****     topRight,
  14:../../libdaisy/src/hid/disp/graphics_common.h ****     bottomLeft,
  15:../../libdaisy/src/hid/disp/graphics_common.h ****     bottomCentered,
  16:../../libdaisy/src/hid/disp/graphics_common.h ****     bottomRight,
  17:../../libdaisy/src/hid/disp/graphics_common.h ****     centeredLeft,
  18:../../libdaisy/src/hid/disp/graphics_common.h ****     centeredRight
  19:../../libdaisy/src/hid/disp/graphics_common.h **** };
  20:../../libdaisy/src/hid/disp/graphics_common.h **** 
  21:../../libdaisy/src/hid/disp/graphics_common.h **** class Rectangle
  22:../../libdaisy/src/hid/disp/graphics_common.h **** {
  23:../../libdaisy/src/hid/disp/graphics_common.h ****   public:
  24:../../libdaisy/src/hid/disp/graphics_common.h ****     Rectangle() : x_(0), y_(0), width_(0), height_(0) {}
  25:../../libdaisy/src/hid/disp/graphics_common.h **** 
  26:../../libdaisy/src/hid/disp/graphics_common.h ****     Rectangle(int16_t width, int16_t height)
 2808              		.loc 15 26 5 is_stmt 1 view .LVU643
 2809              	.LBB1184:
 2810              	.LBI1184:
  27:../../libdaisy/src/hid/disp/graphics_common.h ****     : x_(0), y_(0), width_(max(0, width)), height_(max(0, height))
  28:../../libdaisy/src/hid/disp/graphics_common.h ****     {
  29:../../libdaisy/src/hid/disp/graphics_common.h ****     }
  30:../../libdaisy/src/hid/disp/graphics_common.h **** 
  31:../../libdaisy/src/hid/disp/graphics_common.h ****     Rectangle(int16_t x, int16_t y, int16_t width, int16_t height)
ARM GAS  /tmp/ccobg3TQ.s 			page 90


  32:../../libdaisy/src/hid/disp/graphics_common.h ****     : x_(x), y_(y), width_(max(0, width)), height_(max(0, height))
  33:../../libdaisy/src/hid/disp/graphics_common.h ****     {
  34:../../libdaisy/src/hid/disp/graphics_common.h ****     }
  35:../../libdaisy/src/hid/disp/graphics_common.h **** 
  36:../../libdaisy/src/hid/disp/graphics_common.h ****     Rectangle(const Rectangle& other) { *this = other; }
  37:../../libdaisy/src/hid/disp/graphics_common.h **** 
  38:../../libdaisy/src/hid/disp/graphics_common.h ****     Rectangle& operator=(const Rectangle& other)
  39:../../libdaisy/src/hid/disp/graphics_common.h ****     {
  40:../../libdaisy/src/hid/disp/graphics_common.h ****         x_      = other.x_;
  41:../../libdaisy/src/hid/disp/graphics_common.h ****         y_      = other.y_;
  42:../../libdaisy/src/hid/disp/graphics_common.h ****         width_  = other.width_;
  43:../../libdaisy/src/hid/disp/graphics_common.h ****         height_ = other.height_;
  44:../../libdaisy/src/hid/disp/graphics_common.h ****         return *this;
  45:../../libdaisy/src/hid/disp/graphics_common.h ****     }
  46:../../libdaisy/src/hid/disp/graphics_common.h **** 
  47:../../libdaisy/src/hid/disp/graphics_common.h ****     bool operator==(const Rectangle& other) const
  48:../../libdaisy/src/hid/disp/graphics_common.h ****     {
  49:../../libdaisy/src/hid/disp/graphics_common.h ****         return (x_ == other.x_) && (y_ == other.y_) && (width_ == other.width_)
  50:../../libdaisy/src/hid/disp/graphics_common.h ****                && (height_ == other.height_);
  51:../../libdaisy/src/hid/disp/graphics_common.h ****     }
  52:../../libdaisy/src/hid/disp/graphics_common.h ****     bool operator!=(const Rectangle& other) const { return !(*this == other); }
  53:../../libdaisy/src/hid/disp/graphics_common.h **** 
  54:../../libdaisy/src/hid/disp/graphics_common.h ****     bool IsEmpty() const { return (width_ <= 0) || (height_ <= 0); }
  55:../../libdaisy/src/hid/disp/graphics_common.h **** 
  56:../../libdaisy/src/hid/disp/graphics_common.h ****     int16_t GetX() const { return x_; }
  57:../../libdaisy/src/hid/disp/graphics_common.h ****     int16_t GetY() const { return y_; }
  58:../../libdaisy/src/hid/disp/graphics_common.h ****     int16_t GetWidth() const { return width_; }
  59:../../libdaisy/src/hid/disp/graphics_common.h ****     int16_t GetHeight() const { return height_; }
  60:../../libdaisy/src/hid/disp/graphics_common.h ****     int16_t GetRight() const { return x_ + width_; }
  61:../../libdaisy/src/hid/disp/graphics_common.h ****     int16_t GetBottom() const { return y_ + height_; }
  62:../../libdaisy/src/hid/disp/graphics_common.h ****     int16_t GetCenterX() const { return x_ + width_ / 2; }
  63:../../libdaisy/src/hid/disp/graphics_common.h ****     int16_t GetCenterY() const { return y_ + height_ / 2; }
  64:../../libdaisy/src/hid/disp/graphics_common.h **** 
  65:../../libdaisy/src/hid/disp/graphics_common.h ****     Rectangle WithX(int16_t x) const { return {x, y_, width_, height_}; }
  66:../../libdaisy/src/hid/disp/graphics_common.h ****     Rectangle WithY(int16_t y) const { return {x_, y, width_, height_}; }
  67:../../libdaisy/src/hid/disp/graphics_common.h ****     Rectangle WithWidth(int16_t width) const
  68:../../libdaisy/src/hid/disp/graphics_common.h ****     {
  69:../../libdaisy/src/hid/disp/graphics_common.h ****         return {x_, y_, width, height_};
  70:../../libdaisy/src/hid/disp/graphics_common.h ****     }
  71:../../libdaisy/src/hid/disp/graphics_common.h ****     Rectangle WithHeight(int16_t height) const
  72:../../libdaisy/src/hid/disp/graphics_common.h ****     {
  73:../../libdaisy/src/hid/disp/graphics_common.h ****         return {x_, y_, width_, height};
  74:../../libdaisy/src/hid/disp/graphics_common.h ****     }
  75:../../libdaisy/src/hid/disp/graphics_common.h ****     Rectangle WithSize(int16_t width, int16_t height) const
  76:../../libdaisy/src/hid/disp/graphics_common.h ****     {
  77:../../libdaisy/src/hid/disp/graphics_common.h ****         return {x_, y_, width, height};
  78:../../libdaisy/src/hid/disp/graphics_common.h ****     }
  79:../../libdaisy/src/hid/disp/graphics_common.h ****     Rectangle WithWidthKeepingCenter(int16_t width) const
  80:../../libdaisy/src/hid/disp/graphics_common.h ****     {
  81:../../libdaisy/src/hid/disp/graphics_common.h ****         return Rectangle(x_, y_, width, height_)
  82:../../libdaisy/src/hid/disp/graphics_common.h ****             .WithCenter(GetCenterX(), GetCenterY());
  83:../../libdaisy/src/hid/disp/graphics_common.h ****     }
  84:../../libdaisy/src/hid/disp/graphics_common.h ****     Rectangle WithHeightKeepingCenter(int16_t height) const
  85:../../libdaisy/src/hid/disp/graphics_common.h ****     {
  86:../../libdaisy/src/hid/disp/graphics_common.h ****         return Rectangle(x_, y_, width_, height)
  87:../../libdaisy/src/hid/disp/graphics_common.h ****             .WithCenter(GetCenterX(), GetCenterY());
  88:../../libdaisy/src/hid/disp/graphics_common.h ****     }
ARM GAS  /tmp/ccobg3TQ.s 			page 91


  89:../../libdaisy/src/hid/disp/graphics_common.h ****     Rectangle WithSizeKeepingCenter(int16_t width, int16_t height) const
  90:../../libdaisy/src/hid/disp/graphics_common.h ****     {
  91:../../libdaisy/src/hid/disp/graphics_common.h ****         return Rectangle(x_, y_, width, height)
  92:../../libdaisy/src/hid/disp/graphics_common.h ****             .WithCenter(GetCenterX(), GetCenterY());
  93:../../libdaisy/src/hid/disp/graphics_common.h ****     }
  94:../../libdaisy/src/hid/disp/graphics_common.h **** 
  95:../../libdaisy/src/hid/disp/graphics_common.h ****     Rectangle Reduced(int16_t sizeToReduce) const
  96:../../libdaisy/src/hid/disp/graphics_common.h ****     {
  97:../../libdaisy/src/hid/disp/graphics_common.h ****         return {int16_t(x_ + sizeToReduce),
  98:../../libdaisy/src/hid/disp/graphics_common.h ****                 int16_t(y_ + sizeToReduce),
  99:../../libdaisy/src/hid/disp/graphics_common.h ****                 int16_t(width_ - 2 * sizeToReduce),
 100:../../libdaisy/src/hid/disp/graphics_common.h ****                 int16_t(height_ - 2 * sizeToReduce)};
 101:../../libdaisy/src/hid/disp/graphics_common.h ****     }
 102:../../libdaisy/src/hid/disp/graphics_common.h ****     Rectangle Reduced(int16_t xToReduce, int16_t yToReduce) const
 103:../../libdaisy/src/hid/disp/graphics_common.h ****     {
 104:../../libdaisy/src/hid/disp/graphics_common.h ****         return {int16_t(x_ + xToReduce),
 105:../../libdaisy/src/hid/disp/graphics_common.h ****                 int16_t(y_ + yToReduce),
 106:../../libdaisy/src/hid/disp/graphics_common.h ****                 int16_t(width_ - 2 * xToReduce),
 107:../../libdaisy/src/hid/disp/graphics_common.h ****                 int16_t(height_ - 2 * yToReduce)};
 108:../../libdaisy/src/hid/disp/graphics_common.h ****     }
 109:../../libdaisy/src/hid/disp/graphics_common.h **** 
 110:../../libdaisy/src/hid/disp/graphics_common.h ****     Rectangle Translated(int16_t x, int16_t y) const
 111:../../libdaisy/src/hid/disp/graphics_common.h ****     {
 112:../../libdaisy/src/hid/disp/graphics_common.h ****         return {int16_t(x_ + x), int16_t(y_ + y), width_, height_};
 113:../../libdaisy/src/hid/disp/graphics_common.h ****     }
 114:../../libdaisy/src/hid/disp/graphics_common.h **** 
 115:../../libdaisy/src/hid/disp/graphics_common.h ****     Rectangle WithLeft(int16_t left) const
 116:../../libdaisy/src/hid/disp/graphics_common.h ****     {
 117:../../libdaisy/src/hid/disp/graphics_common.h ****         const auto newWidth = int16_t((x_ - left) + width_);
 118:../../libdaisy/src/hid/disp/graphics_common.h ****         return {left, y_, newWidth, height_};
 119:../../libdaisy/src/hid/disp/graphics_common.h ****     }
 120:../../libdaisy/src/hid/disp/graphics_common.h **** 
 121:../../libdaisy/src/hid/disp/graphics_common.h ****     Rectangle WithRight(int16_t right) const
 122:../../libdaisy/src/hid/disp/graphics_common.h ****     {
 123:../../libdaisy/src/hid/disp/graphics_common.h ****         const auto newWidth = int16_t(right - x_);
 124:../../libdaisy/src/hid/disp/graphics_common.h ****         return {x_, y_, newWidth, height_};
 125:../../libdaisy/src/hid/disp/graphics_common.h ****     }
 126:../../libdaisy/src/hid/disp/graphics_common.h **** 
 127:../../libdaisy/src/hid/disp/graphics_common.h ****     Rectangle WithTop(int16_t top) const
 128:../../libdaisy/src/hid/disp/graphics_common.h ****     {
 129:../../libdaisy/src/hid/disp/graphics_common.h ****         const auto newHeight = int16_t((y_ - top) + height_);
 130:../../libdaisy/src/hid/disp/graphics_common.h ****         return {x_, top, width_, newHeight};
 131:../../libdaisy/src/hid/disp/graphics_common.h ****     }
 132:../../libdaisy/src/hid/disp/graphics_common.h **** 
 133:../../libdaisy/src/hid/disp/graphics_common.h ****     Rectangle WithBottom(int16_t bottom) const
 134:../../libdaisy/src/hid/disp/graphics_common.h ****     {
 135:../../libdaisy/src/hid/disp/graphics_common.h ****         const auto newHeight = int16_t(bottom - y_);
 136:../../libdaisy/src/hid/disp/graphics_common.h ****         return {x_, y_, width_, newHeight};
 137:../../libdaisy/src/hid/disp/graphics_common.h ****     }
 138:../../libdaisy/src/hid/disp/graphics_common.h **** 
 139:../../libdaisy/src/hid/disp/graphics_common.h ****     Rectangle WithTrimmedLeft(int16_t pxToTrim) const
 140:../../libdaisy/src/hid/disp/graphics_common.h ****     {
 141:../../libdaisy/src/hid/disp/graphics_common.h ****         return {
 142:../../libdaisy/src/hid/disp/graphics_common.h ****             int16_t(x_ + pxToTrim), y_, int16_t(width_ - pxToTrim), height_};
 143:../../libdaisy/src/hid/disp/graphics_common.h ****     }
 144:../../libdaisy/src/hid/disp/graphics_common.h **** 
 145:../../libdaisy/src/hid/disp/graphics_common.h ****     Rectangle WithTrimmedRight(int16_t pxToTrim) const
ARM GAS  /tmp/ccobg3TQ.s 			page 92


 146:../../libdaisy/src/hid/disp/graphics_common.h ****     {
 147:../../libdaisy/src/hid/disp/graphics_common.h ****         return {x_, y_, int16_t(width_ - pxToTrim), height_};
 148:../../libdaisy/src/hid/disp/graphics_common.h ****     }
 149:../../libdaisy/src/hid/disp/graphics_common.h **** 
 150:../../libdaisy/src/hid/disp/graphics_common.h ****     Rectangle WithTrimmedTop(int16_t pxToTrim) const
 151:../../libdaisy/src/hid/disp/graphics_common.h ****     {
 152:../../libdaisy/src/hid/disp/graphics_common.h ****         return {
 153:../../libdaisy/src/hid/disp/graphics_common.h ****             x_, int16_t(y_ + pxToTrim), width_, int16_t(height_ - pxToTrim)};
 154:../../libdaisy/src/hid/disp/graphics_common.h ****     }
 155:../../libdaisy/src/hid/disp/graphics_common.h **** 
 156:../../libdaisy/src/hid/disp/graphics_common.h ****     Rectangle WithTrimmedBottom(int16_t pxToTrim) const
 157:../../libdaisy/src/hid/disp/graphics_common.h ****     {
 158:../../libdaisy/src/hid/disp/graphics_common.h ****         return {x_, y_, width_, int16_t(height_ - pxToTrim)};
 159:../../libdaisy/src/hid/disp/graphics_common.h ****     }
 160:../../libdaisy/src/hid/disp/graphics_common.h **** 
 161:../../libdaisy/src/hid/disp/graphics_common.h ****     Rectangle WithCenterX(int16_t centerX) const
 162:../../libdaisy/src/hid/disp/graphics_common.h ****     {
 163:../../libdaisy/src/hid/disp/graphics_common.h ****         return {int16_t(x_ + centerX - GetCenterX()), y_, width_, height_};
 164:../../libdaisy/src/hid/disp/graphics_common.h ****     }
 165:../../libdaisy/src/hid/disp/graphics_common.h **** 
 166:../../libdaisy/src/hid/disp/graphics_common.h ****     Rectangle WithCenterY(int16_t centerY) const
 167:../../libdaisy/src/hid/disp/graphics_common.h ****     {
 168:../../libdaisy/src/hid/disp/graphics_common.h ****         return {x_, int16_t(y_ + centerY - GetCenterY()), width_, height_};
 169:../../libdaisy/src/hid/disp/graphics_common.h ****     }
 170:../../libdaisy/src/hid/disp/graphics_common.h **** 
 171:../../libdaisy/src/hid/disp/graphics_common.h ****     Rectangle WithCenter(int16_t centerX, int16_t centerY) const
 172:../../libdaisy/src/hid/disp/graphics_common.h ****     {
 173:../../libdaisy/src/hid/disp/graphics_common.h ****         return {int16_t(x_ + centerX - GetCenterX()),
 174:../../libdaisy/src/hid/disp/graphics_common.h ****                 int16_t(y_ + centerY - GetCenterY()),
 175:../../libdaisy/src/hid/disp/graphics_common.h ****                 width_,
 176:../../libdaisy/src/hid/disp/graphics_common.h ****                 height_};
 177:../../libdaisy/src/hid/disp/graphics_common.h ****     }
 178:../../libdaisy/src/hid/disp/graphics_common.h **** 
 179:../../libdaisy/src/hid/disp/graphics_common.h ****     Rectangle RemoveFromLeft(int16_t pxToRemove)
 180:../../libdaisy/src/hid/disp/graphics_common.h ****     {
 181:../../libdaisy/src/hid/disp/graphics_common.h ****         const auto result = this->WithWidth(min(pxToRemove, width_));
 182:../../libdaisy/src/hid/disp/graphics_common.h ****         x_ += min(pxToRemove, width_);
 183:../../libdaisy/src/hid/disp/graphics_common.h ****         width_ = max(int16_t(width_ - pxToRemove), 0);
 184:../../libdaisy/src/hid/disp/graphics_common.h ****         return result;
 185:../../libdaisy/src/hid/disp/graphics_common.h ****     }
 186:../../libdaisy/src/hid/disp/graphics_common.h **** 
 187:../../libdaisy/src/hid/disp/graphics_common.h ****     Rectangle RemoveFromRight(int16_t pxToRemove)
 188:../../libdaisy/src/hid/disp/graphics_common.h ****     {
 189:../../libdaisy/src/hid/disp/graphics_common.h ****         const auto canRemove = min(pxToRemove, width_);
 190:../../libdaisy/src/hid/disp/graphics_common.h ****         width_ -= canRemove;
 191:../../libdaisy/src/hid/disp/graphics_common.h ****         return {int16_t(x_ + width_), y_, canRemove, height_};
 192:../../libdaisy/src/hid/disp/graphics_common.h ****     }
 193:../../libdaisy/src/hid/disp/graphics_common.h **** 
 194:../../libdaisy/src/hid/disp/graphics_common.h ****     Rectangle RemoveFromTop(int16_t pxToRemove)
 195:../../libdaisy/src/hid/disp/graphics_common.h ****     {
 196:../../libdaisy/src/hid/disp/graphics_common.h ****         const auto result = this->WithHeight(min(pxToRemove, height_));
 197:../../libdaisy/src/hid/disp/graphics_common.h ****         y_ += min(pxToRemove, height_);
 198:../../libdaisy/src/hid/disp/graphics_common.h ****         height_ = max(height_ - pxToRemove, 0);
 199:../../libdaisy/src/hid/disp/graphics_common.h ****         return result;
 200:../../libdaisy/src/hid/disp/graphics_common.h ****     }
 201:../../libdaisy/src/hid/disp/graphics_common.h **** 
 202:../../libdaisy/src/hid/disp/graphics_common.h ****     Rectangle RemoveFromBottom(int16_t pxToRemove)
ARM GAS  /tmp/ccobg3TQ.s 			page 93


 203:../../libdaisy/src/hid/disp/graphics_common.h ****     {
 204:../../libdaisy/src/hid/disp/graphics_common.h ****         const auto canRemove = min(pxToRemove, height_);
 205:../../libdaisy/src/hid/disp/graphics_common.h ****         height_ -= canRemove;
 206:../../libdaisy/src/hid/disp/graphics_common.h ****         return {x_, int16_t(y_ + height_), width_, canRemove};
 207:../../libdaisy/src/hid/disp/graphics_common.h ****     }
 208:../../libdaisy/src/hid/disp/graphics_common.h **** 
 209:../../libdaisy/src/hid/disp/graphics_common.h ****     Rectangle AlignedWithin(const Rectangle& other, Alignment alignment) const
 210:../../libdaisy/src/hid/disp/graphics_common.h ****     {
 211:../../libdaisy/src/hid/disp/graphics_common.h ****         switch(alignment)
 212:../../libdaisy/src/hid/disp/graphics_common.h ****         {
 213:../../libdaisy/src/hid/disp/graphics_common.h ****             case Alignment::topLeft:
 214:../../libdaisy/src/hid/disp/graphics_common.h ****                 return {other.x_, other.y_, width_, height_};
 215:../../libdaisy/src/hid/disp/graphics_common.h ****             case Alignment::topRight:
 216:../../libdaisy/src/hid/disp/graphics_common.h ****                 return {int16_t(other.GetRight() - width_),
 217:../../libdaisy/src/hid/disp/graphics_common.h ****                         other.y_,
 218:../../libdaisy/src/hid/disp/graphics_common.h ****                         width_,
 219:../../libdaisy/src/hid/disp/graphics_common.h ****                         height_};
 220:../../libdaisy/src/hid/disp/graphics_common.h ****             case Alignment::topCentered:
 221:../../libdaisy/src/hid/disp/graphics_common.h ****                 return {int16_t(x_ + (other.GetCenterX() - GetCenterX())),
 222:../../libdaisy/src/hid/disp/graphics_common.h ****                         other.y_,
 223:../../libdaisy/src/hid/disp/graphics_common.h ****                         width_,
 224:../../libdaisy/src/hid/disp/graphics_common.h ****                         height_};
 225:../../libdaisy/src/hid/disp/graphics_common.h ****             case Alignment::bottomLeft:
 226:../../libdaisy/src/hid/disp/graphics_common.h ****                 return {other.x_,
 227:../../libdaisy/src/hid/disp/graphics_common.h ****                         int16_t(other.GetBottom() - height_),
 228:../../libdaisy/src/hid/disp/graphics_common.h ****                         width_,
 229:../../libdaisy/src/hid/disp/graphics_common.h ****                         height_};
 230:../../libdaisy/src/hid/disp/graphics_common.h ****             case Alignment::bottomRight:
 231:../../libdaisy/src/hid/disp/graphics_common.h ****                 return {int16_t(other.GetRight() - width_),
 232:../../libdaisy/src/hid/disp/graphics_common.h ****                         int16_t(other.GetBottom() - height_),
 233:../../libdaisy/src/hid/disp/graphics_common.h ****                         width_,
 234:../../libdaisy/src/hid/disp/graphics_common.h ****                         height_};
 235:../../libdaisy/src/hid/disp/graphics_common.h ****             case Alignment::bottomCentered:
 236:../../libdaisy/src/hid/disp/graphics_common.h ****                 return {int16_t(x_ + (other.GetCenterX() - GetCenterX())),
 237:../../libdaisy/src/hid/disp/graphics_common.h ****                         int16_t(other.GetBottom() - height_),
 238:../../libdaisy/src/hid/disp/graphics_common.h ****                         width_,
 239:../../libdaisy/src/hid/disp/graphics_common.h ****                         height_};
 240:../../libdaisy/src/hid/disp/graphics_common.h ****             case Alignment::centeredLeft:
 241:../../libdaisy/src/hid/disp/graphics_common.h ****                 return {other.x_,
 242:../../libdaisy/src/hid/disp/graphics_common.h ****                         int16_t(y_ + (other.GetCenterY() - GetCenterY())),
 243:../../libdaisy/src/hid/disp/graphics_common.h ****                         width_,
 244:../../libdaisy/src/hid/disp/graphics_common.h ****                         height_};
 245:../../libdaisy/src/hid/disp/graphics_common.h ****             case Alignment::centeredRight:
 246:../../libdaisy/src/hid/disp/graphics_common.h ****                 return {int16_t(other.GetRight() - width_),
 247:../../libdaisy/src/hid/disp/graphics_common.h ****                         int16_t(y_ + (other.GetCenterY() - GetCenterY())),
 248:../../libdaisy/src/hid/disp/graphics_common.h ****                         width_,
 249:../../libdaisy/src/hid/disp/graphics_common.h ****                         height_};
 250:../../libdaisy/src/hid/disp/graphics_common.h ****             case Alignment::centered:
 251:../../libdaisy/src/hid/disp/graphics_common.h ****                 return {int16_t(x_ + (other.GetCenterX() - GetCenterX())),
 252:../../libdaisy/src/hid/disp/graphics_common.h ****                         int16_t(y_ + (other.GetCenterY() - GetCenterY())),
 253:../../libdaisy/src/hid/disp/graphics_common.h ****                         width_,
 254:../../libdaisy/src/hid/disp/graphics_common.h ****                         height_};
 255:../../libdaisy/src/hid/disp/graphics_common.h ****             default: return {};
 256:../../libdaisy/src/hid/disp/graphics_common.h ****         }
 257:../../libdaisy/src/hid/disp/graphics_common.h ****     }
 258:../../libdaisy/src/hid/disp/graphics_common.h **** 
 259:../../libdaisy/src/hid/disp/graphics_common.h ****   private:
ARM GAS  /tmp/ccobg3TQ.s 			page 94


 260:../../libdaisy/src/hid/disp/graphics_common.h ****     int16_t x_, y_, width_, height_;
 261:../../libdaisy/src/hid/disp/graphics_common.h ****     int16_t max(int16_t a, int16_t b) { return (a > b) ? a : b; }
 2811              		.loc 15 261 13 view .LVU644
 2812              		.loc 15 261 13 is_stmt 0 view .LVU645
 2813              	.LBE1184:
 2814              	.LBE1183:
 2815              	.LBE1189:
 2816              	.LBE1193:
 2817              		.loc 15 261 41 is_stmt 1 view .LVU646
 2818 0038 12B2     		sxth	r2, r2
 2819 003a 22EAE272 		bic	r2, r2, r2, asr #31
 2820              	.LVL251:
 2821              	.LBB1194:
 2822              	.LBB1190:
 2823              	.LBB1186:
 2824              	.LBB1185:
 2825              	.LBI1185:
 2826              		.loc 15 261 13 view .LVU647
 2827              		.loc 15 261 13 is_stmt 0 view .LVU648
 2828              	.LBE1185:
 2829              	.LBE1186:
 2830              	.LBE1190:
 2831              	.LBE1194:
 2832              		.loc 15 261 41 is_stmt 1 view .LVU649
 2833              	.LBB1195:
 2834              	.LBI1195:
 209:../../libdaisy/src/hid/disp/graphics_common.h ****     {
 2835              		.loc 15 209 15 view .LVU650
 2836              	.LBB1196:
 211:../../libdaisy/src/hid/disp/graphics_common.h ****         {
 2837              		.loc 15 211 9 view .LVU651
 2838 003e 082B     		cmp	r3, #8
 2839 0040 00F2AD81 		bhi	.L221
 2840 0044 DFE813F0 		tbh	[pc, r3, lsl #1]
 2841              	.L223:
 2842 0048 0001     		.2byte	(.L231-.L223)/2
 2843 004a 1201     		.2byte	(.L230-.L223)/2
 2844 004c 1E01     		.2byte	(.L229-.L223)/2
 2845 004e 3201     		.2byte	(.L228-.L223)/2
 2846 0050 4001     		.2byte	(.L227-.L223)/2
 2847 0052 5001     		.2byte	(.L226-.L223)/2
 2848 0054 6B01     		.2byte	(.L225-.L223)/2
 2849 0056 7801     		.2byte	(.L224-.L223)/2
 2850 0058 0900     		.2byte	(.L222-.L223)/2
 2851              		.p2align 1
 2852              	.L222:
 245:../../libdaisy/src/hid/disp/graphics_common.h ****                 return {int16_t(other.GetRight() - width_),
 2853              		.loc 15 245 13 view .LVU652
 246:../../libdaisy/src/hid/disp/graphics_common.h ****                         int16_t(y_ + (other.GetCenterY() - GetCenterY())),
 2854              		.loc 15 246 17 view .LVU653
 2855              	.LBB1197:
 2856              	.LBI1197:
  60:../../libdaisy/src/hid/disp/graphics_common.h ****     int16_t GetBottom() const { return y_ + height_; }
 2857              		.loc 15 60 13 view .LVU654
 2858              	.LVL252:
 2859              	.LBB1198:
  60:../../libdaisy/src/hid/disp/graphics_common.h ****     int16_t GetBottom() const { return y_ + height_; }
ARM GAS  /tmp/ccobg3TQ.s 			page 95


 2860              		.loc 15 60 32 view .LVU655
  60:../../libdaisy/src/hid/disp/graphics_common.h ****     int16_t GetBottom() const { return y_ + height_; }
 2861              		.loc 15 60 42 is_stmt 0 view .LVU656
 2862 005a 3788     		ldrh	r7, [r6]
 2863 005c B088     		ldrh	r0, [r6, #4]
 2864              	.LBE1198:
 2865              	.LBE1197:
 2866              	.LBB1200:
 2867              	.LBB1201:
  63:../../libdaisy/src/hid/disp/graphics_common.h **** 
 2868              		.loc 15 63 54 view .LVU657
 2869 005e B6F90630 		ldrsh	r3, [r6, #6]
 2870              	.LVL253:
  63:../../libdaisy/src/hid/disp/graphics_common.h **** 
 2871              		.loc 15 63 54 view .LVU658
 2872              	.LBE1201:
 2873              	.LBE1200:
 2874              	.LBB1205:
 2875              	.LBB1199:
  60:../../libdaisy/src/hid/disp/graphics_common.h ****     int16_t GetBottom() const { return y_ + height_; }
 2876              		.loc 15 60 42 view .LVU659
 2877 0062 0744     		add	r7, r7, r0
 2878              	.LBE1199:
 2879              	.LBE1205:
 2880              	.LBB1206:
 2881              	.LBB1202:
  63:../../libdaisy/src/hid/disp/graphics_common.h **** 
 2882              		.loc 15 63 54 view .LVU660
 2883 0064 002B     		cmp	r3, #0
 2884              	.LBE1202:
 2885              	.LBE1206:
 246:../../libdaisy/src/hid/disp/graphics_common.h ****                         int16_t(y_ + (other.GetCenterY() - GetCenterY())),
 2886              		.loc 15 246 50 view .LVU661
 2887 0066 A7EB0207 		sub	r7, r7, r2
 2888 006a BFB2     		uxth	r7, r7
 2889              	.LBB1207:
 2890              	.LBI1200:
  63:../../libdaisy/src/hid/disp/graphics_common.h **** 
 2891              		.loc 15 63 13 is_stmt 1 view .LVU662
 2892              	.LVL254:
 2893              	.LBB1203:
  63:../../libdaisy/src/hid/disp/graphics_common.h **** 
 2894              		.loc 15 63 34 view .LVU663
  63:../../libdaisy/src/hid/disp/graphics_common.h **** 
 2895              		.loc 15 63 34 is_stmt 0 view .LVU664
 2896              	.LBE1203:
 2897              	.LBE1207:
 2898              	.LBB1208:
 2899              	.LBI1208:
  63:../../libdaisy/src/hid/disp/graphics_common.h **** 
 2900              		.loc 15 63 13 is_stmt 1 view .LVU665
 2901              	.LBB1209:
  63:../../libdaisy/src/hid/disp/graphics_common.h **** 
 2902              		.loc 15 63 34 view .LVU666
 2903              	.LBE1209:
 2904              	.LBE1208:
 2905              	.LBB1210:
ARM GAS  /tmp/ccobg3TQ.s 			page 96


 2906              	.LBB1204:
  63:../../libdaisy/src/hid/disp/graphics_common.h **** 
 2907              		.loc 15 63 54 is_stmt 0 view .LVU667
 2908 006c C0F2FC80 		blt	.L295
 2909              	.LVL255:
 2910              	.L238:
  63:../../libdaisy/src/hid/disp/graphics_common.h **** 
 2911              		.loc 15 63 54 view .LVU668
 2912              	.LBE1204:
 2913              	.LBE1210:
 2914              	.LBB1211:
 2915              	.LBB1212:
  63:../../libdaisy/src/hid/disp/graphics_common.h **** 
 2916              		.loc 15 63 44 view .LVU669
 2917 0070 B6F802C0 		ldrh	ip, [r6, #2]
 2918              	.LBE1212:
 2919              	.LBE1211:
 2920              	.LBB1218:
 2921              	.LBB1219:
 2922              	.LBB1220:
  32:../../libdaisy/src/hid/disp/graphics_common.h ****     {
 2923              		.loc 15 32 66 view .LVU670
 2924 0074 0998     		ldr	r0, [sp, #36]
 2925              	.LBE1220:
 2926              	.LBE1219:
 2927              	.LBE1218:
 2928              	.LBB1229:
 2929              	.LBB1213:
  63:../../libdaisy/src/hid/disp/graphics_common.h **** 
 2930              		.loc 15 63 44 view .LVU671
 2931 0076 0CEB6306 		add	r6, ip, r3, asr #1
 2932              	.LVL256:
  63:../../libdaisy/src/hid/disp/graphics_common.h **** 
 2933              		.loc 15 63 44 view .LVU672
 2934              	.LBE1213:
 2935              	.LBE1229:
 2936              	.LBB1230:
 2937              	.LBB1226:
 2938              	.LBB1223:
  32:../../libdaisy/src/hid/disp/graphics_common.h ****     {
 2939              		.loc 15 32 66 view .LVU673
 2940 007a 0346     		mov	r3, r0
 2941 007c 0780     		strh	r7, [r0]	@ movhi
 2942              	.L293:
  32:../../libdaisy/src/hid/disp/graphics_common.h ****     {
 2943              		.loc 15 32 66 view .LVU674
 2944 007e 8280     		strh	r2, [r0, #4]	@ movhi
 2945 0080 D980     		strh	r1, [r3, #6]	@ movhi
 2946              	.LBE1223:
 2947              	.LBE1226:
 2948              	.LBE1230:
 252:../../libdaisy/src/hid/disp/graphics_common.h ****                         width_,
 2949              		.loc 15 252 58 view .LVU675
 2950 0082 A6EB5101 		sub	r1, r6, r1, lsr #1
 2951 0086 8EB2     		uxth	r6, r1
 2952              	.LVL257:
 2953              	.LBB1231:
ARM GAS  /tmp/ccobg3TQ.s 			page 97


 2954              	.LBI1218:
  31:../../libdaisy/src/hid/disp/graphics_common.h ****     : x_(x), y_(y), width_(max(0, width)), height_(max(0, height))
 2955              		.loc 15 31 5 is_stmt 1 view .LVU676
 2956              	.LBB1227:
 2957              	.LBB1224:
  32:../../libdaisy/src/hid/disp/graphics_common.h ****     {
 2958              		.loc 15 32 66 is_stmt 0 view .LVU677
 2959 0088 5E80     		strh	r6, [r3, #2]	@ movhi
 2960              	.LVL258:
 2961              	.LBB1221:
 2962              	.LBI1221:
 2963              		.loc 15 261 13 is_stmt 1 view .LVU678
 2964              		.loc 15 261 13 is_stmt 0 view .LVU679
 2965              	.LBE1221:
 2966              	.LBE1224:
 2967              	.LBE1227:
 2968              	.LBE1231:
 2969              	.LBE1196:
 2970              	.LBE1195:
 2971              		.loc 15 261 41 is_stmt 1 view .LVU680
 2972              	.LBB1416:
 2973              	.LBB1401:
 2974              	.LBB1232:
 2975              	.LBB1228:
 2976              	.LBB1225:
 2977              	.LBB1222:
 2978              	.LBI1222:
 2979              		.loc 15 261 13 view .LVU681
 2980              		.loc 15 261 13 is_stmt 0 view .LVU682
 2981              	.LBE1222:
 2982              	.LBE1225:
 2983              	.LBE1228:
 2984              	.LBE1232:
 2985              	.LBE1401:
 2986              	.LBE1416:
 2987              		.loc 15 261 41 is_stmt 1 view .LVU683
 2988              	.L232:
  56:../../libdaisy/src/hid/disp/graphics_common.h ****     int16_t GetY() const { return y_; }
 2989              		.loc 15 56 28 view .LVU684
  57:../../libdaisy/src/hid/disp/graphics_common.h ****     int16_t GetWidth() const { return width_; }
 2990              		.loc 15 57 28 view .LVU685
 2991              	.LBB1417:
 2992              	.LBI1417:
 171:../../libdaisy/src/hid/disp/display.h ****     {
 2993              		.loc 3 171 10 view .LVU686
 2994              	.LBB1418:
 173:../../libdaisy/src/hid/disp/display.h ****         currentY_ = (y >= Height()) ? Height() - 1 : y;
 2995              		.loc 3 173 9 view .LVU687
 2996 008a B64A     		ldr	r2, .L305
 173:../../libdaisy/src/hid/disp/display.h ****         currentY_ = (y >= Height()) ? Height() - 1 : y;
 2997              		.loc 3 173 33 is_stmt 0 view .LVU688
 2998 008c 2368     		ldr	r3, [r4]
 2999 008e 1146     		mov	r1, r2
 3000 0090 0192     		str	r2, [sp, #4]
 3001 0092 DA68     		ldr	r2, [r3, #12]
 3002 0094 8A42     		cmp	r2, r1
 3003 0096 40F08F81 		bne	.L240
ARM GAS  /tmp/ccobg3TQ.s 			page 98


 3004 009a 8020     		movs	r0, #128
 3005              	.LVL259:
 3006              	.L241:
 173:../../libdaisy/src/hid/disp/display.h ****         currentY_ = (y >= Height()) ? Height() - 1 : y;
 3007              		.loc 3 173 19 view .LVU689
 3008 009c B842     		cmp	r0, r7
 3009 009e 05D8     		bhi	.L242
 173:../../libdaisy/src/hid/disp/display.h ****         currentY_ = (y >= Height()) ? Height() - 1 : y;
 3010              		.loc 3 173 44 view .LVU690
 3011 00a0 DA68     		ldr	r2, [r3, #12]
 3012 00a2 0199     		ldr	r1, [sp, #4]
 3013 00a4 8A42     		cmp	r2, r1
 3014 00a6 40F09A81 		bne	.L296
 3015 00aa 7F27     		movs	r7, #127
 3016              	.L242:
 174:../../libdaisy/src/hid/disp/display.h ****     }
 3017              		.loc 3 174 34 view .LVU691
 3018 00ac 9B68     		ldr	r3, [r3, #8]
 3019 00ae AE4A     		ldr	r2, .L305+4
 173:../../libdaisy/src/hid/disp/display.h ****         currentY_ = (y >= Height()) ? Height() - 1 : y;
 3020              		.loc 3 173 19 view .LVU692
 3021 00b0 A780     		strh	r7, [r4, #4]	@ movhi
 174:../../libdaisy/src/hid/disp/display.h ****     }
 3022              		.loc 3 174 9 is_stmt 1 view .LVU693
 3023 00b2 9342     		cmp	r3, r2
 3024 00b4 0392     		str	r2, [sp, #12]
 3025 00b6 40F08A81 		bne	.L272
 174:../../libdaisy/src/hid/disp/display.h ****     }
 3026              		.loc 3 174 34 is_stmt 0 view .LVU694
 3027 00ba 4020     		movs	r0, #64
 3028              	.L244:
 174:../../libdaisy/src/hid/disp/display.h ****     }
 3029              		.loc 3 174 19 view .LVU695
 3030 00bc B042     		cmp	r0, r6
 3031 00be 06D8     		bhi	.L246
 174:../../libdaisy/src/hid/disp/display.h ****     }
 3032              		.loc 3 174 46 view .LVU696
 3033 00c0 2368     		ldr	r3, [r4]
 3034 00c2 039A     		ldr	r2, [sp, #12]
 3035 00c4 9B68     		ldr	r3, [r3, #8]
 3036 00c6 9342     		cmp	r3, r2
 3037 00c8 40F08481 		bne	.L297
 3038 00cc 3F26     		movs	r6, #63
 3039              	.L246:
 174:../../libdaisy/src/hid/disp/display.h ****     }
 3040              		.loc 3 174 46 view .LVU697
 3041 00ce 6B78     		ldrb	r3, [r5, #1]	@ zero_extendqisi2
 174:../../libdaisy/src/hid/disp/display.h ****     }
 3042              		.loc 3 174 19 view .LVU698
 3043 00d0 E680     		strh	r6, [r4, #6]	@ movhi
 3044              	.LVL260:
 174:../../libdaisy/src/hid/disp/display.h ****     }
 3045              		.loc 3 174 19 view .LVU699
 3046 00d2 0493     		str	r3, [sp, #16]
 3047              	.LBE1418:
 3048              	.LBE1417:
 3049              	.LBB1422:
ARM GAS  /tmp/ccobg3TQ.s 			page 99


 3050              	.LBB1423:
 443:../../libdaisy/src/hid/disp/display.h ****         {
 3051              		.loc 3 443 9 view .LVU700
 3052 00d4 98F80060 		ldrb	r6, [r8]	@ zero_extendqisi2
 3053 00d8 6B68     		ldr	r3, [r5, #4]
 3054 00da 95F800B0 		ldrb	fp, [r5]	@ zero_extendqisi2
 3055              	.LVL261:
 443:../../libdaisy/src/hid/disp/display.h ****         {
 3056              		.loc 3 443 9 view .LVU701
 3057 00de 0793     		str	r3, [sp, #28]
 3058              	.LVL262:
 443:../../libdaisy/src/hid/disp/display.h ****         {
 3059              		.loc 3 443 9 view .LVU702
 3060              	.LBE1423:
 3061              	.LBI1422:
 440:../../libdaisy/src/hid/disp/display.h ****     {
 3062              		.loc 3 440 10 is_stmt 1 view .LVU703
 3063              	.LBB1466:
 443:../../libdaisy/src/hid/disp/display.h ****         {
 3064              		.loc 3 443 9 view .LVU704
 3065 00e0 002E     		cmp	r6, #0
 3066 00e2 00F0AD80 		beq	.L218
 3067              	.LVL263:
 3068              	.L248:
 3069              	.LBB1424:
 3070              	.LBI1424:
 396:../../libdaisy/src/hid/disp/display.h ****     {
 3071              		.loc 3 396 10 view .LVU705
 3072              	.LBB1425:
 401:../../libdaisy/src/hid/disp/display.h ****             return 0;
 3073              		.loc 3 401 20 is_stmt 0 view .LVU706
 3074 00e6 A6F12005 		sub	r5, r6, #32
 401:../../libdaisy/src/hid/disp/display.h ****             return 0;
 3075              		.loc 3 401 9 view .LVU707
 3076 00ea EBB2     		uxtb	r3, r5
 3077 00ec 5E2B     		cmp	r3, #94
 3078 00ee 00F23481 		bhi	.L252
 405:../../libdaisy/src/hid/disp/display.h ****            || Height() < (currentY_ + font.FontHeight))
 3079              		.loc 3 405 17 view .LVU708
 3080 00f2 2368     		ldr	r3, [r4]
 3081 00f4 019A     		ldr	r2, [sp, #4]
 3082 00f6 DB68     		ldr	r3, [r3, #12]
 3083 00f8 9342     		cmp	r3, r2
 3084 00fa 40F03081 		bne	.L298
 3085 00fe 8020     		movs	r0, #128
 3086              	.L251:
 405:../../libdaisy/src/hid/disp/display.h ****            || Height() < (currentY_ + font.FontHeight))
 3087              		.loc 3 405 23 view .LVU709
 3088 0100 A388     		ldrh	r3, [r4, #4]
 405:../../libdaisy/src/hid/disp/display.h ****            || Height() < (currentY_ + font.FontHeight))
 3089              		.loc 3 405 33 view .LVU710
 3090 0102 5B44     		add	r3, r3, fp
 406:../../libdaisy/src/hid/disp/display.h ****         {
 3091              		.loc 3 406 12 view .LVU711
 3092 0104 9842     		cmp	r0, r3
 3093 0106 C0F22881 		blt	.L252
 406:../../libdaisy/src/hid/disp/display.h ****         {
ARM GAS  /tmp/ccobg3TQ.s 			page 100


 3094              		.loc 3 406 21 view .LVU712
 3095 010a 2368     		ldr	r3, [r4]
 3096 010c 039A     		ldr	r2, [sp, #12]
 3097 010e 9B68     		ldr	r3, [r3, #8]
 3098 0110 9342     		cmp	r3, r2
 3099 0112 40F02B81 		bne	.L299
 3100 0116 4020     		movs	r0, #64
 3101              	.L253:
 406:../../libdaisy/src/hid/disp/display.h ****         {
 3102              		.loc 3 406 27 view .LVU713
 3103 0118 E188     		ldrh	r1, [r4, #6]
 406:../../libdaisy/src/hid/disp/display.h ****         {
 3104              		.loc 3 406 37 view .LVU714
 3105 011a 049A     		ldr	r2, [sp, #16]
 406:../../libdaisy/src/hid/disp/display.h ****         {
 3106              		.loc 3 406 27 view .LVU715
 3107 011c 0291     		str	r1, [sp, #8]
 406:../../libdaisy/src/hid/disp/display.h ****         {
 3108              		.loc 3 406 37 view .LVU716
 3109 011e 8B18     		adds	r3, r1, r2
 406:../../libdaisy/src/hid/disp/display.h ****         {
 3110              		.loc 3 406 12 view .LVU717
 3111 0120 9842     		cmp	r0, r3
 3112 0122 C0F21A81 		blt	.L252
 3113              	.LVL264:
 413:../../libdaisy/src/hid/disp/display.h ****         {
 3114              		.loc 3 413 22 is_stmt 1 view .LVU718
 3115 0126 1046     		mov	r0, r2
 3116 0128 002A     		cmp	r2, #0
 3117 012a 00F02981 		beq	.L254
 415:../../libdaisy/src/hid/disp/display.h ****             for(j = 0; j < font.FontWidth; j++)
 3118              		.loc 3 415 37 is_stmt 0 view .LVU719
 3119 012e 1346     		mov	r3, r2
 3120 0130 6FF00047 		mvn	r7, #-2147483648
 3121 0134 B4F804C0 		ldrh	ip, [r4, #4]
 3122 0138 03FB05F3 		mul	r3, r3, r5
 3123 013c 079D     		ldr	r5, [sp, #28]
 3124 013e CDF81880 		str	r8, [sp, #24]
 3125 0142 AA1E     		subs	r2, r5, #2
 3126 0144 1F44     		add	r7, r7, r3
 3127 0146 0344     		add	r3, r3, r0
 3128 0148 DDF82090 		ldr	r9, [sp, #32]
 3129 014c 05EB4707 		add	r7, r5, r7, lsl #1
 3130 0150 0596     		str	r6, [sp, #20]
 3131 0152 02EB4303 		add	r3, r2, r3, lsl #1
 3132 0156 2246     		mov	r2, r4
 3133 0158 5C46     		mov	r4, fp
 3134              	.LVL265:
 415:../../libdaisy/src/hid/disp/display.h ****             for(j = 0; j < font.FontWidth; j++)
 3135              		.loc 3 415 37 view .LVU720
 3136 015a 9846     		mov	r8, r3
 3137              	.LVL266:
 415:../../libdaisy/src/hid/disp/display.h ****             for(j = 0; j < font.FontWidth; j++)
 3138              		.loc 3 415 37 view .LVU721
 3139 015c 9346     		mov	fp, r2
 3140              	.LVL267:
 3141              	.L257:
ARM GAS  /tmp/ccobg3TQ.s 			page 101


 415:../../libdaisy/src/hid/disp/display.h ****             for(j = 0; j < font.FontWidth; j++)
 3142              		.loc 3 415 13 view .LVU722
 3143 015e 37F802AF 		ldrh	r10, [r7, #2]!
 3144              	.LVL268:
 416:../../libdaisy/src/hid/disp/display.h ****             {
 3145              		.loc 3 416 26 is_stmt 1 view .LVU723
 3146 0162 A4B3     		cbz	r4, .L262
 3147              	.LBB1426:
 3148              	.LBB1427:
 3149              	.LBB1428:
 3150              	.LBB1429:
 3151              	.LBB1430:
 246:../../libdaisy/src/dev/oled_ssd130x.h ****     }
 3152              		.loc 12 246 49 is_stmt 0 view .LVU724
 3153 0164 0125     		movs	r5, #1
 246:../../libdaisy/src/dev/oled_ssd130x.h ****     }
 3154              		.loc 12 246 55 view .LVU725
 3155 0166 01F00702 		and	r2, r1, #7
 246:../../libdaisy/src/dev/oled_ssd130x.h ****     }
 3156              		.loc 12 246 28 view .LVU726
 3157 016a C808     		lsrs	r0, r1, #3
 3158 016c 0CF11403 		add	r3, ip, #20
 246:../../libdaisy/src/dev/oled_ssd130x.h ****     }
 3159              		.loc 12 246 49 view .LVU727
 3160 0170 05FA02F2 		lsl	r2, r5, r2
 3161 0174 6546     		mov	r5, ip
 3162 0176 03EBC013 		add	r3, r3, r0, lsl #7
 3163              	.LBE1430:
 3164              	.LBE1429:
 3165              	.LBE1428:
 3166              	.LBE1427:
 3167              	.LBE1426:
 416:../../libdaisy/src/hid/disp/display.h ****             {
 3168              		.loc 3 416 19 view .LVU728
 3169 017a 0020     		movs	r0, #0
 3170              	.LBB1448:
 3171              	.LBB1443:
 3172              	.LBB1438:
 3173              	.LBB1434:
 3174              	.LBB1431:
 246:../../libdaisy/src/dev/oled_ssd130x.h ****     }
 3175              		.loc 12 246 42 view .LVU729
 3176 017c 52B2     		sxtb	r2, r2
 3177 017e 5B44     		add	r3, r3, fp
 3178 0180 6FEA020E 		mvn	lr, r2
 3179 0184 0EE0     		b	.L263
 3180              	.LVL269:
 3181              	.L300:
 246:../../libdaisy/src/dev/oled_ssd130x.h ****     }
 3182              		.loc 12 246 42 view .LVU730
 3183              	.LBE1431:
 3184              	.LBE1434:
 3185              	.LBE1438:
 3186              	.LBE1443:
 3187              	.LBE1448:
 3188              	.LBB1449:
 3189              	.LBI1449:
ARM GAS  /tmp/ccobg3TQ.s 			page 102


  41:../../libdaisy/src/hid/disp/oled_display.h ****     {
 3190              		.loc 2 41 10 is_stmt 1 view .LVU731
 3191              	.LBB1450:
 3192              	.LBI1450:
 239:../../libdaisy/src/dev/oled_ssd130x.h ****     {
 3193              		.loc 12 239 10 view .LVU732
 3194              	.LBB1451:
 241:../../libdaisy/src/dev/oled_ssd130x.h ****             return;
 3195              		.loc 12 241 9 is_stmt 0 view .LVU733
 3196 0186 7F2D     		cmp	r5, #127
 3197 0188 07D8     		bhi	.L259
 3198 018a 3F29     		cmp	r1, #63
 3199 018c 05D8     		bhi	.L259
 244:../../libdaisy/src/dev/oled_ssd130x.h ****         else
 3200              		.loc 12 244 42 view .LVU734
 3201 018e 1E78     		ldrb	r6, [r3]	@ zero_extendqisi2
 243:../../libdaisy/src/dev/oled_ssd130x.h ****             buffer_[x + (y / 8) * width] |= (1 << (y % 8));
 3202              		.loc 12 243 9 view .LVU735
 3203 0190 B9F1000F 		cmp	r9, #0
 3204 0194 12D0     		beq	.L261
 3205              	.L294:
 243:../../libdaisy/src/dev/oled_ssd130x.h ****             buffer_[x + (y / 8) * width] |= (1 << (y % 8));
 3206              		.loc 12 243 9 view .LVU736
 3207              	.LBE1451:
 3208              	.LBE1450:
 3209              	.LBE1449:
 3210              	.LBB1452:
 3211              	.LBB1444:
 3212              	.LBB1439:
 244:../../libdaisy/src/dev/oled_ssd130x.h ****         else
 3213              		.loc 12 244 42 view .LVU737
 3214 0196 1643     		orrs	r6, r6, r2
 244:../../libdaisy/src/dev/oled_ssd130x.h ****         else
 3215              		.loc 12 244 13 view .LVU738
 3216 0198 1E70     		strb	r6, [r3]
 3217              	.L259:
 3218              	.LBE1439:
 3219              	.LBE1444:
 3220              	.LBE1452:
 416:../../libdaisy/src/hid/disp/display.h ****             {
 3221              		.loc 3 416 13 is_stmt 1 view .LVU739
 3222 019a 0130     		adds	r0, r0, #1
 3223              	.LVL270:
 416:../../libdaisy/src/hid/disp/display.h ****             {
 3224              		.loc 3 416 26 view .LVU740
 3225 019c 0133     		adds	r3, r3, #1
 3226 019e 0135     		adds	r5, r5, #1
 3227 01a0 8442     		cmp	r4, r0
 3228 01a2 14D0     		beq	.L262
 3229              	.LVL271:
 3230              	.L263:
 418:../../libdaisy/src/hid/disp/display.h ****                 {
 3231              		.loc 3 418 23 is_stmt 0 view .LVU741
 3232 01a4 0AFA00F6 		lsl	r6, r10, r0
 418:../../libdaisy/src/hid/disp/display.h ****                 {
 3233              		.loc 3 418 17 view .LVU742
 3234 01a8 3604     		lsls	r6, r6, #16
ARM GAS  /tmp/ccobg3TQ.s 			page 103


 3235 01aa ECD4     		bmi	.L300
 3236              	.LVL272:
 3237              	.LBB1453:
 3238              	.LBI1426:
  41:../../libdaisy/src/hid/disp/oled_display.h ****     {
 3239              		.loc 2 41 10 is_stmt 1 view .LVU743
 3240              	.LBB1445:
 3241              	.LBI1427:
 239:../../libdaisy/src/dev/oled_ssd130x.h ****     {
 3242              		.loc 12 239 10 view .LVU744
 3243              	.LBB1440:
 241:../../libdaisy/src/dev/oled_ssd130x.h ****             return;
 3244              		.loc 12 241 9 is_stmt 0 view .LVU745
 3245 01ac 7F2D     		cmp	r5, #127
 3246 01ae F4D8     		bhi	.L259
 3247 01b0 3F29     		cmp	r1, #63
 3248 01b2 F2D8     		bhi	.L259
 244:../../libdaisy/src/dev/oled_ssd130x.h ****         else
 3249              		.loc 12 244 42 view .LVU746
 3250 01b4 1E78     		ldrb	r6, [r3]	@ zero_extendqisi2
 243:../../libdaisy/src/dev/oled_ssd130x.h ****             buffer_[x + (y / 8) * width] |= (1 << (y % 8));
 3251              		.loc 12 243 9 view .LVU747
 3252 01b6 B9F1000F 		cmp	r9, #0
 3253 01ba ECD0     		beq	.L294
 3254              	.L261:
 3255              	.LVL273:
 3256              	.LBB1435:
 3257              	.LBI1429:
 239:../../libdaisy/src/dev/oled_ssd130x.h ****     {
 3258              		.loc 12 239 10 is_stmt 1 view .LVU748
 239:../../libdaisy/src/dev/oled_ssd130x.h ****     {
 3259              		.loc 12 239 10 is_stmt 0 view .LVU749
 3260              	.LBE1435:
 3261              	.LBE1440:
 3262              	.LBE1445:
 3263              	.LBE1453:
 416:../../libdaisy/src/hid/disp/display.h ****             {
 3264              		.loc 3 416 13 view .LVU750
 3265 01bc 0130     		adds	r0, r0, #1
 3266              	.LVL274:
 3267              	.LBB1454:
 3268              	.LBB1446:
 3269              	.LBB1441:
 3270              	.LBB1436:
 3271              	.LBB1432:
 246:../../libdaisy/src/dev/oled_ssd130x.h ****     }
 3272              		.loc 12 246 42 view .LVU751
 3273 01be 0EEA0606 		and	r6, lr, r6
 3274 01c2 0133     		adds	r3, r3, #1
 3275 01c4 0135     		adds	r5, r5, #1
 3276              	.LBE1432:
 3277              	.LBE1436:
 3278              	.LBE1441:
 3279              	.LBE1446:
 3280              	.LBE1454:
 416:../../libdaisy/src/hid/disp/display.h ****             {
 3281              		.loc 3 416 26 view .LVU752
ARM GAS  /tmp/ccobg3TQ.s 			page 104


 3282 01c6 8442     		cmp	r4, r0
 3283              	.LBB1455:
 3284              	.LBB1447:
 3285              	.LBB1442:
 3286              	.LBB1437:
 3287              	.LBB1433:
 246:../../libdaisy/src/dev/oled_ssd130x.h ****     }
 3288              		.loc 12 246 13 view .LVU753
 3289 01c8 03F8016C 		strb	r6, [r3, #-1]
 246:../../libdaisy/src/dev/oled_ssd130x.h ****     }
 3290              		.loc 12 246 13 view .LVU754
 3291              	.LBE1433:
 3292              	.LBE1437:
 3293              	.LBE1442:
 3294              	.LBE1447:
 3295              	.LBE1455:
 416:../../libdaisy/src/hid/disp/display.h ****             {
 3296              		.loc 3 416 13 is_stmt 1 view .LVU755
 3297              	.LVL275:
 416:../../libdaisy/src/hid/disp/display.h ****             {
 3298              		.loc 3 416 26 view .LVU756
 3299 01cc EAD1     		bne	.L263
 3300              	.LVL276:
 3301              	.L262:
 413:../../libdaisy/src/hid/disp/display.h ****         {
 3302              		.loc 3 413 9 view .LVU757
 413:../../libdaisy/src/hid/disp/display.h ****         {
 3303              		.loc 3 413 22 view .LVU758
 3304 01ce B845     		cmp	r8, r7
 3305 01d0 01F10101 		add	r1, r1, #1
 3306 01d4 C3D1     		bne	.L257
 3307 01d6 5B46     		mov	r3, fp
 3308 01d8 059E     		ldr	r6, [sp, #20]
 3309 01da A346     		mov	fp, r4
 3310              	.LVL277:
 413:../../libdaisy/src/hid/disp/display.h ****         {
 3311              		.loc 3 413 22 is_stmt 0 view .LVU759
 3312 01dc DDF81880 		ldr	r8, [sp, #24]
 3313 01e0 1C46     		mov	r4, r3
 3314              	.LVL278:
 3315              	.L256:
 3316              	.LBB1456:
 3317              	.LBB1457:
 173:../../libdaisy/src/hid/disp/display.h ****         currentY_ = (y >= Height()) ? Height() - 1 : y;
 3318              		.loc 3 173 33 view .LVU760
 3319 01e2 2268     		ldr	r2, [r4]
 3320              	.LBE1457:
 3321              	.LBE1456:
 434:../../libdaisy/src/hid/disp/display.h **** 
 3322              		.loc 3 434 18 view .LVU761
 3323 01e4 DC44     		add	ip, ip, fp
 3324 01e6 0199     		ldr	r1, [sp, #4]
 3325              	.LBB1461:
 3326              	.LBB1458:
 173:../../libdaisy/src/hid/disp/display.h ****         currentY_ = (y >= Height()) ? Height() - 1 : y;
 3327              		.loc 3 173 33 view .LVU762
 3328 01e8 D368     		ldr	r3, [r2, #12]
ARM GAS  /tmp/ccobg3TQ.s 			page 105


 3329              	.LBE1458:
 3330              	.LBE1461:
 434:../../libdaisy/src/hid/disp/display.h **** 
 3331              		.loc 3 434 18 view .LVU763
 3332 01ea 1FFA8CF5 		uxth	r5, ip
 3333              	.LVL279:
 3334              	.LBB1462:
 3335              	.LBI1456:
 171:../../libdaisy/src/hid/disp/display.h ****     {
 3336              		.loc 3 171 10 is_stmt 1 view .LVU764
 3337              	.LBB1459:
 173:../../libdaisy/src/hid/disp/display.h ****         currentY_ = (y >= Height()) ? Height() - 1 : y;
 3338              		.loc 3 173 9 view .LVU765
 3339 01ee 8B42     		cmp	r3, r1
 3340 01f0 40F0C280 		bne	.L301
 173:../../libdaisy/src/hid/disp/display.h ****         currentY_ = (y >= Height()) ? Height() - 1 : y;
 3341              		.loc 3 173 33 is_stmt 0 view .LVU766
 3342 01f4 8020     		movs	r0, #128
 3343              	.L264:
 173:../../libdaisy/src/hid/disp/display.h ****         currentY_ = (y >= Height()) ? Height() - 1 : y;
 3344              		.loc 3 173 19 view .LVU767
 3345 01f6 8542     		cmp	r5, r0
 3346 01f8 05D3     		bcc	.L265
 173:../../libdaisy/src/hid/disp/display.h ****         currentY_ = (y >= Height()) ? Height() - 1 : y;
 3347              		.loc 3 173 44 view .LVU768
 3348 01fa D368     		ldr	r3, [r2, #12]
 3349 01fc 0199     		ldr	r1, [sp, #4]
 3350 01fe 8B42     		cmp	r3, r1
 3351 0200 40F0C780 		bne	.L302
 3352 0204 7F25     		movs	r5, #127
 3353              	.LVL280:
 3354              	.L265:
 174:../../libdaisy/src/hid/disp/display.h ****     }
 3355              		.loc 3 174 34 view .LVU769
 3356 0206 9368     		ldr	r3, [r2, #8]
 3357 0208 039A     		ldr	r2, [sp, #12]
 173:../../libdaisy/src/hid/disp/display.h ****         currentY_ = (y >= Height()) ? Height() - 1 : y;
 3358              		.loc 3 173 19 view .LVU770
 3359 020a A580     		strh	r5, [r4, #4]	@ movhi
 174:../../libdaisy/src/hid/disp/display.h ****     }
 3360              		.loc 3 174 9 is_stmt 1 view .LVU771
 3361 020c 9342     		cmp	r3, r2
 3362 020e 40F0B080 		bne	.L303
 174:../../libdaisy/src/hid/disp/display.h ****     }
 3363              		.loc 3 174 34 is_stmt 0 view .LVU772
 3364 0212 4020     		movs	r0, #64
 3365              	.L267:
 174:../../libdaisy/src/hid/disp/display.h ****     }
 3366              		.loc 3 174 19 view .LVU773
 3367 0214 029B     		ldr	r3, [sp, #8]
 3368 0216 8342     		cmp	r3, r0
 3369 0218 07D3     		bcc	.L268
 174:../../libdaisy/src/hid/disp/display.h ****     }
 3370              		.loc 3 174 46 view .LVU774
 3371 021a 2368     		ldr	r3, [r4]
 3372 021c 039A     		ldr	r2, [sp, #12]
 3373 021e 9B68     		ldr	r3, [r3, #8]
ARM GAS  /tmp/ccobg3TQ.s 			page 106


 3374 0220 9342     		cmp	r3, r2
 3375 0222 40F0B080 		bne	.L304
 3376 0226 3F23     		movs	r3, #63
 3377 0228 0293     		str	r3, [sp, #8]
 3378              	.LVL281:
 3379              	.L268:
 174:../../libdaisy/src/hid/disp/display.h ****     }
 3380              		.loc 3 174 19 view .LVU775
 3381 022a 029B     		ldr	r3, [sp, #8]
 3382 022c E380     		strh	r3, [r4, #6]	@ movhi
 3383              	.LVL282:
 3384              	.L250:
 174:../../libdaisy/src/hid/disp/display.h ****     }
 3385              		.loc 3 174 19 view .LVU776
 3386              	.LBE1459:
 3387              	.LBE1462:
 3388              	.LBE1425:
 3389              	.LBE1424:
 445:../../libdaisy/src/hid/disp/display.h ****                != *str)
 3390              		.loc 3 445 13 view .LVU777
 3391 022e 98F80030 		ldrb	r3, [r8]	@ zero_extendqisi2
 3392 0232 B342     		cmp	r3, r6
 3393 0234 04D1     		bne	.L218
 3394              	.LVL283:
 443:../../libdaisy/src/hid/disp/display.h ****         {
 3395              		.loc 3 443 9 is_stmt 1 view .LVU778
 3396 0236 18F8016F 		ldrb	r6, [r8, #1]!	@ zero_extendqisi2
 3397              	.LVL284:
 443:../../libdaisy/src/hid/disp/display.h ****         {
 3398              		.loc 3 443 9 is_stmt 0 view .LVU779
 3399 023a 002E     		cmp	r6, #0
 3400 023c 7FF453AF 		bne	.L248
 3401              	.LVL285:
 3402              	.L218:
 443:../../libdaisy/src/hid/disp/display.h ****         {
 3403              		.loc 3 443 9 view .LVU780
 3404              	.LBE1466:
 3405              	.LBE1422:
 471:../../libdaisy/src/hid/disp/display.h **** 
 3406              		.loc 3 471 5 view .LVU781
 3407 0240 0998     		ldr	r0, [sp, #36]
 3408 0242 0BB0     		add	sp, sp, #44
 3409              		.cfi_remember_state
 3410              		.cfi_def_cfa_offset 36
 3411              		@ sp needed
 3412 0244 BDE8F08F 		pop	{r4, r5, r6, r7, r8, r9, r10, fp, pc}
 3413              	.LVL286:
 3414              	.L231:
 3415              		.cfi_restore_state
 3416              	.LBB1468:
 3417              	.LBB1402:
 250:../../libdaisy/src/hid/disp/graphics_common.h ****                 return {int16_t(x_ + (other.GetCenterX() - GetCenterX())),
 3418              		.loc 15 250 13 is_stmt 1 view .LVU782
 251:../../libdaisy/src/hid/disp/graphics_common.h ****                         int16_t(y_ + (other.GetCenterY() - GetCenterY())),
 3419              		.loc 15 251 17 view .LVU783
 3420              	.LBB1233:
 3421              	.LBI1233:
ARM GAS  /tmp/ccobg3TQ.s 			page 107


  62:../../libdaisy/src/hid/disp/graphics_common.h ****     int16_t GetCenterY() const { return y_ + height_ / 2; }
 3422              		.loc 15 62 13 view .LVU784
 3423              	.LBB1234:
  62:../../libdaisy/src/hid/disp/graphics_common.h ****     int16_t GetCenterY() const { return y_ + height_ / 2; }
 3424              		.loc 15 62 34 view .LVU785
  62:../../libdaisy/src/hid/disp/graphics_common.h ****     int16_t GetCenterY() const { return y_ + height_ / 2; }
 3425              		.loc 15 62 34 is_stmt 0 view .LVU786
 3426              	.LBE1234:
 3427              	.LBE1233:
 3428              	.LBB1238:
 3429              	.LBI1238:
  62:../../libdaisy/src/hid/disp/graphics_common.h ****     int16_t GetCenterY() const { return y_ + height_ / 2; }
 3430              		.loc 15 62 13 is_stmt 1 view .LVU787
 3431              	.LBB1239:
  62:../../libdaisy/src/hid/disp/graphics_common.h ****     int16_t GetCenterY() const { return y_ + height_ / 2; }
 3432              		.loc 15 62 34 view .LVU788
 3433              	.LBE1239:
 3434              	.LBE1238:
 3435              	.LBB1240:
 3436              	.LBB1235:
  62:../../libdaisy/src/hid/disp/graphics_common.h ****     int16_t GetCenterY() const { return y_ + height_ / 2; }
 3437              		.loc 15 62 53 is_stmt 0 view .LVU789
 3438 0248 B6F90400 		ldrsh	r0, [r6, #4]
  62:../../libdaisy/src/hid/disp/graphics_common.h ****     int16_t GetCenterY() const { return y_ + height_ / 2; }
 3439              		.loc 15 62 44 view .LVU790
 3440 024c 3788     		ldrh	r7, [r6]
  62:../../libdaisy/src/hid/disp/graphics_common.h ****     int16_t GetCenterY() const { return y_ + height_ / 2; }
 3441              		.loc 15 62 53 view .LVU791
 3442 024e 0028     		cmp	r0, #0
 3443              	.LBE1235:
 3444              	.LBE1240:
 3445              	.LBB1241:
 3446              	.LBB1214:
  63:../../libdaisy/src/hid/disp/graphics_common.h **** 
 3447              		.loc 15 63 54 view .LVU792
 3448 0250 B6F90630 		ldrsh	r3, [r6, #6]
 3449              	.LVL287:
  63:../../libdaisy/src/hid/disp/graphics_common.h **** 
 3450              		.loc 15 63 54 view .LVU793
 3451              	.LBE1214:
 3452              	.LBE1241:
 3453              	.LBB1242:
 3454              	.LBB1236:
  62:../../libdaisy/src/hid/disp/graphics_common.h ****     int16_t GetCenterY() const { return y_ + height_ / 2; }
 3455              		.loc 15 62 53 view .LVU794
 3456 0254 B8BF     		it	lt
 3457 0256 0130     		addlt	r0, r0, #1
 3458              	.LBE1236:
 3459              	.LBE1242:
 3460              	.LBB1243:
 3461              	.LBB1215:
  63:../../libdaisy/src/hid/disp/graphics_common.h **** 
 3462              		.loc 15 63 54 view .LVU795
 3463 0258 002B     		cmp	r3, #0
 3464              	.LBE1215:
 3465              	.LBE1243:
 3466              	.LBB1244:
ARM GAS  /tmp/ccobg3TQ.s 			page 108


 3467              	.LBB1237:
  62:../../libdaisy/src/hid/disp/graphics_common.h ****     int16_t GetCenterY() const { return y_ + height_ / 2; }
 3468              		.loc 15 62 44 view .LVU796
 3469 025a 07EB6007 		add	r7, r7, r0, asr #1
 3470              	.LBE1237:
 3471              	.LBE1244:
 251:../../libdaisy/src/hid/disp/graphics_common.h ****                         int16_t(y_ + (other.GetCenterY() - GetCenterY())),
 3472              		.loc 15 251 58 view .LVU797
 3473 025e A7EB6207 		sub	r7, r7, r2, asr #1
 3474 0262 BFB2     		uxth	r7, r7
 3475              	.LBB1245:
 3476              	.LBI1211:
  63:../../libdaisy/src/hid/disp/graphics_common.h **** 
 3477              		.loc 15 63 13 is_stmt 1 view .LVU798
 3478              	.LVL288:
 3479              	.LBB1216:
  63:../../libdaisy/src/hid/disp/graphics_common.h **** 
 3480              		.loc 15 63 34 view .LVU799
  63:../../libdaisy/src/hid/disp/graphics_common.h **** 
 3481              		.loc 15 63 34 is_stmt 0 view .LVU800
 3482              	.LBE1216:
 3483              	.LBE1245:
 3484              	.LBB1246:
 3485              	.LBI1246:
  63:../../libdaisy/src/hid/disp/graphics_common.h **** 
 3486              		.loc 15 63 13 is_stmt 1 view .LVU801
 3487              	.LBB1247:
  63:../../libdaisy/src/hid/disp/graphics_common.h **** 
 3488              		.loc 15 63 34 view .LVU802
 3489              	.LBE1247:
 3490              	.LBE1246:
 3491              	.LBB1248:
 3492              	.LBB1217:
  63:../../libdaisy/src/hid/disp/graphics_common.h **** 
 3493              		.loc 15 63 54 is_stmt 0 view .LVU803
 3494 0264 BFF604AF 		bge	.L238
 3495              	.LVL289:
 3496              	.L295:
  63:../../libdaisy/src/hid/disp/graphics_common.h **** 
 3497              		.loc 15 63 54 view .LVU804
 3498 0268 0133     		adds	r3, r3, #1
 3499 026a 01E7     		b	.L238
 3500              	.LVL290:
 3501              	.L230:
  63:../../libdaisy/src/hid/disp/graphics_common.h **** 
 3502              		.loc 15 63 54 view .LVU805
 3503              	.LBE1217:
 3504              	.LBE1248:
 213:../../libdaisy/src/hid/disp/graphics_common.h ****                 return {other.x_, other.y_, width_, height_};
 3505              		.loc 15 213 13 is_stmt 1 view .LVU806
 214:../../libdaisy/src/hid/disp/graphics_common.h ****             case Alignment::topRight:
 3506              		.loc 15 214 17 view .LVU807
 214:../../libdaisy/src/hid/disp/graphics_common.h ****             case Alignment::topRight:
 3507              		.loc 15 214 31 is_stmt 0 view .LVU808
 3508 026c B6F90070 		ldrsh	r7, [r6]
 3509              	.LBB1249:
 3510              	.LBB1250:
ARM GAS  /tmp/ccobg3TQ.s 			page 109


 3511              	.LBB1251:
  32:../../libdaisy/src/hid/disp/graphics_common.h ****     {
 3512              		.loc 15 32 66 view .LVU809
 3513 0270 099B     		ldr	r3, [sp, #36]
 3514              	.LVL291:
  32:../../libdaisy/src/hid/disp/graphics_common.h ****     {
 3515              		.loc 15 32 66 view .LVU810
 3516              	.LBE1251:
 3517              	.LBE1250:
 3518              	.LBE1249:
 214:../../libdaisy/src/hid/disp/graphics_common.h ****             case Alignment::topRight:
 3519              		.loc 15 214 41 view .LVU811
 3520 0272 B6F90260 		ldrsh	r6, [r6, #2]
 3521              	.LVL292:
 3522              	.LBB1260:
 3523              	.LBI1249:
  31:../../libdaisy/src/hid/disp/graphics_common.h ****     : x_(x), y_(y), width_(max(0, width)), height_(max(0, height))
 3524              		.loc 15 31 5 is_stmt 1 view .LVU812
 3525              	.LBB1257:
 3526              	.LBB1254:
  32:../../libdaisy/src/hid/disp/graphics_common.h ****     {
 3527              		.loc 15 32 66 is_stmt 0 view .LVU813
 3528 0276 1F80     		strh	r7, [r3]	@ movhi
 3529 0278 BFB2     		uxth	r7, r7
 3530              	.LVL293:
  32:../../libdaisy/src/hid/disp/graphics_common.h ****     {
 3531              		.loc 15 32 66 view .LVU814
 3532 027a 5E80     		strh	r6, [r3, #2]	@ movhi
 3533              	.LVL294:
 3534              	.LBB1252:
 3535              	.LBI1252:
 3536              		.loc 15 261 13 is_stmt 1 view .LVU815
 3537              		.loc 15 261 13 is_stmt 0 view .LVU816
 3538              	.LBE1252:
 3539              	.LBE1254:
 3540              	.LBE1257:
 3541              	.LBE1260:
 3542              	.LBE1402:
 3543              	.LBE1468:
 3544              		.loc 15 261 41 is_stmt 1 view .LVU817
 3545              		.loc 15 261 41 is_stmt 0 view .LVU818
 3546 027c B6B2     		uxth	r6, r6
 3547              	.LVL295:
 3548              	.LBB1469:
 3549              	.LBB1403:
 3550              	.LBB1261:
 3551              	.LBB1258:
 3552              	.LBB1255:
  32:../../libdaisy/src/hid/disp/graphics_common.h ****     {
 3553              		.loc 15 32 66 view .LVU819
 3554 027e 9A80     		strh	r2, [r3, #4]	@ movhi
 3555              	.LVL296:
 3556              	.LBB1253:
 3557              	.LBI1253:
 3558              		.loc 15 261 13 is_stmt 1 view .LVU820
 3559              		.loc 15 261 13 is_stmt 0 view .LVU821
 3560              	.LBE1253:
ARM GAS  /tmp/ccobg3TQ.s 			page 110


 3561              	.LBE1255:
 3562              	.LBE1258:
 3563              	.LBE1261:
 3564              	.LBE1403:
 3565              	.LBE1469:
 3566              		.loc 15 261 41 is_stmt 1 view .LVU822
 3567              	.LBB1470:
 3568              	.LBB1404:
 3569              	.LBB1262:
 3570              	.LBB1259:
 3571              	.LBB1256:
  32:../../libdaisy/src/hid/disp/graphics_common.h ****     {
 3572              		.loc 15 32 66 is_stmt 0 view .LVU823
 3573 0280 D980     		strh	r1, [r3, #6]	@ movhi
 3574              	.LBE1256:
  34:../../libdaisy/src/hid/disp/graphics_common.h **** 
 3575              		.loc 15 34 5 view .LVU824
 3576 0282 02E7     		b	.L232
 3577              	.LVL297:
 3578              	.L229:
  34:../../libdaisy/src/hid/disp/graphics_common.h **** 
 3579              		.loc 15 34 5 view .LVU825
 3580              	.LBE1259:
 3581              	.LBE1262:
 220:../../libdaisy/src/hid/disp/graphics_common.h ****                 return {int16_t(x_ + (other.GetCenterX() - GetCenterX())),
 3582              		.loc 15 220 13 is_stmt 1 view .LVU826
 221:../../libdaisy/src/hid/disp/graphics_common.h ****                         other.y_,
 3583              		.loc 15 221 17 view .LVU827
 3584              	.LBB1263:
 3585              	.LBI1263:
  62:../../libdaisy/src/hid/disp/graphics_common.h ****     int16_t GetCenterY() const { return y_ + height_ / 2; }
 3586              		.loc 15 62 13 view .LVU828
 3587              	.LBB1264:
  62:../../libdaisy/src/hid/disp/graphics_common.h ****     int16_t GetCenterY() const { return y_ + height_ / 2; }
 3588              		.loc 15 62 34 view .LVU829
  62:../../libdaisy/src/hid/disp/graphics_common.h ****     int16_t GetCenterY() const { return y_ + height_ / 2; }
 3589              		.loc 15 62 34 is_stmt 0 view .LVU830
 3590              	.LBE1264:
 3591              	.LBE1263:
 3592              	.LBB1267:
 3593              	.LBI1267:
  62:../../libdaisy/src/hid/disp/graphics_common.h ****     int16_t GetCenterY() const { return y_ + height_ / 2; }
 3594              		.loc 15 62 13 is_stmt 1 view .LVU831
 3595              	.LBB1268:
  62:../../libdaisy/src/hid/disp/graphics_common.h ****     int16_t GetCenterY() const { return y_ + height_ / 2; }
 3596              		.loc 15 62 34 view .LVU832
 3597              	.LBE1268:
 3598              	.LBE1267:
 3599              	.LBB1269:
 3600              	.LBB1265:
  62:../../libdaisy/src/hid/disp/graphics_common.h ****     int16_t GetCenterY() const { return y_ + height_ / 2; }
 3601              		.loc 15 62 53 is_stmt 0 view .LVU833
 3602 0284 B6F90430 		ldrsh	r3, [r6, #4]
 3603              	.LVL298:
  62:../../libdaisy/src/hid/disp/graphics_common.h ****     int16_t GetCenterY() const { return y_ + height_ / 2; }
 3604              		.loc 15 62 44 view .LVU834
 3605 0288 3788     		ldrh	r7, [r6]
ARM GAS  /tmp/ccobg3TQ.s 			page 111


  62:../../libdaisy/src/hid/disp/graphics_common.h ****     int16_t GetCenterY() const { return y_ + height_ / 2; }
 3606              		.loc 15 62 53 view .LVU835
 3607 028a 002B     		cmp	r3, #0
 3608              	.LBE1265:
 3609              	.LBE1269:
 222:../../libdaisy/src/hid/disp/graphics_common.h ****                         width_,
 3610              		.loc 15 222 31 view .LVU836
 3611 028c B6F90260 		ldrsh	r6, [r6, #2]
 3612              	.LVL299:
 3613              	.LBB1270:
 3614              	.LBB1266:
  62:../../libdaisy/src/hid/disp/graphics_common.h ****     int16_t GetCenterY() const { return y_ + height_ / 2; }
 3615              		.loc 15 62 53 view .LVU837
 3616 0290 B8BF     		it	lt
 3617 0292 0133     		addlt	r3, r3, #1
  62:../../libdaisy/src/hid/disp/graphics_common.h ****     int16_t GetCenterY() const { return y_ + height_ / 2; }
 3618              		.loc 15 62 44 view .LVU838
 3619 0294 07EB6307 		add	r7, r7, r3, asr #1
 3620              	.LBE1266:
 3621              	.LBE1270:
 3622              	.LBB1271:
 3623              	.LBB1272:
 3624              	.LBB1273:
  32:../../libdaisy/src/hid/disp/graphics_common.h ****     {
 3625              		.loc 15 32 66 view .LVU839
 3626 0298 099B     		ldr	r3, [sp, #36]
 3627 029a 9A80     		strh	r2, [r3, #4]	@ movhi
 3628              	.LBE1273:
 3629              	.LBE1272:
 3630              	.LBE1271:
 221:../../libdaisy/src/hid/disp/graphics_common.h ****                         other.y_,
 3631              		.loc 15 221 58 view .LVU840
 3632 029c A7EB6202 		sub	r2, r7, r2, asr #1
 3633              	.LBB1284:
 3634              	.LBB1280:
 3635              	.LBB1276:
  32:../../libdaisy/src/hid/disp/graphics_common.h ****     {
 3636              		.loc 15 32 66 view .LVU841
 3637 02a0 5E80     		strh	r6, [r3, #2]	@ movhi
 3638 02a2 B6B2     		uxth	r6, r6
 3639              	.LBE1276:
 3640              	.LBE1280:
 3641              	.LBE1284:
 221:../../libdaisy/src/hid/disp/graphics_common.h ****                         other.y_,
 3642              		.loc 15 221 58 view .LVU842
 3643 02a4 97B2     		uxth	r7, r2
 3644              	.LVL300:
 3645              	.LBB1285:
 3646              	.LBI1271:
  31:../../libdaisy/src/hid/disp/graphics_common.h ****     : x_(x), y_(y), width_(max(0, width)), height_(max(0, height))
 3647              		.loc 15 31 5 is_stmt 1 view .LVU843
 3648              	.LBB1281:
 3649              	.LBB1277:
 3650              	.LBB1274:
 3651              	.LBI1274:
 3652              		.loc 15 261 13 view .LVU844
 3653              		.loc 15 261 13 is_stmt 0 view .LVU845
ARM GAS  /tmp/ccobg3TQ.s 			page 112


 3654              	.LBE1274:
 3655              	.LBE1277:
 3656              	.LBE1281:
 3657              	.LBE1285:
 3658              	.LBE1404:
 3659              	.LBE1470:
 3660              		.loc 15 261 41 is_stmt 1 view .LVU846
 3661              	.LBB1471:
 3662              	.LBB1405:
 3663              	.LBB1286:
 3664              	.LBB1282:
 3665              	.LBB1278:
 3666              	.LBB1275:
 3667              	.LBI1275:
 3668              		.loc 15 261 13 view .LVU847
 3669              		.loc 15 261 13 is_stmt 0 view .LVU848
 3670              	.LBE1275:
 3671              	.LBE1278:
 3672              	.LBE1282:
 3673              	.LBE1286:
 3674              	.LBE1405:
 3675              	.LBE1471:
 3676              		.loc 15 261 41 is_stmt 1 view .LVU849
 3677              	.LBB1472:
 3678              	.LBB1406:
 3679              	.LBB1287:
 3680              	.LBB1283:
 3681              	.LBB1279:
  32:../../libdaisy/src/hid/disp/graphics_common.h ****     {
 3682              		.loc 15 32 66 is_stmt 0 view .LVU850
 3683 02a6 D980     		strh	r1, [r3, #6]	@ movhi
 3684 02a8 1F80     		strh	r7, [r3]	@ movhi
 3685              	.LBE1279:
  34:../../libdaisy/src/hid/disp/graphics_common.h **** 
 3686              		.loc 15 34 5 view .LVU851
 3687 02aa EEE6     		b	.L232
 3688              	.LVL301:
 3689              	.L228:
  34:../../libdaisy/src/hid/disp/graphics_common.h **** 
 3690              		.loc 15 34 5 view .LVU852
 3691              	.LBE1283:
 3692              	.LBE1287:
 215:../../libdaisy/src/hid/disp/graphics_common.h ****                 return {int16_t(other.GetRight() - width_),
 3693              		.loc 15 215 13 is_stmt 1 view .LVU853
 216:../../libdaisy/src/hid/disp/graphics_common.h ****                         other.y_,
 3694              		.loc 15 216 17 view .LVU854
 3695              	.LBB1288:
 3696              	.LBI1288:
  60:../../libdaisy/src/hid/disp/graphics_common.h ****     int16_t GetBottom() const { return y_ + height_; }
 3697              		.loc 15 60 13 view .LVU855
 3698              	.LBB1289:
  60:../../libdaisy/src/hid/disp/graphics_common.h ****     int16_t GetBottom() const { return y_ + height_; }
 3699              		.loc 15 60 32 view .LVU856
  60:../../libdaisy/src/hid/disp/graphics_common.h ****     int16_t GetBottom() const { return y_ + height_; }
 3700              		.loc 15 60 42 is_stmt 0 view .LVU857
 3701 02ac B388     		ldrh	r3, [r6, #4]
 3702              	.LVL302:
ARM GAS  /tmp/ccobg3TQ.s 			page 113


  60:../../libdaisy/src/hid/disp/graphics_common.h ****     int16_t GetBottom() const { return y_ + height_; }
 3703              		.loc 15 60 42 view .LVU858
 3704 02ae 3788     		ldrh	r7, [r6]
 3705              	.LBE1289:
 3706              	.LBE1288:
 217:../../libdaisy/src/hid/disp/graphics_common.h ****                         width_,
 3707              		.loc 15 217 31 view .LVU859
 3708 02b0 B6F90260 		ldrsh	r6, [r6, #2]
 3709              	.LVL303:
 3710              	.LBB1291:
 3711              	.LBB1290:
  60:../../libdaisy/src/hid/disp/graphics_common.h ****     int16_t GetBottom() const { return y_ + height_; }
 3712              		.loc 15 60 42 view .LVU860
 3713 02b4 1F44     		add	r7, r7, r3
 3714              	.LBE1290:
 3715              	.LBE1291:
 3716              	.LBB1292:
 3717              	.LBB1293:
 3718              	.LBB1294:
  32:../../libdaisy/src/hid/disp/graphics_common.h ****     {
 3719              		.loc 15 32 66 view .LVU861
 3720 02b6 099B     		ldr	r3, [sp, #36]
 3721 02b8 9A80     		strh	r2, [r3, #4]	@ movhi
 3722              	.LBE1294:
 3723              	.LBE1293:
 3724              	.LBE1292:
 216:../../libdaisy/src/hid/disp/graphics_common.h ****                         other.y_,
 3725              		.loc 15 216 50 view .LVU862
 3726 02ba BA1A     		subs	r2, r7, r2
 3727              	.LBB1305:
 3728              	.LBB1301:
 3729              	.LBB1297:
  32:../../libdaisy/src/hid/disp/graphics_common.h ****     {
 3730              		.loc 15 32 66 view .LVU863
 3731 02bc 5E80     		strh	r6, [r3, #2]	@ movhi
 3732 02be B6B2     		uxth	r6, r6
 3733              	.LBE1297:
 3734              	.LBE1301:
 3735              	.LBE1305:
 216:../../libdaisy/src/hid/disp/graphics_common.h ****                         other.y_,
 3736              		.loc 15 216 50 view .LVU864
 3737 02c0 97B2     		uxth	r7, r2
 3738              	.LVL304:
 3739              	.LBB1306:
 3740              	.LBI1292:
  31:../../libdaisy/src/hid/disp/graphics_common.h ****     : x_(x), y_(y), width_(max(0, width)), height_(max(0, height))
 3741              		.loc 15 31 5 is_stmt 1 view .LVU865
 3742              	.LBB1302:
 3743              	.LBB1298:
 3744              	.LBB1295:
 3745              	.LBI1295:
 3746              		.loc 15 261 13 view .LVU866
 3747              		.loc 15 261 13 is_stmt 0 view .LVU867
 3748              	.LBE1295:
 3749              	.LBE1298:
 3750              	.LBE1302:
 3751              	.LBE1306:
ARM GAS  /tmp/ccobg3TQ.s 			page 114


 3752              	.LBE1406:
 3753              	.LBE1472:
 3754              		.loc 15 261 41 is_stmt 1 view .LVU868
 3755              	.LBB1473:
 3756              	.LBB1407:
 3757              	.LBB1307:
 3758              	.LBB1303:
 3759              	.LBB1299:
 3760              	.LBB1296:
 3761              	.LBI1296:
 3762              		.loc 15 261 13 view .LVU869
 3763              		.loc 15 261 13 is_stmt 0 view .LVU870
 3764              	.LBE1296:
 3765              	.LBE1299:
 3766              	.LBE1303:
 3767              	.LBE1307:
 3768              	.LBE1407:
 3769              	.LBE1473:
 3770              		.loc 15 261 41 is_stmt 1 view .LVU871
 3771              	.LBB1474:
 3772              	.LBB1408:
 3773              	.LBB1308:
 3774              	.LBB1304:
 3775              	.LBB1300:
  32:../../libdaisy/src/hid/disp/graphics_common.h ****     {
 3776              		.loc 15 32 66 is_stmt 0 view .LVU872
 3777 02c2 D980     		strh	r1, [r3, #6]	@ movhi
 3778 02c4 1F80     		strh	r7, [r3]	@ movhi
 3779              	.LBE1300:
  34:../../libdaisy/src/hid/disp/graphics_common.h **** 
 3780              		.loc 15 34 5 view .LVU873
 3781 02c6 E0E6     		b	.L232
 3782              	.LVL305:
 3783              	.L227:
  34:../../libdaisy/src/hid/disp/graphics_common.h **** 
 3784              		.loc 15 34 5 view .LVU874
 3785              	.LBE1304:
 3786              	.LBE1308:
 225:../../libdaisy/src/hid/disp/graphics_common.h ****                 return {other.x_,
 3787              		.loc 15 225 13 is_stmt 1 view .LVU875
 226:../../libdaisy/src/hid/disp/graphics_common.h ****                         int16_t(other.GetBottom() - height_),
 3788              		.loc 15 226 17 view .LVU876
 3789              	.LBB1309:
 3790              	.LBB1310:
  61:../../libdaisy/src/hid/disp/graphics_common.h ****     int16_t GetCenterX() const { return x_ + width_ / 2; }
 3791              		.loc 15 61 43 is_stmt 0 view .LVU877
 3792 02c8 7388     		ldrh	r3, [r6, #2]
 3793              	.LVL306:
  61:../../libdaisy/src/hid/disp/graphics_common.h ****     int16_t GetCenterX() const { return x_ + width_ / 2; }
 3794              		.loc 15 61 43 view .LVU878
 3795 02ca B6F806C0 		ldrh	ip, [r6, #6]
 3796              	.LBE1310:
 3797              	.LBE1309:
 226:../../libdaisy/src/hid/disp/graphics_common.h ****                         int16_t(other.GetBottom() - height_),
 3798              		.loc 15 226 31 view .LVU879
 3799 02ce B6F90070 		ldrsh	r7, [r6]
 3800              	.LBB1312:
ARM GAS  /tmp/ccobg3TQ.s 			page 115


 3801              	.LBI1309:
  61:../../libdaisy/src/hid/disp/graphics_common.h ****     int16_t GetCenterX() const { return x_ + width_ / 2; }
 3802              		.loc 15 61 13 is_stmt 1 view .LVU880
 3803              	.LVL307:
 3804              	.LBB1311:
  61:../../libdaisy/src/hid/disp/graphics_common.h ****     int16_t GetCenterX() const { return x_ + width_ / 2; }
 3805              		.loc 15 61 33 view .LVU881
  61:../../libdaisy/src/hid/disp/graphics_common.h ****     int16_t GetCenterX() const { return x_ + width_ / 2; }
 3806              		.loc 15 61 43 is_stmt 0 view .LVU882
 3807 02d2 9C44     		add	ip, ip, r3
 3808              	.LBE1311:
 3809              	.LBE1312:
 3810              	.LBB1313:
 3811              	.LBB1314:
 3812              	.LBB1315:
  32:../../libdaisy/src/hid/disp/graphics_common.h ****     {
 3813              		.loc 15 32 66 view .LVU883
 3814 02d4 099B     		ldr	r3, [sp, #36]
 3815              	.LBE1315:
 3816              	.LBE1314:
 3817              	.LBE1313:
 227:../../libdaisy/src/hid/disp/graphics_common.h ****                         width_,
 3818              		.loc 15 227 51 view .LVU884
 3819 02d6 ACEB0000 		sub	r0, ip, r0
 3820              	.LBB1325:
 3821              	.LBB1321:
 3822              	.LBB1318:
  32:../../libdaisy/src/hid/disp/graphics_common.h ****     {
 3823              		.loc 15 32 66 view .LVU885
 3824 02da 1F80     		strh	r7, [r3]	@ movhi
 3825 02dc 9A80     		strh	r2, [r3, #4]	@ movhi
 3826 02de BFB2     		uxth	r7, r7
 3827              	.LBE1318:
 3828              	.LBE1321:
 3829              	.LBE1325:
 227:../../libdaisy/src/hid/disp/graphics_common.h ****                         width_,
 3830              		.loc 15 227 51 view .LVU886
 3831 02e0 86B2     		uxth	r6, r0
 3832              	.LVL308:
 3833              	.LBB1326:
 3834              	.LBI1313:
  31:../../libdaisy/src/hid/disp/graphics_common.h ****     : x_(x), y_(y), width_(max(0, width)), height_(max(0, height))
 3835              		.loc 15 31 5 is_stmt 1 view .LVU887
 3836              	.LBB1322:
 3837              	.LBB1319:
  32:../../libdaisy/src/hid/disp/graphics_common.h ****     {
 3838              		.loc 15 32 66 is_stmt 0 view .LVU888
 3839 02e2 D980     		strh	r1, [r3, #6]	@ movhi
 3840 02e4 5E80     		strh	r6, [r3, #2]	@ movhi
 3841              	.LVL309:
 3842              	.LBB1316:
 3843              	.LBI1316:
 3844              		.loc 15 261 13 is_stmt 1 view .LVU889
 3845              		.loc 15 261 13 is_stmt 0 view .LVU890
 3846              	.LBE1316:
 3847              	.LBE1319:
 3848              	.LBE1322:
ARM GAS  /tmp/ccobg3TQ.s 			page 116


 3849              	.LBE1326:
 3850              	.LBE1408:
 3851              	.LBE1474:
 3852              		.loc 15 261 41 is_stmt 1 view .LVU891
 3853              	.LBB1475:
 3854              	.LBB1409:
 3855              	.LBB1327:
 3856              	.LBB1323:
 3857              	.LBB1320:
 3858              	.LBB1317:
 3859              	.LBI1317:
 3860              		.loc 15 261 13 view .LVU892
 3861              		.loc 15 261 13 is_stmt 0 view .LVU893
 3862              	.LBE1317:
 3863              	.LBE1320:
 3864              	.LBE1323:
 3865              	.LBE1327:
 3866              	.LBE1409:
 3867              	.LBE1475:
 3868              		.loc 15 261 41 is_stmt 1 view .LVU894
 3869              	.LBB1476:
 3870              	.LBB1410:
 3871              	.LBB1328:
 3872              	.LBB1324:
  34:../../libdaisy/src/hid/disp/graphics_common.h **** 
 3873              		.loc 15 34 5 is_stmt 0 view .LVU895
 3874 02e6 D0E6     		b	.L232
 3875              	.LVL310:
 3876              	.L226:
  34:../../libdaisy/src/hid/disp/graphics_common.h **** 
 3877              		.loc 15 34 5 view .LVU896
 3878              	.LBE1324:
 3879              	.LBE1328:
 235:../../libdaisy/src/hid/disp/graphics_common.h ****                 return {int16_t(x_ + (other.GetCenterX() - GetCenterX())),
 3880              		.loc 15 235 13 is_stmt 1 view .LVU897
 236:../../libdaisy/src/hid/disp/graphics_common.h ****                         int16_t(other.GetBottom() - height_),
 3881              		.loc 15 236 17 view .LVU898
 3882              	.LBB1329:
 3883              	.LBI1329:
  62:../../libdaisy/src/hid/disp/graphics_common.h ****     int16_t GetCenterY() const { return y_ + height_ / 2; }
 3884              		.loc 15 62 13 view .LVU899
 3885              	.LBB1330:
  62:../../libdaisy/src/hid/disp/graphics_common.h ****     int16_t GetCenterY() const { return y_ + height_ / 2; }
 3886              		.loc 15 62 34 view .LVU900
  62:../../libdaisy/src/hid/disp/graphics_common.h ****     int16_t GetCenterY() const { return y_ + height_ / 2; }
 3887              		.loc 15 62 34 is_stmt 0 view .LVU901
 3888              	.LBE1330:
 3889              	.LBE1329:
 3890              	.LBB1334:
 3891              	.LBI1334:
  62:../../libdaisy/src/hid/disp/graphics_common.h ****     int16_t GetCenterY() const { return y_ + height_ / 2; }
 3892              		.loc 15 62 13 is_stmt 1 view .LVU902
 3893              	.LBB1335:
  62:../../libdaisy/src/hid/disp/graphics_common.h ****     int16_t GetCenterY() const { return y_ + height_ / 2; }
 3894              		.loc 15 62 34 view .LVU903
 3895              	.LBE1335:
 3896              	.LBE1334:
ARM GAS  /tmp/ccobg3TQ.s 			page 117


 3897              	.LBB1336:
 3898              	.LBB1331:
  62:../../libdaisy/src/hid/disp/graphics_common.h ****     int16_t GetCenterY() const { return y_ + height_ / 2; }
 3899              		.loc 15 62 53 is_stmt 0 view .LVU904
 3900 02e8 B6F904C0 		ldrsh	ip, [r6, #4]
  62:../../libdaisy/src/hid/disp/graphics_common.h ****     int16_t GetCenterY() const { return y_ + height_ / 2; }
 3901              		.loc 15 62 44 view .LVU905
 3902 02ec 3788     		ldrh	r7, [r6]
  62:../../libdaisy/src/hid/disp/graphics_common.h ****     int16_t GetCenterY() const { return y_ + height_ / 2; }
 3903              		.loc 15 62 53 view .LVU906
 3904 02ee BCF1000F 		cmp	ip, #0
 3905              	.LBE1331:
 3906              	.LBE1336:
 3907              	.LBB1337:
 3908              	.LBB1338:
  61:../../libdaisy/src/hid/disp/graphics_common.h ****     int16_t GetCenterX() const { return x_ + width_ / 2; }
 3909              		.loc 15 61 43 view .LVU907
 3910 02f2 7388     		ldrh	r3, [r6, #2]
 3911              	.LVL311:
  61:../../libdaisy/src/hid/disp/graphics_common.h ****     int16_t GetCenterX() const { return x_ + width_ / 2; }
 3912              		.loc 15 61 43 view .LVU908
 3913 02f4 B6F806E0 		ldrh	lr, [r6, #6]
 3914              	.LBE1338:
 3915              	.LBE1337:
 3916              	.LBB1341:
 3917              	.LBB1332:
  62:../../libdaisy/src/hid/disp/graphics_common.h ****     int16_t GetCenterY() const { return y_ + height_ / 2; }
 3918              		.loc 15 62 53 view .LVU909
 3919 02f8 B8BF     		it	lt
 3920 02fa 0CF1010C 		addlt	ip, ip, #1
 3921              	.LBE1332:
 3922              	.LBE1341:
 3923              	.LBB1342:
 3924              	.LBB1343:
 3925              	.LBB1344:
  32:../../libdaisy/src/hid/disp/graphics_common.h ****     {
 3926              		.loc 15 32 66 view .LVU910
 3927 02fe 099E     		ldr	r6, [sp, #36]
 3928              	.LVL312:
  32:../../libdaisy/src/hid/disp/graphics_common.h ****     {
 3929              		.loc 15 32 66 view .LVU911
 3930              	.LBE1344:
 3931              	.LBE1343:
 3932              	.LBE1342:
 3933              	.LBB1356:
 3934              	.LBB1333:
  62:../../libdaisy/src/hid/disp/graphics_common.h ****     int16_t GetCenterY() const { return y_ + height_ / 2; }
 3935              		.loc 15 62 44 view .LVU912
 3936 0300 07EB6C07 		add	r7, r7, ip, asr #1
 3937              	.LBE1333:
 3938              	.LBE1356:
 3939              	.LBB1357:
 3940              	.LBB1351:
 3941              	.LBB1347:
  32:../../libdaisy/src/hid/disp/graphics_common.h ****     {
 3942              		.loc 15 32 66 view .LVU913
 3943 0304 B280     		strh	r2, [r6, #4]	@ movhi
ARM GAS  /tmp/ccobg3TQ.s 			page 118


 3944              	.LBE1347:
 3945              	.LBE1351:
 3946              	.LBE1357:
 3947              	.LBB1358:
 3948              	.LBB1339:
  61:../../libdaisy/src/hid/disp/graphics_common.h ****     int16_t GetCenterX() const { return x_ + width_ / 2; }
 3949              		.loc 15 61 43 view .LVU914
 3950 0306 0EEB0306 		add	r6, lr, r3
 3951              	.LBE1339:
 3952              	.LBE1358:
 236:../../libdaisy/src/hid/disp/graphics_common.h ****                         int16_t(other.GetBottom() - height_),
 3953              		.loc 15 236 58 view .LVU915
 3954 030a A7EB6202 		sub	r2, r7, r2, asr #1
 3955              	.LVL313:
 3956              	.L292:
 237:../../libdaisy/src/hid/disp/graphics_common.h ****                         width_,
 3957              		.loc 15 237 51 view .LVU916
 3958 030e 301A     		subs	r0, r6, r0
 3959              	.LBB1359:
 3960              	.LBB1352:
 3961              	.LBB1348:
  32:../../libdaisy/src/hid/disp/graphics_common.h ****     {
 3962              		.loc 15 32 66 view .LVU917
 3963 0310 099B     		ldr	r3, [sp, #36]
 3964              	.LBE1348:
 3965              	.LBE1352:
 3966              	.LBE1359:
 236:../../libdaisy/src/hid/disp/graphics_common.h ****                         int16_t(other.GetBottom() - height_),
 3967              		.loc 15 236 58 view .LVU918
 3968 0312 97B2     		uxth	r7, r2
 3969              	.LBB1360:
 3970              	.LBI1337:
  61:../../libdaisy/src/hid/disp/graphics_common.h ****     int16_t GetCenterX() const { return x_ + width_ / 2; }
 3971              		.loc 15 61 13 is_stmt 1 view .LVU919
 3972              	.LVL314:
 3973              	.LBB1340:
  61:../../libdaisy/src/hid/disp/graphics_common.h ****     int16_t GetCenterX() const { return x_ + width_ / 2; }
 3974              		.loc 15 61 33 view .LVU920
 3975              	.LBE1340:
 3976              	.LBE1360:
 237:../../libdaisy/src/hid/disp/graphics_common.h ****                         width_,
 3977              		.loc 15 237 51 is_stmt 0 view .LVU921
 3978 0314 86B2     		uxth	r6, r0
 3979              	.LVL315:
 3980              	.LBB1361:
 3981              	.LBI1342:
  31:../../libdaisy/src/hid/disp/graphics_common.h ****     : x_(x), y_(y), width_(max(0, width)), height_(max(0, height))
 3982              		.loc 15 31 5 is_stmt 1 view .LVU922
 3983              	.LBB1353:
 3984              	.LBB1349:
  32:../../libdaisy/src/hid/disp/graphics_common.h ****     {
 3985              		.loc 15 32 66 is_stmt 0 view .LVU923
 3986 0316 D980     		strh	r1, [r3, #6]	@ movhi
 3987 0318 1F80     		strh	r7, [r3]	@ movhi
 3988 031a 5E80     		strh	r6, [r3, #2]	@ movhi
 3989              	.LVL316:
 3990              	.LBB1345:
ARM GAS  /tmp/ccobg3TQ.s 			page 119


 3991              	.LBI1345:
 3992              		.loc 15 261 13 is_stmt 1 view .LVU924
 3993              		.loc 15 261 13 is_stmt 0 view .LVU925
 3994              	.LBE1345:
 3995              	.LBE1349:
 3996              	.LBE1353:
 3997              	.LBE1361:
 3998              	.LBE1410:
 3999              	.LBE1476:
 4000              		.loc 15 261 41 is_stmt 1 view .LVU926
 4001              	.LBB1477:
 4002              	.LBB1411:
 4003              	.LBB1362:
 4004              	.LBB1354:
 4005              	.LBB1350:
 4006              	.LBB1346:
 4007              	.LBI1346:
 4008              		.loc 15 261 13 view .LVU927
 4009              		.loc 15 261 13 is_stmt 0 view .LVU928
 4010              	.LBE1346:
 4011              	.LBE1350:
 4012              	.LBE1354:
 4013              	.LBE1362:
 4014              	.LBE1411:
 4015              	.LBE1477:
 4016              		.loc 15 261 41 is_stmt 1 view .LVU929
 4017              	.LBB1478:
 4018              	.LBB1412:
 4019              	.LBB1363:
 4020              	.LBB1355:
  34:../../libdaisy/src/hid/disp/graphics_common.h **** 
 4021              		.loc 15 34 5 is_stmt 0 view .LVU930
 4022 031c B5E6     		b	.L232
 4023              	.LVL317:
 4024              	.L225:
  34:../../libdaisy/src/hid/disp/graphics_common.h **** 
 4025              		.loc 15 34 5 view .LVU931
 4026              	.LBE1355:
 4027              	.LBE1363:
 230:../../libdaisy/src/hid/disp/graphics_common.h ****                 return {int16_t(other.GetRight() - width_),
 4028              		.loc 15 230 13 is_stmt 1 view .LVU932
 231:../../libdaisy/src/hid/disp/graphics_common.h ****                         int16_t(other.GetBottom() - height_),
 4029              		.loc 15 231 17 view .LVU933
 4030              	.LBB1364:
 4031              	.LBI1364:
  60:../../libdaisy/src/hid/disp/graphics_common.h ****     int16_t GetBottom() const { return y_ + height_; }
 4032              		.loc 15 60 13 view .LVU934
 4033              	.LBB1365:
  60:../../libdaisy/src/hid/disp/graphics_common.h ****     int16_t GetBottom() const { return y_ + height_; }
 4034              		.loc 15 60 32 view .LVU935
  60:../../libdaisy/src/hid/disp/graphics_common.h ****     int16_t GetBottom() const { return y_ + height_; }
 4035              		.loc 15 60 42 is_stmt 0 view .LVU936
 4036 031e B6F804C0 		ldrh	ip, [r6, #4]
 4037 0322 3788     		ldrh	r7, [r6]
 4038              	.LBE1365:
 4039              	.LBE1364:
 4040              	.LBB1367:
ARM GAS  /tmp/ccobg3TQ.s 			page 120


 4041              	.LBB1368:
  61:../../libdaisy/src/hid/disp/graphics_common.h ****     int16_t GetCenterX() const { return x_ + width_ / 2; }
 4042              		.loc 15 61 43 view .LVU937
 4043 0324 7388     		ldrh	r3, [r6, #2]
 4044              	.LVL318:
  61:../../libdaisy/src/hid/disp/graphics_common.h ****     int16_t GetCenterX() const { return x_ + width_ / 2; }
 4045              		.loc 15 61 43 view .LVU938
 4046 0326 B6F806E0 		ldrh	lr, [r6, #6]
 4047              	.LBE1368:
 4048              	.LBE1367:
 4049              	.LBB1370:
 4050              	.LBB1366:
  60:../../libdaisy/src/hid/disp/graphics_common.h ****     int16_t GetBottom() const { return y_ + height_; }
 4051              		.loc 15 60 42 view .LVU939
 4052 032a 6744     		add	r7, r7, ip
 4053              	.LBE1366:
 4054              	.LBE1370:
 4055              	.LBB1371:
 4056              	.LBB1372:
 4057              	.LBB1373:
  32:../../libdaisy/src/hid/disp/graphics_common.h ****     {
 4058              		.loc 15 32 66 view .LVU940
 4059 032c 099E     		ldr	r6, [sp, #36]
 4060              	.LVL319:
  32:../../libdaisy/src/hid/disp/graphics_common.h ****     {
 4061              		.loc 15 32 66 view .LVU941
 4062 032e B280     		strh	r2, [r6, #4]	@ movhi
 4063              	.LBE1373:
 4064              	.LBE1372:
 4065              	.LBE1371:
 4066              	.LBB1374:
 4067              	.LBB1369:
  61:../../libdaisy/src/hid/disp/graphics_common.h ****     int16_t GetCenterX() const { return x_ + width_ / 2; }
 4068              		.loc 15 61 43 view .LVU942
 4069 0330 0EEB0306 		add	r6, lr, r3
 4070              	.LBE1369:
 4071              	.LBE1374:
 231:../../libdaisy/src/hid/disp/graphics_common.h ****                         int16_t(other.GetBottom() - height_),
 4072              		.loc 15 231 50 view .LVU943
 4073 0334 BA1A     		subs	r2, r7, r2
 4074 0336 EAE7     		b	.L292
 4075              	.LVL320:
 4076              	.L224:
 240:../../libdaisy/src/hid/disp/graphics_common.h ****                 return {other.x_,
 4077              		.loc 15 240 13 is_stmt 1 view .LVU944
 241:../../libdaisy/src/hid/disp/graphics_common.h ****                         int16_t(y_ + (other.GetCenterY() - GetCenterY())),
 4078              		.loc 15 241 17 view .LVU945
 4079              	.LBB1375:
 4080              	.LBB1376:
  63:../../libdaisy/src/hid/disp/graphics_common.h **** 
 4081              		.loc 15 63 54 is_stmt 0 view .LVU946
 4082 0338 B6F90630 		ldrsh	r3, [r6, #6]
 4083              	.LVL321:
  63:../../libdaisy/src/hid/disp/graphics_common.h **** 
 4084              		.loc 15 63 54 view .LVU947
 4085              	.LBE1376:
 4086              	.LBE1375:
ARM GAS  /tmp/ccobg3TQ.s 			page 121


 241:../../libdaisy/src/hid/disp/graphics_common.h ****                         int16_t(y_ + (other.GetCenterY() - GetCenterY())),
 4087              		.loc 15 241 31 view .LVU948
 4088 033c B6F90000 		ldrsh	r0, [r6]
 4089              	.LBB1381:
 4090              	.LBI1375:
  63:../../libdaisy/src/hid/disp/graphics_common.h **** 
 4091              		.loc 15 63 13 is_stmt 1 view .LVU949
 4092              	.LVL322:
 4093              	.LBB1377:
  63:../../libdaisy/src/hid/disp/graphics_common.h **** 
 4094              		.loc 15 63 34 view .LVU950
  63:../../libdaisy/src/hid/disp/graphics_common.h **** 
 4095              		.loc 15 63 34 is_stmt 0 view .LVU951
 4096              	.LBE1377:
 4097              	.LBE1381:
 4098              	.LBB1382:
 4099              	.LBI1382:
  63:../../libdaisy/src/hid/disp/graphics_common.h **** 
 4100              		.loc 15 63 13 is_stmt 1 view .LVU952
 4101              	.LBB1383:
  63:../../libdaisy/src/hid/disp/graphics_common.h **** 
 4102              		.loc 15 63 34 view .LVU953
 4103              	.LBE1383:
 4104              	.LBE1382:
 4105              	.LBB1384:
 4106              	.LBB1378:
  63:../../libdaisy/src/hid/disp/graphics_common.h **** 
 4107              		.loc 15 63 54 is_stmt 0 view .LVU954
 4108 0340 002B     		cmp	r3, #0
  63:../../libdaisy/src/hid/disp/graphics_common.h **** 
 4109              		.loc 15 63 44 view .LVU955
 4110 0342 B6F802C0 		ldrh	ip, [r6, #2]
 4111              	.LBE1378:
 4112              	.LBE1384:
 4113              	.LBB1385:
 4114              	.LBB1386:
 4115              	.LBB1387:
  32:../../libdaisy/src/hid/disp/graphics_common.h ****     {
 4116              		.loc 15 32 66 view .LVU956
 4117 0346 099E     		ldr	r6, [sp, #36]
 4118              	.LVL323:
  32:../../libdaisy/src/hid/disp/graphics_common.h ****     {
 4119              		.loc 15 32 66 view .LVU957
 4120 0348 87B2     		uxth	r7, r0
 4121              	.LBE1387:
 4122              	.LBE1386:
 4123              	.LBE1385:
 4124              	.LBB1392:
 4125              	.LBB1379:
  63:../../libdaisy/src/hid/disp/graphics_common.h **** 
 4126              		.loc 15 63 54 view .LVU958
 4127 034a B8BF     		it	lt
 4128 034c 0133     		addlt	r3, r3, #1
 4129              	.LBE1379:
 4130              	.LBE1392:
 4131              	.LBB1393:
 4132              	.LBB1390:
ARM GAS  /tmp/ccobg3TQ.s 			page 122


 4133              	.LBB1388:
  32:../../libdaisy/src/hid/disp/graphics_common.h ****     {
 4134              		.loc 15 32 66 view .LVU959
 4135 034e 3080     		strh	r0, [r6]	@ movhi
 4136              	.LBE1388:
 4137              	.LBE1390:
 4138              	.LBE1393:
 4139              	.LBB1394:
 4140              	.LBB1380:
  63:../../libdaisy/src/hid/disp/graphics_common.h **** 
 4141              		.loc 15 63 44 view .LVU960
 4142 0350 0CEB6306 		add	r6, ip, r3, asr #1
 4143              	.LBE1380:
 4144              	.LBE1394:
 4145              	.LBB1395:
 4146              	.LBB1391:
 4147              	.LBB1389:
  32:../../libdaisy/src/hid/disp/graphics_common.h ****     {
 4148              		.loc 15 32 66 view .LVU961
 4149 0354 099B     		ldr	r3, [sp, #36]
 4150 0356 1846     		mov	r0, r3
 4151 0358 91E6     		b	.L293
 4152              	.LVL324:
 4153              	.L252:
  32:../../libdaisy/src/hid/disp/graphics_common.h ****     {
 4154              		.loc 15 32 66 view .LVU962
 4155              	.LBE1389:
 4156              	.LBE1391:
 4157              	.LBE1395:
 4158              	.LBE1412:
 4159              	.LBE1478:
 4160              	.LBB1479:
 4161              	.LBB1467:
 4162              	.LBB1465:
 4163              	.LBB1464:
 402:../../libdaisy/src/hid/disp/display.h **** 
 4164              		.loc 3 402 20 view .LVU963
 4165 035a 0026     		movs	r6, #0
 4166              	.LVL325:
 402:../../libdaisy/src/hid/disp/display.h **** 
 4167              		.loc 3 402 20 view .LVU964
 4168 035c 67E7     		b	.L250
 4169              	.LVL326:
 4170              	.L298:
 405:../../libdaisy/src/hid/disp/display.h ****            || Height() < (currentY_ + font.FontHeight))
 4171              		.loc 3 405 17 view .LVU965
 4172 035e 2046     		mov	r0, r4
 4173 0360 9847     		blx	r3
 4174              	.LVL327:
 4175 0362 CDE6     		b	.L251
 4176              	.L306:
 4177              		.align	2
 4178              	.L305:
 4179 0364 00000000 		.word	_ZNK5daisy11OledDisplayINS_13SSD130xDriverILj128ELj64ENS_24SSD130x4WireSpiTransportEEEE5Widt
 4180 0368 00000000 		.word	_ZNK5daisy11OledDisplayINS_13SSD130xDriverILj128ELj64ENS_24SSD130x4WireSpiTransportEEEE6Heig
 4181              	.L299:
 406:../../libdaisy/src/hid/disp/display.h ****         {
ARM GAS  /tmp/ccobg3TQ.s 			page 123


 4182              		.loc 3 406 21 view .LVU966
 4183 036c 2046     		mov	r0, r4
 4184 036e 9847     		blx	r3
 4185              	.LVL328:
 4186 0370 D2E6     		b	.L253
 4187              	.LVL329:
 4188              	.L303:
 4189              	.LBB1463:
 4190              	.LBB1460:
 174:../../libdaisy/src/hid/disp/display.h ****     }
 4191              		.loc 3 174 33 view .LVU967
 4192 0372 2046     		mov	r0, r4
 4193 0374 9847     		blx	r3
 4194              	.LVL330:
 4195 0376 4DE7     		b	.L267
 4196              	.LVL331:
 4197              	.L301:
 173:../../libdaisy/src/hid/disp/display.h ****         currentY_ = (y >= Height()) ? Height() - 1 : y;
 4198              		.loc 3 173 32 view .LVU968
 4199 0378 2046     		mov	r0, r4
 4200 037a 9847     		blx	r3
 4201              	.LVL332:
 4202 037c 2268     		ldr	r2, [r4]
 4203 037e 3AE7     		b	.L264
 4204              	.LVL333:
 4205              	.L254:
 173:../../libdaisy/src/hid/disp/display.h ****         currentY_ = (y >= Height()) ? Height() - 1 : y;
 4206              		.loc 3 173 32 view .LVU969
 4207 0380 B4F804C0 		ldrh	ip, [r4, #4]
 4208 0384 2DE7     		b	.L256
 4209              	.LVL334:
 4210              	.L304:
 174:../../libdaisy/src/hid/disp/display.h ****     }
 4211              		.loc 3 174 45 view .LVU970
 4212 0386 2046     		mov	r0, r4
 4213 0388 9847     		blx	r3
 4214              	.LVL335:
 4215 038a 0138     		subs	r0, r0, #1
 4216 038c 83B2     		uxth	r3, r0
 4217 038e 0293     		str	r3, [sp, #8]
 4218              	.LVL336:
 174:../../libdaisy/src/hid/disp/display.h ****     }
 4219              		.loc 3 174 45 view .LVU971
 4220 0390 4BE7     		b	.L268
 4221              	.LVL337:
 4222              	.L302:
 173:../../libdaisy/src/hid/disp/display.h ****         currentY_ = (y >= Height()) ? Height() - 1 : y;
 4223              		.loc 3 173 43 view .LVU972
 4224 0392 2046     		mov	r0, r4
 4225 0394 9847     		blx	r3
 4226              	.LVL338:
 4227 0396 0138     		subs	r0, r0, #1
 4228 0398 2268     		ldr	r2, [r4]
 4229 039a 85B2     		uxth	r5, r0
 4230              	.LVL339:
 173:../../libdaisy/src/hid/disp/display.h ****         currentY_ = (y >= Height()) ? Height() - 1 : y;
 4231              		.loc 3 173 43 view .LVU973
ARM GAS  /tmp/ccobg3TQ.s 			page 124


 4232 039c 33E7     		b	.L265
 4233              	.LVL340:
 4234              	.L221:
 173:../../libdaisy/src/hid/disp/display.h ****         currentY_ = (y >= Height()) ? Height() - 1 : y;
 4235              		.loc 3 173 43 view .LVU974
 4236              	.LBE1460:
 4237              	.LBE1463:
 4238              	.LBE1464:
 4239              	.LBE1465:
 4240              	.LBE1467:
 4241              	.LBE1479:
 4242              	.LBB1480:
 4243              	.LBB1413:
 255:../../libdaisy/src/hid/disp/graphics_common.h ****         }
 4244              		.loc 15 255 13 is_stmt 1 view .LVU975
 255:../../libdaisy/src/hid/disp/graphics_common.h ****         }
 4245              		.loc 15 255 22 view .LVU976
 4246              	.LBB1396:
 4247              	.LBI1396:
  24:../../libdaisy/src/hid/disp/graphics_common.h **** 
 4248              		.loc 15 24 5 view .LVU977
 4249              	.LBE1396:
 4250              	.LBE1413:
 4251              	.LBE1480:
 4252              	.LBB1481:
 4253              	.LBB1419:
 173:../../libdaisy/src/hid/disp/display.h ****         currentY_ = (y >= Height()) ? Height() - 1 : y;
 4254              		.loc 3 173 33 is_stmt 0 view .LVU978
 4255 039e 2368     		ldr	r3, [r4]
 4256              	.LVL341:
 173:../../libdaisy/src/hid/disp/display.h ****         currentY_ = (y >= Height()) ? Height() - 1 : y;
 4257              		.loc 3 173 33 view .LVU979
 4258              	.LBE1419:
 4259              	.LBE1481:
 4260              	.LBB1482:
 4261              	.LBB1414:
 4262              	.LBB1399:
 4263              	.LBB1397:
  24:../../libdaisy/src/hid/disp/graphics_common.h **** 
 4264              		.loc 15 24 53 view .LVU980
 4265 03a0 0026     		movs	r6, #0
 4266              	.LVL342:
  24:../../libdaisy/src/hid/disp/graphics_common.h **** 
 4267              		.loc 15 24 53 view .LVU981
 4268 03a2 124F     		ldr	r7, .L307
 4269              	.LBE1397:
 4270              	.LBE1399:
 4271              	.LBE1414:
 4272              	.LBE1482:
 4273              	.LBB1483:
 4274              	.LBB1420:
 173:../../libdaisy/src/hid/disp/display.h ****         currentY_ = (y >= Height()) ? Height() - 1 : y;
 4275              		.loc 3 173 33 view .LVU982
 4276 03a4 DA68     		ldr	r2, [r3, #12]
 4277              	.LBE1420:
 4278              	.LBE1483:
 4279              	.LBB1484:
ARM GAS  /tmp/ccobg3TQ.s 			page 125


 4280              	.LBB1415:
 4281              	.LBB1400:
 4282              	.LBB1398:
  24:../../libdaisy/src/hid/disp/graphics_common.h **** 
 4283              		.loc 15 24 53 view .LVU983
 4284 03a6 0999     		ldr	r1, [sp, #36]
 4285 03a8 BA42     		cmp	r2, r7
 4286 03aa 0197     		str	r7, [sp, #4]
 4287 03ac 0E80     		strh	r6, [r1]	@ movhi
 4288 03ae 4E80     		strh	r6, [r1, #2]	@ movhi
 4289 03b0 8E80     		strh	r6, [r1, #4]	@ movhi
 4290 03b2 CE80     		strh	r6, [r1, #6]	@ movhi
 4291              	.LVL343:
  24:../../libdaisy/src/hid/disp/graphics_common.h **** 
 4292              		.loc 15 24 53 view .LVU984
 4293              	.LBE1398:
 4294              	.LBE1400:
 4295              	.LBE1415:
 4296              	.LBE1484:
  56:../../libdaisy/src/hid/disp/graphics_common.h ****     int16_t GetY() const { return y_; }
 4297              		.loc 15 56 28 is_stmt 1 view .LVU985
  57:../../libdaisy/src/hid/disp/graphics_common.h ****     int16_t GetWidth() const { return width_; }
 4298              		.loc 15 57 28 view .LVU986
 4299              	.LBB1485:
 171:../../libdaisy/src/hid/disp/display.h ****     {
 4300              		.loc 3 171 10 view .LVU987
 4301              	.LBB1421:
 173:../../libdaisy/src/hid/disp/display.h ****         currentY_ = (y >= Height()) ? Height() - 1 : y;
 4302              		.loc 3 173 9 view .LVU988
 4303 03b4 04D0     		beq	.L239
 173:../../libdaisy/src/hid/disp/display.h ****         currentY_ = (y >= Height()) ? Height() - 1 : y;
 4304              		.loc 3 173 33 is_stmt 0 view .LVU989
 4305 03b6 3746     		mov	r7, r6
 4306              	.LVL344:
 4307              	.L240:
 173:../../libdaisy/src/hid/disp/display.h ****         currentY_ = (y >= Height()) ? Height() - 1 : y;
 4308              		.loc 3 173 32 view .LVU990
 4309 03b8 2046     		mov	r0, r4
 4310 03ba 9047     		blx	r2
 4311              	.LVL345:
 4312 03bc 2368     		ldr	r3, [r4]
 4313 03be 6DE6     		b	.L241
 4314              	.LVL346:
 4315              	.L239:
 174:../../libdaisy/src/hid/disp/display.h ****     }
 4316              		.loc 3 174 34 view .LVU991
 4317 03c0 9B68     		ldr	r3, [r3, #8]
 4318 03c2 0B4A     		ldr	r2, .L307+4
 173:../../libdaisy/src/hid/disp/display.h ****         currentY_ = (y >= Height()) ? Height() - 1 : y;
 4319              		.loc 3 173 19 view .LVU992
 4320 03c4 A680     		strh	r6, [r4, #4]	@ movhi
 174:../../libdaisy/src/hid/disp/display.h ****     }
 4321              		.loc 3 174 9 is_stmt 1 view .LVU993
 4322 03c6 9342     		cmp	r3, r2
 4323 03c8 0392     		str	r2, [sp, #12]
 4324 03ca 3FF480AE 		beq	.L246
 4325              	.LVL347:
ARM GAS  /tmp/ccobg3TQ.s 			page 126


 4326              	.L272:
 174:../../libdaisy/src/hid/disp/display.h ****     }
 4327              		.loc 3 174 33 is_stmt 0 view .LVU994
 4328 03ce 2046     		mov	r0, r4
 4329 03d0 9847     		blx	r3
 4330              	.LVL348:
 4331 03d2 73E6     		b	.L244
 4332              	.L297:
 174:../../libdaisy/src/hid/disp/display.h ****     }
 4333              		.loc 3 174 45 view .LVU995
 4334 03d4 2046     		mov	r0, r4
 4335 03d6 9847     		blx	r3
 4336              	.LVL349:
 4337 03d8 0138     		subs	r0, r0, #1
 4338 03da 86B2     		uxth	r6, r0
 4339 03dc 77E6     		b	.L246
 4340              	.L296:
 173:../../libdaisy/src/hid/disp/display.h ****         currentY_ = (y >= Height()) ? Height() - 1 : y;
 4341              		.loc 3 173 43 view .LVU996
 4342 03de 2046     		mov	r0, r4
 4343 03e0 9047     		blx	r2
 4344              	.LVL350:
 4345 03e2 0138     		subs	r0, r0, #1
 4346 03e4 2368     		ldr	r3, [r4]
 4347 03e6 87B2     		uxth	r7, r0
 4348 03e8 60E6     		b	.L242
 4349              	.L308:
 4350 03ea 00BF     		.align	2
 4351              	.L307:
 4352 03ec 00000000 		.word	_ZNK5daisy11OledDisplayINS_13SSD130xDriverILj128ELj64ENS_24SSD130x4WireSpiTransportEEEE5Widt
 4353 03f0 00000000 		.word	_ZNK5daisy11OledDisplayINS_13SSD130xDriverILj128ELj64ENS_24SSD130x4WireSpiTransportEEEE6Heig
 4354              	.LBE1421:
 4355              	.LBE1485:
 4356              		.cfi_endproc
 4357              	.LFE4839:
 4359              		.section	.text._ZN5daisy25OneBitGraphicsDisplayImplINS_11OledDisplayINS_13SSD130xDriverILj128ELj64
 4360              		.align	1
 4361              		.p2align 2,,3
 4362              		.weak	_ZN5daisy25OneBitGraphicsDisplayImplINS_11OledDisplayINS_13SSD130xDriverILj128ELj64ENS_24SSD
 4363              		.syntax unified
 4364              		.thumb
 4365              		.thumb_func
 4366              		.fpu fpv5-d16
 4368              	_ZN5daisy25OneBitGraphicsDisplayImplINS_11OledDisplayINS_13SSD130xDriverILj128ELj64ENS_24SSD130x4Wi
 4369              	.LVL351:
 4370              	.LFB4837:
 257:../../libdaisy/src/hid/disp/display.h ****                   uint_fast8_t y1,
 4371              		.loc 3 257 10 is_stmt 1 view -0
 4372              		.cfi_startproc
 4373              		@ args = 12, pretend = 0, frame = 24
 4374              		@ frame_needed = 0, uses_anonymous_args = 0
 257:../../libdaisy/src/hid/disp/display.h ****                   uint_fast8_t y1,
 4375              		.loc 3 257 10 is_stmt 0 view .LVU998
 4376 0000 2DE9F04F 		push	{r4, r5, r6, r7, r8, r9, r10, fp, lr}
 4377              		.cfi_def_cfa_offset 36
 4378              		.cfi_offset 4, -36
 4379              		.cfi_offset 5, -32
ARM GAS  /tmp/ccobg3TQ.s 			page 127


 4380              		.cfi_offset 6, -28
 4381              		.cfi_offset 7, -24
 4382              		.cfi_offset 8, -20
 4383              		.cfi_offset 9, -16
 4384              		.cfi_offset 10, -12
 4385              		.cfi_offset 11, -8
 4386              		.cfi_offset 14, -4
 4387 0004 87B0     		sub	sp, sp, #28
 4388              		.cfi_def_cfa_offset 64
 257:../../libdaisy/src/hid/disp/display.h ****                   uint_fast8_t y1,
 4389              		.loc 3 257 10 view .LVU999
 4390 0006 9DF84860 		ldrb	r6, [sp, #72]	@ zero_extendqisi2
 4391 000a 109C     		ldr	r4, [sp, #64]
 4392 000c 9DF84450 		ldrb	r5, [sp, #68]	@ zero_extendqisi2
 4393 0010 0196     		str	r6, [sp, #4]
 4394              	.LBB1558:
 264:../../libdaisy/src/hid/disp/display.h ****         {
 4395              		.loc 3 264 9 view .LVU1000
 4396 0012 9EB3     		cbz	r6, .L310
 4397              	.LVL352:
 4398              	.LBB1559:
 266:../../libdaisy/src/hid/disp/display.h ****             {
 4399              		.loc 3 266 40 is_stmt 1 view .LVU1001
 4400 0014 9942     		cmp	r1, r3
 4401 0016 2ED8     		bhi	.L309
 4402 0018 9A46     		mov	r10, r3
 4403              	.LVL353:
 4404              	.L313:
 4405              	.LBB1560:
 268:../../libdaisy/src/hid/disp/display.h ****                 {
 4406              		.loc 3 268 44 view .LVU1002
 4407 001a A242     		cmp	r2, r4
 4408 001c 28D8     		bhi	.L316
 268:../../libdaisy/src/hid/disp/display.h ****                 {
 4409              		.loc 3 268 44 is_stmt 0 view .LVU1003
 4410 001e 7F29     		cmp	r1, #127
 4411 0020 1646     		mov	r6, r2
 4412 0022 94BF     		ite	ls
 4413 0024 0023     		movls	r3, #0
 4414 0026 0123     		movhi	r3, #1
 4415 0028 08E0     		b	.L317
 4416              	.LVL354:
 4417              	.L399:
 4418              	.LBB1561:
 4419              	.LBB1562:
 4420              	.LBB1563:
 244:../../libdaisy/src/dev/oled_ssd130x.h ****         else
 4421              		.loc 12 244 42 view .LVU1004
 4422 002a 9CF81490 		ldrb	r9, [ip, #20]	@ zero_extendqisi2
 4423 002e 4EEA090E 		orr	lr, lr, r9
 244:../../libdaisy/src/dev/oled_ssd130x.h ****         else
 4424              		.loc 12 244 13 view .LVU1005
 4425 0032 8CF814E0 		strb	lr, [ip, #20]
 4426              	.LVL355:
 4427              	.L314:
 244:../../libdaisy/src/dev/oled_ssd130x.h ****         else
 4428              		.loc 12 244 13 view .LVU1006
ARM GAS  /tmp/ccobg3TQ.s 			page 128


 4429              	.LBE1563:
 4430              	.LBE1562:
 4431              	.LBE1561:
 268:../../libdaisy/src/hid/disp/display.h ****                 {
 4432              		.loc 3 268 17 is_stmt 1 view .LVU1007
 4433 0036 0136     		adds	r6, r6, #1
 4434              	.LVL356:
 268:../../libdaisy/src/hid/disp/display.h ****                 {
 4435              		.loc 3 268 44 view .LVU1008
 4436 0038 B442     		cmp	r4, r6
 4437 003a 19D3     		bcc	.L316
 4438              	.L317:
 4439              	.LVL357:
 4440              	.LBB1577:
 4441              	.LBI1561:
  41:../../libdaisy/src/hid/disp/oled_display.h ****     {
 4442              		.loc 2 41 10 view .LVU1009
 4443              	.LBB1574:
 4444              	.LBI1562:
 239:../../libdaisy/src/dev/oled_ssd130x.h ****     {
 4445              		.loc 12 239 10 view .LVU1010
 4446              	.LBB1571:
 241:../../libdaisy/src/dev/oled_ssd130x.h ****             return;
 4447              		.loc 12 241 9 is_stmt 0 view .LVU1011
 4448 003c 3F2E     		cmp	r6, #63
 4449 003e FAD8     		bhi	.L314
 241:../../libdaisy/src/dev/oled_ssd130x.h ****             return;
 4450              		.loc 12 241 9 view .LVU1012
 4451 0040 002B     		cmp	r3, #0
 4452 0042 F8D1     		bne	.L314
 4453              	.LVL358:
 4454              	.LBB1564:
 4455              	.LBI1564:
 239:../../libdaisy/src/dev/oled_ssd130x.h ****     {
 4456              		.loc 12 239 10 is_stmt 1 view .LVU1013
 239:../../libdaisy/src/dev/oled_ssd130x.h ****     {
 4457              		.loc 12 239 10 is_stmt 0 view .LVU1014
 4458              	.LBE1564:
 244:../../libdaisy/src/dev/oled_ssd130x.h ****         else
 4459              		.loc 12 244 28 view .LVU1015
 4460 0044 4FEAD60C 		lsr	ip, r6, #3
 244:../../libdaisy/src/dev/oled_ssd130x.h ****         else
 4461              		.loc 12 244 54 view .LVU1016
 4462 0048 06F0070E 		and	lr, r6, #7
 244:../../libdaisy/src/dev/oled_ssd130x.h ****         else
 4463              		.loc 12 244 48 view .LVU1017
 4464 004c 4FF00109 		mov	r9, #1
 244:../../libdaisy/src/dev/oled_ssd130x.h ****         else
 4465              		.loc 12 244 42 view .LVU1018
 4466 0050 01EBCC1C 		add	ip, r1, ip, lsl #7
 244:../../libdaisy/src/dev/oled_ssd130x.h ****         else
 4467              		.loc 12 244 48 view .LVU1019
 4468 0054 09FA0EFE 		lsl	lr, r9, lr
 244:../../libdaisy/src/dev/oled_ssd130x.h ****         else
 4469              		.loc 12 244 13 view .LVU1020
 4470 0058 8444     		add	ip, ip, r0
 243:../../libdaisy/src/dev/oled_ssd130x.h ****             buffer_[x + (y / 8) * width] |= (1 << (y % 8));
ARM GAS  /tmp/ccobg3TQ.s 			page 129


 4471              		.loc 12 243 9 view .LVU1021
 4472 005a 002D     		cmp	r5, #0
 4473 005c E5D1     		bne	.L399
 4474              	.LBB1568:
 4475              	.LBB1565:
 246:../../libdaisy/src/dev/oled_ssd130x.h ****     }
 4476              		.loc 12 246 42 view .LVU1022
 4477 005e 9CF814B0 		ldrb	fp, [ip, #20]	@ zero_extendqisi2
 4478              	.LBE1565:
 4479              	.LBE1568:
 4480              	.LBE1571:
 4481              	.LBE1574:
 4482              	.LBE1577:
 268:../../libdaisy/src/hid/disp/display.h ****                 {
 4483              		.loc 3 268 17 view .LVU1023
 4484 0062 0136     		adds	r6, r6, #1
 4485              	.LVL359:
 4486              	.LBB1578:
 4487              	.LBB1575:
 4488              	.LBB1572:
 4489              	.LBB1569:
 4490              	.LBB1566:
 246:../../libdaisy/src/dev/oled_ssd130x.h ****     }
 4491              		.loc 12 246 42 view .LVU1024
 4492 0064 2BEA0E08 		bic	r8, fp, lr
 4493              	.LBE1566:
 4494              	.LBE1569:
 4495              	.LBE1572:
 4496              	.LBE1575:
 4497              	.LBE1578:
 268:../../libdaisy/src/hid/disp/display.h ****                 {
 4498              		.loc 3 268 44 view .LVU1025
 4499 0068 B442     		cmp	r4, r6
 4500              	.LBB1579:
 4501              	.LBB1576:
 4502              	.LBB1573:
 4503              	.LBB1570:
 4504              	.LBB1567:
 246:../../libdaisy/src/dev/oled_ssd130x.h ****     }
 4505              		.loc 12 246 13 view .LVU1026
 4506 006a 8CF81480 		strb	r8, [ip, #20]
 4507              	.LVL360:
 246:../../libdaisy/src/dev/oled_ssd130x.h ****     }
 4508              		.loc 12 246 13 view .LVU1027
 4509              	.LBE1567:
 4510              	.LBE1570:
 4511              	.LBE1573:
 4512              	.LBE1576:
 4513              	.LBE1579:
 268:../../libdaisy/src/hid/disp/display.h ****                 {
 4514              		.loc 3 268 17 is_stmt 1 view .LVU1028
 268:../../libdaisy/src/hid/disp/display.h ****                 {
 4515              		.loc 3 268 44 view .LVU1029
 4516 006e E5D2     		bcs	.L317
 4517              	.LVL361:
 4518              	.L316:
 268:../../libdaisy/src/hid/disp/display.h ****                 {
ARM GAS  /tmp/ccobg3TQ.s 			page 130


 4519              		.loc 3 268 44 is_stmt 0 view .LVU1030
 4520              	.LBE1560:
 266:../../libdaisy/src/hid/disp/display.h ****             {
 4521              		.loc 3 266 13 is_stmt 1 view .LVU1031
 4522 0070 0131     		adds	r1, r1, #1
 4523              	.LVL362:
 266:../../libdaisy/src/hid/disp/display.h ****             {
 4524              		.loc 3 266 40 view .LVU1032
 4525 0072 8A45     		cmp	r10, r1
 4526 0074 D1D2     		bcs	.L313
 4527              	.LVL363:
 4528              	.L309:
 266:../../libdaisy/src/hid/disp/display.h ****             {
 4529              		.loc 3 266 40 is_stmt 0 view .LVU1033
 4530              	.LBE1559:
 4531              	.LBE1558:
 281:../../libdaisy/src/hid/disp/display.h **** 
 4532              		.loc 3 281 5 view .LVU1034
 4533 0076 07B0     		add	sp, sp, #28
 4534              		.cfi_remember_state
 4535              		.cfi_def_cfa_offset 36
 4536              		@ sp needed
 4537 0078 BDE8F08F 		pop	{r4, r5, r6, r7, r8, r9, r10, fp, pc}
 4538              	.LVL364:
 4539              	.L310:
 4540              		.cfi_restore_state
 4541              	.LBB1580:
 4542              	.LBI1580:
 257:../../libdaisy/src/hid/disp/display.h ****                   uint_fast8_t y1,
 4543              		.loc 3 257 10 is_stmt 1 view .LVU1035
 4544              	.LBB1581:
 4545              	.LBI1581:
 221:../../libdaisy/src/hid/disp/display.h ****                   uint_fast8_t y1,
 4546              		.loc 3 221 10 view .LVU1036
 4547              	.LBB1582:
 227:../../libdaisy/src/hid/disp/display.h ****         int_fast16_t deltaY = abs((int_fast16_t)y2 - (int_fast16_t)y1);
 4548              		.loc 3 227 52 is_stmt 0 view .LVU1037
 4549 007c A3EB0108 		sub	r8, r3, r1
 227:../../libdaisy/src/hid/disp/display.h ****         int_fast16_t deltaY = abs((int_fast16_t)y2 - (int_fast16_t)y1);
 4550              		.loc 3 227 22 view .LVU1038
 4551 0080 B8F1000F 		cmp	r8, #0
 4552 0084 B8BF     		it	lt
 4553 0086 C8F10008 		rsblt	r8, r8, #0
 4554              	.LVL365:
 229:../../libdaisy/src/hid/disp/display.h ****         int_fast16_t signY  = ((y1 < y2) ? 1 : -1);
 4555              		.loc 3 229 22 view .LVU1039
 4556 008a 9942     		cmp	r1, r3
 4557 008c 80F05481 		bcs	.L400
 4558              	.LVL366:
 4559              	.LBB1583:
 4560              	.LBI1583:
  41:../../libdaisy/src/hid/disp/oled_display.h ****     {
 4561              		.loc 2 41 10 is_stmt 1 view .LVU1040
 4562              	.LBB1584:
 4563              	.LBI1584:
 239:../../libdaisy/src/dev/oled_ssd130x.h ****     {
 4564              		.loc 12 239 10 view .LVU1041
ARM GAS  /tmp/ccobg3TQ.s 			page 131


 4565              	.LBB1585:
 241:../../libdaisy/src/dev/oled_ssd130x.h ****             return;
 4566              		.loc 12 241 28 is_stmt 0 view .LVU1042
 4567 0090 3F2A     		cmp	r2, #63
 4568              	.LBE1585:
 4569              	.LBE1584:
 4570              	.LBE1583:
 229:../../libdaisy/src/hid/disp/display.h ****         int_fast16_t signY  = ((y1 < y2) ? 1 : -1);
 4571              		.loc 3 229 22 view .LVU1043
 4572 0092 4FF00109 		mov	r9, #1
 4573              	.LBB1594:
 4574              	.LBB1591:
 4575              	.LBB1588:
 241:../../libdaisy/src/dev/oled_ssd130x.h ****             return;
 4576              		.loc 12 241 28 view .LVU1044
 4577 0096 94BF     		ite	ls
 4578 0098 0026     		movls	r6, #0
 4579 009a 0126     		movhi	r6, #1
 241:../../libdaisy/src/dev/oled_ssd130x.h ****             return;
 4580              		.loc 12 241 14 view .LVU1045
 4581 009c 7F2B     		cmp	r3, #127
 241:../../libdaisy/src/dev/oled_ssd130x.h ****             return;
 4582              		.loc 12 241 28 view .LVU1046
 4583 009e 0296     		str	r6, [sp, #8]
 241:../../libdaisy/src/dev/oled_ssd130x.h ****             return;
 4584              		.loc 12 241 14 view .LVU1047
 4585 00a0 94BF     		ite	ls
 4586 00a2 0027     		movls	r7, #0
 4587 00a4 0127     		movhi	r7, #1
 4588 00a6 0097     		str	r7, [sp]
 241:../../libdaisy/src/dev/oled_ssd130x.h ****             return;
 4589              		.loc 12 241 9 view .LVU1048
 4590 00a8 DEB9     		cbnz	r6, .L322
 4591 00aa D7B9     		cbnz	r7, .L322
 243:../../libdaisy/src/dev/oled_ssd130x.h ****             buffer_[x + (y / 8) * width] |= (1 << (y % 8));
 4592              		.loc 12 243 9 view .LVU1049
 4593 00ac 002D     		cmp	r5, #0
 4594 00ae 00F05881 		beq	.L320
 4595              	.LVL367:
 4596              	.L403:
 243:../../libdaisy/src/dev/oled_ssd130x.h ****             buffer_[x + (y / 8) * width] |= (1 << (y % 8));
 4597              		.loc 12 243 9 view .LVU1050
 4598 00b2 0026     		movs	r6, #0
 244:../../libdaisy/src/dev/oled_ssd130x.h ****         else
 4599              		.loc 12 244 28 view .LVU1051
 4600 00b4 4FEAD20E 		lsr	lr, r2, #3
 244:../../libdaisy/src/dev/oled_ssd130x.h ****         else
 4601              		.loc 12 244 48 view .LVU1052
 4602 00b8 4FF0010C 		mov	ip, #1
 244:../../libdaisy/src/dev/oled_ssd130x.h ****         else
 4603              		.loc 12 244 54 view .LVU1053
 4604 00bc 02F00707 		and	r7, r2, #7
 244:../../libdaisy/src/dev/oled_ssd130x.h ****         else
 4605              		.loc 12 244 42 view .LVU1054
 4606 00c0 03EBCE1E 		add	lr, r3, lr, lsl #7
 4607 00c4 0296     		str	r6, [sp, #8]
 4608 00c6 0026     		movs	r6, #0
ARM GAS  /tmp/ccobg3TQ.s 			page 132


 244:../../libdaisy/src/dev/oled_ssd130x.h ****         else
 4609              		.loc 12 244 48 view .LVU1055
 4610 00c8 0CFA07F7 		lsl	r7, ip, r7
 4611 00cc 0096     		str	r6, [sp]
 244:../../libdaisy/src/dev/oled_ssd130x.h ****         else
 4612              		.loc 12 244 13 view .LVU1056
 4613 00ce 0EEB0006 		add	r6, lr, r0
 244:../../libdaisy/src/dev/oled_ssd130x.h ****         else
 4614              		.loc 12 244 42 view .LVU1057
 4615 00d2 96F814C0 		ldrb	ip, [r6, #20]	@ zero_extendqisi2
 4616 00d6 47EA0C07 		orr	r7, r7, ip
 244:../../libdaisy/src/dev/oled_ssd130x.h ****         else
 4617              		.loc 12 244 13 view .LVU1058
 4618 00da 3775     		strb	r7, [r6, #20]
 4619              	.L319:
 4620              	.LVL368:
 244:../../libdaisy/src/dev/oled_ssd130x.h ****         else
 4621              		.loc 12 244 13 view .LVU1059
 4622              	.LBE1588:
 4623              	.LBE1591:
 4624              	.LBE1594:
 239:../../libdaisy/src/hid/disp/display.h ****         {
 4625              		.loc 3 239 26 is_stmt 1 view .LVU1060
 4626 00dc 9942     		cmp	r1, r3
 4627 00de 00F09781 		beq	.L401
 4628              	.L322:
 4629              	.LVL369:
 227:../../libdaisy/src/hid/disp/display.h ****         int_fast16_t deltaY = abs((int_fast16_t)y2 - (int_fast16_t)y1);
 4630              		.loc 3 227 22 is_stmt 0 view .LVU1061
 4631 00e2 C446     		mov	ip, r8
 4632 00e4 1646     		mov	r6, r2
 4633 00e6 0F46     		mov	r7, r1
 4634              	.L324:
 4635              	.LVL370:
 4636              	.LBB1595:
 4637              	.LBI1595:
  41:../../libdaisy/src/hid/disp/oled_display.h ****     {
 4638              		.loc 2 41 10 is_stmt 1 view .LVU1062
 4639              	.LBB1596:
 4640              	.LBI1596:
 239:../../libdaisy/src/dev/oled_ssd130x.h ****     {
 4641              		.loc 12 239 10 view .LVU1063
 4642              	.LBB1597:
 241:../../libdaisy/src/dev/oled_ssd130x.h ****             return;
 4643              		.loc 12 241 9 is_stmt 0 view .LVU1064
 4644 00e8 7F2F     		cmp	r7, #127
 4645 00ea 15D8     		bhi	.L325
 4646 00ec 3F2E     		cmp	r6, #63
 4647 00ee 13D8     		bhi	.L325
 244:../../libdaisy/src/dev/oled_ssd130x.h ****         else
 4648              		.loc 12 244 28 view .LVU1065
 4649 00f0 4FEAD60E 		lsr	lr, r6, #3
 244:../../libdaisy/src/dev/oled_ssd130x.h ****         else
 4650              		.loc 12 244 48 view .LVU1066
 4651 00f4 4FF0010B 		mov	fp, #1
 244:../../libdaisy/src/dev/oled_ssd130x.h ****         else
 4652              		.loc 12 244 54 view .LVU1067
ARM GAS  /tmp/ccobg3TQ.s 			page 133


 4653 00f8 06F0070A 		and	r10, r6, #7
 244:../../libdaisy/src/dev/oled_ssd130x.h ****         else
 4654              		.loc 12 244 42 view .LVU1068
 4655 00fc 07EBCE1E 		add	lr, r7, lr, lsl #7
 244:../../libdaisy/src/dev/oled_ssd130x.h ****         else
 4656              		.loc 12 244 48 view .LVU1069
 4657 0100 0BFA0AFA 		lsl	r10, fp, r10
 244:../../libdaisy/src/dev/oled_ssd130x.h ****         else
 4658              		.loc 12 244 13 view .LVU1070
 4659 0104 8644     		add	lr, lr, r0
 244:../../libdaisy/src/dev/oled_ssd130x.h ****         else
 4660              		.loc 12 244 42 view .LVU1071
 4661 0106 9EF814B0 		ldrb	fp, [lr, #20]	@ zero_extendqisi2
 243:../../libdaisy/src/dev/oled_ssd130x.h ****             buffer_[x + (y / 8) * width] |= (1 << (y % 8));
 4662              		.loc 12 243 9 view .LVU1072
 4663 010a 002D     		cmp	r5, #0
 4664 010c 00F04581 		beq	.L326
 244:../../libdaisy/src/dev/oled_ssd130x.h ****         else
 4665              		.loc 12 244 42 view .LVU1073
 4666 0110 4AEA0B0A 		orr	r10, r10, fp
 244:../../libdaisy/src/dev/oled_ssd130x.h ****         else
 4667              		.loc 12 244 13 view .LVU1074
 4668 0114 8EF814A0 		strb	r10, [lr, #20]
 4669              	.L325:
 4670              	.LVL371:
 244:../../libdaisy/src/dev/oled_ssd130x.h ****         else
 4671              		.loc 12 244 13 view .LVU1075
 4672              	.LBE1597:
 4673              	.LBE1596:
 4674              	.LBE1595:
 243:../../libdaisy/src/hid/disp/display.h ****             {
 4675              		.loc 3 243 13 view .LVU1076
 4676 0118 5FEA4C0E 		lsls	lr, ip, #1
 4677              	.LVL372:
 246:../../libdaisy/src/hid/disp/display.h ****             }
 4678              		.loc 3 246 17 view .LVU1077
 4679 011c 18BF     		it	ne
 4680 011e 4F44     		addne	r7, r7, r9
 4681              	.LVL373:
 249:../../libdaisy/src/hid/disp/display.h ****             {
 4682              		.loc 3 249 13 view .LVU1078
 4683 0120 F045     		cmp	r8, lr
 4684 0122 01DD     		ble	.L328
 251:../../libdaisy/src/hid/disp/display.h ****                 y1 += signY;
 4685              		.loc 3 251 17 view .LVU1079
 4686 0124 C444     		add	ip, ip, r8
 4687              	.LVL374:
 252:../../libdaisy/src/hid/disp/display.h ****             }
 4688              		.loc 3 252 17 view .LVU1080
 4689 0126 013E     		subs	r6, r6, #1
 4690              	.LVL375:
 4691              	.L328:
 239:../../libdaisy/src/hid/disp/display.h ****         {
 4692              		.loc 3 239 26 is_stmt 1 view .LVU1081
 4693 0128 BB42     		cmp	r3, r7
 4694 012a DDD1     		bne	.L324
 239:../../libdaisy/src/hid/disp/display.h ****         {
ARM GAS  /tmp/ccobg3TQ.s 			page 134


 4695              		.loc 3 239 26 is_stmt 0 view .LVU1082
 4696 012c B242     		cmp	r2, r6
 4697 012e DBD1     		bne	.L324
 4698 0130 0026     		movs	r6, #0
 4699              	.LVL376:
 239:../../libdaisy/src/hid/disp/display.h ****         {
 4700              		.loc 3 239 26 view .LVU1083
 4701 0132 0496     		str	r6, [sp, #16]
 4702              	.LVL377:
 4703              	.L321:
 239:../../libdaisy/src/hid/disp/display.h ****         {
 4704              		.loc 3 239 26 view .LVU1084
 4705              	.LBE1582:
 4706              	.LBE1581:
 4707              	.LBB1608:
 4708              	.LBI1608:
 221:../../libdaisy/src/hid/disp/display.h ****                   uint_fast8_t y1,
 4709              		.loc 3 221 10 is_stmt 1 view .LVU1085
 4710              	.LBB1609:
 228:../../libdaisy/src/hid/disp/display.h ****         int_fast16_t signX  = ((x1 < x2) ? 1 : -1);
 4711              		.loc 3 228 52 is_stmt 0 view .LVU1086
 4712 0134 A4EB0209 		sub	r9, r4, r2
 228:../../libdaisy/src/hid/disp/display.h ****         int_fast16_t signX  = ((x1 < x2) ? 1 : -1);
 4713              		.loc 3 228 22 view .LVU1087
 4714 0138 B9F1000F 		cmp	r9, #0
 4715 013c B8BF     		it	lt
 4716 013e C9F10009 		rsblt	r9, r9, #0
 4717              	.LVL378:
 4718              	.LBB1610:
 4719              	.LBB1611:
 4720              	.LBB1612:
 241:../../libdaisy/src/dev/oled_ssd130x.h ****             return;
 4721              		.loc 12 241 28 view .LVU1088
 4722 0142 3F2C     		cmp	r4, #63
 4723 0144 94BF     		ite	ls
 4724 0146 0026     		movls	r6, #0
 4725 0148 0126     		movhi	r6, #1
 4726              	.LBE1612:
 4727              	.LBE1611:
 4728              	.LBE1610:
 230:../../libdaisy/src/hid/disp/display.h ****         int_fast16_t error  = deltaX - deltaY;
 4729              		.loc 3 230 22 view .LVU1089
 4730 014a A242     		cmp	r2, r4
 231:../../libdaisy/src/hid/disp/display.h ****         int_fast16_t error2;
 4731              		.loc 3 231 22 view .LVU1090
 4732 014c C9F10008 		rsb	r8, r9, #0
 4733              	.LBB1625:
 4734              	.LBB1620:
 4735              	.LBB1615:
 241:../../libdaisy/src/dev/oled_ssd130x.h ****             return;
 4736              		.loc 12 241 28 view .LVU1091
 4737 0150 0396     		str	r6, [sp, #12]
 4738              	.LBE1615:
 4739              	.LBE1620:
 4740              	.LBE1625:
 230:../../libdaisy/src/hid/disp/display.h ****         int_fast16_t error  = deltaX - deltaY;
 4741              		.loc 3 230 22 view .LVU1092
ARM GAS  /tmp/ccobg3TQ.s 			page 135


 4742 0152 C0F03181 		bcc	.L329
 4743              	.LVL379:
 4744              	.LBB1626:
 4745              	.LBI1610:
  41:../../libdaisy/src/hid/disp/oled_display.h ****     {
 4746              		.loc 2 41 10 is_stmt 1 view .LVU1093
 4747              	.LBB1621:
 4748              	.LBI1611:
 239:../../libdaisy/src/dev/oled_ssd130x.h ****     {
 4749              		.loc 12 239 10 view .LVU1094
 4750              	.LBB1616:
 241:../../libdaisy/src/dev/oled_ssd130x.h ****             return;
 4751              		.loc 12 241 9 is_stmt 0 view .LVU1095
 4752 0156 002E     		cmp	r6, #0
 4753 0158 40F05381 		bne	.L364
 4754 015c 009E     		ldr	r6, [sp]
 4755 015e 002E     		cmp	r6, #0
 4756 0160 40F04F81 		bne	.L364
 4757              	.LBE1616:
 4758              	.LBE1621:
 4759              	.LBE1626:
 230:../../libdaisy/src/hid/disp/display.h ****         int_fast16_t error  = deltaX - deltaY;
 4760              		.loc 3 230 22 view .LVU1096
 4761 0164 4FF0FF36 		mov	r6, #-1
 4762 0168 0096     		str	r6, [sp]
 4763              	.LBB1627:
 4764              	.LBB1622:
 4765              	.LBB1617:
 243:../../libdaisy/src/dev/oled_ssd130x.h ****             buffer_[x + (y / 8) * width] |= (1 << (y % 8));
 4766              		.loc 12 243 9 view .LVU1097
 4767 016a 002D     		cmp	r5, #0
 4768 016c 00F02C81 		beq	.L331
 4769              	.LVL380:
 4770              	.L404:
 243:../../libdaisy/src/dev/oled_ssd130x.h ****             buffer_[x + (y / 8) * width] |= (1 << (y % 8));
 4771              		.loc 12 243 9 view .LVU1098
 4772 0170 0026     		movs	r6, #0
 244:../../libdaisy/src/dev/oled_ssd130x.h ****         else
 4773              		.loc 12 244 28 view .LVU1099
 4774 0172 4FEAD40E 		lsr	lr, r4, #3
 244:../../libdaisy/src/dev/oled_ssd130x.h ****         else
 4775              		.loc 12 244 48 view .LVU1100
 4776 0176 4FF0010C 		mov	ip, #1
 244:../../libdaisy/src/dev/oled_ssd130x.h ****         else
 4777              		.loc 12 244 54 view .LVU1101
 4778 017a 04F00707 		and	r7, r4, #7
 4779 017e 0396     		str	r6, [sp, #12]
 244:../../libdaisy/src/dev/oled_ssd130x.h ****         else
 4780              		.loc 12 244 42 view .LVU1102
 4781 0180 03EBCE16 		add	r6, r3, lr, lsl #7
 244:../../libdaisy/src/dev/oled_ssd130x.h ****         else
 4782              		.loc 12 244 48 view .LVU1103
 4783 0184 0CFA07F7 		lsl	r7, ip, r7
 244:../../libdaisy/src/dev/oled_ssd130x.h ****         else
 4784              		.loc 12 244 13 view .LVU1104
 4785 0188 0644     		add	r6, r6, r0
 244:../../libdaisy/src/dev/oled_ssd130x.h ****         else
ARM GAS  /tmp/ccobg3TQ.s 			page 136


 4786              		.loc 12 244 42 view .LVU1105
 4787 018a 96F814C0 		ldrb	ip, [r6, #20]	@ zero_extendqisi2
 4788 018e 47EA0C07 		orr	r7, r7, ip
 244:../../libdaisy/src/dev/oled_ssd130x.h ****         else
 4789              		.loc 12 244 13 view .LVU1106
 4790 0192 3775     		strb	r7, [r6, #20]
 4791              	.L330:
 4792              	.LVL381:
 244:../../libdaisy/src/dev/oled_ssd130x.h ****         else
 4793              		.loc 12 244 13 view .LVU1107
 4794              	.LBE1617:
 4795              	.LBE1622:
 4796              	.LBE1627:
 239:../../libdaisy/src/hid/disp/display.h ****         {
 4797              		.loc 3 239 26 is_stmt 1 view .LVU1108
 4798 0194 A242     		cmp	r2, r4
 4799 0196 00F03E81 		beq	.L402
 4800              	.L333:
 4801              	.LVL382:
 230:../../libdaisy/src/hid/disp/display.h ****         int_fast16_t error  = deltaX - deltaY;
 4802              		.loc 3 230 22 is_stmt 0 view .LVU1109
 4803 019a C446     		mov	ip, r8
 4804 019c 1646     		mov	r6, r2
 4805 019e 1F46     		mov	r7, r3
 4806 01a0 0592     		str	r2, [sp, #20]
 4807              	.LVL383:
 4808              	.L335:
 4809              	.LBB1628:
 4810              	.LBI1628:
  41:../../libdaisy/src/hid/disp/oled_display.h ****     {
 4811              		.loc 2 41 10 is_stmt 1 view .LVU1110
 4812              	.LBB1629:
 4813              	.LBI1629:
 239:../../libdaisy/src/dev/oled_ssd130x.h ****     {
 4814              		.loc 12 239 10 view .LVU1111
 4815              	.LBB1630:
 241:../../libdaisy/src/dev/oled_ssd130x.h ****             return;
 4816              		.loc 12 241 9 is_stmt 0 view .LVU1112
 4817 01a2 7F2F     		cmp	r7, #127
 4818 01a4 15D8     		bhi	.L336
 4819 01a6 3F2E     		cmp	r6, #63
 4820 01a8 13D8     		bhi	.L336
 244:../../libdaisy/src/dev/oled_ssd130x.h ****         else
 4821              		.loc 12 244 28 view .LVU1113
 4822 01aa 4FEAD60E 		lsr	lr, r6, #3
 244:../../libdaisy/src/dev/oled_ssd130x.h ****         else
 4823              		.loc 12 244 48 view .LVU1114
 4824 01ae 4FF0010B 		mov	fp, #1
 244:../../libdaisy/src/dev/oled_ssd130x.h ****         else
 4825              		.loc 12 244 54 view .LVU1115
 4826 01b2 06F0070A 		and	r10, r6, #7
 244:../../libdaisy/src/dev/oled_ssd130x.h ****         else
 4827              		.loc 12 244 42 view .LVU1116
 4828 01b6 07EBCE1E 		add	lr, r7, lr, lsl #7
 244:../../libdaisy/src/dev/oled_ssd130x.h ****         else
 4829              		.loc 12 244 48 view .LVU1117
 4830 01ba 0BFA0AFA 		lsl	r10, fp, r10
ARM GAS  /tmp/ccobg3TQ.s 			page 137


 244:../../libdaisy/src/dev/oled_ssd130x.h ****         else
 4831              		.loc 12 244 13 view .LVU1118
 4832 01be 8644     		add	lr, lr, r0
 244:../../libdaisy/src/dev/oled_ssd130x.h ****         else
 4833              		.loc 12 244 42 view .LVU1119
 4834 01c0 9EF814B0 		ldrb	fp, [lr, #20]	@ zero_extendqisi2
 243:../../libdaisy/src/dev/oled_ssd130x.h ****             buffer_[x + (y / 8) * width] |= (1 << (y % 8));
 4835              		.loc 12 243 9 view .LVU1120
 4836 01c4 002D     		cmp	r5, #0
 4837 01c6 00F0ED80 		beq	.L337
 244:../../libdaisy/src/dev/oled_ssd130x.h ****         else
 4838              		.loc 12 244 42 view .LVU1121
 4839 01ca 4AEA0B0A 		orr	r10, r10, fp
 244:../../libdaisy/src/dev/oled_ssd130x.h ****         else
 4840              		.loc 12 244 13 view .LVU1122
 4841 01ce 8EF814A0 		strb	r10, [lr, #20]
 4842              	.L336:
 4843              	.LVL384:
 244:../../libdaisy/src/dev/oled_ssd130x.h ****         else
 4844              		.loc 12 244 13 view .LVU1123
 4845              	.LBE1630:
 4846              	.LBE1629:
 4847              	.LBE1628:
 243:../../libdaisy/src/hid/disp/display.h ****             {
 4848              		.loc 3 243 13 view .LVU1124
 4849 01d2 B8EB4C0F 		cmp	r8, ip, lsl #1
 242:../../libdaisy/src/hid/disp/display.h ****             if(error2 > -deltaY)
 4850              		.loc 3 242 13 view .LVU1125
 4851 01d6 4FEA4C0E 		lsl	lr, ip, #1
 4852              	.LVL385:
 243:../../libdaisy/src/hid/disp/display.h ****             {
 4853              		.loc 3 243 13 view .LVU1126
 4854 01da 02DA     		bge	.L338
 245:../../libdaisy/src/hid/disp/display.h ****                 x1 += signX;
 4855              		.loc 3 245 17 view .LVU1127
 4856 01dc ACEB090C 		sub	ip, ip, r9
 4857              	.LVL386:
 246:../../libdaisy/src/hid/disp/display.h ****             }
 4858              		.loc 3 246 17 view .LVU1128
 4859 01e0 013F     		subs	r7, r7, #1
 4860              	.LVL387:
 4861              	.L338:
 249:../../libdaisy/src/hid/disp/display.h ****             {
 4862              		.loc 3 249 13 view .LVU1129
 4863 01e2 BEF1000F 		cmp	lr, #0
 4864 01e6 01D0     		beq	.L339
 252:../../libdaisy/src/hid/disp/display.h ****             }
 4865              		.loc 3 252 17 view .LVU1130
 4866 01e8 009A     		ldr	r2, [sp]
 4867 01ea 1644     		add	r6, r6, r2
 4868              	.LVL388:
 4869              	.L339:
 239:../../libdaisy/src/hid/disp/display.h ****         {
 4870              		.loc 3 239 26 is_stmt 1 view .LVU1131
 4871 01ec BB42     		cmp	r3, r7
 4872 01ee D8D1     		bne	.L335
 239:../../libdaisy/src/hid/disp/display.h ****         {
ARM GAS  /tmp/ccobg3TQ.s 			page 138


 4873              		.loc 3 239 26 is_stmt 0 view .LVU1132
 4874 01f0 B442     		cmp	r4, r6
 4875 01f2 D6D1     		bne	.L335
 4876 01f4 059A     		ldr	r2, [sp, #20]
 4877              	.LVL389:
 4878              	.L332:
 239:../../libdaisy/src/hid/disp/display.h ****         {
 4879              		.loc 3 239 26 view .LVU1133
 4880              	.LBE1609:
 4881              	.LBE1608:
 4882              	.LBB1642:
 4883              	.LBI1642:
 221:../../libdaisy/src/hid/disp/display.h ****                   uint_fast8_t y1,
 4884              		.loc 3 221 10 is_stmt 1 view .LVU1134
 4885              	.LBB1643:
 4886              	.LBB1644:
 4887              	.LBB1645:
 4888              	.LBB1646:
 241:../../libdaisy/src/dev/oled_ssd130x.h ****             return;
 4889              		.loc 12 241 14 is_stmt 0 view .LVU1135
 4890 01f6 7F29     		cmp	r1, #127
 4891              	.LBE1646:
 4892              	.LBE1645:
 4893              	.LBE1644:
 227:../../libdaisy/src/hid/disp/display.h ****         int_fast16_t deltaY = abs((int_fast16_t)y2 - (int_fast16_t)y1);
 4894              		.loc 3 227 52 view .LVU1136
 4895 01f8 A1EB030E 		sub	lr, r1, r3
 4896              	.LBB1655:
 4897              	.LBB1652:
 4898              	.LBB1649:
 241:../../libdaisy/src/dev/oled_ssd130x.h ****             return;
 4899              		.loc 12 241 14 view .LVU1137
 4900 01fc 94BF     		ite	ls
 4901 01fe 4FF00009 		movls	r9, #0
 4902 0202 4FF00109 		movhi	r9, #1
 4903              	.LBE1649:
 4904              	.LBE1652:
 4905              	.LBE1655:
 229:../../libdaisy/src/hid/disp/display.h ****         int_fast16_t signY  = ((y1 < y2) ? 1 : -1);
 4906              		.loc 3 229 22 view .LVU1138
 4907 0206 9942     		cmp	r1, r3
 4908 0208 8CBF     		ite	hi
 4909 020a 4FF00108 		movhi	r8, #1
 4910 020e 4FF0FF38 		movls	r8, #-1
 227:../../libdaisy/src/hid/disp/display.h ****         int_fast16_t deltaY = abs((int_fast16_t)y2 - (int_fast16_t)y1);
 4911              		.loc 3 227 22 view .LVU1139
 4912 0212 BEF1000F 		cmp	lr, #0
 4913 0216 B8BF     		it	lt
 4914 0218 CEF1000E 		rsblt	lr, lr, #0
 4915              	.LVL390:
 4916              	.LBB1656:
 4917              	.LBI1644:
  41:../../libdaisy/src/hid/disp/oled_display.h ****     {
 4918              		.loc 2 41 10 is_stmt 1 view .LVU1140
 4919              	.LBB1653:
 4920              	.LBI1645:
 239:../../libdaisy/src/dev/oled_ssd130x.h ****     {
ARM GAS  /tmp/ccobg3TQ.s 			page 139


 4921              		.loc 12 239 10 view .LVU1141
 4922              	.LBB1650:
 241:../../libdaisy/src/dev/oled_ssd130x.h ****             return;
 4923              		.loc 12 241 9 is_stmt 0 view .LVU1142
 4924 021c B9F1000F 		cmp	r9, #0
 4925 0220 13D1     		bne	.L341
 4926 0222 039E     		ldr	r6, [sp, #12]
 4927 0224 8EB9     		cbnz	r6, .L341
 244:../../libdaisy/src/dev/oled_ssd130x.h ****         else
 4928              		.loc 12 244 28 view .LVU1143
 4929 0226 E608     		lsrs	r6, r4, #3
 244:../../libdaisy/src/dev/oled_ssd130x.h ****         else
 4930              		.loc 12 244 48 view .LVU1144
 4931 0228 4FF0010C 		mov	ip, #1
 244:../../libdaisy/src/dev/oled_ssd130x.h ****         else
 4932              		.loc 12 244 54 view .LVU1145
 4933 022c 04F00707 		and	r7, r4, #7
 244:../../libdaisy/src/dev/oled_ssd130x.h ****         else
 4934              		.loc 12 244 42 view .LVU1146
 4935 0230 01EBC616 		add	r6, r1, r6, lsl #7
 244:../../libdaisy/src/dev/oled_ssd130x.h ****         else
 4936              		.loc 12 244 48 view .LVU1147
 4937 0234 0CFA07F7 		lsl	r7, ip, r7
 244:../../libdaisy/src/dev/oled_ssd130x.h ****         else
 4938              		.loc 12 244 13 view .LVU1148
 4939 0238 0644     		add	r6, r6, r0
 244:../../libdaisy/src/dev/oled_ssd130x.h ****         else
 4940              		.loc 12 244 42 view .LVU1149
 4941 023a 96F814C0 		ldrb	ip, [r6, #20]	@ zero_extendqisi2
 243:../../libdaisy/src/dev/oled_ssd130x.h ****             buffer_[x + (y / 8) * width] |= (1 << (y % 8));
 4942              		.loc 12 243 9 view .LVU1150
 4943 023e 002D     		cmp	r5, #0
 4944 0240 00F0DB80 		beq	.L342
 244:../../libdaisy/src/dev/oled_ssd130x.h ****         else
 4945              		.loc 12 244 42 view .LVU1151
 4946 0244 47EA0C07 		orr	r7, r7, ip
 244:../../libdaisy/src/dev/oled_ssd130x.h ****         else
 4947              		.loc 12 244 13 view .LVU1152
 4948 0248 3775     		strb	r7, [r6, #20]
 4949              	.L341:
 4950              	.LVL391:
 244:../../libdaisy/src/dev/oled_ssd130x.h ****         else
 4951              		.loc 12 244 13 view .LVU1153
 4952              	.LBE1650:
 4953              	.LBE1653:
 4954              	.LBE1656:
 239:../../libdaisy/src/hid/disp/display.h ****         {
 4955              		.loc 3 239 26 is_stmt 1 view .LVU1154
 4956 024a 049E     		ldr	r6, [sp, #16]
 4957 024c 2EBB     		cbnz	r6, .L343
 227:../../libdaisy/src/hid/disp/display.h ****         int_fast16_t deltaY = abs((int_fast16_t)y2 - (int_fast16_t)y1);
 4958              		.loc 3 227 22 is_stmt 0 view .LVU1155
 4959 024e 7746     		mov	r7, lr
 239:../../libdaisy/src/hid/disp/display.h ****         {
 4960              		.loc 3 239 26 view .LVU1156
 4961 0250 2646     		mov	r6, r4
 4962              	.LVL392:
ARM GAS  /tmp/ccobg3TQ.s 			page 140


 4963              	.L344:
 4964              	.LBB1657:
 4965              	.LBI1657:
  41:../../libdaisy/src/hid/disp/oled_display.h ****     {
 4966              		.loc 2 41 10 is_stmt 1 view .LVU1157
 4967              	.LBB1658:
 4968              	.LBI1658:
 239:../../libdaisy/src/dev/oled_ssd130x.h ****     {
 4969              		.loc 12 239 10 view .LVU1158
 4970              	.LBB1659:
 241:../../libdaisy/src/dev/oled_ssd130x.h ****             return;
 4971              		.loc 12 241 9 is_stmt 0 view .LVU1159
 4972 0252 7F2B     		cmp	r3, #127
 4973 0254 15D8     		bhi	.L346
 241:../../libdaisy/src/dev/oled_ssd130x.h ****             return;
 4974              		.loc 12 241 9 view .LVU1160
 4975 0256 3F2E     		cmp	r6, #63
 4976 0258 13D8     		bhi	.L346
 244:../../libdaisy/src/dev/oled_ssd130x.h ****         else
 4977              		.loc 12 244 28 view .LVU1161
 4978 025a 4FEAD60C 		lsr	ip, r6, #3
 244:../../libdaisy/src/dev/oled_ssd130x.h ****         else
 4979              		.loc 12 244 48 view .LVU1162
 4980 025e 4FF0010B 		mov	fp, #1
 244:../../libdaisy/src/dev/oled_ssd130x.h ****         else
 4981              		.loc 12 244 54 view .LVU1163
 4982 0262 06F0070A 		and	r10, r6, #7
 244:../../libdaisy/src/dev/oled_ssd130x.h ****         else
 4983              		.loc 12 244 42 view .LVU1164
 4984 0266 03EBCC1C 		add	ip, r3, ip, lsl #7
 244:../../libdaisy/src/dev/oled_ssd130x.h ****         else
 4985              		.loc 12 244 48 view .LVU1165
 4986 026a 0BFA0AFA 		lsl	r10, fp, r10
 244:../../libdaisy/src/dev/oled_ssd130x.h ****         else
 4987              		.loc 12 244 13 view .LVU1166
 4988 026e 8444     		add	ip, ip, r0
 244:../../libdaisy/src/dev/oled_ssd130x.h ****         else
 4989              		.loc 12 244 42 view .LVU1167
 4990 0270 9CF814B0 		ldrb	fp, [ip, #20]	@ zero_extendqisi2
 243:../../libdaisy/src/dev/oled_ssd130x.h ****             buffer_[x + (y / 8) * width] |= (1 << (y % 8));
 4991              		.loc 12 243 9 view .LVU1168
 4992 0274 002D     		cmp	r5, #0
 4993 0276 00F09A80 		beq	.L347
 244:../../libdaisy/src/dev/oled_ssd130x.h ****         else
 4994              		.loc 12 244 42 view .LVU1169
 4995 027a 4AEA0B0A 		orr	r10, r10, fp
 244:../../libdaisy/src/dev/oled_ssd130x.h ****         else
 4996              		.loc 12 244 13 view .LVU1170
 4997 027e 8CF814A0 		strb	r10, [ip, #20]
 4998              	.L346:
 4999              	.LVL393:
 244:../../libdaisy/src/dev/oled_ssd130x.h ****         else
 5000              		.loc 12 244 13 view .LVU1171
 5001              	.LBE1659:
 5002              	.LBE1658:
 5003              	.LBE1657:
 243:../../libdaisy/src/hid/disp/display.h ****             {
ARM GAS  /tmp/ccobg3TQ.s 			page 141


 5004              		.loc 3 243 13 view .LVU1172
 5005 0282 5FEA470C 		lsls	ip, r7, #1
 5006              	.LVL394:
 246:../../libdaisy/src/hid/disp/display.h ****             }
 5007              		.loc 3 246 17 view .LVU1173
 5008 0286 18BF     		it	ne
 5009 0288 4344     		addne	r3, r3, r8
 5010              	.LVL395:
 249:../../libdaisy/src/hid/disp/display.h ****             {
 5011              		.loc 3 249 13 view .LVU1174
 5012 028a E645     		cmp	lr, ip
 5013 028c 01DD     		ble	.L349
 251:../../libdaisy/src/hid/disp/display.h ****                 y1 += signY;
 5014              		.loc 3 251 17 view .LVU1175
 5015 028e 7744     		add	r7, r7, lr
 5016              	.LVL396:
 252:../../libdaisy/src/hid/disp/display.h ****             }
 5017              		.loc 3 252 17 view .LVU1176
 5018 0290 013E     		subs	r6, r6, #1
 5019              	.LVL397:
 5020              	.L349:
 239:../../libdaisy/src/hid/disp/display.h ****         {
 5021              		.loc 3 239 26 is_stmt 1 view .LVU1177
 5022 0292 9942     		cmp	r1, r3
 5023 0294 DDD1     		bne	.L344
 239:../../libdaisy/src/hid/disp/display.h ****         {
 5024              		.loc 3 239 26 is_stmt 0 view .LVU1178
 5025 0296 B442     		cmp	r4, r6
 5026 0298 DBD1     		bne	.L344
 5027              	.LVL398:
 5028              	.L343:
 239:../../libdaisy/src/hid/disp/display.h ****         {
 5029              		.loc 3 239 26 view .LVU1179
 5030              	.LBE1643:
 5031              	.LBE1642:
 5032              	.LBB1668:
 5033              	.LBI1668:
 221:../../libdaisy/src/hid/disp/display.h ****                   uint_fast8_t y1,
 5034              		.loc 3 221 10 is_stmt 1 view .LVU1180
 5035              	.LBB1669:
 228:../../libdaisy/src/hid/disp/display.h ****         int_fast16_t signX  = ((x1 < x2) ? 1 : -1);
 5036              		.loc 3 228 52 is_stmt 0 view .LVU1181
 5037 029a A2EB040E 		sub	lr, r2, r4
 230:../../libdaisy/src/hid/disp/display.h ****         int_fast16_t error  = deltaX - deltaY;
 5038              		.loc 3 230 22 view .LVU1182
 5039 029e A242     		cmp	r2, r4
 5040 02a0 8CBF     		ite	hi
 5041 02a2 4FF00108 		movhi	r8, #1
 5042 02a6 4FF0FF38 		movls	r8, #-1
 5043              	.LVL399:
 228:../../libdaisy/src/hid/disp/display.h ****         int_fast16_t signX  = ((x1 < x2) ? 1 : -1);
 5044              		.loc 3 228 22 view .LVU1183
 5045 02aa BEF1000F 		cmp	lr, #0
 5046 02ae B8BF     		it	lt
 5047 02b0 CEF1000E 		rsblt	lr, lr, #0
 5048              	.LVL400:
 231:../../libdaisy/src/hid/disp/display.h ****         int_fast16_t error2;
ARM GAS  /tmp/ccobg3TQ.s 			page 142


 5049              		.loc 3 231 22 view .LVU1184
 5050 02b4 CEF1000C 		rsb	ip, lr, #0
 5051              	.LVL401:
 5052              	.LBB1670:
 5053              	.LBI1670:
  41:../../libdaisy/src/hid/disp/oled_display.h ****     {
 5054              		.loc 2 41 10 is_stmt 1 view .LVU1185
 5055              	.LBB1671:
 5056              	.LBI1671:
 239:../../libdaisy/src/dev/oled_ssd130x.h ****     {
 5057              		.loc 12 239 10 view .LVU1186
 5058              	.LBB1672:
 241:../../libdaisy/src/dev/oled_ssd130x.h ****             return;
 5059              		.loc 12 241 9 is_stmt 0 view .LVU1187
 5060 02b8 B9F1000F 		cmp	r9, #0
 5061 02bc 0FD1     		bne	.L351
 5062 02be 029B     		ldr	r3, [sp, #8]
 5063 02c0 6BB9     		cbnz	r3, .L351
 244:../../libdaisy/src/dev/oled_ssd130x.h ****         else
 5064              		.loc 12 244 28 view .LVU1188
 5065 02c2 D308     		lsrs	r3, r2, #3
 244:../../libdaisy/src/dev/oled_ssd130x.h ****         else
 5066              		.loc 12 244 54 view .LVU1189
 5067 02c4 02F00707 		and	r7, r2, #7
 244:../../libdaisy/src/dev/oled_ssd130x.h ****         else
 5068              		.loc 12 244 48 view .LVU1190
 5069 02c8 0126     		movs	r6, #1
 244:../../libdaisy/src/dev/oled_ssd130x.h ****         else
 5070              		.loc 12 244 42 view .LVU1191
 5071 02ca 01EBC313 		add	r3, r1, r3, lsl #7
 243:../../libdaisy/src/dev/oled_ssd130x.h ****             buffer_[x + (y / 8) * width] |= (1 << (y % 8));
 5072              		.loc 12 243 9 view .LVU1192
 5073 02ce 002D     		cmp	r5, #0
 5074 02d0 00F08B80 		beq	.L352
 244:../../libdaisy/src/dev/oled_ssd130x.h ****         else
 5075              		.loc 12 244 13 view .LVU1193
 5076 02d4 0344     		add	r3, r3, r0
 244:../../libdaisy/src/dev/oled_ssd130x.h ****         else
 5077              		.loc 12 244 48 view .LVU1194
 5078 02d6 BE40     		lsls	r6, r6, r7
 244:../../libdaisy/src/dev/oled_ssd130x.h ****         else
 5079              		.loc 12 244 42 view .LVU1195
 5080 02d8 1F7D     		ldrb	r7, [r3, #20]	@ zero_extendqisi2
 5081 02da 3E43     		orrs	r6, r6, r7
 244:../../libdaisy/src/dev/oled_ssd130x.h ****         else
 5082              		.loc 12 244 13 view .LVU1196
 5083 02dc 1E75     		strb	r6, [r3, #20]
 5084              	.L351:
 5085              	.LVL402:
 244:../../libdaisy/src/dev/oled_ssd130x.h ****         else
 5086              		.loc 12 244 13 view .LVU1197
 5087              	.LBE1672:
 5088              	.LBE1671:
 5089              	.LBE1670:
 239:../../libdaisy/src/hid/disp/display.h ****         {
 5090              		.loc 3 239 26 is_stmt 1 view .LVU1198
 5091 02de 019B     		ldr	r3, [sp, #4]
ARM GAS  /tmp/ccobg3TQ.s 			page 143


 5092 02e0 002B     		cmp	r3, #0
 5093 02e2 7FF4C8AE 		bne	.L309
 5094 02e6 6646     		mov	r6, ip
 5095 02e8 0B46     		mov	r3, r1
 5096              	.LVL403:
 5097              	.L353:
 5098              	.LBB1677:
 5099              	.LBI1677:
  41:../../libdaisy/src/hid/disp/oled_display.h ****     {
 5100              		.loc 2 41 10 view .LVU1199
 5101              	.LBB1678:
 5102              	.LBI1678:
 239:../../libdaisy/src/dev/oled_ssd130x.h ****     {
 5103              		.loc 12 239 10 view .LVU1200
 5104              	.LBB1679:
 241:../../libdaisy/src/dev/oled_ssd130x.h ****             return;
 5105              		.loc 12 241 9 is_stmt 0 view .LVU1201
 5106 02ea 7F2B     		cmp	r3, #127
 5107 02ec 13D8     		bhi	.L355
 241:../../libdaisy/src/dev/oled_ssd130x.h ****             return;
 5108              		.loc 12 241 9 view .LVU1202
 5109 02ee 3F2C     		cmp	r4, #63
 5110 02f0 11D8     		bhi	.L355
 244:../../libdaisy/src/dev/oled_ssd130x.h ****         else
 5111              		.loc 12 244 28 view .LVU1203
 5112 02f2 E708     		lsrs	r7, r4, #3
 244:../../libdaisy/src/dev/oled_ssd130x.h ****         else
 5113              		.loc 12 244 54 view .LVU1204
 5114 02f4 04F0070A 		and	r10, r4, #7
 244:../../libdaisy/src/dev/oled_ssd130x.h ****         else
 5115              		.loc 12 244 48 view .LVU1205
 5116 02f8 4FF00109 		mov	r9, #1
 244:../../libdaisy/src/dev/oled_ssd130x.h ****         else
 5117              		.loc 12 244 42 view .LVU1206
 5118 02fc 03EBC717 		add	r7, r3, r7, lsl #7
 243:../../libdaisy/src/dev/oled_ssd130x.h ****             buffer_[x + (y / 8) * width] |= (1 << (y % 8));
 5119              		.loc 12 243 9 view .LVU1207
 5120 0300 002D     		cmp	r5, #0
 5121 0302 40D0     		beq	.L356
 244:../../libdaisy/src/dev/oled_ssd130x.h ****         else
 5122              		.loc 12 244 13 view .LVU1208
 5123 0304 0744     		add	r7, r7, r0
 244:../../libdaisy/src/dev/oled_ssd130x.h ****         else
 5124              		.loc 12 244 48 view .LVU1209
 5125 0306 09FA0AF9 		lsl	r9, r9, r10
 244:../../libdaisy/src/dev/oled_ssd130x.h ****         else
 5126              		.loc 12 244 42 view .LVU1210
 5127 030a 97F814A0 		ldrb	r10, [r7, #20]	@ zero_extendqisi2
 5128 030e 49EA0A09 		orr	r9, r9, r10
 244:../../libdaisy/src/dev/oled_ssd130x.h ****         else
 5129              		.loc 12 244 13 view .LVU1211
 5130 0312 87F81490 		strb	r9, [r7, #20]
 5131              	.L355:
 5132              	.LVL404:
 244:../../libdaisy/src/dev/oled_ssd130x.h ****         else
 5133              		.loc 12 244 13 view .LVU1212
 5134              	.LBE1679:
ARM GAS  /tmp/ccobg3TQ.s 			page 144


 5135              	.LBE1678:
 5136              	.LBE1677:
 243:../../libdaisy/src/hid/disp/display.h ****             {
 5137              		.loc 3 243 13 view .LVU1213
 5138 0316 BCEB460F 		cmp	ip, r6, lsl #1
 242:../../libdaisy/src/hid/disp/display.h ****             if(error2 > -deltaY)
 5139              		.loc 3 242 13 view .LVU1214
 5140 031a 4FEA4607 		lsl	r7, r6, #1
 5141              	.LVL405:
 243:../../libdaisy/src/hid/disp/display.h ****             {
 5142              		.loc 3 243 13 view .LVU1215
 5143 031e 02DA     		bge	.L357
 245:../../libdaisy/src/hid/disp/display.h ****                 x1 += signX;
 5144              		.loc 3 245 17 view .LVU1216
 5145 0320 A6EB0E06 		sub	r6, r6, lr
 5146              	.LVL406:
 246:../../libdaisy/src/hid/disp/display.h ****             }
 5147              		.loc 3 246 17 view .LVU1217
 5148 0324 013B     		subs	r3, r3, #1
 5149              	.LVL407:
 5150              	.L357:
 249:../../libdaisy/src/hid/disp/display.h ****             {
 5151              		.loc 3 249 13 view .LVU1218
 5152 0326 07B1     		cbz	r7, .L358
 252:../../libdaisy/src/hid/disp/display.h ****             }
 5153              		.loc 3 252 17 view .LVU1219
 5154 0328 4444     		add	r4, r4, r8
 5155              	.LVL408:
 5156              	.L358:
 239:../../libdaisy/src/hid/disp/display.h ****         {
 5157              		.loc 3 239 26 is_stmt 1 view .LVU1220
 5158 032a 9942     		cmp	r1, r3
 5159 032c DDD1     		bne	.L353
 239:../../libdaisy/src/hid/disp/display.h ****         {
 5160              		.loc 3 239 26 is_stmt 0 view .LVU1221
 5161 032e A242     		cmp	r2, r4
 5162 0330 DBD1     		bne	.L353
 5163              	.LBE1669:
 5164              	.LBE1668:
 5165              	.LBE1580:
 281:../../libdaisy/src/hid/disp/display.h **** 
 5166              		.loc 3 281 5 view .LVU1222
 5167 0332 07B0     		add	sp, sp, #28
 5168              		.cfi_remember_state
 5169              		.cfi_def_cfa_offset 36
 5170              		@ sp needed
 5171 0334 BDE8F08F 		pop	{r4, r5, r6, r7, r8, r9, r10, fp, pc}
 5172              	.LVL409:
 5173              	.L400:
 5174              		.cfi_restore_state
 5175              	.LBB1699:
 5176              	.LBB1688:
 5177              	.LBB1605:
 5178              	.LBB1602:
  41:../../libdaisy/src/hid/disp/oled_display.h ****     {
 5179              		.loc 2 41 10 is_stmt 1 view .LVU1223
 5180              	.LBB1592:
ARM GAS  /tmp/ccobg3TQ.s 			page 145


 239:../../libdaisy/src/dev/oled_ssd130x.h ****     {
 5181              		.loc 12 239 10 view .LVU1224
 5182              	.LBB1589:
 241:../../libdaisy/src/dev/oled_ssd130x.h ****             return;
 5183              		.loc 12 241 14 is_stmt 0 view .LVU1225
 5184 0338 7F2B     		cmp	r3, #127
 5185              	.LBE1589:
 5186              	.LBE1592:
 5187              	.LBE1602:
 229:../../libdaisy/src/hid/disp/display.h ****         int_fast16_t signY  = ((y1 < y2) ? 1 : -1);
 5188              		.loc 3 229 22 view .LVU1226
 5189 033a 4FF0FF39 		mov	r9, #-1
 5190              	.LBB1603:
 5191              	.LBB1593:
 5192              	.LBB1590:
 241:../../libdaisy/src/dev/oled_ssd130x.h ****             return;
 5193              		.loc 12 241 14 view .LVU1227
 5194 033e 94BF     		ite	ls
 5195 0340 0026     		movls	r6, #0
 5196 0342 0126     		movhi	r6, #1
 241:../../libdaisy/src/dev/oled_ssd130x.h ****             return;
 5197              		.loc 12 241 28 view .LVU1228
 5198 0344 3F2A     		cmp	r2, #63
 241:../../libdaisy/src/dev/oled_ssd130x.h ****             return;
 5199              		.loc 12 241 14 view .LVU1229
 5200 0346 0096     		str	r6, [sp]
 241:../../libdaisy/src/dev/oled_ssd130x.h ****             return;
 5201              		.loc 12 241 28 view .LVU1230
 5202 0348 94BF     		ite	ls
 5203 034a 0027     		movls	r7, #0
 5204 034c 0127     		movhi	r7, #1
 5205 034e 0297     		str	r7, [sp, #8]
 241:../../libdaisy/src/dev/oled_ssd130x.h ****             return;
 5206              		.loc 12 241 9 view .LVU1231
 5207 0350 002E     		cmp	r6, #0
 5208 0352 7FF4C3AE 		bne	.L319
 5209 0356 002F     		cmp	r7, #0
 5210 0358 7FF4C0AE 		bne	.L319
 243:../../libdaisy/src/dev/oled_ssd130x.h ****             buffer_[x + (y / 8) * width] |= (1 << (y % 8));
 5211              		.loc 12 243 9 view .LVU1232
 5212 035c 002D     		cmp	r5, #0
 5213 035e 7FF4A8AE 		bne	.L403
 5214              	.LVL410:
 5215              	.L320:
 5216              	.LBB1586:
 5217              	.LBI1586:
 239:../../libdaisy/src/dev/oled_ssd130x.h ****     {
 5218              		.loc 12 239 10 is_stmt 1 view .LVU1233
 5219              	.LBB1587:
 246:../../libdaisy/src/dev/oled_ssd130x.h ****     }
 5220              		.loc 12 246 28 is_stmt 0 view .LVU1234
 5221 0362 D608     		lsrs	r6, r2, #3
 246:../../libdaisy/src/dev/oled_ssd130x.h ****     }
 5222              		.loc 12 246 49 view .LVU1235
 5223 0364 4FF0010C 		mov	ip, #1
 246:../../libdaisy/src/dev/oled_ssd130x.h ****     }
 5224              		.loc 12 246 55 view .LVU1236
ARM GAS  /tmp/ccobg3TQ.s 			page 146


 5225 0368 02F00707 		and	r7, r2, #7
 246:../../libdaisy/src/dev/oled_ssd130x.h ****     }
 5226              		.loc 12 246 13 view .LVU1237
 5227 036c 0295     		str	r5, [sp, #8]
 246:../../libdaisy/src/dev/oled_ssd130x.h ****     }
 5228              		.loc 12 246 42 view .LVU1238
 5229 036e 03EBC616 		add	r6, r3, r6, lsl #7
 246:../../libdaisy/src/dev/oled_ssd130x.h ****     }
 5230              		.loc 12 246 13 view .LVU1239
 5231 0372 0095     		str	r5, [sp]
 246:../../libdaisy/src/dev/oled_ssd130x.h ****     }
 5232              		.loc 12 246 49 view .LVU1240
 5233 0374 0CFA07F7 		lsl	r7, ip, r7
 246:../../libdaisy/src/dev/oled_ssd130x.h ****     }
 5234              		.loc 12 246 13 view .LVU1241
 5235 0378 0644     		add	r6, r6, r0
 246:../../libdaisy/src/dev/oled_ssd130x.h ****     }
 5236              		.loc 12 246 42 view .LVU1242
 5237 037a 96F814C0 		ldrb	ip, [r6, #20]	@ zero_extendqisi2
 5238 037e 2CEA0707 		bic	r7, ip, r7
 246:../../libdaisy/src/dev/oled_ssd130x.h ****     }
 5239              		.loc 12 246 13 view .LVU1243
 5240 0382 3775     		strb	r7, [r6, #20]
 5241 0384 AAE6     		b	.L319
 5242              	.LVL411:
 5243              	.L356:
 246:../../libdaisy/src/dev/oled_ssd130x.h ****     }
 5244              		.loc 12 246 13 view .LVU1244
 5245              	.LBE1587:
 5246              	.LBE1586:
 5247              	.LBE1590:
 5248              	.LBE1593:
 5249              	.LBE1603:
 5250              	.LBE1605:
 5251              	.LBE1688:
 5252              	.LBB1689:
 5253              	.LBB1686:
 5254              	.LBB1684:
 5255              	.LBB1683:
 5256              	.LBB1682:
 5257              	.LBB1680:
 5258              	.LBI1680:
 239:../../libdaisy/src/dev/oled_ssd130x.h ****     {
 5259              		.loc 12 239 10 is_stmt 1 view .LVU1245
 5260              	.LBB1681:
 246:../../libdaisy/src/dev/oled_ssd130x.h ****     }
 5261              		.loc 12 246 13 is_stmt 0 view .LVU1246
 5262 0386 0744     		add	r7, r7, r0
 246:../../libdaisy/src/dev/oled_ssd130x.h ****     }
 5263              		.loc 12 246 49 view .LVU1247
 5264 0388 09FA0AFA 		lsl	r10, r9, r10
 246:../../libdaisy/src/dev/oled_ssd130x.h ****     }
 5265              		.loc 12 246 42 view .LVU1248
 5266 038c 97F81490 		ldrb	r9, [r7, #20]	@ zero_extendqisi2
 5267 0390 29EA0A09 		bic	r9, r9, r10
 246:../../libdaisy/src/dev/oled_ssd130x.h ****     }
 5268              		.loc 12 246 13 view .LVU1249
ARM GAS  /tmp/ccobg3TQ.s 			page 147


 5269 0394 87F81490 		strb	r9, [r7, #20]
 5270 0398 BDE7     		b	.L355
 5271              	.LVL412:
 5272              	.L326:
 246:../../libdaisy/src/dev/oled_ssd130x.h ****     }
 5273              		.loc 12 246 13 view .LVU1250
 5274              	.LBE1681:
 5275              	.LBE1680:
 5276              	.LBE1682:
 5277              	.LBE1683:
 5278              	.LBE1684:
 5279              	.LBE1686:
 5280              	.LBE1689:
 5281              	.LBB1690:
 5282              	.LBB1606:
 5283              	.LBB1604:
 5284              	.LBB1601:
 5285              	.LBB1600:
 5286              	.LBB1598:
 5287              	.LBI1598:
 239:../../libdaisy/src/dev/oled_ssd130x.h ****     {
 5288              		.loc 12 239 10 is_stmt 1 view .LVU1251
 5289              	.LBB1599:
 246:../../libdaisy/src/dev/oled_ssd130x.h ****     }
 5290              		.loc 12 246 42 is_stmt 0 view .LVU1252
 5291 039a 2BEA0A0A 		bic	r10, fp, r10
 246:../../libdaisy/src/dev/oled_ssd130x.h ****     }
 5292              		.loc 12 246 13 view .LVU1253
 5293 039e 8EF814A0 		strb	r10, [lr, #20]
 5294 03a2 B9E6     		b	.L325
 5295              	.LVL413:
 5296              	.L337:
 246:../../libdaisy/src/dev/oled_ssd130x.h ****     }
 5297              		.loc 12 246 13 view .LVU1254
 5298              	.LBE1599:
 5299              	.LBE1598:
 5300              	.LBE1600:
 5301              	.LBE1601:
 5302              	.LBE1604:
 5303              	.LBE1606:
 5304              	.LBE1690:
 5305              	.LBB1691:
 5306              	.LBB1638:
 5307              	.LBB1635:
 5308              	.LBB1634:
 5309              	.LBB1633:
 5310              	.LBB1631:
 5311              	.LBI1631:
 239:../../libdaisy/src/dev/oled_ssd130x.h ****     {
 5312              		.loc 12 239 10 is_stmt 1 view .LVU1255
 5313              	.LBB1632:
 246:../../libdaisy/src/dev/oled_ssd130x.h ****     }
 5314              		.loc 12 246 42 is_stmt 0 view .LVU1256
 5315 03a4 2BEA0A0A 		bic	r10, fp, r10
 246:../../libdaisy/src/dev/oled_ssd130x.h ****     }
 5316              		.loc 12 246 13 view .LVU1257
 5317 03a8 8EF814A0 		strb	r10, [lr, #20]
ARM GAS  /tmp/ccobg3TQ.s 			page 148


 5318 03ac 11E7     		b	.L336
 5319              	.LVL414:
 5320              	.L347:
 246:../../libdaisy/src/dev/oled_ssd130x.h ****     }
 5321              		.loc 12 246 13 view .LVU1258
 5322              	.LBE1632:
 5323              	.LBE1631:
 5324              	.LBE1633:
 5325              	.LBE1634:
 5326              	.LBE1635:
 5327              	.LBE1638:
 5328              	.LBE1691:
 5329              	.LBB1692:
 5330              	.LBB1666:
 5331              	.LBB1664:
 5332              	.LBB1663:
 5333              	.LBB1662:
 5334              	.LBB1660:
 5335              	.LBI1660:
 239:../../libdaisy/src/dev/oled_ssd130x.h ****     {
 5336              		.loc 12 239 10 is_stmt 1 view .LVU1259
 5337              	.LBB1661:
 246:../../libdaisy/src/dev/oled_ssd130x.h ****     }
 5338              		.loc 12 246 42 is_stmt 0 view .LVU1260
 5339 03ae 2BEA0A0A 		bic	r10, fp, r10
 246:../../libdaisy/src/dev/oled_ssd130x.h ****     }
 5340              		.loc 12 246 13 view .LVU1261
 5341 03b2 8CF814A0 		strb	r10, [ip, #20]
 5342 03b6 64E7     		b	.L346
 5343              	.LVL415:
 5344              	.L329:
 246:../../libdaisy/src/dev/oled_ssd130x.h ****     }
 5345              		.loc 12 246 13 view .LVU1262
 5346              	.LBE1661:
 5347              	.LBE1660:
 5348              	.LBE1662:
 5349              	.LBE1663:
 5350              	.LBE1664:
 5351              	.LBE1666:
 5352              	.LBE1692:
 5353              	.LBB1693:
 5354              	.LBB1639:
 5355              	.LBB1636:
  41:../../libdaisy/src/hid/disp/oled_display.h ****     {
 5356              		.loc 2 41 10 is_stmt 1 view .LVU1263
 5357              	.LBB1623:
 239:../../libdaisy/src/dev/oled_ssd130x.h ****     {
 5358              		.loc 12 239 10 view .LVU1264
 5359              	.LBB1618:
 241:../../libdaisy/src/dev/oled_ssd130x.h ****             return;
 5360              		.loc 12 241 9 is_stmt 0 view .LVU1265
 5361 03b8 3EBB     		cbnz	r6, .L368
 5362 03ba 009E     		ldr	r6, [sp]
 5363 03bc 2EBB     		cbnz	r6, .L368
 5364              	.LBE1618:
 5365              	.LBE1623:
 5366              	.LBE1636:
ARM GAS  /tmp/ccobg3TQ.s 			page 149


 230:../../libdaisy/src/hid/disp/display.h ****         int_fast16_t error  = deltaX - deltaY;
 5367              		.loc 3 230 22 view .LVU1266
 5368 03be 0126     		movs	r6, #1
 5369 03c0 0096     		str	r6, [sp]
 5370              	.LBB1637:
 5371              	.LBB1624:
 5372              	.LBB1619:
 243:../../libdaisy/src/dev/oled_ssd130x.h ****             buffer_[x + (y / 8) * width] |= (1 << (y % 8));
 5373              		.loc 12 243 9 view .LVU1267
 5374 03c2 002D     		cmp	r5, #0
 5375 03c4 7FF4D4AE 		bne	.L404
 5376              	.LVL416:
 5377              	.L331:
 5378              	.LBB1613:
 5379              	.LBI1613:
 239:../../libdaisy/src/dev/oled_ssd130x.h ****     {
 5380              		.loc 12 239 10 is_stmt 1 view .LVU1268
 5381              	.LBB1614:
 246:../../libdaisy/src/dev/oled_ssd130x.h ****     }
 5382              		.loc 12 246 28 is_stmt 0 view .LVU1269
 5383 03c8 E608     		lsrs	r6, r4, #3
 246:../../libdaisy/src/dev/oled_ssd130x.h ****     }
 5384              		.loc 12 246 49 view .LVU1270
 5385 03ca 4FF0010C 		mov	ip, #1
 246:../../libdaisy/src/dev/oled_ssd130x.h ****     }
 5386              		.loc 12 246 55 view .LVU1271
 5387 03ce 04F00707 		and	r7, r4, #7
 246:../../libdaisy/src/dev/oled_ssd130x.h ****     }
 5388              		.loc 12 246 13 view .LVU1272
 5389 03d2 0395     		str	r5, [sp, #12]
 246:../../libdaisy/src/dev/oled_ssd130x.h ****     }
 5390              		.loc 12 246 42 view .LVU1273
 5391 03d4 03EBC616 		add	r6, r3, r6, lsl #7
 246:../../libdaisy/src/dev/oled_ssd130x.h ****     }
 5392              		.loc 12 246 49 view .LVU1274
 5393 03d8 0CFA07F7 		lsl	r7, ip, r7
 246:../../libdaisy/src/dev/oled_ssd130x.h ****     }
 5394              		.loc 12 246 13 view .LVU1275
 5395 03dc 0644     		add	r6, r6, r0
 246:../../libdaisy/src/dev/oled_ssd130x.h ****     }
 5396              		.loc 12 246 42 view .LVU1276
 5397 03de 96F814C0 		ldrb	ip, [r6, #20]	@ zero_extendqisi2
 5398 03e2 2CEA0707 		bic	r7, ip, r7
 246:../../libdaisy/src/dev/oled_ssd130x.h ****     }
 5399              		.loc 12 246 13 view .LVU1277
 5400 03e6 3775     		strb	r7, [r6, #20]
 5401 03e8 D4E6     		b	.L330
 5402              	.LVL417:
 5403              	.L352:
 246:../../libdaisy/src/dev/oled_ssd130x.h ****     }
 5404              		.loc 12 246 13 view .LVU1278
 5405              	.LBE1614:
 5406              	.LBE1613:
 5407              	.LBE1619:
 5408              	.LBE1624:
 5409              	.LBE1637:
 5410              	.LBE1639:
ARM GAS  /tmp/ccobg3TQ.s 			page 150


 5411              	.LBE1693:
 5412              	.LBB1694:
 5413              	.LBB1687:
 5414              	.LBB1685:
 5415              	.LBB1676:
 5416              	.LBB1675:
 5417              	.LBB1673:
 5418              	.LBI1673:
 239:../../libdaisy/src/dev/oled_ssd130x.h ****     {
 5419              		.loc 12 239 10 is_stmt 1 view .LVU1279
 5420              	.LBB1674:
 246:../../libdaisy/src/dev/oled_ssd130x.h ****     }
 5421              		.loc 12 246 13 is_stmt 0 view .LVU1280
 5422 03ea 0344     		add	r3, r3, r0
 246:../../libdaisy/src/dev/oled_ssd130x.h ****     }
 5423              		.loc 12 246 49 view .LVU1281
 5424 03ec 06FA07F7 		lsl	r7, r6, r7
 246:../../libdaisy/src/dev/oled_ssd130x.h ****     }
 5425              		.loc 12 246 42 view .LVU1282
 5426 03f0 1E7D     		ldrb	r6, [r3, #20]	@ zero_extendqisi2
 5427 03f2 26EA0706 		bic	r6, r6, r7
 246:../../libdaisy/src/dev/oled_ssd130x.h ****     }
 5428              		.loc 12 246 13 view .LVU1283
 5429 03f6 1E75     		strb	r6, [r3, #20]
 5430 03f8 71E7     		b	.L351
 5431              	.LVL418:
 5432              	.L342:
 246:../../libdaisy/src/dev/oled_ssd130x.h ****     }
 5433              		.loc 12 246 13 view .LVU1284
 5434              	.LBE1674:
 5435              	.LBE1673:
 5436              	.LBE1675:
 5437              	.LBE1676:
 5438              	.LBE1685:
 5439              	.LBE1687:
 5440              	.LBE1694:
 5441              	.LBB1695:
 5442              	.LBB1667:
 5443              	.LBB1665:
 5444              	.LBB1654:
 5445              	.LBB1651:
 5446              	.LBB1647:
 5447              	.LBI1647:
 239:../../libdaisy/src/dev/oled_ssd130x.h ****     {
 5448              		.loc 12 239 10 is_stmt 1 view .LVU1285
 5449              	.LBB1648:
 246:../../libdaisy/src/dev/oled_ssd130x.h ****     }
 5450              		.loc 12 246 42 is_stmt 0 view .LVU1286
 5451 03fa 2CEA0707 		bic	r7, ip, r7
 246:../../libdaisy/src/dev/oled_ssd130x.h ****     }
 5452              		.loc 12 246 13 view .LVU1287
 5453 03fe 3775     		strb	r7, [r6, #20]
 5454 0400 23E7     		b	.L341
 5455              	.LVL419:
 5456              	.L364:
 246:../../libdaisy/src/dev/oled_ssd130x.h ****     }
 5457              		.loc 12 246 13 view .LVU1288
ARM GAS  /tmp/ccobg3TQ.s 			page 151


 5458              	.LBE1648:
 5459              	.LBE1647:
 5460              	.LBE1651:
 5461              	.LBE1654:
 5462              	.LBE1665:
 5463              	.LBE1667:
 5464              	.LBE1695:
 5465              	.LBB1696:
 5466              	.LBB1640:
 230:../../libdaisy/src/hid/disp/display.h ****         int_fast16_t error  = deltaX - deltaY;
 5467              		.loc 3 230 22 view .LVU1289
 5468 0402 4FF0FF36 		mov	r6, #-1
 5469 0406 0096     		str	r6, [sp]
 5470 0408 C4E6     		b	.L330
 5471              	.LVL420:
 5472              	.L368:
 230:../../libdaisy/src/hid/disp/display.h ****         int_fast16_t error  = deltaX - deltaY;
 5473              		.loc 3 230 22 view .LVU1290
 5474 040a 0126     		movs	r6, #1
 5475 040c 0096     		str	r6, [sp]
 5476 040e C4E6     		b	.L333
 5477              	.LVL421:
 5478              	.L401:
 230:../../libdaisy/src/hid/disp/display.h ****         int_fast16_t error  = deltaX - deltaY;
 5479              		.loc 3 230 22 view .LVU1291
 5480              	.LBE1640:
 5481              	.LBE1696:
 5482              	.LBB1697:
 5483              	.LBB1607:
 239:../../libdaisy/src/hid/disp/display.h ****         {
 5484              		.loc 3 239 19 view .LVU1292
 5485 0410 0126     		movs	r6, #1
 5486 0412 0496     		str	r6, [sp, #16]
 5487 0414 8EE6     		b	.L321
 5488              	.LVL422:
 5489              	.L402:
 239:../../libdaisy/src/hid/disp/display.h ****         {
 5490              		.loc 3 239 19 view .LVU1293
 5491              	.LBE1607:
 5492              	.LBE1697:
 5493              	.LBB1698:
 5494              	.LBB1641:
 239:../../libdaisy/src/hid/disp/display.h ****         {
 5495              		.loc 3 239 33 view .LVU1294
 5496 0416 0126     		movs	r6, #1
 5497 0418 0196     		str	r6, [sp, #4]
 5498 041a ECE6     		b	.L332
 5499              	.LBE1641:
 5500              	.LBE1698:
 5501              	.LBE1699:
 5502              		.cfi_endproc
 5503              	.LFE4837:
 5505              		.section	.text._Z14UpdateControlsv,"ax",%progbits
 5506              		.align	1
 5507              		.p2align 2,,3
 5508              		.global	_Z14UpdateControlsv
 5509              		.syntax unified
ARM GAS  /tmp/ccobg3TQ.s 			page 152


 5510              		.thumb
 5511              		.thumb_func
 5512              		.fpu fpv5-d16
 5514              	_Z14UpdateControlsv:
 5515              	.LFB4238:
  23:SampleAndHold.cpp **** 
  24:SampleAndHold.cpp **** int menuPos;
  25:SampleAndHold.cpp **** 
  26:SampleAndHold.cpp **** void UpdateControls();
  27:SampleAndHold.cpp **** void UpdateOutputs();
  28:SampleAndHold.cpp **** void UpdateOled();
  29:SampleAndHold.cpp **** 
  30:SampleAndHold.cpp **** int main(void)
  31:SampleAndHold.cpp **** {
  32:SampleAndHold.cpp ****     patch.Init();
  33:SampleAndHold.cpp **** 
  34:SampleAndHold.cpp ****     patch.StartAdc();
  35:SampleAndHold.cpp ****     while(1)
  36:SampleAndHold.cpp ****     {
  37:SampleAndHold.cpp ****         UpdateControls();
  38:SampleAndHold.cpp ****         UpdateOutputs();
  39:SampleAndHold.cpp ****         UpdateOled();
  40:SampleAndHold.cpp ****     }
  41:SampleAndHold.cpp **** }
  42:SampleAndHold.cpp **** 
  43:SampleAndHold.cpp **** void UpdateControls()
  44:SampleAndHold.cpp **** {
 5516              		.loc 13 44 1 is_stmt 1 view -0
 5517              		.cfi_startproc
 5518              		@ args = 0, pretend = 0, frame = 0
 5519              		@ frame_needed = 0, uses_anonymous_args = 0
  45:SampleAndHold.cpp ****     patch.ProcessAnalogControls();
 5520              		.loc 13 45 5 view .LVU1296
  44:SampleAndHold.cpp ****     patch.ProcessAnalogControls();
 5521              		.loc 13 44 1 is_stmt 0 view .LVU1297
 5522 0000 70B5     		push	{r4, r5, r6, lr}
 5523              		.cfi_def_cfa_offset 16
 5524              		.cfi_offset 4, -16
 5525              		.cfi_offset 5, -12
 5526              		.cfi_offset 6, -8
 5527              		.cfi_offset 14, -4
 5528              		.loc 13 45 32 view .LVU1298
 5529 0002 3148     		ldr	r0, .L423
 5530 0004 FFF7FEFF 		bl	_ZN5daisy10DaisyPatch21ProcessAnalogControlsEv
 5531              	.LVL423:
  46:SampleAndHold.cpp ****     patch.ProcessDigitalControls();
 5532              		.loc 13 46 5 is_stmt 1 view .LVU1299
 5533              		.loc 13 46 33 is_stmt 0 view .LVU1300
 5534 0008 2F48     		ldr	r0, .L423
 5535 000a FFF7FEFF 		bl	_ZN5daisy10DaisyPatch22ProcessDigitalControlsEv
 5536              	.LVL424:
  47:SampleAndHold.cpp **** 
  48:SampleAndHold.cpp ****     //read ctrls and gates, then update sampleholds
  49:SampleAndHold.cpp ****     sampHolds[0].Process(patch.gate_input[0].State(),
 5537              		.loc 13 49 5 is_stmt 1 view .LVU1301
 5538              	.LBB1700:
 5539              	.LBI1700:
ARM GAS  /tmp/ccobg3TQ.s 			page 153


 5540              		.file 16 "../../libdaisy/src/hid/gatein.h"
   1:../../libdaisy/src/hid/gatein.h **** #pragma once
   2:../../libdaisy/src/hid/gatein.h **** #ifndef DSY_GATEIN_H
   3:../../libdaisy/src/hid/gatein.h **** #define DSY_GATEIN_H
   4:../../libdaisy/src/hid/gatein.h **** #include "per/gpio.h"
   5:../../libdaisy/src/hid/gatein.h **** 
   6:../../libdaisy/src/hid/gatein.h **** namespace daisy
   7:../../libdaisy/src/hid/gatein.h **** {
   8:../../libdaisy/src/hid/gatein.h **** /** @file hid_gatein.h */
   9:../../libdaisy/src/hid/gatein.h **** /**
  10:../../libdaisy/src/hid/gatein.h ****    @brief Generic Class for handling gate inputs through GPIO.
  11:../../libdaisy/src/hid/gatein.h ****    @author Stephen Hensley
  12:../../libdaisy/src/hid/gatein.h ****    @date    March 2020
  13:../../libdaisy/src/hid/gatein.h ****    @ingroup controls
  14:../../libdaisy/src/hid/gatein.h **** */
  15:../../libdaisy/src/hid/gatein.h **** class GateIn
  16:../../libdaisy/src/hid/gatein.h **** {
  17:../../libdaisy/src/hid/gatein.h ****   public:
  18:../../libdaisy/src/hid/gatein.h ****     /** GateIn 
  19:../../libdaisy/src/hid/gatein.h ****     Constructor 
  20:../../libdaisy/src/hid/gatein.h ****     */
  21:../../libdaisy/src/hid/gatein.h ****     GateIn() {}
  22:../../libdaisy/src/hid/gatein.h ****     /** GateIn~
  23:../../libdaisy/src/hid/gatein.h ****     Destructor 
  24:../../libdaisy/src/hid/gatein.h ****     */
  25:../../libdaisy/src/hid/gatein.h ****     ~GateIn() {}
  26:../../libdaisy/src/hid/gatein.h **** 
  27:../../libdaisy/src/hid/gatein.h ****     /** Init
  28:../../libdaisy/src/hid/gatein.h ****     Initializes the gate input with specified hardware pin
  29:../../libdaisy/src/hid/gatein.h ****     */
  30:../../libdaisy/src/hid/gatein.h ****     void Init(dsy_gpio_pin *pin_cfg);
  31:../../libdaisy/src/hid/gatein.h ****     // ~~~~
  32:../../libdaisy/src/hid/gatein.h **** 
  33:../../libdaisy/src/hid/gatein.h ****     /** Trig
  34:../../libdaisy/src/hid/gatein.h ****     Checks current state of gate input.
  35:../../libdaisy/src/hid/gatein.h **** 
  36:../../libdaisy/src/hid/gatein.h ****     @return True if the GPIO just transitioned.
  37:../../libdaisy/src/hid/gatein.h ****     */
  38:../../libdaisy/src/hid/gatein.h ****     bool Trig();
  39:../../libdaisy/src/hid/gatein.h **** 
  40:../../libdaisy/src/hid/gatein.h ****     /** State
  41:../../libdaisy/src/hid/gatein.h ****     Checks current state of gate input (no state required)
  42:../../libdaisy/src/hid/gatein.h **** 
  43:../../libdaisy/src/hid/gatein.h ****     read function is inverted because of suggested BJT input circuit
  44:../../libdaisy/src/hid/gatein.h ****     */
  45:../../libdaisy/src/hid/gatein.h ****     inline bool State() { return !dsy_gpio_read(&pin_); }
 5541              		.loc 16 45 17 view .LVU1302
 5542              	.LBB1701:
 5543              		.loc 16 45 27 view .LVU1303
 5544              		.loc 16 45 48 is_stmt 0 view .LVU1304
 5545 000e 2F48     		ldr	r0, .L423+4
 5546              	.LVL425:
 5547              		.loc 16 45 48 view .LVU1305
 5548 0010 FFF7FEFF 		bl	dsy_gpio_read
 5549              	.LVL426:
 5550              		.loc 16 45 48 view .LVU1306
 5551 0014 0546     		mov	r5, r0
ARM GAS  /tmp/ccobg3TQ.s 			page 154


 5552              	.LBE1701:
 5553              	.LBE1700:
 5554              	.LBB1704:
 5555              	.LBB1705:
  18:SampleAndHold.cpp ****     }
 5556              		.loc 13 18 34 view .LVU1307
 5557 0016 2E4C     		ldr	r4, .L423+8
 5558              	.LBE1705:
 5559              	.LBE1704:
 5560              	.LBB1727:
 5561              	.LBB1702:
 5562              		.loc 16 45 54 view .LVU1308
 5563 0018 B5FA85F6 		clz	r6, r5
 5564              	.LBE1702:
 5565              	.LBE1727:
 5566              		.loc 13 49 25 view .LVU1309
 5567 001c 2D48     		ldr	r0, .L423+12
 5568 001e FFF7FEFF 		bl	_ZN5daisy13AnalogControl7ProcessEv
 5569              	.LVL427:
 5570              	.LBB1728:
 5571              	.LBB1722:
  18:SampleAndHold.cpp ****     }
 5572              		.loc 13 18 34 view .LVU1310
 5573 0022 237B     		ldrb	r3, [r4, #12]	@ zero_extendqisi2
 5574              	.LBE1722:
 5575              	.LBE1728:
 5576              	.LBB1729:
 5577              	.LBB1703:
 5578              		.loc 16 45 54 view .LVU1311
 5579 0024 7609     		lsrs	r6, r6, #5
 5580              	.LVL428:
 5581              		.loc 16 45 54 view .LVU1312
 5582              	.LBE1703:
 5583              	.LBE1729:
 5584              	.LBB1730:
 5585              	.LBI1704:
  16:SampleAndHold.cpp ****     {
 5586              		.loc 13 16 10 is_stmt 1 view .LVU1313
 5587              	.LBB1723:
  18:SampleAndHold.cpp ****     }
 5588              		.loc 13 18 9 view .LVU1314
 5589              	.LBB1706:
 5590              	.LBI1706:
 5591              		.file 17 "../../DaisySP/Source/Utility/samplehold.h"
   1:../../DaisySP/Source/Utility/samplehold.h **** #pragma once
   2:../../DaisySP/Source/Utility/samplehold.h **** #ifndef DSY_SAMPLEHOLD_H
   3:../../DaisySP/Source/Utility/samplehold.h **** #define DSY_SAMPLEHOLD_H
   4:../../DaisySP/Source/Utility/samplehold.h **** 
   5:../../DaisySP/Source/Utility/samplehold.h **** #include <stdint.h>
   6:../../DaisySP/Source/Utility/samplehold.h **** #ifdef __cplusplus
   7:../../DaisySP/Source/Utility/samplehold.h **** 
   8:../../DaisySP/Source/Utility/samplehold.h **** namespace daisysp
   9:../../DaisySP/Source/Utility/samplehold.h **** {
  10:../../DaisySP/Source/Utility/samplehold.h **** /** Dual track and hold / Sample and hold module. \n 
  11:../../DaisySP/Source/Utility/samplehold.h ****     Ported from soundpipe by Ben Sergentanis, June 2020.
  12:../../DaisySP/Source/Utility/samplehold.h ****     @author Paul Batchelor
  13:../../DaisySP/Source/Utility/samplehold.h ****     @date   2015
ARM GAS  /tmp/ccobg3TQ.s 			page 155


  14:../../DaisySP/Source/Utility/samplehold.h **** */
  15:../../DaisySP/Source/Utility/samplehold.h **** class SampleHold
  16:../../DaisySP/Source/Utility/samplehold.h **** {
  17:../../DaisySP/Source/Utility/samplehold.h ****   public:
  18:../../DaisySP/Source/Utility/samplehold.h ****     SampleHold() {}
  19:../../DaisySP/Source/Utility/samplehold.h ****     ~SampleHold() {}
  20:../../DaisySP/Source/Utility/samplehold.h **** 
  21:../../DaisySP/Source/Utility/samplehold.h ****     enum Mode
  22:../../DaisySP/Source/Utility/samplehold.h ****     {
  23:../../DaisySP/Source/Utility/samplehold.h ****         MODE_SAMPLE_HOLD,
  24:../../DaisySP/Source/Utility/samplehold.h ****         MODE_TRACK_HOLD,
  25:../../DaisySP/Source/Utility/samplehold.h ****         MODE_LAST,
  26:../../DaisySP/Source/Utility/samplehold.h ****     };
  27:../../DaisySP/Source/Utility/samplehold.h **** 
  28:../../DaisySP/Source/Utility/samplehold.h ****     /** Process the next sample. Both sample and track and hold are run in parallel
  29:../../DaisySP/Source/Utility/samplehold.h ****     \param trigger Trigger the sample/track and hold
  30:../../DaisySP/Source/Utility/samplehold.h ****     \param input   Signal to be sampled/tracked and held
  31:../../DaisySP/Source/Utility/samplehold.h ****     \param mode    Whether to output the tracked or sampled values.
  32:../../DaisySP/Source/Utility/samplehold.h ****     */
  33:../../DaisySP/Source/Utility/samplehold.h ****     inline float
  34:../../DaisySP/Source/Utility/samplehold.h ****     Process(bool trigger, float input, Mode mode = MODE_SAMPLE_HOLD)
 5592              		.loc 17 34 5 view .LVU1315
 5593              	.LBB1707:
  35:../../DaisySP/Source/Utility/samplehold.h ****     {
  36:../../DaisySP/Source/Utility/samplehold.h ****         Update(trigger, input);
 5594              		.loc 17 36 9 view .LVU1316
 5595              	.LBB1708:
 5596              	.LBI1708:
  37:../../DaisySP/Source/Utility/samplehold.h ****         return mode == MODE_SAMPLE_HOLD ? sample_ : track_;
  38:../../DaisySP/Source/Utility/samplehold.h ****     }
  39:../../DaisySP/Source/Utility/samplehold.h **** 
  40:../../DaisySP/Source/Utility/samplehold.h ****   private:
  41:../../DaisySP/Source/Utility/samplehold.h ****     float track_    = 0;
  42:../../DaisySP/Source/Utility/samplehold.h ****     float sample_   = 0;
  43:../../DaisySP/Source/Utility/samplehold.h ****     bool  previous_ = false;
  44:../../DaisySP/Source/Utility/samplehold.h **** 
  45:../../DaisySP/Source/Utility/samplehold.h **** 
  46:../../DaisySP/Source/Utility/samplehold.h ****     inline void Update(bool trigger, float input)
 5597              		.loc 17 46 17 view .LVU1317
 5598              	.LBB1709:
  47:../../DaisySP/Source/Utility/samplehold.h ****     {
  48:../../DaisySP/Source/Utility/samplehold.h ****         if(trigger)
 5599              		.loc 17 48 9 view .LVU1318
 5600 0026 A5B3     		cbz	r5, .L406
 5601 0028 94ED000A 		vldr.32	s0, [r4]
 5602              	.LVL429:
 5603              		.loc 17 48 9 is_stmt 0 view .LVU1319
 5604 002c D4ED017A 		vldr.32	s15, [r4, #4]
 5605              	.L407:
  49:../../DaisySP/Source/Utility/samplehold.h ****         {
  50:../../DaisySP/Source/Utility/samplehold.h ****             if(!previous_)
  51:../../DaisySP/Source/Utility/samplehold.h ****             {
  52:../../DaisySP/Source/Utility/samplehold.h ****                 sample_ = input;
  53:../../DaisySP/Source/Utility/samplehold.h ****             }
  54:../../DaisySP/Source/Utility/samplehold.h ****             track_ = input;
  55:../../DaisySP/Source/Utility/samplehold.h ****         }
  56:../../DaisySP/Source/Utility/samplehold.h ****         previous_ = trigger;
ARM GAS  /tmp/ccobg3TQ.s 			page 156


 5606              		.loc 17 56 9 is_stmt 1 view .LVU1320
 5607              	.LBE1709:
 5608              	.LBE1708:
  37:../../DaisySP/Source/Utility/samplehold.h ****     }
 5609              		.loc 17 37 41 is_stmt 0 view .LVU1321
 5610 0030 002B     		cmp	r3, #0
 5611              	.LBB1713:
 5612              	.LBB1710:
 5613              		.loc 17 56 19 view .LVU1322
 5614 0032 2672     		strb	r6, [r4, #8]
 5615              	.LVL430:
 5616              		.loc 17 56 19 view .LVU1323
 5617              	.LBE1710:
 5618              	.LBE1713:
  37:../../DaisySP/Source/Utility/samplehold.h ****     }
 5619              		.loc 17 37 9 is_stmt 1 view .LVU1324
 5620              	.LBE1707:
 5621              	.LBE1706:
 5622              	.LBE1723:
 5623              	.LBE1730:
 5624              	.LBB1731:
 5625              	.LBB1732:
 5626              		.loc 16 45 48 is_stmt 0 view .LVU1325
 5627 0034 2848     		ldr	r0, .L423+16
 5628              	.LBE1732:
 5629              	.LBE1731:
 5630              	.LBB1736:
 5631              	.LBB1724:
 5632              	.LBB1719:
 5633              	.LBB1716:
  37:../../DaisySP/Source/Utility/samplehold.h ****     }
 5634              		.loc 17 37 41 view .LVU1326
 5635 0036 47FE807A 		vseleq.f32	s15, s15, s0
 5636              	.LVL431:
  37:../../DaisySP/Source/Utility/samplehold.h ****     }
 5637              		.loc 17 37 41 view .LVU1327
 5638              	.LBE1716:
 5639              	.LBE1719:
  18:SampleAndHold.cpp ****     }
 5640              		.loc 13 18 16 view .LVU1328
 5641 003a C4ED047A 		vstr.32	s15, [r4, #16]
 5642              	.LVL432:
  18:SampleAndHold.cpp ****     }
 5643              		.loc 13 18 16 view .LVU1329
 5644              	.LBE1724:
 5645              	.LBE1736:
  50:SampleAndHold.cpp ****                          patch.controls[0].Process());
  51:SampleAndHold.cpp ****     sampHolds[1].Process(patch.gate_input[1].State(),
 5646              		.loc 13 51 5 is_stmt 1 view .LVU1330
 5647              	.LBB1737:
 5648              	.LBI1731:
 5649              		.loc 16 45 17 view .LVU1331
 5650              	.LBB1733:
 5651              		.loc 16 45 27 view .LVU1332
 5652              		.loc 16 45 48 is_stmt 0 view .LVU1333
 5653 003e FFF7FEFF 		bl	dsy_gpio_read
 5654              	.LVL433:
ARM GAS  /tmp/ccobg3TQ.s 			page 157


 5655              		.loc 16 45 48 view .LVU1334
 5656 0042 0546     		mov	r5, r0
 5657              	.LBE1733:
 5658              	.LBE1737:
 5659              		.loc 13 51 25 view .LVU1335
 5660 0044 2548     		ldr	r0, .L423+20
 5661              	.LBB1738:
 5662              	.LBB1734:
 5663              		.loc 16 45 54 view .LVU1336
 5664 0046 B5FA85F6 		clz	r6, r5
 5665              	.LBE1734:
 5666              	.LBE1738:
 5667              		.loc 13 51 25 view .LVU1337
 5668 004a FFF7FEFF 		bl	_ZN5daisy13AnalogControl7ProcessEv
 5669              	.LVL434:
 5670              	.LBB1739:
 5671              	.LBB1740:
  18:SampleAndHold.cpp ****     }
 5672              		.loc 13 18 34 view .LVU1338
 5673 004e 94F82030 		ldrb	r3, [r4, #32]	@ zero_extendqisi2
 5674              	.LBE1740:
 5675              	.LBE1739:
 5676              	.LBB1768:
 5677              	.LBB1735:
 5678              		.loc 16 45 54 view .LVU1339
 5679 0052 7609     		lsrs	r6, r6, #5
 5680              	.LVL435:
 5681              		.loc 16 45 54 view .LVU1340
 5682              	.LBE1735:
 5683              	.LBE1768:
 5684              	.LBB1769:
 5685              	.LBI1739:
  16:SampleAndHold.cpp ****     {
 5686              		.loc 13 16 10 is_stmt 1 view .LVU1341
 5687              	.LBB1761:
  18:SampleAndHold.cpp ****     }
 5688              		.loc 13 18 9 view .LVU1342
 5689              	.LBB1741:
 5690              	.LBI1741:
  34:../../DaisySP/Source/Utility/samplehold.h ****     {
 5691              		.loc 17 34 5 view .LVU1343
 5692              	.LBB1742:
  36:../../DaisySP/Source/Utility/samplehold.h ****         return mode == MODE_SAMPLE_HOLD ? sample_ : track_;
 5693              		.loc 17 36 9 view .LVU1344
 5694              	.LBB1743:
 5695              	.LBI1743:
  46:../../DaisySP/Source/Utility/samplehold.h ****     {
 5696              		.loc 17 46 17 view .LVU1345
 5697              	.LBB1744:
  48:../../DaisySP/Source/Utility/samplehold.h ****         {
 5698              		.loc 17 48 9 view .LVU1346
 5699 0054 B5B1     		cbz	r5, .L411
 5700 0056 94ED050A 		vldr.32	s0, [r4, #20]
 5701              	.LVL436:
  48:../../DaisySP/Source/Utility/samplehold.h ****         {
 5702              		.loc 17 48 9 is_stmt 0 view .LVU1347
 5703 005a D4ED067A 		vldr.32	s15, [r4, #24]
ARM GAS  /tmp/ccobg3TQ.s 			page 158


 5704              	.L412:
 5705              		.loc 17 56 9 is_stmt 1 view .LVU1348
 5706              	.LBE1744:
 5707              	.LBE1743:
 5708              	.LBE1742:
 5709              	.LBE1741:
 5710              	.LBE1761:
 5711              	.LBE1769:
  52:SampleAndHold.cpp ****                          patch.controls[1].Process());
  53:SampleAndHold.cpp **** 
  54:SampleAndHold.cpp ****     //encoder
  55:SampleAndHold.cpp ****     menuPos += patch.encoder.Increment();
 5712              		.loc 13 55 13 is_stmt 0 view .LVU1349
 5713 005e 204A     		ldr	r2, .L423+24
 5714              	.LBB1770:
 5715              	.LBB1762:
 5716              	.LBB1756:
 5717              	.LBB1751:
  37:../../DaisySP/Source/Utility/samplehold.h ****     }
 5718              		.loc 17 37 41 view .LVU1350
 5719 0060 002B     		cmp	r3, #0
 5720              	.LBE1751:
 5721              	.LBE1756:
 5722              	.LBE1762:
 5723              	.LBE1770:
 5724              		.loc 13 55 39 view .LVU1351
 5725 0062 1948     		ldr	r0, .L423
 5726              		.loc 13 55 13 view .LVU1352
 5727 0064 1368     		ldr	r3, [r2]
 5728              	.LVL437:
 5729              	.LBB1771:
 5730              	.LBB1763:
 5731              	.LBB1757:
 5732              	.LBB1752:
  37:../../DaisySP/Source/Utility/samplehold.h ****     }
 5733              		.loc 17 37 41 view .LVU1353
 5734 0066 47FE807A 		vseleq.f32	s15, s15, s0
 5735              	.LBE1752:
 5736              	.LBE1757:
 5737              	.LBE1763:
 5738              	.LBE1771:
 5739              		.loc 13 55 13 view .LVU1354
 5740 006a 816D     		ldr	r1, [r0, #88]
  56:SampleAndHold.cpp ****     menuPos = (menuPos % 2 + 2) % 2;
  57:SampleAndHold.cpp **** 
  58:SampleAndHold.cpp ****     //switch modes
  59:SampleAndHold.cpp ****     if(patch.encoder.RisingEdge())
 5741              		.loc 13 59 5 view .LVU1355
 5742 006c 90F84100 		ldrb	r0, [r0, #65]	@ zero_extendqisi2
  56:SampleAndHold.cpp ****     menuPos = (menuPos % 2 + 2) % 2;
 5743              		.loc 13 56 24 view .LVU1356
 5744 0070 5B18     		adds	r3, r3, r1
 5745              	.LBB1772:
 5746              	.LBB1764:
  18:SampleAndHold.cpp ****     }
 5747              		.loc 13 18 16 view .LVU1357
 5748 0072 C4ED097A 		vstr.32	s15, [r4, #36]
ARM GAS  /tmp/ccobg3TQ.s 			page 159


 5749              	.LBE1764:
 5750              	.LBE1772:
 5751              		.loc 13 59 5 view .LVU1358
 5752 0076 7F28     		cmp	r0, #127
 5753              	.LBB1773:
 5754              	.LBB1765:
 5755              	.LBB1758:
 5756              	.LBB1753:
 5757              	.LBB1748:
 5758              	.LBB1745:
 5759              		.loc 17 56 19 view .LVU1359
 5760 0078 2677     		strb	r6, [r4, #28]
 5761              	.LVL438:
 5762              		.loc 17 56 19 view .LVU1360
 5763              	.LBE1745:
 5764              	.LBE1748:
  37:../../DaisySP/Source/Utility/samplehold.h ****     }
 5765              		.loc 17 37 9 is_stmt 1 view .LVU1361
  37:../../DaisySP/Source/Utility/samplehold.h ****     }
 5766              		.loc 17 37 9 is_stmt 0 view .LVU1362
 5767              	.LBE1753:
 5768              	.LBE1758:
 5769              	.LBE1765:
 5770              	.LBE1773:
  55:SampleAndHold.cpp ****     menuPos = (menuPos % 2 + 2) % 2;
 5771              		.loc 13 55 5 is_stmt 1 view .LVU1363
  22:../../libdaisy/src/hid/encoder.h **** 
  23:../../libdaisy/src/hid/encoder.h ****     /** Initializes the encoder with the specified hardware pins.
  24:../../libdaisy/src/hid/encoder.h **** */
  25:../../libdaisy/src/hid/encoder.h ****     //
  26:../../libdaisy/src/hid/encoder.h ****     /** Update rate should be the rate at which Debounce() gets called
  27:../../libdaisy/src/hid/encoder.h **** in Hertz.
  28:../../libdaisy/src/hid/encoder.h **** */
  29:../../libdaisy/src/hid/encoder.h ****     //
  30:../../libdaisy/src/hid/encoder.h ****     void
  31:../../libdaisy/src/hid/encoder.h ****     Init(dsy_gpio_pin a, dsy_gpio_pin b, dsy_gpio_pin click, float update_rate);
  32:../../libdaisy/src/hid/encoder.h ****     /** Called at update_rate to debounce and handle timing for the switch.
  33:../../libdaisy/src/hid/encoder.h **** */
  34:../../libdaisy/src/hid/encoder.h ****     //
  35:../../libdaisy/src/hid/encoder.h ****     /** In order for events not to be missed, its important that the Edge/Pressed checks
  36:../../libdaisy/src/hid/encoder.h **** be made at the same rate as the debounce function is being called.
  37:../../libdaisy/src/hid/encoder.h **** */
  38:../../libdaisy/src/hid/encoder.h ****     void Debounce();
  39:../../libdaisy/src/hid/encoder.h ****     /** Returns +1 if the encoder was turned clockwise, -1 if it was turned counter-clockwise, or 0
  40:../../libdaisy/src/hid/encoder.h **** */
  41:../../libdaisy/src/hid/encoder.h ****     inline int32_t Increment() const { return inc_; }
 5772              		.loc 5 41 40 view .LVU1364
  56:SampleAndHold.cpp **** 
 5773              		.loc 13 56 5 view .LVU1365
  56:SampleAndHold.cpp **** 
 5774              		.loc 13 56 33 is_stmt 0 view .LVU1366
 5775 007a 03F00103 		and	r3, r3, #1
  56:SampleAndHold.cpp **** 
 5776              		.loc 13 56 13 view .LVU1367
 5777 007e 1360     		str	r3, [r2]
 5778              		.loc 13 59 5 is_stmt 1 view .LVU1368
 5779              	.LVL439:
ARM GAS  /tmp/ccobg3TQ.s 			page 160


 5780              	.LBB1774:
 5781              	.LBI1774:
  42:../../libdaisy/src/hid/encoder.h ****     /** Returns true if the encoder was just pressed.
  43:../../libdaisy/src/hid/encoder.h **** */
  44:../../libdaisy/src/hid/encoder.h ****     inline bool RisingEdge() const { return sw_.RisingEdge(); }
 5782              		.loc 5 44 17 view .LVU1369
 5783              	.LBB1775:
 5784              		.loc 5 44 38 view .LVU1370
 5785              		.loc 5 44 38 is_stmt 0 view .LVU1371
 5786              	.LBE1775:
 5787              	.LBE1774:
  42:../../libdaisy/src/hid/switch.h **** 
  43:../../libdaisy/src/hid/switch.h ****     /** 
  44:../../libdaisy/src/hid/switch.h ****     Initializes the switch object with a given port/pin combo.
  45:../../libdaisy/src/hid/switch.h ****     \param pin port/pin object to tell the switch which hardware pin to use.
  46:../../libdaisy/src/hid/switch.h ****     \param update_rate the rate at which the Debounce() function will be called. (used for timing).
  47:../../libdaisy/src/hid/switch.h ****     \param t switch type -- Default: TYPE_MOMENTARY
  48:../../libdaisy/src/hid/switch.h ****     \param pol switch polarity -- Default: POLARITY_INVERTED
  49:../../libdaisy/src/hid/switch.h ****     \param pu switch pull up/down -- Default: PULL_UP
  50:../../libdaisy/src/hid/switch.h ****     */
  51:../../libdaisy/src/hid/switch.h ****     void
  52:../../libdaisy/src/hid/switch.h ****     Init(dsy_gpio_pin pin, float update_rate, Type t, Polarity pol, Pull pu);
  53:../../libdaisy/src/hid/switch.h **** 
  54:../../libdaisy/src/hid/switch.h ****     /**
  55:../../libdaisy/src/hid/switch.h ****        Simplified Init.
  56:../../libdaisy/src/hid/switch.h ****        \param pin port/pin object to tell the switch which hardware pin to use.
  57:../../libdaisy/src/hid/switch.h ****        \param update_rate the rate at which the Debounce() function will be called. (used for timin
  58:../../libdaisy/src/hid/switch.h ****     */
  59:../../libdaisy/src/hid/switch.h ****     void Init(dsy_gpio_pin pin, float update_rate);
  60:../../libdaisy/src/hid/switch.h **** 
  61:../../libdaisy/src/hid/switch.h ****     /** 
  62:../../libdaisy/src/hid/switch.h ****     Called at update_rate to debounce and handle timing for the switch.
  63:../../libdaisy/src/hid/switch.h ****     In order for events not to be missed, its important that the Edge/Pressed checks
  64:../../libdaisy/src/hid/switch.h ****     be made at the same rate as the debounce function is being called.
  65:../../libdaisy/src/hid/switch.h ****     */
  66:../../libdaisy/src/hid/switch.h ****     void Debounce();
  67:../../libdaisy/src/hid/switch.h **** 
  68:../../libdaisy/src/hid/switch.h ****     /** \return true if a button was just pressed. */
  69:../../libdaisy/src/hid/switch.h ****     inline bool RisingEdge() const { return state_ == 0x7f; }
 5788              		.loc 6 69 38 is_stmt 1 view .LVU1372
 5789              		.loc 13 59 5 is_stmt 0 view .LVU1373
 5790 0080 0ED0     		beq	.L422
  60:SampleAndHold.cpp ****     {
  61:SampleAndHold.cpp ****         sampHolds[menuPos].mode
  62:SampleAndHold.cpp ****             = (SampleHold::Mode)((sampHolds[menuPos].mode + 1) % 2);
  63:SampleAndHold.cpp ****     }
  64:SampleAndHold.cpp **** }
 5791              		.loc 13 64 1 view .LVU1374
 5792 0082 70BD     		pop	{r4, r5, r6, pc}
 5793              	.LVL440:
 5794              	.L411:
 5795              	.LBB1776:
 5796              	.LBB1766:
 5797              	.LBB1759:
 5798              	.LBB1754:
 5799              	.LBB1749:
 5800              	.LBB1746:
ARM GAS  /tmp/ccobg3TQ.s 			page 161


  50:../../DaisySP/Source/Utility/samplehold.h ****             {
 5801              		.loc 17 50 13 is_stmt 1 view .LVU1375
 5802 0084 227F     		ldrb	r2, [r4, #28]	@ zero_extendqisi2
 5803 0086 D2B1     		cbz	r2, .L413
 5804 0088 D4ED067A 		vldr.32	s15, [r4, #24]
 5805              	.L414:
  54:../../DaisySP/Source/Utility/samplehold.h ****         }
 5806              		.loc 17 54 13 view .LVU1376
  54:../../DaisySP/Source/Utility/samplehold.h ****         }
 5807              		.loc 17 54 20 is_stmt 0 view .LVU1377
 5808 008c 84ED050A 		vstr.32	s0, [r4, #20]
 5809 0090 E5E7     		b	.L412
 5810              	.LVL441:
 5811              	.L406:
  54:../../DaisySP/Source/Utility/samplehold.h ****         }
 5812              		.loc 17 54 20 view .LVU1378
 5813              	.LBE1746:
 5814              	.LBE1749:
 5815              	.LBE1754:
 5816              	.LBE1759:
 5817              	.LBE1766:
 5818              	.LBE1776:
 5819              	.LBB1777:
 5820              	.LBB1725:
 5821              	.LBB1720:
 5822              	.LBB1717:
 5823              	.LBB1714:
 5824              	.LBB1711:
  50:../../DaisySP/Source/Utility/samplehold.h ****             {
 5825              		.loc 17 50 13 is_stmt 1 view .LVU1379
 5826 0092 227A     		ldrb	r2, [r4, #8]	@ zero_extendqisi2
 5827 0094 72B1     		cbz	r2, .L408
 5828 0096 D4ED017A 		vldr.32	s15, [r4, #4]
 5829              	.L409:
  54:../../DaisySP/Source/Utility/samplehold.h ****         }
 5830              		.loc 17 54 13 view .LVU1380
  54:../../DaisySP/Source/Utility/samplehold.h ****         }
 5831              		.loc 17 54 20 is_stmt 0 view .LVU1381
 5832 009a 84ED000A 		vstr.32	s0, [r4]
 5833 009e C7E7     		b	.L407
 5834              	.LVL442:
 5835              	.L422:
  54:../../DaisySP/Source/Utility/samplehold.h ****         }
 5836              		.loc 17 54 20 view .LVU1382
 5837              	.LBE1711:
 5838              	.LBE1714:
 5839              	.LBE1717:
 5840              	.LBE1720:
 5841              	.LBE1725:
 5842              	.LBE1777:
  61:SampleAndHold.cpp ****             = (SampleHold::Mode)((sampHolds[menuPos].mode + 1) % 2);
 5843              		.loc 13 61 9 is_stmt 1 view .LVU1383
  62:SampleAndHold.cpp ****     }
 5844              		.loc 13 62 13 is_stmt 0 view .LVU1384
 5845 00a0 9A00     		lsls	r2, r3, #2
 5846 00a2 1344     		add	r3, r3, r2
 5847 00a4 04EB8304 		add	r4, r4, r3, lsl #2
ARM GAS  /tmp/ccobg3TQ.s 			page 162


  62:SampleAndHold.cpp ****     }
 5848              		.loc 13 62 54 view .LVU1385
 5849 00a8 237B     		ldrb	r3, [r4, #12]	@ zero_extendqisi2
  62:SampleAndHold.cpp ****     }
 5850              		.loc 13 62 59 view .LVU1386
 5851 00aa 0133     		adds	r3, r3, #1
  62:SampleAndHold.cpp ****     }
 5852              		.loc 13 62 64 view .LVU1387
 5853 00ac 03F00103 		and	r3, r3, #1
  62:SampleAndHold.cpp ****     }
 5854              		.loc 13 62 15 view .LVU1388
 5855 00b0 2373     		strb	r3, [r4, #12]
 5856              		.loc 13 64 1 view .LVU1389
 5857 00b2 70BD     		pop	{r4, r5, r6, pc}
 5858              	.LVL443:
 5859              	.L408:
 5860              	.LBB1778:
 5861              	.LBB1726:
 5862              	.LBB1721:
 5863              	.LBB1718:
 5864              	.LBB1715:
 5865              	.LBB1712:
  52:../../DaisySP/Source/Utility/samplehold.h ****             }
 5866              		.loc 17 52 17 is_stmt 1 view .LVU1390
 5867 00b4 F0EE407A 		vmov.f32	s15, s0
  52:../../DaisySP/Source/Utility/samplehold.h ****             }
 5868              		.loc 17 52 25 is_stmt 0 view .LVU1391
 5869 00b8 84ED010A 		vstr.32	s0, [r4, #4]
 5870 00bc EDE7     		b	.L409
 5871              	.LVL444:
 5872              	.L413:
  52:../../DaisySP/Source/Utility/samplehold.h ****             }
 5873              		.loc 17 52 25 view .LVU1392
 5874              	.LBE1712:
 5875              	.LBE1715:
 5876              	.LBE1718:
 5877              	.LBE1721:
 5878              	.LBE1726:
 5879              	.LBE1778:
 5880              	.LBB1779:
 5881              	.LBB1767:
 5882              	.LBB1760:
 5883              	.LBB1755:
 5884              	.LBB1750:
 5885              	.LBB1747:
  52:../../DaisySP/Source/Utility/samplehold.h ****             }
 5886              		.loc 17 52 17 is_stmt 1 view .LVU1393
 5887 00be F0EE407A 		vmov.f32	s15, s0
  52:../../DaisySP/Source/Utility/samplehold.h ****             }
 5888              		.loc 17 52 25 is_stmt 0 view .LVU1394
 5889 00c2 84ED060A 		vstr.32	s0, [r4, #24]
 5890 00c6 E1E7     		b	.L414
 5891              	.L424:
 5892              		.align	2
 5893              	.L423:
 5894 00c8 00000000 		.word	patch
 5895 00cc DC000000 		.word	patch+220
ARM GAS  /tmp/ccobg3TQ.s 			page 163


 5896 00d0 00000000 		.word	.LANCHOR0
 5897 00d4 5C000000 		.word	patch+92
 5898 00d8 E2000000 		.word	patch+226
 5899 00dc 7C000000 		.word	patch+124
 5900 00e0 00000000 		.word	.LANCHOR1
 5901              	.LBE1747:
 5902              	.LBE1750:
 5903              	.LBE1755:
 5904              	.LBE1760:
 5905              	.LBE1767:
 5906              	.LBE1779:
 5907              		.cfi_endproc
 5908              	.LFE4238:
 5910              		.section	.text._Z13UpdateOutputsv,"ax",%progbits
 5911              		.align	1
 5912              		.p2align 2,,3
 5913              		.global	_Z13UpdateOutputsv
 5914              		.syntax unified
 5915              		.thumb
 5916              		.thumb_func
 5917              		.fpu fpv5-d16
 5919              	_Z13UpdateOutputsv:
 5920              	.LFB4239:
  65:SampleAndHold.cpp **** 
  66:SampleAndHold.cpp **** void UpdateOutputs()
  67:SampleAndHold.cpp **** {
 5921              		.loc 13 67 1 is_stmt 1 view -0
 5922              		.cfi_startproc
 5923              		@ args = 0, pretend = 0, frame = 0
 5924              		@ frame_needed = 0, uses_anonymous_args = 0
  68:SampleAndHold.cpp ****     patch.seed.dac.WriteValue(DacHandle::Channel::ONE,
 5925              		.loc 13 68 5 view .LVU1396
  67:SampleAndHold.cpp ****     patch.seed.dac.WriteValue(DacHandle::Channel::ONE,
 5926              		.loc 13 67 1 is_stmt 0 view .LVU1397
 5927 0000 38B5     		push	{r3, r4, r5, lr}
 5928              		.cfi_def_cfa_offset 16
 5929              		.cfi_offset 3, -16
 5930              		.cfi_offset 4, -12
 5931              		.cfi_offset 5, -8
 5932              		.cfi_offset 14, -4
  69:SampleAndHold.cpp ****                               sampHolds[0].output * 4095);
 5933              		.loc 13 69 44 view .LVU1398
 5934 0002 124D     		ldr	r5, .L427
  68:SampleAndHold.cpp ****     patch.seed.dac.WriteValue(DacHandle::Channel::ONE,
 5935              		.loc 13 68 30 view .LVU1399
 5936 0004 0021     		movs	r1, #0
 5937 0006 124C     		ldr	r4, .L427+4
 5938              		.loc 13 69 51 view .LVU1400
 5939 0008 95ED047A 		vldr.32	s14, [r5, #16]
  68:SampleAndHold.cpp ****     patch.seed.dac.WriteValue(DacHandle::Channel::ONE,
 5940              		.loc 13 68 30 view .LVU1401
 5941 000c 2046     		mov	r0, r4
  67:SampleAndHold.cpp ****     patch.seed.dac.WriteValue(DacHandle::Channel::ONE,
 5942              		.loc 13 67 1 view .LVU1402
 5943 000e 2DED028B 		vpush.64	{d8}
 5944              		.cfi_def_cfa_offset 24
 5945              		.cfi_offset 80, -24
ARM GAS  /tmp/ccobg3TQ.s 			page 164


 5946              		.cfi_offset 81, -20
 5947              		.loc 13 69 51 view .LVU1403
 5948 0012 9FED108A 		vldr.32	s16, .L427+8
 5949 0016 27EE087A 		vmul.f32	s14, s14, s16
  68:SampleAndHold.cpp ****     patch.seed.dac.WriteValue(DacHandle::Channel::ONE,
 5950              		.loc 13 68 30 view .LVU1404
 5951 001a BCEEC77A 		vcvt.u32.f32	s14, s14
 5952 001e 17EE103A 		vmov	r3, s14	@ int
 5953 0022 9AB2     		uxth	r2, r3
 5954 0024 FFF7FEFF 		bl	_ZN5daisy9DacHandle10WriteValueENS0_7ChannelEt
 5955              	.LVL445:
  70:SampleAndHold.cpp ****     patch.seed.dac.WriteValue(DacHandle::Channel::TWO,
 5956              		.loc 13 70 5 is_stmt 1 view .LVU1405
  71:SampleAndHold.cpp ****                               sampHolds[1].output * 4095);
 5957              		.loc 13 71 51 is_stmt 0 view .LVU1406
 5958 0028 D5ED097A 		vldr.32	s15, [r5, #36]
  70:SampleAndHold.cpp ****     patch.seed.dac.WriteValue(DacHandle::Channel::TWO,
 5959              		.loc 13 70 30 view .LVU1407
 5960 002c 2046     		mov	r0, r4
 5961 002e 0121     		movs	r1, #1
 5962              		.loc 13 71 51 view .LVU1408
 5963 0030 67EE887A 		vmul.f32	s15, s15, s16
  72:SampleAndHold.cpp **** }
 5964              		.loc 13 72 1 view .LVU1409
 5965 0034 BDEC028B 		vldm	sp!, {d8}
 5966              		.cfi_restore 80
 5967              		.cfi_restore 81
 5968              		.cfi_def_cfa_offset 16
  70:SampleAndHold.cpp ****     patch.seed.dac.WriteValue(DacHandle::Channel::TWO,
 5969              		.loc 13 70 30 view .LVU1410
 5970 0038 FCEEE77A 		vcvt.u32.f32	s15, s15
 5971 003c 17EE903A 		vmov	r3, s15	@ int
 5972 0040 9AB2     		uxth	r2, r3
 5973              		.loc 13 72 1 view .LVU1411
 5974 0042 BDE83840 		pop	{r3, r4, r5, lr}
 5975              		.cfi_restore 14
 5976              		.cfi_restore 5
 5977              		.cfi_restore 4
 5978              		.cfi_restore 3
 5979              		.cfi_def_cfa_offset 0
  70:SampleAndHold.cpp ****     patch.seed.dac.WriteValue(DacHandle::Channel::TWO,
 5980              		.loc 13 70 30 view .LVU1412
 5981 0046 FFF7FEBF 		b	_ZN5daisy9DacHandle10WriteValueENS0_7ChannelEt
 5982              	.LVL446:
 5983              	.L428:
 5984 004a 00BF     		.align	2
 5985              	.L427:
 5986 004c 00000000 		.word	.LANCHOR0
 5987 0050 20000000 		.word	patch+32
 5988 0054 00F07F45 		.word	1166012416
 5989              		.cfi_endproc
 5990              	.LFE4239:
 5992              		.section	.rodata._Z10UpdateOledv.str1.4,"aMS",%progbits,1
 5993              		.align	2
 5994              	.LC2:
 5995 0000 53264800 		.ascii	"S&H\000"
 5996              		.align	2
ARM GAS  /tmp/ccobg3TQ.s 			page 165


 5997              	.LC3:
 5998 0004 54264800 		.ascii	"T&H\000"
 5999              		.align	2
 6000              	.LC4:
 6001 0008 53616D70 		.ascii	"Sample/Track and Hold\000"
 6001      6C652F54 
 6001      7261636B 
 6001      20616E64 
 6001      20486F6C 
 6002 001e 0000     		.align	2
 6003              	.LC5:
 6004 0020 6F00     		.ascii	"o\000"
 6005              		.section	.text._Z10UpdateOledv,"ax",%progbits
 6006              		.align	1
 6007              		.p2align 2,,3
 6008              		.global	_Z10UpdateOledv
 6009              		.syntax unified
 6010              		.thumb
 6011              		.thumb_func
 6012              		.fpu fpv5-d16
 6014              	_Z10UpdateOledv:
 6015              	.LFB4240:
  73:SampleAndHold.cpp **** 
  74:SampleAndHold.cpp **** void UpdateOled()
  75:SampleAndHold.cpp **** {
 6016              		.loc 13 75 1 is_stmt 1 view -0
 6017              		.cfi_startproc
 6018              		@ args = 0, pretend = 0, frame = 64
 6019              		@ frame_needed = 0, uses_anonymous_args = 0
  76:SampleAndHold.cpp ****     patch.display.Fill(false);
 6020              		.loc 13 76 5 view .LVU1414
 6021              	.LVL447:
 6022              	.LBB2035:
 6023              	.LBI2035:
  33:../../libdaisy/src/hid/disp/oled_display.h **** 
 6024              		.loc 2 33 10 view .LVU1415
 6025              	.LBB2036:
 6026              	.LBI2036:
 249:../../libdaisy/src/dev/oled_ssd130x.h ****     {
 6027              		.loc 12 249 10 view .LVU1416
 6028              	.LBB2037:
 251:../../libdaisy/src/dev/oled_ssd130x.h ****         {
 6029              		.loc 12 251 29 view .LVU1417
 6030 0000 8F4B     		ldr	r3, .L525
 6031              	.LBE2037:
 6032              	.LBE2036:
 6033              	.LBE2035:
  75:SampleAndHold.cpp ****     patch.display.Fill(false);
 6034              		.loc 13 75 1 is_stmt 0 view .LVU1418
 6035 0002 2DE9F04F 		push	{r4, r5, r6, r7, r8, r9, r10, fp, lr}
 6036              		.cfi_def_cfa_offset 36
 6037              		.cfi_offset 4, -36
 6038              		.cfi_offset 5, -32
 6039              		.cfi_offset 6, -28
 6040              		.cfi_offset 7, -24
 6041              		.cfi_offset 8, -20
 6042              		.cfi_offset 9, -16
ARM GAS  /tmp/ccobg3TQ.s 			page 166


 6043              		.cfi_offset 10, -12
 6044              		.cfi_offset 11, -8
 6045              		.cfi_offset 14, -4
 6046 0006 03F58062 		add	r2, r3, #1024
 6047 000a 93B0     		sub	sp, sp, #76
 6048              		.cfi_def_cfa_offset 112
 6049              	.LVL448:
 6050              	.L430:
 6051              	.LBB2040:
 6052              	.LBB2039:
 6053              	.LBB2038:
 253:../../libdaisy/src/dev/oled_ssd130x.h ****         }
 6054              		.loc 12 253 13 view .LVU1419
 6055 000c 0024     		movs	r4, #0
 6056 000e 03F8014F 		strb	r4, [r3, #1]!
 6057              	.LVL449:
 251:../../libdaisy/src/dev/oled_ssd130x.h ****         {
 6058              		.loc 12 251 9 is_stmt 1 view .LVU1420
 251:../../libdaisy/src/dev/oled_ssd130x.h ****         {
 6059              		.loc 12 251 29 view .LVU1421
 6060 0012 9342     		cmp	r3, r2
 6061 0014 FAD1     		bne	.L430
 6062              	.LVL450:
 251:../../libdaisy/src/dev/oled_ssd130x.h ****         {
 6063              		.loc 12 251 29 is_stmt 0 view .LVU1422
 6064              	.LBE2038:
 6065              	.LBE2039:
 6066              	.LBE2040:
  77:SampleAndHold.cpp **** 
  78:SampleAndHold.cpp ****     std::string str  = "Sample/Track and Hold";
 6067              		.loc 13 78 5 is_stmt 1 view .LVU1423
 6068              	.LBB2041:
 6069              	.LBI2041:
 6070              		.file 18 "/usr/include/newlib/c++/9.2.1/bits/allocator.h"
   1:/usr/include/newlib/c++/9.2.1/bits/allocator.h **** // Allocators -*- C++ -*-
   2:/usr/include/newlib/c++/9.2.1/bits/allocator.h **** 
   3:/usr/include/newlib/c++/9.2.1/bits/allocator.h **** // Copyright (C) 2001-2019 Free Software Foundation, Inc.
   4:/usr/include/newlib/c++/9.2.1/bits/allocator.h **** //
   5:/usr/include/newlib/c++/9.2.1/bits/allocator.h **** // This file is part of the GNU ISO C++ Library.  This library is free
   6:/usr/include/newlib/c++/9.2.1/bits/allocator.h **** // software; you can redistribute it and/or modify it under the
   7:/usr/include/newlib/c++/9.2.1/bits/allocator.h **** // terms of the GNU General Public License as published by the
   8:/usr/include/newlib/c++/9.2.1/bits/allocator.h **** // Free Software Foundation; either version 3, or (at your option)
   9:/usr/include/newlib/c++/9.2.1/bits/allocator.h **** // any later version.
  10:/usr/include/newlib/c++/9.2.1/bits/allocator.h **** 
  11:/usr/include/newlib/c++/9.2.1/bits/allocator.h **** // This library is distributed in the hope that it will be useful,
  12:/usr/include/newlib/c++/9.2.1/bits/allocator.h **** // but WITHOUT ANY WARRANTY; without even the implied warranty of
  13:/usr/include/newlib/c++/9.2.1/bits/allocator.h **** // MERCHANTABILITY or FITNESS FOR A PARTICULAR PURPOSE.  See the
  14:/usr/include/newlib/c++/9.2.1/bits/allocator.h **** // GNU General Public License for more details.
  15:/usr/include/newlib/c++/9.2.1/bits/allocator.h **** 
  16:/usr/include/newlib/c++/9.2.1/bits/allocator.h **** // Under Section 7 of GPL version 3, you are granted additional
  17:/usr/include/newlib/c++/9.2.1/bits/allocator.h **** // permissions described in the GCC Runtime Library Exception, version
  18:/usr/include/newlib/c++/9.2.1/bits/allocator.h **** // 3.1, as published by the Free Software Foundation.
  19:/usr/include/newlib/c++/9.2.1/bits/allocator.h **** 
  20:/usr/include/newlib/c++/9.2.1/bits/allocator.h **** // You should have received a copy of the GNU General Public License and
  21:/usr/include/newlib/c++/9.2.1/bits/allocator.h **** // a copy of the GCC Runtime Library Exception along with this program;
  22:/usr/include/newlib/c++/9.2.1/bits/allocator.h **** // see the files COPYING3 and COPYING.RUNTIME respectively.  If not, see
  23:/usr/include/newlib/c++/9.2.1/bits/allocator.h **** // <http://www.gnu.org/licenses/>.
ARM GAS  /tmp/ccobg3TQ.s 			page 167


  24:/usr/include/newlib/c++/9.2.1/bits/allocator.h **** 
  25:/usr/include/newlib/c++/9.2.1/bits/allocator.h **** /*
  26:/usr/include/newlib/c++/9.2.1/bits/allocator.h ****  * Copyright (c) 1996-1997
  27:/usr/include/newlib/c++/9.2.1/bits/allocator.h ****  * Silicon Graphics Computer Systems, Inc.
  28:/usr/include/newlib/c++/9.2.1/bits/allocator.h ****  *
  29:/usr/include/newlib/c++/9.2.1/bits/allocator.h ****  * Permission to use, copy, modify, distribute and sell this software
  30:/usr/include/newlib/c++/9.2.1/bits/allocator.h ****  * and its documentation for any purpose is hereby granted without fee,
  31:/usr/include/newlib/c++/9.2.1/bits/allocator.h ****  * provided that the above copyright notice appear in all copies and
  32:/usr/include/newlib/c++/9.2.1/bits/allocator.h ****  * that both that copyright notice and this permission notice appear
  33:/usr/include/newlib/c++/9.2.1/bits/allocator.h ****  * in supporting documentation.  Silicon Graphics makes no
  34:/usr/include/newlib/c++/9.2.1/bits/allocator.h ****  * representations about the suitability of this software for any
  35:/usr/include/newlib/c++/9.2.1/bits/allocator.h ****  * purpose.  It is provided "as is" without express or implied warranty.
  36:/usr/include/newlib/c++/9.2.1/bits/allocator.h ****  */
  37:/usr/include/newlib/c++/9.2.1/bits/allocator.h **** 
  38:/usr/include/newlib/c++/9.2.1/bits/allocator.h **** /** @file bits/allocator.h
  39:/usr/include/newlib/c++/9.2.1/bits/allocator.h ****  *  This is an internal header file, included by other library headers.
  40:/usr/include/newlib/c++/9.2.1/bits/allocator.h ****  *  Do not attempt to use it directly. @headername{memory}
  41:/usr/include/newlib/c++/9.2.1/bits/allocator.h ****  */
  42:/usr/include/newlib/c++/9.2.1/bits/allocator.h **** 
  43:/usr/include/newlib/c++/9.2.1/bits/allocator.h **** #ifndef _ALLOCATOR_H
  44:/usr/include/newlib/c++/9.2.1/bits/allocator.h **** #define _ALLOCATOR_H 1
  45:/usr/include/newlib/c++/9.2.1/bits/allocator.h **** 
  46:/usr/include/newlib/c++/9.2.1/bits/allocator.h **** #include <bits/c++allocator.h> // Define the base class to std::allocator.
  47:/usr/include/newlib/c++/9.2.1/bits/allocator.h **** #include <bits/memoryfwd.h>
  48:/usr/include/newlib/c++/9.2.1/bits/allocator.h **** #if __cplusplus >= 201103L
  49:/usr/include/newlib/c++/9.2.1/bits/allocator.h **** #include <type_traits>
  50:/usr/include/newlib/c++/9.2.1/bits/allocator.h **** #endif
  51:/usr/include/newlib/c++/9.2.1/bits/allocator.h **** 
  52:/usr/include/newlib/c++/9.2.1/bits/allocator.h **** #define __cpp_lib_incomplete_container_elements 201505
  53:/usr/include/newlib/c++/9.2.1/bits/allocator.h **** #if __cplusplus >= 201103L
  54:/usr/include/newlib/c++/9.2.1/bits/allocator.h **** # define __cpp_lib_allocator_is_always_equal 201411
  55:/usr/include/newlib/c++/9.2.1/bits/allocator.h **** #endif
  56:/usr/include/newlib/c++/9.2.1/bits/allocator.h **** 
  57:/usr/include/newlib/c++/9.2.1/bits/allocator.h **** namespace std _GLIBCXX_VISIBILITY(default)
  58:/usr/include/newlib/c++/9.2.1/bits/allocator.h **** {
  59:/usr/include/newlib/c++/9.2.1/bits/allocator.h **** _GLIBCXX_BEGIN_NAMESPACE_VERSION
  60:/usr/include/newlib/c++/9.2.1/bits/allocator.h **** 
  61:/usr/include/newlib/c++/9.2.1/bits/allocator.h ****   /**
  62:/usr/include/newlib/c++/9.2.1/bits/allocator.h ****    *  @addtogroup allocators
  63:/usr/include/newlib/c++/9.2.1/bits/allocator.h ****    *  @{
  64:/usr/include/newlib/c++/9.2.1/bits/allocator.h ****    */
  65:/usr/include/newlib/c++/9.2.1/bits/allocator.h **** 
  66:/usr/include/newlib/c++/9.2.1/bits/allocator.h ****   /// allocator<void> specialization.
  67:/usr/include/newlib/c++/9.2.1/bits/allocator.h ****   template<>
  68:/usr/include/newlib/c++/9.2.1/bits/allocator.h ****     class allocator<void>
  69:/usr/include/newlib/c++/9.2.1/bits/allocator.h ****     {
  70:/usr/include/newlib/c++/9.2.1/bits/allocator.h ****     public:
  71:/usr/include/newlib/c++/9.2.1/bits/allocator.h ****       typedef size_t      size_type;
  72:/usr/include/newlib/c++/9.2.1/bits/allocator.h ****       typedef ptrdiff_t   difference_type;
  73:/usr/include/newlib/c++/9.2.1/bits/allocator.h ****       typedef void*       pointer;
  74:/usr/include/newlib/c++/9.2.1/bits/allocator.h ****       typedef const void* const_pointer;
  75:/usr/include/newlib/c++/9.2.1/bits/allocator.h ****       typedef void        value_type;
  76:/usr/include/newlib/c++/9.2.1/bits/allocator.h **** 
  77:/usr/include/newlib/c++/9.2.1/bits/allocator.h ****       template<typename _Tp1>
  78:/usr/include/newlib/c++/9.2.1/bits/allocator.h **** 	struct rebind
  79:/usr/include/newlib/c++/9.2.1/bits/allocator.h **** 	{ typedef allocator<_Tp1> other; };
  80:/usr/include/newlib/c++/9.2.1/bits/allocator.h **** 
ARM GAS  /tmp/ccobg3TQ.s 			page 168


  81:/usr/include/newlib/c++/9.2.1/bits/allocator.h **** #if __cplusplus >= 201103L
  82:/usr/include/newlib/c++/9.2.1/bits/allocator.h ****       // _GLIBCXX_RESOLVE_LIB_DEFECTS
  83:/usr/include/newlib/c++/9.2.1/bits/allocator.h ****       // 2103. std::allocator propagate_on_container_move_assignment
  84:/usr/include/newlib/c++/9.2.1/bits/allocator.h ****       typedef true_type propagate_on_container_move_assignment;
  85:/usr/include/newlib/c++/9.2.1/bits/allocator.h **** 
  86:/usr/include/newlib/c++/9.2.1/bits/allocator.h ****       typedef true_type is_always_equal;
  87:/usr/include/newlib/c++/9.2.1/bits/allocator.h **** 
  88:/usr/include/newlib/c++/9.2.1/bits/allocator.h ****       template<typename _Up, typename... _Args>
  89:/usr/include/newlib/c++/9.2.1/bits/allocator.h **** 	void
  90:/usr/include/newlib/c++/9.2.1/bits/allocator.h **** 	construct(_Up* __p, _Args&&... __args)
  91:/usr/include/newlib/c++/9.2.1/bits/allocator.h **** 	noexcept(noexcept(::new((void *)__p)
  92:/usr/include/newlib/c++/9.2.1/bits/allocator.h **** 			    _Up(std::forward<_Args>(__args)...)))
  93:/usr/include/newlib/c++/9.2.1/bits/allocator.h **** 	{ ::new((void *)__p) _Up(std::forward<_Args>(__args)...); }
  94:/usr/include/newlib/c++/9.2.1/bits/allocator.h **** 
  95:/usr/include/newlib/c++/9.2.1/bits/allocator.h ****       template<typename _Up>
  96:/usr/include/newlib/c++/9.2.1/bits/allocator.h **** 	void
  97:/usr/include/newlib/c++/9.2.1/bits/allocator.h **** 	destroy(_Up* __p)
  98:/usr/include/newlib/c++/9.2.1/bits/allocator.h **** 	noexcept(noexcept(__p->~_Up()))
  99:/usr/include/newlib/c++/9.2.1/bits/allocator.h **** 	{ __p->~_Up(); }
 100:/usr/include/newlib/c++/9.2.1/bits/allocator.h **** #endif
 101:/usr/include/newlib/c++/9.2.1/bits/allocator.h ****     };
 102:/usr/include/newlib/c++/9.2.1/bits/allocator.h **** 
 103:/usr/include/newlib/c++/9.2.1/bits/allocator.h ****   /**
 104:/usr/include/newlib/c++/9.2.1/bits/allocator.h ****    * @brief  The @a standard allocator, as per [20.4].
 105:/usr/include/newlib/c++/9.2.1/bits/allocator.h ****    *
 106:/usr/include/newlib/c++/9.2.1/bits/allocator.h ****    *  See https://gcc.gnu.org/onlinedocs/libstdc++/manual/memory.html#std.util.memory.allocator
 107:/usr/include/newlib/c++/9.2.1/bits/allocator.h ****    *  for further details.
 108:/usr/include/newlib/c++/9.2.1/bits/allocator.h ****    *
 109:/usr/include/newlib/c++/9.2.1/bits/allocator.h ****    *  @tparam  _Tp  Type of allocated object.
 110:/usr/include/newlib/c++/9.2.1/bits/allocator.h ****    */
 111:/usr/include/newlib/c++/9.2.1/bits/allocator.h ****   template<typename _Tp>
 112:/usr/include/newlib/c++/9.2.1/bits/allocator.h ****     class allocator : public __allocator_base<_Tp>
 113:/usr/include/newlib/c++/9.2.1/bits/allocator.h ****     {
 114:/usr/include/newlib/c++/9.2.1/bits/allocator.h ****    public:
 115:/usr/include/newlib/c++/9.2.1/bits/allocator.h ****       typedef size_t     size_type;
 116:/usr/include/newlib/c++/9.2.1/bits/allocator.h ****       typedef ptrdiff_t  difference_type;
 117:/usr/include/newlib/c++/9.2.1/bits/allocator.h ****       typedef _Tp*       pointer;
 118:/usr/include/newlib/c++/9.2.1/bits/allocator.h ****       typedef const _Tp* const_pointer;
 119:/usr/include/newlib/c++/9.2.1/bits/allocator.h ****       typedef _Tp&       reference;
 120:/usr/include/newlib/c++/9.2.1/bits/allocator.h ****       typedef const _Tp& const_reference;
 121:/usr/include/newlib/c++/9.2.1/bits/allocator.h ****       typedef _Tp        value_type;
 122:/usr/include/newlib/c++/9.2.1/bits/allocator.h **** 
 123:/usr/include/newlib/c++/9.2.1/bits/allocator.h ****       template<typename _Tp1>
 124:/usr/include/newlib/c++/9.2.1/bits/allocator.h **** 	struct rebind
 125:/usr/include/newlib/c++/9.2.1/bits/allocator.h **** 	{ typedef allocator<_Tp1> other; };
 126:/usr/include/newlib/c++/9.2.1/bits/allocator.h **** 
 127:/usr/include/newlib/c++/9.2.1/bits/allocator.h **** #if __cplusplus >= 201103L
 128:/usr/include/newlib/c++/9.2.1/bits/allocator.h ****       // _GLIBCXX_RESOLVE_LIB_DEFECTS
 129:/usr/include/newlib/c++/9.2.1/bits/allocator.h ****       // 2103. std::allocator propagate_on_container_move_assignment
 130:/usr/include/newlib/c++/9.2.1/bits/allocator.h ****       typedef true_type propagate_on_container_move_assignment;
 131:/usr/include/newlib/c++/9.2.1/bits/allocator.h **** 
 132:/usr/include/newlib/c++/9.2.1/bits/allocator.h ****       typedef true_type is_always_equal;
 133:/usr/include/newlib/c++/9.2.1/bits/allocator.h **** #endif
 134:/usr/include/newlib/c++/9.2.1/bits/allocator.h **** 
 135:/usr/include/newlib/c++/9.2.1/bits/allocator.h ****       // _GLIBCXX_RESOLVE_LIB_DEFECTS
 136:/usr/include/newlib/c++/9.2.1/bits/allocator.h ****       // 3035. std::allocator's constructors should be constexpr
 137:/usr/include/newlib/c++/9.2.1/bits/allocator.h ****       _GLIBCXX20_CONSTEXPR
ARM GAS  /tmp/ccobg3TQ.s 			page 169


 138:/usr/include/newlib/c++/9.2.1/bits/allocator.h ****       allocator() _GLIBCXX_NOTHROW { }
 6071              		.loc 18 138 7 view .LVU1424
 6072              	.LBB2042:
 6073              	.LBI2042:
 6074              		.file 19 "/usr/include/newlib/c++/9.2.1/ext/new_allocator.h"
   1:/usr/include/newlib/c++/9.2.1/ext/new_allocator.h **** // Allocator that wraps operator new -*- C++ -*-
   2:/usr/include/newlib/c++/9.2.1/ext/new_allocator.h **** 
   3:/usr/include/newlib/c++/9.2.1/ext/new_allocator.h **** // Copyright (C) 2001-2019 Free Software Foundation, Inc.
   4:/usr/include/newlib/c++/9.2.1/ext/new_allocator.h **** //
   5:/usr/include/newlib/c++/9.2.1/ext/new_allocator.h **** // This file is part of the GNU ISO C++ Library.  This library is free
   6:/usr/include/newlib/c++/9.2.1/ext/new_allocator.h **** // software; you can redistribute it and/or modify it under the
   7:/usr/include/newlib/c++/9.2.1/ext/new_allocator.h **** // terms of the GNU General Public License as published by the
   8:/usr/include/newlib/c++/9.2.1/ext/new_allocator.h **** // Free Software Foundation; either version 3, or (at your option)
   9:/usr/include/newlib/c++/9.2.1/ext/new_allocator.h **** // any later version.
  10:/usr/include/newlib/c++/9.2.1/ext/new_allocator.h **** 
  11:/usr/include/newlib/c++/9.2.1/ext/new_allocator.h **** // This library is distributed in the hope that it will be useful,
  12:/usr/include/newlib/c++/9.2.1/ext/new_allocator.h **** // but WITHOUT ANY WARRANTY; without even the implied warranty of
  13:/usr/include/newlib/c++/9.2.1/ext/new_allocator.h **** // MERCHANTABILITY or FITNESS FOR A PARTICULAR PURPOSE.  See the
  14:/usr/include/newlib/c++/9.2.1/ext/new_allocator.h **** // GNU General Public License for more details.
  15:/usr/include/newlib/c++/9.2.1/ext/new_allocator.h **** 
  16:/usr/include/newlib/c++/9.2.1/ext/new_allocator.h **** // Under Section 7 of GPL version 3, you are granted additional
  17:/usr/include/newlib/c++/9.2.1/ext/new_allocator.h **** // permissions described in the GCC Runtime Library Exception, version
  18:/usr/include/newlib/c++/9.2.1/ext/new_allocator.h **** // 3.1, as published by the Free Software Foundation.
  19:/usr/include/newlib/c++/9.2.1/ext/new_allocator.h **** 
  20:/usr/include/newlib/c++/9.2.1/ext/new_allocator.h **** // You should have received a copy of the GNU General Public License and
  21:/usr/include/newlib/c++/9.2.1/ext/new_allocator.h **** // a copy of the GCC Runtime Library Exception along with this program;
  22:/usr/include/newlib/c++/9.2.1/ext/new_allocator.h **** // see the files COPYING3 and COPYING.RUNTIME respectively.  If not, see
  23:/usr/include/newlib/c++/9.2.1/ext/new_allocator.h **** // <http://www.gnu.org/licenses/>.
  24:/usr/include/newlib/c++/9.2.1/ext/new_allocator.h **** 
  25:/usr/include/newlib/c++/9.2.1/ext/new_allocator.h **** /** @file ext/new_allocator.h
  26:/usr/include/newlib/c++/9.2.1/ext/new_allocator.h ****  *  This file is a GNU extension to the Standard C++ Library.
  27:/usr/include/newlib/c++/9.2.1/ext/new_allocator.h ****  */
  28:/usr/include/newlib/c++/9.2.1/ext/new_allocator.h **** 
  29:/usr/include/newlib/c++/9.2.1/ext/new_allocator.h **** #ifndef _NEW_ALLOCATOR_H
  30:/usr/include/newlib/c++/9.2.1/ext/new_allocator.h **** #define _NEW_ALLOCATOR_H 1
  31:/usr/include/newlib/c++/9.2.1/ext/new_allocator.h **** 
  32:/usr/include/newlib/c++/9.2.1/ext/new_allocator.h **** #include <bits/c++config.h>
  33:/usr/include/newlib/c++/9.2.1/ext/new_allocator.h **** #include <new>
  34:/usr/include/newlib/c++/9.2.1/ext/new_allocator.h **** #include <bits/functexcept.h>
  35:/usr/include/newlib/c++/9.2.1/ext/new_allocator.h **** #include <bits/move.h>
  36:/usr/include/newlib/c++/9.2.1/ext/new_allocator.h **** #if __cplusplus >= 201103L
  37:/usr/include/newlib/c++/9.2.1/ext/new_allocator.h **** #include <type_traits>
  38:/usr/include/newlib/c++/9.2.1/ext/new_allocator.h **** #endif
  39:/usr/include/newlib/c++/9.2.1/ext/new_allocator.h **** 
  40:/usr/include/newlib/c++/9.2.1/ext/new_allocator.h **** namespace __gnu_cxx _GLIBCXX_VISIBILITY(default)
  41:/usr/include/newlib/c++/9.2.1/ext/new_allocator.h **** {
  42:/usr/include/newlib/c++/9.2.1/ext/new_allocator.h **** _GLIBCXX_BEGIN_NAMESPACE_VERSION
  43:/usr/include/newlib/c++/9.2.1/ext/new_allocator.h **** 
  44:/usr/include/newlib/c++/9.2.1/ext/new_allocator.h ****   using std::size_t;
  45:/usr/include/newlib/c++/9.2.1/ext/new_allocator.h ****   using std::ptrdiff_t;
  46:/usr/include/newlib/c++/9.2.1/ext/new_allocator.h **** 
  47:/usr/include/newlib/c++/9.2.1/ext/new_allocator.h ****   /**
  48:/usr/include/newlib/c++/9.2.1/ext/new_allocator.h ****    *  @brief  An allocator that uses global new, as per [20.4].
  49:/usr/include/newlib/c++/9.2.1/ext/new_allocator.h ****    *  @ingroup allocators
  50:/usr/include/newlib/c++/9.2.1/ext/new_allocator.h ****    *
  51:/usr/include/newlib/c++/9.2.1/ext/new_allocator.h ****    *  This is precisely the allocator defined in the C++ Standard.
  52:/usr/include/newlib/c++/9.2.1/ext/new_allocator.h ****    *    - all allocation calls operator new
ARM GAS  /tmp/ccobg3TQ.s 			page 170


  53:/usr/include/newlib/c++/9.2.1/ext/new_allocator.h ****    *    - all deallocation calls operator delete
  54:/usr/include/newlib/c++/9.2.1/ext/new_allocator.h ****    *
  55:/usr/include/newlib/c++/9.2.1/ext/new_allocator.h ****    *  @tparam  _Tp  Type of allocated object.
  56:/usr/include/newlib/c++/9.2.1/ext/new_allocator.h ****    */
  57:/usr/include/newlib/c++/9.2.1/ext/new_allocator.h ****   template<typename _Tp>
  58:/usr/include/newlib/c++/9.2.1/ext/new_allocator.h ****     class new_allocator
  59:/usr/include/newlib/c++/9.2.1/ext/new_allocator.h ****     {
  60:/usr/include/newlib/c++/9.2.1/ext/new_allocator.h ****     public:
  61:/usr/include/newlib/c++/9.2.1/ext/new_allocator.h ****       typedef size_t     size_type;
  62:/usr/include/newlib/c++/9.2.1/ext/new_allocator.h ****       typedef ptrdiff_t  difference_type;
  63:/usr/include/newlib/c++/9.2.1/ext/new_allocator.h ****       typedef _Tp*       pointer;
  64:/usr/include/newlib/c++/9.2.1/ext/new_allocator.h ****       typedef const _Tp* const_pointer;
  65:/usr/include/newlib/c++/9.2.1/ext/new_allocator.h ****       typedef _Tp&       reference;
  66:/usr/include/newlib/c++/9.2.1/ext/new_allocator.h ****       typedef const _Tp& const_reference;
  67:/usr/include/newlib/c++/9.2.1/ext/new_allocator.h ****       typedef _Tp        value_type;
  68:/usr/include/newlib/c++/9.2.1/ext/new_allocator.h **** 
  69:/usr/include/newlib/c++/9.2.1/ext/new_allocator.h ****       template<typename _Tp1>
  70:/usr/include/newlib/c++/9.2.1/ext/new_allocator.h **** 	struct rebind
  71:/usr/include/newlib/c++/9.2.1/ext/new_allocator.h **** 	{ typedef new_allocator<_Tp1> other; };
  72:/usr/include/newlib/c++/9.2.1/ext/new_allocator.h **** 
  73:/usr/include/newlib/c++/9.2.1/ext/new_allocator.h **** #if __cplusplus >= 201103L
  74:/usr/include/newlib/c++/9.2.1/ext/new_allocator.h ****       // _GLIBCXX_RESOLVE_LIB_DEFECTS
  75:/usr/include/newlib/c++/9.2.1/ext/new_allocator.h ****       // 2103. propagate_on_container_move_assignment
  76:/usr/include/newlib/c++/9.2.1/ext/new_allocator.h ****       typedef std::true_type propagate_on_container_move_assignment;
  77:/usr/include/newlib/c++/9.2.1/ext/new_allocator.h **** #endif
  78:/usr/include/newlib/c++/9.2.1/ext/new_allocator.h **** 
  79:/usr/include/newlib/c++/9.2.1/ext/new_allocator.h ****       _GLIBCXX20_CONSTEXPR
  80:/usr/include/newlib/c++/9.2.1/ext/new_allocator.h ****       new_allocator() _GLIBCXX_USE_NOEXCEPT { }
 6075              		.loc 19 80 7 view .LVU1425
 6076              		.loc 19 80 7 is_stmt 0 view .LVU1426
 6077              	.LBE2042:
 6078              	.LBE2041:
 6079              	.LBB2043:
 6080              	.LBI2043:
 6081              		.file 20 "/usr/include/newlib/c++/9.2.1/bits/basic_string.h"
   1:/usr/include/newlib/c++/9.2.1/bits/basic_string.h **** // Components for manipulating sequences of characters -*- C++ -*-
   2:/usr/include/newlib/c++/9.2.1/bits/basic_string.h **** 
   3:/usr/include/newlib/c++/9.2.1/bits/basic_string.h **** // Copyright (C) 1997-2019 Free Software Foundation, Inc.
   4:/usr/include/newlib/c++/9.2.1/bits/basic_string.h **** //
   5:/usr/include/newlib/c++/9.2.1/bits/basic_string.h **** // This file is part of the GNU ISO C++ Library.  This library is free
   6:/usr/include/newlib/c++/9.2.1/bits/basic_string.h **** // software; you can redistribute it and/or modify it under the
   7:/usr/include/newlib/c++/9.2.1/bits/basic_string.h **** // terms of the GNU General Public License as published by the
   8:/usr/include/newlib/c++/9.2.1/bits/basic_string.h **** // Free Software Foundation; either version 3, or (at your option)
   9:/usr/include/newlib/c++/9.2.1/bits/basic_string.h **** // any later version.
  10:/usr/include/newlib/c++/9.2.1/bits/basic_string.h **** 
  11:/usr/include/newlib/c++/9.2.1/bits/basic_string.h **** // This library is distributed in the hope that it will be useful,
  12:/usr/include/newlib/c++/9.2.1/bits/basic_string.h **** // but WITHOUT ANY WARRANTY; without even the implied warranty of
  13:/usr/include/newlib/c++/9.2.1/bits/basic_string.h **** // MERCHANTABILITY or FITNESS FOR A PARTICULAR PURPOSE.  See the
  14:/usr/include/newlib/c++/9.2.1/bits/basic_string.h **** // GNU General Public License for more details.
  15:/usr/include/newlib/c++/9.2.1/bits/basic_string.h **** 
  16:/usr/include/newlib/c++/9.2.1/bits/basic_string.h **** // Under Section 7 of GPL version 3, you are granted additional
  17:/usr/include/newlib/c++/9.2.1/bits/basic_string.h **** // permissions described in the GCC Runtime Library Exception, version
  18:/usr/include/newlib/c++/9.2.1/bits/basic_string.h **** // 3.1, as published by the Free Software Foundation.
  19:/usr/include/newlib/c++/9.2.1/bits/basic_string.h **** 
  20:/usr/include/newlib/c++/9.2.1/bits/basic_string.h **** // You should have received a copy of the GNU General Public License and
  21:/usr/include/newlib/c++/9.2.1/bits/basic_string.h **** // a copy of the GCC Runtime Library Exception along with this program;
  22:/usr/include/newlib/c++/9.2.1/bits/basic_string.h **** // see the files COPYING3 and COPYING.RUNTIME respectively.  If not, see
ARM GAS  /tmp/ccobg3TQ.s 			page 171


  23:/usr/include/newlib/c++/9.2.1/bits/basic_string.h **** // <http://www.gnu.org/licenses/>.
  24:/usr/include/newlib/c++/9.2.1/bits/basic_string.h **** 
  25:/usr/include/newlib/c++/9.2.1/bits/basic_string.h **** /** @file bits/basic_string.h
  26:/usr/include/newlib/c++/9.2.1/bits/basic_string.h ****  *  This is an internal header file, included by other library headers.
  27:/usr/include/newlib/c++/9.2.1/bits/basic_string.h ****  *  Do not attempt to use it directly. @headername{string}
  28:/usr/include/newlib/c++/9.2.1/bits/basic_string.h ****  */
  29:/usr/include/newlib/c++/9.2.1/bits/basic_string.h **** 
  30:/usr/include/newlib/c++/9.2.1/bits/basic_string.h **** //
  31:/usr/include/newlib/c++/9.2.1/bits/basic_string.h **** // ISO C++ 14882: 21 Strings library
  32:/usr/include/newlib/c++/9.2.1/bits/basic_string.h **** //
  33:/usr/include/newlib/c++/9.2.1/bits/basic_string.h **** 
  34:/usr/include/newlib/c++/9.2.1/bits/basic_string.h **** #ifndef _BASIC_STRING_H
  35:/usr/include/newlib/c++/9.2.1/bits/basic_string.h **** #define _BASIC_STRING_H 1
  36:/usr/include/newlib/c++/9.2.1/bits/basic_string.h **** 
  37:/usr/include/newlib/c++/9.2.1/bits/basic_string.h **** #pragma GCC system_header
  38:/usr/include/newlib/c++/9.2.1/bits/basic_string.h **** 
  39:/usr/include/newlib/c++/9.2.1/bits/basic_string.h **** #include <ext/atomicity.h>
  40:/usr/include/newlib/c++/9.2.1/bits/basic_string.h **** #include <ext/alloc_traits.h>
  41:/usr/include/newlib/c++/9.2.1/bits/basic_string.h **** #include <debug/debug.h>
  42:/usr/include/newlib/c++/9.2.1/bits/basic_string.h **** 
  43:/usr/include/newlib/c++/9.2.1/bits/basic_string.h **** #if __cplusplus >= 201103L
  44:/usr/include/newlib/c++/9.2.1/bits/basic_string.h **** #include <initializer_list>
  45:/usr/include/newlib/c++/9.2.1/bits/basic_string.h **** #endif
  46:/usr/include/newlib/c++/9.2.1/bits/basic_string.h **** 
  47:/usr/include/newlib/c++/9.2.1/bits/basic_string.h **** #if __cplusplus >= 201703L
  48:/usr/include/newlib/c++/9.2.1/bits/basic_string.h **** # include <string_view>
  49:/usr/include/newlib/c++/9.2.1/bits/basic_string.h **** #endif
  50:/usr/include/newlib/c++/9.2.1/bits/basic_string.h **** 
  51:/usr/include/newlib/c++/9.2.1/bits/basic_string.h **** 
  52:/usr/include/newlib/c++/9.2.1/bits/basic_string.h **** namespace std _GLIBCXX_VISIBILITY(default)
  53:/usr/include/newlib/c++/9.2.1/bits/basic_string.h **** {
  54:/usr/include/newlib/c++/9.2.1/bits/basic_string.h **** _GLIBCXX_BEGIN_NAMESPACE_VERSION
  55:/usr/include/newlib/c++/9.2.1/bits/basic_string.h **** 
  56:/usr/include/newlib/c++/9.2.1/bits/basic_string.h **** #if _GLIBCXX_USE_CXX11_ABI
  57:/usr/include/newlib/c++/9.2.1/bits/basic_string.h **** _GLIBCXX_BEGIN_NAMESPACE_CXX11
  58:/usr/include/newlib/c++/9.2.1/bits/basic_string.h ****   /**
  59:/usr/include/newlib/c++/9.2.1/bits/basic_string.h ****    *  @class basic_string basic_string.h <string>
  60:/usr/include/newlib/c++/9.2.1/bits/basic_string.h ****    *  @brief  Managing sequences of characters and character-like objects.
  61:/usr/include/newlib/c++/9.2.1/bits/basic_string.h ****    *
  62:/usr/include/newlib/c++/9.2.1/bits/basic_string.h ****    *  @ingroup strings
  63:/usr/include/newlib/c++/9.2.1/bits/basic_string.h ****    *  @ingroup sequences
  64:/usr/include/newlib/c++/9.2.1/bits/basic_string.h ****    *
  65:/usr/include/newlib/c++/9.2.1/bits/basic_string.h ****    *  @tparam _CharT  Type of character
  66:/usr/include/newlib/c++/9.2.1/bits/basic_string.h ****    *  @tparam _Traits  Traits for character type, defaults to
  67:/usr/include/newlib/c++/9.2.1/bits/basic_string.h ****    *                   char_traits<_CharT>.
  68:/usr/include/newlib/c++/9.2.1/bits/basic_string.h ****    *  @tparam _Alloc  Allocator type, defaults to allocator<_CharT>.
  69:/usr/include/newlib/c++/9.2.1/bits/basic_string.h ****    *
  70:/usr/include/newlib/c++/9.2.1/bits/basic_string.h ****    *  Meets the requirements of a <a href="tables.html#65">container</a>, a
  71:/usr/include/newlib/c++/9.2.1/bits/basic_string.h ****    *  <a href="tables.html#66">reversible container</a>, and a
  72:/usr/include/newlib/c++/9.2.1/bits/basic_string.h ****    *  <a href="tables.html#67">sequence</a>.  Of the
  73:/usr/include/newlib/c++/9.2.1/bits/basic_string.h ****    *  <a href="tables.html#68">optional sequence requirements</a>, only
  74:/usr/include/newlib/c++/9.2.1/bits/basic_string.h ****    *  @c push_back, @c at, and @c %array access are supported.
  75:/usr/include/newlib/c++/9.2.1/bits/basic_string.h ****    */
  76:/usr/include/newlib/c++/9.2.1/bits/basic_string.h ****   template<typename _CharT, typename _Traits, typename _Alloc>
  77:/usr/include/newlib/c++/9.2.1/bits/basic_string.h ****     class basic_string
  78:/usr/include/newlib/c++/9.2.1/bits/basic_string.h ****     {
  79:/usr/include/newlib/c++/9.2.1/bits/basic_string.h ****       typedef typename __gnu_cxx::__alloc_traits<_Alloc>::template
ARM GAS  /tmp/ccobg3TQ.s 			page 172


  80:/usr/include/newlib/c++/9.2.1/bits/basic_string.h **** 	rebind<_CharT>::other _Char_alloc_type;
  81:/usr/include/newlib/c++/9.2.1/bits/basic_string.h ****       typedef __gnu_cxx::__alloc_traits<_Char_alloc_type> _Alloc_traits;
  82:/usr/include/newlib/c++/9.2.1/bits/basic_string.h **** 
  83:/usr/include/newlib/c++/9.2.1/bits/basic_string.h ****       // Types:
  84:/usr/include/newlib/c++/9.2.1/bits/basic_string.h ****     public:
  85:/usr/include/newlib/c++/9.2.1/bits/basic_string.h ****       typedef _Traits					traits_type;
  86:/usr/include/newlib/c++/9.2.1/bits/basic_string.h ****       typedef typename _Traits::char_type		value_type;
  87:/usr/include/newlib/c++/9.2.1/bits/basic_string.h ****       typedef _Char_alloc_type				allocator_type;
  88:/usr/include/newlib/c++/9.2.1/bits/basic_string.h ****       typedef typename _Alloc_traits::size_type		size_type;
  89:/usr/include/newlib/c++/9.2.1/bits/basic_string.h ****       typedef typename _Alloc_traits::difference_type	difference_type;
  90:/usr/include/newlib/c++/9.2.1/bits/basic_string.h ****       typedef typename _Alloc_traits::reference		reference;
  91:/usr/include/newlib/c++/9.2.1/bits/basic_string.h ****       typedef typename _Alloc_traits::const_reference	const_reference;
  92:/usr/include/newlib/c++/9.2.1/bits/basic_string.h ****       typedef typename _Alloc_traits::pointer		pointer;
  93:/usr/include/newlib/c++/9.2.1/bits/basic_string.h ****       typedef typename _Alloc_traits::const_pointer	const_pointer;
  94:/usr/include/newlib/c++/9.2.1/bits/basic_string.h ****       typedef __gnu_cxx::__normal_iterator<pointer, basic_string>  iterator;
  95:/usr/include/newlib/c++/9.2.1/bits/basic_string.h ****       typedef __gnu_cxx::__normal_iterator<const_pointer, basic_string>
  96:/usr/include/newlib/c++/9.2.1/bits/basic_string.h **** 							const_iterator;
  97:/usr/include/newlib/c++/9.2.1/bits/basic_string.h ****       typedef std::reverse_iterator<const_iterator>	const_reverse_iterator;
  98:/usr/include/newlib/c++/9.2.1/bits/basic_string.h ****       typedef std::reverse_iterator<iterator>		reverse_iterator;
  99:/usr/include/newlib/c++/9.2.1/bits/basic_string.h **** 
 100:/usr/include/newlib/c++/9.2.1/bits/basic_string.h ****       ///  Value returned by various member functions when they fail.
 101:/usr/include/newlib/c++/9.2.1/bits/basic_string.h ****       static const size_type	npos = static_cast<size_type>(-1);
 102:/usr/include/newlib/c++/9.2.1/bits/basic_string.h **** 
 103:/usr/include/newlib/c++/9.2.1/bits/basic_string.h ****     protected:
 104:/usr/include/newlib/c++/9.2.1/bits/basic_string.h ****       // type used for positions in insert, erase etc.
 105:/usr/include/newlib/c++/9.2.1/bits/basic_string.h **** #if __cplusplus < 201103L
 106:/usr/include/newlib/c++/9.2.1/bits/basic_string.h ****       typedef iterator __const_iterator;
 107:/usr/include/newlib/c++/9.2.1/bits/basic_string.h **** #else
 108:/usr/include/newlib/c++/9.2.1/bits/basic_string.h ****       typedef const_iterator __const_iterator;
 109:/usr/include/newlib/c++/9.2.1/bits/basic_string.h **** #endif
 110:/usr/include/newlib/c++/9.2.1/bits/basic_string.h **** 
 111:/usr/include/newlib/c++/9.2.1/bits/basic_string.h ****     private:
 112:/usr/include/newlib/c++/9.2.1/bits/basic_string.h **** #if __cplusplus >= 201703L
 113:/usr/include/newlib/c++/9.2.1/bits/basic_string.h ****       // A helper type for avoiding boiler-plate.
 114:/usr/include/newlib/c++/9.2.1/bits/basic_string.h ****       typedef basic_string_view<_CharT, _Traits> __sv_type;
 115:/usr/include/newlib/c++/9.2.1/bits/basic_string.h **** 
 116:/usr/include/newlib/c++/9.2.1/bits/basic_string.h ****       template<typename _Tp, typename _Res>
 117:/usr/include/newlib/c++/9.2.1/bits/basic_string.h **** 	using _If_sv = enable_if_t<
 118:/usr/include/newlib/c++/9.2.1/bits/basic_string.h **** 	  __and_<is_convertible<const _Tp&, __sv_type>,
 119:/usr/include/newlib/c++/9.2.1/bits/basic_string.h **** 		 __not_<is_convertible<const _Tp*, const basic_string*>>,
 120:/usr/include/newlib/c++/9.2.1/bits/basic_string.h **** 		 __not_<is_convertible<const _Tp&, const _CharT*>>>::value,
 121:/usr/include/newlib/c++/9.2.1/bits/basic_string.h **** 	  _Res>;
 122:/usr/include/newlib/c++/9.2.1/bits/basic_string.h **** 
 123:/usr/include/newlib/c++/9.2.1/bits/basic_string.h ****       // Allows an implicit conversion to __sv_type.
 124:/usr/include/newlib/c++/9.2.1/bits/basic_string.h ****       static __sv_type
 125:/usr/include/newlib/c++/9.2.1/bits/basic_string.h ****       _S_to_string_view(__sv_type __svt) noexcept
 126:/usr/include/newlib/c++/9.2.1/bits/basic_string.h ****       { return __svt; }
 127:/usr/include/newlib/c++/9.2.1/bits/basic_string.h **** 
 128:/usr/include/newlib/c++/9.2.1/bits/basic_string.h ****       // Wraps a string_view by explicit conversion and thus
 129:/usr/include/newlib/c++/9.2.1/bits/basic_string.h ****       // allows to add an internal constructor that does not
 130:/usr/include/newlib/c++/9.2.1/bits/basic_string.h ****       // participate in overload resolution when a string_view
 131:/usr/include/newlib/c++/9.2.1/bits/basic_string.h ****       // is provided.
 132:/usr/include/newlib/c++/9.2.1/bits/basic_string.h ****       struct __sv_wrapper
 133:/usr/include/newlib/c++/9.2.1/bits/basic_string.h ****       {
 134:/usr/include/newlib/c++/9.2.1/bits/basic_string.h **** 	explicit __sv_wrapper(__sv_type __sv) noexcept : _M_sv(__sv) { }
 135:/usr/include/newlib/c++/9.2.1/bits/basic_string.h **** 	__sv_type _M_sv;
 136:/usr/include/newlib/c++/9.2.1/bits/basic_string.h ****       };
ARM GAS  /tmp/ccobg3TQ.s 			page 173


 137:/usr/include/newlib/c++/9.2.1/bits/basic_string.h **** 
 138:/usr/include/newlib/c++/9.2.1/bits/basic_string.h ****       /**
 139:/usr/include/newlib/c++/9.2.1/bits/basic_string.h ****        *  @brief  Only internally used: Construct string from a string view
 140:/usr/include/newlib/c++/9.2.1/bits/basic_string.h ****        *          wrapper.
 141:/usr/include/newlib/c++/9.2.1/bits/basic_string.h ****        *  @param  __svw  string view wrapper.
 142:/usr/include/newlib/c++/9.2.1/bits/basic_string.h ****        *  @param  __a  Allocator to use.
 143:/usr/include/newlib/c++/9.2.1/bits/basic_string.h ****        */
 144:/usr/include/newlib/c++/9.2.1/bits/basic_string.h ****       explicit
 145:/usr/include/newlib/c++/9.2.1/bits/basic_string.h ****       basic_string(__sv_wrapper __svw, const _Alloc& __a)
 146:/usr/include/newlib/c++/9.2.1/bits/basic_string.h ****       : basic_string(__svw._M_sv.data(), __svw._M_sv.size(), __a) { }
 147:/usr/include/newlib/c++/9.2.1/bits/basic_string.h **** #endif
 148:/usr/include/newlib/c++/9.2.1/bits/basic_string.h **** 
 149:/usr/include/newlib/c++/9.2.1/bits/basic_string.h ****       // Use empty-base optimization: http://www.cantrip.org/emptyopt.html
 150:/usr/include/newlib/c++/9.2.1/bits/basic_string.h ****       struct _Alloc_hider : allocator_type // TODO check __is_final
 151:/usr/include/newlib/c++/9.2.1/bits/basic_string.h ****       {
 152:/usr/include/newlib/c++/9.2.1/bits/basic_string.h **** #if __cplusplus < 201103L
 153:/usr/include/newlib/c++/9.2.1/bits/basic_string.h **** 	_Alloc_hider(pointer __dat, const _Alloc& __a = _Alloc())
 154:/usr/include/newlib/c++/9.2.1/bits/basic_string.h **** 	: allocator_type(__a), _M_p(__dat) { }
 155:/usr/include/newlib/c++/9.2.1/bits/basic_string.h **** #else
 156:/usr/include/newlib/c++/9.2.1/bits/basic_string.h **** 	_Alloc_hider(pointer __dat, const _Alloc& __a)
 157:/usr/include/newlib/c++/9.2.1/bits/basic_string.h **** 	: allocator_type(__a), _M_p(__dat) { }
 158:/usr/include/newlib/c++/9.2.1/bits/basic_string.h **** 
 159:/usr/include/newlib/c++/9.2.1/bits/basic_string.h **** 	_Alloc_hider(pointer __dat, _Alloc&& __a = _Alloc())
 160:/usr/include/newlib/c++/9.2.1/bits/basic_string.h **** 	: allocator_type(std::move(__a)), _M_p(__dat) { }
 161:/usr/include/newlib/c++/9.2.1/bits/basic_string.h **** #endif
 162:/usr/include/newlib/c++/9.2.1/bits/basic_string.h **** 
 163:/usr/include/newlib/c++/9.2.1/bits/basic_string.h **** 	pointer _M_p; // The actual data.
 164:/usr/include/newlib/c++/9.2.1/bits/basic_string.h ****       };
 165:/usr/include/newlib/c++/9.2.1/bits/basic_string.h **** 
 166:/usr/include/newlib/c++/9.2.1/bits/basic_string.h ****       _Alloc_hider	_M_dataplus;
 167:/usr/include/newlib/c++/9.2.1/bits/basic_string.h ****       size_type		_M_string_length;
 168:/usr/include/newlib/c++/9.2.1/bits/basic_string.h **** 
 169:/usr/include/newlib/c++/9.2.1/bits/basic_string.h ****       enum { _S_local_capacity = 15 / sizeof(_CharT) };
 170:/usr/include/newlib/c++/9.2.1/bits/basic_string.h **** 
 171:/usr/include/newlib/c++/9.2.1/bits/basic_string.h ****       union
 172:/usr/include/newlib/c++/9.2.1/bits/basic_string.h ****       {
 173:/usr/include/newlib/c++/9.2.1/bits/basic_string.h **** 	_CharT           _M_local_buf[_S_local_capacity + 1];
 174:/usr/include/newlib/c++/9.2.1/bits/basic_string.h **** 	size_type        _M_allocated_capacity;
 175:/usr/include/newlib/c++/9.2.1/bits/basic_string.h ****       };
 176:/usr/include/newlib/c++/9.2.1/bits/basic_string.h **** 
 177:/usr/include/newlib/c++/9.2.1/bits/basic_string.h ****       void
 178:/usr/include/newlib/c++/9.2.1/bits/basic_string.h ****       _M_data(pointer __p)
 179:/usr/include/newlib/c++/9.2.1/bits/basic_string.h ****       { _M_dataplus._M_p = __p; }
 180:/usr/include/newlib/c++/9.2.1/bits/basic_string.h **** 
 181:/usr/include/newlib/c++/9.2.1/bits/basic_string.h ****       void
 182:/usr/include/newlib/c++/9.2.1/bits/basic_string.h ****       _M_length(size_type __length)
 183:/usr/include/newlib/c++/9.2.1/bits/basic_string.h ****       { _M_string_length = __length; }
 184:/usr/include/newlib/c++/9.2.1/bits/basic_string.h **** 
 185:/usr/include/newlib/c++/9.2.1/bits/basic_string.h ****       pointer
 186:/usr/include/newlib/c++/9.2.1/bits/basic_string.h ****       _M_data() const
 187:/usr/include/newlib/c++/9.2.1/bits/basic_string.h ****       { return _M_dataplus._M_p; }
 188:/usr/include/newlib/c++/9.2.1/bits/basic_string.h **** 
 189:/usr/include/newlib/c++/9.2.1/bits/basic_string.h ****       pointer
 190:/usr/include/newlib/c++/9.2.1/bits/basic_string.h ****       _M_local_data()
 191:/usr/include/newlib/c++/9.2.1/bits/basic_string.h ****       {
 192:/usr/include/newlib/c++/9.2.1/bits/basic_string.h **** #if __cplusplus >= 201103L
 193:/usr/include/newlib/c++/9.2.1/bits/basic_string.h **** 	return std::pointer_traits<pointer>::pointer_to(*_M_local_buf);
ARM GAS  /tmp/ccobg3TQ.s 			page 174


 194:/usr/include/newlib/c++/9.2.1/bits/basic_string.h **** #else
 195:/usr/include/newlib/c++/9.2.1/bits/basic_string.h **** 	return pointer(_M_local_buf);
 196:/usr/include/newlib/c++/9.2.1/bits/basic_string.h **** #endif
 197:/usr/include/newlib/c++/9.2.1/bits/basic_string.h ****       }
 198:/usr/include/newlib/c++/9.2.1/bits/basic_string.h **** 
 199:/usr/include/newlib/c++/9.2.1/bits/basic_string.h ****       const_pointer
 200:/usr/include/newlib/c++/9.2.1/bits/basic_string.h ****       _M_local_data() const
 201:/usr/include/newlib/c++/9.2.1/bits/basic_string.h ****       {
 202:/usr/include/newlib/c++/9.2.1/bits/basic_string.h **** #if __cplusplus >= 201103L
 203:/usr/include/newlib/c++/9.2.1/bits/basic_string.h **** 	return std::pointer_traits<const_pointer>::pointer_to(*_M_local_buf);
 204:/usr/include/newlib/c++/9.2.1/bits/basic_string.h **** #else
 205:/usr/include/newlib/c++/9.2.1/bits/basic_string.h **** 	return const_pointer(_M_local_buf);
 206:/usr/include/newlib/c++/9.2.1/bits/basic_string.h **** #endif
 207:/usr/include/newlib/c++/9.2.1/bits/basic_string.h ****       }
 208:/usr/include/newlib/c++/9.2.1/bits/basic_string.h **** 
 209:/usr/include/newlib/c++/9.2.1/bits/basic_string.h ****       void
 210:/usr/include/newlib/c++/9.2.1/bits/basic_string.h ****       _M_capacity(size_type __capacity)
 211:/usr/include/newlib/c++/9.2.1/bits/basic_string.h ****       { _M_allocated_capacity = __capacity; }
 212:/usr/include/newlib/c++/9.2.1/bits/basic_string.h **** 
 213:/usr/include/newlib/c++/9.2.1/bits/basic_string.h ****       void
 214:/usr/include/newlib/c++/9.2.1/bits/basic_string.h ****       _M_set_length(size_type __n)
 215:/usr/include/newlib/c++/9.2.1/bits/basic_string.h ****       {
 216:/usr/include/newlib/c++/9.2.1/bits/basic_string.h **** 	_M_length(__n);
 217:/usr/include/newlib/c++/9.2.1/bits/basic_string.h **** 	traits_type::assign(_M_data()[__n], _CharT());
 218:/usr/include/newlib/c++/9.2.1/bits/basic_string.h ****       }
 219:/usr/include/newlib/c++/9.2.1/bits/basic_string.h **** 
 220:/usr/include/newlib/c++/9.2.1/bits/basic_string.h ****       bool
 221:/usr/include/newlib/c++/9.2.1/bits/basic_string.h ****       _M_is_local() const
 222:/usr/include/newlib/c++/9.2.1/bits/basic_string.h ****       { return _M_data() == _M_local_data(); }
 223:/usr/include/newlib/c++/9.2.1/bits/basic_string.h **** 
 224:/usr/include/newlib/c++/9.2.1/bits/basic_string.h ****       // Create & Destroy
 225:/usr/include/newlib/c++/9.2.1/bits/basic_string.h ****       pointer
 226:/usr/include/newlib/c++/9.2.1/bits/basic_string.h ****       _M_create(size_type&, size_type);
 227:/usr/include/newlib/c++/9.2.1/bits/basic_string.h **** 
 228:/usr/include/newlib/c++/9.2.1/bits/basic_string.h ****       void
 229:/usr/include/newlib/c++/9.2.1/bits/basic_string.h ****       _M_dispose()
 230:/usr/include/newlib/c++/9.2.1/bits/basic_string.h ****       {
 231:/usr/include/newlib/c++/9.2.1/bits/basic_string.h **** 	if (!_M_is_local())
 232:/usr/include/newlib/c++/9.2.1/bits/basic_string.h **** 	  _M_destroy(_M_allocated_capacity);
 233:/usr/include/newlib/c++/9.2.1/bits/basic_string.h ****       }
 234:/usr/include/newlib/c++/9.2.1/bits/basic_string.h **** 
 235:/usr/include/newlib/c++/9.2.1/bits/basic_string.h ****       void
 236:/usr/include/newlib/c++/9.2.1/bits/basic_string.h ****       _M_destroy(size_type __size) throw()
 237:/usr/include/newlib/c++/9.2.1/bits/basic_string.h ****       { _Alloc_traits::deallocate(_M_get_allocator(), _M_data(), __size + 1); }
 238:/usr/include/newlib/c++/9.2.1/bits/basic_string.h **** 
 239:/usr/include/newlib/c++/9.2.1/bits/basic_string.h ****       // _M_construct_aux is used to implement the 21.3.1 para 15 which
 240:/usr/include/newlib/c++/9.2.1/bits/basic_string.h ****       // requires special behaviour if _InIterator is an integral type
 241:/usr/include/newlib/c++/9.2.1/bits/basic_string.h ****       template<typename _InIterator>
 242:/usr/include/newlib/c++/9.2.1/bits/basic_string.h ****         void
 243:/usr/include/newlib/c++/9.2.1/bits/basic_string.h ****         _M_construct_aux(_InIterator __beg, _InIterator __end,
 244:/usr/include/newlib/c++/9.2.1/bits/basic_string.h **** 			 std::__false_type)
 245:/usr/include/newlib/c++/9.2.1/bits/basic_string.h **** 	{
 246:/usr/include/newlib/c++/9.2.1/bits/basic_string.h ****           typedef typename iterator_traits<_InIterator>::iterator_category _Tag;
 247:/usr/include/newlib/c++/9.2.1/bits/basic_string.h ****           _M_construct(__beg, __end, _Tag());
 248:/usr/include/newlib/c++/9.2.1/bits/basic_string.h **** 	}
 249:/usr/include/newlib/c++/9.2.1/bits/basic_string.h **** 
 250:/usr/include/newlib/c++/9.2.1/bits/basic_string.h ****       // _GLIBCXX_RESOLVE_LIB_DEFECTS
ARM GAS  /tmp/ccobg3TQ.s 			page 175


 251:/usr/include/newlib/c++/9.2.1/bits/basic_string.h ****       // 438. Ambiguity in the "do the right thing" clause
 252:/usr/include/newlib/c++/9.2.1/bits/basic_string.h ****       template<typename _Integer>
 253:/usr/include/newlib/c++/9.2.1/bits/basic_string.h ****         void
 254:/usr/include/newlib/c++/9.2.1/bits/basic_string.h ****         _M_construct_aux(_Integer __beg, _Integer __end, std::__true_type)
 255:/usr/include/newlib/c++/9.2.1/bits/basic_string.h **** 	{ _M_construct_aux_2(static_cast<size_type>(__beg), __end); }
 256:/usr/include/newlib/c++/9.2.1/bits/basic_string.h **** 
 257:/usr/include/newlib/c++/9.2.1/bits/basic_string.h ****       void
 258:/usr/include/newlib/c++/9.2.1/bits/basic_string.h ****       _M_construct_aux_2(size_type __req, _CharT __c)
 259:/usr/include/newlib/c++/9.2.1/bits/basic_string.h ****       { _M_construct(__req, __c); }
 260:/usr/include/newlib/c++/9.2.1/bits/basic_string.h **** 
 261:/usr/include/newlib/c++/9.2.1/bits/basic_string.h ****       template<typename _InIterator>
 262:/usr/include/newlib/c++/9.2.1/bits/basic_string.h ****         void
 263:/usr/include/newlib/c++/9.2.1/bits/basic_string.h ****         _M_construct(_InIterator __beg, _InIterator __end)
 264:/usr/include/newlib/c++/9.2.1/bits/basic_string.h **** 	{
 265:/usr/include/newlib/c++/9.2.1/bits/basic_string.h **** 	  typedef typename std::__is_integer<_InIterator>::__type _Integral;
 266:/usr/include/newlib/c++/9.2.1/bits/basic_string.h **** 	  _M_construct_aux(__beg, __end, _Integral());
 267:/usr/include/newlib/c++/9.2.1/bits/basic_string.h ****         }
 268:/usr/include/newlib/c++/9.2.1/bits/basic_string.h **** 
 269:/usr/include/newlib/c++/9.2.1/bits/basic_string.h ****       // For Input Iterators, used in istreambuf_iterators, etc.
 270:/usr/include/newlib/c++/9.2.1/bits/basic_string.h ****       template<typename _InIterator>
 271:/usr/include/newlib/c++/9.2.1/bits/basic_string.h ****         void
 272:/usr/include/newlib/c++/9.2.1/bits/basic_string.h ****         _M_construct(_InIterator __beg, _InIterator __end,
 273:/usr/include/newlib/c++/9.2.1/bits/basic_string.h **** 		     std::input_iterator_tag);
 274:/usr/include/newlib/c++/9.2.1/bits/basic_string.h **** 
 275:/usr/include/newlib/c++/9.2.1/bits/basic_string.h ****       // For forward_iterators up to random_access_iterators, used for
 276:/usr/include/newlib/c++/9.2.1/bits/basic_string.h ****       // string::iterator, _CharT*, etc.
 277:/usr/include/newlib/c++/9.2.1/bits/basic_string.h ****       template<typename _FwdIterator>
 278:/usr/include/newlib/c++/9.2.1/bits/basic_string.h ****         void
 279:/usr/include/newlib/c++/9.2.1/bits/basic_string.h ****         _M_construct(_FwdIterator __beg, _FwdIterator __end,
 280:/usr/include/newlib/c++/9.2.1/bits/basic_string.h **** 		     std::forward_iterator_tag);
 281:/usr/include/newlib/c++/9.2.1/bits/basic_string.h **** 
 282:/usr/include/newlib/c++/9.2.1/bits/basic_string.h ****       void
 283:/usr/include/newlib/c++/9.2.1/bits/basic_string.h ****       _M_construct(size_type __req, _CharT __c);
 284:/usr/include/newlib/c++/9.2.1/bits/basic_string.h **** 
 285:/usr/include/newlib/c++/9.2.1/bits/basic_string.h ****       allocator_type&
 286:/usr/include/newlib/c++/9.2.1/bits/basic_string.h ****       _M_get_allocator()
 287:/usr/include/newlib/c++/9.2.1/bits/basic_string.h ****       { return _M_dataplus; }
 288:/usr/include/newlib/c++/9.2.1/bits/basic_string.h **** 
 289:/usr/include/newlib/c++/9.2.1/bits/basic_string.h ****       const allocator_type&
 290:/usr/include/newlib/c++/9.2.1/bits/basic_string.h ****       _M_get_allocator() const
 291:/usr/include/newlib/c++/9.2.1/bits/basic_string.h ****       { return _M_dataplus; }
 292:/usr/include/newlib/c++/9.2.1/bits/basic_string.h **** 
 293:/usr/include/newlib/c++/9.2.1/bits/basic_string.h ****     private:
 294:/usr/include/newlib/c++/9.2.1/bits/basic_string.h **** 
 295:/usr/include/newlib/c++/9.2.1/bits/basic_string.h **** #ifdef _GLIBCXX_DISAMBIGUATE_REPLACE_INST
 296:/usr/include/newlib/c++/9.2.1/bits/basic_string.h ****       // The explicit instantiations in misc-inst.cc require this due to
 297:/usr/include/newlib/c++/9.2.1/bits/basic_string.h ****       // https://gcc.gnu.org/bugzilla/show_bug.cgi?id=64063
 298:/usr/include/newlib/c++/9.2.1/bits/basic_string.h ****       template<typename _Tp, bool _Requires =
 299:/usr/include/newlib/c++/9.2.1/bits/basic_string.h **** 	       !__are_same<_Tp, _CharT*>::__value
 300:/usr/include/newlib/c++/9.2.1/bits/basic_string.h **** 	       && !__are_same<_Tp, const _CharT*>::__value
 301:/usr/include/newlib/c++/9.2.1/bits/basic_string.h **** 	       && !__are_same<_Tp, iterator>::__value
 302:/usr/include/newlib/c++/9.2.1/bits/basic_string.h **** 	       && !__are_same<_Tp, const_iterator>::__value>
 303:/usr/include/newlib/c++/9.2.1/bits/basic_string.h **** 	struct __enable_if_not_native_iterator
 304:/usr/include/newlib/c++/9.2.1/bits/basic_string.h **** 	{ typedef basic_string& __type; };
 305:/usr/include/newlib/c++/9.2.1/bits/basic_string.h ****       template<typename _Tp>
 306:/usr/include/newlib/c++/9.2.1/bits/basic_string.h **** 	struct __enable_if_not_native_iterator<_Tp, false> { };
 307:/usr/include/newlib/c++/9.2.1/bits/basic_string.h **** #endif
ARM GAS  /tmp/ccobg3TQ.s 			page 176


 308:/usr/include/newlib/c++/9.2.1/bits/basic_string.h **** 
 309:/usr/include/newlib/c++/9.2.1/bits/basic_string.h ****       size_type
 310:/usr/include/newlib/c++/9.2.1/bits/basic_string.h ****       _M_check(size_type __pos, const char* __s) const
 311:/usr/include/newlib/c++/9.2.1/bits/basic_string.h ****       {
 312:/usr/include/newlib/c++/9.2.1/bits/basic_string.h **** 	if (__pos > this->size())
 313:/usr/include/newlib/c++/9.2.1/bits/basic_string.h **** 	  __throw_out_of_range_fmt(__N("%s: __pos (which is %zu) > "
 314:/usr/include/newlib/c++/9.2.1/bits/basic_string.h **** 				       "this->size() (which is %zu)"),
 315:/usr/include/newlib/c++/9.2.1/bits/basic_string.h **** 				   __s, __pos, this->size());
 316:/usr/include/newlib/c++/9.2.1/bits/basic_string.h **** 	return __pos;
 317:/usr/include/newlib/c++/9.2.1/bits/basic_string.h ****       }
 318:/usr/include/newlib/c++/9.2.1/bits/basic_string.h **** 
 319:/usr/include/newlib/c++/9.2.1/bits/basic_string.h ****       void
 320:/usr/include/newlib/c++/9.2.1/bits/basic_string.h ****       _M_check_length(size_type __n1, size_type __n2, const char* __s) const
 321:/usr/include/newlib/c++/9.2.1/bits/basic_string.h ****       {
 322:/usr/include/newlib/c++/9.2.1/bits/basic_string.h **** 	if (this->max_size() - (this->size() - __n1) < __n2)
 323:/usr/include/newlib/c++/9.2.1/bits/basic_string.h **** 	  __throw_length_error(__N(__s));
 324:/usr/include/newlib/c++/9.2.1/bits/basic_string.h ****       }
 325:/usr/include/newlib/c++/9.2.1/bits/basic_string.h **** 
 326:/usr/include/newlib/c++/9.2.1/bits/basic_string.h **** 
 327:/usr/include/newlib/c++/9.2.1/bits/basic_string.h ****       // NB: _M_limit doesn't check for a bad __pos value.
 328:/usr/include/newlib/c++/9.2.1/bits/basic_string.h ****       size_type
 329:/usr/include/newlib/c++/9.2.1/bits/basic_string.h ****       _M_limit(size_type __pos, size_type __off) const _GLIBCXX_NOEXCEPT
 330:/usr/include/newlib/c++/9.2.1/bits/basic_string.h ****       {
 331:/usr/include/newlib/c++/9.2.1/bits/basic_string.h **** 	const bool __testoff =  __off < this->size() - __pos;
 332:/usr/include/newlib/c++/9.2.1/bits/basic_string.h **** 	return __testoff ? __off : this->size() - __pos;
 333:/usr/include/newlib/c++/9.2.1/bits/basic_string.h ****       }
 334:/usr/include/newlib/c++/9.2.1/bits/basic_string.h **** 
 335:/usr/include/newlib/c++/9.2.1/bits/basic_string.h ****       // True if _Rep and source do not overlap.
 336:/usr/include/newlib/c++/9.2.1/bits/basic_string.h ****       bool
 337:/usr/include/newlib/c++/9.2.1/bits/basic_string.h ****       _M_disjunct(const _CharT* __s) const _GLIBCXX_NOEXCEPT
 338:/usr/include/newlib/c++/9.2.1/bits/basic_string.h ****       {
 339:/usr/include/newlib/c++/9.2.1/bits/basic_string.h **** 	return (less<const _CharT*>()(__s, _M_data())
 340:/usr/include/newlib/c++/9.2.1/bits/basic_string.h **** 		|| less<const _CharT*>()(_M_data() + this->size(), __s));
 341:/usr/include/newlib/c++/9.2.1/bits/basic_string.h ****       }
 342:/usr/include/newlib/c++/9.2.1/bits/basic_string.h **** 
 343:/usr/include/newlib/c++/9.2.1/bits/basic_string.h ****       // When __n = 1 way faster than the general multichar
 344:/usr/include/newlib/c++/9.2.1/bits/basic_string.h ****       // traits_type::copy/move/assign.
 345:/usr/include/newlib/c++/9.2.1/bits/basic_string.h ****       static void
 346:/usr/include/newlib/c++/9.2.1/bits/basic_string.h ****       _S_copy(_CharT* __d, const _CharT* __s, size_type __n)
 347:/usr/include/newlib/c++/9.2.1/bits/basic_string.h ****       {
 348:/usr/include/newlib/c++/9.2.1/bits/basic_string.h **** 	if (__n == 1)
 349:/usr/include/newlib/c++/9.2.1/bits/basic_string.h **** 	  traits_type::assign(*__d, *__s);
 350:/usr/include/newlib/c++/9.2.1/bits/basic_string.h **** 	else
 351:/usr/include/newlib/c++/9.2.1/bits/basic_string.h **** 	  traits_type::copy(__d, __s, __n);
 352:/usr/include/newlib/c++/9.2.1/bits/basic_string.h ****       }
 353:/usr/include/newlib/c++/9.2.1/bits/basic_string.h **** 
 354:/usr/include/newlib/c++/9.2.1/bits/basic_string.h ****       static void
 355:/usr/include/newlib/c++/9.2.1/bits/basic_string.h ****       _S_move(_CharT* __d, const _CharT* __s, size_type __n)
 356:/usr/include/newlib/c++/9.2.1/bits/basic_string.h ****       {
 357:/usr/include/newlib/c++/9.2.1/bits/basic_string.h **** 	if (__n == 1)
 358:/usr/include/newlib/c++/9.2.1/bits/basic_string.h **** 	  traits_type::assign(*__d, *__s);
 359:/usr/include/newlib/c++/9.2.1/bits/basic_string.h **** 	else
 360:/usr/include/newlib/c++/9.2.1/bits/basic_string.h **** 	  traits_type::move(__d, __s, __n);
 361:/usr/include/newlib/c++/9.2.1/bits/basic_string.h ****       }
 362:/usr/include/newlib/c++/9.2.1/bits/basic_string.h **** 
 363:/usr/include/newlib/c++/9.2.1/bits/basic_string.h ****       static void
 364:/usr/include/newlib/c++/9.2.1/bits/basic_string.h ****       _S_assign(_CharT* __d, size_type __n, _CharT __c)
ARM GAS  /tmp/ccobg3TQ.s 			page 177


 365:/usr/include/newlib/c++/9.2.1/bits/basic_string.h ****       {
 366:/usr/include/newlib/c++/9.2.1/bits/basic_string.h **** 	if (__n == 1)
 367:/usr/include/newlib/c++/9.2.1/bits/basic_string.h **** 	  traits_type::assign(*__d, __c);
 368:/usr/include/newlib/c++/9.2.1/bits/basic_string.h **** 	else
 369:/usr/include/newlib/c++/9.2.1/bits/basic_string.h **** 	  traits_type::assign(__d, __n, __c);
 370:/usr/include/newlib/c++/9.2.1/bits/basic_string.h ****       }
 371:/usr/include/newlib/c++/9.2.1/bits/basic_string.h **** 
 372:/usr/include/newlib/c++/9.2.1/bits/basic_string.h ****       // _S_copy_chars is a separate template to permit specialization
 373:/usr/include/newlib/c++/9.2.1/bits/basic_string.h ****       // to optimize for the common case of pointers as iterators.
 374:/usr/include/newlib/c++/9.2.1/bits/basic_string.h ****       template<class _Iterator>
 375:/usr/include/newlib/c++/9.2.1/bits/basic_string.h ****         static void
 376:/usr/include/newlib/c++/9.2.1/bits/basic_string.h ****         _S_copy_chars(_CharT* __p, _Iterator __k1, _Iterator __k2)
 377:/usr/include/newlib/c++/9.2.1/bits/basic_string.h ****         {
 378:/usr/include/newlib/c++/9.2.1/bits/basic_string.h **** 	  for (; __k1 != __k2; ++__k1, (void)++__p)
 379:/usr/include/newlib/c++/9.2.1/bits/basic_string.h **** 	    traits_type::assign(*__p, *__k1); // These types are off.
 380:/usr/include/newlib/c++/9.2.1/bits/basic_string.h **** 	}
 381:/usr/include/newlib/c++/9.2.1/bits/basic_string.h **** 
 382:/usr/include/newlib/c++/9.2.1/bits/basic_string.h ****       static void
 383:/usr/include/newlib/c++/9.2.1/bits/basic_string.h ****       _S_copy_chars(_CharT* __p, iterator __k1, iterator __k2) _GLIBCXX_NOEXCEPT
 384:/usr/include/newlib/c++/9.2.1/bits/basic_string.h ****       { _S_copy_chars(__p, __k1.base(), __k2.base()); }
 385:/usr/include/newlib/c++/9.2.1/bits/basic_string.h **** 
 386:/usr/include/newlib/c++/9.2.1/bits/basic_string.h ****       static void
 387:/usr/include/newlib/c++/9.2.1/bits/basic_string.h ****       _S_copy_chars(_CharT* __p, const_iterator __k1, const_iterator __k2)
 388:/usr/include/newlib/c++/9.2.1/bits/basic_string.h ****       _GLIBCXX_NOEXCEPT
 389:/usr/include/newlib/c++/9.2.1/bits/basic_string.h ****       { _S_copy_chars(__p, __k1.base(), __k2.base()); }
 390:/usr/include/newlib/c++/9.2.1/bits/basic_string.h **** 
 391:/usr/include/newlib/c++/9.2.1/bits/basic_string.h ****       static void
 392:/usr/include/newlib/c++/9.2.1/bits/basic_string.h ****       _S_copy_chars(_CharT* __p, _CharT* __k1, _CharT* __k2) _GLIBCXX_NOEXCEPT
 393:/usr/include/newlib/c++/9.2.1/bits/basic_string.h ****       { _S_copy(__p, __k1, __k2 - __k1); }
 394:/usr/include/newlib/c++/9.2.1/bits/basic_string.h **** 
 395:/usr/include/newlib/c++/9.2.1/bits/basic_string.h ****       static void
 396:/usr/include/newlib/c++/9.2.1/bits/basic_string.h ****       _S_copy_chars(_CharT* __p, const _CharT* __k1, const _CharT* __k2)
 397:/usr/include/newlib/c++/9.2.1/bits/basic_string.h ****       _GLIBCXX_NOEXCEPT
 398:/usr/include/newlib/c++/9.2.1/bits/basic_string.h ****       { _S_copy(__p, __k1, __k2 - __k1); }
 399:/usr/include/newlib/c++/9.2.1/bits/basic_string.h **** 
 400:/usr/include/newlib/c++/9.2.1/bits/basic_string.h ****       static int
 401:/usr/include/newlib/c++/9.2.1/bits/basic_string.h ****       _S_compare(size_type __n1, size_type __n2) _GLIBCXX_NOEXCEPT
 402:/usr/include/newlib/c++/9.2.1/bits/basic_string.h ****       {
 403:/usr/include/newlib/c++/9.2.1/bits/basic_string.h **** 	const difference_type __d = difference_type(__n1 - __n2);
 404:/usr/include/newlib/c++/9.2.1/bits/basic_string.h **** 
 405:/usr/include/newlib/c++/9.2.1/bits/basic_string.h **** 	if (__d > __gnu_cxx::__numeric_traits<int>::__max)
 406:/usr/include/newlib/c++/9.2.1/bits/basic_string.h **** 	  return __gnu_cxx::__numeric_traits<int>::__max;
 407:/usr/include/newlib/c++/9.2.1/bits/basic_string.h **** 	else if (__d < __gnu_cxx::__numeric_traits<int>::__min)
 408:/usr/include/newlib/c++/9.2.1/bits/basic_string.h **** 	  return __gnu_cxx::__numeric_traits<int>::__min;
 409:/usr/include/newlib/c++/9.2.1/bits/basic_string.h **** 	else
 410:/usr/include/newlib/c++/9.2.1/bits/basic_string.h **** 	  return int(__d);
 411:/usr/include/newlib/c++/9.2.1/bits/basic_string.h ****       }
 412:/usr/include/newlib/c++/9.2.1/bits/basic_string.h **** 
 413:/usr/include/newlib/c++/9.2.1/bits/basic_string.h ****       void
 414:/usr/include/newlib/c++/9.2.1/bits/basic_string.h ****       _M_assign(const basic_string&);
 415:/usr/include/newlib/c++/9.2.1/bits/basic_string.h **** 
 416:/usr/include/newlib/c++/9.2.1/bits/basic_string.h ****       void
 417:/usr/include/newlib/c++/9.2.1/bits/basic_string.h ****       _M_mutate(size_type __pos, size_type __len1, const _CharT* __s,
 418:/usr/include/newlib/c++/9.2.1/bits/basic_string.h **** 		size_type __len2);
 419:/usr/include/newlib/c++/9.2.1/bits/basic_string.h **** 
 420:/usr/include/newlib/c++/9.2.1/bits/basic_string.h ****       void
 421:/usr/include/newlib/c++/9.2.1/bits/basic_string.h ****       _M_erase(size_type __pos, size_type __n);
ARM GAS  /tmp/ccobg3TQ.s 			page 178


 422:/usr/include/newlib/c++/9.2.1/bits/basic_string.h **** 
 423:/usr/include/newlib/c++/9.2.1/bits/basic_string.h ****     public:
 424:/usr/include/newlib/c++/9.2.1/bits/basic_string.h ****       // Construct/copy/destroy:
 425:/usr/include/newlib/c++/9.2.1/bits/basic_string.h ****       // NB: We overload ctors in some cases instead of using default
 426:/usr/include/newlib/c++/9.2.1/bits/basic_string.h ****       // arguments, per 17.4.4.4 para. 2 item 2.
 427:/usr/include/newlib/c++/9.2.1/bits/basic_string.h **** 
 428:/usr/include/newlib/c++/9.2.1/bits/basic_string.h ****       /**
 429:/usr/include/newlib/c++/9.2.1/bits/basic_string.h ****        *  @brief  Default constructor creates an empty string.
 430:/usr/include/newlib/c++/9.2.1/bits/basic_string.h ****        */
 431:/usr/include/newlib/c++/9.2.1/bits/basic_string.h ****       basic_string()
 432:/usr/include/newlib/c++/9.2.1/bits/basic_string.h ****       _GLIBCXX_NOEXCEPT_IF(is_nothrow_default_constructible<_Alloc>::value)
 433:/usr/include/newlib/c++/9.2.1/bits/basic_string.h ****       : _M_dataplus(_M_local_data())
 434:/usr/include/newlib/c++/9.2.1/bits/basic_string.h ****       { _M_set_length(0); }
 435:/usr/include/newlib/c++/9.2.1/bits/basic_string.h **** 
 436:/usr/include/newlib/c++/9.2.1/bits/basic_string.h ****       /**
 437:/usr/include/newlib/c++/9.2.1/bits/basic_string.h ****        *  @brief  Construct an empty string using allocator @a a.
 438:/usr/include/newlib/c++/9.2.1/bits/basic_string.h ****        */
 439:/usr/include/newlib/c++/9.2.1/bits/basic_string.h ****       explicit
 440:/usr/include/newlib/c++/9.2.1/bits/basic_string.h ****       basic_string(const _Alloc& __a) _GLIBCXX_NOEXCEPT
 441:/usr/include/newlib/c++/9.2.1/bits/basic_string.h ****       : _M_dataplus(_M_local_data(), __a)
 442:/usr/include/newlib/c++/9.2.1/bits/basic_string.h ****       { _M_set_length(0); }
 443:/usr/include/newlib/c++/9.2.1/bits/basic_string.h **** 
 444:/usr/include/newlib/c++/9.2.1/bits/basic_string.h ****       /**
 445:/usr/include/newlib/c++/9.2.1/bits/basic_string.h ****        *  @brief  Construct string with copy of value of @a __str.
 446:/usr/include/newlib/c++/9.2.1/bits/basic_string.h ****        *  @param  __str  Source string.
 447:/usr/include/newlib/c++/9.2.1/bits/basic_string.h ****        */
 448:/usr/include/newlib/c++/9.2.1/bits/basic_string.h ****       basic_string(const basic_string& __str)
 449:/usr/include/newlib/c++/9.2.1/bits/basic_string.h ****       : _M_dataplus(_M_local_data(),
 450:/usr/include/newlib/c++/9.2.1/bits/basic_string.h **** 		    _Alloc_traits::_S_select_on_copy(__str._M_get_allocator()))
 451:/usr/include/newlib/c++/9.2.1/bits/basic_string.h ****       { _M_construct(__str._M_data(), __str._M_data() + __str.length()); }
 452:/usr/include/newlib/c++/9.2.1/bits/basic_string.h **** 
 453:/usr/include/newlib/c++/9.2.1/bits/basic_string.h ****       // _GLIBCXX_RESOLVE_LIB_DEFECTS
 454:/usr/include/newlib/c++/9.2.1/bits/basic_string.h ****       // 2583. no way to supply an allocator for basic_string(str, pos)
 455:/usr/include/newlib/c++/9.2.1/bits/basic_string.h ****       /**
 456:/usr/include/newlib/c++/9.2.1/bits/basic_string.h ****        *  @brief  Construct string as copy of a substring.
 457:/usr/include/newlib/c++/9.2.1/bits/basic_string.h ****        *  @param  __str  Source string.
 458:/usr/include/newlib/c++/9.2.1/bits/basic_string.h ****        *  @param  __pos  Index of first character to copy from.
 459:/usr/include/newlib/c++/9.2.1/bits/basic_string.h ****        *  @param  __a  Allocator to use.
 460:/usr/include/newlib/c++/9.2.1/bits/basic_string.h ****        */
 461:/usr/include/newlib/c++/9.2.1/bits/basic_string.h ****       basic_string(const basic_string& __str, size_type __pos,
 462:/usr/include/newlib/c++/9.2.1/bits/basic_string.h **** 		   const _Alloc& __a = _Alloc())
 463:/usr/include/newlib/c++/9.2.1/bits/basic_string.h ****       : _M_dataplus(_M_local_data(), __a)
 464:/usr/include/newlib/c++/9.2.1/bits/basic_string.h ****       {
 465:/usr/include/newlib/c++/9.2.1/bits/basic_string.h **** 	const _CharT* __start = __str._M_data()
 466:/usr/include/newlib/c++/9.2.1/bits/basic_string.h **** 	  + __str._M_check(__pos, "basic_string::basic_string");
 467:/usr/include/newlib/c++/9.2.1/bits/basic_string.h **** 	_M_construct(__start, __start + __str._M_limit(__pos, npos));
 468:/usr/include/newlib/c++/9.2.1/bits/basic_string.h ****       }
 469:/usr/include/newlib/c++/9.2.1/bits/basic_string.h **** 
 470:/usr/include/newlib/c++/9.2.1/bits/basic_string.h ****       /**
 471:/usr/include/newlib/c++/9.2.1/bits/basic_string.h ****        *  @brief  Construct string as copy of a substring.
 472:/usr/include/newlib/c++/9.2.1/bits/basic_string.h ****        *  @param  __str  Source string.
 473:/usr/include/newlib/c++/9.2.1/bits/basic_string.h ****        *  @param  __pos  Index of first character to copy from.
 474:/usr/include/newlib/c++/9.2.1/bits/basic_string.h ****        *  @param  __n  Number of characters to copy.
 475:/usr/include/newlib/c++/9.2.1/bits/basic_string.h ****        */
 476:/usr/include/newlib/c++/9.2.1/bits/basic_string.h ****       basic_string(const basic_string& __str, size_type __pos,
 477:/usr/include/newlib/c++/9.2.1/bits/basic_string.h **** 		   size_type __n)
 478:/usr/include/newlib/c++/9.2.1/bits/basic_string.h ****       : _M_dataplus(_M_local_data())
ARM GAS  /tmp/ccobg3TQ.s 			page 179


 479:/usr/include/newlib/c++/9.2.1/bits/basic_string.h ****       {
 480:/usr/include/newlib/c++/9.2.1/bits/basic_string.h **** 	const _CharT* __start = __str._M_data()
 481:/usr/include/newlib/c++/9.2.1/bits/basic_string.h **** 	  + __str._M_check(__pos, "basic_string::basic_string");
 482:/usr/include/newlib/c++/9.2.1/bits/basic_string.h **** 	_M_construct(__start, __start + __str._M_limit(__pos, __n));
 483:/usr/include/newlib/c++/9.2.1/bits/basic_string.h ****       }
 484:/usr/include/newlib/c++/9.2.1/bits/basic_string.h **** 
 485:/usr/include/newlib/c++/9.2.1/bits/basic_string.h ****       /**
 486:/usr/include/newlib/c++/9.2.1/bits/basic_string.h ****        *  @brief  Construct string as copy of a substring.
 487:/usr/include/newlib/c++/9.2.1/bits/basic_string.h ****        *  @param  __str  Source string.
 488:/usr/include/newlib/c++/9.2.1/bits/basic_string.h ****        *  @param  __pos  Index of first character to copy from.
 489:/usr/include/newlib/c++/9.2.1/bits/basic_string.h ****        *  @param  __n  Number of characters to copy.
 490:/usr/include/newlib/c++/9.2.1/bits/basic_string.h ****        *  @param  __a  Allocator to use.
 491:/usr/include/newlib/c++/9.2.1/bits/basic_string.h ****        */
 492:/usr/include/newlib/c++/9.2.1/bits/basic_string.h ****       basic_string(const basic_string& __str, size_type __pos,
 493:/usr/include/newlib/c++/9.2.1/bits/basic_string.h **** 		   size_type __n, const _Alloc& __a)
 494:/usr/include/newlib/c++/9.2.1/bits/basic_string.h ****       : _M_dataplus(_M_local_data(), __a)
 495:/usr/include/newlib/c++/9.2.1/bits/basic_string.h ****       {
 496:/usr/include/newlib/c++/9.2.1/bits/basic_string.h **** 	const _CharT* __start
 497:/usr/include/newlib/c++/9.2.1/bits/basic_string.h **** 	  = __str._M_data() + __str._M_check(__pos, "string::string");
 498:/usr/include/newlib/c++/9.2.1/bits/basic_string.h **** 	_M_construct(__start, __start + __str._M_limit(__pos, __n));
 499:/usr/include/newlib/c++/9.2.1/bits/basic_string.h ****       }
 500:/usr/include/newlib/c++/9.2.1/bits/basic_string.h **** 
 501:/usr/include/newlib/c++/9.2.1/bits/basic_string.h ****       /**
 502:/usr/include/newlib/c++/9.2.1/bits/basic_string.h ****        *  @brief  Construct string initialized by a character %array.
 503:/usr/include/newlib/c++/9.2.1/bits/basic_string.h ****        *  @param  __s  Source character %array.
 504:/usr/include/newlib/c++/9.2.1/bits/basic_string.h ****        *  @param  __n  Number of characters to copy.
 505:/usr/include/newlib/c++/9.2.1/bits/basic_string.h ****        *  @param  __a  Allocator to use (default is default allocator).
 506:/usr/include/newlib/c++/9.2.1/bits/basic_string.h ****        *
 507:/usr/include/newlib/c++/9.2.1/bits/basic_string.h ****        *  NB: @a __s must have at least @a __n characters, &apos;\\0&apos;
 508:/usr/include/newlib/c++/9.2.1/bits/basic_string.h ****        *  has no special meaning.
 509:/usr/include/newlib/c++/9.2.1/bits/basic_string.h ****        */
 510:/usr/include/newlib/c++/9.2.1/bits/basic_string.h ****       basic_string(const _CharT* __s, size_type __n,
 511:/usr/include/newlib/c++/9.2.1/bits/basic_string.h **** 		   const _Alloc& __a = _Alloc())
 512:/usr/include/newlib/c++/9.2.1/bits/basic_string.h ****       : _M_dataplus(_M_local_data(), __a)
 513:/usr/include/newlib/c++/9.2.1/bits/basic_string.h ****       { _M_construct(__s, __s + __n); }
 514:/usr/include/newlib/c++/9.2.1/bits/basic_string.h **** 
 515:/usr/include/newlib/c++/9.2.1/bits/basic_string.h ****       /**
 516:/usr/include/newlib/c++/9.2.1/bits/basic_string.h ****        *  @brief  Construct string as copy of a C string.
 517:/usr/include/newlib/c++/9.2.1/bits/basic_string.h ****        *  @param  __s  Source C string.
 518:/usr/include/newlib/c++/9.2.1/bits/basic_string.h ****        *  @param  __a  Allocator to use (default is default allocator).
 519:/usr/include/newlib/c++/9.2.1/bits/basic_string.h ****        */
 520:/usr/include/newlib/c++/9.2.1/bits/basic_string.h **** #if __cpp_deduction_guides && ! defined _GLIBCXX_DEFINING_STRING_INSTANTIATIONS
 521:/usr/include/newlib/c++/9.2.1/bits/basic_string.h ****       // _GLIBCXX_RESOLVE_LIB_DEFECTS
 522:/usr/include/newlib/c++/9.2.1/bits/basic_string.h ****       // 3076. basic_string CTAD ambiguity
 523:/usr/include/newlib/c++/9.2.1/bits/basic_string.h ****       template<typename = _RequireAllocator<_Alloc>>
 524:/usr/include/newlib/c++/9.2.1/bits/basic_string.h **** #endif
 525:/usr/include/newlib/c++/9.2.1/bits/basic_string.h ****       basic_string(const _CharT* __s, const _Alloc& __a = _Alloc())
 6082              		.loc 20 525 7 is_stmt 1 view .LVU1427
 6083              	.LBB2044:
 6084              	.LBB2045:
 6085              	.LBI2045:
 190:/usr/include/newlib/c++/9.2.1/bits/basic_string.h ****       {
 6086              		.loc 20 190 7 view .LVU1428
 190:/usr/include/newlib/c++/9.2.1/bits/basic_string.h ****       {
 6087              		.loc 20 190 7 is_stmt 0 view .LVU1429
 6088              	.LBE2045:
 6089              	.LBB2046:
ARM GAS  /tmp/ccobg3TQ.s 			page 180


 6090              	.LBI2046:
 156:/usr/include/newlib/c++/9.2.1/bits/basic_string.h **** 	: allocator_type(__a), _M_p(__dat) { }
 6091              		.loc 20 156 2 is_stmt 1 view .LVU1430
 6092              	.LBB2047:
 6093              	.LBB2048:
 6094              	.LBB2049:
 6095              	.LBI2049:
 139:/usr/include/newlib/c++/9.2.1/bits/allocator.h **** 
 140:/usr/include/newlib/c++/9.2.1/bits/allocator.h ****       _GLIBCXX20_CONSTEXPR
 141:/usr/include/newlib/c++/9.2.1/bits/allocator.h ****       allocator(const allocator& __a) _GLIBCXX_NOTHROW
 6096              		.loc 18 141 7 view .LVU1431
 6097              	.LBB2050:
 6098              	.LBI2050:
  81:/usr/include/newlib/c++/9.2.1/ext/new_allocator.h **** 
  82:/usr/include/newlib/c++/9.2.1/ext/new_allocator.h ****       _GLIBCXX20_CONSTEXPR
  83:/usr/include/newlib/c++/9.2.1/ext/new_allocator.h ****       new_allocator(const new_allocator&) _GLIBCXX_USE_NOEXCEPT { }
 6099              		.loc 19 83 7 view .LVU1432
 6100              		.loc 19 83 7 is_stmt 0 view .LVU1433
 6101              	.LBE2050:
 6102              	.LBE2049:
 6103              	.LBE2048:
 6104              	.LBE2047:
 6105              	.LBE2046:
 6106              	.LBB2053:
 6107              	.LBB2054:
 6108              	.LBB2055:
 6109              	.LBB2056:
 6110              	.LBB2057:
 6111              	.LBB2058:
 6112              		.file 21 "/usr/include/newlib/c++/9.2.1/bits/basic_string.tcc"
   1:/usr/include/newlib/c++/9.2.1/bits/basic_string.tcc **** // Components for manipulating sequences of characters -*- C++ -*-
   2:/usr/include/newlib/c++/9.2.1/bits/basic_string.tcc **** 
   3:/usr/include/newlib/c++/9.2.1/bits/basic_string.tcc **** // Copyright (C) 1997-2019 Free Software Foundation, Inc.
   4:/usr/include/newlib/c++/9.2.1/bits/basic_string.tcc **** //
   5:/usr/include/newlib/c++/9.2.1/bits/basic_string.tcc **** // This file is part of the GNU ISO C++ Library.  This library is free
   6:/usr/include/newlib/c++/9.2.1/bits/basic_string.tcc **** // software; you can redistribute it and/or modify it under the
   7:/usr/include/newlib/c++/9.2.1/bits/basic_string.tcc **** // terms of the GNU General Public License as published by the
   8:/usr/include/newlib/c++/9.2.1/bits/basic_string.tcc **** // Free Software Foundation; either version 3, or (at your option)
   9:/usr/include/newlib/c++/9.2.1/bits/basic_string.tcc **** // any later version.
  10:/usr/include/newlib/c++/9.2.1/bits/basic_string.tcc **** 
  11:/usr/include/newlib/c++/9.2.1/bits/basic_string.tcc **** // This library is distributed in the hope that it will be useful,
  12:/usr/include/newlib/c++/9.2.1/bits/basic_string.tcc **** // but WITHOUT ANY WARRANTY; without even the implied warranty of
  13:/usr/include/newlib/c++/9.2.1/bits/basic_string.tcc **** // MERCHANTABILITY or FITNESS FOR A PARTICULAR PURPOSE.  See the
  14:/usr/include/newlib/c++/9.2.1/bits/basic_string.tcc **** // GNU General Public License for more details.
  15:/usr/include/newlib/c++/9.2.1/bits/basic_string.tcc **** 
  16:/usr/include/newlib/c++/9.2.1/bits/basic_string.tcc **** // Under Section 7 of GPL version 3, you are granted additional
  17:/usr/include/newlib/c++/9.2.1/bits/basic_string.tcc **** // permissions described in the GCC Runtime Library Exception, version
  18:/usr/include/newlib/c++/9.2.1/bits/basic_string.tcc **** // 3.1, as published by the Free Software Foundation.
  19:/usr/include/newlib/c++/9.2.1/bits/basic_string.tcc **** 
  20:/usr/include/newlib/c++/9.2.1/bits/basic_string.tcc **** // You should have received a copy of the GNU General Public License and
  21:/usr/include/newlib/c++/9.2.1/bits/basic_string.tcc **** // a copy of the GCC Runtime Library Exception along with this program;
  22:/usr/include/newlib/c++/9.2.1/bits/basic_string.tcc **** // see the files COPYING3 and COPYING.RUNTIME respectively.  If not, see
  23:/usr/include/newlib/c++/9.2.1/bits/basic_string.tcc **** // <http://www.gnu.org/licenses/>.
  24:/usr/include/newlib/c++/9.2.1/bits/basic_string.tcc **** 
  25:/usr/include/newlib/c++/9.2.1/bits/basic_string.tcc **** /** @file bits/basic_string.tcc
  26:/usr/include/newlib/c++/9.2.1/bits/basic_string.tcc ****  *  This is an internal header file, included by other library headers.
  27:/usr/include/newlib/c++/9.2.1/bits/basic_string.tcc ****  *  Do not attempt to use it directly. @headername{string}
ARM GAS  /tmp/ccobg3TQ.s 			page 181


  28:/usr/include/newlib/c++/9.2.1/bits/basic_string.tcc ****  */
  29:/usr/include/newlib/c++/9.2.1/bits/basic_string.tcc **** 
  30:/usr/include/newlib/c++/9.2.1/bits/basic_string.tcc **** //
  31:/usr/include/newlib/c++/9.2.1/bits/basic_string.tcc **** // ISO C++ 14882: 21  Strings library
  32:/usr/include/newlib/c++/9.2.1/bits/basic_string.tcc **** //
  33:/usr/include/newlib/c++/9.2.1/bits/basic_string.tcc **** 
  34:/usr/include/newlib/c++/9.2.1/bits/basic_string.tcc **** // Written by Jason Merrill based upon the specification by Takanori Adachi
  35:/usr/include/newlib/c++/9.2.1/bits/basic_string.tcc **** // in ANSI X3J16/94-0013R2.  Rewritten by Nathan Myers to ISO-14882.
  36:/usr/include/newlib/c++/9.2.1/bits/basic_string.tcc **** // Non-reference-counted implementation written by Paolo Carlini and
  37:/usr/include/newlib/c++/9.2.1/bits/basic_string.tcc **** // updated by Jonathan Wakely for ISO-14882-2011.
  38:/usr/include/newlib/c++/9.2.1/bits/basic_string.tcc **** 
  39:/usr/include/newlib/c++/9.2.1/bits/basic_string.tcc **** #ifndef _BASIC_STRING_TCC
  40:/usr/include/newlib/c++/9.2.1/bits/basic_string.tcc **** #define _BASIC_STRING_TCC 1
  41:/usr/include/newlib/c++/9.2.1/bits/basic_string.tcc **** 
  42:/usr/include/newlib/c++/9.2.1/bits/basic_string.tcc **** #pragma GCC system_header
  43:/usr/include/newlib/c++/9.2.1/bits/basic_string.tcc **** 
  44:/usr/include/newlib/c++/9.2.1/bits/basic_string.tcc **** #include <bits/cxxabi_forced.h>
  45:/usr/include/newlib/c++/9.2.1/bits/basic_string.tcc **** 
  46:/usr/include/newlib/c++/9.2.1/bits/basic_string.tcc **** namespace std _GLIBCXX_VISIBILITY(default)
  47:/usr/include/newlib/c++/9.2.1/bits/basic_string.tcc **** {
  48:/usr/include/newlib/c++/9.2.1/bits/basic_string.tcc **** _GLIBCXX_BEGIN_NAMESPACE_VERSION
  49:/usr/include/newlib/c++/9.2.1/bits/basic_string.tcc **** 
  50:/usr/include/newlib/c++/9.2.1/bits/basic_string.tcc **** #if _GLIBCXX_USE_CXX11_ABI
  51:/usr/include/newlib/c++/9.2.1/bits/basic_string.tcc **** 
  52:/usr/include/newlib/c++/9.2.1/bits/basic_string.tcc ****   template<typename _CharT, typename _Traits, typename _Alloc>
  53:/usr/include/newlib/c++/9.2.1/bits/basic_string.tcc ****     const typename basic_string<_CharT, _Traits, _Alloc>::size_type
  54:/usr/include/newlib/c++/9.2.1/bits/basic_string.tcc ****     basic_string<_CharT, _Traits, _Alloc>::npos;
  55:/usr/include/newlib/c++/9.2.1/bits/basic_string.tcc **** 
  56:/usr/include/newlib/c++/9.2.1/bits/basic_string.tcc ****   template<typename _CharT, typename _Traits, typename _Alloc>
  57:/usr/include/newlib/c++/9.2.1/bits/basic_string.tcc ****     void
  58:/usr/include/newlib/c++/9.2.1/bits/basic_string.tcc ****     basic_string<_CharT, _Traits, _Alloc>::
  59:/usr/include/newlib/c++/9.2.1/bits/basic_string.tcc ****     swap(basic_string& __s) _GLIBCXX_NOEXCEPT
  60:/usr/include/newlib/c++/9.2.1/bits/basic_string.tcc ****     {
  61:/usr/include/newlib/c++/9.2.1/bits/basic_string.tcc ****       if (this == &__s)
  62:/usr/include/newlib/c++/9.2.1/bits/basic_string.tcc **** 	return;
  63:/usr/include/newlib/c++/9.2.1/bits/basic_string.tcc **** 
  64:/usr/include/newlib/c++/9.2.1/bits/basic_string.tcc ****       _Alloc_traits::_S_on_swap(_M_get_allocator(), __s._M_get_allocator());
  65:/usr/include/newlib/c++/9.2.1/bits/basic_string.tcc **** 
  66:/usr/include/newlib/c++/9.2.1/bits/basic_string.tcc ****       if (_M_is_local())
  67:/usr/include/newlib/c++/9.2.1/bits/basic_string.tcc **** 	if (__s._M_is_local())
  68:/usr/include/newlib/c++/9.2.1/bits/basic_string.tcc **** 	  {
  69:/usr/include/newlib/c++/9.2.1/bits/basic_string.tcc **** 	    if (length() && __s.length())
  70:/usr/include/newlib/c++/9.2.1/bits/basic_string.tcc **** 	      {
  71:/usr/include/newlib/c++/9.2.1/bits/basic_string.tcc **** 		_CharT __tmp_data[_S_local_capacity + 1];
  72:/usr/include/newlib/c++/9.2.1/bits/basic_string.tcc **** 		traits_type::copy(__tmp_data, __s._M_local_buf,
  73:/usr/include/newlib/c++/9.2.1/bits/basic_string.tcc **** 				  _S_local_capacity + 1);
  74:/usr/include/newlib/c++/9.2.1/bits/basic_string.tcc **** 		traits_type::copy(__s._M_local_buf, _M_local_buf,
  75:/usr/include/newlib/c++/9.2.1/bits/basic_string.tcc **** 				  _S_local_capacity + 1);
  76:/usr/include/newlib/c++/9.2.1/bits/basic_string.tcc **** 		traits_type::copy(_M_local_buf, __tmp_data,
  77:/usr/include/newlib/c++/9.2.1/bits/basic_string.tcc **** 				  _S_local_capacity + 1);
  78:/usr/include/newlib/c++/9.2.1/bits/basic_string.tcc **** 	      }
  79:/usr/include/newlib/c++/9.2.1/bits/basic_string.tcc **** 	    else if (__s.length())
  80:/usr/include/newlib/c++/9.2.1/bits/basic_string.tcc **** 	      {
  81:/usr/include/newlib/c++/9.2.1/bits/basic_string.tcc **** 		traits_type::copy(_M_local_buf, __s._M_local_buf,
  82:/usr/include/newlib/c++/9.2.1/bits/basic_string.tcc **** 				  _S_local_capacity + 1);
  83:/usr/include/newlib/c++/9.2.1/bits/basic_string.tcc **** 		_M_length(__s.length());
  84:/usr/include/newlib/c++/9.2.1/bits/basic_string.tcc **** 		__s._M_set_length(0);
ARM GAS  /tmp/ccobg3TQ.s 			page 182


  85:/usr/include/newlib/c++/9.2.1/bits/basic_string.tcc **** 		return;
  86:/usr/include/newlib/c++/9.2.1/bits/basic_string.tcc **** 	      }
  87:/usr/include/newlib/c++/9.2.1/bits/basic_string.tcc **** 	    else if (length())
  88:/usr/include/newlib/c++/9.2.1/bits/basic_string.tcc **** 	      {
  89:/usr/include/newlib/c++/9.2.1/bits/basic_string.tcc **** 		traits_type::copy(__s._M_local_buf, _M_local_buf,
  90:/usr/include/newlib/c++/9.2.1/bits/basic_string.tcc **** 				  _S_local_capacity + 1);
  91:/usr/include/newlib/c++/9.2.1/bits/basic_string.tcc **** 		__s._M_length(length());
  92:/usr/include/newlib/c++/9.2.1/bits/basic_string.tcc **** 		_M_set_length(0);
  93:/usr/include/newlib/c++/9.2.1/bits/basic_string.tcc **** 		return;
  94:/usr/include/newlib/c++/9.2.1/bits/basic_string.tcc **** 	      }
  95:/usr/include/newlib/c++/9.2.1/bits/basic_string.tcc **** 	  }
  96:/usr/include/newlib/c++/9.2.1/bits/basic_string.tcc **** 	else
  97:/usr/include/newlib/c++/9.2.1/bits/basic_string.tcc **** 	  {
  98:/usr/include/newlib/c++/9.2.1/bits/basic_string.tcc **** 	    const size_type __tmp_capacity = __s._M_allocated_capacity;
  99:/usr/include/newlib/c++/9.2.1/bits/basic_string.tcc **** 	    traits_type::copy(__s._M_local_buf, _M_local_buf,
 100:/usr/include/newlib/c++/9.2.1/bits/basic_string.tcc **** 			      _S_local_capacity + 1);
 101:/usr/include/newlib/c++/9.2.1/bits/basic_string.tcc **** 	    _M_data(__s._M_data());
 102:/usr/include/newlib/c++/9.2.1/bits/basic_string.tcc **** 	    __s._M_data(__s._M_local_buf);
 103:/usr/include/newlib/c++/9.2.1/bits/basic_string.tcc **** 	    _M_capacity(__tmp_capacity);
 104:/usr/include/newlib/c++/9.2.1/bits/basic_string.tcc **** 	  }
 105:/usr/include/newlib/c++/9.2.1/bits/basic_string.tcc ****       else
 106:/usr/include/newlib/c++/9.2.1/bits/basic_string.tcc **** 	{
 107:/usr/include/newlib/c++/9.2.1/bits/basic_string.tcc **** 	  const size_type __tmp_capacity = _M_allocated_capacity;
 108:/usr/include/newlib/c++/9.2.1/bits/basic_string.tcc **** 	  if (__s._M_is_local())
 109:/usr/include/newlib/c++/9.2.1/bits/basic_string.tcc **** 	    {
 110:/usr/include/newlib/c++/9.2.1/bits/basic_string.tcc **** 	      traits_type::copy(_M_local_buf, __s._M_local_buf,
 111:/usr/include/newlib/c++/9.2.1/bits/basic_string.tcc **** 				_S_local_capacity + 1);
 112:/usr/include/newlib/c++/9.2.1/bits/basic_string.tcc **** 	      __s._M_data(_M_data());
 113:/usr/include/newlib/c++/9.2.1/bits/basic_string.tcc **** 	      _M_data(_M_local_buf);
 114:/usr/include/newlib/c++/9.2.1/bits/basic_string.tcc **** 	    }
 115:/usr/include/newlib/c++/9.2.1/bits/basic_string.tcc **** 	  else
 116:/usr/include/newlib/c++/9.2.1/bits/basic_string.tcc **** 	    {
 117:/usr/include/newlib/c++/9.2.1/bits/basic_string.tcc **** 	      pointer __tmp_ptr = _M_data();
 118:/usr/include/newlib/c++/9.2.1/bits/basic_string.tcc **** 	      _M_data(__s._M_data());
 119:/usr/include/newlib/c++/9.2.1/bits/basic_string.tcc **** 	      __s._M_data(__tmp_ptr);
 120:/usr/include/newlib/c++/9.2.1/bits/basic_string.tcc **** 	      _M_capacity(__s._M_allocated_capacity);
 121:/usr/include/newlib/c++/9.2.1/bits/basic_string.tcc **** 	    }
 122:/usr/include/newlib/c++/9.2.1/bits/basic_string.tcc **** 	  __s._M_capacity(__tmp_capacity);
 123:/usr/include/newlib/c++/9.2.1/bits/basic_string.tcc **** 	}
 124:/usr/include/newlib/c++/9.2.1/bits/basic_string.tcc **** 
 125:/usr/include/newlib/c++/9.2.1/bits/basic_string.tcc ****       const size_type __tmp_length = length();
 126:/usr/include/newlib/c++/9.2.1/bits/basic_string.tcc ****       _M_length(__s.length());
 127:/usr/include/newlib/c++/9.2.1/bits/basic_string.tcc ****       __s._M_length(__tmp_length);
 128:/usr/include/newlib/c++/9.2.1/bits/basic_string.tcc ****     }
 129:/usr/include/newlib/c++/9.2.1/bits/basic_string.tcc **** 
 130:/usr/include/newlib/c++/9.2.1/bits/basic_string.tcc ****   template<typename _CharT, typename _Traits, typename _Alloc>
 131:/usr/include/newlib/c++/9.2.1/bits/basic_string.tcc ****     typename basic_string<_CharT, _Traits, _Alloc>::pointer
 132:/usr/include/newlib/c++/9.2.1/bits/basic_string.tcc ****     basic_string<_CharT, _Traits, _Alloc>::
 133:/usr/include/newlib/c++/9.2.1/bits/basic_string.tcc ****     _M_create(size_type& __capacity, size_type __old_capacity)
 134:/usr/include/newlib/c++/9.2.1/bits/basic_string.tcc ****     {
 135:/usr/include/newlib/c++/9.2.1/bits/basic_string.tcc ****       // _GLIBCXX_RESOLVE_LIB_DEFECTS
 136:/usr/include/newlib/c++/9.2.1/bits/basic_string.tcc ****       // 83.  String::npos vs. string::max_size()
 137:/usr/include/newlib/c++/9.2.1/bits/basic_string.tcc ****       if (__capacity > max_size())
 138:/usr/include/newlib/c++/9.2.1/bits/basic_string.tcc **** 	std::__throw_length_error(__N("basic_string::_M_create"));
 139:/usr/include/newlib/c++/9.2.1/bits/basic_string.tcc **** 
 140:/usr/include/newlib/c++/9.2.1/bits/basic_string.tcc ****       // The below implements an exponential growth policy, necessary to
 141:/usr/include/newlib/c++/9.2.1/bits/basic_string.tcc ****       // meet amortized linear time requirements of the library: see
ARM GAS  /tmp/ccobg3TQ.s 			page 183


 142:/usr/include/newlib/c++/9.2.1/bits/basic_string.tcc ****       // http://gcc.gnu.org/ml/libstdc++/2001-07/msg00085.html.
 143:/usr/include/newlib/c++/9.2.1/bits/basic_string.tcc ****       if (__capacity > __old_capacity && __capacity < 2 * __old_capacity)
 144:/usr/include/newlib/c++/9.2.1/bits/basic_string.tcc **** 	{
 145:/usr/include/newlib/c++/9.2.1/bits/basic_string.tcc **** 	  __capacity = 2 * __old_capacity;
 146:/usr/include/newlib/c++/9.2.1/bits/basic_string.tcc **** 	  // Never allocate a string bigger than max_size.
 147:/usr/include/newlib/c++/9.2.1/bits/basic_string.tcc **** 	  if (__capacity > max_size())
 148:/usr/include/newlib/c++/9.2.1/bits/basic_string.tcc **** 	    __capacity = max_size();
 149:/usr/include/newlib/c++/9.2.1/bits/basic_string.tcc **** 	}
 150:/usr/include/newlib/c++/9.2.1/bits/basic_string.tcc **** 
 151:/usr/include/newlib/c++/9.2.1/bits/basic_string.tcc ****       // NB: Need an array of char_type[__capacity], plus a terminating
 152:/usr/include/newlib/c++/9.2.1/bits/basic_string.tcc ****       // null char_type() element.
 153:/usr/include/newlib/c++/9.2.1/bits/basic_string.tcc ****       return _Alloc_traits::allocate(_M_get_allocator(), __capacity + 1);
 154:/usr/include/newlib/c++/9.2.1/bits/basic_string.tcc ****     }
 155:/usr/include/newlib/c++/9.2.1/bits/basic_string.tcc **** 
 156:/usr/include/newlib/c++/9.2.1/bits/basic_string.tcc ****   // NB: This is the special case for Input Iterators, used in
 157:/usr/include/newlib/c++/9.2.1/bits/basic_string.tcc ****   // istreambuf_iterators, etc.
 158:/usr/include/newlib/c++/9.2.1/bits/basic_string.tcc ****   // Input Iterators have a cost structure very different from
 159:/usr/include/newlib/c++/9.2.1/bits/basic_string.tcc ****   // pointers, calling for a different coding style.
 160:/usr/include/newlib/c++/9.2.1/bits/basic_string.tcc ****   template<typename _CharT, typename _Traits, typename _Alloc>
 161:/usr/include/newlib/c++/9.2.1/bits/basic_string.tcc ****     template<typename _InIterator>
 162:/usr/include/newlib/c++/9.2.1/bits/basic_string.tcc ****       void
 163:/usr/include/newlib/c++/9.2.1/bits/basic_string.tcc ****       basic_string<_CharT, _Traits, _Alloc>::
 164:/usr/include/newlib/c++/9.2.1/bits/basic_string.tcc ****       _M_construct(_InIterator __beg, _InIterator __end,
 165:/usr/include/newlib/c++/9.2.1/bits/basic_string.tcc **** 		   std::input_iterator_tag)
 166:/usr/include/newlib/c++/9.2.1/bits/basic_string.tcc ****       {
 167:/usr/include/newlib/c++/9.2.1/bits/basic_string.tcc **** 	size_type __len = 0;
 168:/usr/include/newlib/c++/9.2.1/bits/basic_string.tcc **** 	size_type __capacity = size_type(_S_local_capacity);
 169:/usr/include/newlib/c++/9.2.1/bits/basic_string.tcc **** 
 170:/usr/include/newlib/c++/9.2.1/bits/basic_string.tcc **** 	while (__beg != __end && __len < __capacity)
 171:/usr/include/newlib/c++/9.2.1/bits/basic_string.tcc **** 	  {
 172:/usr/include/newlib/c++/9.2.1/bits/basic_string.tcc **** 	    _M_data()[__len++] = *__beg;
 173:/usr/include/newlib/c++/9.2.1/bits/basic_string.tcc **** 	    ++__beg;
 174:/usr/include/newlib/c++/9.2.1/bits/basic_string.tcc **** 	  }
 175:/usr/include/newlib/c++/9.2.1/bits/basic_string.tcc **** 
 176:/usr/include/newlib/c++/9.2.1/bits/basic_string.tcc **** 	__try
 177:/usr/include/newlib/c++/9.2.1/bits/basic_string.tcc **** 	  {
 178:/usr/include/newlib/c++/9.2.1/bits/basic_string.tcc **** 	    while (__beg != __end)
 179:/usr/include/newlib/c++/9.2.1/bits/basic_string.tcc **** 	      {
 180:/usr/include/newlib/c++/9.2.1/bits/basic_string.tcc **** 		if (__len == __capacity)
 181:/usr/include/newlib/c++/9.2.1/bits/basic_string.tcc **** 		  {
 182:/usr/include/newlib/c++/9.2.1/bits/basic_string.tcc **** 		    // Allocate more space.
 183:/usr/include/newlib/c++/9.2.1/bits/basic_string.tcc **** 		    __capacity = __len + 1;
 184:/usr/include/newlib/c++/9.2.1/bits/basic_string.tcc **** 		    pointer __another = _M_create(__capacity, __len);
 185:/usr/include/newlib/c++/9.2.1/bits/basic_string.tcc **** 		    this->_S_copy(__another, _M_data(), __len);
 186:/usr/include/newlib/c++/9.2.1/bits/basic_string.tcc **** 		    _M_dispose();
 187:/usr/include/newlib/c++/9.2.1/bits/basic_string.tcc **** 		    _M_data(__another);
 188:/usr/include/newlib/c++/9.2.1/bits/basic_string.tcc **** 		    _M_capacity(__capacity);
 189:/usr/include/newlib/c++/9.2.1/bits/basic_string.tcc **** 		  }
 190:/usr/include/newlib/c++/9.2.1/bits/basic_string.tcc **** 		_M_data()[__len++] = *__beg;
 191:/usr/include/newlib/c++/9.2.1/bits/basic_string.tcc **** 		++__beg;
 192:/usr/include/newlib/c++/9.2.1/bits/basic_string.tcc **** 	      }
 193:/usr/include/newlib/c++/9.2.1/bits/basic_string.tcc **** 	  }
 194:/usr/include/newlib/c++/9.2.1/bits/basic_string.tcc **** 	__catch(...)
 195:/usr/include/newlib/c++/9.2.1/bits/basic_string.tcc **** 	  {
 196:/usr/include/newlib/c++/9.2.1/bits/basic_string.tcc **** 	    _M_dispose();
 197:/usr/include/newlib/c++/9.2.1/bits/basic_string.tcc **** 	    __throw_exception_again;
 198:/usr/include/newlib/c++/9.2.1/bits/basic_string.tcc **** 	  }
ARM GAS  /tmp/ccobg3TQ.s 			page 184


 199:/usr/include/newlib/c++/9.2.1/bits/basic_string.tcc **** 
 200:/usr/include/newlib/c++/9.2.1/bits/basic_string.tcc **** 	_M_set_length(__len);
 201:/usr/include/newlib/c++/9.2.1/bits/basic_string.tcc ****       }
 202:/usr/include/newlib/c++/9.2.1/bits/basic_string.tcc **** 
 203:/usr/include/newlib/c++/9.2.1/bits/basic_string.tcc ****   template<typename _CharT, typename _Traits, typename _Alloc>
 204:/usr/include/newlib/c++/9.2.1/bits/basic_string.tcc ****     template<typename _InIterator>
 205:/usr/include/newlib/c++/9.2.1/bits/basic_string.tcc ****       void
 206:/usr/include/newlib/c++/9.2.1/bits/basic_string.tcc ****       basic_string<_CharT, _Traits, _Alloc>::
 207:/usr/include/newlib/c++/9.2.1/bits/basic_string.tcc ****       _M_construct(_InIterator __beg, _InIterator __end,
 208:/usr/include/newlib/c++/9.2.1/bits/basic_string.tcc **** 		   std::forward_iterator_tag)
 209:/usr/include/newlib/c++/9.2.1/bits/basic_string.tcc ****       {
 210:/usr/include/newlib/c++/9.2.1/bits/basic_string.tcc **** 	// NB: Not required, but considered best practice.
 211:/usr/include/newlib/c++/9.2.1/bits/basic_string.tcc **** 	if (__gnu_cxx::__is_null_pointer(__beg) && __beg != __end)
 212:/usr/include/newlib/c++/9.2.1/bits/basic_string.tcc **** 	  std::__throw_logic_error(__N("basic_string::"
 213:/usr/include/newlib/c++/9.2.1/bits/basic_string.tcc **** 				       "_M_construct null not valid"));
 214:/usr/include/newlib/c++/9.2.1/bits/basic_string.tcc **** 
 215:/usr/include/newlib/c++/9.2.1/bits/basic_string.tcc **** 	size_type __dnew = static_cast<size_type>(std::distance(__beg, __end));
 6113              		.loc 21 215 12 view .LVU1434
 6114 0016 1523     		movs	r3, #21
 6115              	.LBE2058:
 6116              	.LBE2057:
 6117              	.LBE2056:
 6118              	.LBE2055:
 6119              	.LBE2054:
 6120              	.LBE2053:
 6121              	.LBB2099:
 6122              	.LBB2052:
 6123              	.LBB2051:
 157:/usr/include/newlib/c++/9.2.1/bits/basic_string.h **** 
 6124              		.loc 20 157 35 view .LVU1435
 6125 0018 0EAD     		add	r5, sp, #56
 6126              	.LVL451:
 157:/usr/include/newlib/c++/9.2.1/bits/basic_string.h **** 
 6127              		.loc 20 157 35 view .LVU1436
 6128              	.LBE2051:
 6129              	.LBE2052:
 6130              	.LBE2099:
 6131              	.LBB2100:
 6132              	.LBB2097:
 6133              	.LBB2095:
 6134              	.LBB2093:
 6135              	.LBB2091:
 6136              	.LBB2089:
 216:/usr/include/newlib/c++/9.2.1/bits/basic_string.tcc **** 
 217:/usr/include/newlib/c++/9.2.1/bits/basic_string.tcc **** 	if (__dnew > size_type(_S_local_capacity))
 218:/usr/include/newlib/c++/9.2.1/bits/basic_string.tcc **** 	  {
 219:/usr/include/newlib/c++/9.2.1/bits/basic_string.tcc **** 	    _M_data(_M_create(__dnew, size_type(0)));
 6137              		.loc 21 219 6 view .LVU1437
 6138 001a 0BA9     		add	r1, sp, #44
 6139 001c 2246     		mov	r2, r4
 6140 001e 0CA8     		add	r0, sp, #48
 6141              	.LVL452:
 6142              	.LBB2059:
 6143              	.LBB2060:
 6144              	.LBB2061:
 6145              	.LBB2062:
 6146              	.LBB2063:
ARM GAS  /tmp/ccobg3TQ.s 			page 185


 6147              		.file 22 "/usr/include/newlib/c++/9.2.1/bits/char_traits.h"
   1:/usr/include/newlib/c++/9.2.1/bits/char_traits.h **** // Character Traits for use by standard string and iostream -*- C++ -*-
   2:/usr/include/newlib/c++/9.2.1/bits/char_traits.h **** 
   3:/usr/include/newlib/c++/9.2.1/bits/char_traits.h **** // Copyright (C) 1997-2019 Free Software Foundation, Inc.
   4:/usr/include/newlib/c++/9.2.1/bits/char_traits.h **** //
   5:/usr/include/newlib/c++/9.2.1/bits/char_traits.h **** // This file is part of the GNU ISO C++ Library.  This library is free
   6:/usr/include/newlib/c++/9.2.1/bits/char_traits.h **** // software; you can redistribute it and/or modify it under the
   7:/usr/include/newlib/c++/9.2.1/bits/char_traits.h **** // terms of the GNU General Public License as published by the
   8:/usr/include/newlib/c++/9.2.1/bits/char_traits.h **** // Free Software Foundation; either version 3, or (at your option)
   9:/usr/include/newlib/c++/9.2.1/bits/char_traits.h **** // any later version.
  10:/usr/include/newlib/c++/9.2.1/bits/char_traits.h **** 
  11:/usr/include/newlib/c++/9.2.1/bits/char_traits.h **** // This library is distributed in the hope that it will be useful,
  12:/usr/include/newlib/c++/9.2.1/bits/char_traits.h **** // but WITHOUT ANY WARRANTY; without even the implied warranty of
  13:/usr/include/newlib/c++/9.2.1/bits/char_traits.h **** // MERCHANTABILITY or FITNESS FOR A PARTICULAR PURPOSE.  See the
  14:/usr/include/newlib/c++/9.2.1/bits/char_traits.h **** // GNU General Public License for more details.
  15:/usr/include/newlib/c++/9.2.1/bits/char_traits.h **** 
  16:/usr/include/newlib/c++/9.2.1/bits/char_traits.h **** // Under Section 7 of GPL version 3, you are granted additional
  17:/usr/include/newlib/c++/9.2.1/bits/char_traits.h **** // permissions described in the GCC Runtime Library Exception, version
  18:/usr/include/newlib/c++/9.2.1/bits/char_traits.h **** // 3.1, as published by the Free Software Foundation.
  19:/usr/include/newlib/c++/9.2.1/bits/char_traits.h **** 
  20:/usr/include/newlib/c++/9.2.1/bits/char_traits.h **** // You should have received a copy of the GNU General Public License and
  21:/usr/include/newlib/c++/9.2.1/bits/char_traits.h **** // a copy of the GCC Runtime Library Exception along with this program;
  22:/usr/include/newlib/c++/9.2.1/bits/char_traits.h **** // see the files COPYING3 and COPYING.RUNTIME respectively.  If not, see
  23:/usr/include/newlib/c++/9.2.1/bits/char_traits.h **** // <http://www.gnu.org/licenses/>.
  24:/usr/include/newlib/c++/9.2.1/bits/char_traits.h **** 
  25:/usr/include/newlib/c++/9.2.1/bits/char_traits.h **** /** @file bits/char_traits.h
  26:/usr/include/newlib/c++/9.2.1/bits/char_traits.h ****  *  This is an internal header file, included by other library headers.
  27:/usr/include/newlib/c++/9.2.1/bits/char_traits.h ****  *  Do not attempt to use it directly. @headername{string}
  28:/usr/include/newlib/c++/9.2.1/bits/char_traits.h ****  */
  29:/usr/include/newlib/c++/9.2.1/bits/char_traits.h **** 
  30:/usr/include/newlib/c++/9.2.1/bits/char_traits.h **** //
  31:/usr/include/newlib/c++/9.2.1/bits/char_traits.h **** // ISO C++ 14882: 21  Strings library
  32:/usr/include/newlib/c++/9.2.1/bits/char_traits.h **** //
  33:/usr/include/newlib/c++/9.2.1/bits/char_traits.h **** 
  34:/usr/include/newlib/c++/9.2.1/bits/char_traits.h **** #ifndef _CHAR_TRAITS_H
  35:/usr/include/newlib/c++/9.2.1/bits/char_traits.h **** #define _CHAR_TRAITS_H 1
  36:/usr/include/newlib/c++/9.2.1/bits/char_traits.h **** 
  37:/usr/include/newlib/c++/9.2.1/bits/char_traits.h **** #pragma GCC system_header
  38:/usr/include/newlib/c++/9.2.1/bits/char_traits.h **** 
  39:/usr/include/newlib/c++/9.2.1/bits/char_traits.h **** #include <bits/stl_algobase.h>  // std::copy, std::fill_n
  40:/usr/include/newlib/c++/9.2.1/bits/char_traits.h **** #include <bits/postypes.h>      // For streampos
  41:/usr/include/newlib/c++/9.2.1/bits/char_traits.h **** #include <cwchar>               // For WEOF, wmemmove, wmemset, etc.
  42:/usr/include/newlib/c++/9.2.1/bits/char_traits.h **** 
  43:/usr/include/newlib/c++/9.2.1/bits/char_traits.h **** #ifndef _GLIBCXX_ALWAYS_INLINE
  44:/usr/include/newlib/c++/9.2.1/bits/char_traits.h **** # define _GLIBCXX_ALWAYS_INLINE inline __attribute__((__always_inline__))
  45:/usr/include/newlib/c++/9.2.1/bits/char_traits.h **** #endif
  46:/usr/include/newlib/c++/9.2.1/bits/char_traits.h **** 
  47:/usr/include/newlib/c++/9.2.1/bits/char_traits.h **** namespace __gnu_cxx _GLIBCXX_VISIBILITY(default)
  48:/usr/include/newlib/c++/9.2.1/bits/char_traits.h **** {
  49:/usr/include/newlib/c++/9.2.1/bits/char_traits.h **** _GLIBCXX_BEGIN_NAMESPACE_VERSION
  50:/usr/include/newlib/c++/9.2.1/bits/char_traits.h **** 
  51:/usr/include/newlib/c++/9.2.1/bits/char_traits.h ****   /**
  52:/usr/include/newlib/c++/9.2.1/bits/char_traits.h ****    *  @brief  Mapping from character type to associated types.
  53:/usr/include/newlib/c++/9.2.1/bits/char_traits.h ****    *
  54:/usr/include/newlib/c++/9.2.1/bits/char_traits.h ****    *  @note This is an implementation class for the generic version
  55:/usr/include/newlib/c++/9.2.1/bits/char_traits.h ****    *  of char_traits.  It defines int_type, off_type, pos_type, and
  56:/usr/include/newlib/c++/9.2.1/bits/char_traits.h ****    *  state_type.  By default these are unsigned long, streamoff,
ARM GAS  /tmp/ccobg3TQ.s 			page 186


  57:/usr/include/newlib/c++/9.2.1/bits/char_traits.h ****    *  streampos, and mbstate_t.  Users who need a different set of
  58:/usr/include/newlib/c++/9.2.1/bits/char_traits.h ****    *  types, but who don't need to change the definitions of any function
  59:/usr/include/newlib/c++/9.2.1/bits/char_traits.h ****    *  defined in char_traits, can specialize __gnu_cxx::_Char_types
  60:/usr/include/newlib/c++/9.2.1/bits/char_traits.h ****    *  while leaving __gnu_cxx::char_traits alone. */
  61:/usr/include/newlib/c++/9.2.1/bits/char_traits.h ****   template<typename _CharT>
  62:/usr/include/newlib/c++/9.2.1/bits/char_traits.h ****     struct _Char_types
  63:/usr/include/newlib/c++/9.2.1/bits/char_traits.h ****     {
  64:/usr/include/newlib/c++/9.2.1/bits/char_traits.h ****       typedef unsigned long   int_type;
  65:/usr/include/newlib/c++/9.2.1/bits/char_traits.h ****       typedef std::streampos  pos_type;
  66:/usr/include/newlib/c++/9.2.1/bits/char_traits.h ****       typedef std::streamoff  off_type;
  67:/usr/include/newlib/c++/9.2.1/bits/char_traits.h ****       typedef std::mbstate_t  state_type;
  68:/usr/include/newlib/c++/9.2.1/bits/char_traits.h ****     };
  69:/usr/include/newlib/c++/9.2.1/bits/char_traits.h **** 
  70:/usr/include/newlib/c++/9.2.1/bits/char_traits.h **** 
  71:/usr/include/newlib/c++/9.2.1/bits/char_traits.h ****   /**
  72:/usr/include/newlib/c++/9.2.1/bits/char_traits.h ****    *  @brief  Base class used to implement std::char_traits.
  73:/usr/include/newlib/c++/9.2.1/bits/char_traits.h ****    *
  74:/usr/include/newlib/c++/9.2.1/bits/char_traits.h ****    *  @note For any given actual character type, this definition is
  75:/usr/include/newlib/c++/9.2.1/bits/char_traits.h ****    *  probably wrong.  (Most of the member functions are likely to be
  76:/usr/include/newlib/c++/9.2.1/bits/char_traits.h ****    *  right, but the int_type and state_type typedefs, and the eof()
  77:/usr/include/newlib/c++/9.2.1/bits/char_traits.h ****    *  member function, are likely to be wrong.)  The reason this class
  78:/usr/include/newlib/c++/9.2.1/bits/char_traits.h ****    *  exists is so users can specialize it.  Classes in namespace std
  79:/usr/include/newlib/c++/9.2.1/bits/char_traits.h ****    *  may not be specialized for fundamental types, but classes in
  80:/usr/include/newlib/c++/9.2.1/bits/char_traits.h ****    *  namespace __gnu_cxx may be.
  81:/usr/include/newlib/c++/9.2.1/bits/char_traits.h ****    *
  82:/usr/include/newlib/c++/9.2.1/bits/char_traits.h ****    *  See https://gcc.gnu.org/onlinedocs/libstdc++/manual/strings.html#strings.string.character_typ
  83:/usr/include/newlib/c++/9.2.1/bits/char_traits.h ****    *  for advice on how to make use of this class for @a unusual character
  84:/usr/include/newlib/c++/9.2.1/bits/char_traits.h ****    *  types. Also, check out include/ext/pod_char_traits.h.  
  85:/usr/include/newlib/c++/9.2.1/bits/char_traits.h ****    */
  86:/usr/include/newlib/c++/9.2.1/bits/char_traits.h ****   template<typename _CharT>
  87:/usr/include/newlib/c++/9.2.1/bits/char_traits.h ****     struct char_traits
  88:/usr/include/newlib/c++/9.2.1/bits/char_traits.h ****     {
  89:/usr/include/newlib/c++/9.2.1/bits/char_traits.h ****       typedef _CharT                                    char_type;
  90:/usr/include/newlib/c++/9.2.1/bits/char_traits.h ****       typedef typename _Char_types<_CharT>::int_type    int_type;
  91:/usr/include/newlib/c++/9.2.1/bits/char_traits.h ****       typedef typename _Char_types<_CharT>::pos_type    pos_type;
  92:/usr/include/newlib/c++/9.2.1/bits/char_traits.h ****       typedef typename _Char_types<_CharT>::off_type    off_type;
  93:/usr/include/newlib/c++/9.2.1/bits/char_traits.h ****       typedef typename _Char_types<_CharT>::state_type  state_type;
  94:/usr/include/newlib/c++/9.2.1/bits/char_traits.h **** 
  95:/usr/include/newlib/c++/9.2.1/bits/char_traits.h ****       static _GLIBCXX14_CONSTEXPR void
  96:/usr/include/newlib/c++/9.2.1/bits/char_traits.h ****       assign(char_type& __c1, const char_type& __c2)
  97:/usr/include/newlib/c++/9.2.1/bits/char_traits.h ****       { __c1 = __c2; }
  98:/usr/include/newlib/c++/9.2.1/bits/char_traits.h **** 
  99:/usr/include/newlib/c++/9.2.1/bits/char_traits.h ****       static _GLIBCXX_CONSTEXPR bool
 100:/usr/include/newlib/c++/9.2.1/bits/char_traits.h ****       eq(const char_type& __c1, const char_type& __c2)
 101:/usr/include/newlib/c++/9.2.1/bits/char_traits.h ****       { return __c1 == __c2; }
 102:/usr/include/newlib/c++/9.2.1/bits/char_traits.h **** 
 103:/usr/include/newlib/c++/9.2.1/bits/char_traits.h ****       static _GLIBCXX_CONSTEXPR bool
 104:/usr/include/newlib/c++/9.2.1/bits/char_traits.h ****       lt(const char_type& __c1, const char_type& __c2)
 105:/usr/include/newlib/c++/9.2.1/bits/char_traits.h ****       { return __c1 < __c2; }
 106:/usr/include/newlib/c++/9.2.1/bits/char_traits.h **** 
 107:/usr/include/newlib/c++/9.2.1/bits/char_traits.h ****       static _GLIBCXX14_CONSTEXPR int
 108:/usr/include/newlib/c++/9.2.1/bits/char_traits.h ****       compare(const char_type* __s1, const char_type* __s2, std::size_t __n);
 109:/usr/include/newlib/c++/9.2.1/bits/char_traits.h **** 
 110:/usr/include/newlib/c++/9.2.1/bits/char_traits.h ****       static _GLIBCXX14_CONSTEXPR std::size_t
 111:/usr/include/newlib/c++/9.2.1/bits/char_traits.h ****       length(const char_type* __s);
 112:/usr/include/newlib/c++/9.2.1/bits/char_traits.h **** 
 113:/usr/include/newlib/c++/9.2.1/bits/char_traits.h ****       static _GLIBCXX14_CONSTEXPR const char_type*
ARM GAS  /tmp/ccobg3TQ.s 			page 187


 114:/usr/include/newlib/c++/9.2.1/bits/char_traits.h ****       find(const char_type* __s, std::size_t __n, const char_type& __a);
 115:/usr/include/newlib/c++/9.2.1/bits/char_traits.h **** 
 116:/usr/include/newlib/c++/9.2.1/bits/char_traits.h ****       static char_type*
 117:/usr/include/newlib/c++/9.2.1/bits/char_traits.h ****       move(char_type* __s1, const char_type* __s2, std::size_t __n);
 118:/usr/include/newlib/c++/9.2.1/bits/char_traits.h **** 
 119:/usr/include/newlib/c++/9.2.1/bits/char_traits.h ****       static char_type*
 120:/usr/include/newlib/c++/9.2.1/bits/char_traits.h ****       copy(char_type* __s1, const char_type* __s2, std::size_t __n);
 121:/usr/include/newlib/c++/9.2.1/bits/char_traits.h **** 
 122:/usr/include/newlib/c++/9.2.1/bits/char_traits.h ****       static char_type*
 123:/usr/include/newlib/c++/9.2.1/bits/char_traits.h ****       assign(char_type* __s, std::size_t __n, char_type __a);
 124:/usr/include/newlib/c++/9.2.1/bits/char_traits.h **** 
 125:/usr/include/newlib/c++/9.2.1/bits/char_traits.h ****       static _GLIBCXX_CONSTEXPR char_type
 126:/usr/include/newlib/c++/9.2.1/bits/char_traits.h ****       to_char_type(const int_type& __c)
 127:/usr/include/newlib/c++/9.2.1/bits/char_traits.h ****       { return static_cast<char_type>(__c); }
 128:/usr/include/newlib/c++/9.2.1/bits/char_traits.h **** 
 129:/usr/include/newlib/c++/9.2.1/bits/char_traits.h ****       static _GLIBCXX_CONSTEXPR int_type
 130:/usr/include/newlib/c++/9.2.1/bits/char_traits.h ****       to_int_type(const char_type& __c)
 131:/usr/include/newlib/c++/9.2.1/bits/char_traits.h ****       { return static_cast<int_type>(__c); }
 132:/usr/include/newlib/c++/9.2.1/bits/char_traits.h **** 
 133:/usr/include/newlib/c++/9.2.1/bits/char_traits.h ****       static _GLIBCXX_CONSTEXPR bool
 134:/usr/include/newlib/c++/9.2.1/bits/char_traits.h ****       eq_int_type(const int_type& __c1, const int_type& __c2)
 135:/usr/include/newlib/c++/9.2.1/bits/char_traits.h ****       { return __c1 == __c2; }
 136:/usr/include/newlib/c++/9.2.1/bits/char_traits.h **** 
 137:/usr/include/newlib/c++/9.2.1/bits/char_traits.h ****       static _GLIBCXX_CONSTEXPR int_type
 138:/usr/include/newlib/c++/9.2.1/bits/char_traits.h ****       eof()
 139:/usr/include/newlib/c++/9.2.1/bits/char_traits.h ****       { return static_cast<int_type>(_GLIBCXX_STDIO_EOF); }
 140:/usr/include/newlib/c++/9.2.1/bits/char_traits.h **** 
 141:/usr/include/newlib/c++/9.2.1/bits/char_traits.h ****       static _GLIBCXX_CONSTEXPR int_type
 142:/usr/include/newlib/c++/9.2.1/bits/char_traits.h ****       not_eof(const int_type& __c)
 143:/usr/include/newlib/c++/9.2.1/bits/char_traits.h ****       { return !eq_int_type(__c, eof()) ? __c : to_int_type(char_type()); }
 144:/usr/include/newlib/c++/9.2.1/bits/char_traits.h ****     };
 145:/usr/include/newlib/c++/9.2.1/bits/char_traits.h **** 
 146:/usr/include/newlib/c++/9.2.1/bits/char_traits.h ****   template<typename _CharT>
 147:/usr/include/newlib/c++/9.2.1/bits/char_traits.h ****     _GLIBCXX14_CONSTEXPR int
 148:/usr/include/newlib/c++/9.2.1/bits/char_traits.h ****     char_traits<_CharT>::
 149:/usr/include/newlib/c++/9.2.1/bits/char_traits.h ****     compare(const char_type* __s1, const char_type* __s2, std::size_t __n)
 150:/usr/include/newlib/c++/9.2.1/bits/char_traits.h ****     {
 151:/usr/include/newlib/c++/9.2.1/bits/char_traits.h ****       for (std::size_t __i = 0; __i < __n; ++__i)
 152:/usr/include/newlib/c++/9.2.1/bits/char_traits.h **** 	if (lt(__s1[__i], __s2[__i]))
 153:/usr/include/newlib/c++/9.2.1/bits/char_traits.h **** 	  return -1;
 154:/usr/include/newlib/c++/9.2.1/bits/char_traits.h **** 	else if (lt(__s2[__i], __s1[__i]))
 155:/usr/include/newlib/c++/9.2.1/bits/char_traits.h **** 	  return 1;
 156:/usr/include/newlib/c++/9.2.1/bits/char_traits.h ****       return 0;
 157:/usr/include/newlib/c++/9.2.1/bits/char_traits.h ****     }
 158:/usr/include/newlib/c++/9.2.1/bits/char_traits.h **** 
 159:/usr/include/newlib/c++/9.2.1/bits/char_traits.h ****   template<typename _CharT>
 160:/usr/include/newlib/c++/9.2.1/bits/char_traits.h ****     _GLIBCXX14_CONSTEXPR std::size_t
 161:/usr/include/newlib/c++/9.2.1/bits/char_traits.h ****     char_traits<_CharT>::
 162:/usr/include/newlib/c++/9.2.1/bits/char_traits.h ****     length(const char_type* __p)
 163:/usr/include/newlib/c++/9.2.1/bits/char_traits.h ****     {
 164:/usr/include/newlib/c++/9.2.1/bits/char_traits.h ****       std::size_t __i = 0;
 165:/usr/include/newlib/c++/9.2.1/bits/char_traits.h ****       while (!eq(__p[__i], char_type()))
 166:/usr/include/newlib/c++/9.2.1/bits/char_traits.h ****         ++__i;
 167:/usr/include/newlib/c++/9.2.1/bits/char_traits.h ****       return __i;
 168:/usr/include/newlib/c++/9.2.1/bits/char_traits.h ****     }
 169:/usr/include/newlib/c++/9.2.1/bits/char_traits.h **** 
 170:/usr/include/newlib/c++/9.2.1/bits/char_traits.h ****   template<typename _CharT>
ARM GAS  /tmp/ccobg3TQ.s 			page 188


 171:/usr/include/newlib/c++/9.2.1/bits/char_traits.h ****     _GLIBCXX14_CONSTEXPR const typename char_traits<_CharT>::char_type*
 172:/usr/include/newlib/c++/9.2.1/bits/char_traits.h ****     char_traits<_CharT>::
 173:/usr/include/newlib/c++/9.2.1/bits/char_traits.h ****     find(const char_type* __s, std::size_t __n, const char_type& __a)
 174:/usr/include/newlib/c++/9.2.1/bits/char_traits.h ****     {
 175:/usr/include/newlib/c++/9.2.1/bits/char_traits.h ****       for (std::size_t __i = 0; __i < __n; ++__i)
 176:/usr/include/newlib/c++/9.2.1/bits/char_traits.h ****         if (eq(__s[__i], __a))
 177:/usr/include/newlib/c++/9.2.1/bits/char_traits.h ****           return __s + __i;
 178:/usr/include/newlib/c++/9.2.1/bits/char_traits.h ****       return 0;
 179:/usr/include/newlib/c++/9.2.1/bits/char_traits.h ****     }
 180:/usr/include/newlib/c++/9.2.1/bits/char_traits.h **** 
 181:/usr/include/newlib/c++/9.2.1/bits/char_traits.h ****   template<typename _CharT>
 182:/usr/include/newlib/c++/9.2.1/bits/char_traits.h ****     typename char_traits<_CharT>::char_type*
 183:/usr/include/newlib/c++/9.2.1/bits/char_traits.h ****     char_traits<_CharT>::
 184:/usr/include/newlib/c++/9.2.1/bits/char_traits.h ****     move(char_type* __s1, const char_type* __s2, std::size_t __n)
 185:/usr/include/newlib/c++/9.2.1/bits/char_traits.h ****     {
 186:/usr/include/newlib/c++/9.2.1/bits/char_traits.h ****       if (__n == 0)
 187:/usr/include/newlib/c++/9.2.1/bits/char_traits.h **** 	return __s1;
 188:/usr/include/newlib/c++/9.2.1/bits/char_traits.h ****       return static_cast<_CharT*>(__builtin_memmove(__s1, __s2,
 189:/usr/include/newlib/c++/9.2.1/bits/char_traits.h **** 						    __n * sizeof(char_type)));
 190:/usr/include/newlib/c++/9.2.1/bits/char_traits.h ****     }
 191:/usr/include/newlib/c++/9.2.1/bits/char_traits.h **** 
 192:/usr/include/newlib/c++/9.2.1/bits/char_traits.h ****   template<typename _CharT>
 193:/usr/include/newlib/c++/9.2.1/bits/char_traits.h ****     typename char_traits<_CharT>::char_type*
 194:/usr/include/newlib/c++/9.2.1/bits/char_traits.h ****     char_traits<_CharT>::
 195:/usr/include/newlib/c++/9.2.1/bits/char_traits.h ****     copy(char_type* __s1, const char_type* __s2, std::size_t __n)
 196:/usr/include/newlib/c++/9.2.1/bits/char_traits.h ****     {
 197:/usr/include/newlib/c++/9.2.1/bits/char_traits.h ****       // NB: Inline std::copy so no recursive dependencies.
 198:/usr/include/newlib/c++/9.2.1/bits/char_traits.h ****       std::copy(__s2, __s2 + __n, __s1);
 199:/usr/include/newlib/c++/9.2.1/bits/char_traits.h ****       return __s1;
 200:/usr/include/newlib/c++/9.2.1/bits/char_traits.h ****     }
 201:/usr/include/newlib/c++/9.2.1/bits/char_traits.h **** 
 202:/usr/include/newlib/c++/9.2.1/bits/char_traits.h ****   template<typename _CharT>
 203:/usr/include/newlib/c++/9.2.1/bits/char_traits.h ****     typename char_traits<_CharT>::char_type*
 204:/usr/include/newlib/c++/9.2.1/bits/char_traits.h ****     char_traits<_CharT>::
 205:/usr/include/newlib/c++/9.2.1/bits/char_traits.h ****     assign(char_type* __s, std::size_t __n, char_type __a)
 206:/usr/include/newlib/c++/9.2.1/bits/char_traits.h ****     {
 207:/usr/include/newlib/c++/9.2.1/bits/char_traits.h ****       // NB: Inline std::fill_n so no recursive dependencies.
 208:/usr/include/newlib/c++/9.2.1/bits/char_traits.h ****       std::fill_n(__s, __n, __a);
 209:/usr/include/newlib/c++/9.2.1/bits/char_traits.h ****       return __s;
 210:/usr/include/newlib/c++/9.2.1/bits/char_traits.h ****     }
 211:/usr/include/newlib/c++/9.2.1/bits/char_traits.h **** 
 212:/usr/include/newlib/c++/9.2.1/bits/char_traits.h **** _GLIBCXX_END_NAMESPACE_VERSION
 213:/usr/include/newlib/c++/9.2.1/bits/char_traits.h **** } // namespace
 214:/usr/include/newlib/c++/9.2.1/bits/char_traits.h **** 
 215:/usr/include/newlib/c++/9.2.1/bits/char_traits.h **** namespace std _GLIBCXX_VISIBILITY(default)
 216:/usr/include/newlib/c++/9.2.1/bits/char_traits.h **** {
 217:/usr/include/newlib/c++/9.2.1/bits/char_traits.h **** _GLIBCXX_BEGIN_NAMESPACE_VERSION
 218:/usr/include/newlib/c++/9.2.1/bits/char_traits.h **** 
 219:/usr/include/newlib/c++/9.2.1/bits/char_traits.h **** #if __cplusplus >= 201703L
 220:/usr/include/newlib/c++/9.2.1/bits/char_traits.h **** #define __cpp_lib_constexpr_char_traits 201611
 221:/usr/include/newlib/c++/9.2.1/bits/char_traits.h **** 
 222:/usr/include/newlib/c++/9.2.1/bits/char_traits.h ****   /**
 223:/usr/include/newlib/c++/9.2.1/bits/char_traits.h ****    *  @brief Determine whether the characters of a NULL-terminated
 224:/usr/include/newlib/c++/9.2.1/bits/char_traits.h ****    *  string are known at compile time.
 225:/usr/include/newlib/c++/9.2.1/bits/char_traits.h ****    *  @param  __s  The string.
 226:/usr/include/newlib/c++/9.2.1/bits/char_traits.h ****    *
 227:/usr/include/newlib/c++/9.2.1/bits/char_traits.h ****    *  Assumes that _CharT is a built-in character type.
ARM GAS  /tmp/ccobg3TQ.s 			page 189


 228:/usr/include/newlib/c++/9.2.1/bits/char_traits.h ****    */
 229:/usr/include/newlib/c++/9.2.1/bits/char_traits.h ****   template<typename _CharT>
 230:/usr/include/newlib/c++/9.2.1/bits/char_traits.h ****     static _GLIBCXX_ALWAYS_INLINE constexpr bool
 231:/usr/include/newlib/c++/9.2.1/bits/char_traits.h ****     __constant_string_p(const _CharT* __s)
 232:/usr/include/newlib/c++/9.2.1/bits/char_traits.h ****     {
 233:/usr/include/newlib/c++/9.2.1/bits/char_traits.h **** #ifdef _GLIBCXX_HAVE_BUILTIN_IS_CONSTANT_EVALUATED
 234:/usr/include/newlib/c++/9.2.1/bits/char_traits.h ****       (void) __s;
 235:/usr/include/newlib/c++/9.2.1/bits/char_traits.h ****       // In constexpr contexts all strings should be constant.
 236:/usr/include/newlib/c++/9.2.1/bits/char_traits.h ****       return __builtin_is_constant_evaluated();
 237:/usr/include/newlib/c++/9.2.1/bits/char_traits.h **** #else
 238:/usr/include/newlib/c++/9.2.1/bits/char_traits.h ****       while (__builtin_constant_p(*__s) && *__s)
 239:/usr/include/newlib/c++/9.2.1/bits/char_traits.h **** 	__s++;
 240:/usr/include/newlib/c++/9.2.1/bits/char_traits.h ****       return __builtin_constant_p(*__s);
 241:/usr/include/newlib/c++/9.2.1/bits/char_traits.h **** #endif
 242:/usr/include/newlib/c++/9.2.1/bits/char_traits.h ****     }
 243:/usr/include/newlib/c++/9.2.1/bits/char_traits.h **** 
 244:/usr/include/newlib/c++/9.2.1/bits/char_traits.h ****   /**
 245:/usr/include/newlib/c++/9.2.1/bits/char_traits.h ****    *  @brief Determine whether the characters of a character array are
 246:/usr/include/newlib/c++/9.2.1/bits/char_traits.h ****    *  known at compile time.
 247:/usr/include/newlib/c++/9.2.1/bits/char_traits.h ****    *  @param  __a  The character array.
 248:/usr/include/newlib/c++/9.2.1/bits/char_traits.h ****    *  @param  __n  Number of characters.
 249:/usr/include/newlib/c++/9.2.1/bits/char_traits.h ****    *
 250:/usr/include/newlib/c++/9.2.1/bits/char_traits.h ****    *  Assumes that _CharT is a built-in character type.
 251:/usr/include/newlib/c++/9.2.1/bits/char_traits.h ****    */
 252:/usr/include/newlib/c++/9.2.1/bits/char_traits.h ****   template<typename _CharT>
 253:/usr/include/newlib/c++/9.2.1/bits/char_traits.h ****     static _GLIBCXX_ALWAYS_INLINE constexpr bool
 254:/usr/include/newlib/c++/9.2.1/bits/char_traits.h ****     __constant_char_array_p(const _CharT* __a, size_t __n)
 255:/usr/include/newlib/c++/9.2.1/bits/char_traits.h ****     {
 256:/usr/include/newlib/c++/9.2.1/bits/char_traits.h **** #ifdef _GLIBCXX_HAVE_BUILTIN_IS_CONSTANT_EVALUATED
 257:/usr/include/newlib/c++/9.2.1/bits/char_traits.h ****       (void) __a;
 258:/usr/include/newlib/c++/9.2.1/bits/char_traits.h ****       (void) __n;
 259:/usr/include/newlib/c++/9.2.1/bits/char_traits.h ****       // In constexpr contexts all character arrays should be constant.
 260:/usr/include/newlib/c++/9.2.1/bits/char_traits.h ****       return __builtin_is_constant_evaluated();
 261:/usr/include/newlib/c++/9.2.1/bits/char_traits.h **** #else
 262:/usr/include/newlib/c++/9.2.1/bits/char_traits.h ****       size_t __i = 0;
 263:/usr/include/newlib/c++/9.2.1/bits/char_traits.h ****       while (__i < __n && __builtin_constant_p(__a[__i]))
 264:/usr/include/newlib/c++/9.2.1/bits/char_traits.h **** 	__i++;
 265:/usr/include/newlib/c++/9.2.1/bits/char_traits.h ****       return __i == __n;
 266:/usr/include/newlib/c++/9.2.1/bits/char_traits.h **** #endif
 267:/usr/include/newlib/c++/9.2.1/bits/char_traits.h ****     }
 268:/usr/include/newlib/c++/9.2.1/bits/char_traits.h **** #endif
 269:/usr/include/newlib/c++/9.2.1/bits/char_traits.h **** 
 270:/usr/include/newlib/c++/9.2.1/bits/char_traits.h ****   // 21.1
 271:/usr/include/newlib/c++/9.2.1/bits/char_traits.h ****   /**
 272:/usr/include/newlib/c++/9.2.1/bits/char_traits.h ****    *  @brief  Basis for explicit traits specializations.
 273:/usr/include/newlib/c++/9.2.1/bits/char_traits.h ****    *
 274:/usr/include/newlib/c++/9.2.1/bits/char_traits.h ****    *  @note  For any given actual character type, this definition is
 275:/usr/include/newlib/c++/9.2.1/bits/char_traits.h ****    *  probably wrong.  Since this is just a thin wrapper around
 276:/usr/include/newlib/c++/9.2.1/bits/char_traits.h ****    *  __gnu_cxx::char_traits, it is possible to achieve a more
 277:/usr/include/newlib/c++/9.2.1/bits/char_traits.h ****    *  appropriate definition by specializing __gnu_cxx::char_traits.
 278:/usr/include/newlib/c++/9.2.1/bits/char_traits.h ****    *
 279:/usr/include/newlib/c++/9.2.1/bits/char_traits.h ****    *  See https://gcc.gnu.org/onlinedocs/libstdc++/manual/strings.html#strings.string.character_typ
 280:/usr/include/newlib/c++/9.2.1/bits/char_traits.h ****    *  for advice on how to make use of this class for @a unusual character
 281:/usr/include/newlib/c++/9.2.1/bits/char_traits.h ****    *  types. Also, check out include/ext/pod_char_traits.h.
 282:/usr/include/newlib/c++/9.2.1/bits/char_traits.h ****   */
 283:/usr/include/newlib/c++/9.2.1/bits/char_traits.h ****   template<class _CharT>
 284:/usr/include/newlib/c++/9.2.1/bits/char_traits.h ****     struct char_traits : public __gnu_cxx::char_traits<_CharT>
ARM GAS  /tmp/ccobg3TQ.s 			page 190


 285:/usr/include/newlib/c++/9.2.1/bits/char_traits.h ****     { };
 286:/usr/include/newlib/c++/9.2.1/bits/char_traits.h **** 
 287:/usr/include/newlib/c++/9.2.1/bits/char_traits.h **** 
 288:/usr/include/newlib/c++/9.2.1/bits/char_traits.h ****   /// 21.1.3.1  char_traits specializations
 289:/usr/include/newlib/c++/9.2.1/bits/char_traits.h ****   template<>
 290:/usr/include/newlib/c++/9.2.1/bits/char_traits.h ****     struct char_traits<char>
 291:/usr/include/newlib/c++/9.2.1/bits/char_traits.h ****     {
 292:/usr/include/newlib/c++/9.2.1/bits/char_traits.h ****       typedef char              char_type;
 293:/usr/include/newlib/c++/9.2.1/bits/char_traits.h ****       typedef int               int_type;
 294:/usr/include/newlib/c++/9.2.1/bits/char_traits.h ****       typedef streampos         pos_type;
 295:/usr/include/newlib/c++/9.2.1/bits/char_traits.h ****       typedef streamoff         off_type;
 296:/usr/include/newlib/c++/9.2.1/bits/char_traits.h ****       typedef mbstate_t         state_type;
 297:/usr/include/newlib/c++/9.2.1/bits/char_traits.h **** 
 298:/usr/include/newlib/c++/9.2.1/bits/char_traits.h ****       static _GLIBCXX17_CONSTEXPR void
 299:/usr/include/newlib/c++/9.2.1/bits/char_traits.h ****       assign(char_type& __c1, const char_type& __c2) _GLIBCXX_NOEXCEPT
 300:/usr/include/newlib/c++/9.2.1/bits/char_traits.h ****       { __c1 = __c2; }
 301:/usr/include/newlib/c++/9.2.1/bits/char_traits.h **** 
 302:/usr/include/newlib/c++/9.2.1/bits/char_traits.h ****       static _GLIBCXX_CONSTEXPR bool
 303:/usr/include/newlib/c++/9.2.1/bits/char_traits.h ****       eq(const char_type& __c1, const char_type& __c2) _GLIBCXX_NOEXCEPT
 304:/usr/include/newlib/c++/9.2.1/bits/char_traits.h ****       { return __c1 == __c2; }
 305:/usr/include/newlib/c++/9.2.1/bits/char_traits.h **** 
 306:/usr/include/newlib/c++/9.2.1/bits/char_traits.h ****       static _GLIBCXX_CONSTEXPR bool
 307:/usr/include/newlib/c++/9.2.1/bits/char_traits.h ****       lt(const char_type& __c1, const char_type& __c2) _GLIBCXX_NOEXCEPT
 308:/usr/include/newlib/c++/9.2.1/bits/char_traits.h ****       {
 309:/usr/include/newlib/c++/9.2.1/bits/char_traits.h **** 	// LWG 467.
 310:/usr/include/newlib/c++/9.2.1/bits/char_traits.h **** 	return (static_cast<unsigned char>(__c1)
 311:/usr/include/newlib/c++/9.2.1/bits/char_traits.h **** 		< static_cast<unsigned char>(__c2));
 312:/usr/include/newlib/c++/9.2.1/bits/char_traits.h ****       }
 313:/usr/include/newlib/c++/9.2.1/bits/char_traits.h **** 
 314:/usr/include/newlib/c++/9.2.1/bits/char_traits.h ****       static _GLIBCXX17_CONSTEXPR int
 315:/usr/include/newlib/c++/9.2.1/bits/char_traits.h ****       compare(const char_type* __s1, const char_type* __s2, size_t __n)
 316:/usr/include/newlib/c++/9.2.1/bits/char_traits.h ****       {
 317:/usr/include/newlib/c++/9.2.1/bits/char_traits.h **** 	if (__n == 0)
 318:/usr/include/newlib/c++/9.2.1/bits/char_traits.h **** 	  return 0;
 319:/usr/include/newlib/c++/9.2.1/bits/char_traits.h **** #if __cplusplus >= 201703L
 320:/usr/include/newlib/c++/9.2.1/bits/char_traits.h **** 	if (__builtin_constant_p(__n)
 321:/usr/include/newlib/c++/9.2.1/bits/char_traits.h **** 	    && __constant_char_array_p(__s1, __n)
 322:/usr/include/newlib/c++/9.2.1/bits/char_traits.h **** 	    && __constant_char_array_p(__s2, __n))
 323:/usr/include/newlib/c++/9.2.1/bits/char_traits.h **** 	  return __gnu_cxx::char_traits<char_type>::compare(__s1, __s2, __n);
 324:/usr/include/newlib/c++/9.2.1/bits/char_traits.h **** #endif
 325:/usr/include/newlib/c++/9.2.1/bits/char_traits.h **** 	return __builtin_memcmp(__s1, __s2, __n);
 326:/usr/include/newlib/c++/9.2.1/bits/char_traits.h ****       }
 327:/usr/include/newlib/c++/9.2.1/bits/char_traits.h **** 
 328:/usr/include/newlib/c++/9.2.1/bits/char_traits.h ****       static _GLIBCXX17_CONSTEXPR size_t
 329:/usr/include/newlib/c++/9.2.1/bits/char_traits.h ****       length(const char_type* __s)
 330:/usr/include/newlib/c++/9.2.1/bits/char_traits.h ****       {
 331:/usr/include/newlib/c++/9.2.1/bits/char_traits.h **** #if __cplusplus >= 201703L
 332:/usr/include/newlib/c++/9.2.1/bits/char_traits.h **** 	if (__constant_string_p(__s))
 333:/usr/include/newlib/c++/9.2.1/bits/char_traits.h **** 	  return __gnu_cxx::char_traits<char_type>::length(__s);
 334:/usr/include/newlib/c++/9.2.1/bits/char_traits.h **** #endif
 335:/usr/include/newlib/c++/9.2.1/bits/char_traits.h **** 	return __builtin_strlen(__s);
 336:/usr/include/newlib/c++/9.2.1/bits/char_traits.h ****       }
 337:/usr/include/newlib/c++/9.2.1/bits/char_traits.h **** 
 338:/usr/include/newlib/c++/9.2.1/bits/char_traits.h ****       static _GLIBCXX17_CONSTEXPR const char_type*
 339:/usr/include/newlib/c++/9.2.1/bits/char_traits.h ****       find(const char_type* __s, size_t __n, const char_type& __a)
 340:/usr/include/newlib/c++/9.2.1/bits/char_traits.h ****       {
 341:/usr/include/newlib/c++/9.2.1/bits/char_traits.h **** 	if (__n == 0)
ARM GAS  /tmp/ccobg3TQ.s 			page 191


 342:/usr/include/newlib/c++/9.2.1/bits/char_traits.h **** 	  return 0;
 343:/usr/include/newlib/c++/9.2.1/bits/char_traits.h **** #if __cplusplus >= 201703L
 344:/usr/include/newlib/c++/9.2.1/bits/char_traits.h **** 	if (__builtin_constant_p(__n)
 345:/usr/include/newlib/c++/9.2.1/bits/char_traits.h **** 	    && __builtin_constant_p(__a)
 346:/usr/include/newlib/c++/9.2.1/bits/char_traits.h **** 	    && __constant_char_array_p(__s, __n))
 347:/usr/include/newlib/c++/9.2.1/bits/char_traits.h **** 	  return __gnu_cxx::char_traits<char_type>::find(__s, __n, __a);
 348:/usr/include/newlib/c++/9.2.1/bits/char_traits.h **** #endif
 349:/usr/include/newlib/c++/9.2.1/bits/char_traits.h **** 	return static_cast<const char_type*>(__builtin_memchr(__s, __a, __n));
 350:/usr/include/newlib/c++/9.2.1/bits/char_traits.h ****       }
 351:/usr/include/newlib/c++/9.2.1/bits/char_traits.h **** 
 352:/usr/include/newlib/c++/9.2.1/bits/char_traits.h ****       static char_type*
 353:/usr/include/newlib/c++/9.2.1/bits/char_traits.h ****       move(char_type* __s1, const char_type* __s2, size_t __n)
 354:/usr/include/newlib/c++/9.2.1/bits/char_traits.h ****       {
 355:/usr/include/newlib/c++/9.2.1/bits/char_traits.h **** 	if (__n == 0)
 356:/usr/include/newlib/c++/9.2.1/bits/char_traits.h **** 	  return __s1;
 357:/usr/include/newlib/c++/9.2.1/bits/char_traits.h **** 	return static_cast<char_type*>(__builtin_memmove(__s1, __s2, __n));
 358:/usr/include/newlib/c++/9.2.1/bits/char_traits.h ****       }
 359:/usr/include/newlib/c++/9.2.1/bits/char_traits.h **** 
 360:/usr/include/newlib/c++/9.2.1/bits/char_traits.h ****       static char_type*
 361:/usr/include/newlib/c++/9.2.1/bits/char_traits.h ****       copy(char_type* __s1, const char_type* __s2, size_t __n)
 362:/usr/include/newlib/c++/9.2.1/bits/char_traits.h ****       {
 363:/usr/include/newlib/c++/9.2.1/bits/char_traits.h **** 	if (__n == 0)
 364:/usr/include/newlib/c++/9.2.1/bits/char_traits.h **** 	  return __s1;
 365:/usr/include/newlib/c++/9.2.1/bits/char_traits.h **** 	return static_cast<char_type*>(__builtin_memcpy(__s1, __s2, __n));
 6148              		.loc 22 365 49 view .LVU1438
 6149 0020 884E     		ldr	r6, .L525+4
 6150              	.LBE2063:
 6151              	.LBE2062:
 6152              	.LBE2061:
 6153              	.LBE2060:
 6154              	.LBE2059:
 6155              	.LBE2089:
 6156              	.LBE2091:
 6157              	.LBE2093:
 6158              	.LBE2095:
 6159              	.LBE2097:
 6160              	.LBE2100:
 6161              	.LBE2044:
 6162              	.LBE2043:
 6163              	.LBB2103:
 6164              	.LBB2104:
 173:../../libdaisy/src/hid/disp/display.h ****         currentY_ = (y >= Height()) ? Height() - 1 : y;
 6165              		.loc 3 173 19 view .LVU1439
 6166 0022 49F2A817 		movw	r7, #37288
 6167 0026 DFF834B2 		ldr	fp, .L525+28
 6168              	.LBE2104:
 6169              	.LBE2103:
 6170              	.LBB2106:
 6171              	.LBB2102:
 6172              	.LBB2101:
 6173              	.LBB2098:
 6174              	.LBB2096:
 6175              	.LBB2094:
 6176              	.LBB2092:
 6177              	.LBB2090:
 215:/usr/include/newlib/c++/9.2.1/bits/basic_string.tcc **** 
 6178              		.loc 21 215 12 view .LVU1440
ARM GAS  /tmp/ccobg3TQ.s 			page 192


 6179 002a CDE90B35 		strd	r3, r5, [sp, #44]
 6180              		.loc 21 219 6 view .LVU1441
 6181 002e FFF7FEFF 		bl	_ZNSt7__cxx1112basic_stringIcSt11char_traitsIcESaIcEE9_M_createERjj
 6182              	.LVL453:
 6183              	.LBB2072:
 6184              	.LBB2073:
 211:/usr/include/newlib/c++/9.2.1/bits/basic_string.h **** 
 6185              		.loc 20 211 9 view .LVU1442
 6186 0032 0B9B     		ldr	r3, [sp, #44]
 6187              	.LBE2073:
 6188              	.LBE2072:
 6189              		.loc 21 219 6 view .LVU1443
 6190 0034 0546     		mov	r5, r0
 6191              	.LVL454:
 6192              	.LBB2075:
 6193              	.LBI2075:
 178:/usr/include/newlib/c++/9.2.1/bits/basic_string.h ****       { _M_dataplus._M_p = __p; }
 6194              		.loc 20 178 7 is_stmt 1 view .LVU1444
 6195              	.LBB2076:
 179:/usr/include/newlib/c++/9.2.1/bits/basic_string.h **** 
 6196              		.loc 20 179 9 is_stmt 0 view .LVU1445
 6197 0036 0C90     		str	r0, [sp, #48]
 6198              	.LVL455:
 179:/usr/include/newlib/c++/9.2.1/bits/basic_string.h **** 
 6199              		.loc 20 179 9 view .LVU1446
 6200              	.LBE2076:
 6201              	.LBE2075:
 6202              	.LBB2077:
 6203              	.LBI2072:
 210:/usr/include/newlib/c++/9.2.1/bits/basic_string.h ****       { _M_allocated_capacity = __capacity; }
 6204              		.loc 20 210 7 is_stmt 1 view .LVU1447
 210:/usr/include/newlib/c++/9.2.1/bits/basic_string.h ****       { _M_allocated_capacity = __capacity; }
 6205              		.loc 20 210 7 is_stmt 0 view .LVU1448
 6206              	.LBE2077:
 6207              	.LBB2078:
 6208              	.LBI2059:
 396:/usr/include/newlib/c++/9.2.1/bits/basic_string.h ****       _GLIBCXX_NOEXCEPT
 6209              		.loc 20 396 7 is_stmt 1 view .LVU1449
 6210              	.LBB2070:
 6211              	.LBI2060:
 346:/usr/include/newlib/c++/9.2.1/bits/basic_string.h ****       {
 6212              		.loc 20 346 7 view .LVU1450
 6213              	.LBB2068:
 6214              	.LBI2061:
 346:/usr/include/newlib/c++/9.2.1/bits/basic_string.h ****       {
 6215              		.loc 20 346 7 view .LVU1451
 6216              	.LBB2066:
 6217              	.LBI2062:
 361:/usr/include/newlib/c++/9.2.1/bits/char_traits.h ****       {
 6218              		.loc 22 361 7 view .LVU1452
 6219              	.LBB2064:
 363:/usr/include/newlib/c++/9.2.1/bits/char_traits.h **** 	  return __s1;
 6220              		.loc 22 363 2 view .LVU1453
 6221              		.loc 22 365 2 view .LVU1454
 6222              	.LBE2064:
 6223              	.LBE2066:
 6224              	.LBE2068:
ARM GAS  /tmp/ccobg3TQ.s 			page 193


 6225              	.LBE2070:
 6226              	.LBE2078:
 6227              	.LBB2079:
 6228              	.LBB2074:
 211:/usr/include/newlib/c++/9.2.1/bits/basic_string.h **** 
 6229              		.loc 20 211 9 is_stmt 0 view .LVU1455
 6230 0038 0E93     		str	r3, [sp, #56]
 6231              	.LBE2074:
 6232              	.LBE2079:
 6233              	.LBB2080:
 6234              	.LBB2071:
 6235              	.LBB2069:
 6236              	.LBB2067:
 6237              	.LBB2065:
 6238              		.loc 22 365 49 view .LVU1456
 6239 003a 0FCE     		ldmia	r6!, {r0, r1, r2, r3}
 6240              	.LVL456:
 6241              		.loc 22 365 49 view .LVU1457
 6242 003c 2860     		str	r0, [r5]	@ unaligned
 6243 003e 96F804C0 		ldrb	ip, [r6, #4]	@ zero_extendqisi2
 6244 0042 3068     		ldr	r0, [r6]
 6245 0044 6960     		str	r1, [r5, #4]	@ unaligned
 6246 0046 AA60     		str	r2, [r5, #8]	@ unaligned
 6247 0048 EB60     		str	r3, [r5, #12]	@ unaligned
 6248 004a 2861     		str	r0, [r5, #16]	@ unaligned
 6249 004c 85F814C0 		strb	ip, [r5, #20]
 6250              	.LVL457:
 6251              		.loc 22 365 49 view .LVU1458
 6252              	.LBE2065:
 6253              	.LBE2067:
 6254              	.LBE2069:
 6255              	.LBE2071:
 6256              	.LBE2080:
 6257              	.LBB2081:
 6258              	.LBB2082:
 6259              	.LBB2083:
 6260              	.LBB2084:
 300:/usr/include/newlib/c++/9.2.1/bits/char_traits.h **** 
 6261              		.loc 22 300 14 view .LVU1459
 6262 0050 DDE90B32 		ldrd	r3, r2, [sp, #44]
 6263              	.LBE2084:
 6264              	.LBE2083:
 6265              	.LBB2086:
 6266              	.LBB2087:
 183:/usr/include/newlib/c++/9.2.1/bits/basic_string.h **** 
 6267              		.loc 20 183 9 view .LVU1460
 6268 0054 0D93     		str	r3, [sp, #52]
 6269              	.LVL458:
 183:/usr/include/newlib/c++/9.2.1/bits/basic_string.h **** 
 6270              		.loc 20 183 9 view .LVU1461
 6271              	.LBE2087:
 6272              	.LBE2086:
 6273              	.LBB2088:
 6274              	.LBI2083:
 299:/usr/include/newlib/c++/9.2.1/bits/char_traits.h ****       { __c1 = __c2; }
 6275              		.loc 22 299 7 is_stmt 1 view .LVU1462
 6276              	.LBB2085:
ARM GAS  /tmp/ccobg3TQ.s 			page 194


 300:/usr/include/newlib/c++/9.2.1/bits/char_traits.h **** 
 6277              		.loc 22 300 9 view .LVU1463
 300:/usr/include/newlib/c++/9.2.1/bits/char_traits.h **** 
 6278              		.loc 22 300 14 is_stmt 0 view .LVU1464
 6279 0056 D454     		strb	r4, [r2, r3]
 6280              	.LVL459:
 300:/usr/include/newlib/c++/9.2.1/bits/char_traits.h **** 
 6281              		.loc 22 300 14 view .LVU1465
 6282              	.LBE2085:
 6283              	.LBE2088:
 6284              	.LBE2082:
 6285              	.LBE2081:
 6286              	.LBE2090:
 6287              	.LBE2092:
 6288              	.LBE2094:
 6289              	.LBE2096:
 6290              	.LBE2098:
 6291              	.LBE2101:
 6292              	.LBE2102:
 6293              	.LBE2106:
 6294              	.LBB2107:
 6295              	.LBI2107:
 142:/usr/include/newlib/c++/9.2.1/bits/allocator.h ****       : __allocator_base<_Tp>(__a) { }
 143:/usr/include/newlib/c++/9.2.1/bits/allocator.h **** 
 144:/usr/include/newlib/c++/9.2.1/bits/allocator.h **** #if __cplusplus >= 201103L
 145:/usr/include/newlib/c++/9.2.1/bits/allocator.h ****       // Avoid implicit deprecation.
 146:/usr/include/newlib/c++/9.2.1/bits/allocator.h ****       allocator& operator=(const allocator&) = default;
 147:/usr/include/newlib/c++/9.2.1/bits/allocator.h **** #endif
 148:/usr/include/newlib/c++/9.2.1/bits/allocator.h **** 
 149:/usr/include/newlib/c++/9.2.1/bits/allocator.h ****       template<typename _Tp1>
 150:/usr/include/newlib/c++/9.2.1/bits/allocator.h **** 	_GLIBCXX20_CONSTEXPR
 151:/usr/include/newlib/c++/9.2.1/bits/allocator.h **** 	allocator(const allocator<_Tp1>&) _GLIBCXX_NOTHROW { }
 152:/usr/include/newlib/c++/9.2.1/bits/allocator.h **** 
 153:/usr/include/newlib/c++/9.2.1/bits/allocator.h ****       ~allocator() _GLIBCXX_NOTHROW { }
 6296              		.loc 18 153 7 is_stmt 1 view .LVU1466
 6297              	.LBB2108:
 6298              	.LBI2108:
  84:/usr/include/newlib/c++/9.2.1/ext/new_allocator.h **** 
  85:/usr/include/newlib/c++/9.2.1/ext/new_allocator.h ****       template<typename _Tp1>
  86:/usr/include/newlib/c++/9.2.1/ext/new_allocator.h **** 	_GLIBCXX20_CONSTEXPR
  87:/usr/include/newlib/c++/9.2.1/ext/new_allocator.h **** 	new_allocator(const new_allocator<_Tp1>&) _GLIBCXX_USE_NOEXCEPT { }
  88:/usr/include/newlib/c++/9.2.1/ext/new_allocator.h **** 
  89:/usr/include/newlib/c++/9.2.1/ext/new_allocator.h ****       ~new_allocator() _GLIBCXX_USE_NOEXCEPT { }
 6299              		.loc 19 89 7 view .LVU1467
 6300              		.loc 19 89 7 is_stmt 0 view .LVU1468
 6301              	.LBE2108:
 6302              	.LBE2107:
  79:SampleAndHold.cpp ****     char*       cstr = &str[0];
 6303              		.loc 13 79 5 is_stmt 1 view .LVU1469
 6304              	.LBB2109:
 6305              	.LBI2109:
 526:/usr/include/newlib/c++/9.2.1/bits/basic_string.h ****       : _M_dataplus(_M_local_data(), __a)
 527:/usr/include/newlib/c++/9.2.1/bits/basic_string.h ****       { _M_construct(__s, __s ? __s + traits_type::length(__s) : __s+npos); }
 528:/usr/include/newlib/c++/9.2.1/bits/basic_string.h **** 
 529:/usr/include/newlib/c++/9.2.1/bits/basic_string.h ****       /**
 530:/usr/include/newlib/c++/9.2.1/bits/basic_string.h ****        *  @brief  Construct string as multiple characters.
 531:/usr/include/newlib/c++/9.2.1/bits/basic_string.h ****        *  @param  __n  Number of characters.
ARM GAS  /tmp/ccobg3TQ.s 			page 195


 532:/usr/include/newlib/c++/9.2.1/bits/basic_string.h ****        *  @param  __c  Character to use.
 533:/usr/include/newlib/c++/9.2.1/bits/basic_string.h ****        *  @param  __a  Allocator to use (default is default allocator).
 534:/usr/include/newlib/c++/9.2.1/bits/basic_string.h ****        */
 535:/usr/include/newlib/c++/9.2.1/bits/basic_string.h **** #if __cpp_deduction_guides && ! defined _GLIBCXX_DEFINING_STRING_INSTANTIATIONS
 536:/usr/include/newlib/c++/9.2.1/bits/basic_string.h ****       // _GLIBCXX_RESOLVE_LIB_DEFECTS
 537:/usr/include/newlib/c++/9.2.1/bits/basic_string.h ****       // 3076. basic_string CTAD ambiguity
 538:/usr/include/newlib/c++/9.2.1/bits/basic_string.h ****       template<typename = _RequireAllocator<_Alloc>>
 539:/usr/include/newlib/c++/9.2.1/bits/basic_string.h **** #endif
 540:/usr/include/newlib/c++/9.2.1/bits/basic_string.h ****       basic_string(size_type __n, _CharT __c, const _Alloc& __a = _Alloc())
 541:/usr/include/newlib/c++/9.2.1/bits/basic_string.h ****       : _M_dataplus(_M_local_data(), __a)
 542:/usr/include/newlib/c++/9.2.1/bits/basic_string.h ****       { _M_construct(__n, __c); }
 543:/usr/include/newlib/c++/9.2.1/bits/basic_string.h **** 
 544:/usr/include/newlib/c++/9.2.1/bits/basic_string.h **** #if __cplusplus >= 201103L
 545:/usr/include/newlib/c++/9.2.1/bits/basic_string.h ****       /**
 546:/usr/include/newlib/c++/9.2.1/bits/basic_string.h ****        *  @brief  Move construct string.
 547:/usr/include/newlib/c++/9.2.1/bits/basic_string.h ****        *  @param  __str  Source string.
 548:/usr/include/newlib/c++/9.2.1/bits/basic_string.h ****        *
 549:/usr/include/newlib/c++/9.2.1/bits/basic_string.h ****        *  The newly-created string contains the exact contents of @a __str.
 550:/usr/include/newlib/c++/9.2.1/bits/basic_string.h ****        *  @a __str is a valid, but unspecified string.
 551:/usr/include/newlib/c++/9.2.1/bits/basic_string.h ****        **/
 552:/usr/include/newlib/c++/9.2.1/bits/basic_string.h ****       basic_string(basic_string&& __str) noexcept
 553:/usr/include/newlib/c++/9.2.1/bits/basic_string.h ****       : _M_dataplus(_M_local_data(), std::move(__str._M_get_allocator()))
 554:/usr/include/newlib/c++/9.2.1/bits/basic_string.h ****       {
 555:/usr/include/newlib/c++/9.2.1/bits/basic_string.h **** 	if (__str._M_is_local())
 556:/usr/include/newlib/c++/9.2.1/bits/basic_string.h **** 	  {
 557:/usr/include/newlib/c++/9.2.1/bits/basic_string.h **** 	    traits_type::copy(_M_local_buf, __str._M_local_buf,
 558:/usr/include/newlib/c++/9.2.1/bits/basic_string.h **** 			      _S_local_capacity + 1);
 559:/usr/include/newlib/c++/9.2.1/bits/basic_string.h **** 	  }
 560:/usr/include/newlib/c++/9.2.1/bits/basic_string.h **** 	else
 561:/usr/include/newlib/c++/9.2.1/bits/basic_string.h **** 	  {
 562:/usr/include/newlib/c++/9.2.1/bits/basic_string.h **** 	    _M_data(__str._M_data());
 563:/usr/include/newlib/c++/9.2.1/bits/basic_string.h **** 	    _M_capacity(__str._M_allocated_capacity);
 564:/usr/include/newlib/c++/9.2.1/bits/basic_string.h **** 	  }
 565:/usr/include/newlib/c++/9.2.1/bits/basic_string.h **** 
 566:/usr/include/newlib/c++/9.2.1/bits/basic_string.h **** 	// Must use _M_length() here not _M_set_length() because
 567:/usr/include/newlib/c++/9.2.1/bits/basic_string.h **** 	// basic_stringbuf relies on writing into unallocated capacity so
 568:/usr/include/newlib/c++/9.2.1/bits/basic_string.h **** 	// we mess up the contents if we put a '\0' in the string.
 569:/usr/include/newlib/c++/9.2.1/bits/basic_string.h **** 	_M_length(__str.length());
 570:/usr/include/newlib/c++/9.2.1/bits/basic_string.h **** 	__str._M_data(__str._M_local_data());
 571:/usr/include/newlib/c++/9.2.1/bits/basic_string.h **** 	__str._M_set_length(0);
 572:/usr/include/newlib/c++/9.2.1/bits/basic_string.h ****       }
 573:/usr/include/newlib/c++/9.2.1/bits/basic_string.h **** 
 574:/usr/include/newlib/c++/9.2.1/bits/basic_string.h ****       /**
 575:/usr/include/newlib/c++/9.2.1/bits/basic_string.h ****        *  @brief  Construct string from an initializer %list.
 576:/usr/include/newlib/c++/9.2.1/bits/basic_string.h ****        *  @param  __l  std::initializer_list of characters.
 577:/usr/include/newlib/c++/9.2.1/bits/basic_string.h ****        *  @param  __a  Allocator to use (default is default allocator).
 578:/usr/include/newlib/c++/9.2.1/bits/basic_string.h ****        */
 579:/usr/include/newlib/c++/9.2.1/bits/basic_string.h ****       basic_string(initializer_list<_CharT> __l, const _Alloc& __a = _Alloc())
 580:/usr/include/newlib/c++/9.2.1/bits/basic_string.h ****       : _M_dataplus(_M_local_data(), __a)
 581:/usr/include/newlib/c++/9.2.1/bits/basic_string.h ****       { _M_construct(__l.begin(), __l.end()); }
 582:/usr/include/newlib/c++/9.2.1/bits/basic_string.h **** 
 583:/usr/include/newlib/c++/9.2.1/bits/basic_string.h ****       basic_string(const basic_string& __str, const _Alloc& __a)
 584:/usr/include/newlib/c++/9.2.1/bits/basic_string.h ****       : _M_dataplus(_M_local_data(), __a)
 585:/usr/include/newlib/c++/9.2.1/bits/basic_string.h ****       { _M_construct(__str.begin(), __str.end()); }
 586:/usr/include/newlib/c++/9.2.1/bits/basic_string.h **** 
 587:/usr/include/newlib/c++/9.2.1/bits/basic_string.h ****       basic_string(basic_string&& __str, const _Alloc& __a)
 588:/usr/include/newlib/c++/9.2.1/bits/basic_string.h ****       noexcept(_Alloc_traits::_S_always_equal())
ARM GAS  /tmp/ccobg3TQ.s 			page 196


 589:/usr/include/newlib/c++/9.2.1/bits/basic_string.h ****       : _M_dataplus(_M_local_data(), __a)
 590:/usr/include/newlib/c++/9.2.1/bits/basic_string.h ****       {
 591:/usr/include/newlib/c++/9.2.1/bits/basic_string.h **** 	if (__str._M_is_local())
 592:/usr/include/newlib/c++/9.2.1/bits/basic_string.h **** 	  {
 593:/usr/include/newlib/c++/9.2.1/bits/basic_string.h **** 	    traits_type::copy(_M_local_buf, __str._M_local_buf,
 594:/usr/include/newlib/c++/9.2.1/bits/basic_string.h **** 			      _S_local_capacity + 1);
 595:/usr/include/newlib/c++/9.2.1/bits/basic_string.h **** 	    _M_length(__str.length());
 596:/usr/include/newlib/c++/9.2.1/bits/basic_string.h **** 	    __str._M_set_length(0);
 597:/usr/include/newlib/c++/9.2.1/bits/basic_string.h **** 	  }
 598:/usr/include/newlib/c++/9.2.1/bits/basic_string.h **** 	else if (_Alloc_traits::_S_always_equal()
 599:/usr/include/newlib/c++/9.2.1/bits/basic_string.h **** 	    || __str.get_allocator() == __a)
 600:/usr/include/newlib/c++/9.2.1/bits/basic_string.h **** 	  {
 601:/usr/include/newlib/c++/9.2.1/bits/basic_string.h **** 	    _M_data(__str._M_data());
 602:/usr/include/newlib/c++/9.2.1/bits/basic_string.h **** 	    _M_length(__str.length());
 603:/usr/include/newlib/c++/9.2.1/bits/basic_string.h **** 	    _M_capacity(__str._M_allocated_capacity);
 604:/usr/include/newlib/c++/9.2.1/bits/basic_string.h **** 	    __str._M_data(__str._M_local_buf);
 605:/usr/include/newlib/c++/9.2.1/bits/basic_string.h **** 	    __str._M_set_length(0);
 606:/usr/include/newlib/c++/9.2.1/bits/basic_string.h **** 	  }
 607:/usr/include/newlib/c++/9.2.1/bits/basic_string.h **** 	else
 608:/usr/include/newlib/c++/9.2.1/bits/basic_string.h **** 	  _M_construct(__str.begin(), __str.end());
 609:/usr/include/newlib/c++/9.2.1/bits/basic_string.h ****       }
 610:/usr/include/newlib/c++/9.2.1/bits/basic_string.h **** 
 611:/usr/include/newlib/c++/9.2.1/bits/basic_string.h **** #endif // C++11
 612:/usr/include/newlib/c++/9.2.1/bits/basic_string.h **** 
 613:/usr/include/newlib/c++/9.2.1/bits/basic_string.h ****       /**
 614:/usr/include/newlib/c++/9.2.1/bits/basic_string.h ****        *  @brief  Construct string as copy of a range.
 615:/usr/include/newlib/c++/9.2.1/bits/basic_string.h ****        *  @param  __beg  Start of range.
 616:/usr/include/newlib/c++/9.2.1/bits/basic_string.h ****        *  @param  __end  End of range.
 617:/usr/include/newlib/c++/9.2.1/bits/basic_string.h ****        *  @param  __a  Allocator to use (default is default allocator).
 618:/usr/include/newlib/c++/9.2.1/bits/basic_string.h ****        */
 619:/usr/include/newlib/c++/9.2.1/bits/basic_string.h **** #if __cplusplus >= 201103L
 620:/usr/include/newlib/c++/9.2.1/bits/basic_string.h ****       template<typename _InputIterator,
 621:/usr/include/newlib/c++/9.2.1/bits/basic_string.h **** 	       typename = std::_RequireInputIter<_InputIterator>>
 622:/usr/include/newlib/c++/9.2.1/bits/basic_string.h **** #else
 623:/usr/include/newlib/c++/9.2.1/bits/basic_string.h ****       template<typename _InputIterator>
 624:/usr/include/newlib/c++/9.2.1/bits/basic_string.h **** #endif
 625:/usr/include/newlib/c++/9.2.1/bits/basic_string.h ****         basic_string(_InputIterator __beg, _InputIterator __end,
 626:/usr/include/newlib/c++/9.2.1/bits/basic_string.h **** 		     const _Alloc& __a = _Alloc())
 627:/usr/include/newlib/c++/9.2.1/bits/basic_string.h **** 	: _M_dataplus(_M_local_data(), __a)
 628:/usr/include/newlib/c++/9.2.1/bits/basic_string.h **** 	{ _M_construct(__beg, __end); }
 629:/usr/include/newlib/c++/9.2.1/bits/basic_string.h **** 
 630:/usr/include/newlib/c++/9.2.1/bits/basic_string.h **** #if __cplusplus >= 201703L
 631:/usr/include/newlib/c++/9.2.1/bits/basic_string.h ****       /**
 632:/usr/include/newlib/c++/9.2.1/bits/basic_string.h ****        *  @brief  Construct string from a substring of a string_view.
 633:/usr/include/newlib/c++/9.2.1/bits/basic_string.h ****        *  @param  __t   Source object convertible to string view.
 634:/usr/include/newlib/c++/9.2.1/bits/basic_string.h ****        *  @param  __pos The index of the first character to copy from __t.
 635:/usr/include/newlib/c++/9.2.1/bits/basic_string.h ****        *  @param  __n   The number of characters to copy from __t.
 636:/usr/include/newlib/c++/9.2.1/bits/basic_string.h ****        *  @param  __a   Allocator to use.
 637:/usr/include/newlib/c++/9.2.1/bits/basic_string.h ****        */
 638:/usr/include/newlib/c++/9.2.1/bits/basic_string.h ****       template<typename _Tp, typename = _If_sv<_Tp, void>>
 639:/usr/include/newlib/c++/9.2.1/bits/basic_string.h **** 	basic_string(const _Tp& __t, size_type __pos, size_type __n,
 640:/usr/include/newlib/c++/9.2.1/bits/basic_string.h **** 		     const _Alloc& __a = _Alloc())
 641:/usr/include/newlib/c++/9.2.1/bits/basic_string.h **** 	: basic_string(_S_to_string_view(__t).substr(__pos, __n), __a) { }
 642:/usr/include/newlib/c++/9.2.1/bits/basic_string.h **** 
 643:/usr/include/newlib/c++/9.2.1/bits/basic_string.h ****       /**
 644:/usr/include/newlib/c++/9.2.1/bits/basic_string.h ****        *  @brief  Construct string from a string_view.
 645:/usr/include/newlib/c++/9.2.1/bits/basic_string.h ****        *  @param  __t  Source object convertible to string view.
ARM GAS  /tmp/ccobg3TQ.s 			page 197


 646:/usr/include/newlib/c++/9.2.1/bits/basic_string.h ****        *  @param  __a  Allocator to use (default is default allocator).
 647:/usr/include/newlib/c++/9.2.1/bits/basic_string.h ****        */
 648:/usr/include/newlib/c++/9.2.1/bits/basic_string.h ****       template<typename _Tp, typename = _If_sv<_Tp, void>>
 649:/usr/include/newlib/c++/9.2.1/bits/basic_string.h **** 	explicit
 650:/usr/include/newlib/c++/9.2.1/bits/basic_string.h **** 	basic_string(const _Tp& __t, const _Alloc& __a = _Alloc())
 651:/usr/include/newlib/c++/9.2.1/bits/basic_string.h **** 	: basic_string(__sv_wrapper(_S_to_string_view(__t)), __a) { }
 652:/usr/include/newlib/c++/9.2.1/bits/basic_string.h **** #endif // C++17
 653:/usr/include/newlib/c++/9.2.1/bits/basic_string.h **** 
 654:/usr/include/newlib/c++/9.2.1/bits/basic_string.h ****       /**
 655:/usr/include/newlib/c++/9.2.1/bits/basic_string.h ****        *  @brief  Destroy the string instance.
 656:/usr/include/newlib/c++/9.2.1/bits/basic_string.h ****        */
 657:/usr/include/newlib/c++/9.2.1/bits/basic_string.h ****       ~basic_string()
 658:/usr/include/newlib/c++/9.2.1/bits/basic_string.h ****       { _M_dispose(); }
 659:/usr/include/newlib/c++/9.2.1/bits/basic_string.h **** 
 660:/usr/include/newlib/c++/9.2.1/bits/basic_string.h ****       /**
 661:/usr/include/newlib/c++/9.2.1/bits/basic_string.h ****        *  @brief  Assign the value of @a str to this string.
 662:/usr/include/newlib/c++/9.2.1/bits/basic_string.h ****        *  @param  __str  Source string.
 663:/usr/include/newlib/c++/9.2.1/bits/basic_string.h ****        */
 664:/usr/include/newlib/c++/9.2.1/bits/basic_string.h ****       basic_string&
 665:/usr/include/newlib/c++/9.2.1/bits/basic_string.h ****       operator=(const basic_string& __str)
 666:/usr/include/newlib/c++/9.2.1/bits/basic_string.h ****       {
 667:/usr/include/newlib/c++/9.2.1/bits/basic_string.h **** #if __cplusplus >= 201103L
 668:/usr/include/newlib/c++/9.2.1/bits/basic_string.h **** 	if (_Alloc_traits::_S_propagate_on_copy_assign())
 669:/usr/include/newlib/c++/9.2.1/bits/basic_string.h **** 	  {
 670:/usr/include/newlib/c++/9.2.1/bits/basic_string.h **** 	    if (!_Alloc_traits::_S_always_equal() && !_M_is_local()
 671:/usr/include/newlib/c++/9.2.1/bits/basic_string.h **** 		&& _M_get_allocator() != __str._M_get_allocator())
 672:/usr/include/newlib/c++/9.2.1/bits/basic_string.h **** 	      {
 673:/usr/include/newlib/c++/9.2.1/bits/basic_string.h **** 		// Propagating allocator cannot free existing storage so must
 674:/usr/include/newlib/c++/9.2.1/bits/basic_string.h **** 		// deallocate it before replacing current allocator.
 675:/usr/include/newlib/c++/9.2.1/bits/basic_string.h **** 		if (__str.size() <= _S_local_capacity)
 676:/usr/include/newlib/c++/9.2.1/bits/basic_string.h **** 		  {
 677:/usr/include/newlib/c++/9.2.1/bits/basic_string.h **** 		    _M_destroy(_M_allocated_capacity);
 678:/usr/include/newlib/c++/9.2.1/bits/basic_string.h **** 		    _M_data(_M_local_data());
 679:/usr/include/newlib/c++/9.2.1/bits/basic_string.h **** 		    _M_set_length(0);
 680:/usr/include/newlib/c++/9.2.1/bits/basic_string.h **** 		  }
 681:/usr/include/newlib/c++/9.2.1/bits/basic_string.h **** 		else
 682:/usr/include/newlib/c++/9.2.1/bits/basic_string.h **** 		  {
 683:/usr/include/newlib/c++/9.2.1/bits/basic_string.h **** 		    const auto __len = __str.size();
 684:/usr/include/newlib/c++/9.2.1/bits/basic_string.h **** 		    auto __alloc = __str._M_get_allocator();
 685:/usr/include/newlib/c++/9.2.1/bits/basic_string.h **** 		    // If this allocation throws there are no effects:
 686:/usr/include/newlib/c++/9.2.1/bits/basic_string.h **** 		    auto __ptr = _Alloc_traits::allocate(__alloc, __len + 1);
 687:/usr/include/newlib/c++/9.2.1/bits/basic_string.h **** 		    _M_destroy(_M_allocated_capacity);
 688:/usr/include/newlib/c++/9.2.1/bits/basic_string.h **** 		    _M_data(__ptr);
 689:/usr/include/newlib/c++/9.2.1/bits/basic_string.h **** 		    _M_capacity(__len);
 690:/usr/include/newlib/c++/9.2.1/bits/basic_string.h **** 		    _M_set_length(__len);
 691:/usr/include/newlib/c++/9.2.1/bits/basic_string.h **** 		  }
 692:/usr/include/newlib/c++/9.2.1/bits/basic_string.h **** 	      }
 693:/usr/include/newlib/c++/9.2.1/bits/basic_string.h **** 	    std::__alloc_on_copy(_M_get_allocator(), __str._M_get_allocator());
 694:/usr/include/newlib/c++/9.2.1/bits/basic_string.h **** 	  }
 695:/usr/include/newlib/c++/9.2.1/bits/basic_string.h **** #endif
 696:/usr/include/newlib/c++/9.2.1/bits/basic_string.h **** 	return this->assign(__str);
 697:/usr/include/newlib/c++/9.2.1/bits/basic_string.h ****       }
 698:/usr/include/newlib/c++/9.2.1/bits/basic_string.h **** 
 699:/usr/include/newlib/c++/9.2.1/bits/basic_string.h ****       /**
 700:/usr/include/newlib/c++/9.2.1/bits/basic_string.h ****        *  @brief  Copy contents of @a s into this string.
 701:/usr/include/newlib/c++/9.2.1/bits/basic_string.h ****        *  @param  __s  Source null-terminated string.
 702:/usr/include/newlib/c++/9.2.1/bits/basic_string.h ****        */
ARM GAS  /tmp/ccobg3TQ.s 			page 198


 703:/usr/include/newlib/c++/9.2.1/bits/basic_string.h ****       basic_string&
 704:/usr/include/newlib/c++/9.2.1/bits/basic_string.h ****       operator=(const _CharT* __s)
 705:/usr/include/newlib/c++/9.2.1/bits/basic_string.h ****       { return this->assign(__s); }
 706:/usr/include/newlib/c++/9.2.1/bits/basic_string.h **** 
 707:/usr/include/newlib/c++/9.2.1/bits/basic_string.h ****       /**
 708:/usr/include/newlib/c++/9.2.1/bits/basic_string.h ****        *  @brief  Set value to string of length 1.
 709:/usr/include/newlib/c++/9.2.1/bits/basic_string.h ****        *  @param  __c  Source character.
 710:/usr/include/newlib/c++/9.2.1/bits/basic_string.h ****        *
 711:/usr/include/newlib/c++/9.2.1/bits/basic_string.h ****        *  Assigning to a character makes this string length 1 and
 712:/usr/include/newlib/c++/9.2.1/bits/basic_string.h ****        *  (*this)[0] == @a c.
 713:/usr/include/newlib/c++/9.2.1/bits/basic_string.h ****        */
 714:/usr/include/newlib/c++/9.2.1/bits/basic_string.h ****       basic_string&
 715:/usr/include/newlib/c++/9.2.1/bits/basic_string.h ****       operator=(_CharT __c)
 716:/usr/include/newlib/c++/9.2.1/bits/basic_string.h ****       {
 717:/usr/include/newlib/c++/9.2.1/bits/basic_string.h **** 	this->assign(1, __c);
 718:/usr/include/newlib/c++/9.2.1/bits/basic_string.h **** 	return *this;
 719:/usr/include/newlib/c++/9.2.1/bits/basic_string.h ****       }
 720:/usr/include/newlib/c++/9.2.1/bits/basic_string.h **** 
 721:/usr/include/newlib/c++/9.2.1/bits/basic_string.h **** #if __cplusplus >= 201103L
 722:/usr/include/newlib/c++/9.2.1/bits/basic_string.h ****       /**
 723:/usr/include/newlib/c++/9.2.1/bits/basic_string.h ****        *  @brief  Move assign the value of @a str to this string.
 724:/usr/include/newlib/c++/9.2.1/bits/basic_string.h ****        *  @param  __str  Source string.
 725:/usr/include/newlib/c++/9.2.1/bits/basic_string.h ****        *
 726:/usr/include/newlib/c++/9.2.1/bits/basic_string.h ****        *  The contents of @a str are moved into this string (without copying).
 727:/usr/include/newlib/c++/9.2.1/bits/basic_string.h ****        *  @a str is a valid, but unspecified string.
 728:/usr/include/newlib/c++/9.2.1/bits/basic_string.h ****        **/
 729:/usr/include/newlib/c++/9.2.1/bits/basic_string.h ****       // _GLIBCXX_RESOLVE_LIB_DEFECTS
 730:/usr/include/newlib/c++/9.2.1/bits/basic_string.h ****       // 2063. Contradictory requirements for string move assignment
 731:/usr/include/newlib/c++/9.2.1/bits/basic_string.h ****       basic_string&
 732:/usr/include/newlib/c++/9.2.1/bits/basic_string.h ****       operator=(basic_string&& __str)
 733:/usr/include/newlib/c++/9.2.1/bits/basic_string.h ****       noexcept(_Alloc_traits::_S_nothrow_move())
 734:/usr/include/newlib/c++/9.2.1/bits/basic_string.h ****       {
 735:/usr/include/newlib/c++/9.2.1/bits/basic_string.h **** 	if (!_M_is_local() && _Alloc_traits::_S_propagate_on_move_assign()
 736:/usr/include/newlib/c++/9.2.1/bits/basic_string.h **** 	    && !_Alloc_traits::_S_always_equal()
 737:/usr/include/newlib/c++/9.2.1/bits/basic_string.h **** 	    && _M_get_allocator() != __str._M_get_allocator())
 738:/usr/include/newlib/c++/9.2.1/bits/basic_string.h **** 	  {
 739:/usr/include/newlib/c++/9.2.1/bits/basic_string.h **** 	    // Destroy existing storage before replacing allocator.
 740:/usr/include/newlib/c++/9.2.1/bits/basic_string.h **** 	    _M_destroy(_M_allocated_capacity);
 741:/usr/include/newlib/c++/9.2.1/bits/basic_string.h **** 	    _M_data(_M_local_data());
 742:/usr/include/newlib/c++/9.2.1/bits/basic_string.h **** 	    _M_set_length(0);
 743:/usr/include/newlib/c++/9.2.1/bits/basic_string.h **** 	  }
 744:/usr/include/newlib/c++/9.2.1/bits/basic_string.h **** 	// Replace allocator if POCMA is true.
 745:/usr/include/newlib/c++/9.2.1/bits/basic_string.h **** 	std::__alloc_on_move(_M_get_allocator(), __str._M_get_allocator());
 746:/usr/include/newlib/c++/9.2.1/bits/basic_string.h **** 
 747:/usr/include/newlib/c++/9.2.1/bits/basic_string.h **** 	if (__str._M_is_local())
 748:/usr/include/newlib/c++/9.2.1/bits/basic_string.h **** 	  {
 749:/usr/include/newlib/c++/9.2.1/bits/basic_string.h **** 	    // We've always got room for a short string, just copy it.
 750:/usr/include/newlib/c++/9.2.1/bits/basic_string.h **** 	    if (__str.size())
 751:/usr/include/newlib/c++/9.2.1/bits/basic_string.h **** 	      this->_S_copy(_M_data(), __str._M_data(), __str.size());
 752:/usr/include/newlib/c++/9.2.1/bits/basic_string.h **** 	    _M_set_length(__str.size());
 753:/usr/include/newlib/c++/9.2.1/bits/basic_string.h **** 	  }
 754:/usr/include/newlib/c++/9.2.1/bits/basic_string.h **** 	else if (_Alloc_traits::_S_propagate_on_move_assign()
 755:/usr/include/newlib/c++/9.2.1/bits/basic_string.h **** 	    || _Alloc_traits::_S_always_equal()
 756:/usr/include/newlib/c++/9.2.1/bits/basic_string.h **** 	    || _M_get_allocator() == __str._M_get_allocator())
 757:/usr/include/newlib/c++/9.2.1/bits/basic_string.h **** 	  {
 758:/usr/include/newlib/c++/9.2.1/bits/basic_string.h **** 	    // Just move the allocated pointer, our allocator can free it.
 759:/usr/include/newlib/c++/9.2.1/bits/basic_string.h **** 	    pointer __data = nullptr;
ARM GAS  /tmp/ccobg3TQ.s 			page 199


 760:/usr/include/newlib/c++/9.2.1/bits/basic_string.h **** 	    size_type __capacity;
 761:/usr/include/newlib/c++/9.2.1/bits/basic_string.h **** 	    if (!_M_is_local())
 762:/usr/include/newlib/c++/9.2.1/bits/basic_string.h **** 	      {
 763:/usr/include/newlib/c++/9.2.1/bits/basic_string.h **** 		if (_Alloc_traits::_S_always_equal())
 764:/usr/include/newlib/c++/9.2.1/bits/basic_string.h **** 		  {
 765:/usr/include/newlib/c++/9.2.1/bits/basic_string.h **** 		    // __str can reuse our existing storage.
 766:/usr/include/newlib/c++/9.2.1/bits/basic_string.h **** 		    __data = _M_data();
 767:/usr/include/newlib/c++/9.2.1/bits/basic_string.h **** 		    __capacity = _M_allocated_capacity;
 768:/usr/include/newlib/c++/9.2.1/bits/basic_string.h **** 		  }
 769:/usr/include/newlib/c++/9.2.1/bits/basic_string.h **** 		else // __str can't use it, so free it.
 770:/usr/include/newlib/c++/9.2.1/bits/basic_string.h **** 		  _M_destroy(_M_allocated_capacity);
 771:/usr/include/newlib/c++/9.2.1/bits/basic_string.h **** 	      }
 772:/usr/include/newlib/c++/9.2.1/bits/basic_string.h **** 
 773:/usr/include/newlib/c++/9.2.1/bits/basic_string.h **** 	    _M_data(__str._M_data());
 774:/usr/include/newlib/c++/9.2.1/bits/basic_string.h **** 	    _M_length(__str.length());
 775:/usr/include/newlib/c++/9.2.1/bits/basic_string.h **** 	    _M_capacity(__str._M_allocated_capacity);
 776:/usr/include/newlib/c++/9.2.1/bits/basic_string.h **** 	    if (__data)
 777:/usr/include/newlib/c++/9.2.1/bits/basic_string.h **** 	      {
 778:/usr/include/newlib/c++/9.2.1/bits/basic_string.h **** 		__str._M_data(__data);
 779:/usr/include/newlib/c++/9.2.1/bits/basic_string.h **** 		__str._M_capacity(__capacity);
 780:/usr/include/newlib/c++/9.2.1/bits/basic_string.h **** 	      }
 781:/usr/include/newlib/c++/9.2.1/bits/basic_string.h **** 	    else
 782:/usr/include/newlib/c++/9.2.1/bits/basic_string.h **** 	      __str._M_data(__str._M_local_buf);
 783:/usr/include/newlib/c++/9.2.1/bits/basic_string.h **** 	  }
 784:/usr/include/newlib/c++/9.2.1/bits/basic_string.h **** 	else // Need to do a deep copy
 785:/usr/include/newlib/c++/9.2.1/bits/basic_string.h **** 	  assign(__str);
 786:/usr/include/newlib/c++/9.2.1/bits/basic_string.h **** 	__str.clear();
 787:/usr/include/newlib/c++/9.2.1/bits/basic_string.h **** 	return *this;
 788:/usr/include/newlib/c++/9.2.1/bits/basic_string.h ****       }
 789:/usr/include/newlib/c++/9.2.1/bits/basic_string.h **** 
 790:/usr/include/newlib/c++/9.2.1/bits/basic_string.h ****       /**
 791:/usr/include/newlib/c++/9.2.1/bits/basic_string.h ****        *  @brief  Set value to string constructed from initializer %list.
 792:/usr/include/newlib/c++/9.2.1/bits/basic_string.h ****        *  @param  __l  std::initializer_list.
 793:/usr/include/newlib/c++/9.2.1/bits/basic_string.h ****        */
 794:/usr/include/newlib/c++/9.2.1/bits/basic_string.h ****       basic_string&
 795:/usr/include/newlib/c++/9.2.1/bits/basic_string.h ****       operator=(initializer_list<_CharT> __l)
 796:/usr/include/newlib/c++/9.2.1/bits/basic_string.h ****       {
 797:/usr/include/newlib/c++/9.2.1/bits/basic_string.h **** 	this->assign(__l.begin(), __l.size());
 798:/usr/include/newlib/c++/9.2.1/bits/basic_string.h **** 	return *this;
 799:/usr/include/newlib/c++/9.2.1/bits/basic_string.h ****       }
 800:/usr/include/newlib/c++/9.2.1/bits/basic_string.h **** #endif // C++11
 801:/usr/include/newlib/c++/9.2.1/bits/basic_string.h **** 
 802:/usr/include/newlib/c++/9.2.1/bits/basic_string.h **** #if __cplusplus >= 201703L
 803:/usr/include/newlib/c++/9.2.1/bits/basic_string.h ****       /**
 804:/usr/include/newlib/c++/9.2.1/bits/basic_string.h ****        *  @brief  Set value to string constructed from a string_view.
 805:/usr/include/newlib/c++/9.2.1/bits/basic_string.h ****        *  @param  __svt  An object convertible to string_view.
 806:/usr/include/newlib/c++/9.2.1/bits/basic_string.h ****        */
 807:/usr/include/newlib/c++/9.2.1/bits/basic_string.h ****      template<typename _Tp>
 808:/usr/include/newlib/c++/9.2.1/bits/basic_string.h ****        _If_sv<_Tp, basic_string&>
 809:/usr/include/newlib/c++/9.2.1/bits/basic_string.h ****        operator=(const _Tp& __svt)
 810:/usr/include/newlib/c++/9.2.1/bits/basic_string.h ****        { return this->assign(__svt); }
 811:/usr/include/newlib/c++/9.2.1/bits/basic_string.h **** 
 812:/usr/include/newlib/c++/9.2.1/bits/basic_string.h ****       /**
 813:/usr/include/newlib/c++/9.2.1/bits/basic_string.h ****        *  @brief  Convert to a string_view.
 814:/usr/include/newlib/c++/9.2.1/bits/basic_string.h ****        *  @return A string_view.
 815:/usr/include/newlib/c++/9.2.1/bits/basic_string.h ****        */
 816:/usr/include/newlib/c++/9.2.1/bits/basic_string.h ****       operator __sv_type() const noexcept
ARM GAS  /tmp/ccobg3TQ.s 			page 200


 817:/usr/include/newlib/c++/9.2.1/bits/basic_string.h ****       { return __sv_type(data(), size()); }
 818:/usr/include/newlib/c++/9.2.1/bits/basic_string.h **** #endif // C++17
 819:/usr/include/newlib/c++/9.2.1/bits/basic_string.h **** 
 820:/usr/include/newlib/c++/9.2.1/bits/basic_string.h ****       // Iterators:
 821:/usr/include/newlib/c++/9.2.1/bits/basic_string.h ****       /**
 822:/usr/include/newlib/c++/9.2.1/bits/basic_string.h ****        *  Returns a read/write iterator that points to the first character in
 823:/usr/include/newlib/c++/9.2.1/bits/basic_string.h ****        *  the %string.
 824:/usr/include/newlib/c++/9.2.1/bits/basic_string.h ****        */
 825:/usr/include/newlib/c++/9.2.1/bits/basic_string.h ****       iterator
 826:/usr/include/newlib/c++/9.2.1/bits/basic_string.h ****       begin() _GLIBCXX_NOEXCEPT
 827:/usr/include/newlib/c++/9.2.1/bits/basic_string.h ****       { return iterator(_M_data()); }
 828:/usr/include/newlib/c++/9.2.1/bits/basic_string.h **** 
 829:/usr/include/newlib/c++/9.2.1/bits/basic_string.h ****       /**
 830:/usr/include/newlib/c++/9.2.1/bits/basic_string.h ****        *  Returns a read-only (constant) iterator that points to the first
 831:/usr/include/newlib/c++/9.2.1/bits/basic_string.h ****        *  character in the %string.
 832:/usr/include/newlib/c++/9.2.1/bits/basic_string.h ****        */
 833:/usr/include/newlib/c++/9.2.1/bits/basic_string.h ****       const_iterator
 834:/usr/include/newlib/c++/9.2.1/bits/basic_string.h ****       begin() const _GLIBCXX_NOEXCEPT
 835:/usr/include/newlib/c++/9.2.1/bits/basic_string.h ****       { return const_iterator(_M_data()); }
 836:/usr/include/newlib/c++/9.2.1/bits/basic_string.h **** 
 837:/usr/include/newlib/c++/9.2.1/bits/basic_string.h ****       /**
 838:/usr/include/newlib/c++/9.2.1/bits/basic_string.h ****        *  Returns a read/write iterator that points one past the last
 839:/usr/include/newlib/c++/9.2.1/bits/basic_string.h ****        *  character in the %string.
 840:/usr/include/newlib/c++/9.2.1/bits/basic_string.h ****        */
 841:/usr/include/newlib/c++/9.2.1/bits/basic_string.h ****       iterator
 842:/usr/include/newlib/c++/9.2.1/bits/basic_string.h ****       end() _GLIBCXX_NOEXCEPT
 843:/usr/include/newlib/c++/9.2.1/bits/basic_string.h ****       { return iterator(_M_data() + this->size()); }
 844:/usr/include/newlib/c++/9.2.1/bits/basic_string.h **** 
 845:/usr/include/newlib/c++/9.2.1/bits/basic_string.h ****       /**
 846:/usr/include/newlib/c++/9.2.1/bits/basic_string.h ****        *  Returns a read-only (constant) iterator that points one past the
 847:/usr/include/newlib/c++/9.2.1/bits/basic_string.h ****        *  last character in the %string.
 848:/usr/include/newlib/c++/9.2.1/bits/basic_string.h ****        */
 849:/usr/include/newlib/c++/9.2.1/bits/basic_string.h ****       const_iterator
 850:/usr/include/newlib/c++/9.2.1/bits/basic_string.h ****       end() const _GLIBCXX_NOEXCEPT
 851:/usr/include/newlib/c++/9.2.1/bits/basic_string.h ****       { return const_iterator(_M_data() + this->size()); }
 852:/usr/include/newlib/c++/9.2.1/bits/basic_string.h **** 
 853:/usr/include/newlib/c++/9.2.1/bits/basic_string.h ****       /**
 854:/usr/include/newlib/c++/9.2.1/bits/basic_string.h ****        *  Returns a read/write reverse iterator that points to the last
 855:/usr/include/newlib/c++/9.2.1/bits/basic_string.h ****        *  character in the %string.  Iteration is done in reverse element
 856:/usr/include/newlib/c++/9.2.1/bits/basic_string.h ****        *  order.
 857:/usr/include/newlib/c++/9.2.1/bits/basic_string.h ****        */
 858:/usr/include/newlib/c++/9.2.1/bits/basic_string.h ****       reverse_iterator
 859:/usr/include/newlib/c++/9.2.1/bits/basic_string.h ****       rbegin() _GLIBCXX_NOEXCEPT
 860:/usr/include/newlib/c++/9.2.1/bits/basic_string.h ****       { return reverse_iterator(this->end()); }
 861:/usr/include/newlib/c++/9.2.1/bits/basic_string.h **** 
 862:/usr/include/newlib/c++/9.2.1/bits/basic_string.h ****       /**
 863:/usr/include/newlib/c++/9.2.1/bits/basic_string.h ****        *  Returns a read-only (constant) reverse iterator that points
 864:/usr/include/newlib/c++/9.2.1/bits/basic_string.h ****        *  to the last character in the %string.  Iteration is done in
 865:/usr/include/newlib/c++/9.2.1/bits/basic_string.h ****        *  reverse element order.
 866:/usr/include/newlib/c++/9.2.1/bits/basic_string.h ****        */
 867:/usr/include/newlib/c++/9.2.1/bits/basic_string.h ****       const_reverse_iterator
 868:/usr/include/newlib/c++/9.2.1/bits/basic_string.h ****       rbegin() const _GLIBCXX_NOEXCEPT
 869:/usr/include/newlib/c++/9.2.1/bits/basic_string.h ****       { return const_reverse_iterator(this->end()); }
 870:/usr/include/newlib/c++/9.2.1/bits/basic_string.h **** 
 871:/usr/include/newlib/c++/9.2.1/bits/basic_string.h ****       /**
 872:/usr/include/newlib/c++/9.2.1/bits/basic_string.h ****        *  Returns a read/write reverse iterator that points to one before the
 873:/usr/include/newlib/c++/9.2.1/bits/basic_string.h ****        *  first character in the %string.  Iteration is done in reverse
ARM GAS  /tmp/ccobg3TQ.s 			page 201


 874:/usr/include/newlib/c++/9.2.1/bits/basic_string.h ****        *  element order.
 875:/usr/include/newlib/c++/9.2.1/bits/basic_string.h ****        */
 876:/usr/include/newlib/c++/9.2.1/bits/basic_string.h ****       reverse_iterator
 877:/usr/include/newlib/c++/9.2.1/bits/basic_string.h ****       rend() _GLIBCXX_NOEXCEPT
 878:/usr/include/newlib/c++/9.2.1/bits/basic_string.h ****       { return reverse_iterator(this->begin()); }
 879:/usr/include/newlib/c++/9.2.1/bits/basic_string.h **** 
 880:/usr/include/newlib/c++/9.2.1/bits/basic_string.h ****       /**
 881:/usr/include/newlib/c++/9.2.1/bits/basic_string.h ****        *  Returns a read-only (constant) reverse iterator that points
 882:/usr/include/newlib/c++/9.2.1/bits/basic_string.h ****        *  to one before the first character in the %string.  Iteration
 883:/usr/include/newlib/c++/9.2.1/bits/basic_string.h ****        *  is done in reverse element order.
 884:/usr/include/newlib/c++/9.2.1/bits/basic_string.h ****        */
 885:/usr/include/newlib/c++/9.2.1/bits/basic_string.h ****       const_reverse_iterator
 886:/usr/include/newlib/c++/9.2.1/bits/basic_string.h ****       rend() const _GLIBCXX_NOEXCEPT
 887:/usr/include/newlib/c++/9.2.1/bits/basic_string.h ****       { return const_reverse_iterator(this->begin()); }
 888:/usr/include/newlib/c++/9.2.1/bits/basic_string.h **** 
 889:/usr/include/newlib/c++/9.2.1/bits/basic_string.h **** #if __cplusplus >= 201103L
 890:/usr/include/newlib/c++/9.2.1/bits/basic_string.h ****       /**
 891:/usr/include/newlib/c++/9.2.1/bits/basic_string.h ****        *  Returns a read-only (constant) iterator that points to the first
 892:/usr/include/newlib/c++/9.2.1/bits/basic_string.h ****        *  character in the %string.
 893:/usr/include/newlib/c++/9.2.1/bits/basic_string.h ****        */
 894:/usr/include/newlib/c++/9.2.1/bits/basic_string.h ****       const_iterator
 895:/usr/include/newlib/c++/9.2.1/bits/basic_string.h ****       cbegin() const noexcept
 896:/usr/include/newlib/c++/9.2.1/bits/basic_string.h ****       { return const_iterator(this->_M_data()); }
 897:/usr/include/newlib/c++/9.2.1/bits/basic_string.h **** 
 898:/usr/include/newlib/c++/9.2.1/bits/basic_string.h ****       /**
 899:/usr/include/newlib/c++/9.2.1/bits/basic_string.h ****        *  Returns a read-only (constant) iterator that points one past the
 900:/usr/include/newlib/c++/9.2.1/bits/basic_string.h ****        *  last character in the %string.
 901:/usr/include/newlib/c++/9.2.1/bits/basic_string.h ****        */
 902:/usr/include/newlib/c++/9.2.1/bits/basic_string.h ****       const_iterator
 903:/usr/include/newlib/c++/9.2.1/bits/basic_string.h ****       cend() const noexcept
 904:/usr/include/newlib/c++/9.2.1/bits/basic_string.h ****       { return const_iterator(this->_M_data() + this->size()); }
 905:/usr/include/newlib/c++/9.2.1/bits/basic_string.h **** 
 906:/usr/include/newlib/c++/9.2.1/bits/basic_string.h ****       /**
 907:/usr/include/newlib/c++/9.2.1/bits/basic_string.h ****        *  Returns a read-only (constant) reverse iterator that points
 908:/usr/include/newlib/c++/9.2.1/bits/basic_string.h ****        *  to the last character in the %string.  Iteration is done in
 909:/usr/include/newlib/c++/9.2.1/bits/basic_string.h ****        *  reverse element order.
 910:/usr/include/newlib/c++/9.2.1/bits/basic_string.h ****        */
 911:/usr/include/newlib/c++/9.2.1/bits/basic_string.h ****       const_reverse_iterator
 912:/usr/include/newlib/c++/9.2.1/bits/basic_string.h ****       crbegin() const noexcept
 913:/usr/include/newlib/c++/9.2.1/bits/basic_string.h ****       { return const_reverse_iterator(this->end()); }
 914:/usr/include/newlib/c++/9.2.1/bits/basic_string.h **** 
 915:/usr/include/newlib/c++/9.2.1/bits/basic_string.h ****       /**
 916:/usr/include/newlib/c++/9.2.1/bits/basic_string.h ****        *  Returns a read-only (constant) reverse iterator that points
 917:/usr/include/newlib/c++/9.2.1/bits/basic_string.h ****        *  to one before the first character in the %string.  Iteration
 918:/usr/include/newlib/c++/9.2.1/bits/basic_string.h ****        *  is done in reverse element order.
 919:/usr/include/newlib/c++/9.2.1/bits/basic_string.h ****        */
 920:/usr/include/newlib/c++/9.2.1/bits/basic_string.h ****       const_reverse_iterator
 921:/usr/include/newlib/c++/9.2.1/bits/basic_string.h ****       crend() const noexcept
 922:/usr/include/newlib/c++/9.2.1/bits/basic_string.h ****       { return const_reverse_iterator(this->begin()); }
 923:/usr/include/newlib/c++/9.2.1/bits/basic_string.h **** #endif
 924:/usr/include/newlib/c++/9.2.1/bits/basic_string.h **** 
 925:/usr/include/newlib/c++/9.2.1/bits/basic_string.h ****     public:
 926:/usr/include/newlib/c++/9.2.1/bits/basic_string.h ****       // Capacity:
 927:/usr/include/newlib/c++/9.2.1/bits/basic_string.h ****       ///  Returns the number of characters in the string, not including any
 928:/usr/include/newlib/c++/9.2.1/bits/basic_string.h ****       ///  null-termination.
 929:/usr/include/newlib/c++/9.2.1/bits/basic_string.h ****       size_type
 930:/usr/include/newlib/c++/9.2.1/bits/basic_string.h ****       size() const _GLIBCXX_NOEXCEPT
ARM GAS  /tmp/ccobg3TQ.s 			page 202


 931:/usr/include/newlib/c++/9.2.1/bits/basic_string.h ****       { return _M_string_length; }
 932:/usr/include/newlib/c++/9.2.1/bits/basic_string.h **** 
 933:/usr/include/newlib/c++/9.2.1/bits/basic_string.h ****       ///  Returns the number of characters in the string, not including any
 934:/usr/include/newlib/c++/9.2.1/bits/basic_string.h ****       ///  null-termination.
 935:/usr/include/newlib/c++/9.2.1/bits/basic_string.h ****       size_type
 936:/usr/include/newlib/c++/9.2.1/bits/basic_string.h ****       length() const _GLIBCXX_NOEXCEPT
 937:/usr/include/newlib/c++/9.2.1/bits/basic_string.h ****       { return _M_string_length; }
 938:/usr/include/newlib/c++/9.2.1/bits/basic_string.h **** 
 939:/usr/include/newlib/c++/9.2.1/bits/basic_string.h ****       ///  Returns the size() of the largest possible %string.
 940:/usr/include/newlib/c++/9.2.1/bits/basic_string.h ****       size_type
 941:/usr/include/newlib/c++/9.2.1/bits/basic_string.h ****       max_size() const _GLIBCXX_NOEXCEPT
 942:/usr/include/newlib/c++/9.2.1/bits/basic_string.h ****       { return (_Alloc_traits::max_size(_M_get_allocator()) - 1) / 2; }
 943:/usr/include/newlib/c++/9.2.1/bits/basic_string.h **** 
 944:/usr/include/newlib/c++/9.2.1/bits/basic_string.h ****       /**
 945:/usr/include/newlib/c++/9.2.1/bits/basic_string.h ****        *  @brief  Resizes the %string to the specified number of characters.
 946:/usr/include/newlib/c++/9.2.1/bits/basic_string.h ****        *  @param  __n  Number of characters the %string should contain.
 947:/usr/include/newlib/c++/9.2.1/bits/basic_string.h ****        *  @param  __c  Character to fill any new elements.
 948:/usr/include/newlib/c++/9.2.1/bits/basic_string.h ****        *
 949:/usr/include/newlib/c++/9.2.1/bits/basic_string.h ****        *  This function will %resize the %string to the specified
 950:/usr/include/newlib/c++/9.2.1/bits/basic_string.h ****        *  number of characters.  If the number is smaller than the
 951:/usr/include/newlib/c++/9.2.1/bits/basic_string.h ****        *  %string's current size the %string is truncated, otherwise
 952:/usr/include/newlib/c++/9.2.1/bits/basic_string.h ****        *  the %string is extended and new elements are %set to @a __c.
 953:/usr/include/newlib/c++/9.2.1/bits/basic_string.h ****        */
 954:/usr/include/newlib/c++/9.2.1/bits/basic_string.h ****       void
 955:/usr/include/newlib/c++/9.2.1/bits/basic_string.h ****       resize(size_type __n, _CharT __c);
 956:/usr/include/newlib/c++/9.2.1/bits/basic_string.h **** 
 957:/usr/include/newlib/c++/9.2.1/bits/basic_string.h ****       /**
 958:/usr/include/newlib/c++/9.2.1/bits/basic_string.h ****        *  @brief  Resizes the %string to the specified number of characters.
 959:/usr/include/newlib/c++/9.2.1/bits/basic_string.h ****        *  @param  __n  Number of characters the %string should contain.
 960:/usr/include/newlib/c++/9.2.1/bits/basic_string.h ****        *
 961:/usr/include/newlib/c++/9.2.1/bits/basic_string.h ****        *  This function will resize the %string to the specified length.  If
 962:/usr/include/newlib/c++/9.2.1/bits/basic_string.h ****        *  the new size is smaller than the %string's current size the %string
 963:/usr/include/newlib/c++/9.2.1/bits/basic_string.h ****        *  is truncated, otherwise the %string is extended and new characters
 964:/usr/include/newlib/c++/9.2.1/bits/basic_string.h ****        *  are default-constructed.  For basic types such as char, this means
 965:/usr/include/newlib/c++/9.2.1/bits/basic_string.h ****        *  setting them to 0.
 966:/usr/include/newlib/c++/9.2.1/bits/basic_string.h ****        */
 967:/usr/include/newlib/c++/9.2.1/bits/basic_string.h ****       void
 968:/usr/include/newlib/c++/9.2.1/bits/basic_string.h ****       resize(size_type __n)
 969:/usr/include/newlib/c++/9.2.1/bits/basic_string.h ****       { this->resize(__n, _CharT()); }
 970:/usr/include/newlib/c++/9.2.1/bits/basic_string.h **** 
 971:/usr/include/newlib/c++/9.2.1/bits/basic_string.h **** #if __cplusplus >= 201103L
 972:/usr/include/newlib/c++/9.2.1/bits/basic_string.h ****       ///  A non-binding request to reduce capacity() to size().
 973:/usr/include/newlib/c++/9.2.1/bits/basic_string.h ****       void
 974:/usr/include/newlib/c++/9.2.1/bits/basic_string.h ****       shrink_to_fit() noexcept
 975:/usr/include/newlib/c++/9.2.1/bits/basic_string.h ****       {
 976:/usr/include/newlib/c++/9.2.1/bits/basic_string.h **** #if __cpp_exceptions
 977:/usr/include/newlib/c++/9.2.1/bits/basic_string.h **** 	if (capacity() > size())
 978:/usr/include/newlib/c++/9.2.1/bits/basic_string.h **** 	  {
 979:/usr/include/newlib/c++/9.2.1/bits/basic_string.h **** 	    try
 980:/usr/include/newlib/c++/9.2.1/bits/basic_string.h **** 	      { reserve(0); }
 981:/usr/include/newlib/c++/9.2.1/bits/basic_string.h **** 	    catch(...)
 982:/usr/include/newlib/c++/9.2.1/bits/basic_string.h **** 	      { }
 983:/usr/include/newlib/c++/9.2.1/bits/basic_string.h **** 	  }
 984:/usr/include/newlib/c++/9.2.1/bits/basic_string.h **** #endif
 985:/usr/include/newlib/c++/9.2.1/bits/basic_string.h ****       }
 986:/usr/include/newlib/c++/9.2.1/bits/basic_string.h **** #endif
 987:/usr/include/newlib/c++/9.2.1/bits/basic_string.h **** 
ARM GAS  /tmp/ccobg3TQ.s 			page 203


 988:/usr/include/newlib/c++/9.2.1/bits/basic_string.h ****       /**
 989:/usr/include/newlib/c++/9.2.1/bits/basic_string.h ****        *  Returns the total number of characters that the %string can hold
 990:/usr/include/newlib/c++/9.2.1/bits/basic_string.h ****        *  before needing to allocate more memory.
 991:/usr/include/newlib/c++/9.2.1/bits/basic_string.h ****        */
 992:/usr/include/newlib/c++/9.2.1/bits/basic_string.h ****       size_type
 993:/usr/include/newlib/c++/9.2.1/bits/basic_string.h ****       capacity() const _GLIBCXX_NOEXCEPT
 994:/usr/include/newlib/c++/9.2.1/bits/basic_string.h ****       {
 995:/usr/include/newlib/c++/9.2.1/bits/basic_string.h **** 	return _M_is_local() ? size_type(_S_local_capacity)
 996:/usr/include/newlib/c++/9.2.1/bits/basic_string.h **** 	                     : _M_allocated_capacity;
 997:/usr/include/newlib/c++/9.2.1/bits/basic_string.h ****       }
 998:/usr/include/newlib/c++/9.2.1/bits/basic_string.h **** 
 999:/usr/include/newlib/c++/9.2.1/bits/basic_string.h ****       /**
1000:/usr/include/newlib/c++/9.2.1/bits/basic_string.h ****        *  @brief  Attempt to preallocate enough memory for specified number of
1001:/usr/include/newlib/c++/9.2.1/bits/basic_string.h ****        *          characters.
1002:/usr/include/newlib/c++/9.2.1/bits/basic_string.h ****        *  @param  __res_arg  Number of characters required.
1003:/usr/include/newlib/c++/9.2.1/bits/basic_string.h ****        *  @throw  std::length_error  If @a __res_arg exceeds @c max_size().
1004:/usr/include/newlib/c++/9.2.1/bits/basic_string.h ****        *
1005:/usr/include/newlib/c++/9.2.1/bits/basic_string.h ****        *  This function attempts to reserve enough memory for the
1006:/usr/include/newlib/c++/9.2.1/bits/basic_string.h ****        *  %string to hold the specified number of characters.  If the
1007:/usr/include/newlib/c++/9.2.1/bits/basic_string.h ****        *  number requested is more than max_size(), length_error is
1008:/usr/include/newlib/c++/9.2.1/bits/basic_string.h ****        *  thrown.
1009:/usr/include/newlib/c++/9.2.1/bits/basic_string.h ****        *
1010:/usr/include/newlib/c++/9.2.1/bits/basic_string.h ****        *  The advantage of this function is that if optimal code is a
1011:/usr/include/newlib/c++/9.2.1/bits/basic_string.h ****        *  necessity and the user can determine the string length that will be
1012:/usr/include/newlib/c++/9.2.1/bits/basic_string.h ****        *  required, the user can reserve the memory in %advance, and thus
1013:/usr/include/newlib/c++/9.2.1/bits/basic_string.h ****        *  prevent a possible reallocation of memory and copying of %string
1014:/usr/include/newlib/c++/9.2.1/bits/basic_string.h ****        *  data.
1015:/usr/include/newlib/c++/9.2.1/bits/basic_string.h ****        */
1016:/usr/include/newlib/c++/9.2.1/bits/basic_string.h ****       void
1017:/usr/include/newlib/c++/9.2.1/bits/basic_string.h ****       reserve(size_type __res_arg = 0);
1018:/usr/include/newlib/c++/9.2.1/bits/basic_string.h **** 
1019:/usr/include/newlib/c++/9.2.1/bits/basic_string.h ****       /**
1020:/usr/include/newlib/c++/9.2.1/bits/basic_string.h ****        *  Erases the string, making it empty.
1021:/usr/include/newlib/c++/9.2.1/bits/basic_string.h ****        */
1022:/usr/include/newlib/c++/9.2.1/bits/basic_string.h ****       void
1023:/usr/include/newlib/c++/9.2.1/bits/basic_string.h ****       clear() _GLIBCXX_NOEXCEPT
1024:/usr/include/newlib/c++/9.2.1/bits/basic_string.h ****       { _M_set_length(0); }
1025:/usr/include/newlib/c++/9.2.1/bits/basic_string.h **** 
1026:/usr/include/newlib/c++/9.2.1/bits/basic_string.h ****       /**
1027:/usr/include/newlib/c++/9.2.1/bits/basic_string.h ****        *  Returns true if the %string is empty.  Equivalent to 
1028:/usr/include/newlib/c++/9.2.1/bits/basic_string.h ****        *  <code>*this == ""</code>.
1029:/usr/include/newlib/c++/9.2.1/bits/basic_string.h ****        */
1030:/usr/include/newlib/c++/9.2.1/bits/basic_string.h ****       _GLIBCXX_NODISCARD bool
1031:/usr/include/newlib/c++/9.2.1/bits/basic_string.h ****       empty() const _GLIBCXX_NOEXCEPT
1032:/usr/include/newlib/c++/9.2.1/bits/basic_string.h ****       { return this->size() == 0; }
1033:/usr/include/newlib/c++/9.2.1/bits/basic_string.h **** 
1034:/usr/include/newlib/c++/9.2.1/bits/basic_string.h ****       // Element access:
1035:/usr/include/newlib/c++/9.2.1/bits/basic_string.h ****       /**
1036:/usr/include/newlib/c++/9.2.1/bits/basic_string.h ****        *  @brief  Subscript access to the data contained in the %string.
1037:/usr/include/newlib/c++/9.2.1/bits/basic_string.h ****        *  @param  __pos  The index of the character to access.
1038:/usr/include/newlib/c++/9.2.1/bits/basic_string.h ****        *  @return  Read-only (constant) reference to the character.
1039:/usr/include/newlib/c++/9.2.1/bits/basic_string.h ****        *
1040:/usr/include/newlib/c++/9.2.1/bits/basic_string.h ****        *  This operator allows for easy, array-style, data access.
1041:/usr/include/newlib/c++/9.2.1/bits/basic_string.h ****        *  Note that data access with this operator is unchecked and
1042:/usr/include/newlib/c++/9.2.1/bits/basic_string.h ****        *  out_of_range lookups are not defined. (For checked lookups
1043:/usr/include/newlib/c++/9.2.1/bits/basic_string.h ****        *  see at().)
1044:/usr/include/newlib/c++/9.2.1/bits/basic_string.h ****        */
ARM GAS  /tmp/ccobg3TQ.s 			page 204


1045:/usr/include/newlib/c++/9.2.1/bits/basic_string.h ****       const_reference
1046:/usr/include/newlib/c++/9.2.1/bits/basic_string.h ****       operator[] (size_type __pos) const _GLIBCXX_NOEXCEPT
1047:/usr/include/newlib/c++/9.2.1/bits/basic_string.h ****       {
1048:/usr/include/newlib/c++/9.2.1/bits/basic_string.h **** 	__glibcxx_assert(__pos <= size());
1049:/usr/include/newlib/c++/9.2.1/bits/basic_string.h **** 	return _M_data()[__pos];
1050:/usr/include/newlib/c++/9.2.1/bits/basic_string.h ****       }
1051:/usr/include/newlib/c++/9.2.1/bits/basic_string.h **** 
1052:/usr/include/newlib/c++/9.2.1/bits/basic_string.h ****       /**
1053:/usr/include/newlib/c++/9.2.1/bits/basic_string.h ****        *  @brief  Subscript access to the data contained in the %string.
1054:/usr/include/newlib/c++/9.2.1/bits/basic_string.h ****        *  @param  __pos  The index of the character to access.
1055:/usr/include/newlib/c++/9.2.1/bits/basic_string.h ****        *  @return  Read/write reference to the character.
1056:/usr/include/newlib/c++/9.2.1/bits/basic_string.h ****        *
1057:/usr/include/newlib/c++/9.2.1/bits/basic_string.h ****        *  This operator allows for easy, array-style, data access.
1058:/usr/include/newlib/c++/9.2.1/bits/basic_string.h ****        *  Note that data access with this operator is unchecked and
1059:/usr/include/newlib/c++/9.2.1/bits/basic_string.h ****        *  out_of_range lookups are not defined. (For checked lookups
1060:/usr/include/newlib/c++/9.2.1/bits/basic_string.h ****        *  see at().)
1061:/usr/include/newlib/c++/9.2.1/bits/basic_string.h ****        */
1062:/usr/include/newlib/c++/9.2.1/bits/basic_string.h ****       reference
1063:/usr/include/newlib/c++/9.2.1/bits/basic_string.h ****       operator[](size_type __pos)
 6306              		.loc 20 1063 7 view .LVU1470
 6307              	.LBB2110:
1064:/usr/include/newlib/c++/9.2.1/bits/basic_string.h ****       {
1065:/usr/include/newlib/c++/9.2.1/bits/basic_string.h ****         // Allow pos == size() both in C++98 mode, as v3 extension,
1066:/usr/include/newlib/c++/9.2.1/bits/basic_string.h **** 	// and in C++11 mode.
1067:/usr/include/newlib/c++/9.2.1/bits/basic_string.h **** 	__glibcxx_assert(__pos <= size());
1068:/usr/include/newlib/c++/9.2.1/bits/basic_string.h ****         // In pedantic mode be strict in C++98 mode.
1069:/usr/include/newlib/c++/9.2.1/bits/basic_string.h **** 	_GLIBCXX_DEBUG_PEDASSERT(__cplusplus >= 201103L || __pos < size());
1070:/usr/include/newlib/c++/9.2.1/bits/basic_string.h **** 	return _M_data()[__pos];
 6308              		.loc 20 1070 18 is_stmt 0 view .LVU1471
 6309 0058 0C9A     		ldr	r2, [sp, #48]
 6310 005a 7B4B     		ldr	r3, .L525+8
 6311 005c 0292     		str	r2, [sp, #8]
 6312              	.LVL460:
 6313              		.loc 20 1070 18 view .LVU1472
 6314              	.LBE2110:
 6315              	.LBE2109:
  80:SampleAndHold.cpp ****     patch.display.SetCursor(0, 0);
 6316              		.loc 13 80 5 is_stmt 1 view .LVU1473
 6317              	.LBB2111:
 6318              	.LBI2103:
 171:../../libdaisy/src/hid/disp/display.h ****     {
 6319              		.loc 3 171 10 view .LVU1474
 6320              	.LBB2105:
 173:../../libdaisy/src/hid/disp/display.h ****         currentY_ = (y >= Height()) ? Height() - 1 : y;
 6321              		.loc 3 173 9 view .LVU1475
 174:../../libdaisy/src/hid/disp/display.h ****     }
 6322              		.loc 3 174 9 view .LVU1476
 174:../../libdaisy/src/hid/disp/display.h ****     }
 6323              		.loc 3 174 9 is_stmt 0 view .LVU1477
 6324 005e 93F800A0 		ldrb	r10, [r3]	@ zero_extendqisi2
 173:../../libdaisy/src/hid/disp/display.h ****         currentY_ = (y >= Height()) ? Height() - 1 : y;
 6325              		.loc 3 173 19 view .LVU1478
 6326 0062 4BF80740 		str	r4, [fp, r7]
 6327              	.LVL461:
 173:../../libdaisy/src/hid/disp/display.h ****         currentY_ = (y >= Height()) ? Height() - 1 : y;
 6328              		.loc 3 173 19 view .LVU1479
 6329              	.LBE2105:
ARM GAS  /tmp/ccobg3TQ.s 			page 205


 6330              	.LBE2111:
  81:SampleAndHold.cpp ****     patch.display.WriteString(cstr, Font_6x8, true);
 6331              		.loc 13 81 5 is_stmt 1 view .LVU1480
 6332              	.LBB2112:
 6333              	.LBB2113:
 443:../../libdaisy/src/hid/disp/display.h ****         {
 6334              		.loc 3 443 9 is_stmt 0 view .LVU1481
 6335 0066 92F80090 		ldrb	r9, [r2]	@ zero_extendqisi2
 6336 006a 5A78     		ldrb	r2, [r3, #1]	@ zero_extendqisi2
 6337              	.LVL462:
 443:../../libdaisy/src/hid/disp/display.h ****         {
 6338              		.loc 3 443 9 view .LVU1482
 6339 006c 5B68     		ldr	r3, [r3, #4]
 6340 006e 0792     		str	r2, [sp, #28]
 6341              	.LVL463:
 443:../../libdaisy/src/hid/disp/display.h ****         {
 6342              		.loc 3 443 9 view .LVU1483
 6343 0070 0993     		str	r3, [sp, #36]
 6344              	.LVL464:
 443:../../libdaisy/src/hid/disp/display.h ****         {
 6345              		.loc 3 443 9 view .LVU1484
 6346              	.LBE2113:
 6347              	.LBI2112:
 440:../../libdaisy/src/hid/disp/display.h ****     {
 6348              		.loc 3 440 10 is_stmt 1 view .LVU1485
 6349              	.LBB2153:
 443:../../libdaisy/src/hid/disp/display.h ****         {
 6350              		.loc 3 443 9 view .LVU1486
 6351 0072 B9F1000F 		cmp	r9, #0
 6352 0076 79D0     		beq	.L443
 6353 0078 029B     		ldr	r3, [sp, #8]
 6354              	.LVL465:
 443:../../libdaisy/src/hid/disp/display.h ****         {
 6355              		.loc 3 443 9 is_stmt 0 view .LVU1487
 6356 007a 5646     		mov	r6, r10
 6357 007c 0393     		str	r3, [sp, #12]
 6358              	.LVL466:
 6359              	.L431:
 6360              	.LBB2114:
 6361              	.LBI2114:
 396:../../libdaisy/src/hid/disp/display.h ****     {
 6362              		.loc 3 396 10 is_stmt 1 view .LVU1488
 6363              	.LBB2115:
 401:../../libdaisy/src/hid/disp/display.h ****             return 0;
 6364              		.loc 3 401 20 is_stmt 0 view .LVU1489
 6365 007e A9F12003 		sub	r3, r9, #32
 401:../../libdaisy/src/hid/disp/display.h ****             return 0;
 6366              		.loc 3 401 9 view .LVU1490
 6367 0082 DAB2     		uxtb	r2, r3
 6368 0084 5E2A     		cmp	r2, #94
 6369 0086 00F2B482 		bhi	.L484
 6370              	.LVL467:
 405:../../libdaisy/src/hid/disp/display.h ****            || Height() < (currentY_ + font.FontHeight))
 6371              		.loc 3 405 23 view .LVU1491
 6372 008a 704A     		ldr	r2, .L525+12
 6373 008c B2F800E0 		ldrh	lr, [r2]
 6374 0090 0692     		str	r2, [sp, #24]
ARM GAS  /tmp/ccobg3TQ.s 			page 206


 405:../../libdaisy/src/hid/disp/display.h ****            || Height() < (currentY_ + font.FontHeight))
 6375              		.loc 3 405 33 view .LVU1492
 6376 0092 0EEB0601 		add	r1, lr, r6
 406:../../libdaisy/src/hid/disp/display.h ****         {
 6377              		.loc 3 406 12 view .LVU1493
 6378 0096 8029     		cmp	r1, #128
 405:../../libdaisy/src/hid/disp/display.h ****            || Height() < (currentY_ + font.FontHeight))
 6379              		.loc 3 405 33 view .LVU1494
 6380 0098 0591     		str	r1, [sp, #20]
 406:../../libdaisy/src/hid/disp/display.h ****         {
 6381              		.loc 3 406 12 view .LVU1495
 6382 009a 00F3AA82 		bgt	.L484
 6383              	.LVL468:
 406:../../libdaisy/src/hid/disp/display.h ****         {
 6384              		.loc 3 406 27 view .LVU1496
 6385 009e 5188     		ldrh	r1, [r2, #2]
 6386 00a0 0232     		adds	r2, r2, #2
 406:../../libdaisy/src/hid/disp/display.h ****         {
 6387              		.loc 3 406 37 view .LVU1497
 6388 00a2 0798     		ldr	r0, [sp, #28]
 406:../../libdaisy/src/hid/disp/display.h ****         {
 6389              		.loc 3 406 27 view .LVU1498
 6390 00a4 0892     		str	r2, [sp, #32]
 406:../../libdaisy/src/hid/disp/display.h ****         {
 6391              		.loc 3 406 37 view .LVU1499
 6392 00a6 0A18     		adds	r2, r1, r0
 406:../../libdaisy/src/hid/disp/display.h ****         {
 6393              		.loc 3 406 27 view .LVU1500
 6394 00a8 0491     		str	r1, [sp, #16]
 406:../../libdaisy/src/hid/disp/display.h ****         {
 6395              		.loc 3 406 12 view .LVU1501
 6396 00aa 402A     		cmp	r2, #64
 6397 00ac 00F3A182 		bgt	.L484
 6398              	.LVL469:
 413:../../libdaisy/src/hid/disp/display.h ****         {
 6399              		.loc 3 413 22 is_stmt 1 view .LVU1502
 6400 00b0 0028     		cmp	r0, #0
 6401 00b2 44D0     		beq	.L437
 415:../../libdaisy/src/hid/disp/display.h ****             for(j = 0; j < font.FontWidth; j++)
 6402              		.loc 3 415 37 is_stmt 0 view .LVU1503
 6403 00b4 079A     		ldr	r2, [sp, #28]
 6404 00b6 6FF0004C 		mvn	ip, #-2147483648
 6405 00ba 0999     		ldr	r1, [sp, #36]
 6406 00bc 02FB03F3 		mul	r3, r2, r3
 6407 00c0 049C     		ldr	r4, [sp, #16]
 6408 00c2 A1F1020A 		sub	r10, r1, #2
 6409 00c6 9C44     		add	ip, ip, r3
 6410 00c8 1344     		add	r3, r3, r2
 6411 00ca 01EB4C0C 		add	ip, r1, ip, lsl #1
 6412 00ce 0AEB430A 		add	r10, r10, r3, lsl #1
 6413              	.LVL470:
 6414              	.L438:
 415:../../libdaisy/src/hid/disp/display.h ****             for(j = 0; j < font.FontWidth; j++)
 6415              		.loc 3 415 13 view .LVU1504
 6416 00d2 3CF8027F 		ldrh	r7, [ip, #2]!
 6417              	.LVL471:
 416:../../libdaisy/src/hid/disp/display.h ****             {
ARM GAS  /tmp/ccobg3TQ.s 			page 207


 6418              		.loc 3 416 26 is_stmt 1 view .LVU1505
 6419 00d6 76B3     		cbz	r6, .L441
 6420              	.LBB2116:
 6421              	.LBB2117:
 6422              	.LBB2118:
 6423              	.LBB2119:
 6424              	.LBB2120:
 246:../../libdaisy/src/dev/oled_ssd130x.h ****     }
 6425              		.loc 12 246 55 is_stmt 0 view .LVU1506
 6426 00d8 04F00702 		and	r2, r4, #7
 246:../../libdaisy/src/dev/oled_ssd130x.h ****     }
 6427              		.loc 12 246 49 view .LVU1507
 6428 00dc 0125     		movs	r5, #1
 6429 00de 49F2B810 		movw	r0, #37304
 246:../../libdaisy/src/dev/oled_ssd130x.h ****     }
 6430              		.loc 12 246 28 view .LVU1508
 6431 00e2 E308     		lsrs	r3, r4, #3
 246:../../libdaisy/src/dev/oled_ssd130x.h ****     }
 6432              		.loc 12 246 49 view .LVU1509
 6433 00e4 9540     		lsls	r5, r5, r2
 6434 00e6 7146     		mov	r1, lr
 6435 00e8 7044     		add	r0, r0, lr
 6436              	.LBE2120:
 6437              	.LBE2119:
 6438              	.LBE2118:
 6439              	.LBE2117:
 6440              	.LBE2116:
 416:../../libdaisy/src/hid/disp/display.h ****             {
 6441              		.loc 3 416 19 view .LVU1510
 6442 00ea 0022     		movs	r2, #0
 6443              	.LBB2139:
 6444              	.LBB2134:
 6445              	.LBB2130:
 6446              	.LBB2125:
 6447              	.LBB2121:
 246:../../libdaisy/src/dev/oled_ssd130x.h ****     }
 6448              		.loc 12 246 42 view .LVU1511
 6449 00ec 6DB2     		sxtb	r5, r5
 6450 00ee 00EBC313 		add	r3, r0, r3, lsl #7
 6451 00f2 6FEA0508 		mvn	r8, r5
 6452 00f6 5B44     		add	r3, r3, fp
 6453 00f8 0BE0     		b	.L442
 6454              	.LVL472:
 6455              	.L521:
 246:../../libdaisy/src/dev/oled_ssd130x.h ****     }
 6456              		.loc 12 246 42 view .LVU1512
 6457              	.LBE2121:
 6458              	.LBE2125:
 6459              	.LBE2130:
 6460              	.LBE2134:
 6461              	.LBE2139:
 6462              	.LBB2140:
 6463              	.LBB2141:
 6464              	.LBB2142:
 241:../../libdaisy/src/dev/oled_ssd130x.h ****             return;
 6465              		.loc 12 241 9 view .LVU1513
 6466 00fa 7F29     		cmp	r1, #127
ARM GAS  /tmp/ccobg3TQ.s 			page 208


 6467 00fc 04D8     		bhi	.L440
 6468 00fe 3F2C     		cmp	r4, #63
 6469 0100 02D8     		bhi	.L440
 244:../../libdaisy/src/dev/oled_ssd130x.h ****         else
 6470              		.loc 12 244 42 view .LVU1514
 6471 0102 1878     		ldrb	r0, [r3]	@ zero_extendqisi2
 6472 0104 2843     		orrs	r0, r0, r5
 244:../../libdaisy/src/dev/oled_ssd130x.h ****         else
 6473              		.loc 12 244 13 view .LVU1515
 6474 0106 1870     		strb	r0, [r3]
 6475              	.L440:
 6476              	.LVL473:
 244:../../libdaisy/src/dev/oled_ssd130x.h ****         else
 6477              		.loc 12 244 13 view .LVU1516
 6478              	.LBE2142:
 6479              	.LBE2141:
 6480              	.LBE2140:
 416:../../libdaisy/src/hid/disp/display.h ****             {
 6481              		.loc 3 416 13 is_stmt 1 view .LVU1517
 6482 0108 0132     		adds	r2, r2, #1
 6483              	.LVL474:
 416:../../libdaisy/src/hid/disp/display.h ****             {
 6484              		.loc 3 416 26 view .LVU1518
 6485 010a 0133     		adds	r3, r3, #1
 6486 010c 0131     		adds	r1, r1, #1
 6487 010e B242     		cmp	r2, r6
 6488 0110 11D0     		beq	.L441
 6489              	.LVL475:
 6490              	.L442:
 6491              	.LBB2144:
 6492              	.LBI2140:
  41:../../libdaisy/src/hid/disp/oled_display.h ****     {
 6493              		.loc 2 41 10 view .LVU1519
 6494              	.LBB2143:
 6495              	.LBI2141:
 239:../../libdaisy/src/dev/oled_ssd130x.h ****     {
 6496              		.loc 12 239 10 view .LVU1520
 239:../../libdaisy/src/dev/oled_ssd130x.h ****     {
 6497              		.loc 12 239 10 is_stmt 0 view .LVU1521
 6498              	.LBE2143:
 6499              	.LBE2144:
 6500              	.LBB2145:
 6501              	.LBI2116:
  41:../../libdaisy/src/hid/disp/oled_display.h ****     {
 6502              		.loc 2 41 10 is_stmt 1 view .LVU1522
 6503              	.LBB2135:
 6504              	.LBI2117:
 239:../../libdaisy/src/dev/oled_ssd130x.h ****     {
 6505              		.loc 12 239 10 view .LVU1523
 6506              	.LBE2135:
 6507              	.LBE2145:
 418:../../libdaisy/src/hid/disp/display.h ****                 {
 6508              		.loc 3 418 23 is_stmt 0 view .LVU1524
 6509 0112 07FA02F0 		lsl	r0, r7, r2
 418:../../libdaisy/src/hid/disp/display.h ****                 {
 6510              		.loc 3 418 17 view .LVU1525
 6511 0116 0004     		lsls	r0, r0, #16
ARM GAS  /tmp/ccobg3TQ.s 			page 209


 6512 0118 EFD4     		bmi	.L521
 6513              	.LVL476:
 6514              	.LBB2146:
 6515              	.LBB2136:
 6516              	.LBB2131:
 6517              	.LBB2126:
 6518              	.LBI2119:
 239:../../libdaisy/src/dev/oled_ssd130x.h ****     {
 6519              		.loc 12 239 10 is_stmt 1 view .LVU1526
 239:../../libdaisy/src/dev/oled_ssd130x.h ****     {
 6520              		.loc 12 239 10 is_stmt 0 view .LVU1527
 6521              	.LBE2126:
 241:../../libdaisy/src/dev/oled_ssd130x.h ****             return;
 6522              		.loc 12 241 9 view .LVU1528
 6523 011a 7F29     		cmp	r1, #127
 6524 011c F4D8     		bhi	.L440
 6525 011e 3F2C     		cmp	r4, #63
 6526 0120 F2D8     		bhi	.L440
 6527              	.LBB2127:
 6528              	.LBB2122:
 246:../../libdaisy/src/dev/oled_ssd130x.h ****     }
 6529              		.loc 12 246 42 view .LVU1529
 6530 0122 1878     		ldrb	r0, [r3]	@ zero_extendqisi2
 6531              	.LBE2122:
 6532              	.LBE2127:
 6533              	.LBE2131:
 6534              	.LBE2136:
 6535              	.LBE2146:
 416:../../libdaisy/src/hid/disp/display.h ****             {
 6536              		.loc 3 416 13 view .LVU1530
 6537 0124 0132     		adds	r2, r2, #1
 6538              	.LVL477:
 416:../../libdaisy/src/hid/disp/display.h ****             {
 6539              		.loc 3 416 13 view .LVU1531
 6540 0126 0133     		adds	r3, r3, #1
 6541 0128 0131     		adds	r1, r1, #1
 6542              	.LBB2147:
 6543              	.LBB2137:
 6544              	.LBB2132:
 6545              	.LBB2128:
 6546              	.LBB2123:
 246:../../libdaisy/src/dev/oled_ssd130x.h ****     }
 6547              		.loc 12 246 42 view .LVU1532
 6548 012a 08EA0000 		and	r0, r8, r0
 6549              	.LBE2123:
 6550              	.LBE2128:
 6551              	.LBE2132:
 6552              	.LBE2137:
 6553              	.LBE2147:
 416:../../libdaisy/src/hid/disp/display.h ****             {
 6554              		.loc 3 416 26 view .LVU1533
 6555 012e B242     		cmp	r2, r6
 6556              	.LBB2148:
 6557              	.LBB2138:
 6558              	.LBB2133:
 6559              	.LBB2129:
 6560              	.LBB2124:
ARM GAS  /tmp/ccobg3TQ.s 			page 210


 246:../../libdaisy/src/dev/oled_ssd130x.h ****     }
 6561              		.loc 12 246 13 view .LVU1534
 6562 0130 03F8010C 		strb	r0, [r3, #-1]
 6563              	.LVL478:
 246:../../libdaisy/src/dev/oled_ssd130x.h ****     }
 6564              		.loc 12 246 13 view .LVU1535
 6565              	.LBE2124:
 6566              	.LBE2129:
 6567              	.LBE2133:
 6568              	.LBE2138:
 6569              	.LBE2148:
 416:../../libdaisy/src/hid/disp/display.h ****             {
 6570              		.loc 3 416 13 is_stmt 1 view .LVU1536
 416:../../libdaisy/src/hid/disp/display.h ****             {
 6571              		.loc 3 416 26 view .LVU1537
 6572 0134 EDD1     		bne	.L442
 6573              	.LVL479:
 6574              	.L441:
 413:../../libdaisy/src/hid/disp/display.h ****         {
 6575              		.loc 3 413 9 view .LVU1538
 413:../../libdaisy/src/hid/disp/display.h ****         {
 6576              		.loc 3 413 22 view .LVU1539
 6577 0136 E245     		cmp	r10, ip
 6578 0138 04F10104 		add	r4, r4, #1
 6579 013c C9D1     		bne	.L438
 6580              	.LVL480:
 6581              	.L437:
 6582              	.LBB2149:
 6583              	.LBI2149:
 171:../../libdaisy/src/hid/disp/display.h ****     {
 6584              		.loc 3 171 10 view .LVU1540
 6585              	.LBB2150:
 173:../../libdaisy/src/hid/disp/display.h ****         currentY_ = (y >= Height()) ? Height() - 1 : y;
 6586              		.loc 3 173 9 view .LVU1541
 174:../../libdaisy/src/hid/disp/display.h ****     }
 6587              		.loc 3 174 19 is_stmt 0 view .LVU1542
 6588 013e 049A     		ldr	r2, [sp, #16]
 173:../../libdaisy/src/hid/disp/display.h ****         currentY_ = (y >= Height()) ? Height() - 1 : y;
 6589              		.loc 3 173 19 view .LVU1543
 6590 0140 BDF81430 		ldrh	r3, [sp, #20]
 174:../../libdaisy/src/hid/disp/display.h ****     }
 6591              		.loc 3 174 19 view .LVU1544
 6592 0144 3F2A     		cmp	r2, #63
 6593 0146 0899     		ldr	r1, [sp, #32]
 6594 0148 28BF     		it	cs
 6595 014a 3F22     		movcs	r2, #63
 173:../../libdaisy/src/hid/disp/display.h ****         currentY_ = (y >= Height()) ? Height() - 1 : y;
 6596              		.loc 3 173 19 view .LVU1545
 6597 014c 7F2B     		cmp	r3, #127
 174:../../libdaisy/src/hid/disp/display.h ****     }
 6598              		.loc 3 174 19 view .LVU1546
 6599 014e 0A80     		strh	r2, [r1]	@ movhi
 173:../../libdaisy/src/hid/disp/display.h ****         currentY_ = (y >= Height()) ? Height() - 1 : y;
 6600              		.loc 3 173 19 view .LVU1547
 6601 0150 28BF     		it	cs
 6602 0152 7F23     		movcs	r3, #127
 6603 0154 069A     		ldr	r2, [sp, #24]
ARM GAS  /tmp/ccobg3TQ.s 			page 211


 6604 0156 1380     		strh	r3, [r2]	@ movhi
 174:../../libdaisy/src/hid/disp/display.h ****     }
 6605              		.loc 3 174 9 is_stmt 1 view .LVU1548
 6606              	.LVL481:
 6607              	.L434:
 174:../../libdaisy/src/hid/disp/display.h ****     }
 6608              		.loc 3 174 9 is_stmt 0 view .LVU1549
 6609              	.LBE2150:
 6610              	.LBE2149:
 6611              	.LBE2115:
 6612              	.LBE2114:
 445:../../libdaisy/src/hid/disp/display.h ****                != *str)
 6613              		.loc 3 445 13 view .LVU1550
 6614 0158 039A     		ldr	r2, [sp, #12]
 6615 015a 1378     		ldrb	r3, [r2]	@ zero_extendqisi2
 6616 015c 4B45     		cmp	r3, r9
 6617 015e 05D1     		bne	.L443
 6618              	.LVL482:
 443:../../libdaisy/src/hid/disp/display.h ****         {
 6619              		.loc 3 443 9 is_stmt 1 view .LVU1551
 6620 0160 12F8019F 		ldrb	r9, [r2, #1]!	@ zero_extendqisi2
 6621              	.LVL483:
 443:../../libdaisy/src/hid/disp/display.h ****         {
 6622              		.loc 3 443 9 is_stmt 0 view .LVU1552
 6623 0164 0392     		str	r2, [sp, #12]
 6624 0166 B9F1000F 		cmp	r9, #0
 6625 016a 88D1     		bne	.L431
 6626              	.LVL484:
 6627              	.L443:
 443:../../libdaisy/src/hid/disp/display.h ****         {
 6628              		.loc 3 443 9 view .LVU1553
 6629              	.LBE2153:
 6630              	.LBE2112:
  82:SampleAndHold.cpp **** 
  83:SampleAndHold.cpp ****     //Cursor
  84:SampleAndHold.cpp ****     patch.display.SetCursor(menuPos * 60, 25);
 6631              		.loc 13 84 5 is_stmt 1 view .LVU1554
 6632              	.LBB2155:
 6633              	.LBI2155:
 171:../../libdaisy/src/hid/disp/display.h ****     {
 6634              		.loc 3 171 10 view .LVU1555
 6635              	.LBB2156:
 173:../../libdaisy/src/hid/disp/display.h ****         currentY_ = (y >= Height()) ? Height() - 1 : y;
 6636              		.loc 3 173 9 view .LVU1556
 6637              	.LBE2156:
 6638              	.LBE2155:
 6639              		.loc 13 84 28 is_stmt 0 view .LVU1557
 6640 016c 384B     		ldr	r3, .L525+16
 6641              	.LBB2160:
 6642              	.LBB2161:
 6643              	.LBB2162:
1071:/usr/include/newlib/c++/9.2.1/bits/basic_string.h ****       }
1072:/usr/include/newlib/c++/9.2.1/bits/basic_string.h **** 
1073:/usr/include/newlib/c++/9.2.1/bits/basic_string.h ****       /**
1074:/usr/include/newlib/c++/9.2.1/bits/basic_string.h ****        *  @brief  Provides access to the data contained in the %string.
1075:/usr/include/newlib/c++/9.2.1/bits/basic_string.h ****        *  @param __n The index of the character to access.
1076:/usr/include/newlib/c++/9.2.1/bits/basic_string.h ****        *  @return  Read-only (const) reference to the character.
ARM GAS  /tmp/ccobg3TQ.s 			page 212


1077:/usr/include/newlib/c++/9.2.1/bits/basic_string.h ****        *  @throw  std::out_of_range  If @a n is an invalid index.
1078:/usr/include/newlib/c++/9.2.1/bits/basic_string.h ****        *
1079:/usr/include/newlib/c++/9.2.1/bits/basic_string.h ****        *  This function provides for safer data access.  The parameter is
1080:/usr/include/newlib/c++/9.2.1/bits/basic_string.h ****        *  first checked that it is in the range of the string.  The function
1081:/usr/include/newlib/c++/9.2.1/bits/basic_string.h ****        *  throws out_of_range if the check fails.
1082:/usr/include/newlib/c++/9.2.1/bits/basic_string.h ****        */
1083:/usr/include/newlib/c++/9.2.1/bits/basic_string.h ****       const_reference
1084:/usr/include/newlib/c++/9.2.1/bits/basic_string.h ****       at(size_type __n) const
1085:/usr/include/newlib/c++/9.2.1/bits/basic_string.h ****       {
1086:/usr/include/newlib/c++/9.2.1/bits/basic_string.h **** 	if (__n >= this->size())
1087:/usr/include/newlib/c++/9.2.1/bits/basic_string.h **** 	  __throw_out_of_range_fmt(__N("basic_string::at: __n "
1088:/usr/include/newlib/c++/9.2.1/bits/basic_string.h **** 				       "(which is %zu) >= this->size() "
1089:/usr/include/newlib/c++/9.2.1/bits/basic_string.h **** 				       "(which is %zu)"),
1090:/usr/include/newlib/c++/9.2.1/bits/basic_string.h **** 				   __n, this->size());
1091:/usr/include/newlib/c++/9.2.1/bits/basic_string.h **** 	return _M_data()[__n];
1092:/usr/include/newlib/c++/9.2.1/bits/basic_string.h ****       }
1093:/usr/include/newlib/c++/9.2.1/bits/basic_string.h **** 
1094:/usr/include/newlib/c++/9.2.1/bits/basic_string.h ****       /**
1095:/usr/include/newlib/c++/9.2.1/bits/basic_string.h ****        *  @brief  Provides access to the data contained in the %string.
1096:/usr/include/newlib/c++/9.2.1/bits/basic_string.h ****        *  @param __n The index of the character to access.
1097:/usr/include/newlib/c++/9.2.1/bits/basic_string.h ****        *  @return  Read/write reference to the character.
1098:/usr/include/newlib/c++/9.2.1/bits/basic_string.h ****        *  @throw  std::out_of_range  If @a n is an invalid index.
1099:/usr/include/newlib/c++/9.2.1/bits/basic_string.h ****        *
1100:/usr/include/newlib/c++/9.2.1/bits/basic_string.h ****        *  This function provides for safer data access.  The parameter is
1101:/usr/include/newlib/c++/9.2.1/bits/basic_string.h ****        *  first checked that it is in the range of the string.  The function
1102:/usr/include/newlib/c++/9.2.1/bits/basic_string.h ****        *  throws out_of_range if the check fails.
1103:/usr/include/newlib/c++/9.2.1/bits/basic_string.h ****        */
1104:/usr/include/newlib/c++/9.2.1/bits/basic_string.h ****       reference
1105:/usr/include/newlib/c++/9.2.1/bits/basic_string.h ****       at(size_type __n)
1106:/usr/include/newlib/c++/9.2.1/bits/basic_string.h ****       {
1107:/usr/include/newlib/c++/9.2.1/bits/basic_string.h **** 	if (__n >= size())
1108:/usr/include/newlib/c++/9.2.1/bits/basic_string.h **** 	  __throw_out_of_range_fmt(__N("basic_string::at: __n "
1109:/usr/include/newlib/c++/9.2.1/bits/basic_string.h **** 				       "(which is %zu) >= this->size() "
1110:/usr/include/newlib/c++/9.2.1/bits/basic_string.h **** 				       "(which is %zu)"),
1111:/usr/include/newlib/c++/9.2.1/bits/basic_string.h **** 				   __n, this->size());
1112:/usr/include/newlib/c++/9.2.1/bits/basic_string.h **** 	return _M_data()[__n];
1113:/usr/include/newlib/c++/9.2.1/bits/basic_string.h ****       }
1114:/usr/include/newlib/c++/9.2.1/bits/basic_string.h **** 
1115:/usr/include/newlib/c++/9.2.1/bits/basic_string.h **** #if __cplusplus >= 201103L
1116:/usr/include/newlib/c++/9.2.1/bits/basic_string.h ****       /**
1117:/usr/include/newlib/c++/9.2.1/bits/basic_string.h ****        *  Returns a read/write reference to the data at the first
1118:/usr/include/newlib/c++/9.2.1/bits/basic_string.h ****        *  element of the %string.
1119:/usr/include/newlib/c++/9.2.1/bits/basic_string.h ****        */
1120:/usr/include/newlib/c++/9.2.1/bits/basic_string.h ****       reference
1121:/usr/include/newlib/c++/9.2.1/bits/basic_string.h ****       front() noexcept
1122:/usr/include/newlib/c++/9.2.1/bits/basic_string.h ****       {
1123:/usr/include/newlib/c++/9.2.1/bits/basic_string.h **** 	__glibcxx_assert(!empty());
1124:/usr/include/newlib/c++/9.2.1/bits/basic_string.h **** 	return operator[](0);
1125:/usr/include/newlib/c++/9.2.1/bits/basic_string.h ****       }
1126:/usr/include/newlib/c++/9.2.1/bits/basic_string.h **** 
1127:/usr/include/newlib/c++/9.2.1/bits/basic_string.h ****       /**
1128:/usr/include/newlib/c++/9.2.1/bits/basic_string.h ****        *  Returns a read-only (constant) reference to the data at the first
1129:/usr/include/newlib/c++/9.2.1/bits/basic_string.h ****        *  element of the %string.
1130:/usr/include/newlib/c++/9.2.1/bits/basic_string.h ****        */
1131:/usr/include/newlib/c++/9.2.1/bits/basic_string.h ****       const_reference
1132:/usr/include/newlib/c++/9.2.1/bits/basic_string.h ****       front() const noexcept
1133:/usr/include/newlib/c++/9.2.1/bits/basic_string.h ****       {
ARM GAS  /tmp/ccobg3TQ.s 			page 213


1134:/usr/include/newlib/c++/9.2.1/bits/basic_string.h **** 	__glibcxx_assert(!empty());
1135:/usr/include/newlib/c++/9.2.1/bits/basic_string.h **** 	return operator[](0);
1136:/usr/include/newlib/c++/9.2.1/bits/basic_string.h ****       }
1137:/usr/include/newlib/c++/9.2.1/bits/basic_string.h **** 
1138:/usr/include/newlib/c++/9.2.1/bits/basic_string.h ****       /**
1139:/usr/include/newlib/c++/9.2.1/bits/basic_string.h ****        *  Returns a read/write reference to the data at the last
1140:/usr/include/newlib/c++/9.2.1/bits/basic_string.h ****        *  element of the %string.
1141:/usr/include/newlib/c++/9.2.1/bits/basic_string.h ****        */
1142:/usr/include/newlib/c++/9.2.1/bits/basic_string.h ****       reference
1143:/usr/include/newlib/c++/9.2.1/bits/basic_string.h ****       back() noexcept
1144:/usr/include/newlib/c++/9.2.1/bits/basic_string.h ****       {
1145:/usr/include/newlib/c++/9.2.1/bits/basic_string.h **** 	__glibcxx_assert(!empty());
1146:/usr/include/newlib/c++/9.2.1/bits/basic_string.h **** 	return operator[](this->size() - 1);
1147:/usr/include/newlib/c++/9.2.1/bits/basic_string.h ****       }
1148:/usr/include/newlib/c++/9.2.1/bits/basic_string.h **** 
1149:/usr/include/newlib/c++/9.2.1/bits/basic_string.h ****       /**
1150:/usr/include/newlib/c++/9.2.1/bits/basic_string.h ****        *  Returns a read-only (constant) reference to the data at the
1151:/usr/include/newlib/c++/9.2.1/bits/basic_string.h ****        *  last element of the %string.
1152:/usr/include/newlib/c++/9.2.1/bits/basic_string.h ****        */
1153:/usr/include/newlib/c++/9.2.1/bits/basic_string.h ****       const_reference
1154:/usr/include/newlib/c++/9.2.1/bits/basic_string.h ****       back() const noexcept
1155:/usr/include/newlib/c++/9.2.1/bits/basic_string.h ****       {
1156:/usr/include/newlib/c++/9.2.1/bits/basic_string.h **** 	__glibcxx_assert(!empty());
1157:/usr/include/newlib/c++/9.2.1/bits/basic_string.h **** 	return operator[](this->size() - 1);
1158:/usr/include/newlib/c++/9.2.1/bits/basic_string.h ****       }
1159:/usr/include/newlib/c++/9.2.1/bits/basic_string.h **** #endif
1160:/usr/include/newlib/c++/9.2.1/bits/basic_string.h **** 
1161:/usr/include/newlib/c++/9.2.1/bits/basic_string.h ****       // Modifiers:
1162:/usr/include/newlib/c++/9.2.1/bits/basic_string.h ****       /**
1163:/usr/include/newlib/c++/9.2.1/bits/basic_string.h ****        *  @brief  Append a string to this string.
1164:/usr/include/newlib/c++/9.2.1/bits/basic_string.h ****        *  @param __str  The string to append.
1165:/usr/include/newlib/c++/9.2.1/bits/basic_string.h ****        *  @return  Reference to this string.
1166:/usr/include/newlib/c++/9.2.1/bits/basic_string.h ****        */
1167:/usr/include/newlib/c++/9.2.1/bits/basic_string.h ****       basic_string&
1168:/usr/include/newlib/c++/9.2.1/bits/basic_string.h ****       operator+=(const basic_string& __str)
1169:/usr/include/newlib/c++/9.2.1/bits/basic_string.h ****       { return this->append(__str); }
1170:/usr/include/newlib/c++/9.2.1/bits/basic_string.h **** 
1171:/usr/include/newlib/c++/9.2.1/bits/basic_string.h ****       /**
1172:/usr/include/newlib/c++/9.2.1/bits/basic_string.h ****        *  @brief  Append a C string.
1173:/usr/include/newlib/c++/9.2.1/bits/basic_string.h ****        *  @param __s  The C string to append.
1174:/usr/include/newlib/c++/9.2.1/bits/basic_string.h ****        *  @return  Reference to this string.
1175:/usr/include/newlib/c++/9.2.1/bits/basic_string.h ****        */
1176:/usr/include/newlib/c++/9.2.1/bits/basic_string.h ****       basic_string&
1177:/usr/include/newlib/c++/9.2.1/bits/basic_string.h ****       operator+=(const _CharT* __s)
1178:/usr/include/newlib/c++/9.2.1/bits/basic_string.h ****       { return this->append(__s); }
1179:/usr/include/newlib/c++/9.2.1/bits/basic_string.h **** 
1180:/usr/include/newlib/c++/9.2.1/bits/basic_string.h ****       /**
1181:/usr/include/newlib/c++/9.2.1/bits/basic_string.h ****        *  @brief  Append a character.
1182:/usr/include/newlib/c++/9.2.1/bits/basic_string.h ****        *  @param __c  The character to append.
1183:/usr/include/newlib/c++/9.2.1/bits/basic_string.h ****        *  @return  Reference to this string.
1184:/usr/include/newlib/c++/9.2.1/bits/basic_string.h ****        */
1185:/usr/include/newlib/c++/9.2.1/bits/basic_string.h ****       basic_string&
1186:/usr/include/newlib/c++/9.2.1/bits/basic_string.h ****       operator+=(_CharT __c)
1187:/usr/include/newlib/c++/9.2.1/bits/basic_string.h ****       {
1188:/usr/include/newlib/c++/9.2.1/bits/basic_string.h **** 	this->push_back(__c);
1189:/usr/include/newlib/c++/9.2.1/bits/basic_string.h **** 	return *this;
1190:/usr/include/newlib/c++/9.2.1/bits/basic_string.h ****       }
ARM GAS  /tmp/ccobg3TQ.s 			page 214


1191:/usr/include/newlib/c++/9.2.1/bits/basic_string.h **** 
1192:/usr/include/newlib/c++/9.2.1/bits/basic_string.h **** #if __cplusplus >= 201103L
1193:/usr/include/newlib/c++/9.2.1/bits/basic_string.h ****       /**
1194:/usr/include/newlib/c++/9.2.1/bits/basic_string.h ****        *  @brief  Append an initializer_list of characters.
1195:/usr/include/newlib/c++/9.2.1/bits/basic_string.h ****        *  @param __l  The initializer_list of characters to be appended.
1196:/usr/include/newlib/c++/9.2.1/bits/basic_string.h ****        *  @return  Reference to this string.
1197:/usr/include/newlib/c++/9.2.1/bits/basic_string.h ****        */
1198:/usr/include/newlib/c++/9.2.1/bits/basic_string.h ****       basic_string&
1199:/usr/include/newlib/c++/9.2.1/bits/basic_string.h ****       operator+=(initializer_list<_CharT> __l)
1200:/usr/include/newlib/c++/9.2.1/bits/basic_string.h ****       { return this->append(__l.begin(), __l.size()); }
1201:/usr/include/newlib/c++/9.2.1/bits/basic_string.h **** #endif // C++11
1202:/usr/include/newlib/c++/9.2.1/bits/basic_string.h **** 
1203:/usr/include/newlib/c++/9.2.1/bits/basic_string.h **** #if __cplusplus >= 201703L
1204:/usr/include/newlib/c++/9.2.1/bits/basic_string.h ****       /**
1205:/usr/include/newlib/c++/9.2.1/bits/basic_string.h ****        *  @brief  Append a string_view.
1206:/usr/include/newlib/c++/9.2.1/bits/basic_string.h ****        *  @param __svt  An object convertible to string_view to be appended.
1207:/usr/include/newlib/c++/9.2.1/bits/basic_string.h ****        *  @return  Reference to this string.
1208:/usr/include/newlib/c++/9.2.1/bits/basic_string.h ****        */
1209:/usr/include/newlib/c++/9.2.1/bits/basic_string.h ****       template<typename _Tp>
1210:/usr/include/newlib/c++/9.2.1/bits/basic_string.h **** 	_If_sv<_Tp, basic_string&>
1211:/usr/include/newlib/c++/9.2.1/bits/basic_string.h **** 	operator+=(const _Tp& __svt)
1212:/usr/include/newlib/c++/9.2.1/bits/basic_string.h **** 	{ return this->append(__svt); }
1213:/usr/include/newlib/c++/9.2.1/bits/basic_string.h **** #endif // C++17
1214:/usr/include/newlib/c++/9.2.1/bits/basic_string.h **** 
1215:/usr/include/newlib/c++/9.2.1/bits/basic_string.h ****       /**
1216:/usr/include/newlib/c++/9.2.1/bits/basic_string.h ****        *  @brief  Append a string to this string.
1217:/usr/include/newlib/c++/9.2.1/bits/basic_string.h ****        *  @param __str  The string to append.
1218:/usr/include/newlib/c++/9.2.1/bits/basic_string.h ****        *  @return  Reference to this string.
1219:/usr/include/newlib/c++/9.2.1/bits/basic_string.h ****        */
1220:/usr/include/newlib/c++/9.2.1/bits/basic_string.h ****       basic_string&
1221:/usr/include/newlib/c++/9.2.1/bits/basic_string.h ****       append(const basic_string& __str)
1222:/usr/include/newlib/c++/9.2.1/bits/basic_string.h ****       { return _M_append(__str._M_data(), __str.size()); }
1223:/usr/include/newlib/c++/9.2.1/bits/basic_string.h **** 
1224:/usr/include/newlib/c++/9.2.1/bits/basic_string.h ****       /**
1225:/usr/include/newlib/c++/9.2.1/bits/basic_string.h ****        *  @brief  Append a substring.
1226:/usr/include/newlib/c++/9.2.1/bits/basic_string.h ****        *  @param __str  The string to append.
1227:/usr/include/newlib/c++/9.2.1/bits/basic_string.h ****        *  @param __pos  Index of the first character of str to append.
1228:/usr/include/newlib/c++/9.2.1/bits/basic_string.h ****        *  @param __n  The number of characters to append.
1229:/usr/include/newlib/c++/9.2.1/bits/basic_string.h ****        *  @return  Reference to this string.
1230:/usr/include/newlib/c++/9.2.1/bits/basic_string.h ****        *  @throw  std::out_of_range if @a __pos is not a valid index.
1231:/usr/include/newlib/c++/9.2.1/bits/basic_string.h ****        *
1232:/usr/include/newlib/c++/9.2.1/bits/basic_string.h ****        *  This function appends @a __n characters from @a __str
1233:/usr/include/newlib/c++/9.2.1/bits/basic_string.h ****        *  starting at @a __pos to this string.  If @a __n is is larger
1234:/usr/include/newlib/c++/9.2.1/bits/basic_string.h ****        *  than the number of available characters in @a __str, the
1235:/usr/include/newlib/c++/9.2.1/bits/basic_string.h ****        *  remainder of @a __str is appended.
1236:/usr/include/newlib/c++/9.2.1/bits/basic_string.h ****        */
1237:/usr/include/newlib/c++/9.2.1/bits/basic_string.h ****       basic_string&
1238:/usr/include/newlib/c++/9.2.1/bits/basic_string.h ****       append(const basic_string& __str, size_type __pos, size_type __n = npos)
1239:/usr/include/newlib/c++/9.2.1/bits/basic_string.h ****       { return _M_append(__str._M_data()
1240:/usr/include/newlib/c++/9.2.1/bits/basic_string.h **** 			 + __str._M_check(__pos, "basic_string::append"),
1241:/usr/include/newlib/c++/9.2.1/bits/basic_string.h **** 			 __str._M_limit(__pos, __n)); }
1242:/usr/include/newlib/c++/9.2.1/bits/basic_string.h **** 
1243:/usr/include/newlib/c++/9.2.1/bits/basic_string.h ****       /**
1244:/usr/include/newlib/c++/9.2.1/bits/basic_string.h ****        *  @brief  Append a C substring.
1245:/usr/include/newlib/c++/9.2.1/bits/basic_string.h ****        *  @param __s  The C string to append.
1246:/usr/include/newlib/c++/9.2.1/bits/basic_string.h ****        *  @param __n  The number of characters to append.
1247:/usr/include/newlib/c++/9.2.1/bits/basic_string.h ****        *  @return  Reference to this string.
ARM GAS  /tmp/ccobg3TQ.s 			page 215


1248:/usr/include/newlib/c++/9.2.1/bits/basic_string.h ****        */
1249:/usr/include/newlib/c++/9.2.1/bits/basic_string.h ****       basic_string&
1250:/usr/include/newlib/c++/9.2.1/bits/basic_string.h ****       append(const _CharT* __s, size_type __n)
1251:/usr/include/newlib/c++/9.2.1/bits/basic_string.h ****       {
1252:/usr/include/newlib/c++/9.2.1/bits/basic_string.h **** 	__glibcxx_requires_string_len(__s, __n);
1253:/usr/include/newlib/c++/9.2.1/bits/basic_string.h **** 	_M_check_length(size_type(0), __n, "basic_string::append");
1254:/usr/include/newlib/c++/9.2.1/bits/basic_string.h **** 	return _M_append(__s, __n);
1255:/usr/include/newlib/c++/9.2.1/bits/basic_string.h ****       }
1256:/usr/include/newlib/c++/9.2.1/bits/basic_string.h **** 
1257:/usr/include/newlib/c++/9.2.1/bits/basic_string.h ****       /**
1258:/usr/include/newlib/c++/9.2.1/bits/basic_string.h ****        *  @brief  Append a C string.
1259:/usr/include/newlib/c++/9.2.1/bits/basic_string.h ****        *  @param __s  The C string to append.
1260:/usr/include/newlib/c++/9.2.1/bits/basic_string.h ****        *  @return  Reference to this string.
1261:/usr/include/newlib/c++/9.2.1/bits/basic_string.h ****        */
1262:/usr/include/newlib/c++/9.2.1/bits/basic_string.h ****       basic_string&
1263:/usr/include/newlib/c++/9.2.1/bits/basic_string.h ****       append(const _CharT* __s)
1264:/usr/include/newlib/c++/9.2.1/bits/basic_string.h ****       {
1265:/usr/include/newlib/c++/9.2.1/bits/basic_string.h **** 	__glibcxx_requires_string(__s);
1266:/usr/include/newlib/c++/9.2.1/bits/basic_string.h **** 	const size_type __n = traits_type::length(__s);
1267:/usr/include/newlib/c++/9.2.1/bits/basic_string.h **** 	_M_check_length(size_type(0), __n, "basic_string::append");
1268:/usr/include/newlib/c++/9.2.1/bits/basic_string.h **** 	return _M_append(__s, __n);
1269:/usr/include/newlib/c++/9.2.1/bits/basic_string.h ****       }
1270:/usr/include/newlib/c++/9.2.1/bits/basic_string.h **** 
1271:/usr/include/newlib/c++/9.2.1/bits/basic_string.h ****       /**
1272:/usr/include/newlib/c++/9.2.1/bits/basic_string.h ****        *  @brief  Append multiple characters.
1273:/usr/include/newlib/c++/9.2.1/bits/basic_string.h ****        *  @param __n  The number of characters to append.
1274:/usr/include/newlib/c++/9.2.1/bits/basic_string.h ****        *  @param __c  The character to use.
1275:/usr/include/newlib/c++/9.2.1/bits/basic_string.h ****        *  @return  Reference to this string.
1276:/usr/include/newlib/c++/9.2.1/bits/basic_string.h ****        *
1277:/usr/include/newlib/c++/9.2.1/bits/basic_string.h ****        *  Appends __n copies of __c to this string.
1278:/usr/include/newlib/c++/9.2.1/bits/basic_string.h ****        */
1279:/usr/include/newlib/c++/9.2.1/bits/basic_string.h ****       basic_string&
1280:/usr/include/newlib/c++/9.2.1/bits/basic_string.h ****       append(size_type __n, _CharT __c)
1281:/usr/include/newlib/c++/9.2.1/bits/basic_string.h ****       { return _M_replace_aux(this->size(), size_type(0), __n, __c); }
1282:/usr/include/newlib/c++/9.2.1/bits/basic_string.h **** 
1283:/usr/include/newlib/c++/9.2.1/bits/basic_string.h **** #if __cplusplus >= 201103L
1284:/usr/include/newlib/c++/9.2.1/bits/basic_string.h ****       /**
1285:/usr/include/newlib/c++/9.2.1/bits/basic_string.h ****        *  @brief  Append an initializer_list of characters.
1286:/usr/include/newlib/c++/9.2.1/bits/basic_string.h ****        *  @param __l  The initializer_list of characters to append.
1287:/usr/include/newlib/c++/9.2.1/bits/basic_string.h ****        *  @return  Reference to this string.
1288:/usr/include/newlib/c++/9.2.1/bits/basic_string.h ****        */
1289:/usr/include/newlib/c++/9.2.1/bits/basic_string.h ****       basic_string&
1290:/usr/include/newlib/c++/9.2.1/bits/basic_string.h ****       append(initializer_list<_CharT> __l)
1291:/usr/include/newlib/c++/9.2.1/bits/basic_string.h ****       { return this->append(__l.begin(), __l.size()); }
1292:/usr/include/newlib/c++/9.2.1/bits/basic_string.h **** #endif // C++11
1293:/usr/include/newlib/c++/9.2.1/bits/basic_string.h **** 
1294:/usr/include/newlib/c++/9.2.1/bits/basic_string.h ****       /**
1295:/usr/include/newlib/c++/9.2.1/bits/basic_string.h ****        *  @brief  Append a range of characters.
1296:/usr/include/newlib/c++/9.2.1/bits/basic_string.h ****        *  @param __first  Iterator referencing the first character to append.
1297:/usr/include/newlib/c++/9.2.1/bits/basic_string.h ****        *  @param __last  Iterator marking the end of the range.
1298:/usr/include/newlib/c++/9.2.1/bits/basic_string.h ****        *  @return  Reference to this string.
1299:/usr/include/newlib/c++/9.2.1/bits/basic_string.h ****        *
1300:/usr/include/newlib/c++/9.2.1/bits/basic_string.h ****        *  Appends characters in the range [__first,__last) to this string.
1301:/usr/include/newlib/c++/9.2.1/bits/basic_string.h ****        */
1302:/usr/include/newlib/c++/9.2.1/bits/basic_string.h **** #if __cplusplus >= 201103L
1303:/usr/include/newlib/c++/9.2.1/bits/basic_string.h ****       template<class _InputIterator,
1304:/usr/include/newlib/c++/9.2.1/bits/basic_string.h **** 	       typename = std::_RequireInputIter<_InputIterator>>
ARM GAS  /tmp/ccobg3TQ.s 			page 216


1305:/usr/include/newlib/c++/9.2.1/bits/basic_string.h **** #else
1306:/usr/include/newlib/c++/9.2.1/bits/basic_string.h ****       template<class _InputIterator>
1307:/usr/include/newlib/c++/9.2.1/bits/basic_string.h **** #endif
1308:/usr/include/newlib/c++/9.2.1/bits/basic_string.h ****         basic_string&
1309:/usr/include/newlib/c++/9.2.1/bits/basic_string.h ****         append(_InputIterator __first, _InputIterator __last)
1310:/usr/include/newlib/c++/9.2.1/bits/basic_string.h ****         { return this->replace(end(), end(), __first, __last); }
1311:/usr/include/newlib/c++/9.2.1/bits/basic_string.h **** 
1312:/usr/include/newlib/c++/9.2.1/bits/basic_string.h **** #if __cplusplus >= 201703L
1313:/usr/include/newlib/c++/9.2.1/bits/basic_string.h ****       /**
1314:/usr/include/newlib/c++/9.2.1/bits/basic_string.h ****        *  @brief  Append a string_view.
1315:/usr/include/newlib/c++/9.2.1/bits/basic_string.h ****        *  @param __svt  An object convertible to string_view to be appended.
1316:/usr/include/newlib/c++/9.2.1/bits/basic_string.h ****        *  @return  Reference to this string.
1317:/usr/include/newlib/c++/9.2.1/bits/basic_string.h ****        */
1318:/usr/include/newlib/c++/9.2.1/bits/basic_string.h ****       template<typename _Tp>
1319:/usr/include/newlib/c++/9.2.1/bits/basic_string.h ****         _If_sv<_Tp, basic_string&>
1320:/usr/include/newlib/c++/9.2.1/bits/basic_string.h ****         append(const _Tp& __svt)
1321:/usr/include/newlib/c++/9.2.1/bits/basic_string.h ****         {
1322:/usr/include/newlib/c++/9.2.1/bits/basic_string.h ****           __sv_type __sv = __svt;
1323:/usr/include/newlib/c++/9.2.1/bits/basic_string.h ****           return this->append(__sv.data(), __sv.size());
1324:/usr/include/newlib/c++/9.2.1/bits/basic_string.h ****         }
1325:/usr/include/newlib/c++/9.2.1/bits/basic_string.h **** 
1326:/usr/include/newlib/c++/9.2.1/bits/basic_string.h ****       /**
1327:/usr/include/newlib/c++/9.2.1/bits/basic_string.h ****        *  @brief  Append a range of characters from a string_view.
1328:/usr/include/newlib/c++/9.2.1/bits/basic_string.h ****        *  @param __svt  An object convertible to string_view to be appended from.
1329:/usr/include/newlib/c++/9.2.1/bits/basic_string.h ****        *  @param __pos The position in the string_view to append from.
1330:/usr/include/newlib/c++/9.2.1/bits/basic_string.h ****        *  @param __n   The number of characters to append from the string_view.
1331:/usr/include/newlib/c++/9.2.1/bits/basic_string.h ****        *  @return  Reference to this string.
1332:/usr/include/newlib/c++/9.2.1/bits/basic_string.h ****        */
1333:/usr/include/newlib/c++/9.2.1/bits/basic_string.h ****       template<typename _Tp>
1334:/usr/include/newlib/c++/9.2.1/bits/basic_string.h ****         _If_sv<_Tp, basic_string&>
1335:/usr/include/newlib/c++/9.2.1/bits/basic_string.h **** 	append(const _Tp& __svt, size_type __pos, size_type __n = npos)
1336:/usr/include/newlib/c++/9.2.1/bits/basic_string.h **** 	{
1337:/usr/include/newlib/c++/9.2.1/bits/basic_string.h **** 	  __sv_type __sv = __svt;
1338:/usr/include/newlib/c++/9.2.1/bits/basic_string.h **** 	  return _M_append(__sv.data()
1339:/usr/include/newlib/c++/9.2.1/bits/basic_string.h **** 	      + std::__sv_check(__sv.size(), __pos, "basic_string::append"),
1340:/usr/include/newlib/c++/9.2.1/bits/basic_string.h **** 	      std::__sv_limit(__sv.size(), __pos, __n));
1341:/usr/include/newlib/c++/9.2.1/bits/basic_string.h **** 	}
1342:/usr/include/newlib/c++/9.2.1/bits/basic_string.h **** #endif // C++17
1343:/usr/include/newlib/c++/9.2.1/bits/basic_string.h **** 
1344:/usr/include/newlib/c++/9.2.1/bits/basic_string.h ****       /**
1345:/usr/include/newlib/c++/9.2.1/bits/basic_string.h ****        *  @brief  Append a single character.
1346:/usr/include/newlib/c++/9.2.1/bits/basic_string.h ****        *  @param __c  Character to append.
1347:/usr/include/newlib/c++/9.2.1/bits/basic_string.h ****        */
1348:/usr/include/newlib/c++/9.2.1/bits/basic_string.h ****       void
1349:/usr/include/newlib/c++/9.2.1/bits/basic_string.h ****       push_back(_CharT __c)
1350:/usr/include/newlib/c++/9.2.1/bits/basic_string.h ****       {
1351:/usr/include/newlib/c++/9.2.1/bits/basic_string.h **** 	const size_type __size = this->size();
1352:/usr/include/newlib/c++/9.2.1/bits/basic_string.h **** 	if (__size + 1 > this->capacity())
1353:/usr/include/newlib/c++/9.2.1/bits/basic_string.h **** 	  this->_M_mutate(__size, size_type(0), 0, size_type(1));
1354:/usr/include/newlib/c++/9.2.1/bits/basic_string.h **** 	traits_type::assign(this->_M_data()[__size], __c);
1355:/usr/include/newlib/c++/9.2.1/bits/basic_string.h **** 	this->_M_set_length(__size + 1);
1356:/usr/include/newlib/c++/9.2.1/bits/basic_string.h ****       }
1357:/usr/include/newlib/c++/9.2.1/bits/basic_string.h **** 
1358:/usr/include/newlib/c++/9.2.1/bits/basic_string.h ****       /**
1359:/usr/include/newlib/c++/9.2.1/bits/basic_string.h ****        *  @brief  Set value to contents of another string.
1360:/usr/include/newlib/c++/9.2.1/bits/basic_string.h ****        *  @param  __str  Source string to use.
1361:/usr/include/newlib/c++/9.2.1/bits/basic_string.h ****        *  @return  Reference to this string.
ARM GAS  /tmp/ccobg3TQ.s 			page 217


1362:/usr/include/newlib/c++/9.2.1/bits/basic_string.h ****        */
1363:/usr/include/newlib/c++/9.2.1/bits/basic_string.h ****       basic_string&
1364:/usr/include/newlib/c++/9.2.1/bits/basic_string.h ****       assign(const basic_string& __str)
1365:/usr/include/newlib/c++/9.2.1/bits/basic_string.h ****       {
1366:/usr/include/newlib/c++/9.2.1/bits/basic_string.h **** 	this->_M_assign(__str);
1367:/usr/include/newlib/c++/9.2.1/bits/basic_string.h **** 	return *this;
1368:/usr/include/newlib/c++/9.2.1/bits/basic_string.h ****       }
1369:/usr/include/newlib/c++/9.2.1/bits/basic_string.h **** 
1370:/usr/include/newlib/c++/9.2.1/bits/basic_string.h **** #if __cplusplus >= 201103L
1371:/usr/include/newlib/c++/9.2.1/bits/basic_string.h ****       /**
1372:/usr/include/newlib/c++/9.2.1/bits/basic_string.h ****        *  @brief  Set value to contents of another string.
1373:/usr/include/newlib/c++/9.2.1/bits/basic_string.h ****        *  @param  __str  Source string to use.
1374:/usr/include/newlib/c++/9.2.1/bits/basic_string.h ****        *  @return  Reference to this string.
1375:/usr/include/newlib/c++/9.2.1/bits/basic_string.h ****        *
1376:/usr/include/newlib/c++/9.2.1/bits/basic_string.h ****        *  This function sets this string to the exact contents of @a __str.
1377:/usr/include/newlib/c++/9.2.1/bits/basic_string.h ****        *  @a __str is a valid, but unspecified string.
1378:/usr/include/newlib/c++/9.2.1/bits/basic_string.h ****        */
1379:/usr/include/newlib/c++/9.2.1/bits/basic_string.h ****       basic_string&
1380:/usr/include/newlib/c++/9.2.1/bits/basic_string.h ****       assign(basic_string&& __str)
1381:/usr/include/newlib/c++/9.2.1/bits/basic_string.h ****       noexcept(_Alloc_traits::_S_nothrow_move())
1382:/usr/include/newlib/c++/9.2.1/bits/basic_string.h ****       {
1383:/usr/include/newlib/c++/9.2.1/bits/basic_string.h **** 	// _GLIBCXX_RESOLVE_LIB_DEFECTS
1384:/usr/include/newlib/c++/9.2.1/bits/basic_string.h **** 	// 2063. Contradictory requirements for string move assignment
1385:/usr/include/newlib/c++/9.2.1/bits/basic_string.h **** 	return *this = std::move(__str);
1386:/usr/include/newlib/c++/9.2.1/bits/basic_string.h ****       }
1387:/usr/include/newlib/c++/9.2.1/bits/basic_string.h **** #endif // C++11
1388:/usr/include/newlib/c++/9.2.1/bits/basic_string.h **** 
1389:/usr/include/newlib/c++/9.2.1/bits/basic_string.h ****       /**
1390:/usr/include/newlib/c++/9.2.1/bits/basic_string.h ****        *  @brief  Set value to a substring of a string.
1391:/usr/include/newlib/c++/9.2.1/bits/basic_string.h ****        *  @param __str  The string to use.
1392:/usr/include/newlib/c++/9.2.1/bits/basic_string.h ****        *  @param __pos  Index of the first character of str.
1393:/usr/include/newlib/c++/9.2.1/bits/basic_string.h ****        *  @param __n  Number of characters to use.
1394:/usr/include/newlib/c++/9.2.1/bits/basic_string.h ****        *  @return  Reference to this string.
1395:/usr/include/newlib/c++/9.2.1/bits/basic_string.h ****        *  @throw  std::out_of_range if @a pos is not a valid index.
1396:/usr/include/newlib/c++/9.2.1/bits/basic_string.h ****        *
1397:/usr/include/newlib/c++/9.2.1/bits/basic_string.h ****        *  This function sets this string to the substring of @a __str
1398:/usr/include/newlib/c++/9.2.1/bits/basic_string.h ****        *  consisting of @a __n characters at @a __pos.  If @a __n is
1399:/usr/include/newlib/c++/9.2.1/bits/basic_string.h ****        *  is larger than the number of available characters in @a
1400:/usr/include/newlib/c++/9.2.1/bits/basic_string.h ****        *  __str, the remainder of @a __str is used.
1401:/usr/include/newlib/c++/9.2.1/bits/basic_string.h ****        */
1402:/usr/include/newlib/c++/9.2.1/bits/basic_string.h ****       basic_string&
1403:/usr/include/newlib/c++/9.2.1/bits/basic_string.h ****       assign(const basic_string& __str, size_type __pos, size_type __n = npos)
1404:/usr/include/newlib/c++/9.2.1/bits/basic_string.h ****       { return _M_replace(size_type(0), this->size(), __str._M_data()
1405:/usr/include/newlib/c++/9.2.1/bits/basic_string.h **** 			  + __str._M_check(__pos, "basic_string::assign"),
1406:/usr/include/newlib/c++/9.2.1/bits/basic_string.h **** 			  __str._M_limit(__pos, __n)); }
1407:/usr/include/newlib/c++/9.2.1/bits/basic_string.h **** 
1408:/usr/include/newlib/c++/9.2.1/bits/basic_string.h ****       /**
1409:/usr/include/newlib/c++/9.2.1/bits/basic_string.h ****        *  @brief  Set value to a C substring.
1410:/usr/include/newlib/c++/9.2.1/bits/basic_string.h ****        *  @param __s  The C string to use.
1411:/usr/include/newlib/c++/9.2.1/bits/basic_string.h ****        *  @param __n  Number of characters to use.
1412:/usr/include/newlib/c++/9.2.1/bits/basic_string.h ****        *  @return  Reference to this string.
1413:/usr/include/newlib/c++/9.2.1/bits/basic_string.h ****        *
1414:/usr/include/newlib/c++/9.2.1/bits/basic_string.h ****        *  This function sets the value of this string to the first @a __n
1415:/usr/include/newlib/c++/9.2.1/bits/basic_string.h ****        *  characters of @a __s.  If @a __n is is larger than the number of
1416:/usr/include/newlib/c++/9.2.1/bits/basic_string.h ****        *  available characters in @a __s, the remainder of @a __s is used.
1417:/usr/include/newlib/c++/9.2.1/bits/basic_string.h ****        */
1418:/usr/include/newlib/c++/9.2.1/bits/basic_string.h ****       basic_string&
ARM GAS  /tmp/ccobg3TQ.s 			page 218


1419:/usr/include/newlib/c++/9.2.1/bits/basic_string.h ****       assign(const _CharT* __s, size_type __n)
1420:/usr/include/newlib/c++/9.2.1/bits/basic_string.h ****       {
1421:/usr/include/newlib/c++/9.2.1/bits/basic_string.h **** 	__glibcxx_requires_string_len(__s, __n);
1422:/usr/include/newlib/c++/9.2.1/bits/basic_string.h **** 	return _M_replace(size_type(0), this->size(), __s, __n);
1423:/usr/include/newlib/c++/9.2.1/bits/basic_string.h ****       }
1424:/usr/include/newlib/c++/9.2.1/bits/basic_string.h **** 
1425:/usr/include/newlib/c++/9.2.1/bits/basic_string.h ****       /**
1426:/usr/include/newlib/c++/9.2.1/bits/basic_string.h ****        *  @brief  Set value to contents of a C string.
1427:/usr/include/newlib/c++/9.2.1/bits/basic_string.h ****        *  @param __s  The C string to use.
1428:/usr/include/newlib/c++/9.2.1/bits/basic_string.h ****        *  @return  Reference to this string.
1429:/usr/include/newlib/c++/9.2.1/bits/basic_string.h ****        *
1430:/usr/include/newlib/c++/9.2.1/bits/basic_string.h ****        *  This function sets the value of this string to the value of @a __s.
1431:/usr/include/newlib/c++/9.2.1/bits/basic_string.h ****        *  The data is copied, so there is no dependence on @a __s once the
1432:/usr/include/newlib/c++/9.2.1/bits/basic_string.h ****        *  function returns.
1433:/usr/include/newlib/c++/9.2.1/bits/basic_string.h ****        */
1434:/usr/include/newlib/c++/9.2.1/bits/basic_string.h ****       basic_string&
1435:/usr/include/newlib/c++/9.2.1/bits/basic_string.h ****       assign(const _CharT* __s)
1436:/usr/include/newlib/c++/9.2.1/bits/basic_string.h ****       {
1437:/usr/include/newlib/c++/9.2.1/bits/basic_string.h **** 	__glibcxx_requires_string(__s);
1438:/usr/include/newlib/c++/9.2.1/bits/basic_string.h **** 	return _M_replace(size_type(0), this->size(), __s,
1439:/usr/include/newlib/c++/9.2.1/bits/basic_string.h **** 			  traits_type::length(__s));
 6644              		.loc 20 1439 30 view .LVU1558
 6645 016e 0121     		movs	r1, #1
 6646              	.LBE2162:
 6647              	.LBE2161:
 6648              	.LBE2160:
 6649              	.LBB2172:
 6650              	.LBB2157:
 174:../../libdaisy/src/hid/disp/display.h ****     }
 6651              		.loc 3 174 19 view .LVU1559
 6652 0170 49F2AA12 		movw	r2, #37290
 6653 0174 1920     		movs	r0, #25
 6654              	.LBE2157:
 6655              	.LBE2172:
 6656              		.loc 13 84 28 view .LVU1560
 6657 0176 1C68     		ldr	r4, [r3]
 6658              	.LBB2173:
 6659              	.LBB2158:
 173:../../libdaisy/src/hid/disp/display.h ****         currentY_ = (y >= Height()) ? Height() - 1 : y;
 6660              		.loc 3 173 19 view .LVU1561
 6661 0178 49F2A815 		movw	r5, #37288
 174:../../libdaisy/src/hid/disp/display.h ****     }
 6662              		.loc 3 174 19 view .LVU1562
 6663 017c 2BF80200 		strh	r0, [fp, r2]	@ movhi
 6664              	.LBE2158:
 6665              	.LBE2173:
 6666              	.LBB2174:
 6667              	.LBB2167:
 6668              	.LBB2163:
 6669              		.loc 20 1439 30 view .LVU1563
 6670 0180 0CA8     		add	r0, sp, #48
 6671              	.LVL485:
 6672              		.loc 20 1439 30 view .LVU1564
 6673              	.LBE2163:
 6674              	.LBE2167:
 6675              	.LBE2174:
 6676              		.loc 13 84 28 view .LVU1565
ARM GAS  /tmp/ccobg3TQ.s 			page 219


 6677 0182 C4EB0414 		rsb	r4, r4, r4, lsl #4
 6678              	.LBB2175:
 6679              	.LBB2168:
 6680              	.LBB2164:
 6681              		.loc 20 1439 30 view .LVU1566
 6682 0186 334B     		ldr	r3, .L525+20
 6683 0188 0D9A     		ldr	r2, [sp, #52]
 6684              	.LBE2164:
 6685              	.LBE2168:
 6686              	.LBE2175:
 6687              		.loc 13 84 28 view .LVU1567
 6688 018a A400     		lsls	r4, r4, #2
 6689              	.LBB2176:
 6690              	.LBB2169:
 6691              	.LBB2165:
 6692              		.loc 20 1439 30 view .LVU1568
 6693 018c 0091     		str	r1, [sp]
 6694 018e 0021     		movs	r1, #0
 6695              	.LBE2165:
 6696              	.LBE2169:
 6697              	.LBE2176:
 6698              	.LBB2177:
 6699              	.LBB2159:
 173:../../libdaisy/src/hid/disp/display.h ****         currentY_ = (y >= Height()) ? Height() - 1 : y;
 6700              		.loc 3 173 19 view .LVU1569
 6701 0190 A4B2     		uxth	r4, r4
 6702 0192 7F2C     		cmp	r4, #127
 6703 0194 28BF     		it	cs
 6704 0196 7F24     		movcs	r4, #127
 6705 0198 2BF80540 		strh	r4, [fp, r5]	@ movhi
 174:../../libdaisy/src/hid/disp/display.h ****     }
 6706              		.loc 3 174 9 is_stmt 1 view .LVU1570
 6707              	.LVL486:
 174:../../libdaisy/src/hid/disp/display.h ****     }
 6708              		.loc 3 174 9 is_stmt 0 view .LVU1571
 6709              	.LBE2159:
 6710              	.LBE2177:
  85:SampleAndHold.cpp ****     str = "o";
 6711              		.loc 13 85 5 is_stmt 1 view .LVU1572
 6712              	.LBB2178:
 6713              	.LBI2160:
 704:/usr/include/newlib/c++/9.2.1/bits/basic_string.h ****       { return this->assign(__s); }
 6714              		.loc 20 704 7 view .LVU1573
 6715              	.LBB2170:
 6716              	.LBI2161:
1435:/usr/include/newlib/c++/9.2.1/bits/basic_string.h ****       {
 6717              		.loc 20 1435 7 view .LVU1574
1435:/usr/include/newlib/c++/9.2.1/bits/basic_string.h ****       {
 6718              		.loc 20 1435 7 is_stmt 0 view .LVU1575
 6719              	.LBE2170:
 6720              	.LBE2178:
 335:/usr/include/newlib/c++/9.2.1/bits/char_traits.h ****       }
 6721              		.loc 22 335 2 is_stmt 1 view .LVU1576
 6722              	.LBB2179:
 6723              	.LBB2171:
 6724              	.LBB2166:
 6725              		.loc 20 1439 30 is_stmt 0 view .LVU1577
ARM GAS  /tmp/ccobg3TQ.s 			page 220


 6726 019c FFF7FEFF 		bl	_ZNSt7__cxx1112basic_stringIcSt11char_traitsIcESaIcEE10_M_replaceEjjPKcj
 6727              	.LVL487:
 6728              		.loc 20 1439 30 view .LVU1578
 6729              	.LBE2166:
 6730              	.LBE2171:
 6731              	.LBE2179:
  86:SampleAndHold.cpp ****     patch.display.WriteString(cstr, Font_7x10, true);
 6732              		.loc 13 86 5 is_stmt 1 view .LVU1579
 6733              		.loc 13 86 5 is_stmt 0 view .LVU1580
 6734 01a0 2D4B     		ldr	r3, .L525+24
 6735              	.LBB2180:
 6736              	.LBB2181:
 443:../../libdaisy/src/hid/disp/display.h ****         {
 6737              		.loc 3 443 9 view .LVU1581
 6738 01a2 029A     		ldr	r2, [sp, #8]
 6739 01a4 5978     		ldrb	r1, [r3, #1]	@ zero_extendqisi2
 6740 01a6 93F800A0 		ldrb	r10, [r3]	@ zero_extendqisi2
 6741              	.LVL488:
 443:../../libdaisy/src/hid/disp/display.h ****         {
 6742              		.loc 3 443 9 view .LVU1582
 6743 01aa 92F80090 		ldrb	r9, [r2]	@ zero_extendqisi2
 6744 01ae 5B68     		ldr	r3, [r3, #4]
 6745 01b0 0791     		str	r1, [sp, #28]
 6746              	.LVL489:
 443:../../libdaisy/src/hid/disp/display.h ****         {
 6747              		.loc 3 443 9 view .LVU1583
 6748 01b2 0993     		str	r3, [sp, #36]
 6749              	.LVL490:
 443:../../libdaisy/src/hid/disp/display.h ****         {
 6750              		.loc 3 443 9 view .LVU1584
 6751              	.LBE2181:
 6752              	.LBI2180:
 440:../../libdaisy/src/hid/disp/display.h ****     {
 6753              		.loc 3 440 10 is_stmt 1 view .LVU1585
 6754              	.LBB2221:
 443:../../libdaisy/src/hid/disp/display.h ****         {
 6755              		.loc 3 443 9 view .LVU1586
 6756 01b4 B9F1000F 		cmp	r9, #0
 6757 01b8 00F08C80 		beq	.L432
 6758 01bc 5646     		mov	r6, r10
 6759 01be 0392     		str	r2, [sp, #12]
 6760              	.LVL491:
 6761              	.L433:
 6762              	.LBB2182:
 6763              	.LBI2182:
 396:../../libdaisy/src/hid/disp/display.h ****     {
 6764              		.loc 3 396 10 view .LVU1587
 6765              	.LBB2183:
 401:../../libdaisy/src/hid/disp/display.h ****             return 0;
 6766              		.loc 3 401 20 is_stmt 0 view .LVU1588
 6767 01c0 A9F12003 		sub	r3, r9, #32
 401:../../libdaisy/src/hid/disp/display.h ****             return 0;
 6768              		.loc 3 401 9 view .LVU1589
 6769 01c4 DAB2     		uxtb	r2, r3
 6770 01c6 5E2A     		cmp	r2, #94
 6771 01c8 00F21082 		bhi	.L488
 6772              	.LVL492:
ARM GAS  /tmp/ccobg3TQ.s 			page 221


 405:../../libdaisy/src/hid/disp/display.h ****            || Height() < (currentY_ + font.FontHeight))
 6773              		.loc 3 405 23 view .LVU1590
 6774 01cc 1F4A     		ldr	r2, .L525+12
 6775 01ce B2F800E0 		ldrh	lr, [r2]
 6776 01d2 0692     		str	r2, [sp, #24]
 405:../../libdaisy/src/hid/disp/display.h ****            || Height() < (currentY_ + font.FontHeight))
 6777              		.loc 3 405 33 view .LVU1591
 6778 01d4 0EEB0601 		add	r1, lr, r6
 406:../../libdaisy/src/hid/disp/display.h ****         {
 6779              		.loc 3 406 12 view .LVU1592
 6780 01d8 8029     		cmp	r1, #128
 405:../../libdaisy/src/hid/disp/display.h ****            || Height() < (currentY_ + font.FontHeight))
 6781              		.loc 3 405 33 view .LVU1593
 6782 01da 0591     		str	r1, [sp, #20]
 406:../../libdaisy/src/hid/disp/display.h ****         {
 6783              		.loc 3 406 12 view .LVU1594
 6784 01dc 00F30682 		bgt	.L488
 6785              	.LVL493:
 406:../../libdaisy/src/hid/disp/display.h ****         {
 6786              		.loc 3 406 27 view .LVU1595
 6787 01e0 5188     		ldrh	r1, [r2, #2]
 6788 01e2 0232     		adds	r2, r2, #2
 406:../../libdaisy/src/hid/disp/display.h ****         {
 6789              		.loc 3 406 37 view .LVU1596
 6790 01e4 0798     		ldr	r0, [sp, #28]
 406:../../libdaisy/src/hid/disp/display.h ****         {
 6791              		.loc 3 406 27 view .LVU1597
 6792 01e6 0892     		str	r2, [sp, #32]
 406:../../libdaisy/src/hid/disp/display.h ****         {
 6793              		.loc 3 406 37 view .LVU1598
 6794 01e8 0A18     		adds	r2, r1, r0
 406:../../libdaisy/src/hid/disp/display.h ****         {
 6795              		.loc 3 406 27 view .LVU1599
 6796 01ea 0491     		str	r1, [sp, #16]
 406:../../libdaisy/src/hid/disp/display.h ****         {
 6797              		.loc 3 406 12 view .LVU1600
 6798 01ec 402A     		cmp	r2, #64
 6799 01ee 00F3FD81 		bgt	.L488
 6800              	.LVL494:
 413:../../libdaisy/src/hid/disp/display.h ****         {
 6801              		.loc 3 413 22 is_stmt 1 view .LVU1601
 6802 01f2 0028     		cmp	r0, #0
 6803 01f4 56D0     		beq	.L449
 415:../../libdaisy/src/hid/disp/display.h ****             for(j = 0; j < font.FontWidth; j++)
 6804              		.loc 3 415 37 is_stmt 0 view .LVU1602
 6805 01f6 079A     		ldr	r2, [sp, #28]
 6806 01f8 6FF0004C 		mvn	ip, #-2147483648
 6807 01fc 0999     		ldr	r1, [sp, #36]
 6808 01fe 02FB03F3 		mul	r3, r2, r3
 6809 0202 049C     		ldr	r4, [sp, #16]
 6810 0204 A1F1020A 		sub	r10, r1, #2
 6811 0208 9C44     		add	ip, ip, r3
 6812 020a 1344     		add	r3, r3, r2
 6813 020c 01EB4C0C 		add	ip, r1, ip, lsl #1
 6814 0210 0AEB430A 		add	r10, r10, r3, lsl #1
 6815              	.LVL495:
 6816              	.L450:
ARM GAS  /tmp/ccobg3TQ.s 			page 222


 415:../../libdaisy/src/hid/disp/display.h ****             for(j = 0; j < font.FontWidth; j++)
 6817              		.loc 3 415 13 view .LVU1603
 6818 0214 3CF8027F 		ldrh	r7, [ip, #2]!
 6819              	.LVL496:
 416:../../libdaisy/src/hid/disp/display.h ****             {
 6820              		.loc 3 416 26 is_stmt 1 view .LVU1604
 6821 0218 002E     		cmp	r6, #0
 6822 021a 3FD0     		beq	.L453
 6823              	.LBB2184:
 6824              	.LBB2185:
 6825              	.LBB2186:
 6826              	.LBB2187:
 6827              	.LBB2188:
 246:../../libdaisy/src/dev/oled_ssd130x.h ****     }
 6828              		.loc 12 246 55 is_stmt 0 view .LVU1605
 6829 021c 04F00702 		and	r2, r4, #7
 246:../../libdaisy/src/dev/oled_ssd130x.h ****     }
 6830              		.loc 12 246 49 view .LVU1606
 6831 0220 0125     		movs	r5, #1
 6832 0222 49F2B810 		movw	r0, #37304
 246:../../libdaisy/src/dev/oled_ssd130x.h ****     }
 6833              		.loc 12 246 28 view .LVU1607
 6834 0226 E308     		lsrs	r3, r4, #3
 246:../../libdaisy/src/dev/oled_ssd130x.h ****     }
 6835              		.loc 12 246 49 view .LVU1608
 6836 0228 9540     		lsls	r5, r5, r2
 6837 022a 7146     		mov	r1, lr
 6838 022c 7044     		add	r0, r0, lr
 6839              	.LBE2188:
 6840              	.LBE2187:
 6841              	.LBE2186:
 6842              	.LBE2185:
 6843              	.LBE2184:
 416:../../libdaisy/src/hid/disp/display.h ****             {
 6844              		.loc 3 416 19 view .LVU1609
 6845 022e 0022     		movs	r2, #0
 6846              	.LBB2207:
 6847              	.LBB2202:
 6848              	.LBB2198:
 6849              	.LBB2193:
 6850              	.LBB2189:
 246:../../libdaisy/src/dev/oled_ssd130x.h ****     }
 6851              		.loc 12 246 42 view .LVU1610
 6852 0230 6DB2     		sxtb	r5, r5
 6853 0232 00EBC313 		add	r3, r0, r3, lsl #7
 6854 0236 6FEA0508 		mvn	r8, r5
 6855 023a 5B44     		add	r3, r3, fp
 6856 023c 1CE0     		b	.L454
 6857              	.L526:
 6858 023e 00BF     		.align	2
 6859              	.L525:
 6860 0240 B7910000 		.word	patch+37303
 6861 0244 08000000 		.word	.LC4
 6862 0248 00000000 		.word	Font_6x8
 6863 024c A8910000 		.word	patch+37288
 6864 0250 00000000 		.word	.LANCHOR1
 6865 0254 20000000 		.word	.LC5
ARM GAS  /tmp/ccobg3TQ.s 			page 223


 6866 0258 00000000 		.word	Font_7x10
 6867 025c 00000000 		.word	patch
 6868              	.LVL497:
 6869              	.L522:
 246:../../libdaisy/src/dev/oled_ssd130x.h ****     }
 6870              		.loc 12 246 42 view .LVU1611
 6871              	.LBE2189:
 6872              	.LBE2193:
 6873              	.LBE2198:
 6874              	.LBE2202:
 6875              	.LBE2207:
 6876              	.LBB2208:
 6877              	.LBB2209:
 6878              	.LBB2210:
 241:../../libdaisy/src/dev/oled_ssd130x.h ****             return;
 6879              		.loc 12 241 9 view .LVU1612
 6880 0260 7F29     		cmp	r1, #127
 6881 0262 04D8     		bhi	.L452
 6882 0264 3F2C     		cmp	r4, #63
 6883 0266 02D8     		bhi	.L452
 244:../../libdaisy/src/dev/oled_ssd130x.h ****         else
 6884              		.loc 12 244 42 view .LVU1613
 6885 0268 1878     		ldrb	r0, [r3]	@ zero_extendqisi2
 6886 026a 2843     		orrs	r0, r0, r5
 244:../../libdaisy/src/dev/oled_ssd130x.h ****         else
 6887              		.loc 12 244 13 view .LVU1614
 6888 026c 1870     		strb	r0, [r3]
 6889              	.L452:
 6890              	.LVL498:
 244:../../libdaisy/src/dev/oled_ssd130x.h ****         else
 6891              		.loc 12 244 13 view .LVU1615
 6892              	.LBE2210:
 6893              	.LBE2209:
 6894              	.LBE2208:
 416:../../libdaisy/src/hid/disp/display.h ****             {
 6895              		.loc 3 416 13 is_stmt 1 view .LVU1616
 6896 026e 0132     		adds	r2, r2, #1
 6897              	.LVL499:
 416:../../libdaisy/src/hid/disp/display.h ****             {
 6898              		.loc 3 416 26 view .LVU1617
 6899 0270 0133     		adds	r3, r3, #1
 6900 0272 0131     		adds	r1, r1, #1
 6901 0274 9642     		cmp	r6, r2
 6902 0276 11D0     		beq	.L453
 6903              	.LVL500:
 6904              	.L454:
 6905              	.LBB2212:
 6906              	.LBI2208:
  41:../../libdaisy/src/hid/disp/oled_display.h ****     {
 6907              		.loc 2 41 10 view .LVU1618
 6908              	.LBB2211:
 6909              	.LBI2209:
 239:../../libdaisy/src/dev/oled_ssd130x.h ****     {
 6910              		.loc 12 239 10 view .LVU1619
 239:../../libdaisy/src/dev/oled_ssd130x.h ****     {
 6911              		.loc 12 239 10 is_stmt 0 view .LVU1620
 6912              	.LBE2211:
ARM GAS  /tmp/ccobg3TQ.s 			page 224


 6913              	.LBE2212:
 6914              	.LBB2213:
 6915              	.LBI2184:
  41:../../libdaisy/src/hid/disp/oled_display.h ****     {
 6916              		.loc 2 41 10 is_stmt 1 view .LVU1621
 6917              	.LBB2203:
 6918              	.LBI2185:
 239:../../libdaisy/src/dev/oled_ssd130x.h ****     {
 6919              		.loc 12 239 10 view .LVU1622
 6920              	.LBE2203:
 6921              	.LBE2213:
 418:../../libdaisy/src/hid/disp/display.h ****                 {
 6922              		.loc 3 418 23 is_stmt 0 view .LVU1623
 6923 0278 07FA02F0 		lsl	r0, r7, r2
 418:../../libdaisy/src/hid/disp/display.h ****                 {
 6924              		.loc 3 418 17 view .LVU1624
 6925 027c 0004     		lsls	r0, r0, #16
 6926 027e EFD4     		bmi	.L522
 6927              	.LVL501:
 6928              	.LBB2214:
 6929              	.LBB2204:
 6930              	.LBB2199:
 6931              	.LBB2194:
 6932              	.LBI2187:
 239:../../libdaisy/src/dev/oled_ssd130x.h ****     {
 6933              		.loc 12 239 10 is_stmt 1 view .LVU1625
 239:../../libdaisy/src/dev/oled_ssd130x.h ****     {
 6934              		.loc 12 239 10 is_stmt 0 view .LVU1626
 6935              	.LBE2194:
 241:../../libdaisy/src/dev/oled_ssd130x.h ****             return;
 6936              		.loc 12 241 9 view .LVU1627
 6937 0280 7F29     		cmp	r1, #127
 6938 0282 F4D8     		bhi	.L452
 6939 0284 3F2C     		cmp	r4, #63
 6940 0286 F2D8     		bhi	.L452
 6941              	.LBB2195:
 6942              	.LBB2190:
 246:../../libdaisy/src/dev/oled_ssd130x.h ****     }
 6943              		.loc 12 246 42 view .LVU1628
 6944 0288 1878     		ldrb	r0, [r3]	@ zero_extendqisi2
 6945              	.LBE2190:
 6946              	.LBE2195:
 6947              	.LBE2199:
 6948              	.LBE2204:
 6949              	.LBE2214:
 416:../../libdaisy/src/hid/disp/display.h ****             {
 6950              		.loc 3 416 13 view .LVU1629
 6951 028a 0132     		adds	r2, r2, #1
 6952              	.LVL502:
 416:../../libdaisy/src/hid/disp/display.h ****             {
 6953              		.loc 3 416 13 view .LVU1630
 6954 028c 0133     		adds	r3, r3, #1
 6955 028e 0131     		adds	r1, r1, #1
 6956              	.LBB2215:
 6957              	.LBB2205:
 6958              	.LBB2200:
 6959              	.LBB2196:
ARM GAS  /tmp/ccobg3TQ.s 			page 225


 6960              	.LBB2191:
 246:../../libdaisy/src/dev/oled_ssd130x.h ****     }
 6961              		.loc 12 246 42 view .LVU1631
 6962 0290 08EA0000 		and	r0, r8, r0
 6963              	.LBE2191:
 6964              	.LBE2196:
 6965              	.LBE2200:
 6966              	.LBE2205:
 6967              	.LBE2215:
 416:../../libdaisy/src/hid/disp/display.h ****             {
 6968              		.loc 3 416 26 view .LVU1632
 6969 0294 9642     		cmp	r6, r2
 6970              	.LBB2216:
 6971              	.LBB2206:
 6972              	.LBB2201:
 6973              	.LBB2197:
 6974              	.LBB2192:
 246:../../libdaisy/src/dev/oled_ssd130x.h ****     }
 6975              		.loc 12 246 13 view .LVU1633
 6976 0296 03F8010C 		strb	r0, [r3, #-1]
 6977              	.LVL503:
 246:../../libdaisy/src/dev/oled_ssd130x.h ****     }
 6978              		.loc 12 246 13 view .LVU1634
 6979              	.LBE2192:
 6980              	.LBE2197:
 6981              	.LBE2201:
 6982              	.LBE2206:
 6983              	.LBE2216:
 416:../../libdaisy/src/hid/disp/display.h ****             {
 6984              		.loc 3 416 13 is_stmt 1 view .LVU1635
 416:../../libdaisy/src/hid/disp/display.h ****             {
 6985              		.loc 3 416 26 view .LVU1636
 6986 029a EDD1     		bne	.L454
 6987              	.LVL504:
 6988              	.L453:
 413:../../libdaisy/src/hid/disp/display.h ****         {
 6989              		.loc 3 413 9 view .LVU1637
 413:../../libdaisy/src/hid/disp/display.h ****         {
 6990              		.loc 3 413 22 view .LVU1638
 6991 029c D445     		cmp	ip, r10
 6992 029e 04F10104 		add	r4, r4, #1
 6993 02a2 B7D1     		bne	.L450
 6994              	.LVL505:
 6995              	.L449:
 6996              	.LBB2217:
 6997              	.LBI2217:
 171:../../libdaisy/src/hid/disp/display.h ****     {
 6998              		.loc 3 171 10 view .LVU1639
 6999              	.LBB2218:
 173:../../libdaisy/src/hid/disp/display.h ****         currentY_ = (y >= Height()) ? Height() - 1 : y;
 7000              		.loc 3 173 9 view .LVU1640
 174:../../libdaisy/src/hid/disp/display.h ****     }
 7001              		.loc 3 174 19 is_stmt 0 view .LVU1641
 7002 02a4 049A     		ldr	r2, [sp, #16]
 173:../../libdaisy/src/hid/disp/display.h ****         currentY_ = (y >= Height()) ? Height() - 1 : y;
 7003              		.loc 3 173 19 view .LVU1642
 7004 02a6 BDF81430 		ldrh	r3, [sp, #20]
ARM GAS  /tmp/ccobg3TQ.s 			page 226


 174:../../libdaisy/src/hid/disp/display.h ****     }
 7005              		.loc 3 174 19 view .LVU1643
 7006 02aa 3F2A     		cmp	r2, #63
 7007 02ac 0899     		ldr	r1, [sp, #32]
 7008 02ae 28BF     		it	cs
 7009 02b0 3F22     		movcs	r2, #63
 173:../../libdaisy/src/hid/disp/display.h ****         currentY_ = (y >= Height()) ? Height() - 1 : y;
 7010              		.loc 3 173 19 view .LVU1644
 7011 02b2 7F2B     		cmp	r3, #127
 174:../../libdaisy/src/hid/disp/display.h ****     }
 7012              		.loc 3 174 19 view .LVU1645
 7013 02b4 0A80     		strh	r2, [r1]	@ movhi
 173:../../libdaisy/src/hid/disp/display.h ****         currentY_ = (y >= Height()) ? Height() - 1 : y;
 7014              		.loc 3 173 19 view .LVU1646
 7015 02b6 28BF     		it	cs
 7016 02b8 7F23     		movcs	r3, #127
 7017 02ba 069A     		ldr	r2, [sp, #24]
 7018 02bc 1380     		strh	r3, [r2]	@ movhi
 174:../../libdaisy/src/hid/disp/display.h ****     }
 7019              		.loc 3 174 9 is_stmt 1 view .LVU1647
 7020              	.LVL506:
 7021              	.L446:
 174:../../libdaisy/src/hid/disp/display.h ****     }
 7022              		.loc 3 174 9 is_stmt 0 view .LVU1648
 7023              	.LBE2218:
 7024              	.LBE2217:
 7025              	.LBE2183:
 7026              	.LBE2182:
 445:../../libdaisy/src/hid/disp/display.h ****                != *str)
 7027              		.loc 3 445 13 view .LVU1649
 7028 02be 039A     		ldr	r2, [sp, #12]
 7029 02c0 1378     		ldrb	r3, [r2]	@ zero_extendqisi2
 7030 02c2 4B45     		cmp	r3, r9
 7031 02c4 06D1     		bne	.L432
 7032              	.LVL507:
 443:../../libdaisy/src/hid/disp/display.h ****         {
 7033              		.loc 3 443 9 is_stmt 1 view .LVU1650
 7034 02c6 12F8019F 		ldrb	r9, [r2, #1]!	@ zero_extendqisi2
 7035              	.LVL508:
 443:../../libdaisy/src/hid/disp/display.h ****         {
 7036              		.loc 3 443 9 is_stmt 0 view .LVU1651
 7037 02ca 0392     		str	r2, [sp, #12]
 7038 02cc B9F1000F 		cmp	r9, #0
 7039 02d0 7FF476AF 		bne	.L433
 7040              	.LVL509:
 7041              	.L432:
 443:../../libdaisy/src/hid/disp/display.h ****         {
 7042              		.loc 3 443 9 view .LVU1652
 7043              	.LBE2221:
 7044              	.LBE2180:
  87:SampleAndHold.cpp **** 
  88:SampleAndHold.cpp ****     //two circuits
  89:SampleAndHold.cpp ****     patch.display.SetCursor(0, 35);
 7045              		.loc 13 89 5 is_stmt 1 view .LVU1653
 7046              	.LBB2223:
 7047              	.LBI2223:
 171:../../libdaisy/src/hid/disp/display.h ****     {
ARM GAS  /tmp/ccobg3TQ.s 			page 227


 7048              		.loc 3 171 10 view .LVU1654
 7049              	.LBB2224:
 173:../../libdaisy/src/hid/disp/display.h ****         currentY_ = (y >= Height()) ? Height() - 1 : y;
 7050              		.loc 3 173 9 view .LVU1655
 174:../../libdaisy/src/hid/disp/display.h ****     }
 7051              		.loc 3 174 9 view .LVU1656
 174:../../libdaisy/src/hid/disp/display.h ****     }
 7052              		.loc 3 174 9 is_stmt 0 view .LVU1657
 7053              	.LBE2224:
 7054              	.LBE2223:
  90:SampleAndHold.cpp ****     str = sampHolds[0].mode == 0 ? "S&H" : "T&H";
 7055              		.loc 13 90 44 view .LVU1658
 7056 02d4 B94A     		ldr	r2, .L527
 7057              	.LBB2228:
 7058              	.LBB2225:
 173:../../libdaisy/src/hid/disp/display.h ****         currentY_ = (y >= Height()) ? Height() - 1 : y;
 7059              		.loc 3 173 19 view .LVU1659
 7060 02d6 49F2A810 		movw	r0, #37288
 7061              	.LBE2225:
 7062              	.LBE2228:
 7063              	.LBB2229:
 7064              	.LBB2230:
 7065              	.LBB2231:
 7066              		.loc 20 1439 30 view .LVU1660
 7067 02da 0325     		movs	r5, #3
 7068              	.LBE2231:
 7069              	.LBE2230:
 7070              	.LBE2229:
 7071              		.loc 13 90 44 view .LVU1661
 7072 02dc B84B     		ldr	r3, .L527+4
 7073 02de 117B     		ldrb	r1, [r2, #12]	@ zero_extendqisi2
 7074              	.LBB2237:
 7075              	.LBB2226:
 173:../../libdaisy/src/hid/disp/display.h ****         currentY_ = (y >= Height()) ? Height() - 1 : y;
 7076              		.loc 3 173 19 view .LVU1662
 7077 02e0 4FF40C14 		mov	r4, #2293760
 7078              	.LBE2226:
 7079              	.LBE2237:
 7080              		.loc 13 90 44 view .LVU1663
 7081 02e4 B74A     		ldr	r2, .L527+8
 7082              	.LBB2238:
 7083              	.LBB2227:
 173:../../libdaisy/src/hid/disp/display.h ****         currentY_ = (y >= Height()) ? Height() - 1 : y;
 7084              		.loc 3 173 19 view .LVU1664
 7085 02e6 4BF80040 		str	r4, [fp, r0]
 7086              	.LBE2227:
 7087              	.LBE2238:
 7088              	.LBB2239:
 7089              	.LBB2234:
 7090              	.LBB2232:
 7091              		.loc 20 1439 30 view .LVU1665
 7092 02ea 0CA8     		add	r0, sp, #48
 7093              	.LVL510:
 7094              		.loc 20 1439 30 view .LVU1666
 7095 02ec 0029     		cmp	r1, #0
 7096 02ee 18BF     		it	ne
 7097 02f0 1346     		movne	r3, r2
ARM GAS  /tmp/ccobg3TQ.s 			page 228


 7098 02f2 0095     		str	r5, [sp]
 7099              	.LVL511:
 7100              		.loc 20 1439 30 view .LVU1667
 7101              	.LBE2232:
 7102              	.LBE2234:
 7103              	.LBE2239:
 7104              		.loc 13 90 5 is_stmt 1 view .LVU1668
 7105              	.LBB2240:
 7106              	.LBI2229:
 704:/usr/include/newlib/c++/9.2.1/bits/basic_string.h ****       { return this->assign(__s); }
 7107              		.loc 20 704 7 view .LVU1669
 7108              	.LBB2235:
 7109              	.LBI2230:
1435:/usr/include/newlib/c++/9.2.1/bits/basic_string.h ****       {
 7110              		.loc 20 1435 7 view .LVU1670
1435:/usr/include/newlib/c++/9.2.1/bits/basic_string.h ****       {
 7111              		.loc 20 1435 7 is_stmt 0 view .LVU1671
 7112              	.LBE2235:
 7113              	.LBE2240:
 335:/usr/include/newlib/c++/9.2.1/bits/char_traits.h ****       }
 7114              		.loc 22 335 2 is_stmt 1 view .LVU1672
 7115              	.LBB2241:
 7116              	.LBB2236:
 7117              	.LBB2233:
 7118              		.loc 20 1439 30 is_stmt 0 view .LVU1673
 7119 02f4 0D9A     		ldr	r2, [sp, #52]
 7120 02f6 0021     		movs	r1, #0
 7121              		.loc 20 1439 30 view .LVU1674
 7122 02f8 FFF7FEFF 		bl	_ZNSt7__cxx1112basic_stringIcSt11char_traitsIcESaIcEE10_M_replaceEjjPKcj
 7123              	.LVL512:
 7124              		.loc 20 1439 30 view .LVU1675
 7125              	.LBE2233:
 7126              	.LBE2236:
 7127              	.LBE2241:
  91:SampleAndHold.cpp ****     patch.display.WriteString(cstr, Font_7x10, true);
 7128              		.loc 13 91 5 is_stmt 1 view .LVU1676
 7129              	.LBB2242:
 7130              	.LBB2243:
 443:../../libdaisy/src/hid/disp/display.h ****         {
 7131              		.loc 3 443 9 is_stmt 0 view .LVU1677
 7132 02fc 029B     		ldr	r3, [sp, #8]
 7133 02fe 93F800A0 		ldrb	r10, [r3]	@ zero_extendqisi2
 7134 0302 B14B     		ldr	r3, .L527+12
 7135 0304 5A78     		ldrb	r2, [r3, #1]	@ zero_extendqisi2
 7136 0306 93F80090 		ldrb	r9, [r3]	@ zero_extendqisi2
 7137              	.LVL513:
 443:../../libdaisy/src/hid/disp/display.h ****         {
 7138              		.loc 3 443 9 view .LVU1678
 7139 030a 5B68     		ldr	r3, [r3, #4]
 7140 030c 0792     		str	r2, [sp, #28]
 7141              	.LVL514:
 443:../../libdaisy/src/hid/disp/display.h ****         {
 7142              		.loc 3 443 9 view .LVU1679
 7143 030e 0993     		str	r3, [sp, #36]
 7144              	.LVL515:
 443:../../libdaisy/src/hid/disp/display.h ****         {
 7145              		.loc 3 443 9 view .LVU1680
ARM GAS  /tmp/ccobg3TQ.s 			page 229


 7146              	.LBE2243:
 7147              	.LBI2242:
 440:../../libdaisy/src/hid/disp/display.h ****     {
 7148              		.loc 3 440 10 is_stmt 1 view .LVU1681
 7149              	.LBB2283:
 443:../../libdaisy/src/hid/disp/display.h ****         {
 7150              		.loc 3 443 9 view .LVU1682
 7151 0310 BAF1000F 		cmp	r10, #0
 7152 0314 79D0     		beq	.L467
 7153 0316 029B     		ldr	r3, [sp, #8]
 7154              	.LVL516:
 443:../../libdaisy/src/hid/disp/display.h ****         {
 7155              		.loc 3 443 9 is_stmt 0 view .LVU1683
 7156 0318 4E46     		mov	r6, r9
 7157 031a 0393     		str	r3, [sp, #12]
 7158              	.LVL517:
 7159              	.L455:
 7160              	.LBB2244:
 7161              	.LBI2244:
 396:../../libdaisy/src/hid/disp/display.h ****     {
 7162              		.loc 3 396 10 is_stmt 1 view .LVU1684
 7163              	.LBB2245:
 401:../../libdaisy/src/hid/disp/display.h ****             return 0;
 7164              		.loc 3 401 20 is_stmt 0 view .LVU1685
 7165 031c AAF12003 		sub	r3, r10, #32
 401:../../libdaisy/src/hid/disp/display.h ****             return 0;
 7166              		.loc 3 401 9 view .LVU1686
 7167 0320 DAB2     		uxtb	r2, r3
 7168 0322 5E2A     		cmp	r2, #94
 7169 0324 00F25F81 		bhi	.L493
 7170              	.LVL518:
 405:../../libdaisy/src/hid/disp/display.h ****            || Height() < (currentY_ + font.FontHeight))
 7171              		.loc 3 405 23 view .LVU1687
 7172 0328 A84A     		ldr	r2, .L527+16
 7173 032a B2F800E0 		ldrh	lr, [r2]
 7174 032e 0692     		str	r2, [sp, #24]
 405:../../libdaisy/src/hid/disp/display.h ****            || Height() < (currentY_ + font.FontHeight))
 7175              		.loc 3 405 33 view .LVU1688
 7176 0330 0EEB0601 		add	r1, lr, r6
 406:../../libdaisy/src/hid/disp/display.h ****         {
 7177              		.loc 3 406 12 view .LVU1689
 7178 0334 8029     		cmp	r1, #128
 405:../../libdaisy/src/hid/disp/display.h ****            || Height() < (currentY_ + font.FontHeight))
 7179              		.loc 3 405 33 view .LVU1690
 7180 0336 0591     		str	r1, [sp, #20]
 406:../../libdaisy/src/hid/disp/display.h ****         {
 7181              		.loc 3 406 12 view .LVU1691
 7182 0338 00F35581 		bgt	.L493
 7183              	.LVL519:
 406:../../libdaisy/src/hid/disp/display.h ****         {
 7184              		.loc 3 406 27 view .LVU1692
 7185 033c 5188     		ldrh	r1, [r2, #2]
 7186 033e 0232     		adds	r2, r2, #2
 406:../../libdaisy/src/hid/disp/display.h ****         {
 7187              		.loc 3 406 37 view .LVU1693
 7188 0340 0798     		ldr	r0, [sp, #28]
 406:../../libdaisy/src/hid/disp/display.h ****         {
ARM GAS  /tmp/ccobg3TQ.s 			page 230


 7189              		.loc 3 406 27 view .LVU1694
 7190 0342 0892     		str	r2, [sp, #32]
 406:../../libdaisy/src/hid/disp/display.h ****         {
 7191              		.loc 3 406 37 view .LVU1695
 7192 0344 0A18     		adds	r2, r1, r0
 406:../../libdaisy/src/hid/disp/display.h ****         {
 7193              		.loc 3 406 27 view .LVU1696
 7194 0346 0491     		str	r1, [sp, #16]
 406:../../libdaisy/src/hid/disp/display.h ****         {
 7195              		.loc 3 406 12 view .LVU1697
 7196 0348 402A     		cmp	r2, #64
 7197 034a 00F34C81 		bgt	.L493
 7198              	.LVL520:
 413:../../libdaisy/src/hid/disp/display.h ****         {
 7199              		.loc 3 413 22 is_stmt 1 view .LVU1698
 7200 034e 0028     		cmp	r0, #0
 7201 0350 44D0     		beq	.L461
 415:../../libdaisy/src/hid/disp/display.h ****             for(j = 0; j < font.FontWidth; j++)
 7202              		.loc 3 415 37 is_stmt 0 view .LVU1699
 7203 0352 079A     		ldr	r2, [sp, #28]
 7204 0354 6FF0004C 		mvn	ip, #-2147483648
 7205 0358 0999     		ldr	r1, [sp, #36]
 7206 035a 02FB03F3 		mul	r3, r2, r3
 7207 035e 049C     		ldr	r4, [sp, #16]
 7208 0360 A1F10209 		sub	r9, r1, #2
 7209 0364 9C44     		add	ip, ip, r3
 7210 0366 1344     		add	r3, r3, r2
 7211 0368 01EB4C0C 		add	ip, r1, ip, lsl #1
 7212 036c 09EB4309 		add	r9, r9, r3, lsl #1
 7213              	.LVL521:
 7214              	.L462:
 415:../../libdaisy/src/hid/disp/display.h ****             for(j = 0; j < font.FontWidth; j++)
 7215              		.loc 3 415 13 view .LVU1700
 7216 0370 3CF8027F 		ldrh	r7, [ip, #2]!
 7217              	.LVL522:
 416:../../libdaisy/src/hid/disp/display.h ****             {
 7218              		.loc 3 416 26 is_stmt 1 view .LVU1701
 7219 0374 76B3     		cbz	r6, .L465
 7220              	.LBB2246:
 7221              	.LBB2247:
 7222              	.LBB2248:
 7223              	.LBB2249:
 7224              	.LBB2250:
 246:../../libdaisy/src/dev/oled_ssd130x.h ****     }
 7225              		.loc 12 246 55 is_stmt 0 view .LVU1702
 7226 0376 04F00702 		and	r2, r4, #7
 246:../../libdaisy/src/dev/oled_ssd130x.h ****     }
 7227              		.loc 12 246 49 view .LVU1703
 7228 037a 0125     		movs	r5, #1
 7229 037c 49F2B810 		movw	r0, #37304
 246:../../libdaisy/src/dev/oled_ssd130x.h ****     }
 7230              		.loc 12 246 28 view .LVU1704
 7231 0380 E308     		lsrs	r3, r4, #3
 246:../../libdaisy/src/dev/oled_ssd130x.h ****     }
 7232              		.loc 12 246 49 view .LVU1705
 7233 0382 9540     		lsls	r5, r5, r2
 7234 0384 7146     		mov	r1, lr
ARM GAS  /tmp/ccobg3TQ.s 			page 231


 7235 0386 7044     		add	r0, r0, lr
 7236              	.LBE2250:
 7237              	.LBE2249:
 7238              	.LBE2248:
 7239              	.LBE2247:
 7240              	.LBE2246:
 416:../../libdaisy/src/hid/disp/display.h ****             {
 7241              		.loc 3 416 19 view .LVU1706
 7242 0388 0022     		movs	r2, #0
 7243              	.LBB2269:
 7244              	.LBB2264:
 7245              	.LBB2260:
 7246              	.LBB2255:
 7247              	.LBB2251:
 246:../../libdaisy/src/dev/oled_ssd130x.h ****     }
 7248              		.loc 12 246 42 view .LVU1707
 7249 038a 6DB2     		sxtb	r5, r5
 7250 038c 00EBC313 		add	r3, r0, r3, lsl #7
 7251 0390 6FEA0508 		mvn	r8, r5
 7252 0394 5B44     		add	r3, r3, fp
 7253 0396 0BE0     		b	.L466
 7254              	.LVL523:
 7255              	.L523:
 246:../../libdaisy/src/dev/oled_ssd130x.h ****     }
 7256              		.loc 12 246 42 view .LVU1708
 7257              	.LBE2251:
 7258              	.LBE2255:
 7259              	.LBE2260:
 7260              	.LBE2264:
 7261              	.LBE2269:
 7262              	.LBB2270:
 7263              	.LBB2271:
 7264              	.LBB2272:
 241:../../libdaisy/src/dev/oled_ssd130x.h ****             return;
 7265              		.loc 12 241 9 view .LVU1709
 7266 0398 7F29     		cmp	r1, #127
 7267 039a 04D8     		bhi	.L464
 7268 039c 3F2C     		cmp	r4, #63
 7269 039e 02D8     		bhi	.L464
 244:../../libdaisy/src/dev/oled_ssd130x.h ****         else
 7270              		.loc 12 244 42 view .LVU1710
 7271 03a0 1878     		ldrb	r0, [r3]	@ zero_extendqisi2
 7272 03a2 2843     		orrs	r0, r0, r5
 244:../../libdaisy/src/dev/oled_ssd130x.h ****         else
 7273              		.loc 12 244 13 view .LVU1711
 7274 03a4 1870     		strb	r0, [r3]
 7275              	.L464:
 7276              	.LVL524:
 244:../../libdaisy/src/dev/oled_ssd130x.h ****         else
 7277              		.loc 12 244 13 view .LVU1712
 7278              	.LBE2272:
 7279              	.LBE2271:
 7280              	.LBE2270:
 416:../../libdaisy/src/hid/disp/display.h ****             {
 7281              		.loc 3 416 13 is_stmt 1 view .LVU1713
 7282 03a6 0132     		adds	r2, r2, #1
 7283              	.LVL525:
ARM GAS  /tmp/ccobg3TQ.s 			page 232


 416:../../libdaisy/src/hid/disp/display.h ****             {
 7284              		.loc 3 416 26 view .LVU1714
 7285 03a8 0133     		adds	r3, r3, #1
 7286 03aa 0131     		adds	r1, r1, #1
 7287 03ac 9642     		cmp	r6, r2
 7288 03ae 11D0     		beq	.L465
 7289              	.LVL526:
 7290              	.L466:
 7291              	.LBB2274:
 7292              	.LBI2270:
  41:../../libdaisy/src/hid/disp/oled_display.h ****     {
 7293              		.loc 2 41 10 view .LVU1715
 7294              	.LBB2273:
 7295              	.LBI2271:
 239:../../libdaisy/src/dev/oled_ssd130x.h ****     {
 7296              		.loc 12 239 10 view .LVU1716
 239:../../libdaisy/src/dev/oled_ssd130x.h ****     {
 7297              		.loc 12 239 10 is_stmt 0 view .LVU1717
 7298              	.LBE2273:
 7299              	.LBE2274:
 7300              	.LBB2275:
 7301              	.LBI2246:
  41:../../libdaisy/src/hid/disp/oled_display.h ****     {
 7302              		.loc 2 41 10 is_stmt 1 view .LVU1718
 7303              	.LBB2265:
 7304              	.LBI2247:
 239:../../libdaisy/src/dev/oled_ssd130x.h ****     {
 7305              		.loc 12 239 10 view .LVU1719
 7306              	.LBE2265:
 7307              	.LBE2275:
 418:../../libdaisy/src/hid/disp/display.h ****                 {
 7308              		.loc 3 418 23 is_stmt 0 view .LVU1720
 7309 03b0 07FA02F0 		lsl	r0, r7, r2
 418:../../libdaisy/src/hid/disp/display.h ****                 {
 7310              		.loc 3 418 17 view .LVU1721
 7311 03b4 0004     		lsls	r0, r0, #16
 7312 03b6 EFD4     		bmi	.L523
 7313              	.LVL527:
 7314              	.LBB2276:
 7315              	.LBB2266:
 7316              	.LBB2261:
 7317              	.LBB2256:
 7318              	.LBI2249:
 239:../../libdaisy/src/dev/oled_ssd130x.h ****     {
 7319              		.loc 12 239 10 is_stmt 1 view .LVU1722
 239:../../libdaisy/src/dev/oled_ssd130x.h ****     {
 7320              		.loc 12 239 10 is_stmt 0 view .LVU1723
 7321              	.LBE2256:
 241:../../libdaisy/src/dev/oled_ssd130x.h ****             return;
 7322              		.loc 12 241 9 view .LVU1724
 7323 03b8 7F29     		cmp	r1, #127
 7324 03ba F4D8     		bhi	.L464
 7325 03bc 3F2C     		cmp	r4, #63
 7326 03be F2D8     		bhi	.L464
 7327              	.LBB2257:
 7328              	.LBB2252:
 246:../../libdaisy/src/dev/oled_ssd130x.h ****     }
ARM GAS  /tmp/ccobg3TQ.s 			page 233


 7329              		.loc 12 246 42 view .LVU1725
 7330 03c0 1878     		ldrb	r0, [r3]	@ zero_extendqisi2
 7331              	.LBE2252:
 7332              	.LBE2257:
 7333              	.LBE2261:
 7334              	.LBE2266:
 7335              	.LBE2276:
 416:../../libdaisy/src/hid/disp/display.h ****             {
 7336              		.loc 3 416 13 view .LVU1726
 7337 03c2 0132     		adds	r2, r2, #1
 7338              	.LVL528:
 416:../../libdaisy/src/hid/disp/display.h ****             {
 7339              		.loc 3 416 13 view .LVU1727
 7340 03c4 0133     		adds	r3, r3, #1
 7341 03c6 0131     		adds	r1, r1, #1
 7342              	.LBB2277:
 7343              	.LBB2267:
 7344              	.LBB2262:
 7345              	.LBB2258:
 7346              	.LBB2253:
 246:../../libdaisy/src/dev/oled_ssd130x.h ****     }
 7347              		.loc 12 246 42 view .LVU1728
 7348 03c8 08EA0000 		and	r0, r8, r0
 7349              	.LBE2253:
 7350              	.LBE2258:
 7351              	.LBE2262:
 7352              	.LBE2267:
 7353              	.LBE2277:
 416:../../libdaisy/src/hid/disp/display.h ****             {
 7354              		.loc 3 416 26 view .LVU1729
 7355 03cc 9642     		cmp	r6, r2
 7356              	.LBB2278:
 7357              	.LBB2268:
 7358              	.LBB2263:
 7359              	.LBB2259:
 7360              	.LBB2254:
 246:../../libdaisy/src/dev/oled_ssd130x.h ****     }
 7361              		.loc 12 246 13 view .LVU1730
 7362 03ce 03F8010C 		strb	r0, [r3, #-1]
 7363              	.LVL529:
 246:../../libdaisy/src/dev/oled_ssd130x.h ****     }
 7364              		.loc 12 246 13 view .LVU1731
 7365              	.LBE2254:
 7366              	.LBE2259:
 7367              	.LBE2263:
 7368              	.LBE2268:
 7369              	.LBE2278:
 416:../../libdaisy/src/hid/disp/display.h ****             {
 7370              		.loc 3 416 13 is_stmt 1 view .LVU1732
 416:../../libdaisy/src/hid/disp/display.h ****             {
 7371              		.loc 3 416 26 view .LVU1733
 7372 03d2 EDD1     		bne	.L466
 7373              	.LVL530:
 7374              	.L465:
 413:../../libdaisy/src/hid/disp/display.h ****         {
 7375              		.loc 3 413 9 view .LVU1734
 413:../../libdaisy/src/hid/disp/display.h ****         {
ARM GAS  /tmp/ccobg3TQ.s 			page 234


 7376              		.loc 3 413 22 view .LVU1735
 7377 03d4 CC45     		cmp	ip, r9
 7378 03d6 04F10104 		add	r4, r4, #1
 7379 03da C9D1     		bne	.L462
 7380              	.LVL531:
 7381              	.L461:
 7382              	.LBB2279:
 7383              	.LBI2279:
 171:../../libdaisy/src/hid/disp/display.h ****     {
 7384              		.loc 3 171 10 view .LVU1736
 7385              	.LBB2280:
 173:../../libdaisy/src/hid/disp/display.h ****         currentY_ = (y >= Height()) ? Height() - 1 : y;
 7386              		.loc 3 173 9 view .LVU1737
 174:../../libdaisy/src/hid/disp/display.h ****     }
 7387              		.loc 3 174 19 is_stmt 0 view .LVU1738
 7388 03dc 049A     		ldr	r2, [sp, #16]
 173:../../libdaisy/src/hid/disp/display.h ****         currentY_ = (y >= Height()) ? Height() - 1 : y;
 7389              		.loc 3 173 19 view .LVU1739
 7390 03de BDF81430 		ldrh	r3, [sp, #20]
 174:../../libdaisy/src/hid/disp/display.h ****     }
 7391              		.loc 3 174 19 view .LVU1740
 7392 03e2 3F2A     		cmp	r2, #63
 7393 03e4 0899     		ldr	r1, [sp, #32]
 7394 03e6 28BF     		it	cs
 7395 03e8 3F22     		movcs	r2, #63
 173:../../libdaisy/src/hid/disp/display.h ****         currentY_ = (y >= Height()) ? Height() - 1 : y;
 7396              		.loc 3 173 19 view .LVU1741
 7397 03ea 7F2B     		cmp	r3, #127
 174:../../libdaisy/src/hid/disp/display.h ****     }
 7398              		.loc 3 174 19 view .LVU1742
 7399 03ec 0A80     		strh	r2, [r1]	@ movhi
 173:../../libdaisy/src/hid/disp/display.h ****         currentY_ = (y >= Height()) ? Height() - 1 : y;
 7400              		.loc 3 173 19 view .LVU1743
 7401 03ee 28BF     		it	cs
 7402 03f0 7F23     		movcs	r3, #127
 7403 03f2 069A     		ldr	r2, [sp, #24]
 7404 03f4 1380     		strh	r3, [r2]	@ movhi
 174:../../libdaisy/src/hid/disp/display.h ****     }
 7405              		.loc 3 174 9 is_stmt 1 view .LVU1744
 7406              	.LVL532:
 7407              	.L458:
 174:../../libdaisy/src/hid/disp/display.h ****     }
 7408              		.loc 3 174 9 is_stmt 0 view .LVU1745
 7409              	.LBE2280:
 7410              	.LBE2279:
 7411              	.LBE2245:
 7412              	.LBE2244:
 445:../../libdaisy/src/hid/disp/display.h ****                != *str)
 7413              		.loc 3 445 13 view .LVU1746
 7414 03f6 039A     		ldr	r2, [sp, #12]
 7415 03f8 1378     		ldrb	r3, [r2]	@ zero_extendqisi2
 7416 03fa 5345     		cmp	r3, r10
 7417 03fc 05D1     		bne	.L467
 7418              	.LVL533:
 443:../../libdaisy/src/hid/disp/display.h ****         {
 7419              		.loc 3 443 9 is_stmt 1 view .LVU1747
 7420 03fe 12F801AF 		ldrb	r10, [r2, #1]!	@ zero_extendqisi2
ARM GAS  /tmp/ccobg3TQ.s 			page 235


 7421              	.LVL534:
 443:../../libdaisy/src/hid/disp/display.h ****         {
 7422              		.loc 3 443 9 is_stmt 0 view .LVU1748
 7423 0402 0392     		str	r2, [sp, #12]
 7424 0404 BAF1000F 		cmp	r10, #0
 7425 0408 88D1     		bne	.L455
 7426              	.LVL535:
 7427              	.L467:
 443:../../libdaisy/src/hid/disp/display.h ****         {
 7428              		.loc 3 443 9 view .LVU1749
 7429              	.LBE2283:
 7430              	.LBE2242:
  92:SampleAndHold.cpp **** 
  93:SampleAndHold.cpp ****     patch.display.SetCursor(60, 35);
 7431              		.loc 13 93 5 is_stmt 1 view .LVU1750
 7432              	.LBB2285:
 7433              	.LBI2285:
 171:../../libdaisy/src/hid/disp/display.h ****     {
 7434              		.loc 3 171 10 view .LVU1751
 7435              	.LBB2286:
 173:../../libdaisy/src/hid/disp/display.h ****         currentY_ = (y >= Height()) ? Height() - 1 : y;
 7436              		.loc 3 173 9 view .LVU1752
 174:../../libdaisy/src/hid/disp/display.h ****     }
 7437              		.loc 3 174 9 view .LVU1753
 174:../../libdaisy/src/hid/disp/display.h ****     }
 7438              		.loc 3 174 9 is_stmt 0 view .LVU1754
 7439              	.LBE2286:
 7440              	.LBE2285:
  94:SampleAndHold.cpp ****     str = sampHolds[1].mode == 0 ? "S&H" : "T&H";
 7441              		.loc 13 94 44 view .LVU1755
 7442 040a 6C4B     		ldr	r3, .L527
 7443              	.LBB2290:
 7444              	.LBB2291:
 7445              	.LBB2292:
 7446              		.loc 20 1439 30 view .LVU1756
 7447 040c 0325     		movs	r5, #3
 7448              	.LBE2292:
 7449              	.LBE2291:
 7450              	.LBE2290:
 7451              		.loc 13 94 44 view .LVU1757
 7452 040e 6D4A     		ldr	r2, .L527+8
 7453              	.LBB2302:
 7454              	.LBB2287:
 173:../../libdaisy/src/hid/disp/display.h ****         currentY_ = (y >= Height()) ? Height() - 1 : y;
 7455              		.loc 3 173 19 view .LVU1758
 7456 0410 49F2A814 		movw	r4, #37288
 7457              	.LBE2287:
 7458              	.LBE2302:
 7459              		.loc 13 94 44 view .LVU1759
 7460 0414 93F82010 		ldrb	r1, [r3, #32]	@ zero_extendqisi2
 7461              	.LBB2303:
 7462              	.LBB2297:
 7463              	.LBB2293:
 7464              		.loc 20 1439 30 view .LVU1760
 7465 0418 0CA8     		add	r0, sp, #48
 7466              	.LVL536:
 7467              		.loc 20 1439 30 view .LVU1761
ARM GAS  /tmp/ccobg3TQ.s 			page 236


 7468              	.LBE2293:
 7469              	.LBE2297:
 7470              	.LBE2303:
 7471              		.loc 13 94 44 view .LVU1762
 7472 041a 694B     		ldr	r3, .L527+4
 7473              	.LBB2304:
 7474              	.LBB2298:
 7475              	.LBB2294:
 7476              		.loc 20 1439 30 view .LVU1763
 7477 041c 0095     		str	r5, [sp]
 7478              	.LBE2294:
 7479              	.LBE2298:
 7480              	.LBE2304:
 7481              	.LBB2305:
 7482              	.LBB2288:
 173:../../libdaisy/src/hid/disp/display.h ****         currentY_ = (y >= Height()) ? Height() - 1 : y;
 7483              		.loc 3 173 19 view .LVU1764
 7484 041e 6C4D     		ldr	r5, .L527+20
 7485              	.LBE2288:
 7486              	.LBE2305:
 7487              	.LBB2306:
 7488              	.LBB2299:
 7489              	.LBB2295:
 7490              		.loc 20 1439 30 view .LVU1765
 7491 0420 0029     		cmp	r1, #0
 7492 0422 18BF     		it	ne
 7493 0424 1346     		movne	r3, r2
 7494 0426 0D9A     		ldr	r2, [sp, #52]
 7495 0428 0021     		movs	r1, #0
 7496              	.LBE2295:
 7497              	.LBE2299:
 7498              	.LBE2306:
 7499              	.LBB2307:
 7500              	.LBB2289:
 173:../../libdaisy/src/hid/disp/display.h ****         currentY_ = (y >= Height()) ? Height() - 1 : y;
 7501              		.loc 3 173 19 view .LVU1766
 7502 042a 4BF80450 		str	r5, [fp, r4]
 7503              	.LVL537:
 173:../../libdaisy/src/hid/disp/display.h ****         currentY_ = (y >= Height()) ? Height() - 1 : y;
 7504              		.loc 3 173 19 view .LVU1767
 7505              	.LBE2289:
 7506              	.LBE2307:
 7507              		.loc 13 94 5 is_stmt 1 view .LVU1768
 7508              	.LBB2308:
 7509              	.LBI2290:
 704:/usr/include/newlib/c++/9.2.1/bits/basic_string.h ****       { return this->assign(__s); }
 7510              		.loc 20 704 7 view .LVU1769
 7511              	.LBB2300:
 7512              	.LBI2291:
1435:/usr/include/newlib/c++/9.2.1/bits/basic_string.h ****       {
 7513              		.loc 20 1435 7 view .LVU1770
1435:/usr/include/newlib/c++/9.2.1/bits/basic_string.h ****       {
 7514              		.loc 20 1435 7 is_stmt 0 view .LVU1771
 7515              	.LBE2300:
 7516              	.LBE2308:
 335:/usr/include/newlib/c++/9.2.1/bits/char_traits.h ****       }
 7517              		.loc 22 335 2 is_stmt 1 view .LVU1772
ARM GAS  /tmp/ccobg3TQ.s 			page 237


 7518              	.LBB2309:
 7519              	.LBB2301:
 7520              	.LBB2296:
 7521              		.loc 20 1439 30 is_stmt 0 view .LVU1773
 7522 042e FFF7FEFF 		bl	_ZNSt7__cxx1112basic_stringIcSt11char_traitsIcESaIcEE10_M_replaceEjjPKcj
 7523              	.LVL538:
 7524              		.loc 20 1439 30 view .LVU1774
 7525              	.LBE2296:
 7526              	.LBE2301:
 7527              	.LBE2309:
  95:SampleAndHold.cpp ****     patch.display.WriteString(cstr, Font_7x10, true);
 7528              		.loc 13 95 5 is_stmt 1 view .LVU1775
 7529              	.LBB2310:
 7530              	.LBB2311:
 443:../../libdaisy/src/hid/disp/display.h ****         {
 7531              		.loc 3 443 9 is_stmt 0 view .LVU1776
 7532 0432 029B     		ldr	r3, [sp, #8]
 7533 0434 93F800A0 		ldrb	r10, [r3]	@ zero_extendqisi2
 7534 0438 634B     		ldr	r3, .L527+12
 7535 043a 5A78     		ldrb	r2, [r3, #1]	@ zero_extendqisi2
 7536 043c 93F80090 		ldrb	r9, [r3]	@ zero_extendqisi2
 7537              	.LVL539:
 443:../../libdaisy/src/hid/disp/display.h ****         {
 7538              		.loc 3 443 9 view .LVU1777
 7539 0440 5B68     		ldr	r3, [r3, #4]
 7540 0442 0692     		str	r2, [sp, #24]
 7541              	.LVL540:
 443:../../libdaisy/src/hid/disp/display.h ****         {
 7542              		.loc 3 443 9 view .LVU1778
 7543 0444 0893     		str	r3, [sp, #32]
 7544              	.LVL541:
 443:../../libdaisy/src/hid/disp/display.h ****         {
 7545              		.loc 3 443 9 view .LVU1779
 7546              	.LBE2311:
 7547              	.LBI2310:
 440:../../libdaisy/src/hid/disp/display.h ****     {
 7548              		.loc 3 440 10 is_stmt 1 view .LVU1780
 7549              	.LBB2353:
 443:../../libdaisy/src/hid/disp/display.h ****         {
 7550              		.loc 3 443 9 view .LVU1781
 7551 0446 BAF1000F 		cmp	r10, #0
 7552 044a 77D0     		beq	.L479
 7553 044c 4E46     		mov	r6, r9
 7554              	.LVL542:
 7555              	.L468:
 7556              	.LBB2312:
 7557              	.LBI2312:
 396:../../libdaisy/src/hid/disp/display.h ****     {
 7558              		.loc 3 396 10 view .LVU1782
 7559              	.LBB2313:
 401:../../libdaisy/src/hid/disp/display.h ****             return 0;
 7560              		.loc 3 401 20 is_stmt 0 view .LVU1783
 7561 044e AAF12003 		sub	r3, r10, #32
 401:../../libdaisy/src/hid/disp/display.h ****             return 0;
 7562              		.loc 3 401 9 view .LVU1784
 7563 0452 DAB2     		uxtb	r2, r3
 7564 0454 5E2A     		cmp	r2, #94
ARM GAS  /tmp/ccobg3TQ.s 			page 238


 7565 0456 00F2C380 		bhi	.L496
 7566              	.LVL543:
 405:../../libdaisy/src/hid/disp/display.h ****            || Height() < (currentY_ + font.FontHeight))
 7567              		.loc 3 405 23 view .LVU1785
 7568 045a 5C4A     		ldr	r2, .L527+16
 7569 045c B2F800E0 		ldrh	lr, [r2]
 7570 0460 0592     		str	r2, [sp, #20]
 405:../../libdaisy/src/hid/disp/display.h ****            || Height() < (currentY_ + font.FontHeight))
 7571              		.loc 3 405 33 view .LVU1786
 7572 0462 0EEB0601 		add	r1, lr, r6
 406:../../libdaisy/src/hid/disp/display.h ****         {
 7573              		.loc 3 406 12 view .LVU1787
 7574 0466 8029     		cmp	r1, #128
 405:../../libdaisy/src/hid/disp/display.h ****            || Height() < (currentY_ + font.FontHeight))
 7575              		.loc 3 405 33 view .LVU1788
 7576 0468 0491     		str	r1, [sp, #16]
 406:../../libdaisy/src/hid/disp/display.h ****         {
 7577              		.loc 3 406 12 view .LVU1789
 7578 046a 00F3B980 		bgt	.L496
 7579              	.LVL544:
 406:../../libdaisy/src/hid/disp/display.h ****         {
 7580              		.loc 3 406 27 view .LVU1790
 7581 046e 5188     		ldrh	r1, [r2, #2]
 7582 0470 0232     		adds	r2, r2, #2
 406:../../libdaisy/src/hid/disp/display.h ****         {
 7583              		.loc 3 406 37 view .LVU1791
 7584 0472 0698     		ldr	r0, [sp, #24]
 406:../../libdaisy/src/hid/disp/display.h ****         {
 7585              		.loc 3 406 27 view .LVU1792
 7586 0474 0792     		str	r2, [sp, #28]
 406:../../libdaisy/src/hid/disp/display.h ****         {
 7587              		.loc 3 406 37 view .LVU1793
 7588 0476 0A18     		adds	r2, r1, r0
 406:../../libdaisy/src/hid/disp/display.h ****         {
 7589              		.loc 3 406 27 view .LVU1794
 7590 0478 0391     		str	r1, [sp, #12]
 406:../../libdaisy/src/hid/disp/display.h ****         {
 7591              		.loc 3 406 12 view .LVU1795
 7592 047a 402A     		cmp	r2, #64
 7593 047c 00F3B080 		bgt	.L496
 7594              	.LVL545:
 413:../../libdaisy/src/hid/disp/display.h ****         {
 7595              		.loc 3 413 22 is_stmt 1 view .LVU1796
 7596 0480 0028     		cmp	r0, #0
 7597 0482 44D0     		beq	.L473
 415:../../libdaisy/src/hid/disp/display.h ****             for(j = 0; j < font.FontWidth; j++)
 7598              		.loc 3 415 37 is_stmt 0 view .LVU1797
 7599 0484 069A     		ldr	r2, [sp, #24]
 7600 0486 6FF0004C 		mvn	ip, #-2147483648
 7601 048a 0899     		ldr	r1, [sp, #32]
 7602 048c 02FB03F3 		mul	r3, r2, r3
 7603 0490 039C     		ldr	r4, [sp, #12]
 7604 0492 A1F10209 		sub	r9, r1, #2
 7605 0496 9C44     		add	ip, ip, r3
 7606 0498 1344     		add	r3, r3, r2
 7607 049a 01EB4C0C 		add	ip, r1, ip, lsl #1
 7608 049e 09EB4309 		add	r9, r9, r3, lsl #1
ARM GAS  /tmp/ccobg3TQ.s 			page 239


 7609              	.LVL546:
 7610              	.L474:
 415:../../libdaisy/src/hid/disp/display.h ****             for(j = 0; j < font.FontWidth; j++)
 7611              		.loc 3 415 13 view .LVU1798
 7612 04a2 3CF8027F 		ldrh	r7, [ip, #2]!
 7613              	.LVL547:
 416:../../libdaisy/src/hid/disp/display.h ****             {
 7614              		.loc 3 416 26 is_stmt 1 view .LVU1799
 7615 04a6 76B3     		cbz	r6, .L477
 7616              	.LBB2314:
 7617              	.LBB2315:
 7618              	.LBB2316:
 7619              	.LBB2317:
 7620              	.LBB2318:
 246:../../libdaisy/src/dev/oled_ssd130x.h ****     }
 7621              		.loc 12 246 55 is_stmt 0 view .LVU1800
 7622 04a8 04F00702 		and	r2, r4, #7
 246:../../libdaisy/src/dev/oled_ssd130x.h ****     }
 7623              		.loc 12 246 49 view .LVU1801
 7624 04ac 0125     		movs	r5, #1
 7625 04ae 49F2B810 		movw	r0, #37304
 246:../../libdaisy/src/dev/oled_ssd130x.h ****     }
 7626              		.loc 12 246 28 view .LVU1802
 7627 04b2 E308     		lsrs	r3, r4, #3
 246:../../libdaisy/src/dev/oled_ssd130x.h ****     }
 7628              		.loc 12 246 49 view .LVU1803
 7629 04b4 9540     		lsls	r5, r5, r2
 7630 04b6 7146     		mov	r1, lr
 7631 04b8 7044     		add	r0, r0, lr
 7632              	.LBE2318:
 7633              	.LBE2317:
 7634              	.LBE2316:
 7635              	.LBE2315:
 7636              	.LBE2314:
 416:../../libdaisy/src/hid/disp/display.h ****             {
 7637              		.loc 3 416 19 view .LVU1804
 7638 04ba 0022     		movs	r2, #0
 7639              	.LBB2337:
 7640              	.LBB2332:
 7641              	.LBB2328:
 7642              	.LBB2323:
 7643              	.LBB2319:
 246:../../libdaisy/src/dev/oled_ssd130x.h ****     }
 7644              		.loc 12 246 42 view .LVU1805
 7645 04bc 6DB2     		sxtb	r5, r5
 7646 04be 00EBC313 		add	r3, r0, r3, lsl #7
 7647 04c2 6FEA0508 		mvn	r8, r5
 7648 04c6 5B44     		add	r3, r3, fp
 7649 04c8 0BE0     		b	.L478
 7650              	.LVL548:
 7651              	.L524:
 246:../../libdaisy/src/dev/oled_ssd130x.h ****     }
 7652              		.loc 12 246 42 view .LVU1806
 7653              	.LBE2319:
 7654              	.LBE2323:
 7655              	.LBE2328:
 7656              	.LBE2332:
ARM GAS  /tmp/ccobg3TQ.s 			page 240


 7657              	.LBE2337:
 7658              	.LBB2338:
 7659              	.LBB2339:
 7660              	.LBB2340:
 241:../../libdaisy/src/dev/oled_ssd130x.h ****             return;
 7661              		.loc 12 241 9 view .LVU1807
 7662 04ca 7F29     		cmp	r1, #127
 7663 04cc 04D8     		bhi	.L476
 7664 04ce 3F2C     		cmp	r4, #63
 7665 04d0 02D8     		bhi	.L476
 244:../../libdaisy/src/dev/oled_ssd130x.h ****         else
 7666              		.loc 12 244 42 view .LVU1808
 7667 04d2 1878     		ldrb	r0, [r3]	@ zero_extendqisi2
 7668 04d4 2843     		orrs	r0, r0, r5
 244:../../libdaisy/src/dev/oled_ssd130x.h ****         else
 7669              		.loc 12 244 13 view .LVU1809
 7670 04d6 1870     		strb	r0, [r3]
 7671              	.L476:
 7672              	.LVL549:
 244:../../libdaisy/src/dev/oled_ssd130x.h ****         else
 7673              		.loc 12 244 13 view .LVU1810
 7674              	.LBE2340:
 7675              	.LBE2339:
 7676              	.LBE2338:
 416:../../libdaisy/src/hid/disp/display.h ****             {
 7677              		.loc 3 416 13 is_stmt 1 view .LVU1811
 7678 04d8 0132     		adds	r2, r2, #1
 7679              	.LVL550:
 416:../../libdaisy/src/hid/disp/display.h ****             {
 7680              		.loc 3 416 26 view .LVU1812
 7681 04da 0133     		adds	r3, r3, #1
 7682 04dc 0131     		adds	r1, r1, #1
 7683 04de 9642     		cmp	r6, r2
 7684 04e0 11D0     		beq	.L477
 7685              	.LVL551:
 7686              	.L478:
 7687              	.LBB2342:
 7688              	.LBI2338:
  41:../../libdaisy/src/hid/disp/oled_display.h ****     {
 7689              		.loc 2 41 10 view .LVU1813
 7690              	.LBB2341:
 7691              	.LBI2339:
 239:../../libdaisy/src/dev/oled_ssd130x.h ****     {
 7692              		.loc 12 239 10 view .LVU1814
 239:../../libdaisy/src/dev/oled_ssd130x.h ****     {
 7693              		.loc 12 239 10 is_stmt 0 view .LVU1815
 7694              	.LBE2341:
 7695              	.LBE2342:
 7696              	.LBB2343:
 7697              	.LBI2314:
  41:../../libdaisy/src/hid/disp/oled_display.h ****     {
 7698              		.loc 2 41 10 is_stmt 1 view .LVU1816
 7699              	.LBB2333:
 7700              	.LBI2315:
 239:../../libdaisy/src/dev/oled_ssd130x.h ****     {
 7701              		.loc 12 239 10 view .LVU1817
 7702              	.LBE2333:
ARM GAS  /tmp/ccobg3TQ.s 			page 241


 7703              	.LBE2343:
 418:../../libdaisy/src/hid/disp/display.h ****                 {
 7704              		.loc 3 418 23 is_stmt 0 view .LVU1818
 7705 04e2 07FA02F0 		lsl	r0, r7, r2
 418:../../libdaisy/src/hid/disp/display.h ****                 {
 7706              		.loc 3 418 17 view .LVU1819
 7707 04e6 0004     		lsls	r0, r0, #16
 7708 04e8 EFD4     		bmi	.L524
 7709              	.LVL552:
 7710              	.LBB2344:
 7711              	.LBB2334:
 7712              	.LBB2329:
 7713              	.LBB2324:
 7714              	.LBI2317:
 239:../../libdaisy/src/dev/oled_ssd130x.h ****     {
 7715              		.loc 12 239 10 is_stmt 1 view .LVU1820
 239:../../libdaisy/src/dev/oled_ssd130x.h ****     {
 7716              		.loc 12 239 10 is_stmt 0 view .LVU1821
 7717              	.LBE2324:
 241:../../libdaisy/src/dev/oled_ssd130x.h ****             return;
 7718              		.loc 12 241 9 view .LVU1822
 7719 04ea 7F29     		cmp	r1, #127
 7720 04ec F4D8     		bhi	.L476
 7721 04ee 3F2C     		cmp	r4, #63
 7722 04f0 F2D8     		bhi	.L476
 7723              	.LBB2325:
 7724              	.LBB2320:
 246:../../libdaisy/src/dev/oled_ssd130x.h ****     }
 7725              		.loc 12 246 42 view .LVU1823
 7726 04f2 1878     		ldrb	r0, [r3]	@ zero_extendqisi2
 7727              	.LBE2320:
 7728              	.LBE2325:
 7729              	.LBE2329:
 7730              	.LBE2334:
 7731              	.LBE2344:
 416:../../libdaisy/src/hid/disp/display.h ****             {
 7732              		.loc 3 416 13 view .LVU1824
 7733 04f4 0132     		adds	r2, r2, #1
 7734              	.LVL553:
 416:../../libdaisy/src/hid/disp/display.h ****             {
 7735              		.loc 3 416 13 view .LVU1825
 7736 04f6 0133     		adds	r3, r3, #1
 7737 04f8 0131     		adds	r1, r1, #1
 7738              	.LBB2345:
 7739              	.LBB2335:
 7740              	.LBB2330:
 7741              	.LBB2326:
 7742              	.LBB2321:
 246:../../libdaisy/src/dev/oled_ssd130x.h ****     }
 7743              		.loc 12 246 42 view .LVU1826
 7744 04fa 08EA0000 		and	r0, r8, r0
 7745              	.LBE2321:
 7746              	.LBE2326:
 7747              	.LBE2330:
 7748              	.LBE2335:
 7749              	.LBE2345:
 416:../../libdaisy/src/hid/disp/display.h ****             {
ARM GAS  /tmp/ccobg3TQ.s 			page 242


 7750              		.loc 3 416 26 view .LVU1827
 7751 04fe 9642     		cmp	r6, r2
 7752              	.LBB2346:
 7753              	.LBB2336:
 7754              	.LBB2331:
 7755              	.LBB2327:
 7756              	.LBB2322:
 246:../../libdaisy/src/dev/oled_ssd130x.h ****     }
 7757              		.loc 12 246 13 view .LVU1828
 7758 0500 03F8010C 		strb	r0, [r3, #-1]
 7759              	.LVL554:
 246:../../libdaisy/src/dev/oled_ssd130x.h ****     }
 7760              		.loc 12 246 13 view .LVU1829
 7761              	.LBE2322:
 7762              	.LBE2327:
 7763              	.LBE2331:
 7764              	.LBE2336:
 7765              	.LBE2346:
 416:../../libdaisy/src/hid/disp/display.h ****             {
 7766              		.loc 3 416 13 is_stmt 1 view .LVU1830
 416:../../libdaisy/src/hid/disp/display.h ****             {
 7767              		.loc 3 416 26 view .LVU1831
 7768 0504 EDD1     		bne	.L478
 7769              	.LVL555:
 7770              	.L477:
 413:../../libdaisy/src/hid/disp/display.h ****         {
 7771              		.loc 3 413 9 view .LVU1832
 413:../../libdaisy/src/hid/disp/display.h ****         {
 7772              		.loc 3 413 22 view .LVU1833
 7773 0506 E145     		cmp	r9, ip
 7774 0508 04F10104 		add	r4, r4, #1
 7775 050c C9D1     		bne	.L474
 7776              	.LVL556:
 7777              	.L473:
 7778              	.LBB2347:
 7779              	.LBI2347:
 171:../../libdaisy/src/hid/disp/display.h ****     {
 7780              		.loc 3 171 10 view .LVU1834
 7781              	.LBB2348:
 173:../../libdaisy/src/hid/disp/display.h ****         currentY_ = (y >= Height()) ? Height() - 1 : y;
 7782              		.loc 3 173 9 view .LVU1835
 174:../../libdaisy/src/hid/disp/display.h ****     }
 7783              		.loc 3 174 19 is_stmt 0 view .LVU1836
 7784 050e 039A     		ldr	r2, [sp, #12]
 173:../../libdaisy/src/hid/disp/display.h ****         currentY_ = (y >= Height()) ? Height() - 1 : y;
 7785              		.loc 3 173 19 view .LVU1837
 7786 0510 BDF81030 		ldrh	r3, [sp, #16]
 174:../../libdaisy/src/hid/disp/display.h ****     }
 7787              		.loc 3 174 19 view .LVU1838
 7788 0514 3F2A     		cmp	r2, #63
 7789 0516 0799     		ldr	r1, [sp, #28]
 7790 0518 28BF     		it	cs
 7791 051a 3F22     		movcs	r2, #63
 173:../../libdaisy/src/hid/disp/display.h ****         currentY_ = (y >= Height()) ? Height() - 1 : y;
 7792              		.loc 3 173 19 view .LVU1839
 7793 051c 7F2B     		cmp	r3, #127
 174:../../libdaisy/src/hid/disp/display.h ****     }
ARM GAS  /tmp/ccobg3TQ.s 			page 243


 7794              		.loc 3 174 19 view .LVU1840
 7795 051e 0A80     		strh	r2, [r1]	@ movhi
 173:../../libdaisy/src/hid/disp/display.h ****         currentY_ = (y >= Height()) ? Height() - 1 : y;
 7796              		.loc 3 173 19 view .LVU1841
 7797 0520 28BF     		it	cs
 7798 0522 7F23     		movcs	r3, #127
 7799 0524 059A     		ldr	r2, [sp, #20]
 7800 0526 1380     		strh	r3, [r2]	@ movhi
 174:../../libdaisy/src/hid/disp/display.h ****     }
 7801              		.loc 3 174 9 is_stmt 1 view .LVU1842
 7802              	.LVL557:
 7803              	.L470:
 174:../../libdaisy/src/hid/disp/display.h ****     }
 7804              		.loc 3 174 9 is_stmt 0 view .LVU1843
 7805              	.LBE2348:
 7806              	.LBE2347:
 7807              	.LBE2313:
 7808              	.LBE2312:
 445:../../libdaisy/src/hid/disp/display.h ****                != *str)
 7809              		.loc 3 445 13 view .LVU1844
 7810 0528 029A     		ldr	r2, [sp, #8]
 7811 052a 1378     		ldrb	r3, [r2]	@ zero_extendqisi2
 7812 052c 5345     		cmp	r3, r10
 7813 052e 05D1     		bne	.L479
 7814              	.LVL558:
 443:../../libdaisy/src/hid/disp/display.h ****         {
 7815              		.loc 3 443 9 is_stmt 1 view .LVU1845
 7816 0530 12F801AF 		ldrb	r10, [r2, #1]!	@ zero_extendqisi2
 7817              	.LVL559:
 443:../../libdaisy/src/hid/disp/display.h ****         {
 7818              		.loc 3 443 9 is_stmt 0 view .LVU1846
 7819 0534 0292     		str	r2, [sp, #8]
 7820 0536 BAF1000F 		cmp	r10, #0
 7821 053a 88D1     		bne	.L468
 7822              	.LVL560:
 7823              	.L479:
 443:../../libdaisy/src/hid/disp/display.h ****         {
 7824              		.loc 3 443 9 view .LVU1847
 7825              	.LBE2353:
 7826              	.LBE2310:
  96:SampleAndHold.cpp **** 
  97:SampleAndHold.cpp ****     patch.display.Update();
 7827              		.loc 13 97 5 is_stmt 1 view .LVU1848
 7828              	.LBB2356:
 7829              	.LBI2356:
 7830              		.loc 2 50 10 view .LVU1849
 7831              	.LBB2357:
 7832              	.LBI2357:
 260:../../libdaisy/src/dev/oled_ssd130x.h ****     {
 7833              		.loc 12 260 10 view .LVU1850
 7834              	.LBB2358:
 7835              		.loc 12 270 22 view .LVU1851
 7836 053c 254E     		ldr	r6, .L527+24
 7837              	.LBE2358:
 7838              	.LBE2357:
 7839              	.LBE2356:
 7840              	.LBB2372:
ARM GAS  /tmp/ccobg3TQ.s 			page 244


 7841              	.LBB2354:
 7842              	.LBB2351:
 7843              	.LBB2349:
 402:../../libdaisy/src/hid/disp/display.h **** 
 7844              		.loc 3 402 20 is_stmt 0 view .LVU1852
 7845 053e B024     		movs	r4, #176
 7846              	.LVL561:
 7847              	.L469:
 402:../../libdaisy/src/hid/disp/display.h **** 
 7848              		.loc 3 402 20 view .LVU1853
 7849              	.LBE2349:
 7850              	.LBE2351:
 7851              	.LBE2354:
 7852              	.LBE2372:
 7853              	.LBB2373:
 7854              	.LBB2371:
 7855              	.LBB2370:
 7856              	.LBB2359:
 7857              	.LBB2360:
 111:../../libdaisy/src/dev/oled_ssd130x.h ****         spi_.BlockingTransmit(&cmd, 1);
 7858              		.loc 12 111 23 view .LVU1854
 7859 0540 0021     		movs	r1, #0
 7860 0542 2548     		ldr	r0, .L527+28
 7861 0544 8DF82C40 		strb	r4, [sp, #44]
 7862              	.LVL562:
 111:../../libdaisy/src/dev/oled_ssd130x.h ****         spi_.BlockingTransmit(&cmd, 1);
 7863              		.loc 12 111 23 view .LVU1855
 7864              	.LBE2360:
 7865              	.LBI2359:
 109:../../libdaisy/src/dev/oled_ssd130x.h ****     {
 7866              		.loc 12 109 10 is_stmt 1 view .LVU1856
 7867              	.LBB2361:
 111:../../libdaisy/src/dev/oled_ssd130x.h ****         spi_.BlockingTransmit(&cmd, 1);
 7868              		.loc 12 111 9 view .LVU1857
 7869 0548 0134     		adds	r4, r4, #1
 7870              	.LVL563:
 111:../../libdaisy/src/dev/oled_ssd130x.h ****         spi_.BlockingTransmit(&cmd, 1);
 7871              		.loc 12 111 9 is_stmt 0 view .LVU1858
 7872 054a 0D46     		mov	r5, r1
 111:../../libdaisy/src/dev/oled_ssd130x.h ****         spi_.BlockingTransmit(&cmd, 1);
 7873              		.loc 12 111 23 view .LVU1859
 7874 054c FFF7FEFF 		bl	dsy_gpio_write
 7875              	.LVL564:
 112:../../libdaisy/src/dev/oled_ssd130x.h ****     };
 7876              		.loc 12 112 9 is_stmt 1 view .LVU1860
 112:../../libdaisy/src/dev/oled_ssd130x.h ****     };
 7877              		.loc 12 112 30 is_stmt 0 view .LVU1861
 7878 0550 6423     		movs	r3, #100
 7879 0552 0122     		movs	r2, #1
 7880 0554 0BA9     		add	r1, sp, #44
 7881 0556 2148     		ldr	r0, .L527+32
 7882              	.LVL565:
 112:../../libdaisy/src/dev/oled_ssd130x.h ****     };
 7883              		.loc 12 112 30 view .LVU1862
 7884 0558 FFF7FEFF 		bl	_ZN5daisy9SpiHandle16BlockingTransmitEPhjm
 7885              	.LVL566:
 112:../../libdaisy/src/dev/oled_ssd130x.h ****     };
ARM GAS  /tmp/ccobg3TQ.s 			page 245


 7886              		.loc 12 112 30 view .LVU1863
 7887              	.LBE2361:
 7888              	.LBE2359:
 7889              	.LBB2362:
 7890              	.LBB2363:
 111:../../libdaisy/src/dev/oled_ssd130x.h ****         spi_.BlockingTransmit(&cmd, 1);
 7891              		.loc 12 111 23 view .LVU1864
 7892 055c 2946     		mov	r1, r5
 7893 055e 1E48     		ldr	r0, .L527+28
 7894 0560 E4B2     		uxtb	r4, r4
 7895 0562 8DF82C50 		strb	r5, [sp, #44]
 7896              	.LVL567:
 111:../../libdaisy/src/dev/oled_ssd130x.h ****         spi_.BlockingTransmit(&cmd, 1);
 7897              		.loc 12 111 23 view .LVU1865
 7898              	.LBE2363:
 7899              	.LBI2362:
 109:../../libdaisy/src/dev/oled_ssd130x.h ****     {
 7900              		.loc 12 109 10 is_stmt 1 view .LVU1866
 7901              	.LBB2364:
 111:../../libdaisy/src/dev/oled_ssd130x.h ****         spi_.BlockingTransmit(&cmd, 1);
 7902              		.loc 12 111 9 view .LVU1867
 111:../../libdaisy/src/dev/oled_ssd130x.h ****         spi_.BlockingTransmit(&cmd, 1);
 7903              		.loc 12 111 23 is_stmt 0 view .LVU1868
 7904 0566 FFF7FEFF 		bl	dsy_gpio_write
 7905              	.LVL568:
 112:../../libdaisy/src/dev/oled_ssd130x.h ****     };
 7906              		.loc 12 112 9 is_stmt 1 view .LVU1869
 112:../../libdaisy/src/dev/oled_ssd130x.h ****     };
 7907              		.loc 12 112 30 is_stmt 0 view .LVU1870
 7908 056a 0122     		movs	r2, #1
 7909 056c 6423     		movs	r3, #100
 7910 056e 0BA9     		add	r1, sp, #44
 7911 0570 1A48     		ldr	r0, .L527+32
 7912              	.LVL569:
 112:../../libdaisy/src/dev/oled_ssd130x.h ****     };
 7913              		.loc 12 112 30 view .LVU1871
 7914 0572 FFF7FEFF 		bl	_ZN5daisy9SpiHandle16BlockingTransmitEPhjm
 7915              	.LVL570:
 112:../../libdaisy/src/dev/oled_ssd130x.h ****     };
 7916              		.loc 12 112 30 view .LVU1872
 7917 0576 1023     		movs	r3, #16
 7918              	.LBE2364:
 7919              	.LBE2362:
 7920              	.LBB2365:
 7921              	.LBB2366:
 111:../../libdaisy/src/dev/oled_ssd130x.h ****         spi_.BlockingTransmit(&cmd, 1);
 7922              		.loc 12 111 23 view .LVU1873
 7923 0578 2946     		mov	r1, r5
 7924 057a 1748     		ldr	r0, .L527+28
 7925 057c 8DF82C30 		strb	r3, [sp, #44]
 7926              	.LVL571:
 111:../../libdaisy/src/dev/oled_ssd130x.h ****         spi_.BlockingTransmit(&cmd, 1);
 7927              		.loc 12 111 23 view .LVU1874
 7928              	.LBE2366:
 7929              	.LBI2365:
 109:../../libdaisy/src/dev/oled_ssd130x.h ****     {
 7930              		.loc 12 109 10 is_stmt 1 view .LVU1875
ARM GAS  /tmp/ccobg3TQ.s 			page 246


 7931              	.LBB2367:
 111:../../libdaisy/src/dev/oled_ssd130x.h ****         spi_.BlockingTransmit(&cmd, 1);
 7932              		.loc 12 111 9 view .LVU1876
 111:../../libdaisy/src/dev/oled_ssd130x.h ****         spi_.BlockingTransmit(&cmd, 1);
 7933              		.loc 12 111 23 is_stmt 0 view .LVU1877
 7934 0580 FFF7FEFF 		bl	dsy_gpio_write
 7935              	.LVL572:
 112:../../libdaisy/src/dev/oled_ssd130x.h ****     };
 7936              		.loc 12 112 9 is_stmt 1 view .LVU1878
 112:../../libdaisy/src/dev/oled_ssd130x.h ****     };
 7937              		.loc 12 112 30 is_stmt 0 view .LVU1879
 7938 0584 6423     		movs	r3, #100
 7939 0586 0122     		movs	r2, #1
 7940 0588 0BA9     		add	r1, sp, #44
 7941 058a 1448     		ldr	r0, .L527+32
 7942              	.LVL573:
 112:../../libdaisy/src/dev/oled_ssd130x.h ****     };
 7943              		.loc 12 112 30 view .LVU1880
 7944 058c FFF7FEFF 		bl	_ZN5daisy9SpiHandle16BlockingTransmitEPhjm
 7945              	.LVL574:
 112:../../libdaisy/src/dev/oled_ssd130x.h ****     };
 7946              		.loc 12 112 30 view .LVU1881
 7947              	.LBE2367:
 7948              	.LBE2365:
 7949              	.LBB2368:
 7950              	.LBI2368:
 115:../../libdaisy/src/dev/oled_ssd130x.h ****     {
 7951              		.loc 12 115 10 is_stmt 1 view .LVU1882
 7952              	.LBB2369:
 117:../../libdaisy/src/dev/oled_ssd130x.h ****         spi_.BlockingTransmit(buff, size);
 7953              		.loc 12 117 9 view .LVU1883
 117:../../libdaisy/src/dev/oled_ssd130x.h ****         spi_.BlockingTransmit(buff, size);
 7954              		.loc 12 117 23 is_stmt 0 view .LVU1884
 7955 0590 0121     		movs	r1, #1
 7956 0592 1148     		ldr	r0, .L527+28
 7957 0594 FFF7FEFF 		bl	dsy_gpio_write
 7958              	.LVL575:
 118:../../libdaisy/src/dev/oled_ssd130x.h ****     };
 7959              		.loc 12 118 9 is_stmt 1 view .LVU1885
 118:../../libdaisy/src/dev/oled_ssd130x.h ****     };
 7960              		.loc 12 118 30 is_stmt 0 view .LVU1886
 7961 0598 8022     		movs	r2, #128
 7962 059a 3146     		mov	r1, r6
 7963 059c 6423     		movs	r3, #100
 7964 059e 0F48     		ldr	r0, .L527+32
 7965              	.LVL576:
 118:../../libdaisy/src/dev/oled_ssd130x.h ****     };
 7966              		.loc 12 118 30 view .LVU1887
 7967 05a0 1644     		add	r6, r6, r2
 7968              	.LVL577:
 118:../../libdaisy/src/dev/oled_ssd130x.h ****     };
 7969              		.loc 12 118 30 view .LVU1888
 7970 05a2 FFF7FEFF 		bl	_ZN5daisy9SpiHandle16BlockingTransmitEPhjm
 7971              	.LVL578:
 118:../../libdaisy/src/dev/oled_ssd130x.h ****     };
 7972              		.loc 12 118 30 view .LVU1889
 7973              	.LBE2369:
ARM GAS  /tmp/ccobg3TQ.s 			page 247


 7974              	.LBE2368:
 7975              		.loc 12 270 9 is_stmt 1 view .LVU1890
 7976              		.loc 12 270 22 view .LVU1891
 7977 05a6 B82C     		cmp	r4, #184
 7978 05a8 CAD1     		bne	.L469
 7979              	.LVL579:
 7980              		.loc 12 270 22 is_stmt 0 view .LVU1892
 7981              	.LBE2370:
 7982              	.LBE2371:
 7983              	.LBE2373:
 7984              	.LBB2374:
 7985              	.LBI2374:
 657:/usr/include/newlib/c++/9.2.1/bits/basic_string.h ****       { _M_dispose(); }
 7986              		.loc 20 657 7 is_stmt 1 discriminator 4 view .LVU1893
 7987              	.LBB2375:
 7988              	.LBI2375:
 229:/usr/include/newlib/c++/9.2.1/bits/basic_string.h ****       {
 7989              		.loc 20 229 7 discriminator 4 view .LVU1894
 7990              	.LBB2376:
 7991              	.LBB2377:
 7992              	.LBI2377:
 221:/usr/include/newlib/c++/9.2.1/bits/basic_string.h ****       { return _M_data() == _M_local_data(); }
 7993              		.loc 20 221 7 discriminator 4 view .LVU1895
 7994              	.LBB2378:
 222:/usr/include/newlib/c++/9.2.1/bits/basic_string.h **** 
 7995              		.loc 20 222 26 is_stmt 0 discriminator 4 view .LVU1896
 7996 05aa 0C98     		ldr	r0, [sp, #48]
 7997              	.LVL580:
 7998              	.LBB2379:
 7999              	.LBI2379:
 200:/usr/include/newlib/c++/9.2.1/bits/basic_string.h ****       {
 8000              		.loc 20 200 7 is_stmt 1 discriminator 4 view .LVU1897
 200:/usr/include/newlib/c++/9.2.1/bits/basic_string.h ****       {
 8001              		.loc 20 200 7 is_stmt 0 discriminator 4 view .LVU1898
 8002              	.LBE2379:
 8003              	.LBE2378:
 8004              	.LBE2377:
 231:/usr/include/newlib/c++/9.2.1/bits/basic_string.h **** 	  _M_destroy(_M_allocated_capacity);
 8005              		.loc 20 231 2 discriminator 4 view .LVU1899
 8006 05ac 0EAB     		add	r3, sp, #56
 8007              	.LVL581:
 231:/usr/include/newlib/c++/9.2.1/bits/basic_string.h **** 	  _M_destroy(_M_allocated_capacity);
 8008              		.loc 20 231 2 discriminator 4 view .LVU1900
 8009 05ae 9842     		cmp	r0, r3
 8010 05b0 01D0     		beq	.L429
 8011              	.LVL582:
 8012              	.LBB2380:
 8013              	.LBI2380:
 236:/usr/include/newlib/c++/9.2.1/bits/basic_string.h ****       { _Alloc_traits::deallocate(_M_get_allocator(), _M_data(), __size + 1); }
 8014              		.loc 20 236 7 is_stmt 1 view .LVU1901
 8015              	.LBB2381:
 8016              	.LBB2382:
 8017              	.LBI2382:
 8018              		.file 23 "/usr/include/newlib/c++/9.2.1/bits/alloc_traits.h"
   1:/usr/include/newlib/c++/9.2.1/bits/alloc_traits.h **** // Allocator traits -*- C++ -*-
   2:/usr/include/newlib/c++/9.2.1/bits/alloc_traits.h **** 
   3:/usr/include/newlib/c++/9.2.1/bits/alloc_traits.h **** // Copyright (C) 2011-2019 Free Software Foundation, Inc.
ARM GAS  /tmp/ccobg3TQ.s 			page 248


   4:/usr/include/newlib/c++/9.2.1/bits/alloc_traits.h **** //
   5:/usr/include/newlib/c++/9.2.1/bits/alloc_traits.h **** // This file is part of the GNU ISO C++ Library.  This library is free
   6:/usr/include/newlib/c++/9.2.1/bits/alloc_traits.h **** // software; you can redistribute it and/or modify it under the
   7:/usr/include/newlib/c++/9.2.1/bits/alloc_traits.h **** // terms of the GNU General Public License as published by the
   8:/usr/include/newlib/c++/9.2.1/bits/alloc_traits.h **** // Free Software Foundation; either version 3, or (at your option)
   9:/usr/include/newlib/c++/9.2.1/bits/alloc_traits.h **** // any later version.
  10:/usr/include/newlib/c++/9.2.1/bits/alloc_traits.h **** 
  11:/usr/include/newlib/c++/9.2.1/bits/alloc_traits.h **** // This library is distributed in the hope that it will be useful,
  12:/usr/include/newlib/c++/9.2.1/bits/alloc_traits.h **** // but WITHOUT ANY WARRANTY; without even the implied warranty of
  13:/usr/include/newlib/c++/9.2.1/bits/alloc_traits.h **** // MERCHANTABILITY or FITNESS FOR A PARTICULAR PURPOSE.  See the
  14:/usr/include/newlib/c++/9.2.1/bits/alloc_traits.h **** // GNU General Public License for more details.
  15:/usr/include/newlib/c++/9.2.1/bits/alloc_traits.h **** 
  16:/usr/include/newlib/c++/9.2.1/bits/alloc_traits.h **** // Under Section 7 of GPL version 3, you are granted additional
  17:/usr/include/newlib/c++/9.2.1/bits/alloc_traits.h **** // permissions described in the GCC Runtime Library Exception, version
  18:/usr/include/newlib/c++/9.2.1/bits/alloc_traits.h **** // 3.1, as published by the Free Software Foundation.
  19:/usr/include/newlib/c++/9.2.1/bits/alloc_traits.h **** 
  20:/usr/include/newlib/c++/9.2.1/bits/alloc_traits.h **** // You should have received a copy of the GNU General Public License and
  21:/usr/include/newlib/c++/9.2.1/bits/alloc_traits.h **** // a copy of the GCC Runtime Library Exception along with this program;
  22:/usr/include/newlib/c++/9.2.1/bits/alloc_traits.h **** // see the files COPYING3 and COPYING.RUNTIME respectively.  If not, see
  23:/usr/include/newlib/c++/9.2.1/bits/alloc_traits.h **** // <http://www.gnu.org/licenses/>.
  24:/usr/include/newlib/c++/9.2.1/bits/alloc_traits.h **** 
  25:/usr/include/newlib/c++/9.2.1/bits/alloc_traits.h **** /** @file bits/alloc_traits.h
  26:/usr/include/newlib/c++/9.2.1/bits/alloc_traits.h ****  *  This is an internal header file, included by other library headers.
  27:/usr/include/newlib/c++/9.2.1/bits/alloc_traits.h ****  *  Do not attempt to use it directly. @headername{memory}
  28:/usr/include/newlib/c++/9.2.1/bits/alloc_traits.h ****  */
  29:/usr/include/newlib/c++/9.2.1/bits/alloc_traits.h **** 
  30:/usr/include/newlib/c++/9.2.1/bits/alloc_traits.h **** #ifndef _ALLOC_TRAITS_H
  31:/usr/include/newlib/c++/9.2.1/bits/alloc_traits.h **** #define _ALLOC_TRAITS_H 1
  32:/usr/include/newlib/c++/9.2.1/bits/alloc_traits.h **** 
  33:/usr/include/newlib/c++/9.2.1/bits/alloc_traits.h **** #if __cplusplus >= 201103L
  34:/usr/include/newlib/c++/9.2.1/bits/alloc_traits.h **** 
  35:/usr/include/newlib/c++/9.2.1/bits/alloc_traits.h **** #include <bits/memoryfwd.h>
  36:/usr/include/newlib/c++/9.2.1/bits/alloc_traits.h **** #include <bits/ptr_traits.h>
  37:/usr/include/newlib/c++/9.2.1/bits/alloc_traits.h **** #include <ext/numeric_traits.h>
  38:/usr/include/newlib/c++/9.2.1/bits/alloc_traits.h **** 
  39:/usr/include/newlib/c++/9.2.1/bits/alloc_traits.h **** #define __cpp_lib_allocator_traits_is_always_equal 201411
  40:/usr/include/newlib/c++/9.2.1/bits/alloc_traits.h **** 
  41:/usr/include/newlib/c++/9.2.1/bits/alloc_traits.h **** namespace std _GLIBCXX_VISIBILITY(default)
  42:/usr/include/newlib/c++/9.2.1/bits/alloc_traits.h **** {
  43:/usr/include/newlib/c++/9.2.1/bits/alloc_traits.h **** _GLIBCXX_BEGIN_NAMESPACE_VERSION
  44:/usr/include/newlib/c++/9.2.1/bits/alloc_traits.h **** 
  45:/usr/include/newlib/c++/9.2.1/bits/alloc_traits.h ****   struct __allocator_traits_base
  46:/usr/include/newlib/c++/9.2.1/bits/alloc_traits.h ****   {
  47:/usr/include/newlib/c++/9.2.1/bits/alloc_traits.h ****     template<typename _Tp, typename _Up, typename = void>
  48:/usr/include/newlib/c++/9.2.1/bits/alloc_traits.h ****       struct __rebind : __replace_first_arg<_Tp, _Up> { };
  49:/usr/include/newlib/c++/9.2.1/bits/alloc_traits.h **** 
  50:/usr/include/newlib/c++/9.2.1/bits/alloc_traits.h ****     template<typename _Tp, typename _Up>
  51:/usr/include/newlib/c++/9.2.1/bits/alloc_traits.h ****       struct __rebind<_Tp, _Up,
  52:/usr/include/newlib/c++/9.2.1/bits/alloc_traits.h **** 		      __void_t<typename _Tp::template rebind<_Up>::other>>
  53:/usr/include/newlib/c++/9.2.1/bits/alloc_traits.h ****       { using type = typename _Tp::template rebind<_Up>::other; };
  54:/usr/include/newlib/c++/9.2.1/bits/alloc_traits.h **** 
  55:/usr/include/newlib/c++/9.2.1/bits/alloc_traits.h ****   protected:
  56:/usr/include/newlib/c++/9.2.1/bits/alloc_traits.h ****     template<typename _Tp>
  57:/usr/include/newlib/c++/9.2.1/bits/alloc_traits.h ****       using __pointer = typename _Tp::pointer;
  58:/usr/include/newlib/c++/9.2.1/bits/alloc_traits.h ****     template<typename _Tp>
  59:/usr/include/newlib/c++/9.2.1/bits/alloc_traits.h ****       using __c_pointer = typename _Tp::const_pointer;
  60:/usr/include/newlib/c++/9.2.1/bits/alloc_traits.h ****     template<typename _Tp>
ARM GAS  /tmp/ccobg3TQ.s 			page 249


  61:/usr/include/newlib/c++/9.2.1/bits/alloc_traits.h ****       using __v_pointer = typename _Tp::void_pointer;
  62:/usr/include/newlib/c++/9.2.1/bits/alloc_traits.h ****     template<typename _Tp>
  63:/usr/include/newlib/c++/9.2.1/bits/alloc_traits.h ****       using __cv_pointer = typename _Tp::const_void_pointer;
  64:/usr/include/newlib/c++/9.2.1/bits/alloc_traits.h ****     template<typename _Tp>
  65:/usr/include/newlib/c++/9.2.1/bits/alloc_traits.h ****       using __pocca = typename _Tp::propagate_on_container_copy_assignment;
  66:/usr/include/newlib/c++/9.2.1/bits/alloc_traits.h ****     template<typename _Tp>
  67:/usr/include/newlib/c++/9.2.1/bits/alloc_traits.h ****       using __pocma = typename _Tp::propagate_on_container_move_assignment;
  68:/usr/include/newlib/c++/9.2.1/bits/alloc_traits.h ****     template<typename _Tp>
  69:/usr/include/newlib/c++/9.2.1/bits/alloc_traits.h ****       using __pocs = typename _Tp::propagate_on_container_swap;
  70:/usr/include/newlib/c++/9.2.1/bits/alloc_traits.h ****     template<typename _Tp>
  71:/usr/include/newlib/c++/9.2.1/bits/alloc_traits.h ****       using __equal = typename _Tp::is_always_equal;
  72:/usr/include/newlib/c++/9.2.1/bits/alloc_traits.h ****   };
  73:/usr/include/newlib/c++/9.2.1/bits/alloc_traits.h **** 
  74:/usr/include/newlib/c++/9.2.1/bits/alloc_traits.h ****   template<typename _Alloc, typename _Up>
  75:/usr/include/newlib/c++/9.2.1/bits/alloc_traits.h ****     using __alloc_rebind
  76:/usr/include/newlib/c++/9.2.1/bits/alloc_traits.h ****       = typename __allocator_traits_base::template __rebind<_Alloc, _Up>::type;
  77:/usr/include/newlib/c++/9.2.1/bits/alloc_traits.h **** 
  78:/usr/include/newlib/c++/9.2.1/bits/alloc_traits.h ****   /**
  79:/usr/include/newlib/c++/9.2.1/bits/alloc_traits.h ****    * @brief  Uniform interface to all allocator types.
  80:/usr/include/newlib/c++/9.2.1/bits/alloc_traits.h ****    * @ingroup allocators
  81:/usr/include/newlib/c++/9.2.1/bits/alloc_traits.h ****   */
  82:/usr/include/newlib/c++/9.2.1/bits/alloc_traits.h ****   template<typename _Alloc>
  83:/usr/include/newlib/c++/9.2.1/bits/alloc_traits.h ****     struct allocator_traits : __allocator_traits_base
  84:/usr/include/newlib/c++/9.2.1/bits/alloc_traits.h ****     {
  85:/usr/include/newlib/c++/9.2.1/bits/alloc_traits.h ****       /// The allocator type
  86:/usr/include/newlib/c++/9.2.1/bits/alloc_traits.h ****       typedef _Alloc allocator_type;
  87:/usr/include/newlib/c++/9.2.1/bits/alloc_traits.h ****       /// The allocated type
  88:/usr/include/newlib/c++/9.2.1/bits/alloc_traits.h ****       typedef typename _Alloc::value_type value_type;
  89:/usr/include/newlib/c++/9.2.1/bits/alloc_traits.h **** 
  90:/usr/include/newlib/c++/9.2.1/bits/alloc_traits.h ****       /**
  91:/usr/include/newlib/c++/9.2.1/bits/alloc_traits.h ****        * @brief   The allocator's pointer type.
  92:/usr/include/newlib/c++/9.2.1/bits/alloc_traits.h ****        *
  93:/usr/include/newlib/c++/9.2.1/bits/alloc_traits.h ****        * @c Alloc::pointer if that type exists, otherwise @c value_type*
  94:/usr/include/newlib/c++/9.2.1/bits/alloc_traits.h ****       */
  95:/usr/include/newlib/c++/9.2.1/bits/alloc_traits.h ****       using pointer = __detected_or_t<value_type*, __pointer, _Alloc>;
  96:/usr/include/newlib/c++/9.2.1/bits/alloc_traits.h **** 
  97:/usr/include/newlib/c++/9.2.1/bits/alloc_traits.h ****     private:
  98:/usr/include/newlib/c++/9.2.1/bits/alloc_traits.h ****       // Select _Func<_Alloc> or pointer_traits<pointer>::rebind<_Tp>
  99:/usr/include/newlib/c++/9.2.1/bits/alloc_traits.h ****       template<template<typename> class _Func, typename _Tp, typename = void>
 100:/usr/include/newlib/c++/9.2.1/bits/alloc_traits.h **** 	struct _Ptr
 101:/usr/include/newlib/c++/9.2.1/bits/alloc_traits.h **** 	{
 102:/usr/include/newlib/c++/9.2.1/bits/alloc_traits.h **** 	  using type = typename pointer_traits<pointer>::template rebind<_Tp>;
 103:/usr/include/newlib/c++/9.2.1/bits/alloc_traits.h **** 	};
 104:/usr/include/newlib/c++/9.2.1/bits/alloc_traits.h **** 
 105:/usr/include/newlib/c++/9.2.1/bits/alloc_traits.h ****       template<template<typename> class _Func, typename _Tp>
 106:/usr/include/newlib/c++/9.2.1/bits/alloc_traits.h **** 	struct _Ptr<_Func, _Tp, __void_t<_Func<_Alloc>>>
 107:/usr/include/newlib/c++/9.2.1/bits/alloc_traits.h **** 	{
 108:/usr/include/newlib/c++/9.2.1/bits/alloc_traits.h **** 	  using type = _Func<_Alloc>;
 109:/usr/include/newlib/c++/9.2.1/bits/alloc_traits.h **** 	};
 110:/usr/include/newlib/c++/9.2.1/bits/alloc_traits.h **** 
 111:/usr/include/newlib/c++/9.2.1/bits/alloc_traits.h ****       // Select _A2::difference_type or pointer_traits<_Ptr>::difference_type
 112:/usr/include/newlib/c++/9.2.1/bits/alloc_traits.h ****       template<typename _A2, typename _PtrT, typename = void>
 113:/usr/include/newlib/c++/9.2.1/bits/alloc_traits.h **** 	struct _Diff
 114:/usr/include/newlib/c++/9.2.1/bits/alloc_traits.h **** 	{ using type = typename pointer_traits<_PtrT>::difference_type; };
 115:/usr/include/newlib/c++/9.2.1/bits/alloc_traits.h **** 
 116:/usr/include/newlib/c++/9.2.1/bits/alloc_traits.h ****       template<typename _A2, typename _PtrT>
 117:/usr/include/newlib/c++/9.2.1/bits/alloc_traits.h **** 	struct _Diff<_A2, _PtrT, __void_t<typename _A2::difference_type>>
ARM GAS  /tmp/ccobg3TQ.s 			page 250


 118:/usr/include/newlib/c++/9.2.1/bits/alloc_traits.h **** 	{ using type = typename _A2::difference_type; };
 119:/usr/include/newlib/c++/9.2.1/bits/alloc_traits.h **** 
 120:/usr/include/newlib/c++/9.2.1/bits/alloc_traits.h ****       // Select _A2::size_type or make_unsigned<_DiffT>::type
 121:/usr/include/newlib/c++/9.2.1/bits/alloc_traits.h ****       template<typename _A2, typename _DiffT, typename = void>
 122:/usr/include/newlib/c++/9.2.1/bits/alloc_traits.h **** 	struct _Size : make_unsigned<_DiffT> { };
 123:/usr/include/newlib/c++/9.2.1/bits/alloc_traits.h **** 
 124:/usr/include/newlib/c++/9.2.1/bits/alloc_traits.h ****       template<typename _A2, typename _DiffT>
 125:/usr/include/newlib/c++/9.2.1/bits/alloc_traits.h **** 	struct _Size<_A2, _DiffT, __void_t<typename _A2::size_type>>
 126:/usr/include/newlib/c++/9.2.1/bits/alloc_traits.h **** 	{ using type = typename _A2::size_type; };
 127:/usr/include/newlib/c++/9.2.1/bits/alloc_traits.h **** 
 128:/usr/include/newlib/c++/9.2.1/bits/alloc_traits.h ****     public:
 129:/usr/include/newlib/c++/9.2.1/bits/alloc_traits.h ****       /**
 130:/usr/include/newlib/c++/9.2.1/bits/alloc_traits.h ****        * @brief   The allocator's const pointer type.
 131:/usr/include/newlib/c++/9.2.1/bits/alloc_traits.h ****        *
 132:/usr/include/newlib/c++/9.2.1/bits/alloc_traits.h ****        * @c Alloc::const_pointer if that type exists, otherwise
 133:/usr/include/newlib/c++/9.2.1/bits/alloc_traits.h ****        * <tt> pointer_traits<pointer>::rebind<const value_type> </tt>
 134:/usr/include/newlib/c++/9.2.1/bits/alloc_traits.h ****       */
 135:/usr/include/newlib/c++/9.2.1/bits/alloc_traits.h ****       using const_pointer = typename _Ptr<__c_pointer, const value_type>::type;
 136:/usr/include/newlib/c++/9.2.1/bits/alloc_traits.h **** 
 137:/usr/include/newlib/c++/9.2.1/bits/alloc_traits.h ****       /**
 138:/usr/include/newlib/c++/9.2.1/bits/alloc_traits.h ****        * @brief   The allocator's void pointer type.
 139:/usr/include/newlib/c++/9.2.1/bits/alloc_traits.h ****        *
 140:/usr/include/newlib/c++/9.2.1/bits/alloc_traits.h ****        * @c Alloc::void_pointer if that type exists, otherwise
 141:/usr/include/newlib/c++/9.2.1/bits/alloc_traits.h ****        * <tt> pointer_traits<pointer>::rebind<void> </tt>
 142:/usr/include/newlib/c++/9.2.1/bits/alloc_traits.h ****       */
 143:/usr/include/newlib/c++/9.2.1/bits/alloc_traits.h ****       using void_pointer = typename _Ptr<__v_pointer, void>::type;
 144:/usr/include/newlib/c++/9.2.1/bits/alloc_traits.h **** 
 145:/usr/include/newlib/c++/9.2.1/bits/alloc_traits.h ****       /**
 146:/usr/include/newlib/c++/9.2.1/bits/alloc_traits.h ****        * @brief   The allocator's const void pointer type.
 147:/usr/include/newlib/c++/9.2.1/bits/alloc_traits.h ****        *
 148:/usr/include/newlib/c++/9.2.1/bits/alloc_traits.h ****        * @c Alloc::const_void_pointer if that type exists, otherwise
 149:/usr/include/newlib/c++/9.2.1/bits/alloc_traits.h ****        * <tt> pointer_traits<pointer>::rebind<const void> </tt>
 150:/usr/include/newlib/c++/9.2.1/bits/alloc_traits.h ****       */
 151:/usr/include/newlib/c++/9.2.1/bits/alloc_traits.h ****       using const_void_pointer = typename _Ptr<__cv_pointer, const void>::type;
 152:/usr/include/newlib/c++/9.2.1/bits/alloc_traits.h **** 
 153:/usr/include/newlib/c++/9.2.1/bits/alloc_traits.h ****       /**
 154:/usr/include/newlib/c++/9.2.1/bits/alloc_traits.h ****        * @brief   The allocator's difference type
 155:/usr/include/newlib/c++/9.2.1/bits/alloc_traits.h ****        *
 156:/usr/include/newlib/c++/9.2.1/bits/alloc_traits.h ****        * @c Alloc::difference_type if that type exists, otherwise
 157:/usr/include/newlib/c++/9.2.1/bits/alloc_traits.h ****        * <tt> pointer_traits<pointer>::difference_type </tt>
 158:/usr/include/newlib/c++/9.2.1/bits/alloc_traits.h ****       */
 159:/usr/include/newlib/c++/9.2.1/bits/alloc_traits.h ****       using difference_type = typename _Diff<_Alloc, pointer>::type;
 160:/usr/include/newlib/c++/9.2.1/bits/alloc_traits.h **** 
 161:/usr/include/newlib/c++/9.2.1/bits/alloc_traits.h ****       /**
 162:/usr/include/newlib/c++/9.2.1/bits/alloc_traits.h ****        * @brief   The allocator's size type
 163:/usr/include/newlib/c++/9.2.1/bits/alloc_traits.h ****        *
 164:/usr/include/newlib/c++/9.2.1/bits/alloc_traits.h ****        * @c Alloc::size_type if that type exists, otherwise
 165:/usr/include/newlib/c++/9.2.1/bits/alloc_traits.h ****        * <tt> make_unsigned<difference_type>::type </tt>
 166:/usr/include/newlib/c++/9.2.1/bits/alloc_traits.h ****       */
 167:/usr/include/newlib/c++/9.2.1/bits/alloc_traits.h ****       using size_type = typename _Size<_Alloc, difference_type>::type;
 168:/usr/include/newlib/c++/9.2.1/bits/alloc_traits.h **** 
 169:/usr/include/newlib/c++/9.2.1/bits/alloc_traits.h ****       /**
 170:/usr/include/newlib/c++/9.2.1/bits/alloc_traits.h ****        * @brief   How the allocator is propagated on copy assignment
 171:/usr/include/newlib/c++/9.2.1/bits/alloc_traits.h ****        *
 172:/usr/include/newlib/c++/9.2.1/bits/alloc_traits.h ****        * @c Alloc::propagate_on_container_copy_assignment if that type exists,
 173:/usr/include/newlib/c++/9.2.1/bits/alloc_traits.h ****        * otherwise @c false_type
 174:/usr/include/newlib/c++/9.2.1/bits/alloc_traits.h ****       */
ARM GAS  /tmp/ccobg3TQ.s 			page 251


 175:/usr/include/newlib/c++/9.2.1/bits/alloc_traits.h ****       using propagate_on_container_copy_assignment
 176:/usr/include/newlib/c++/9.2.1/bits/alloc_traits.h **** 	= __detected_or_t<false_type, __pocca, _Alloc>;
 177:/usr/include/newlib/c++/9.2.1/bits/alloc_traits.h **** 
 178:/usr/include/newlib/c++/9.2.1/bits/alloc_traits.h ****       /**
 179:/usr/include/newlib/c++/9.2.1/bits/alloc_traits.h ****        * @brief   How the allocator is propagated on move assignment
 180:/usr/include/newlib/c++/9.2.1/bits/alloc_traits.h ****        *
 181:/usr/include/newlib/c++/9.2.1/bits/alloc_traits.h ****        * @c Alloc::propagate_on_container_move_assignment if that type exists,
 182:/usr/include/newlib/c++/9.2.1/bits/alloc_traits.h ****        * otherwise @c false_type
 183:/usr/include/newlib/c++/9.2.1/bits/alloc_traits.h ****       */
 184:/usr/include/newlib/c++/9.2.1/bits/alloc_traits.h ****       using propagate_on_container_move_assignment
 185:/usr/include/newlib/c++/9.2.1/bits/alloc_traits.h **** 	= __detected_or_t<false_type, __pocma, _Alloc>;
 186:/usr/include/newlib/c++/9.2.1/bits/alloc_traits.h **** 
 187:/usr/include/newlib/c++/9.2.1/bits/alloc_traits.h ****       /**
 188:/usr/include/newlib/c++/9.2.1/bits/alloc_traits.h ****        * @brief   How the allocator is propagated on swap
 189:/usr/include/newlib/c++/9.2.1/bits/alloc_traits.h ****        *
 190:/usr/include/newlib/c++/9.2.1/bits/alloc_traits.h ****        * @c Alloc::propagate_on_container_swap if that type exists,
 191:/usr/include/newlib/c++/9.2.1/bits/alloc_traits.h ****        * otherwise @c false_type
 192:/usr/include/newlib/c++/9.2.1/bits/alloc_traits.h ****       */
 193:/usr/include/newlib/c++/9.2.1/bits/alloc_traits.h ****       using propagate_on_container_swap
 194:/usr/include/newlib/c++/9.2.1/bits/alloc_traits.h **** 	= __detected_or_t<false_type, __pocs, _Alloc>;
 195:/usr/include/newlib/c++/9.2.1/bits/alloc_traits.h **** 
 196:/usr/include/newlib/c++/9.2.1/bits/alloc_traits.h ****       /**
 197:/usr/include/newlib/c++/9.2.1/bits/alloc_traits.h ****        * @brief   Whether all instances of the allocator type compare equal.
 198:/usr/include/newlib/c++/9.2.1/bits/alloc_traits.h ****        *
 199:/usr/include/newlib/c++/9.2.1/bits/alloc_traits.h ****        * @c Alloc::is_always_equal if that type exists,
 200:/usr/include/newlib/c++/9.2.1/bits/alloc_traits.h ****        * otherwise @c is_empty<Alloc>::type
 201:/usr/include/newlib/c++/9.2.1/bits/alloc_traits.h ****       */
 202:/usr/include/newlib/c++/9.2.1/bits/alloc_traits.h ****       using is_always_equal
 203:/usr/include/newlib/c++/9.2.1/bits/alloc_traits.h **** 	= __detected_or_t<typename is_empty<_Alloc>::type, __equal, _Alloc>;
 204:/usr/include/newlib/c++/9.2.1/bits/alloc_traits.h **** 
 205:/usr/include/newlib/c++/9.2.1/bits/alloc_traits.h ****       template<typename _Tp>
 206:/usr/include/newlib/c++/9.2.1/bits/alloc_traits.h **** 	using rebind_alloc = __alloc_rebind<_Alloc, _Tp>;
 207:/usr/include/newlib/c++/9.2.1/bits/alloc_traits.h ****       template<typename _Tp>
 208:/usr/include/newlib/c++/9.2.1/bits/alloc_traits.h **** 	using rebind_traits = allocator_traits<rebind_alloc<_Tp>>;
 209:/usr/include/newlib/c++/9.2.1/bits/alloc_traits.h **** 
 210:/usr/include/newlib/c++/9.2.1/bits/alloc_traits.h ****     private:
 211:/usr/include/newlib/c++/9.2.1/bits/alloc_traits.h ****       template<typename _Alloc2>
 212:/usr/include/newlib/c++/9.2.1/bits/alloc_traits.h **** 	static auto
 213:/usr/include/newlib/c++/9.2.1/bits/alloc_traits.h **** 	_S_allocate(_Alloc2& __a, size_type __n, const_void_pointer __hint, int)
 214:/usr/include/newlib/c++/9.2.1/bits/alloc_traits.h **** 	-> decltype(__a.allocate(__n, __hint))
 215:/usr/include/newlib/c++/9.2.1/bits/alloc_traits.h **** 	{ return __a.allocate(__n, __hint); }
 216:/usr/include/newlib/c++/9.2.1/bits/alloc_traits.h **** 
 217:/usr/include/newlib/c++/9.2.1/bits/alloc_traits.h ****       template<typename _Alloc2>
 218:/usr/include/newlib/c++/9.2.1/bits/alloc_traits.h **** 	static pointer
 219:/usr/include/newlib/c++/9.2.1/bits/alloc_traits.h **** 	_S_allocate(_Alloc2& __a, size_type __n, const_void_pointer, ...)
 220:/usr/include/newlib/c++/9.2.1/bits/alloc_traits.h **** 	{ return __a.allocate(__n); }
 221:/usr/include/newlib/c++/9.2.1/bits/alloc_traits.h **** 
 222:/usr/include/newlib/c++/9.2.1/bits/alloc_traits.h ****       template<typename _Tp, typename... _Args>
 223:/usr/include/newlib/c++/9.2.1/bits/alloc_traits.h **** 	struct __construct_helper
 224:/usr/include/newlib/c++/9.2.1/bits/alloc_traits.h **** 	{
 225:/usr/include/newlib/c++/9.2.1/bits/alloc_traits.h **** 	  template<typename _Alloc2,
 226:/usr/include/newlib/c++/9.2.1/bits/alloc_traits.h **** 	    typename = decltype(std::declval<_Alloc2*>()->construct(
 227:/usr/include/newlib/c++/9.2.1/bits/alloc_traits.h **** 		  std::declval<_Tp*>(), std::declval<_Args>()...))>
 228:/usr/include/newlib/c++/9.2.1/bits/alloc_traits.h **** 	    static true_type __test(int);
 229:/usr/include/newlib/c++/9.2.1/bits/alloc_traits.h **** 
 230:/usr/include/newlib/c++/9.2.1/bits/alloc_traits.h **** 	  template<typename>
 231:/usr/include/newlib/c++/9.2.1/bits/alloc_traits.h **** 	    static false_type __test(...);
ARM GAS  /tmp/ccobg3TQ.s 			page 252


 232:/usr/include/newlib/c++/9.2.1/bits/alloc_traits.h **** 
 233:/usr/include/newlib/c++/9.2.1/bits/alloc_traits.h **** 	  using type = decltype(__test<_Alloc>(0));
 234:/usr/include/newlib/c++/9.2.1/bits/alloc_traits.h **** 	};
 235:/usr/include/newlib/c++/9.2.1/bits/alloc_traits.h **** 
 236:/usr/include/newlib/c++/9.2.1/bits/alloc_traits.h ****       template<typename _Tp, typename... _Args>
 237:/usr/include/newlib/c++/9.2.1/bits/alloc_traits.h **** 	using __has_construct
 238:/usr/include/newlib/c++/9.2.1/bits/alloc_traits.h **** 	  = typename __construct_helper<_Tp, _Args...>::type;
 239:/usr/include/newlib/c++/9.2.1/bits/alloc_traits.h **** 
 240:/usr/include/newlib/c++/9.2.1/bits/alloc_traits.h ****       template<typename _Tp, typename... _Args>
 241:/usr/include/newlib/c++/9.2.1/bits/alloc_traits.h **** 	static _Require<__has_construct<_Tp, _Args...>>
 242:/usr/include/newlib/c++/9.2.1/bits/alloc_traits.h **** 	_S_construct(_Alloc& __a, _Tp* __p, _Args&&... __args)
 243:/usr/include/newlib/c++/9.2.1/bits/alloc_traits.h **** 	noexcept(noexcept(__a.construct(__p, std::forward<_Args>(__args)...)))
 244:/usr/include/newlib/c++/9.2.1/bits/alloc_traits.h **** 	{ __a.construct(__p, std::forward<_Args>(__args)...); }
 245:/usr/include/newlib/c++/9.2.1/bits/alloc_traits.h **** 
 246:/usr/include/newlib/c++/9.2.1/bits/alloc_traits.h ****       template<typename _Tp, typename... _Args>
 247:/usr/include/newlib/c++/9.2.1/bits/alloc_traits.h **** 	static
 248:/usr/include/newlib/c++/9.2.1/bits/alloc_traits.h **** 	_Require<__and_<__not_<__has_construct<_Tp, _Args...>>,
 249:/usr/include/newlib/c++/9.2.1/bits/alloc_traits.h **** 			       is_constructible<_Tp, _Args...>>>
 250:/usr/include/newlib/c++/9.2.1/bits/alloc_traits.h **** 	_S_construct(_Alloc&, _Tp* __p, _Args&&... __args)
 251:/usr/include/newlib/c++/9.2.1/bits/alloc_traits.h **** 	noexcept(noexcept(::new((void*)__p)
 252:/usr/include/newlib/c++/9.2.1/bits/alloc_traits.h **** 			  _Tp(std::forward<_Args>(__args)...)))
 253:/usr/include/newlib/c++/9.2.1/bits/alloc_traits.h **** 	{ ::new((void*)__p) _Tp(std::forward<_Args>(__args)...); }
 254:/usr/include/newlib/c++/9.2.1/bits/alloc_traits.h **** 
 255:/usr/include/newlib/c++/9.2.1/bits/alloc_traits.h ****       template<typename _Alloc2, typename _Tp>
 256:/usr/include/newlib/c++/9.2.1/bits/alloc_traits.h **** 	static auto
 257:/usr/include/newlib/c++/9.2.1/bits/alloc_traits.h **** 	_S_destroy(_Alloc2& __a, _Tp* __p, int)
 258:/usr/include/newlib/c++/9.2.1/bits/alloc_traits.h **** 	noexcept(noexcept(__a.destroy(__p)))
 259:/usr/include/newlib/c++/9.2.1/bits/alloc_traits.h **** 	-> decltype(__a.destroy(__p))
 260:/usr/include/newlib/c++/9.2.1/bits/alloc_traits.h **** 	{ __a.destroy(__p); }
 261:/usr/include/newlib/c++/9.2.1/bits/alloc_traits.h **** 
 262:/usr/include/newlib/c++/9.2.1/bits/alloc_traits.h ****       template<typename _Alloc2, typename _Tp>
 263:/usr/include/newlib/c++/9.2.1/bits/alloc_traits.h **** 	static void
 264:/usr/include/newlib/c++/9.2.1/bits/alloc_traits.h **** 	_S_destroy(_Alloc2&, _Tp* __p, ...)
 265:/usr/include/newlib/c++/9.2.1/bits/alloc_traits.h **** 	noexcept(noexcept(__p->~_Tp()))
 266:/usr/include/newlib/c++/9.2.1/bits/alloc_traits.h **** 	{ __p->~_Tp(); }
 267:/usr/include/newlib/c++/9.2.1/bits/alloc_traits.h **** 
 268:/usr/include/newlib/c++/9.2.1/bits/alloc_traits.h ****       template<typename _Alloc2>
 269:/usr/include/newlib/c++/9.2.1/bits/alloc_traits.h **** 	static auto
 270:/usr/include/newlib/c++/9.2.1/bits/alloc_traits.h **** 	_S_max_size(_Alloc2& __a, int)
 271:/usr/include/newlib/c++/9.2.1/bits/alloc_traits.h **** 	-> decltype(__a.max_size())
 272:/usr/include/newlib/c++/9.2.1/bits/alloc_traits.h **** 	{ return __a.max_size(); }
 273:/usr/include/newlib/c++/9.2.1/bits/alloc_traits.h **** 
 274:/usr/include/newlib/c++/9.2.1/bits/alloc_traits.h ****       template<typename _Alloc2>
 275:/usr/include/newlib/c++/9.2.1/bits/alloc_traits.h **** 	static size_type
 276:/usr/include/newlib/c++/9.2.1/bits/alloc_traits.h **** 	_S_max_size(_Alloc2&, ...)
 277:/usr/include/newlib/c++/9.2.1/bits/alloc_traits.h **** 	{
 278:/usr/include/newlib/c++/9.2.1/bits/alloc_traits.h **** 	  // _GLIBCXX_RESOLVE_LIB_DEFECTS
 279:/usr/include/newlib/c++/9.2.1/bits/alloc_traits.h **** 	  // 2466. allocator_traits::max_size() default behavior is incorrect
 280:/usr/include/newlib/c++/9.2.1/bits/alloc_traits.h **** 	  return __gnu_cxx::__numeric_traits<size_type>::__max
 281:/usr/include/newlib/c++/9.2.1/bits/alloc_traits.h **** 	    / sizeof(value_type);
 282:/usr/include/newlib/c++/9.2.1/bits/alloc_traits.h **** 	}
 283:/usr/include/newlib/c++/9.2.1/bits/alloc_traits.h **** 
 284:/usr/include/newlib/c++/9.2.1/bits/alloc_traits.h ****       template<typename _Alloc2>
 285:/usr/include/newlib/c++/9.2.1/bits/alloc_traits.h **** 	static auto
 286:/usr/include/newlib/c++/9.2.1/bits/alloc_traits.h **** 	_S_select(_Alloc2& __a, int)
 287:/usr/include/newlib/c++/9.2.1/bits/alloc_traits.h **** 	-> decltype(__a.select_on_container_copy_construction())
 288:/usr/include/newlib/c++/9.2.1/bits/alloc_traits.h **** 	{ return __a.select_on_container_copy_construction(); }
ARM GAS  /tmp/ccobg3TQ.s 			page 253


 289:/usr/include/newlib/c++/9.2.1/bits/alloc_traits.h **** 
 290:/usr/include/newlib/c++/9.2.1/bits/alloc_traits.h ****       template<typename _Alloc2>
 291:/usr/include/newlib/c++/9.2.1/bits/alloc_traits.h **** 	static _Alloc2
 292:/usr/include/newlib/c++/9.2.1/bits/alloc_traits.h **** 	_S_select(_Alloc2& __a, ...)
 293:/usr/include/newlib/c++/9.2.1/bits/alloc_traits.h **** 	{ return __a; }
 294:/usr/include/newlib/c++/9.2.1/bits/alloc_traits.h **** 
 295:/usr/include/newlib/c++/9.2.1/bits/alloc_traits.h ****     public:
 296:/usr/include/newlib/c++/9.2.1/bits/alloc_traits.h **** 
 297:/usr/include/newlib/c++/9.2.1/bits/alloc_traits.h ****       /**
 298:/usr/include/newlib/c++/9.2.1/bits/alloc_traits.h ****        *  @brief  Allocate memory.
 299:/usr/include/newlib/c++/9.2.1/bits/alloc_traits.h ****        *  @param  __a  An allocator.
 300:/usr/include/newlib/c++/9.2.1/bits/alloc_traits.h ****        *  @param  __n  The number of objects to allocate space for.
 301:/usr/include/newlib/c++/9.2.1/bits/alloc_traits.h ****        *
 302:/usr/include/newlib/c++/9.2.1/bits/alloc_traits.h ****        *  Calls @c a.allocate(n)
 303:/usr/include/newlib/c++/9.2.1/bits/alloc_traits.h ****       */
 304:/usr/include/newlib/c++/9.2.1/bits/alloc_traits.h ****       _GLIBCXX_NODISCARD static pointer
 305:/usr/include/newlib/c++/9.2.1/bits/alloc_traits.h ****       allocate(_Alloc& __a, size_type __n)
 306:/usr/include/newlib/c++/9.2.1/bits/alloc_traits.h ****       { return __a.allocate(__n); }
 307:/usr/include/newlib/c++/9.2.1/bits/alloc_traits.h **** 
 308:/usr/include/newlib/c++/9.2.1/bits/alloc_traits.h ****       /**
 309:/usr/include/newlib/c++/9.2.1/bits/alloc_traits.h ****        *  @brief  Allocate memory.
 310:/usr/include/newlib/c++/9.2.1/bits/alloc_traits.h ****        *  @param  __a  An allocator.
 311:/usr/include/newlib/c++/9.2.1/bits/alloc_traits.h ****        *  @param  __n  The number of objects to allocate space for.
 312:/usr/include/newlib/c++/9.2.1/bits/alloc_traits.h ****        *  @param  __hint Aid to locality.
 313:/usr/include/newlib/c++/9.2.1/bits/alloc_traits.h ****        *  @return Memory of suitable size and alignment for @a n objects
 314:/usr/include/newlib/c++/9.2.1/bits/alloc_traits.h ****        *          of type @c value_type
 315:/usr/include/newlib/c++/9.2.1/bits/alloc_traits.h ****        *
 316:/usr/include/newlib/c++/9.2.1/bits/alloc_traits.h ****        *  Returns <tt> a.allocate(n, hint) </tt> if that expression is
 317:/usr/include/newlib/c++/9.2.1/bits/alloc_traits.h ****        *  well-formed, otherwise returns @c a.allocate(n)
 318:/usr/include/newlib/c++/9.2.1/bits/alloc_traits.h ****       */
 319:/usr/include/newlib/c++/9.2.1/bits/alloc_traits.h ****       _GLIBCXX_NODISCARD static pointer
 320:/usr/include/newlib/c++/9.2.1/bits/alloc_traits.h ****       allocate(_Alloc& __a, size_type __n, const_void_pointer __hint)
 321:/usr/include/newlib/c++/9.2.1/bits/alloc_traits.h ****       { return _S_allocate(__a, __n, __hint, 0); }
 322:/usr/include/newlib/c++/9.2.1/bits/alloc_traits.h **** 
 323:/usr/include/newlib/c++/9.2.1/bits/alloc_traits.h ****       /**
 324:/usr/include/newlib/c++/9.2.1/bits/alloc_traits.h ****        *  @brief  Deallocate memory.
 325:/usr/include/newlib/c++/9.2.1/bits/alloc_traits.h ****        *  @param  __a  An allocator.
 326:/usr/include/newlib/c++/9.2.1/bits/alloc_traits.h ****        *  @param  __p  Pointer to the memory to deallocate.
 327:/usr/include/newlib/c++/9.2.1/bits/alloc_traits.h ****        *  @param  __n  The number of objects space was allocated for.
 328:/usr/include/newlib/c++/9.2.1/bits/alloc_traits.h ****        *
 329:/usr/include/newlib/c++/9.2.1/bits/alloc_traits.h ****        *  Calls <tt> a.deallocate(p, n) </tt>
 330:/usr/include/newlib/c++/9.2.1/bits/alloc_traits.h ****       */
 331:/usr/include/newlib/c++/9.2.1/bits/alloc_traits.h ****       static void
 332:/usr/include/newlib/c++/9.2.1/bits/alloc_traits.h ****       deallocate(_Alloc& __a, pointer __p, size_type __n)
 333:/usr/include/newlib/c++/9.2.1/bits/alloc_traits.h ****       { __a.deallocate(__p, __n); }
 334:/usr/include/newlib/c++/9.2.1/bits/alloc_traits.h **** 
 335:/usr/include/newlib/c++/9.2.1/bits/alloc_traits.h ****       /**
 336:/usr/include/newlib/c++/9.2.1/bits/alloc_traits.h ****        *  @brief  Construct an object of type @a _Tp
 337:/usr/include/newlib/c++/9.2.1/bits/alloc_traits.h ****        *  @param  __a  An allocator.
 338:/usr/include/newlib/c++/9.2.1/bits/alloc_traits.h ****        *  @param  __p  Pointer to memory of suitable size and alignment for Tp
 339:/usr/include/newlib/c++/9.2.1/bits/alloc_traits.h ****        *  @param  __args Constructor arguments.
 340:/usr/include/newlib/c++/9.2.1/bits/alloc_traits.h ****        *
 341:/usr/include/newlib/c++/9.2.1/bits/alloc_traits.h ****        *  Calls <tt> __a.construct(__p, std::forward<Args>(__args)...) </tt>
 342:/usr/include/newlib/c++/9.2.1/bits/alloc_traits.h ****        *  if that expression is well-formed, otherwise uses placement-new
 343:/usr/include/newlib/c++/9.2.1/bits/alloc_traits.h ****        *  to construct an object of type @a _Tp at location @a __p from the
 344:/usr/include/newlib/c++/9.2.1/bits/alloc_traits.h ****        *  arguments @a __args...
 345:/usr/include/newlib/c++/9.2.1/bits/alloc_traits.h ****       */
ARM GAS  /tmp/ccobg3TQ.s 			page 254


 346:/usr/include/newlib/c++/9.2.1/bits/alloc_traits.h ****       template<typename _Tp, typename... _Args>
 347:/usr/include/newlib/c++/9.2.1/bits/alloc_traits.h **** 	static auto construct(_Alloc& __a, _Tp* __p, _Args&&... __args)
 348:/usr/include/newlib/c++/9.2.1/bits/alloc_traits.h **** 	noexcept(noexcept(_S_construct(__a, __p,
 349:/usr/include/newlib/c++/9.2.1/bits/alloc_traits.h **** 				       std::forward<_Args>(__args)...)))
 350:/usr/include/newlib/c++/9.2.1/bits/alloc_traits.h **** 	-> decltype(_S_construct(__a, __p, std::forward<_Args>(__args)...))
 351:/usr/include/newlib/c++/9.2.1/bits/alloc_traits.h **** 	{ _S_construct(__a, __p, std::forward<_Args>(__args)...); }
 352:/usr/include/newlib/c++/9.2.1/bits/alloc_traits.h **** 
 353:/usr/include/newlib/c++/9.2.1/bits/alloc_traits.h ****       /**
 354:/usr/include/newlib/c++/9.2.1/bits/alloc_traits.h ****        *  @brief  Destroy an object of type @a _Tp
 355:/usr/include/newlib/c++/9.2.1/bits/alloc_traits.h ****        *  @param  __a  An allocator.
 356:/usr/include/newlib/c++/9.2.1/bits/alloc_traits.h ****        *  @param  __p  Pointer to the object to destroy
 357:/usr/include/newlib/c++/9.2.1/bits/alloc_traits.h ****        *
 358:/usr/include/newlib/c++/9.2.1/bits/alloc_traits.h ****        *  Calls @c __a.destroy(__p) if that expression is well-formed,
 359:/usr/include/newlib/c++/9.2.1/bits/alloc_traits.h ****        *  otherwise calls @c __p->~_Tp()
 360:/usr/include/newlib/c++/9.2.1/bits/alloc_traits.h ****       */
 361:/usr/include/newlib/c++/9.2.1/bits/alloc_traits.h ****       template<typename _Tp>
 362:/usr/include/newlib/c++/9.2.1/bits/alloc_traits.h **** 	static void destroy(_Alloc& __a, _Tp* __p)
 363:/usr/include/newlib/c++/9.2.1/bits/alloc_traits.h **** 	noexcept(noexcept(_S_destroy(__a, __p, 0)))
 364:/usr/include/newlib/c++/9.2.1/bits/alloc_traits.h **** 	{ _S_destroy(__a, __p, 0); }
 365:/usr/include/newlib/c++/9.2.1/bits/alloc_traits.h **** 
 366:/usr/include/newlib/c++/9.2.1/bits/alloc_traits.h ****       /**
 367:/usr/include/newlib/c++/9.2.1/bits/alloc_traits.h ****        *  @brief  The maximum supported allocation size
 368:/usr/include/newlib/c++/9.2.1/bits/alloc_traits.h ****        *  @param  __a  An allocator.
 369:/usr/include/newlib/c++/9.2.1/bits/alloc_traits.h ****        *  @return @c __a.max_size() or @c numeric_limits<size_type>::max()
 370:/usr/include/newlib/c++/9.2.1/bits/alloc_traits.h ****        *
 371:/usr/include/newlib/c++/9.2.1/bits/alloc_traits.h ****        *  Returns @c __a.max_size() if that expression is well-formed,
 372:/usr/include/newlib/c++/9.2.1/bits/alloc_traits.h ****        *  otherwise returns @c numeric_limits<size_type>::max()
 373:/usr/include/newlib/c++/9.2.1/bits/alloc_traits.h ****       */
 374:/usr/include/newlib/c++/9.2.1/bits/alloc_traits.h ****       static size_type max_size(const _Alloc& __a) noexcept
 375:/usr/include/newlib/c++/9.2.1/bits/alloc_traits.h ****       { return _S_max_size(__a, 0); }
 376:/usr/include/newlib/c++/9.2.1/bits/alloc_traits.h **** 
 377:/usr/include/newlib/c++/9.2.1/bits/alloc_traits.h ****       /**
 378:/usr/include/newlib/c++/9.2.1/bits/alloc_traits.h ****        *  @brief  Obtain an allocator to use when copying a container.
 379:/usr/include/newlib/c++/9.2.1/bits/alloc_traits.h ****        *  @param  __rhs  An allocator.
 380:/usr/include/newlib/c++/9.2.1/bits/alloc_traits.h ****        *  @return @c __rhs.select_on_container_copy_construction() or @a __rhs
 381:/usr/include/newlib/c++/9.2.1/bits/alloc_traits.h ****        *
 382:/usr/include/newlib/c++/9.2.1/bits/alloc_traits.h ****        *  Returns @c __rhs.select_on_container_copy_construction() if that
 383:/usr/include/newlib/c++/9.2.1/bits/alloc_traits.h ****        *  expression is well-formed, otherwise returns @a __rhs
 384:/usr/include/newlib/c++/9.2.1/bits/alloc_traits.h ****       */
 385:/usr/include/newlib/c++/9.2.1/bits/alloc_traits.h ****       static _Alloc
 386:/usr/include/newlib/c++/9.2.1/bits/alloc_traits.h ****       select_on_container_copy_construction(const _Alloc& __rhs)
 387:/usr/include/newlib/c++/9.2.1/bits/alloc_traits.h ****       { return _S_select(__rhs, 0); }
 388:/usr/include/newlib/c++/9.2.1/bits/alloc_traits.h ****     };
 389:/usr/include/newlib/c++/9.2.1/bits/alloc_traits.h **** 
 390:/usr/include/newlib/c++/9.2.1/bits/alloc_traits.h ****   /// Partial specialization for std::allocator.
 391:/usr/include/newlib/c++/9.2.1/bits/alloc_traits.h ****   template<typename _Tp>
 392:/usr/include/newlib/c++/9.2.1/bits/alloc_traits.h ****     struct allocator_traits<allocator<_Tp>>
 393:/usr/include/newlib/c++/9.2.1/bits/alloc_traits.h ****     {
 394:/usr/include/newlib/c++/9.2.1/bits/alloc_traits.h ****       /// The allocator type
 395:/usr/include/newlib/c++/9.2.1/bits/alloc_traits.h ****       using allocator_type = allocator<_Tp>;
 396:/usr/include/newlib/c++/9.2.1/bits/alloc_traits.h ****       /// The allocated type
 397:/usr/include/newlib/c++/9.2.1/bits/alloc_traits.h ****       using value_type = _Tp;
 398:/usr/include/newlib/c++/9.2.1/bits/alloc_traits.h **** 
 399:/usr/include/newlib/c++/9.2.1/bits/alloc_traits.h ****       /// The allocator's pointer type.
 400:/usr/include/newlib/c++/9.2.1/bits/alloc_traits.h ****       using pointer = _Tp*;
 401:/usr/include/newlib/c++/9.2.1/bits/alloc_traits.h **** 
 402:/usr/include/newlib/c++/9.2.1/bits/alloc_traits.h ****       /// The allocator's const pointer type.
ARM GAS  /tmp/ccobg3TQ.s 			page 255


 403:/usr/include/newlib/c++/9.2.1/bits/alloc_traits.h ****       using const_pointer = const _Tp*;
 404:/usr/include/newlib/c++/9.2.1/bits/alloc_traits.h **** 
 405:/usr/include/newlib/c++/9.2.1/bits/alloc_traits.h ****       /// The allocator's void pointer type.
 406:/usr/include/newlib/c++/9.2.1/bits/alloc_traits.h ****       using void_pointer = void*;
 407:/usr/include/newlib/c++/9.2.1/bits/alloc_traits.h **** 
 408:/usr/include/newlib/c++/9.2.1/bits/alloc_traits.h ****       /// The allocator's const void pointer type.
 409:/usr/include/newlib/c++/9.2.1/bits/alloc_traits.h ****       using const_void_pointer = const void*;
 410:/usr/include/newlib/c++/9.2.1/bits/alloc_traits.h **** 
 411:/usr/include/newlib/c++/9.2.1/bits/alloc_traits.h ****       /// The allocator's difference type
 412:/usr/include/newlib/c++/9.2.1/bits/alloc_traits.h ****       using difference_type = std::ptrdiff_t;
 413:/usr/include/newlib/c++/9.2.1/bits/alloc_traits.h **** 
 414:/usr/include/newlib/c++/9.2.1/bits/alloc_traits.h ****       /// The allocator's size type
 415:/usr/include/newlib/c++/9.2.1/bits/alloc_traits.h ****       using size_type = std::size_t;
 416:/usr/include/newlib/c++/9.2.1/bits/alloc_traits.h **** 
 417:/usr/include/newlib/c++/9.2.1/bits/alloc_traits.h ****       /// How the allocator is propagated on copy assignment
 418:/usr/include/newlib/c++/9.2.1/bits/alloc_traits.h ****       using propagate_on_container_copy_assignment = false_type;
 419:/usr/include/newlib/c++/9.2.1/bits/alloc_traits.h **** 
 420:/usr/include/newlib/c++/9.2.1/bits/alloc_traits.h ****       /// How the allocator is propagated on move assignment
 421:/usr/include/newlib/c++/9.2.1/bits/alloc_traits.h ****       using propagate_on_container_move_assignment = true_type;
 422:/usr/include/newlib/c++/9.2.1/bits/alloc_traits.h **** 
 423:/usr/include/newlib/c++/9.2.1/bits/alloc_traits.h ****       /// How the allocator is propagated on swap
 424:/usr/include/newlib/c++/9.2.1/bits/alloc_traits.h ****       using propagate_on_container_swap = false_type;
 425:/usr/include/newlib/c++/9.2.1/bits/alloc_traits.h **** 
 426:/usr/include/newlib/c++/9.2.1/bits/alloc_traits.h ****       /// Whether all instances of the allocator type compare equal.
 427:/usr/include/newlib/c++/9.2.1/bits/alloc_traits.h ****       using is_always_equal = true_type;
 428:/usr/include/newlib/c++/9.2.1/bits/alloc_traits.h **** 
 429:/usr/include/newlib/c++/9.2.1/bits/alloc_traits.h ****       template<typename _Up>
 430:/usr/include/newlib/c++/9.2.1/bits/alloc_traits.h **** 	using rebind_alloc = allocator<_Up>;
 431:/usr/include/newlib/c++/9.2.1/bits/alloc_traits.h **** 
 432:/usr/include/newlib/c++/9.2.1/bits/alloc_traits.h ****       template<typename _Up>
 433:/usr/include/newlib/c++/9.2.1/bits/alloc_traits.h **** 	using rebind_traits = allocator_traits<allocator<_Up>>;
 434:/usr/include/newlib/c++/9.2.1/bits/alloc_traits.h **** 
 435:/usr/include/newlib/c++/9.2.1/bits/alloc_traits.h ****       /**
 436:/usr/include/newlib/c++/9.2.1/bits/alloc_traits.h ****        *  @brief  Allocate memory.
 437:/usr/include/newlib/c++/9.2.1/bits/alloc_traits.h ****        *  @param  __a  An allocator.
 438:/usr/include/newlib/c++/9.2.1/bits/alloc_traits.h ****        *  @param  __n  The number of objects to allocate space for.
 439:/usr/include/newlib/c++/9.2.1/bits/alloc_traits.h ****        *
 440:/usr/include/newlib/c++/9.2.1/bits/alloc_traits.h ****        *  Calls @c a.allocate(n)
 441:/usr/include/newlib/c++/9.2.1/bits/alloc_traits.h ****       */
 442:/usr/include/newlib/c++/9.2.1/bits/alloc_traits.h ****       _GLIBCXX_NODISCARD static pointer
 443:/usr/include/newlib/c++/9.2.1/bits/alloc_traits.h ****       allocate(allocator_type& __a, size_type __n)
 444:/usr/include/newlib/c++/9.2.1/bits/alloc_traits.h ****       { return __a.allocate(__n); }
 445:/usr/include/newlib/c++/9.2.1/bits/alloc_traits.h **** 
 446:/usr/include/newlib/c++/9.2.1/bits/alloc_traits.h ****       /**
 447:/usr/include/newlib/c++/9.2.1/bits/alloc_traits.h ****        *  @brief  Allocate memory.
 448:/usr/include/newlib/c++/9.2.1/bits/alloc_traits.h ****        *  @param  __a  An allocator.
 449:/usr/include/newlib/c++/9.2.1/bits/alloc_traits.h ****        *  @param  __n  The number of objects to allocate space for.
 450:/usr/include/newlib/c++/9.2.1/bits/alloc_traits.h ****        *  @param  __hint Aid to locality.
 451:/usr/include/newlib/c++/9.2.1/bits/alloc_traits.h ****        *  @return Memory of suitable size and alignment for @a n objects
 452:/usr/include/newlib/c++/9.2.1/bits/alloc_traits.h ****        *          of type @c value_type
 453:/usr/include/newlib/c++/9.2.1/bits/alloc_traits.h ****        *
 454:/usr/include/newlib/c++/9.2.1/bits/alloc_traits.h ****        *  Returns <tt> a.allocate(n, hint) </tt>
 455:/usr/include/newlib/c++/9.2.1/bits/alloc_traits.h ****       */
 456:/usr/include/newlib/c++/9.2.1/bits/alloc_traits.h ****       _GLIBCXX_NODISCARD static pointer
 457:/usr/include/newlib/c++/9.2.1/bits/alloc_traits.h ****       allocate(allocator_type& __a, size_type __n, const_void_pointer __hint)
 458:/usr/include/newlib/c++/9.2.1/bits/alloc_traits.h ****       { return __a.allocate(__n, __hint); }
 459:/usr/include/newlib/c++/9.2.1/bits/alloc_traits.h **** 
ARM GAS  /tmp/ccobg3TQ.s 			page 256


 460:/usr/include/newlib/c++/9.2.1/bits/alloc_traits.h ****       /**
 461:/usr/include/newlib/c++/9.2.1/bits/alloc_traits.h ****        *  @brief  Deallocate memory.
 462:/usr/include/newlib/c++/9.2.1/bits/alloc_traits.h ****        *  @param  __a  An allocator.
 463:/usr/include/newlib/c++/9.2.1/bits/alloc_traits.h ****        *  @param  __p  Pointer to the memory to deallocate.
 464:/usr/include/newlib/c++/9.2.1/bits/alloc_traits.h ****        *  @param  __n  The number of objects space was allocated for.
 465:/usr/include/newlib/c++/9.2.1/bits/alloc_traits.h ****        *
 466:/usr/include/newlib/c++/9.2.1/bits/alloc_traits.h ****        *  Calls <tt> a.deallocate(p, n) </tt>
 467:/usr/include/newlib/c++/9.2.1/bits/alloc_traits.h ****       */
 468:/usr/include/newlib/c++/9.2.1/bits/alloc_traits.h ****       static void
 469:/usr/include/newlib/c++/9.2.1/bits/alloc_traits.h ****       deallocate(allocator_type& __a, pointer __p, size_type __n)
 8019              		.loc 23 469 7 view .LVU1902
 8020              	.LBB2383:
 8021              	.LBI2383:
  90:/usr/include/newlib/c++/9.2.1/ext/new_allocator.h **** 
  91:/usr/include/newlib/c++/9.2.1/ext/new_allocator.h ****       pointer
  92:/usr/include/newlib/c++/9.2.1/ext/new_allocator.h ****       address(reference __x) const _GLIBCXX_NOEXCEPT
  93:/usr/include/newlib/c++/9.2.1/ext/new_allocator.h ****       { return std::__addressof(__x); }
  94:/usr/include/newlib/c++/9.2.1/ext/new_allocator.h **** 
  95:/usr/include/newlib/c++/9.2.1/ext/new_allocator.h ****       const_pointer
  96:/usr/include/newlib/c++/9.2.1/ext/new_allocator.h ****       address(const_reference __x) const _GLIBCXX_NOEXCEPT
  97:/usr/include/newlib/c++/9.2.1/ext/new_allocator.h ****       { return std::__addressof(__x); }
  98:/usr/include/newlib/c++/9.2.1/ext/new_allocator.h **** 
  99:/usr/include/newlib/c++/9.2.1/ext/new_allocator.h ****       // NB: __n is permitted to be 0.  The C++ standard says nothing
 100:/usr/include/newlib/c++/9.2.1/ext/new_allocator.h ****       // about what the return value is when __n == 0.
 101:/usr/include/newlib/c++/9.2.1/ext/new_allocator.h ****       _GLIBCXX_NODISCARD pointer
 102:/usr/include/newlib/c++/9.2.1/ext/new_allocator.h ****       allocate(size_type __n, const void* = static_cast<const void*>(0))
 103:/usr/include/newlib/c++/9.2.1/ext/new_allocator.h ****       {
 104:/usr/include/newlib/c++/9.2.1/ext/new_allocator.h **** 	if (__n > this->max_size())
 105:/usr/include/newlib/c++/9.2.1/ext/new_allocator.h **** 	  std::__throw_bad_alloc();
 106:/usr/include/newlib/c++/9.2.1/ext/new_allocator.h **** 
 107:/usr/include/newlib/c++/9.2.1/ext/new_allocator.h **** #if __cpp_aligned_new
 108:/usr/include/newlib/c++/9.2.1/ext/new_allocator.h **** 	if (alignof(_Tp) > __STDCPP_DEFAULT_NEW_ALIGNMENT__)
 109:/usr/include/newlib/c++/9.2.1/ext/new_allocator.h **** 	  {
 110:/usr/include/newlib/c++/9.2.1/ext/new_allocator.h **** 	    std::align_val_t __al = std::align_val_t(alignof(_Tp));
 111:/usr/include/newlib/c++/9.2.1/ext/new_allocator.h **** 	    return static_cast<_Tp*>(::operator new(__n * sizeof(_Tp), __al));
 112:/usr/include/newlib/c++/9.2.1/ext/new_allocator.h **** 	  }
 113:/usr/include/newlib/c++/9.2.1/ext/new_allocator.h **** #endif
 114:/usr/include/newlib/c++/9.2.1/ext/new_allocator.h **** 	return static_cast<_Tp*>(::operator new(__n * sizeof(_Tp)));
 115:/usr/include/newlib/c++/9.2.1/ext/new_allocator.h ****       }
 116:/usr/include/newlib/c++/9.2.1/ext/new_allocator.h **** 
 117:/usr/include/newlib/c++/9.2.1/ext/new_allocator.h ****       // __p is not permitted to be a null pointer.
 118:/usr/include/newlib/c++/9.2.1/ext/new_allocator.h ****       void
 119:/usr/include/newlib/c++/9.2.1/ext/new_allocator.h ****       deallocate(pointer __p, size_type)
 8022              		.loc 19 119 7 view .LVU1903
 8023              	.LBB2384:
 120:/usr/include/newlib/c++/9.2.1/ext/new_allocator.h ****       {
 121:/usr/include/newlib/c++/9.2.1/ext/new_allocator.h **** #if __cpp_aligned_new
 122:/usr/include/newlib/c++/9.2.1/ext/new_allocator.h **** 	if (alignof(_Tp) > __STDCPP_DEFAULT_NEW_ALIGNMENT__)
 123:/usr/include/newlib/c++/9.2.1/ext/new_allocator.h **** 	  {
 124:/usr/include/newlib/c++/9.2.1/ext/new_allocator.h **** 	    ::operator delete(__p, std::align_val_t(alignof(_Tp)));
 125:/usr/include/newlib/c++/9.2.1/ext/new_allocator.h **** 	    return;
 126:/usr/include/newlib/c++/9.2.1/ext/new_allocator.h **** 	  }
 127:/usr/include/newlib/c++/9.2.1/ext/new_allocator.h **** #endif
 128:/usr/include/newlib/c++/9.2.1/ext/new_allocator.h **** 	::operator delete(__p);
 8024              		.loc 19 128 19 is_stmt 0 view .LVU1904
 8025 05b2 FFF7FEFF 		bl	_ZdlPv
 8026              	.LVL583:
ARM GAS  /tmp/ccobg3TQ.s 			page 257


 8027              		.loc 19 128 19 view .LVU1905
 8028              	.LBE2384:
 8029              	.LBE2383:
 8030              	.LBE2382:
 8031              	.LBE2381:
 8032              	.LBE2380:
 8033              	.LBE2376:
 8034              	.LBE2375:
 8035              	.LBB2385:
 8036              	.LBI2385:
 150:/usr/include/newlib/c++/9.2.1/bits/basic_string.h ****       {
 8037              		.loc 20 150 14 is_stmt 1 view .LVU1906
 8038              	.LBB2386:
 8039              	.LBI2386:
 8040              		.loc 18 153 7 view .LVU1907
 8041              	.LBB2387:
 8042              	.LBI2387:
  89:/usr/include/newlib/c++/9.2.1/ext/new_allocator.h **** 
 8043              		.loc 19 89 7 view .LVU1908
 8044              	.L429:
  89:/usr/include/newlib/c++/9.2.1/ext/new_allocator.h **** 
 8045              		.loc 19 89 7 is_stmt 0 view .LVU1909
 8046              	.LBE2387:
 8047              	.LBE2386:
 8048              	.LBE2385:
 8049              	.LBE2374:
  98:SampleAndHold.cpp **** }
 8050              		.loc 13 98 1 view .LVU1910
 8051 05b6 13B0     		add	sp, sp, #76
 8052              		.cfi_remember_state
 8053              		.cfi_def_cfa_offset 36
 8054              		@ sp needed
 8055 05b8 BDE8F08F 		pop	{r4, r5, r6, r7, r8, r9, r10, fp, pc}
 8056              	.LVL584:
 8057              	.L528:
 8058              		.loc 13 98 1 view .LVU1911
 8059              		.align	2
 8060              	.L527:
 8061 05bc 00000000 		.word	.LANCHOR0
 8062 05c0 00000000 		.word	.LC2
 8063 05c4 04000000 		.word	.LC3
 8064 05c8 00000000 		.word	Font_7x10
 8065 05cc A8910000 		.word	patch+37288
 8066 05d0 3C002300 		.word	2293820
 8067 05d4 B8910000 		.word	patch+37304
 8068 05d8 B4910000 		.word	patch+37300
 8069 05dc AC910000 		.word	patch+37292
 8070              	.LVL585:
 8071              	.L496:
 8072              		.cfi_restore_state
 8073              	.LBB2388:
 8074              	.LBB2355:
 8075              	.LBB2352:
 8076              	.LBB2350:
 402:../../libdaisy/src/hid/disp/display.h **** 
 8077              		.loc 3 402 20 view .LVU1912
 8078 05e0 4FF0000A 		mov	r10, #0
ARM GAS  /tmp/ccobg3TQ.s 			page 258


 8079              	.LVL586:
 402:../../libdaisy/src/hid/disp/display.h **** 
 8080              		.loc 3 402 20 view .LVU1913
 8081 05e4 A0E7     		b	.L470
 8082              	.LVL587:
 8083              	.L493:
 402:../../libdaisy/src/hid/disp/display.h **** 
 8084              		.loc 3 402 20 view .LVU1914
 8085              	.LBE2350:
 8086              	.LBE2352:
 8087              	.LBE2355:
 8088              	.LBE2388:
 8089              	.LBB2389:
 8090              	.LBB2284:
 8091              	.LBB2282:
 8092              	.LBB2281:
 8093 05e6 4FF0000A 		mov	r10, #0
 8094              	.LVL588:
 402:../../libdaisy/src/hid/disp/display.h **** 
 8095              		.loc 3 402 20 view .LVU1915
 8096 05ea 04E7     		b	.L458
 8097              	.LVL589:
 8098              	.L488:
 402:../../libdaisy/src/hid/disp/display.h **** 
 8099              		.loc 3 402 20 view .LVU1916
 8100              	.LBE2281:
 8101              	.LBE2282:
 8102              	.LBE2284:
 8103              	.LBE2389:
 8104              	.LBB2390:
 8105              	.LBB2222:
 8106              	.LBB2220:
 8107              	.LBB2219:
 8108 05ec 4FF00009 		mov	r9, #0
 8109              	.LVL590:
 402:../../libdaisy/src/hid/disp/display.h **** 
 8110              		.loc 3 402 20 view .LVU1917
 8111 05f0 65E6     		b	.L446
 8112              	.LVL591:
 8113              	.L484:
 402:../../libdaisy/src/hid/disp/display.h **** 
 8114              		.loc 3 402 20 view .LVU1918
 8115              	.LBE2219:
 8116              	.LBE2220:
 8117              	.LBE2222:
 8118              	.LBE2390:
 8119              	.LBB2391:
 8120              	.LBB2154:
 8121              	.LBB2152:
 8122              	.LBB2151:
 8123 05f2 4FF00009 		mov	r9, #0
 8124              	.LVL592:
 402:../../libdaisy/src/hid/disp/display.h **** 
 8125              		.loc 3 402 20 view .LVU1919
 8126 05f6 AFE5     		b	.L434
 8127              	.LBE2151:
 8128              	.LBE2152:
ARM GAS  /tmp/ccobg3TQ.s 			page 259


 8129              	.LBE2154:
 8130              	.LBE2391:
 8131              		.cfi_endproc
 8132              	.LFE4240:
 8134              		.section	.text.startup.main,"ax",%progbits
 8135              		.align	1
 8136              		.p2align 2,,3
 8137              		.global	main
 8138              		.syntax unified
 8139              		.thumb
 8140              		.thumb_func
 8141              		.fpu fpv5-d16
 8143              	main:
 8144              	.LFB4237:
  31:SampleAndHold.cpp ****     patch.Init();
 8145              		.loc 13 31 1 is_stmt 1 view -0
 8146              		.cfi_startproc
 8147              		@ Volatile: function does not return.
 8148              		@ args = 0, pretend = 0, frame = 0
 8149              		@ frame_needed = 0, uses_anonymous_args = 0
  32:SampleAndHold.cpp **** 
 8150              		.loc 13 32 5 view .LVU1921
  32:SampleAndHold.cpp **** 
 8151              		.loc 13 32 15 is_stmt 0 view .LVU1922
 8152 0000 0748     		ldr	r0, .L532
 8153 0002 0021     		movs	r1, #0
  31:SampleAndHold.cpp ****     patch.Init();
 8154              		.loc 13 31 1 view .LVU1923
 8155 0004 08B5     		push	{r3, lr}
 8156              		.cfi_def_cfa_offset 8
 8157              		.cfi_offset 3, -8
 8158              		.cfi_offset 14, -4
  32:SampleAndHold.cpp **** 
 8159              		.loc 13 32 15 view .LVU1924
 8160 0006 FFF7FEFF 		bl	_ZN5daisy10DaisyPatch4InitEb
 8161              	.LVL593:
  34:SampleAndHold.cpp ****     while(1)
 8162              		.loc 13 34 5 is_stmt 1 view .LVU1925
  34:SampleAndHold.cpp ****     while(1)
 8163              		.loc 13 34 19 is_stmt 0 view .LVU1926
 8164 000a 0548     		ldr	r0, .L532
 8165 000c FFF7FEFF 		bl	_ZN5daisy10DaisyPatch8StartAdcEv
 8166              	.LVL594:
 8167              	.L530:
  35:SampleAndHold.cpp ****     {
 8168              		.loc 13 35 5 is_stmt 1 discriminator 1 view .LVU1927
  37:SampleAndHold.cpp ****         UpdateOutputs();
 8169              		.loc 13 37 9 discriminator 1 view .LVU1928
  37:SampleAndHold.cpp ****         UpdateOutputs();
 8170              		.loc 13 37 23 is_stmt 0 discriminator 1 view .LVU1929
 8171 0010 FFF7FEFF 		bl	_Z14UpdateControlsv
 8172              	.LVL595:
  38:SampleAndHold.cpp ****         UpdateOled();
 8173              		.loc 13 38 9 is_stmt 1 discriminator 1 view .LVU1930
  38:SampleAndHold.cpp ****         UpdateOled();
 8174              		.loc 13 38 22 is_stmt 0 discriminator 1 view .LVU1931
 8175 0014 FFF7FEFF 		bl	_Z13UpdateOutputsv
ARM GAS  /tmp/ccobg3TQ.s 			page 260


 8176              	.LVL596:
  39:SampleAndHold.cpp ****     }
 8177              		.loc 13 39 9 is_stmt 1 discriminator 1 view .LVU1932
  39:SampleAndHold.cpp ****     }
 8178              		.loc 13 39 19 is_stmt 0 discriminator 1 view .LVU1933
 8179 0018 FFF7FEFF 		bl	_Z10UpdateOledv
 8180              	.LVL597:
  35:SampleAndHold.cpp ****     {
 8181              		.loc 13 35 5 is_stmt 1 discriminator 1 view .LVU1934
 8182 001c F8E7     		b	.L530
 8183              	.L533:
 8184 001e 00BF     		.align	2
 8185              	.L532:
 8186 0020 00000000 		.word	patch
 8187              		.cfi_endproc
 8188              	.LFE4237:
 8190              		.section	.text.startup._GLOBAL__sub_I_patch,"ax",%progbits
 8191              		.align	1
 8192              		.p2align 2,,3
 8193              		.syntax unified
 8194              		.thumb
 8195              		.thumb_func
 8196              		.fpu fpv5-d16
 8198              	_GLOBAL__sub_I_patch:
 8199              	.LFB4844:
 8200              		.loc 13 98 1 view -0
 8201              		.cfi_startproc
 8202              		@ args = 0, pretend = 0, frame = 0
 8203              		@ frame_needed = 0, uses_anonymous_args = 0
 8204              	.LBB2446:
 8205              	.LBI2446:
 8206              		.loc 13 98 1 view .LVU1936
 8207              	.LVL598:
 8208              	.LBB2447:
 8209              	.LBB2448:
 8210              	.LBI2448:
  39:../../libdaisy/src/daisy_patch.h ****     /** Destructor */
 8211              		.loc 1 39 5 view .LVU1937
 8212              	.LBB2449:
 8213              	.LBB2450:
 8214              	.LBI2450:
  21:../../libdaisy/src/daisy_seed.h ****     ~DaisySeed() {}
 8215              		.loc 7 21 5 view .LVU1938
 8216              	.LBB2451:
 8217              	.LBB2452:
 8218              	.LBI2452:
  62:../../libdaisy/src/hid/audio.h ****     ~AudioHandle() {}
 8219              		.loc 11 62 5 view .LVU1939
 8220              	.LBE2452:
 8221              	.LBE2451:
 8222              	.LBE2450:
 8223              	.LBE2449:
 8224              	.LBE2448:
 8225              	.LBE2447:
 8226              	.LBE2446:
 8227              		.loc 13 98 1 is_stmt 0 view .LVU1940
 8228 0000 F8B5     		push	{r3, r4, r5, r6, r7, lr}
ARM GAS  /tmp/ccobg3TQ.s 			page 261


 8229              		.cfi_def_cfa_offset 24
 8230              		.cfi_offset 3, -24
 8231              		.cfi_offset 4, -20
 8232              		.cfi_offset 5, -16
 8233              		.cfi_offset 6, -12
 8234              		.cfi_offset 7, -8
 8235              		.cfi_offset 14, -4
 8236              	.LBB2584:
 8237              	.LBB2581:
 8238              	.LBB2557:
 8239              	.LBB2553:
 8240              	.LBB2471:
 8241              	.LBB2472:
 8242              	.LBB2473:
 8243              	.LBB2474:
 8244              	.LBB2475:
 8245              	.LBB2476:
 8246              	.LBB2477:
  36:../../libdaisy/src/hid/midi.h ****             tx     = {DSY_GPIOB, 6};
 8247              		.loc 4 36 20 view .LVU1941
 8248 0002 1E4B     		ldr	r3, .L536
 8249 0004 49F29415 		movw	r5, #37268
 8250              	.LBE2477:
 8251              	.LBE2476:
 8252              	.LBE2475:
 8253              	.LBE2474:
 8254              	.LBE2473:
 8255              	.LBE2472:
 8256              	.LBE2471:
 8257              	.LBB2516:
 8258              	.LBB2468:
 8259              	.LBB2459:
 8260              	.LBB2453:
 8261              	.LBB2454:
  62:../../libdaisy/src/hid/audio.h ****     ~AudioHandle() {}
 8262              		.loc 11 62 35 view .LVU1942
 8263 0008 1D48     		ldr	r0, .L536+4
 8264              	.LBE2454:
 8265              	.LBE2453:
 8266              	.LBE2459:
 8267              	.LBE2468:
 8268              	.LBE2516:
 8269              	.LBB2517:
 8270              	.LBB2512:
 8271              	.LBB2508:
 8272              	.LBB2490:
 8273              	.LBB2486:
 8274              	.LBB2482:
 8275              	.LBB2478:
  37:../../libdaisy/src/hid/midi.h ****         }
 8276              		.loc 4 37 20 view .LVU1943
 8277 000a 49F29611 		movw	r1, #37270
  36:../../libdaisy/src/hid/midi.h ****             tx     = {DSY_GPIOB, 6};
 8278              		.loc 4 36 20 view .LVU1944
 8279 000e 1E88     		ldrh	r6, [r3]
 8280              	.LBE2478:
 8281              	.LBE2482:
ARM GAS  /tmp/ccobg3TQ.s 			page 262


 8282              	.LBE2486:
 8283              	.LBE2490:
 8284              	.LBE2508:
 8285              	.LBE2512:
 8286              	.LBE2517:
 8287              	.LBB2518:
 8288              	.LBB2469:
 8289              	.LBB2460:
 8290              	.LBB2457:
 8291              	.LBB2455:
  62:../../libdaisy/src/hid/audio.h ****     ~AudioHandle() {}
 8292              		.loc 11 62 35 view .LVU1945
 8293 0010 0024     		movs	r4, #0
 8294              	.LBE2455:
 8295              	.LBE2457:
 8296              	.LBE2460:
 8297              	.LBE2469:
 8298              	.LBE2518:
 8299              	.LBB2519:
 8300              	.LBB2513:
 8301              	.LBB2509:
 8302              	.LBB2491:
 8303              	.LBB2487:
 8304              	.LBB2483:
 8305              	.LBB2479:
  37:../../libdaisy/src/hid/midi.h ****         }
 8306              		.loc 4 37 20 view .LVU1946
 8307 0012 9B88     		ldrh	r3, [r3, #4]
  35:../../libdaisy/src/hid/midi.h ****             rx     = {DSY_GPIOB, 7};
 8308              		.loc 4 35 20 view .LVU1947
 8309 0014 49F29017 		movw	r7, #37264
  36:../../libdaisy/src/hid/midi.h ****             tx     = {DSY_GPIOB, 6};
 8310              		.loc 4 36 20 view .LVU1948
 8311 0018 4653     		strh	r6, [r0, r5]	@ movhi
 8312              	.LBE2479:
 8313              	.LBE2483:
 8314              	.LBE2487:
 8315              	.LBE2491:
 8316              	.LBB2492:
 8317              	.LBB2493:
 8318              	.LBB2494:
 8319              	.LBB2495:
 8320              		.file 24 "../../libdaisy/src/per/uart.h"
   1:../../libdaisy/src/per/uart.h **** /* 
   2:../../libdaisy/src/per/uart.h **** TODO
   3:../../libdaisy/src/per/uart.h **** - UART1 defaults to DMA, add flexible config for DMA on all periphs
   4:../../libdaisy/src/per/uart.h **** - Transmit function improvements.
   5:../../libdaisy/src/per/uart.h **** - Overflow handling, etc. for Rx Queue.
   6:../../libdaisy/src/per/uart.h **** */
   7:../../libdaisy/src/per/uart.h **** 
   8:../../libdaisy/src/per/uart.h **** #pragma once
   9:../../libdaisy/src/per/uart.h **** #ifndef DSY_UART_H
  10:../../libdaisy/src/per/uart.h **** #define DSY_UART_H /**< macro */
  11:../../libdaisy/src/per/uart.h **** #include "daisy_core.h"
  12:../../libdaisy/src/per/uart.h **** 
  13:../../libdaisy/src/per/uart.h **** 
  14:../../libdaisy/src/per/uart.h **** namespace daisy
ARM GAS  /tmp/ccobg3TQ.s 			page 263


  15:../../libdaisy/src/per/uart.h **** {
  16:../../libdaisy/src/per/uart.h **** /** @addtogroup serial
  17:../../libdaisy/src/per/uart.h ****     @{
  18:../../libdaisy/src/per/uart.h ****     */
  19:../../libdaisy/src/per/uart.h **** 
  20:../../libdaisy/src/per/uart.h **** /** 
  21:../../libdaisy/src/per/uart.h ****     Uart Peripheral
  22:../../libdaisy/src/per/uart.h ****     @author shensley
  23:../../libdaisy/src/per/uart.h ****     @date March 2020
  24:../../libdaisy/src/per/uart.h ****     */
  25:../../libdaisy/src/per/uart.h **** class UartHandler
  26:../../libdaisy/src/per/uart.h **** {
  27:../../libdaisy/src/per/uart.h ****   public:
  28:../../libdaisy/src/per/uart.h ****     struct Config
  29:../../libdaisy/src/per/uart.h ****     {
  30:../../libdaisy/src/per/uart.h ****         enum class Peripheral
  31:../../libdaisy/src/per/uart.h ****         {
  32:../../libdaisy/src/per/uart.h ****             USART_1,
  33:../../libdaisy/src/per/uart.h ****             USART_2,
  34:../../libdaisy/src/per/uart.h ****             USART_3,
  35:../../libdaisy/src/per/uart.h ****             UART_4,
  36:../../libdaisy/src/per/uart.h ****             UART_5,
  37:../../libdaisy/src/per/uart.h ****             USART_6,
  38:../../libdaisy/src/per/uart.h ****             UART_7,
  39:../../libdaisy/src/per/uart.h ****             UART_8,
  40:../../libdaisy/src/per/uart.h ****             LPUART_1,
  41:../../libdaisy/src/per/uart.h ****         };
  42:../../libdaisy/src/per/uart.h **** 
  43:../../libdaisy/src/per/uart.h ****         enum class StopBits
  44:../../libdaisy/src/per/uart.h ****         {
  45:../../libdaisy/src/per/uart.h ****             BITS_0_5,
  46:../../libdaisy/src/per/uart.h ****             BITS_1,
  47:../../libdaisy/src/per/uart.h ****             BITS_1_5,
  48:../../libdaisy/src/per/uart.h ****             BITS_2,
  49:../../libdaisy/src/per/uart.h ****         };
  50:../../libdaisy/src/per/uart.h **** 
  51:../../libdaisy/src/per/uart.h ****         enum class Parity
  52:../../libdaisy/src/per/uart.h ****         {
  53:../../libdaisy/src/per/uart.h ****             NONE,
  54:../../libdaisy/src/per/uart.h ****             EVEN,
  55:../../libdaisy/src/per/uart.h ****             ODD,
  56:../../libdaisy/src/per/uart.h ****         };
  57:../../libdaisy/src/per/uart.h **** 
  58:../../libdaisy/src/per/uart.h ****         enum class Mode
  59:../../libdaisy/src/per/uart.h ****         {
  60:../../libdaisy/src/per/uart.h ****             RX,
  61:../../libdaisy/src/per/uart.h ****             TX,
  62:../../libdaisy/src/per/uart.h ****             TX_RX,
  63:../../libdaisy/src/per/uart.h ****         };
  64:../../libdaisy/src/per/uart.h **** 
  65:../../libdaisy/src/per/uart.h ****         enum class WordLength
  66:../../libdaisy/src/per/uart.h ****         {
  67:../../libdaisy/src/per/uart.h ****             BITS_7,
  68:../../libdaisy/src/per/uart.h ****             BITS_8,
  69:../../libdaisy/src/per/uart.h ****             BITS_9,
  70:../../libdaisy/src/per/uart.h ****         };
  71:../../libdaisy/src/per/uart.h **** 
ARM GAS  /tmp/ccobg3TQ.s 			page 264


  72:../../libdaisy/src/per/uart.h ****         struct
  73:../../libdaisy/src/per/uart.h ****         {
  74:../../libdaisy/src/per/uart.h ****             dsy_gpio_pin tx; /**< & */
  75:../../libdaisy/src/per/uart.h ****             dsy_gpio_pin rx; /**< & */
  76:../../libdaisy/src/per/uart.h ****         } pin_config;        /**< & */
  77:../../libdaisy/src/per/uart.h **** 
  78:../../libdaisy/src/per/uart.h ****         Peripheral periph;
  79:../../libdaisy/src/per/uart.h ****         StopBits   stopbits;
  80:../../libdaisy/src/per/uart.h ****         Parity     parity;
  81:../../libdaisy/src/per/uart.h ****         Mode       mode;
  82:../../libdaisy/src/per/uart.h ****         WordLength wordlength;
  83:../../libdaisy/src/per/uart.h ****         uint32_t   baudrate;
  84:../../libdaisy/src/per/uart.h ****     };
  85:../../libdaisy/src/per/uart.h **** 
  86:../../libdaisy/src/per/uart.h **** 
  87:../../libdaisy/src/per/uart.h ****     UartHandler() : pimpl_(nullptr) {}
 8321              		.loc 24 87 35 view .LVU1949
 8322 001a 49F29815 		movw	r5, #37272
 8323              	.LBE2495:
 8324              	.LBE2494:
 8325              	.LBE2493:
 8326              	.LBE2492:
 8327              	.LBB2500:
 8328              	.LBB2488:
 8329              	.LBB2484:
 8330              	.LBB2480:
  37:../../libdaisy/src/hid/midi.h ****         }
 8331              		.loc 4 37 20 view .LVU1950
 8332 001e 4352     		strh	r3, [r0, r1]	@ movhi
 8333              	.LBE2480:
 8334              	.LBE2484:
 8335              	.LBE2488:
 8336              	.LBE2500:
  82:../../libdaisy/src/hid/midi.h ****     ~MidiHandler() {}
 8337              		.loc 4 82 19 view .LVU1951
 8338 0020 4FF60F06 		movw	r6, #63503
 8339 0024 49F2A013 		movw	r3, #37280
 8340              	.LBB2501:
 8341              	.LBB2498:
 8342              	.LBB2497:
 8343              	.LBB2496:
 8344              		.loc 24 87 35 view .LVU1952
 8345 0028 4451     		str	r4, [r0, r5]
 8346              	.LBE2496:
 8347              	.LBE2497:
 8348              	.LBE2498:
 8349              	.LBE2501:
  82:../../libdaisy/src/hid/midi.h ****     ~MidiHandler() {}
 8350              		.loc 4 82 19 view .LVU1953
 8351 002a 49F29C11 		movw	r1, #37276
 8352 002e 154D     		ldr	r5, .L536+8
 8353 0030 C652     		strh	r6, [r0, r3]	@ movhi
 8354 0032 49F2A213 		movw	r3, #37282
 8355 0036 0726     		movs	r6, #7
 8356 0038 4550     		str	r5, [r0, r1]
 8357              	.LBE2509:
 8358              	.LBE2513:
ARM GAS  /tmp/ccobg3TQ.s 			page 265


 8359              	.LBE2519:
 8360              	.LBB2520:
 8361              	.LBB2521:
 8362              	.LBB2522:
  16:../../libdaisy/src/hid/disp/oled_display.h ****     virtual ~OledDisplay() {}
 8363              		.loc 2 16 19 view .LVU1954
 8364 003a 49F2A411 		movw	r1, #37284
 8365 003e 124D     		ldr	r5, .L536+12
 8366              	.LBE2522:
 8367              	.LBE2521:
 8368              	.LBE2520:
 8369              	.LBB2544:
 8370              	.LBB2514:
 8371              	.LBB2510:
  82:../../libdaisy/src/hid/midi.h ****     ~MidiHandler() {}
 8372              		.loc 4 82 19 view .LVU1955
 8373 0040 C654     		strb	r6, [r0, r3]
 8374              	.LBE2510:
 8375              	.LBE2514:
 8376              	.LBE2544:
 8377              	.LBB2545:
 8378              	.LBB2541:
 8379              	.LBB2538:
 8380              	.LBB2523:
 8381              	.LBB2524:
 8382              	.LBB2525:
 8383              	.LBB2526:
 8384              	.LBB2527:
 8385              		.file 25 "../../libdaisy/src/per/spi.h"
   1:../../libdaisy/src/per/spi.h **** #pragma once
   2:../../libdaisy/src/per/spi.h **** #ifndef DSY_SPI_H
   3:../../libdaisy/src/per/spi.h **** #define DSY_SPI_H
   4:../../libdaisy/src/per/spi.h **** 
   5:../../libdaisy/src/per/spi.h **** #include "daisy_core.h"
   6:../../libdaisy/src/per/spi.h **** 
   7:../../libdaisy/src/per/spi.h **** /* TODO:
   8:../../libdaisy/src/per/spi.h **** - Add documentation
   9:../../libdaisy/src/per/spi.h **** - Add reception
  10:../../libdaisy/src/per/spi.h **** - Add IT
  11:../../libdaisy/src/per/spi.h **** - Add DMA
  12:../../libdaisy/src/per/spi.h **** */
  13:../../libdaisy/src/per/spi.h **** 
  14:../../libdaisy/src/per/spi.h **** namespace daisy
  15:../../libdaisy/src/per/spi.h **** {
  16:../../libdaisy/src/per/spi.h **** /** @addtogroup serial
  17:../../libdaisy/src/per/spi.h **** @{
  18:../../libdaisy/src/per/spi.h **** */
  19:../../libdaisy/src/per/spi.h **** 
  20:../../libdaisy/src/per/spi.h **** /**  Handler for serial peripheral interface */
  21:../../libdaisy/src/per/spi.h **** class SpiHandle
  22:../../libdaisy/src/per/spi.h **** {
  23:../../libdaisy/src/per/spi.h ****   public:
  24:../../libdaisy/src/per/spi.h ****     struct Config
  25:../../libdaisy/src/per/spi.h ****     {
  26:../../libdaisy/src/per/spi.h ****         enum class Peripheral
  27:../../libdaisy/src/per/spi.h ****         {
  28:../../libdaisy/src/per/spi.h ****             SPI_1,
ARM GAS  /tmp/ccobg3TQ.s 			page 266


  29:../../libdaisy/src/per/spi.h ****             SPI_2,
  30:../../libdaisy/src/per/spi.h ****             SPI_3,
  31:../../libdaisy/src/per/spi.h ****             SPI_4,
  32:../../libdaisy/src/per/spi.h ****             SPI_5,
  33:../../libdaisy/src/per/spi.h ****             SPI_6,
  34:../../libdaisy/src/per/spi.h ****         };
  35:../../libdaisy/src/per/spi.h **** 
  36:../../libdaisy/src/per/spi.h ****         enum class Mode
  37:../../libdaisy/src/per/spi.h ****         {
  38:../../libdaisy/src/per/spi.h ****             MASTER,
  39:../../libdaisy/src/per/spi.h ****             SLAVE,
  40:../../libdaisy/src/per/spi.h ****         };
  41:../../libdaisy/src/per/spi.h **** 
  42:../../libdaisy/src/per/spi.h ****         enum class Direction
  43:../../libdaisy/src/per/spi.h ****         {
  44:../../libdaisy/src/per/spi.h ****             TWO_LINES,
  45:../../libdaisy/src/per/spi.h ****             TWO_LINES_TX_ONLY,
  46:../../libdaisy/src/per/spi.h ****             TWO_LINES_RX_ONLY,
  47:../../libdaisy/src/per/spi.h ****             ONE_LINE,
  48:../../libdaisy/src/per/spi.h ****         };
  49:../../libdaisy/src/per/spi.h **** 
  50:../../libdaisy/src/per/spi.h ****         enum class ClockPolarity
  51:../../libdaisy/src/per/spi.h ****         {
  52:../../libdaisy/src/per/spi.h ****             LOW,
  53:../../libdaisy/src/per/spi.h ****             HIGH,
  54:../../libdaisy/src/per/spi.h ****         };
  55:../../libdaisy/src/per/spi.h **** 
  56:../../libdaisy/src/per/spi.h ****         enum class ClockPhase
  57:../../libdaisy/src/per/spi.h ****         {
  58:../../libdaisy/src/per/spi.h ****             ONE_EDGE,
  59:../../libdaisy/src/per/spi.h ****             TWO_EDGE,
  60:../../libdaisy/src/per/spi.h ****         };
  61:../../libdaisy/src/per/spi.h **** 
  62:../../libdaisy/src/per/spi.h ****         enum class NSS
  63:../../libdaisy/src/per/spi.h ****         {
  64:../../libdaisy/src/per/spi.h ****             SOFT,
  65:../../libdaisy/src/per/spi.h ****             HARD_INPUT,
  66:../../libdaisy/src/per/spi.h ****             HARD_OUTPUT,
  67:../../libdaisy/src/per/spi.h ****         };
  68:../../libdaisy/src/per/spi.h **** 
  69:../../libdaisy/src/per/spi.h ****         enum class BaudPrescaler
  70:../../libdaisy/src/per/spi.h ****         {
  71:../../libdaisy/src/per/spi.h ****             PS_2,
  72:../../libdaisy/src/per/spi.h ****             PS_4,
  73:../../libdaisy/src/per/spi.h ****             PS_8,
  74:../../libdaisy/src/per/spi.h ****             PS_16,
  75:../../libdaisy/src/per/spi.h ****             PS_32,
  76:../../libdaisy/src/per/spi.h ****             PS_64,
  77:../../libdaisy/src/per/spi.h ****             PS_128,
  78:../../libdaisy/src/per/spi.h ****             PS_256,
  79:../../libdaisy/src/per/spi.h ****         };
  80:../../libdaisy/src/per/spi.h **** 
  81:../../libdaisy/src/per/spi.h ****         struct
  82:../../libdaisy/src/per/spi.h ****         {
  83:../../libdaisy/src/per/spi.h ****             dsy_gpio_pin sclk; /**< & */
  84:../../libdaisy/src/per/spi.h ****             dsy_gpio_pin miso; /**< & */
  85:../../libdaisy/src/per/spi.h ****             dsy_gpio_pin mosi; /**< & */
ARM GAS  /tmp/ccobg3TQ.s 			page 267


  86:../../libdaisy/src/per/spi.h ****             dsy_gpio_pin nss;  /**< & */
  87:../../libdaisy/src/per/spi.h ****         } pin_config;
  88:../../libdaisy/src/per/spi.h **** 
  89:../../libdaisy/src/per/spi.h ****         Peripheral    periph;
  90:../../libdaisy/src/per/spi.h ****         Mode          mode;
  91:../../libdaisy/src/per/spi.h ****         Direction     direction;
  92:../../libdaisy/src/per/spi.h ****         unsigned long datasize;
  93:../../libdaisy/src/per/spi.h ****         ClockPolarity clock_polarity;
  94:../../libdaisy/src/per/spi.h ****         ClockPhase    clock_phase;
  95:../../libdaisy/src/per/spi.h ****         NSS           nss;
  96:../../libdaisy/src/per/spi.h ****         BaudPrescaler baud_prescaler;
  97:../../libdaisy/src/per/spi.h ****     };
  98:../../libdaisy/src/per/spi.h **** 
  99:../../libdaisy/src/per/spi.h ****     SpiHandle() : pimpl_(nullptr) {}
 8386              		.loc 25 99 33 view .LVU1956
 8387 0042 49F2AC13 		movw	r3, #37292
 8388              	.LBE2527:
 8389              	.LBE2526:
 8390              	.LBE2525:
 8391              	.LBE2524:
 8392              	.LBE2523:
  16:../../libdaisy/src/hid/disp/oled_display.h ****     virtual ~OledDisplay() {}
 8393              		.loc 2 16 19 view .LVU1957
 8394 0046 4550     		str	r5, [r0, r1]
 8395              	.LBE2538:
 8396              	.LBE2541:
 8397              	.LBE2545:
 8398              	.LBE2553:
 8399              	.LBE2557:
 8400              	.LBB2558:
 8401              	.LBB2559:
 8402              	.LBB2560:
 8403              	.LBB2561:
  18:../../DaisySP/Source/Utility/samplehold.h ****     ~SampleHold() {}
 8404              		.loc 17 18 18 view .LVU1958
 8405 0048 0025     		movs	r5, #0
 8406              	.LBE2561:
 8407              	.LBE2560:
 8408              	.LBE2559:
 8409              	.LBE2558:
 8410              	.LBB2574:
 8411              	.LBB2554:
 8412              	.LBB2546:
 8413              	.LBB2542:
 8414              	.LBB2539:
 8415              	.LBB2534:
 8416              	.LBB2532:
 8417              	.LBB2530:
 8418              	.LBB2529:
 8419              	.LBB2528:
 8420              		.loc 25 99 33 view .LVU1959
 8421 004a C450     		str	r4, [r0, r3]
 8422              	.LBE2528:
 8423              	.LBE2529:
 8424              	.LBE2530:
 8425              	.LBE2532:
 8426              	.LBE2534:
ARM GAS  /tmp/ccobg3TQ.s 			page 268


 8427              	.LBE2539:
 8428              	.LBE2542:
 8429              	.LBE2546:
 8430              	.LBE2554:
 8431              	.LBE2574:
   8:SampleAndHold.cpp **** 
 8432              		.loc 13 8 12 view .LVU1960
 8433 004c 0F4A     		ldr	r2, .L536+16
 8434 004e 1049     		ldr	r1, .L536+20
 8435              	.LBB2575:
 8436              	.LBB2555:
 8437              	.LBB2547:
 8438              	.LBB2470:
 8439              	.LBB2461:
 8440              	.LBB2458:
 8441              	.LBB2456:
  62:../../libdaisy/src/hid/audio.h ****     ~AudioHandle() {}
 8442              		.loc 11 62 35 view .LVU1961
 8443 0050 4461     		str	r4, [r0, #20]
 8444              	.LVL599:
  62:../../libdaisy/src/hid/audio.h ****     ~AudioHandle() {}
 8445              		.loc 11 62 35 view .LVU1962
 8446              	.LBE2456:
 8447              	.LBE2458:
 8448              	.LBE2461:
 8449              	.LBB2462:
 8450              	.LBI2462:
  84:../../libdaisy/src/per/adc.h ****     ~AdcHandle() {}
 8451              		.loc 10 84 5 is_stmt 1 view .LVU1963
  84:../../libdaisy/src/per/adc.h ****     ~AdcHandle() {}
 8452              		.loc 10 84 5 is_stmt 0 view .LVU1964
 8453              	.LBE2462:
 8454              	.LBB2463:
 8455              	.LBI2463:
 8456              		.file 26 "../../libdaisy/src/per/dac.h"
   1:../../libdaisy/src/per/dac.h **** #pragma once
   2:../../libdaisy/src/per/dac.h **** #ifndef DSY_DAC_H
   3:../../libdaisy/src/per/dac.h **** #define DSY_DAC_H
   4:../../libdaisy/src/per/dac.h **** 
   5:../../libdaisy/src/per/dac.h **** #include "daisy_core.h"
   6:../../libdaisy/src/per/dac.h **** 
   7:../../libdaisy/src/per/dac.h **** namespace daisy
   8:../../libdaisy/src/per/dac.h **** {
   9:../../libdaisy/src/per/dac.h **** /** DAC handle for Built-in DAC Peripheral 
  10:../../libdaisy/src/per/dac.h ****  ** 
  11:../../libdaisy/src/per/dac.h ****  ** For now only Normal Mode is supported,
  12:../../libdaisy/src/per/dac.h ****  ** Sample and hold mode provides reduced power consumption, but requires a bit more setup.
  13:../../libdaisy/src/per/dac.h ****  **
  14:../../libdaisy/src/per/dac.h ****  ** For now connecting the DAC through other internal periphearls is also not supported.
  15:../../libdaisy/src/per/dac.h ****  **
  16:../../libdaisy/src/per/dac.h ****  ** Since the DAC channels have dedicated pins we don't need to pass in a pin config like with
  17:../../libdaisy/src/per/dac.h ****  ** other modules. However, it is still important to not try to use the DAC pins for anything else.
  18:../../libdaisy/src/per/dac.h ****  ** DAC Channel 1 is on PA4, and DAC Channel 2 is on PA5
  19:../../libdaisy/src/per/dac.h ****  ***/
  20:../../libdaisy/src/per/dac.h **** class DacHandle
  21:../../libdaisy/src/per/dac.h **** {
  22:../../libdaisy/src/per/dac.h ****   public:
ARM GAS  /tmp/ccobg3TQ.s 			page 269


  23:../../libdaisy/src/per/dac.h ****     /** Return Values for the DacHandle class */
  24:../../libdaisy/src/per/dac.h ****     enum class Result
  25:../../libdaisy/src/per/dac.h ****     {
  26:../../libdaisy/src/per/dac.h ****         OK,
  27:../../libdaisy/src/per/dac.h ****         ERR,
  28:../../libdaisy/src/per/dac.h ****     };
  29:../../libdaisy/src/per/dac.h **** 
  30:../../libdaisy/src/per/dac.h ****     /** Selects which channel(s) will be configured for use. */
  31:../../libdaisy/src/per/dac.h ****     enum class Channel
  32:../../libdaisy/src/per/dac.h ****     {
  33:../../libdaisy/src/per/dac.h ****         ONE,
  34:../../libdaisy/src/per/dac.h ****         TWO,
  35:../../libdaisy/src/per/dac.h ****         BOTH,
  36:../../libdaisy/src/per/dac.h ****     };
  37:../../libdaisy/src/per/dac.h **** 
  38:../../libdaisy/src/per/dac.h ****     /** Sets the Mode for the DAC channels.
  39:../../libdaisy/src/per/dac.h ****      **
  40:../../libdaisy/src/per/dac.h ****      ** Polling mode uses the blocking mode to transmit a single value at a time.
  41:../../libdaisy/src/per/dac.h ****      **
  42:../../libdaisy/src/per/dac.h ****      ** DMA mode uses a buffer, and periodically transmits it triggering a 
  43:../../libdaisy/src/per/dac.h ****      ** callback to fill the buffer when it is ready for more samples.
  44:../../libdaisy/src/per/dac.h ****      ***/
  45:../../libdaisy/src/per/dac.h ****     enum class Mode
  46:../../libdaisy/src/per/dac.h ****     {
  47:../../libdaisy/src/per/dac.h ****         POLLING,
  48:../../libdaisy/src/per/dac.h ****         DMA,
  49:../../libdaisy/src/per/dac.h ****     };
  50:../../libdaisy/src/per/dac.h **** 
  51:../../libdaisy/src/per/dac.h ****     /** Sets the number of bits per sample transmitted out of the DAC.
  52:../../libdaisy/src/per/dac.h ****      ** The output range will be: 0V - VDDA
  53:../../libdaisy/src/per/dac.h ****      ** The resolution will be roughly: bitdepth / (VDDA - 0V) 
  54:../../libdaisy/src/per/dac.h ****      ***/
  55:../../libdaisy/src/per/dac.h ****     enum class BitDepth
  56:../../libdaisy/src/per/dac.h ****     {
  57:../../libdaisy/src/per/dac.h ****         BITS_8,
  58:../../libdaisy/src/per/dac.h ****         BITS_12
  59:../../libdaisy/src/per/dac.h ****     };
  60:../../libdaisy/src/per/dac.h **** 
  61:../../libdaisy/src/per/dac.h ****     /** Sets whether the DAC output is buffered for higher drive ability. */
  62:../../libdaisy/src/per/dac.h ****     enum class BufferState
  63:../../libdaisy/src/per/dac.h ****     {
  64:../../libdaisy/src/per/dac.h ****         ENABLED,
  65:../../libdaisy/src/per/dac.h ****         DISABLED,
  66:../../libdaisy/src/per/dac.h ****     };
  67:../../libdaisy/src/per/dac.h **** 
  68:../../libdaisy/src/per/dac.h ****     /** Configuration structure for initializing the DAC structure. */
  69:../../libdaisy/src/per/dac.h ****     struct Config
  70:../../libdaisy/src/per/dac.h ****     {
  71:../../libdaisy/src/per/dac.h ****         /** Target Samplerate in Hz used to configure the internal 
  72:../../libdaisy/src/per/dac.h ****          ** timebase for DMA mode. Does nothing in POLLING mode.
  73:../../libdaisy/src/per/dac.h ****          ** If the value is 0 at Init time this will default to 48000Hz 
  74:../../libdaisy/src/per/dac.h ****          ** otherwise the driver will attempt meet the target.*/
  75:../../libdaisy/src/per/dac.h ****         uint32_t target_samplerate;
  76:../../libdaisy/src/per/dac.h **** 
  77:../../libdaisy/src/per/dac.h ****         Channel     chn;
  78:../../libdaisy/src/per/dac.h ****         Mode        mode;
  79:../../libdaisy/src/per/dac.h ****         BitDepth    bitdepth;
ARM GAS  /tmp/ccobg3TQ.s 			page 270


  80:../../libdaisy/src/per/dac.h ****         BufferState buff_state;
  81:../../libdaisy/src/per/dac.h ****     };
  82:../../libdaisy/src/per/dac.h **** 
  83:../../libdaisy/src/per/dac.h ****     DacHandle() : pimpl_(nullptr) {}
 8457              		.loc 26 83 5 is_stmt 1 view .LVU1965
 8458              	.LBB2464:
 8459              	.LBB2465:
 8460              		.loc 26 83 33 is_stmt 0 view .LVU1966
 8461 0052 0462     		str	r4, [r0, #32]
 8462              	.LVL600:
 8463              		.loc 26 83 33 view .LVU1967
 8464              	.LBE2465:
 8465              	.LBE2464:
 8466              	.LBE2463:
 8467              	.LBB2466:
 8468              	.LBI2466:
  40:../../libdaisy/src/hid/usb.h **** 
 8469              		.loc 9 40 5 is_stmt 1 view .LVU1968
  40:../../libdaisy/src/hid/usb.h **** 
 8470              		.loc 9 40 5 is_stmt 0 view .LVU1969
 8471              	.LBE2466:
 8472              	.LBB2467:
 8473              	.LBI2467:
  58:../../libdaisy/src/sys/system.h ****     ~System() {}
 8474              		.loc 8 58 5 is_stmt 1 view .LVU1970
  58:../../libdaisy/src/sys/system.h ****     ~System() {}
 8475              		.loc 8 58 5 is_stmt 0 view .LVU1971
 8476              	.LBE2467:
 8477              	.LBE2470:
 8478              	.LBE2547:
 8479              	.LBB2548:
 8480              	.LBI2548:
  20:../../libdaisy/src/hid/encoder.h ****     ~Encoder() {}
 8481              		.loc 5 20 5 is_stmt 1 view .LVU1972
 8482              	.LBB2549:
 8483              	.LBB2550:
 8484              	.LBI2550:
  40:../../libdaisy/src/hid/switch.h ****     ~Switch() {}
 8485              		.loc 6 40 5 view .LVU1973
  40:../../libdaisy/src/hid/switch.h ****     ~Switch() {}
 8486              		.loc 6 40 5 is_stmt 0 view .LVU1974
 8487              	.LBE2550:
 8488              	.LBE2549:
 8489              	.LBE2548:
 8490              	.LBE2555:
 8491              	.LBE2575:
 8492              	.LBE2581:
 8493              	.LBE2584:
  39:../../libdaisy/src/daisy_patch.h ****     /** Destructor */
 8494              		.loc 1 39 18 is_stmt 1 view .LVU1975
  39:../../libdaisy/src/daisy_patch.h ****     /** Destructor */
 8495              		.loc 1 39 18 view .LVU1976
 8496              	.LBB2585:
 8497              	.LBB2582:
 8498              	.LBB2576:
 8499              	.LBB2556:
 8500              	.LBB2551:
ARM GAS  /tmp/ccobg3TQ.s 			page 271


 8501              	.LBI2471:
  82:../../libdaisy/src/hid/midi.h ****     ~MidiHandler() {}
 8502              		.loc 4 82 5 view .LVU1977
 8503              	.LBB2515:
 8504              	.LBB2511:
 8505              	.LBB2502:
 8506              	.LBI2502:
 8507              		.loc 24 87 5 view .LVU1978
 8508              	.LBB2503:
 8509              	.LBB2504:
 8510              		.loc 24 87 35 is_stmt 0 view .LVU1979
 8511 0054 C0F8E840 		str	r4, [r0, #232]
 8512              	.LVL601:
 8513              		.loc 24 87 35 view .LVU1980
 8514              	.LBE2504:
 8515              	.LBE2503:
 8516              	.LBE2502:
 8517              	.LBB2505:
 8518              	.LBI2505:
 8519              		.file 27 "../../libdaisy/src/util/ringbuffer.h"
   1:../../libdaisy/src/util/ringbuffer.h **** #pragma once
   2:../../libdaisy/src/util/ringbuffer.h **** #ifndef DSY_RINGBUFFER_H
   3:../../libdaisy/src/util/ringbuffer.h **** #define DSY_RINGBUFFER_H
   4:../../libdaisy/src/util/ringbuffer.h **** 
   5:../../libdaisy/src/util/ringbuffer.h **** #include <algorithm>
   6:../../libdaisy/src/util/ringbuffer.h **** 
   7:../../libdaisy/src/util/ringbuffer.h **** namespace daisy
   8:../../libdaisy/src/util/ringbuffer.h **** {
   9:../../libdaisy/src/util/ringbuffer.h **** /** @addtogroup utility
  10:../../libdaisy/src/util/ringbuffer.h ****     @{
  11:../../libdaisy/src/util/ringbuffer.h **** */
  12:../../libdaisy/src/util/ringbuffer.h **** 
  13:../../libdaisy/src/util/ringbuffer.h **** /**
  14:../../libdaisy/src/util/ringbuffer.h **** Utility Ring Buffer \n 
  15:../../libdaisy/src/util/ringbuffer.h **** imported from pichenettes/stmlib
  16:../../libdaisy/src/util/ringbuffer.h **** */
  17:../../libdaisy/src/util/ringbuffer.h **** template <typename T, size_t size>
  18:../../libdaisy/src/util/ringbuffer.h **** class RingBuffer
  19:../../libdaisy/src/util/ringbuffer.h **** {
  20:../../libdaisy/src/util/ringbuffer.h ****   public:
  21:../../libdaisy/src/util/ringbuffer.h ****     RingBuffer() {}
 8520              		.loc 27 21 5 is_stmt 1 view .LVU1981
 8521              		.loc 27 21 5 is_stmt 0 view .LVU1982
 8522              	.LBE2505:
 8523              	.LBB2506:
 8524              	.LBI2474:
  84:../../libdaisy/src/hid/midi.h **** 
  85:../../libdaisy/src/hid/midi.h ****     struct Config
 8525              		.loc 4 85 12 is_stmt 1 view .LVU1983
 8526              	.LBB2489:
 8527              	.LBI2475:
  33:../../libdaisy/src/hid/midi.h ****         {
 8528              		.loc 4 33 9 view .LVU1984
 8529              	.LBB2485:
 8530              	.LBB2481:
  35:../../libdaisy/src/hid/midi.h ****             rx     = {DSY_GPIOB, 7};
 8531              		.loc 4 35 13 view .LVU1985
ARM GAS  /tmp/ccobg3TQ.s 			page 272


  35:../../libdaisy/src/hid/midi.h ****             rx     = {DSY_GPIOB, 7};
 8532              		.loc 4 35 20 is_stmt 0 view .LVU1986
 8533 0058 C451     		str	r4, [r0, r7]
  36:../../libdaisy/src/hid/midi.h ****             tx     = {DSY_GPIOB, 6};
 8534              		.loc 4 36 13 is_stmt 1 view .LVU1987
  37:../../libdaisy/src/hid/midi.h ****         }
 8535              		.loc 4 37 13 view .LVU1988
 8536              	.LVL602:
  37:../../libdaisy/src/hid/midi.h ****         }
 8537              		.loc 4 37 13 is_stmt 0 view .LVU1989
 8538              	.LBE2481:
 8539              	.LBE2485:
 8540              	.LBE2489:
 8541              	.LBE2506:
 8542              	.LBB2507:
 8543              	.LBI2492:
  24:../../libdaisy/src/hid/midi.h ****     ~MidiUartTransport() {}
 8544              		.loc 4 24 5 is_stmt 1 view .LVU1990
 8545              	.LBB2499:
 8546              	.LBI2493:
 8547              		.loc 24 87 5 view .LVU1991
 8548              		.loc 24 87 5 is_stmt 0 view .LVU1992
 8549              	.LBE2499:
 8550              	.LBE2507:
 8551              	.LBE2511:
 8552              	.LBE2515:
 8553              	.LBE2551:
 8554              	.LBB2552:
 8555              	.LBI2520:
  16:../../libdaisy/src/hid/disp/oled_display.h ****     virtual ~OledDisplay() {}
 8556              		.loc 2 16 5 is_stmt 1 view .LVU1993
 8557              	.LBB2543:
 8558              	.LBB2540:
 8559              	.LBB2535:
 8560              	.LBI2535:
 218:../../libdaisy/src/hid/disp/display.h ****     virtual ~OneBitGraphicsDisplayImpl() {}
 8561              		.loc 3 218 5 view .LVU1994
 8562              	.LBB2536:
 8563              	.LBI2536:
  22:../../libdaisy/src/hid/disp/display.h ****     virtual ~OneBitGraphicsDisplay() {}
 8564              		.loc 3 22 5 view .LVU1995
  22:../../libdaisy/src/hid/disp/display.h ****     virtual ~OneBitGraphicsDisplay() {}
 8565              		.loc 3 22 5 is_stmt 0 view .LVU1996
 8566              	.LBE2536:
 8567              	.LBE2535:
 8568              	.LBB2537:
 8569              	.LBI2523:
 132:../../libdaisy/src/dev/oled_ssd130x.h **** {
 8570              		.loc 12 132 7 is_stmt 1 view .LVU1997
 8571              	.LBB2533:
 8572              	.LBI2524:
  60:../../libdaisy/src/dev/oled_ssd130x.h **** {
 8573              		.loc 12 60 7 view .LVU1998
 8574              	.LBB2531:
 8575              	.LBI2525:
 8576              		.loc 25 99 5 view .LVU1999
 8577              		.loc 25 99 5 is_stmt 0 view .LVU2000
ARM GAS  /tmp/ccobg3TQ.s 			page 273


 8578              	.LBE2531:
 8579              	.LBE2533:
 8580              	.LBE2537:
 8581              	.LBE2540:
 8582              	.LBE2543:
 8583              	.LBE2552:
 8584              	.LBE2556:
 8585              	.LBE2576:
   8:SampleAndHold.cpp **** 
 8586              		.loc 13 8 12 view .LVU2001
 8587 005a FFF7FEFF 		bl	__aeabi_atexit
 8588              	.LVL603:
  22:SampleAndHold.cpp **** 
 8589              		.loc 13 22 27 is_stmt 1 view .LVU2002
 8590              	.LBB2577:
 8591              	.LBI2558:
  10:SampleAndHold.cpp **** {
 8592              		.loc 13 10 8 view .LVU2003
 8593              	.LBB2570:
 8594              	.LBI2559:
  18:../../DaisySP/Source/Utility/samplehold.h ****     ~SampleHold() {}
 8595              		.loc 17 18 5 view .LVU2004
 8596              	.LBB2566:
 8597              	.LBB2562:
  18:../../DaisySP/Source/Utility/samplehold.h ****     ~SampleHold() {}
 8598              		.loc 17 18 18 is_stmt 0 view .LVU2005
 8599 005e 0D4B     		ldr	r3, .L536+24
 8600              	.LBE2562:
 8601              	.LBE2566:
 8602              	.LBE2570:
 8603              	.LBE2577:
  22:SampleAndHold.cpp **** 
 8604              		.loc 13 22 16 view .LVU2006
 8605 0060 2046     		mov	r0, r4
 8606 0062 0A4A     		ldr	r2, .L536+16
 8607              	.LBB2578:
 8608              	.LBB2571:
 8609              	.LBB2567:
 8610              	.LBB2563:
  18:../../DaisySP/Source/Utility/samplehold.h ****     ~SampleHold() {}
 8611              		.loc 17 18 18 view .LVU2007
 8612 0064 1C72     		strb	r4, [r3, #8]
 8613              	.LVL604:
  18:../../DaisySP/Source/Utility/samplehold.h ****     ~SampleHold() {}
 8614              		.loc 17 18 18 view .LVU2008
 8615              	.LBE2563:
 8616              	.LBE2567:
 8617              	.LBE2571:
 8618              	.LBE2578:
  22:SampleAndHold.cpp **** 
 8619              		.loc 13 22 27 is_stmt 1 view .LVU2009
  22:SampleAndHold.cpp **** 
 8620              		.loc 13 22 27 view .LVU2010
 8621              	.LBB2579:
  10:SampleAndHold.cpp **** {
 8622              		.loc 13 10 8 view .LVU2011
 8623              	.LBB2572:
ARM GAS  /tmp/ccobg3TQ.s 			page 274


  18:../../DaisySP/Source/Utility/samplehold.h ****     ~SampleHold() {}
 8624              		.loc 17 18 5 view .LVU2012
 8625              	.LBB2568:
 8626              	.LBB2564:
  18:../../DaisySP/Source/Utility/samplehold.h ****     ~SampleHold() {}
 8627              		.loc 17 18 18 is_stmt 0 view .LVU2013
 8628 0066 1C77     		strb	r4, [r3, #28]
 8629              	.LVL605:
  18:../../DaisySP/Source/Utility/samplehold.h ****     ~SampleHold() {}
 8630              		.loc 17 18 18 view .LVU2014
 8631              	.LBE2564:
 8632              	.LBE2568:
 8633              	.LBE2572:
 8634              	.LBE2579:
  22:SampleAndHold.cpp **** 
 8635              		.loc 13 22 27 is_stmt 1 view .LVU2015
  22:SampleAndHold.cpp **** 
 8636              		.loc 13 22 27 view .LVU2016
 8637              	.LBB2580:
 8638              	.LBB2573:
 8639              	.LBB2569:
 8640              	.LBB2565:
  18:../../DaisySP/Source/Utility/samplehold.h ****     ~SampleHold() {}
 8641              		.loc 17 18 18 is_stmt 0 view .LVU2017
 8642 0068 1D60     		str	r5, [r3]	@ float
 8643 006a 5D60     		str	r5, [r3, #4]	@ float
 8644 006c 5D61     		str	r5, [r3, #20]	@ float
 8645 006e 9D61     		str	r5, [r3, #24]	@ float
 8646              	.LBE2565:
 8647              	.LBE2569:
 8648              	.LBE2573:
 8649              	.LBE2580:
  22:SampleAndHold.cpp **** 
 8650              		.loc 13 22 16 view .LVU2018
 8651 0070 0949     		ldr	r1, .L536+28
 8652              	.LBE2582:
 8653              	.LBE2585:
 8654              		.loc 13 98 1 view .LVU2019
 8655 0072 BDE8F840 		pop	{r3, r4, r5, r6, r7, lr}
 8656              		.cfi_restore 14
 8657              		.cfi_restore 7
 8658              		.cfi_restore 6
 8659              		.cfi_restore 5
 8660              		.cfi_restore 4
 8661              		.cfi_restore 3
 8662              		.cfi_def_cfa_offset 0
 8663              	.LBB2586:
 8664              	.LBB2583:
  22:SampleAndHold.cpp **** 
 8665              		.loc 13 22 16 view .LVU2020
 8666 0076 FFF7FEBF 		b	__aeabi_atexit
 8667              	.LVL606:
 8668              	.L537:
 8669 007a 00BF     		.align	2
 8670              	.L536:
 8671 007c 00000000 		.word	.LANCHOR2
 8672 0080 00000000 		.word	patch
ARM GAS  /tmp/ccobg3TQ.s 			page 275


 8673 0084 80707FF0 		.word	-260083584
 8674 0088 08000000 		.word	_ZTVN5daisy11OledDisplayINS_13SSD130xDriverILj128ELj64ENS_24SSD130x4WireSpiTransportEEEEE+8
 8675 008c 00000000 		.word	__dso_handle
 8676 0090 00000000 		.word	_ZN5daisy10DaisyPatchD1Ev
 8677 0094 00000000 		.word	.LANCHOR0
 8678 0098 00000000 		.word	__tcf_0
 8679              	.LBE2583:
 8680              	.LBE2586:
 8681              		.cfi_endproc
 8682              	.LFE4844:
 8684              		.section	.init_array,"aw",%init_array
 8685              		.align	2
 8686 0000 00000000 		.word	_GLOBAL__sub_I_patch(target1)
 8687              		.weak	_ZTSN5daisy21OneBitGraphicsDisplayE
 8688              		.section	.rodata._ZTSN5daisy21OneBitGraphicsDisplayE,"aG",%progbits,_ZTSN5daisy21OneBitGraphicsDis
 8689              		.align	2
 8692              	_ZTSN5daisy21OneBitGraphicsDisplayE:
 8693 0000 4E356461 		.ascii	"N5daisy21OneBitGraphicsDisplayE\000"
 8693      69737932 
 8693      314F6E65 
 8693      42697447 
 8693      72617068 
 8694              		.weak	_ZTIN5daisy21OneBitGraphicsDisplayE
 8695              		.section	.rodata._ZTIN5daisy21OneBitGraphicsDisplayE,"aG",%progbits,_ZTIN5daisy21OneBitGraphicsDis
 8696              		.align	2
 8699              	_ZTIN5daisy21OneBitGraphicsDisplayE:
 8700 0000 08000000 		.word	_ZTVN10__cxxabiv117__class_type_infoE+8
 8701 0004 00000000 		.word	_ZTSN5daisy21OneBitGraphicsDisplayE
 8702              		.weak	_ZTSN5daisy25OneBitGraphicsDisplayImplINS_11OledDisplayINS_13SSD130xDriverILj128ELj64ENS_24S
 8703              		.section	.rodata._ZTSN5daisy25OneBitGraphicsDisplayImplINS_11OledDisplayINS_13SSD130xDriverILj128E
 8704              		.align	2
 8707              	_ZTSN5daisy25OneBitGraphicsDisplayImplINS_11OledDisplayINS_13SSD130xDriverILj128ELj64ENS_24SSD130x4
 8708 0000 4E356461 		.ascii	"N5daisy25OneBitGraphicsDisplayImplINS_11OledDisplay"
 8708      69737932 
 8708      354F6E65 
 8708      42697447 
 8708      72617068 
 8709 0033 494E535F 		.ascii	"INS_13SSD130xDriverILj128ELj64ENS_24SSD130x4WireSpi"
 8709      31335353 
 8709      44313330 
 8709      78447269 
 8709      76657249 
 8710 0066 5472616E 		.ascii	"TransportEEEEEEE\000"
 8710      73706F72 
 8710      74454545 
 8710      45454545 
 8710      00
 8711              		.weak	_ZTIN5daisy25OneBitGraphicsDisplayImplINS_11OledDisplayINS_13SSD130xDriverILj128ELj64ENS_24S
 8712              		.section	.rodata._ZTIN5daisy25OneBitGraphicsDisplayImplINS_11OledDisplayINS_13SSD130xDriverILj128E
 8713              		.align	2
 8716              	_ZTIN5daisy25OneBitGraphicsDisplayImplINS_11OledDisplayINS_13SSD130xDriverILj128ELj64ENS_24SSD130x4
 8717 0000 08000000 		.word	_ZTVN10__cxxabiv120__si_class_type_infoE+8
 8718 0004 00000000 		.word	_ZTSN5daisy25OneBitGraphicsDisplayImplINS_11OledDisplayINS_13SSD130xDriverILj128ELj64ENS_24S
 8719 0008 00000000 		.word	_ZTIN5daisy21OneBitGraphicsDisplayE
 8720              		.weak	_ZTSN5daisy11OledDisplayINS_13SSD130xDriverILj128ELj64ENS_24SSD130x4WireSpiTransportEEEEE
 8721              		.section	.rodata._ZTSN5daisy11OledDisplayINS_13SSD130xDriverILj128ELj64ENS_24SSD130x4WireSpiTransp
 8722              		.align	2
ARM GAS  /tmp/ccobg3TQ.s 			page 276


 8725              	_ZTSN5daisy11OledDisplayINS_13SSD130xDriverILj128ELj64ENS_24SSD130x4WireSpiTransportEEEEE:
 8726 0000 4E356461 		.ascii	"N5daisy11OledDisplayINS_13SSD130xDriverILj128ELj64E"
 8726      69737931 
 8726      314F6C65 
 8726      64446973 
 8726      706C6179 
 8727 0033 4E535F32 		.ascii	"NS_24SSD130x4WireSpiTransportEEEEE\000"
 8727      34535344 
 8727      31333078 
 8727      34576972 
 8727      65537069 
 8728              		.weak	_ZTIN5daisy11OledDisplayINS_13SSD130xDriverILj128ELj64ENS_24SSD130x4WireSpiTransportEEEEE
 8729              		.section	.rodata._ZTIN5daisy11OledDisplayINS_13SSD130xDriverILj128ELj64ENS_24SSD130x4WireSpiTransp
 8730              		.align	2
 8733              	_ZTIN5daisy11OledDisplayINS_13SSD130xDriverILj128ELj64ENS_24SSD130x4WireSpiTransportEEEEE:
 8734 0000 08000000 		.word	_ZTVN10__cxxabiv120__si_class_type_infoE+8
 8735 0004 00000000 		.word	_ZTSN5daisy11OledDisplayINS_13SSD130xDriverILj128ELj64ENS_24SSD130x4WireSpiTransportEEEEE
 8736 0008 00000000 		.word	_ZTIN5daisy25OneBitGraphicsDisplayImplINS_11OledDisplayINS_13SSD130xDriverILj128ELj64ENS_24S
 8737              		.weak	_ZTVN5daisy11OledDisplayINS_13SSD130xDriverILj128ELj64ENS_24SSD130x4WireSpiTransportEEEEE
 8738              		.section	.rodata._ZTVN5daisy11OledDisplayINS_13SSD130xDriverILj128ELj64ENS_24SSD130x4WireSpiTransp
 8739              		.align	2
 8742              	_ZTVN5daisy11OledDisplayINS_13SSD130xDriverILj128ELj64ENS_24SSD130x4WireSpiTransportEEEEE:
 8743 0000 00000000 		.word	0
 8744 0004 00000000 		.word	_ZTIN5daisy11OledDisplayINS_13SSD130xDriverILj128ELj64ENS_24SSD130x4WireSpiTransportEEEEE
 8745 0008 00000000 		.word	_ZN5daisy11OledDisplayINS_13SSD130xDriverILj128ELj64ENS_24SSD130x4WireSpiTransportEEEED1Ev
 8746 000c 00000000 		.word	_ZN5daisy11OledDisplayINS_13SSD130xDriverILj128ELj64ENS_24SSD130x4WireSpiTransportEEEED0Ev
 8747 0010 00000000 		.word	_ZNK5daisy11OledDisplayINS_13SSD130xDriverILj128ELj64ENS_24SSD130x4WireSpiTransportEEEE6Heig
 8748 0014 00000000 		.word	_ZNK5daisy11OledDisplayINS_13SSD130xDriverILj128ELj64ENS_24SSD130x4WireSpiTransportEEEE5Widt
 8749 0018 00000000 		.word	_ZN5daisy11OledDisplayINS_13SSD130xDriverILj128ELj64ENS_24SSD130x4WireSpiTransportEEEE4FillE
 8750 001c 00000000 		.word	_ZN5daisy11OledDisplayINS_13SSD130xDriverILj128ELj64ENS_24SSD130x4WireSpiTransportEEEE9DrawP
 8751 0020 00000000 		.word	_ZN5daisy25OneBitGraphicsDisplayImplINS_11OledDisplayINS_13SSD130xDriverILj128ELj64ENS_24SSD
 8752 0024 00000000 		.word	_ZN5daisy25OneBitGraphicsDisplayImplINS_11OledDisplayINS_13SSD130xDriverILj128ELj64ENS_24SSD
 8753 0028 00000000 		.word	_ZN5daisy25OneBitGraphicsDisplayImplINS_11OledDisplayINS_13SSD130xDriverILj128ELj64ENS_24SSD
 8754 002c 00000000 		.word	_ZN5daisy25OneBitGraphicsDisplayImplINS_11OledDisplayINS_13SSD130xDriverILj128ELj64ENS_24SSD
 8755 0030 00000000 		.word	_ZN5daisy25OneBitGraphicsDisplayImplINS_11OledDisplayINS_13SSD130xDriverILj128ELj64ENS_24SSD
 8756 0034 00000000 		.word	_ZN5daisy25OneBitGraphicsDisplayImplINS_11OledDisplayINS_13SSD130xDriverILj128ELj64ENS_24SSD
 8757 0038 00000000 		.word	_ZN5daisy11OledDisplayINS_13SSD130xDriverILj128ELj64ENS_24SSD130x4WireSpiTransportEEEE6Updat
 8758              		.global	menuPos
 8759              		.global	sampHolds
 8760              		.global	patch
 8761              		.section	.rodata
 8762              		.align	2
 8763              		.set	.LANCHOR2,. + 0
 8764              	.LC0:
 8765 0000 01       		.byte	1
 8766 0001 07       		.byte	7
 8767 0002 0000     		.space	2
 8768              	.LC1:
 8769 0004 01       		.byte	1
 8770 0005 06       		.byte	6
 8771              		.section	.bss.menuPos,"aw",%nobits
 8772              		.align	2
 8773              		.set	.LANCHOR1,. + 0
 8776              	menuPos:
 8777 0000 00000000 		.space	4
 8778              		.section	.bss.patch,"aw",%nobits
 8779              		.align	2
ARM GAS  /tmp/ccobg3TQ.s 			page 277


 8782              	patch:
 8783 0000 00000000 		.space	38340
 8783      00000000 
 8783      00000000 
 8783      00000000 
 8783      00000000 
 8784              		.section	.bss.sampHolds,"aw",%nobits
 8785              		.align	2
 8786              		.set	.LANCHOR0,. + 0
 8789              	sampHolds:
 8790 0000 00000000 		.space	40
 8790      00000000 
 8790      00000000 
 8790      00000000 
 8790      00000000 
 8791              		.text
 8792              	.Letext0:
 8793              		.file 28 "/usr/lib/gcc/arm-none-eabi/9.2.1/include/stdint.h"
 8794              		.file 29 "../../libdaisy/Drivers/CMSIS/Include/core_cm7.h"
 8795              		.file 30 "../../libdaisy/Drivers/CMSIS/Device/ST/STM32H7xx/Include/system_stm32h7xx.h"
 8796              		.file 31 "/usr/lib/gcc/arm-none-eabi/9.2.1/include/stddef.h"
 8797              		.file 32 "/usr/include/newlib/c++/9.2.1/bits/std_abs.h"
 8798              		.file 33 "/usr/include/newlib/c++/9.2.1/cstdint"
 8799              		.file 34 "/usr/include/newlib/c++/9.2.1/cstdlib"
 8800              		.file 35 "/usr/include/newlib/c++/9.2.1/type_traits"
 8801              		.file 36 "/usr/include/newlib/c++/9.2.1/arm-none-eabi/thumb/v7e-m+dp/hard/bits/c++config.h"
 8802              		.file 37 "/usr/include/newlib/c++/9.2.1/bits/stl_pair.h"
 8803              		.file 38 "/usr/include/newlib/c++/9.2.1/bits/cpp_type_traits.h"
 8804              		.file 39 "/usr/include/newlib/c++/9.2.1/bits/stl_iterator_base_types.h"
 8805              		.file 40 "/usr/include/newlib/c++/9.2.1/debug/debug.h"
 8806              		.file 41 "/usr/include/newlib/c++/9.2.1/cwchar"
 8807              		.file 42 "/usr/include/newlib/c++/9.2.1/bits/exception_ptr.h"
 8808              		.file 43 "/usr/include/newlib/c++/9.2.1/new"
 8809              		.file 44 "/usr/include/newlib/c++/9.2.1/clocale"
 8810              		.file 45 "/usr/include/newlib/c++/9.2.1/cstdio"
 8811              		.file 46 "/usr/include/newlib/c++/9.2.1/initializer_list"
 8812              		.file 47 "/usr/include/newlib/c++/9.2.1/bits/stringfwd.h"
 8813              		.file 48 "/usr/include/newlib/c++/9.2.1/bits/uniform_int_dist.h"
 8814              		.file 49 "/usr/include/newlib/c++/9.2.1/bits/random.h"
 8815              		.file 50 "/usr/include/newlib/c++/9.2.1/cstring"
 8816              		.file 51 "/usr/include/newlib/c++/9.2.1/bits/algorithmfwd.h"
 8817              		.file 52 "/usr/include/newlib/c++/9.2.1/cstdarg"
 8818              		.file 53 "/usr/include/newlib/c++/9.2.1/bits/ptr_traits.h"
 8819              		.file 54 "/usr/include/newlib/c++/9.2.1/bits/stl_iterator_base_funcs.h"
 8820              		.file 55 "/usr/include/newlib/c++/9.2.1/bits/move.h"
 8821              		.file 56 "/usr/include/newlib/c++/9.2.1/bits/predefined_ops.h"
 8822              		.file 57 "/usr/include/newlib/c++/9.2.1/ext/numeric_traits.h"
 8823              		.file 58 "/usr/include/newlib/c++/9.2.1/ext/alloc_traits.h"
 8824              		.file 59 "/usr/include/newlib/c++/9.2.1/bits/stl_iterator.h"
 8825              		.file 60 "/usr/include/newlib/c++/9.2.1/ext/type_traits.h"
 8826              		.file 61 "/usr/include/newlib/sys/_types.h"
 8827              		.file 62 "/usr/include/newlib/sys/reent.h"
 8828              		.file 63 "/usr/include/newlib/sys/lock.h"
 8829              		.file 64 "/usr/include/newlib/math.h"
 8830              		.file 65 "/usr/include/newlib/stdlib.h"
 8831              		.file 66 "/usr/include/newlib/c++/9.2.1/math.h"
 8832              		.file 67 "../../libdaisy/Drivers/STM32H7xx_HAL_Driver/Inc/stm32h7xx_hal_def.h"
ARM GAS  /tmp/ccobg3TQ.s 			page 278


 8833              		.file 68 "../../libdaisy/Drivers/STM32H7xx_HAL_Driver/Inc/stm32h7xx_hal_flash.h"
 8834              		.file 69 "../../DaisySP/Source/Control/adenv.h"
 8835              		.file 70 "../../DaisySP/Source/Utility/dsp.h"
 8836              		.file 71 "/usr/lib/gcc/arm-none-eabi/9.2.1/include/stdarg.h"
 8837              		.file 72 "/usr/include/newlib/wchar.h"
 8838              		.file 73 "/usr/include/newlib/locale.h"
 8839              		.file 74 "/usr/include/newlib/ctype.h"
 8840              		.file 75 "/usr/include/newlib/stdio.h"
 8841              		.file 76 "/usr/include/newlib/sys/errno.h"
 8842              		.file 77 "/usr/include/newlib/c++/9.2.1/stdlib.h"
 8843              		.file 78 "/usr/include/newlib/string.h"
 8844              		.file 79 "../../libdaisy/src/daisy_core.h"
 8845              		.file 80 "../../libdaisy/src/per/tim.h"
 8846              		.file 81 "../../libdaisy/src/per/sai.h"
 8847              		.file 82 "../../libdaisy/src/hid/MidiEvent.h"
 8848              		.file 83 "../../libdaisy/src/hid/ctrl.h"
 8849              		.file 84 "../../libdaisy/src/hid/logger_impl.h"
 8850              		.file 85 "../../libdaisy/src/util/wav_format.h"
 8851              		.file 86 "../../libdaisy/src/per/qspi.h"
 8852              		.file 87 "../../libdaisy/src/per/gpio.h"
 8853              		.file 88 "../../libdaisy/src/dev/sdram.h"
 8854              		.file 89 "/usr/include/newlib/sys/unistd.h"
 8855              		.file 90 "../../libdaisy/src/util/oled_fonts.h"
 8856              		.file 91 "../../libdaisy/Middlewares/Third_Party/FatFs/src/integer.h"
 8857              		.file 92 "../../libdaisy/Middlewares/Third_Party/FatFs/src/ff.h"
 8858              		.file 93 "../../libdaisy/Middlewares/Third_Party/FatFs/src/diskio.h"
 8859              		.file 94 "../../libdaisy/Middlewares/Third_Party/FatFs/src/ff_gen_drv.h"
 8860              		.file 95 "../../libdaisy/src/util/sd_diskio.h"
 8861              		.file 96 "../../libdaisy/src/sys/fatfs.h"
 8862              		.file 97 "<built-in>"
 8863              		.file 98 "../../libdaisy/src/dev/sr_595.h"
ARM GAS  /tmp/ccobg3TQ.s 			page 279


DEFINED SYMBOLS
                            *ABS*:0000000000000000 SampleAndHold.cpp
     /tmp/ccobg3TQ.s:17     .text._ZN5daisy10DaisyPatchD2Ev:0000000000000000 $t
     /tmp/ccobg3TQ.s:26     .text._ZN5daisy10DaisyPatchD2Ev:0000000000000000 _ZN5daisy10DaisyPatchD2Ev
     /tmp/ccobg3TQ.s:26     .text._ZN5daisy10DaisyPatchD2Ev:0000000000000000 _ZN5daisy10DaisyPatchD1Ev
     /tmp/ccobg3TQ.s:108    .text._ZN5daisy11OledDisplayINS_13SSD130xDriverILj128ELj64ENS_24SSD130x4WireSpiTransportEEEED2Ev:0000000000000000 $t
     /tmp/ccobg3TQ.s:116    .text._ZN5daisy11OledDisplayINS_13SSD130xDriverILj128ELj64ENS_24SSD130x4WireSpiTransportEEEED2Ev:0000000000000000 _ZN5daisy11OledDisplayINS_13SSD130xDriverILj128ELj64ENS_24SSD130x4WireSpiTransportEEEED2Ev
     /tmp/ccobg3TQ.s:116    .text._ZN5daisy11OledDisplayINS_13SSD130xDriverILj128ELj64ENS_24SSD130x4WireSpiTransportEEEED2Ev:0000000000000000 _ZN5daisy11OledDisplayINS_13SSD130xDriverILj128ELj64ENS_24SSD130x4WireSpiTransportEEEED1Ev
     /tmp/ccobg3TQ.s:141    .text._ZN5daisy11OledDisplayINS_13SSD130xDriverILj128ELj64ENS_24SSD130x4WireSpiTransportEEEE4FillEb:0000000000000000 $t
     /tmp/ccobg3TQ.s:149    .text._ZN5daisy11OledDisplayINS_13SSD130xDriverILj128ELj64ENS_24SSD130x4WireSpiTransportEEEE4FillEb:0000000000000000 _ZN5daisy11OledDisplayINS_13SSD130xDriverILj128ELj64ENS_24SSD130x4WireSpiTransportEEEE4FillEb
     /tmp/ccobg3TQ.s:186    .text.__tcf_0:0000000000000000 $t
     /tmp/ccobg3TQ.s:193    .text.__tcf_0:0000000000000000 __tcf_0
     /tmp/ccobg3TQ.s:207    .text._ZNK5daisy11OledDisplayINS_13SSD130xDriverILj128ELj64ENS_24SSD130x4WireSpiTransportEEEE6HeightEv:0000000000000000 $t
     /tmp/ccobg3TQ.s:215    .text._ZNK5daisy11OledDisplayINS_13SSD130xDriverILj128ELj64ENS_24SSD130x4WireSpiTransportEEEE6HeightEv:0000000000000000 _ZNK5daisy11OledDisplayINS_13SSD130xDriverILj128ELj64ENS_24SSD130x4WireSpiTransportEEEE6HeightEv
     /tmp/ccobg3TQ.s:232    .text._ZNK5daisy11OledDisplayINS_13SSD130xDriverILj128ELj64ENS_24SSD130x4WireSpiTransportEEEE5WidthEv:0000000000000000 $t
     /tmp/ccobg3TQ.s:240    .text._ZNK5daisy11OledDisplayINS_13SSD130xDriverILj128ELj64ENS_24SSD130x4WireSpiTransportEEEE5WidthEv:0000000000000000 _ZNK5daisy11OledDisplayINS_13SSD130xDriverILj128ELj64ENS_24SSD130x4WireSpiTransportEEEE5WidthEv
     /tmp/ccobg3TQ.s:257    .text._ZN5daisy11OledDisplayINS_13SSD130xDriverILj128ELj64ENS_24SSD130x4WireSpiTransportEEEED0Ev:0000000000000000 $t
     /tmp/ccobg3TQ.s:265    .text._ZN5daisy11OledDisplayINS_13SSD130xDriverILj128ELj64ENS_24SSD130x4WireSpiTransportEEEED0Ev:0000000000000000 _ZN5daisy11OledDisplayINS_13SSD130xDriverILj128ELj64ENS_24SSD130x4WireSpiTransportEEEED0Ev
     /tmp/ccobg3TQ.s:305    .text._ZN5daisy11OledDisplayINS_13SSD130xDriverILj128ELj64ENS_24SSD130x4WireSpiTransportEEEE6UpdateEv:0000000000000000 $t
     /tmp/ccobg3TQ.s:313    .text._ZN5daisy11OledDisplayINS_13SSD130xDriverILj128ELj64ENS_24SSD130x4WireSpiTransportEEEE6UpdateEv:0000000000000000 _ZN5daisy11OledDisplayINS_13SSD130xDriverILj128ELj64ENS_24SSD130x4WireSpiTransportEEEE6UpdateEv
     /tmp/ccobg3TQ.s:473    .text._ZN5daisy25OneBitGraphicsDisplayImplINS_11OledDisplayINS_13SSD130xDriverILj128ELj64ENS_24SSD130x4WireSpiTransportEEEEEE9WriteCharEc7FontDefb:0000000000000000 $t
     /tmp/ccobg3TQ.s:481    .text._ZN5daisy25OneBitGraphicsDisplayImplINS_11OledDisplayINS_13SSD130xDriverILj128ELj64ENS_24SSD130x4WireSpiTransportEEEEEE9WriteCharEc7FontDefb:0000000000000000 _ZN5daisy25OneBitGraphicsDisplayImplINS_11OledDisplayINS_13SSD130xDriverILj128ELj64ENS_24SSD130x4WireSpiTransportEEEEEE9WriteCharEc7FontDefb
     /tmp/ccobg3TQ.s:911    .text._ZN5daisy25OneBitGraphicsDisplayImplINS_11OledDisplayINS_13SSD130xDriverILj128ELj64ENS_24SSD130x4WireSpiTransportEEEEEE9WriteCharEc7FontDefb:0000000000000194 $d
     /tmp/ccobg3TQ.s:919    .text._ZN5daisy11OledDisplayINS_13SSD130xDriverILj128ELj64ENS_24SSD130x4WireSpiTransportEEEE9DrawPixelEjjb:0000000000000000 $t
     /tmp/ccobg3TQ.s:927    .text._ZN5daisy11OledDisplayINS_13SSD130xDriverILj128ELj64ENS_24SSD130x4WireSpiTransportEEEE9DrawPixelEjjb:0000000000000000 _ZN5daisy11OledDisplayINS_13SSD130xDriverILj128ELj64ENS_24SSD130x4WireSpiTransportEEEE9DrawPixelEjjb
     /tmp/ccobg3TQ.s:1031   .text._ZN5daisy25OneBitGraphicsDisplayImplINS_11OledDisplayINS_13SSD130xDriverILj128ELj64ENS_24SSD130x4WireSpiTransportEEEEEE8DrawLineEjjjjb:0000000000000000 $t
     /tmp/ccobg3TQ.s:1039   .text._ZN5daisy25OneBitGraphicsDisplayImplINS_11OledDisplayINS_13SSD130xDriverILj128ELj64ENS_24SSD130x4WireSpiTransportEEEEEE8DrawLineEjjjjb:0000000000000000 _ZN5daisy25OneBitGraphicsDisplayImplINS_11OledDisplayINS_13SSD130xDriverILj128ELj64ENS_24SSD130x4WireSpiTransportEEEEEE8DrawLineEjjjjb
     /tmp/ccobg3TQ.s:1325   .text._ZN5daisy25OneBitGraphicsDisplayImplINS_11OledDisplayINS_13SSD130xDriverILj128ELj64ENS_24SSD130x4WireSpiTransportEEEEEE11WriteStringEPKc7FontDefb:0000000000000000 $t
     /tmp/ccobg3TQ.s:1333   .text._ZN5daisy25OneBitGraphicsDisplayImplINS_11OledDisplayINS_13SSD130xDriverILj128ELj64ENS_24SSD130x4WireSpiTransportEEEEEE11WriteStringEPKc7FontDefb:0000000000000000 _ZN5daisy25OneBitGraphicsDisplayImplINS_11OledDisplayINS_13SSD130xDriverILj128ELj64ENS_24SSD130x4WireSpiTransportEEEEEE11WriteStringEPKc7FontDefb
     /tmp/ccobg3TQ.s:1792   .text._ZN5daisy25OneBitGraphicsDisplayImplINS_11OledDisplayINS_13SSD130xDriverILj128ELj64ENS_24SSD130x4WireSpiTransportEEEEEE11WriteStringEPKc7FontDefb:00000000000001d8 $d
     /tmp/ccobg3TQ.s:1802   .text._ZN5daisy25OneBitGraphicsDisplayImplINS_11OledDisplayINS_13SSD130xDriverILj128ELj64ENS_24SSD130x4WireSpiTransportEEEEEE7DrawArcEjjjiib:0000000000000000 $t
     /tmp/ccobg3TQ.s:1810   .text._ZN5daisy25OneBitGraphicsDisplayImplINS_11OledDisplayINS_13SSD130xDriverILj128ELj64ENS_24SSD130x4WireSpiTransportEEEEEE7DrawArcEjjjiib:0000000000000000 _ZN5daisy25OneBitGraphicsDisplayImplINS_11OledDisplayINS_13SSD130xDriverILj128ELj64ENS_24SSD130x4WireSpiTransportEEEEEE7DrawArcEjjjiib
     /tmp/ccobg3TQ.s:2589   .text._ZN5daisy25OneBitGraphicsDisplayImplINS_11OledDisplayINS_13SSD130xDriverILj128ELj64ENS_24SSD130x4WireSpiTransportEEEEEE7DrawArcEjjjiib:0000000000000388 $d
     /tmp/ccobg3TQ.s:2596   .text._ZN5daisy25OneBitGraphicsDisplayImplINS_11OledDisplayINS_13SSD130xDriverILj128ELj64ENS_24SSD130x4WireSpiTransportEEEEEE7DrawArcEjjjiib:0000000000000398 $t
     /tmp/ccobg3TQ.s:2694   .text._ZN5daisy25OneBitGraphicsDisplayImplINS_11OledDisplayINS_13SSD130xDriverILj128ELj64ENS_24SSD130x4WireSpiTransportEEEEEE18WriteStringAlignedEPKcRK7FontDefNS_9RectangleENS_9AlignmentEb:0000000000000000 $t
     /tmp/ccobg3TQ.s:2702   .text._ZN5daisy25OneBitGraphicsDisplayImplINS_11OledDisplayINS_13SSD130xDriverILj128ELj64ENS_24SSD130x4WireSpiTransportEEEEEE18WriteStringAlignedEPKcRK7FontDefNS_9RectangleENS_9AlignmentEb:0000000000000000 _ZN5daisy25OneBitGraphicsDisplayImplINS_11OledDisplayINS_13SSD130xDriverILj128ELj64ENS_24SSD130x4WireSpiTransportEEEEEE18WriteStringAlignedEPKcRK7FontDefNS_9RectangleENS_9AlignmentEb
     /tmp/ccobg3TQ.s:2842   .text._ZN5daisy25OneBitGraphicsDisplayImplINS_11OledDisplayINS_13SSD130xDriverILj128ELj64ENS_24SSD130x4WireSpiTransportEEEEEE18WriteStringAlignedEPKcRK7FontDefNS_9RectangleENS_9AlignmentEb:0000000000000048 $d
     /tmp/ccobg3TQ.s:2851   .text._ZN5daisy25OneBitGraphicsDisplayImplINS_11OledDisplayINS_13SSD130xDriverILj128ELj64ENS_24SSD130x4WireSpiTransportEEEEEE18WriteStringAlignedEPKcRK7FontDefNS_9RectangleENS_9AlignmentEb:000000000000005a $t
     /tmp/ccobg3TQ.s:4179   .text._ZN5daisy25OneBitGraphicsDisplayImplINS_11OledDisplayINS_13SSD130xDriverILj128ELj64ENS_24SSD130x4WireSpiTransportEEEEEE18WriteStringAlignedEPKcRK7FontDefNS_9RectangleENS_9AlignmentEb:0000000000000364 $d
     /tmp/ccobg3TQ.s:4183   .text._ZN5daisy25OneBitGraphicsDisplayImplINS_11OledDisplayINS_13SSD130xDriverILj128ELj64ENS_24SSD130x4WireSpiTransportEEEEEE18WriteStringAlignedEPKcRK7FontDefNS_9RectangleENS_9AlignmentEb:000000000000036c $t
     /tmp/ccobg3TQ.s:4352   .text._ZN5daisy25OneBitGraphicsDisplayImplINS_11OledDisplayINS_13SSD130xDriverILj128ELj64ENS_24SSD130x4WireSpiTransportEEEEEE18WriteStringAlignedEPKcRK7FontDefNS_9RectangleENS_9AlignmentEb:00000000000003ec $d
     /tmp/ccobg3TQ.s:4360   .text._ZN5daisy25OneBitGraphicsDisplayImplINS_11OledDisplayINS_13SSD130xDriverILj128ELj64ENS_24SSD130x4WireSpiTransportEEEEEE8DrawRectEjjjjbb:0000000000000000 $t
     /tmp/ccobg3TQ.s:4368   .text._ZN5daisy25OneBitGraphicsDisplayImplINS_11OledDisplayINS_13SSD130xDriverILj128ELj64ENS_24SSD130x4WireSpiTransportEEEEEE8DrawRectEjjjjbb:0000000000000000 _ZN5daisy25OneBitGraphicsDisplayImplINS_11OledDisplayINS_13SSD130xDriverILj128ELj64ENS_24SSD130x4WireSpiTransportEEEEEE8DrawRectEjjjjbb
     /tmp/ccobg3TQ.s:5506   .text._Z14UpdateControlsv:0000000000000000 $t
     /tmp/ccobg3TQ.s:5514   .text._Z14UpdateControlsv:0000000000000000 _Z14UpdateControlsv
     /tmp/ccobg3TQ.s:5894   .text._Z14UpdateControlsv:00000000000000c8 $d
     /tmp/ccobg3TQ.s:8782   .bss.patch:0000000000000000 patch
     /tmp/ccobg3TQ.s:5911   .text._Z13UpdateOutputsv:0000000000000000 $t
     /tmp/ccobg3TQ.s:5919   .text._Z13UpdateOutputsv:0000000000000000 _Z13UpdateOutputsv
     /tmp/ccobg3TQ.s:5986   .text._Z13UpdateOutputsv:000000000000004c $d
     /tmp/ccobg3TQ.s:5993   .rodata._Z10UpdateOledv.str1.4:0000000000000000 $d
     /tmp/ccobg3TQ.s:6000   .rodata._Z10UpdateOledv.str1.4:0000000000000008 .LC4
     /tmp/ccobg3TQ.s:6006   .text._Z10UpdateOledv:0000000000000000 $t
     /tmp/ccobg3TQ.s:6014   .text._Z10UpdateOledv:0000000000000000 _Z10UpdateOledv
     /tmp/ccobg3TQ.s:6860   .text._Z10UpdateOledv:0000000000000240 $d
     /tmp/ccobg3TQ.s:6880   .text._Z10UpdateOledv:0000000000000260 $t
     /tmp/ccobg3TQ.s:8061   .text._Z10UpdateOledv:00000000000005bc $d
ARM GAS  /tmp/ccobg3TQ.s 			page 280


     /tmp/ccobg3TQ.s:8078   .text._Z10UpdateOledv:00000000000005e0 $t
     /tmp/ccobg3TQ.s:8135   .text.startup.main:0000000000000000 $t
     /tmp/ccobg3TQ.s:8143   .text.startup.main:0000000000000000 main
     /tmp/ccobg3TQ.s:8186   .text.startup.main:0000000000000020 $d
     /tmp/ccobg3TQ.s:8191   .text.startup._GLOBAL__sub_I_patch:0000000000000000 $t
     /tmp/ccobg3TQ.s:8198   .text.startup._GLOBAL__sub_I_patch:0000000000000000 _GLOBAL__sub_I_patch
     /tmp/ccobg3TQ.s:8671   .text.startup._GLOBAL__sub_I_patch:000000000000007c $d
     /tmp/ccobg3TQ.s:8742   .rodata._ZTVN5daisy11OledDisplayINS_13SSD130xDriverILj128ELj64ENS_24SSD130x4WireSpiTransportEEEEE:0000000000000000 _ZTVN5daisy11OledDisplayINS_13SSD130xDriverILj128ELj64ENS_24SSD130x4WireSpiTransportEEEEE
     /tmp/ccobg3TQ.s:8685   .init_array:0000000000000000 $d
     /tmp/ccobg3TQ.s:8692   .rodata._ZTSN5daisy21OneBitGraphicsDisplayE:0000000000000000 _ZTSN5daisy21OneBitGraphicsDisplayE
     /tmp/ccobg3TQ.s:8689   .rodata._ZTSN5daisy21OneBitGraphicsDisplayE:0000000000000000 $d
     /tmp/ccobg3TQ.s:8699   .rodata._ZTIN5daisy21OneBitGraphicsDisplayE:0000000000000000 _ZTIN5daisy21OneBitGraphicsDisplayE
     /tmp/ccobg3TQ.s:8696   .rodata._ZTIN5daisy21OneBitGraphicsDisplayE:0000000000000000 $d
     /tmp/ccobg3TQ.s:8707   .rodata._ZTSN5daisy25OneBitGraphicsDisplayImplINS_11OledDisplayINS_13SSD130xDriverILj128ELj64ENS_24SSD130x4WireSpiTransportEEEEEEE:0000000000000000 _ZTSN5daisy25OneBitGraphicsDisplayImplINS_11OledDisplayINS_13SSD130xDriverILj128ELj64ENS_24SSD130x4WireSpiTransportEEEEEEE
     /tmp/ccobg3TQ.s:8704   .rodata._ZTSN5daisy25OneBitGraphicsDisplayImplINS_11OledDisplayINS_13SSD130xDriverILj128ELj64ENS_24SSD130x4WireSpiTransportEEEEEEE:0000000000000000 $d
     /tmp/ccobg3TQ.s:8716   .rodata._ZTIN5daisy25OneBitGraphicsDisplayImplINS_11OledDisplayINS_13SSD130xDriverILj128ELj64ENS_24SSD130x4WireSpiTransportEEEEEEE:0000000000000000 _ZTIN5daisy25OneBitGraphicsDisplayImplINS_11OledDisplayINS_13SSD130xDriverILj128ELj64ENS_24SSD130x4WireSpiTransportEEEEEEE
     /tmp/ccobg3TQ.s:8713   .rodata._ZTIN5daisy25OneBitGraphicsDisplayImplINS_11OledDisplayINS_13SSD130xDriverILj128ELj64ENS_24SSD130x4WireSpiTransportEEEEEEE:0000000000000000 $d
     /tmp/ccobg3TQ.s:8725   .rodata._ZTSN5daisy11OledDisplayINS_13SSD130xDriverILj128ELj64ENS_24SSD130x4WireSpiTransportEEEEE:0000000000000000 _ZTSN5daisy11OledDisplayINS_13SSD130xDriverILj128ELj64ENS_24SSD130x4WireSpiTransportEEEEE
     /tmp/ccobg3TQ.s:8722   .rodata._ZTSN5daisy11OledDisplayINS_13SSD130xDriverILj128ELj64ENS_24SSD130x4WireSpiTransportEEEEE:0000000000000000 $d
     /tmp/ccobg3TQ.s:8733   .rodata._ZTIN5daisy11OledDisplayINS_13SSD130xDriverILj128ELj64ENS_24SSD130x4WireSpiTransportEEEEE:0000000000000000 _ZTIN5daisy11OledDisplayINS_13SSD130xDriverILj128ELj64ENS_24SSD130x4WireSpiTransportEEEEE
     /tmp/ccobg3TQ.s:8730   .rodata._ZTIN5daisy11OledDisplayINS_13SSD130xDriverILj128ELj64ENS_24SSD130x4WireSpiTransportEEEEE:0000000000000000 $d
     /tmp/ccobg3TQ.s:8739   .rodata._ZTVN5daisy11OledDisplayINS_13SSD130xDriverILj128ELj64ENS_24SSD130x4WireSpiTransportEEEEE:0000000000000000 $d
     /tmp/ccobg3TQ.s:8776   .bss.menuPos:0000000000000000 menuPos
     /tmp/ccobg3TQ.s:8789   .bss.sampHolds:0000000000000000 sampHolds
     /tmp/ccobg3TQ.s:8762   .rodata:0000000000000000 $d
     /tmp/ccobg3TQ.s:8772   .bss.menuPos:0000000000000000 $d
     /tmp/ccobg3TQ.s:8779   .bss.patch:0000000000000000 $d
     /tmp/ccobg3TQ.s:8785   .bss.sampHolds:0000000000000000 $d
                           .group:0000000000000000 _ZN5daisy10DaisyPatchD5Ev
                           .group:0000000000000000 _ZN5daisy11OledDisplayINS_13SSD130xDriverILj128ELj64ENS_24SSD130x4WireSpiTransportEEEED5Ev

UNDEFINED SYMBOLS
_ZdlPvj
dsy_gpio_write
_ZN5daisy9SpiHandle16BlockingTransmitEPhjm
cosf
sinf
_ZN5daisy10DaisyPatch21ProcessAnalogControlsEv
_ZN5daisy10DaisyPatch22ProcessDigitalControlsEv
dsy_gpio_read
_ZN5daisy13AnalogControl7ProcessEv
_ZN5daisy9DacHandle10WriteValueENS0_7ChannelEt
_ZNSt7__cxx1112basic_stringIcSt11char_traitsIcESaIcEE9_M_createERjj
_ZNSt7__cxx1112basic_stringIcSt11char_traitsIcESaIcEE10_M_replaceEjjPKcj
Font_6x8
Font_7x10
_ZdlPv
_ZN5daisy10DaisyPatch4InitEb
_ZN5daisy10DaisyPatch8StartAdcEv
__aeabi_atexit
__dso_handle
_ZTVN10__cxxabiv117__class_type_infoE
_ZTVN10__cxxabiv120__si_class_type_infoE
